ARM GAS  /tmp/cc3wfdLm.s 			page 1


   1              		.syntax unified
   2              		.cpu cortex-m7
   3              		.eabi_attribute 27, 1
   4              		.eabi_attribute 28, 1
   5              		.fpu fpv5-sp-d16
   6              		.eabi_attribute 20, 1
   7              		.eabi_attribute 21, 1
   8              		.eabi_attribute 23, 3
   9              		.eabi_attribute 24, 1
  10              		.eabi_attribute 25, 1
  11              		.eabi_attribute 26, 1
  12              		.eabi_attribute 30, 6
  13              		.eabi_attribute 34, 1
  14              		.eabi_attribute 18, 4
  15              		.thumb
  16              		.file	"FreeRTOS_IP.c"
  17              		.text
  18              	.Ltext0:
  19              		.cfi_sections	.debug_frame
  20              		.global	xNetworkEventQueue
  21              		.section	.bss.xNetworkEventQueue,"aw",%nobits
  22              		.align	2
  25              	xNetworkEventQueue:
  26 0000 00000000 		.space	4
  27              		.global	usPacketIdentifier
  28              		.section	.bss.usPacketIdentifier,"aw",%nobits
  29              		.align	1
  32              	usPacketIdentifier:
  33 0000 0000     		.space	2
  34              		.global	xBroadcastMACAddress
  35              		.section	.rodata.xBroadcastMACAddress,"a",%progbits
  36              		.align	2
  39              	xBroadcastMACAddress:
  40 0000 FF       		.byte	-1
  41 0001 FF       		.byte	-1
  42 0002 FF       		.byte	-1
  43 0003 FF       		.byte	-1
  44 0004 FF       		.byte	-1
  45 0005 FF       		.byte	-1
  46              		.global	xNetworkAddressing
  47              		.section	.bss.xNetworkAddressing,"aw",%nobits
  48              		.align	2
  51              	xNetworkAddressing:
  52 0000 00000000 		.space	20
  52      00000000 
  52      00000000 
  52      00000000 
  52      00000000 
  53              		.global	xDefaultAddressing
  54              		.section	.bss.xDefaultAddressing,"aw",%nobits
  55              		.align	2
  58              	xDefaultAddressing:
  59 0000 00000000 		.space	20
  59      00000000 
  59      00000000 
  59      00000000 
  59      00000000 
ARM GAS  /tmp/cc3wfdLm.s 			page 2


  60              		.section	.bss.xNetworkDownEventPending,"aw",%nobits
  61              		.align	2
  64              	xNetworkDownEventPending:
  65 0000 00000000 		.space	4
  66              		.section	.bss.xIPTaskHandle,"aw",%nobits
  67              		.align	2
  70              	xIPTaskHandle:
  71 0000 00000000 		.space	4
  72              		.section	.bss.xProcessedTCPMessage,"aw",%nobits
  73              		.align	2
  76              	xProcessedTCPMessage:
  77 0000 00000000 		.space	4
  78              		.section	.bss.xNetworkUp,"aw",%nobits
  79              		.align	2
  82              	xNetworkUp:
  83 0000 00000000 		.space	4
  84              		.section	.bss.xARPTimer,"aw",%nobits
  85              		.align	2
  88              	xARPTimer:
  89 0000 00000000 		.space	20
  89      00000000 
  89      00000000 
  89      00000000 
  89      00000000 
  90              		.section	.bss.xDHCPTimer,"aw",%nobits
  91              		.align	2
  94              	xDHCPTimer:
  95 0000 00000000 		.space	20
  95      00000000 
  95      00000000 
  95      00000000 
  95      00000000 
  96              		.section	.bss.xTCPTimer,"aw",%nobits
  97              		.align	2
 100              	xTCPTimer:
 101 0000 00000000 		.space	20
 101      00000000 
 101      00000000 
 101      00000000 
 101      00000000 
 102              		.section	.bss.xDNSTimer,"aw",%nobits
 103              		.align	2
 106              	xDNSTimer:
 107 0000 00000000 		.space	20
 107      00000000 
 107      00000000 
 107      00000000 
 107      00000000 
 108              		.section	.bss.xIPTaskInitialised,"aw",%nobits
 109              		.align	2
 112              	xIPTaskInitialised:
 113 0000 00000000 		.space	4
 114              		.section	.text.prvIPTask,"ax",%progbits
 115              		.align	2
 116              		.thumb
 117              		.thumb_func
 119              	prvIPTask:
ARM GAS  /tmp/cc3wfdLm.s 			page 3


 120              	.LFB29:
 121              		.file 1 "../../../FreeRTOS-Plus/Source/FreeRTOS-Plus-TCP/FreeRTOS_IP.c"
   1:../../../FreeRTOS-Plus/Source/FreeRTOS-Plus-TCP/FreeRTOS_IP.c **** /*
   2:../../../FreeRTOS-Plus/Source/FreeRTOS-Plus-TCP/FreeRTOS_IP.c ****  * FreeRTOS+TCP Labs Build 160919 (C) 2016 Real Time Engineers ltd.
   3:../../../FreeRTOS-Plus/Source/FreeRTOS-Plus-TCP/FreeRTOS_IP.c ****  * Authors include Hein Tibosch and Richard Barry
   4:../../../FreeRTOS-Plus/Source/FreeRTOS-Plus-TCP/FreeRTOS_IP.c ****  *
   5:../../../FreeRTOS-Plus/Source/FreeRTOS-Plus-TCP/FreeRTOS_IP.c ****  *******************************************************************************
   6:../../../FreeRTOS-Plus/Source/FreeRTOS-Plus-TCP/FreeRTOS_IP.c ****  ***** NOTE ******* NOTE ******* NOTE ******* NOTE ******* NOTE ******* NOTE ***
   7:../../../FreeRTOS-Plus/Source/FreeRTOS-Plus-TCP/FreeRTOS_IP.c ****  ***                                                                         ***
   8:../../../FreeRTOS-Plus/Source/FreeRTOS-Plus-TCP/FreeRTOS_IP.c ****  ***                                                                         ***
   9:../../../FreeRTOS-Plus/Source/FreeRTOS-Plus-TCP/FreeRTOS_IP.c ****  ***   FREERTOS+TCP IS STILL IN THE LAB (mainly because the FTP and HTTP     ***
  10:../../../FreeRTOS-Plus/Source/FreeRTOS-Plus-TCP/FreeRTOS_IP.c ****  ***   demos have a dependency on FreeRTOS+FAT, which is only in the Labs    ***
  11:../../../FreeRTOS-Plus/Source/FreeRTOS-Plus-TCP/FreeRTOS_IP.c ****  ***   download):                                                            ***
  12:../../../FreeRTOS-Plus/Source/FreeRTOS-Plus-TCP/FreeRTOS_IP.c ****  ***                                                                         ***
  13:../../../FreeRTOS-Plus/Source/FreeRTOS-Plus-TCP/FreeRTOS_IP.c ****  ***   FreeRTOS+TCP is functional and has been used in commercial products   ***
  14:../../../FreeRTOS-Plus/Source/FreeRTOS-Plus-TCP/FreeRTOS_IP.c ****  ***   for some time.  Be aware however that we are still refining its       ***
  15:../../../FreeRTOS-Plus/Source/FreeRTOS-Plus-TCP/FreeRTOS_IP.c ****  ***   design, the source code does not yet quite conform to the strict      ***
  16:../../../FreeRTOS-Plus/Source/FreeRTOS-Plus-TCP/FreeRTOS_IP.c ****  ***   coding and style standards mandated by Real Time Engineers ltd., and  ***
  17:../../../FreeRTOS-Plus/Source/FreeRTOS-Plus-TCP/FreeRTOS_IP.c ****  ***   the documentation and testing is not necessarily complete.            ***
  18:../../../FreeRTOS-Plus/Source/FreeRTOS-Plus-TCP/FreeRTOS_IP.c ****  ***                                                                         ***
  19:../../../FreeRTOS-Plus/Source/FreeRTOS-Plus-TCP/FreeRTOS_IP.c ****  ***   PLEASE REPORT EXPERIENCES USING THE SUPPORT RESOURCES FOUND ON THE    ***
  20:../../../FreeRTOS-Plus/Source/FreeRTOS-Plus-TCP/FreeRTOS_IP.c ****  ***   URL: http://www.FreeRTOS.org/contact  Active early adopters may, at   ***
  21:../../../FreeRTOS-Plus/Source/FreeRTOS-Plus-TCP/FreeRTOS_IP.c ****  ***   the sole discretion of Real Time Engineers Ltd., be offered versions  ***
  22:../../../FreeRTOS-Plus/Source/FreeRTOS-Plus-TCP/FreeRTOS_IP.c ****  ***   under a license other than that described below.                      ***
  23:../../../FreeRTOS-Plus/Source/FreeRTOS-Plus-TCP/FreeRTOS_IP.c ****  ***                                                                         ***
  24:../../../FreeRTOS-Plus/Source/FreeRTOS-Plus-TCP/FreeRTOS_IP.c ****  ***                                                                         ***
  25:../../../FreeRTOS-Plus/Source/FreeRTOS-Plus-TCP/FreeRTOS_IP.c ****  ***** NOTE ******* NOTE ******* NOTE ******* NOTE ******* NOTE ******* NOTE ***
  26:../../../FreeRTOS-Plus/Source/FreeRTOS-Plus-TCP/FreeRTOS_IP.c ****  *******************************************************************************
  27:../../../FreeRTOS-Plus/Source/FreeRTOS-Plus-TCP/FreeRTOS_IP.c ****  *
  28:../../../FreeRTOS-Plus/Source/FreeRTOS-Plus-TCP/FreeRTOS_IP.c ****  * FreeRTOS+TCP can be used under two different free open source licenses.  The
  29:../../../FreeRTOS-Plus/Source/FreeRTOS-Plus-TCP/FreeRTOS_IP.c ****  * license that applies is dependent on the processor on which FreeRTOS+TCP is
  30:../../../FreeRTOS-Plus/Source/FreeRTOS-Plus-TCP/FreeRTOS_IP.c ****  * executed, as follows:
  31:../../../FreeRTOS-Plus/Source/FreeRTOS-Plus-TCP/FreeRTOS_IP.c ****  *
  32:../../../FreeRTOS-Plus/Source/FreeRTOS-Plus-TCP/FreeRTOS_IP.c ****  * If FreeRTOS+TCP is executed on one of the processors listed under the Special
  33:../../../FreeRTOS-Plus/Source/FreeRTOS-Plus-TCP/FreeRTOS_IP.c ****  * License Arrangements heading of the FreeRTOS+TCP license information web
  34:../../../FreeRTOS-Plus/Source/FreeRTOS-Plus-TCP/FreeRTOS_IP.c ****  * page, then it can be used under the terms of the FreeRTOS Open Source
  35:../../../FreeRTOS-Plus/Source/FreeRTOS-Plus-TCP/FreeRTOS_IP.c ****  * License.  If FreeRTOS+TCP is used on any other processor, then it can be used
  36:../../../FreeRTOS-Plus/Source/FreeRTOS-Plus-TCP/FreeRTOS_IP.c ****  * under the terms of the GNU General Public License V2.  Links to the relevant
  37:../../../FreeRTOS-Plus/Source/FreeRTOS-Plus-TCP/FreeRTOS_IP.c ****  * licenses follow:
  38:../../../FreeRTOS-Plus/Source/FreeRTOS-Plus-TCP/FreeRTOS_IP.c ****  *
  39:../../../FreeRTOS-Plus/Source/FreeRTOS-Plus-TCP/FreeRTOS_IP.c ****  * The FreeRTOS+TCP License Information Page: http://www.FreeRTOS.org/tcp_license
  40:../../../FreeRTOS-Plus/Source/FreeRTOS-Plus-TCP/FreeRTOS_IP.c ****  * The FreeRTOS Open Source License: http://www.FreeRTOS.org/license
  41:../../../FreeRTOS-Plus/Source/FreeRTOS-Plus-TCP/FreeRTOS_IP.c ****  * The GNU General Public License Version 2: http://www.FreeRTOS.org/gpl-2.0.txt
  42:../../../FreeRTOS-Plus/Source/FreeRTOS-Plus-TCP/FreeRTOS_IP.c ****  *
  43:../../../FreeRTOS-Plus/Source/FreeRTOS-Plus-TCP/FreeRTOS_IP.c ****  * FreeRTOS+TCP is distributed in the hope that it will be useful.  You cannot
  44:../../../FreeRTOS-Plus/Source/FreeRTOS-Plus-TCP/FreeRTOS_IP.c ****  * use FreeRTOS+TCP unless you agree that you use the software 'as is'.
  45:../../../FreeRTOS-Plus/Source/FreeRTOS-Plus-TCP/FreeRTOS_IP.c ****  * FreeRTOS+TCP is provided WITHOUT ANY WARRANTY; without even the implied
  46:../../../FreeRTOS-Plus/Source/FreeRTOS-Plus-TCP/FreeRTOS_IP.c ****  * warranties of NON-INFRINGEMENT, MERCHANTABILITY or FITNESS FOR A PARTICULAR
  47:../../../FreeRTOS-Plus/Source/FreeRTOS-Plus-TCP/FreeRTOS_IP.c ****  * PURPOSE. Real Time Engineers Ltd. disclaims all conditions and terms, be they
  48:../../../FreeRTOS-Plus/Source/FreeRTOS-Plus-TCP/FreeRTOS_IP.c ****  * implied, expressed, or statutory.
  49:../../../FreeRTOS-Plus/Source/FreeRTOS-Plus-TCP/FreeRTOS_IP.c ****  *
  50:../../../FreeRTOS-Plus/Source/FreeRTOS-Plus-TCP/FreeRTOS_IP.c ****  * 1 tab == 4 spaces!
  51:../../../FreeRTOS-Plus/Source/FreeRTOS-Plus-TCP/FreeRTOS_IP.c ****  *
  52:../../../FreeRTOS-Plus/Source/FreeRTOS-Plus-TCP/FreeRTOS_IP.c ****  * http://www.FreeRTOS.org
  53:../../../FreeRTOS-Plus/Source/FreeRTOS-Plus-TCP/FreeRTOS_IP.c ****  * http://www.FreeRTOS.org/plus
  54:../../../FreeRTOS-Plus/Source/FreeRTOS-Plus-TCP/FreeRTOS_IP.c ****  * http://www.FreeRTOS.org/labs
  55:../../../FreeRTOS-Plus/Source/FreeRTOS-Plus-TCP/FreeRTOS_IP.c ****  *
ARM GAS  /tmp/cc3wfdLm.s 			page 4


  56:../../../FreeRTOS-Plus/Source/FreeRTOS-Plus-TCP/FreeRTOS_IP.c ****  */
  57:../../../FreeRTOS-Plus/Source/FreeRTOS-Plus-TCP/FreeRTOS_IP.c **** 
  58:../../../FreeRTOS-Plus/Source/FreeRTOS-Plus-TCP/FreeRTOS_IP.c **** /* Standard includes. */
  59:../../../FreeRTOS-Plus/Source/FreeRTOS-Plus-TCP/FreeRTOS_IP.c **** #include <stdint.h>
  60:../../../FreeRTOS-Plus/Source/FreeRTOS-Plus-TCP/FreeRTOS_IP.c **** #include <stdio.h>
  61:../../../FreeRTOS-Plus/Source/FreeRTOS-Plus-TCP/FreeRTOS_IP.c **** #include <string.h>
  62:../../../FreeRTOS-Plus/Source/FreeRTOS-Plus-TCP/FreeRTOS_IP.c **** 
  63:../../../FreeRTOS-Plus/Source/FreeRTOS-Plus-TCP/FreeRTOS_IP.c **** /* FreeRTOS includes. */
  64:../../../FreeRTOS-Plus/Source/FreeRTOS-Plus-TCP/FreeRTOS_IP.c **** #include "FreeRTOS.h"
  65:../../../FreeRTOS-Plus/Source/FreeRTOS-Plus-TCP/FreeRTOS_IP.c **** #include "task.h"
  66:../../../FreeRTOS-Plus/Source/FreeRTOS-Plus-TCP/FreeRTOS_IP.c **** #include "queue.h"
  67:../../../FreeRTOS-Plus/Source/FreeRTOS-Plus-TCP/FreeRTOS_IP.c **** #include "semphr.h"
  68:../../../FreeRTOS-Plus/Source/FreeRTOS-Plus-TCP/FreeRTOS_IP.c **** 
  69:../../../FreeRTOS-Plus/Source/FreeRTOS-Plus-TCP/FreeRTOS_IP.c **** /* FreeRTOS+TCP includes. */
  70:../../../FreeRTOS-Plus/Source/FreeRTOS-Plus-TCP/FreeRTOS_IP.c **** #include "FreeRTOS_IP.h"
  71:../../../FreeRTOS-Plus/Source/FreeRTOS-Plus-TCP/FreeRTOS_IP.c **** #include "FreeRTOS_Sockets.h"
  72:../../../FreeRTOS-Plus/Source/FreeRTOS-Plus-TCP/FreeRTOS_IP.c **** #include "FreeRTOS_IP_Private.h"
  73:../../../FreeRTOS-Plus/Source/FreeRTOS-Plus-TCP/FreeRTOS_IP.c **** #include "FreeRTOS_ARP.h"
  74:../../../FreeRTOS-Plus/Source/FreeRTOS-Plus-TCP/FreeRTOS_IP.c **** #include "FreeRTOS_UDP_IP.h"
  75:../../../FreeRTOS-Plus/Source/FreeRTOS-Plus-TCP/FreeRTOS_IP.c **** #include "FreeRTOS_TCP_IP.h"
  76:../../../FreeRTOS-Plus/Source/FreeRTOS-Plus-TCP/FreeRTOS_IP.c **** #include "FreeRTOS_DHCP.h"
  77:../../../FreeRTOS-Plus/Source/FreeRTOS-Plus-TCP/FreeRTOS_IP.c **** #include "NetworkInterface.h"
  78:../../../FreeRTOS-Plus/Source/FreeRTOS-Plus-TCP/FreeRTOS_IP.c **** #include "NetworkBufferManagement.h"
  79:../../../FreeRTOS-Plus/Source/FreeRTOS-Plus-TCP/FreeRTOS_IP.c **** #include "FreeRTOS_DNS.h"
  80:../../../FreeRTOS-Plus/Source/FreeRTOS-Plus-TCP/FreeRTOS_IP.c **** 
  81:../../../FreeRTOS-Plus/Source/FreeRTOS-Plus-TCP/FreeRTOS_IP.c **** 
  82:../../../FreeRTOS-Plus/Source/FreeRTOS-Plus-TCP/FreeRTOS_IP.c **** /* Used to ensure the structure packing is having the desired effect.  The
  83:../../../FreeRTOS-Plus/Source/FreeRTOS-Plus-TCP/FreeRTOS_IP.c **** 'volatile' is used to prevent compiler warnings about comparing a constant with
  84:../../../FreeRTOS-Plus/Source/FreeRTOS-Plus-TCP/FreeRTOS_IP.c **** a constant. */
  85:../../../FreeRTOS-Plus/Source/FreeRTOS-Plus-TCP/FreeRTOS_IP.c **** #define ipEXPECTED_EthernetHeader_t_SIZE	( ( size_t ) 14 )
  86:../../../FreeRTOS-Plus/Source/FreeRTOS-Plus-TCP/FreeRTOS_IP.c **** #define ipEXPECTED_ARPHeader_t_SIZE			( ( size_t ) 28 )
  87:../../../FreeRTOS-Plus/Source/FreeRTOS-Plus-TCP/FreeRTOS_IP.c **** #define ipEXPECTED_IPHeader_t_SIZE			( ( size_t ) 20 )
  88:../../../FreeRTOS-Plus/Source/FreeRTOS-Plus-TCP/FreeRTOS_IP.c **** #define ipEXPECTED_IGMPHeader__SIZE			( ( size_t ) 8 )
  89:../../../FreeRTOS-Plus/Source/FreeRTOS-Plus-TCP/FreeRTOS_IP.c **** #define ipEXPECTED_ICMPHeader_t_SIZE		( ( size_t ) 8 )
  90:../../../FreeRTOS-Plus/Source/FreeRTOS-Plus-TCP/FreeRTOS_IP.c **** #define ipEXPECTED_UDPHeader_t_SIZE			( ( size_t ) 8 )
  91:../../../FreeRTOS-Plus/Source/FreeRTOS-Plus-TCP/FreeRTOS_IP.c **** #define ipEXPECTED_TCPHeader_t_SIZE			( ( size_t ) 20 )
  92:../../../FreeRTOS-Plus/Source/FreeRTOS-Plus-TCP/FreeRTOS_IP.c **** 
  93:../../../FreeRTOS-Plus/Source/FreeRTOS-Plus-TCP/FreeRTOS_IP.c **** 
  94:../../../FreeRTOS-Plus/Source/FreeRTOS-Plus-TCP/FreeRTOS_IP.c **** /* ICMP protocol definitions. */
  95:../../../FreeRTOS-Plus/Source/FreeRTOS-Plus-TCP/FreeRTOS_IP.c **** #define ipICMP_ECHO_REQUEST				( ( uint8_t ) 8 )
  96:../../../FreeRTOS-Plus/Source/FreeRTOS-Plus-TCP/FreeRTOS_IP.c **** #define ipICMP_ECHO_REPLY				( ( uint8_t ) 0 )
  97:../../../FreeRTOS-Plus/Source/FreeRTOS-Plus-TCP/FreeRTOS_IP.c **** 
  98:../../../FreeRTOS-Plus/Source/FreeRTOS-Plus-TCP/FreeRTOS_IP.c **** 
  99:../../../FreeRTOS-Plus/Source/FreeRTOS-Plus-TCP/FreeRTOS_IP.c **** /* Time delay between repeated attempts to initialise the network hardware. */
 100:../../../FreeRTOS-Plus/Source/FreeRTOS-Plus-TCP/FreeRTOS_IP.c **** #define ipINITIALISATION_RETRY_DELAY	( pdMS_TO_TICKS( 3000 ) )
 101:../../../FreeRTOS-Plus/Source/FreeRTOS-Plus-TCP/FreeRTOS_IP.c **** 
 102:../../../FreeRTOS-Plus/Source/FreeRTOS-Plus-TCP/FreeRTOS_IP.c **** /* Defines how often the ARP timer callback function is executed.  The time is
 103:../../../FreeRTOS-Plus/Source/FreeRTOS-Plus-TCP/FreeRTOS_IP.c **** shorted in the Windows simulator as simulated time is not real time. */
 104:../../../FreeRTOS-Plus/Source/FreeRTOS-Plus-TCP/FreeRTOS_IP.c **** #ifndef	ipARP_TIMER_PERIOD_MS
 105:../../../FreeRTOS-Plus/Source/FreeRTOS-Plus-TCP/FreeRTOS_IP.c **** 	#ifdef _WINDOWS_
 106:../../../FreeRTOS-Plus/Source/FreeRTOS-Plus-TCP/FreeRTOS_IP.c **** 		#define ipARP_TIMER_PERIOD_MS	( 500 ) /* For windows simulator builds. */
 107:../../../FreeRTOS-Plus/Source/FreeRTOS-Plus-TCP/FreeRTOS_IP.c **** 	#else
 108:../../../FreeRTOS-Plus/Source/FreeRTOS-Plus-TCP/FreeRTOS_IP.c **** 		#define ipARP_TIMER_PERIOD_MS	( 10000 )
 109:../../../FreeRTOS-Plus/Source/FreeRTOS-Plus-TCP/FreeRTOS_IP.c **** 	#endif
 110:../../../FreeRTOS-Plus/Source/FreeRTOS-Plus-TCP/FreeRTOS_IP.c **** #endif
 111:../../../FreeRTOS-Plus/Source/FreeRTOS-Plus-TCP/FreeRTOS_IP.c **** 
 112:../../../FreeRTOS-Plus/Source/FreeRTOS-Plus-TCP/FreeRTOS_IP.c **** #ifndef iptraceIP_TASK_STARTING
ARM GAS  /tmp/cc3wfdLm.s 			page 5


 113:../../../FreeRTOS-Plus/Source/FreeRTOS-Plus-TCP/FreeRTOS_IP.c **** 	#define	iptraceIP_TASK_STARTING()	do {} while( 0 )
 114:../../../FreeRTOS-Plus/Source/FreeRTOS-Plus-TCP/FreeRTOS_IP.c **** #endif
 115:../../../FreeRTOS-Plus/Source/FreeRTOS-Plus-TCP/FreeRTOS_IP.c **** 
 116:../../../FreeRTOS-Plus/Source/FreeRTOS-Plus-TCP/FreeRTOS_IP.c **** #if( ( ipconfigUSE_TCP == 1 ) && !defined( ipTCP_TIMER_PERIOD_MS ) )
 117:../../../FreeRTOS-Plus/Source/FreeRTOS-Plus-TCP/FreeRTOS_IP.c **** 	/* When initialising the TCP timer,
 118:../../../FreeRTOS-Plus/Source/FreeRTOS-Plus-TCP/FreeRTOS_IP.c **** 	give it an initial time-out of 1 second. */
 119:../../../FreeRTOS-Plus/Source/FreeRTOS-Plus-TCP/FreeRTOS_IP.c **** 	#define ipTCP_TIMER_PERIOD_MS	( 1000 )
 120:../../../FreeRTOS-Plus/Source/FreeRTOS-Plus-TCP/FreeRTOS_IP.c **** #endif
 121:../../../FreeRTOS-Plus/Source/FreeRTOS-Plus-TCP/FreeRTOS_IP.c **** 
 122:../../../FreeRTOS-Plus/Source/FreeRTOS-Plus-TCP/FreeRTOS_IP.c **** /* If ipconfigETHERNET_DRIVER_FILTERS_FRAME_TYPES is set to 1, then the Ethernet
 123:../../../FreeRTOS-Plus/Source/FreeRTOS-Plus-TCP/FreeRTOS_IP.c **** driver will filter incoming packets and only pass the stack those packets it
 124:../../../FreeRTOS-Plus/Source/FreeRTOS-Plus-TCP/FreeRTOS_IP.c **** considers need processing.  In this case ipCONSIDER_FRAME_FOR_PROCESSING() can
 125:../../../FreeRTOS-Plus/Source/FreeRTOS-Plus-TCP/FreeRTOS_IP.c **** be #defined away.  If ipconfigETHERNET_DRIVER_FILTERS_FRAME_TYPES is set to 0
 126:../../../FreeRTOS-Plus/Source/FreeRTOS-Plus-TCP/FreeRTOS_IP.c **** then the Ethernet driver will pass all received packets to the stack, and the
 127:../../../FreeRTOS-Plus/Source/FreeRTOS-Plus-TCP/FreeRTOS_IP.c **** stack must do the filtering itself.  In this case ipCONSIDER_FRAME_FOR_PROCESSING
 128:../../../FreeRTOS-Plus/Source/FreeRTOS-Plus-TCP/FreeRTOS_IP.c **** needs to call eConsiderFrameForProcessing. */
 129:../../../FreeRTOS-Plus/Source/FreeRTOS-Plus-TCP/FreeRTOS_IP.c **** #if ipconfigETHERNET_DRIVER_FILTERS_FRAME_TYPES == 0
 130:../../../FreeRTOS-Plus/Source/FreeRTOS-Plus-TCP/FreeRTOS_IP.c **** 	#define ipCONSIDER_FRAME_FOR_PROCESSING( pucEthernetBuffer ) eConsiderFrameForProcessing( ( pucEth
 131:../../../FreeRTOS-Plus/Source/FreeRTOS-Plus-TCP/FreeRTOS_IP.c **** #else
 132:../../../FreeRTOS-Plus/Source/FreeRTOS-Plus-TCP/FreeRTOS_IP.c **** 	#define ipCONSIDER_FRAME_FOR_PROCESSING( pucEthernetBuffer ) eProcessBuffer
 133:../../../FreeRTOS-Plus/Source/FreeRTOS-Plus-TCP/FreeRTOS_IP.c **** #endif
 134:../../../FreeRTOS-Plus/Source/FreeRTOS-Plus-TCP/FreeRTOS_IP.c **** 
 135:../../../FreeRTOS-Plus/Source/FreeRTOS-Plus-TCP/FreeRTOS_IP.c **** /* The character used to fill ICMP echo requests, and therefore also the
 136:../../../FreeRTOS-Plus/Source/FreeRTOS-Plus-TCP/FreeRTOS_IP.c **** character expected to fill ICMP echo replies. */
 137:../../../FreeRTOS-Plus/Source/FreeRTOS-Plus-TCP/FreeRTOS_IP.c **** #define ipECHO_DATA_FILL_BYTE						'x'
 138:../../../FreeRTOS-Plus/Source/FreeRTOS-Plus-TCP/FreeRTOS_IP.c **** 
 139:../../../FreeRTOS-Plus/Source/FreeRTOS-Plus-TCP/FreeRTOS_IP.c **** #if( ipconfigBYTE_ORDER == pdFREERTOS_LITTLE_ENDIAN )
 140:../../../FreeRTOS-Plus/Source/FreeRTOS-Plus-TCP/FreeRTOS_IP.c **** 	/* The bits in the two byte IP header field that make up the fragment offset value. */
 141:../../../FreeRTOS-Plus/Source/FreeRTOS-Plus-TCP/FreeRTOS_IP.c **** 	#define ipFRAGMENT_OFFSET_BIT_MASK				( ( uint16_t ) 0xff0f )
 142:../../../FreeRTOS-Plus/Source/FreeRTOS-Plus-TCP/FreeRTOS_IP.c **** #else
 143:../../../FreeRTOS-Plus/Source/FreeRTOS-Plus-TCP/FreeRTOS_IP.c **** 	/* The bits in the two byte IP header field that make up the fragment offset value. */
 144:../../../FreeRTOS-Plus/Source/FreeRTOS-Plus-TCP/FreeRTOS_IP.c **** 	#define ipFRAGMENT_OFFSET_BIT_MASK				( ( uint16_t ) 0x0fff )
 145:../../../FreeRTOS-Plus/Source/FreeRTOS-Plus-TCP/FreeRTOS_IP.c **** #endif /* ipconfigBYTE_ORDER */
 146:../../../FreeRTOS-Plus/Source/FreeRTOS-Plus-TCP/FreeRTOS_IP.c **** 
 147:../../../FreeRTOS-Plus/Source/FreeRTOS-Plus-TCP/FreeRTOS_IP.c **** /* The maximum time the IP task is allowed to remain in the Blocked state if no
 148:../../../FreeRTOS-Plus/Source/FreeRTOS-Plus-TCP/FreeRTOS_IP.c **** events are posted to the network event queue. */
 149:../../../FreeRTOS-Plus/Source/FreeRTOS-Plus-TCP/FreeRTOS_IP.c **** #ifndef	ipconfigMAX_IP_TASK_SLEEP_TIME
 150:../../../FreeRTOS-Plus/Source/FreeRTOS-Plus-TCP/FreeRTOS_IP.c **** 	#define ipconfigMAX_IP_TASK_SLEEP_TIME ( pdMS_TO_TICKS( 10000UL ) )
 151:../../../FreeRTOS-Plus/Source/FreeRTOS-Plus-TCP/FreeRTOS_IP.c **** #endif
 152:../../../FreeRTOS-Plus/Source/FreeRTOS-Plus-TCP/FreeRTOS_IP.c **** 
 153:../../../FreeRTOS-Plus/Source/FreeRTOS-Plus-TCP/FreeRTOS_IP.c **** /* When a new TCP connection is established, the value of
 154:../../../FreeRTOS-Plus/Source/FreeRTOS-Plus-TCP/FreeRTOS_IP.c **** 'ulNextInitialSequenceNumber' will be used as the initial sequence number.  It
 155:../../../FreeRTOS-Plus/Source/FreeRTOS-Plus-TCP/FreeRTOS_IP.c **** is very important that at start-up, 'ulNextInitialSequenceNumber' contains a
 156:../../../FreeRTOS-Plus/Source/FreeRTOS-Plus-TCP/FreeRTOS_IP.c **** random value.  Also its value must be increased continuously in time, to prevent
 157:../../../FreeRTOS-Plus/Source/FreeRTOS-Plus-TCP/FreeRTOS_IP.c **** a third party guessing the next sequence number and take-over a TCP connection.
 158:../../../FreeRTOS-Plus/Source/FreeRTOS-Plus-TCP/FreeRTOS_IP.c **** It is advised to increment it by 1 ever 4us, which makes about 256 times
 159:../../../FreeRTOS-Plus/Source/FreeRTOS-Plus-TCP/FreeRTOS_IP.c **** per ms: */
 160:../../../FreeRTOS-Plus/Source/FreeRTOS-Plus-TCP/FreeRTOS_IP.c **** #define ipINITIAL_SEQUENCE_NUMBER_FACTOR	256UL
 161:../../../FreeRTOS-Plus/Source/FreeRTOS-Plus-TCP/FreeRTOS_IP.c **** 
 162:../../../FreeRTOS-Plus/Source/FreeRTOS-Plus-TCP/FreeRTOS_IP.c **** /* Returned as the (invalid) checksum when the protocol being checked is not
 163:../../../FreeRTOS-Plus/Source/FreeRTOS-Plus-TCP/FreeRTOS_IP.c **** handled.  The value is chosen simply to be easy to spot when debugging. */
 164:../../../FreeRTOS-Plus/Source/FreeRTOS-Plus-TCP/FreeRTOS_IP.c **** #define ipUNHANDLED_PROTOCOL		0x4321u
 165:../../../FreeRTOS-Plus/Source/FreeRTOS-Plus-TCP/FreeRTOS_IP.c **** 
 166:../../../FreeRTOS-Plus/Source/FreeRTOS-Plus-TCP/FreeRTOS_IP.c **** /* Returned to indicate a valid checksum when the checksum does not need to be
 167:../../../FreeRTOS-Plus/Source/FreeRTOS-Plus-TCP/FreeRTOS_IP.c **** calculated. */
 168:../../../FreeRTOS-Plus/Source/FreeRTOS-Plus-TCP/FreeRTOS_IP.c **** #define ipCORRECT_CRC				0xffffu
 169:../../../FreeRTOS-Plus/Source/FreeRTOS-Plus-TCP/FreeRTOS_IP.c **** 
ARM GAS  /tmp/cc3wfdLm.s 			page 6


 170:../../../FreeRTOS-Plus/Source/FreeRTOS-Plus-TCP/FreeRTOS_IP.c **** /* Returned as the (invalid) checksum when the length of the data being checked
 171:../../../FreeRTOS-Plus/Source/FreeRTOS-Plus-TCP/FreeRTOS_IP.c **** had an invalid length. */
 172:../../../FreeRTOS-Plus/Source/FreeRTOS-Plus-TCP/FreeRTOS_IP.c **** #define ipINVALID_LENGTH			0x1234u
 173:../../../FreeRTOS-Plus/Source/FreeRTOS-Plus-TCP/FreeRTOS_IP.c **** 
 174:../../../FreeRTOS-Plus/Source/FreeRTOS-Plus-TCP/FreeRTOS_IP.c **** /*-----------------------------------------------------------*/
 175:../../../FreeRTOS-Plus/Source/FreeRTOS-Plus-TCP/FreeRTOS_IP.c **** 
 176:../../../FreeRTOS-Plus/Source/FreeRTOS-Plus-TCP/FreeRTOS_IP.c **** typedef struct xIP_TIMER
 177:../../../FreeRTOS-Plus/Source/FreeRTOS-Plus-TCP/FreeRTOS_IP.c **** {
 178:../../../FreeRTOS-Plus/Source/FreeRTOS-Plus-TCP/FreeRTOS_IP.c **** 	uint32_t
 179:../../../FreeRTOS-Plus/Source/FreeRTOS-Plus-TCP/FreeRTOS_IP.c **** 		bActive : 1,	/* This timer is running and must be processed. */
 180:../../../FreeRTOS-Plus/Source/FreeRTOS-Plus-TCP/FreeRTOS_IP.c **** 		bExpired : 1;	/* Timer has expired and a task must be processed. */
 181:../../../FreeRTOS-Plus/Source/FreeRTOS-Plus-TCP/FreeRTOS_IP.c **** 	TimeOut_t xTimeOut;
 182:../../../FreeRTOS-Plus/Source/FreeRTOS-Plus-TCP/FreeRTOS_IP.c **** 	TickType_t ulRemainingTime;
 183:../../../FreeRTOS-Plus/Source/FreeRTOS-Plus-TCP/FreeRTOS_IP.c **** 	TickType_t ulReloadTime;
 184:../../../FreeRTOS-Plus/Source/FreeRTOS-Plus-TCP/FreeRTOS_IP.c **** } IPTimer_t;
 185:../../../FreeRTOS-Plus/Source/FreeRTOS-Plus-TCP/FreeRTOS_IP.c **** 
 186:../../../FreeRTOS-Plus/Source/FreeRTOS-Plus-TCP/FreeRTOS_IP.c **** /* Used in checksum calculation. */
 187:../../../FreeRTOS-Plus/Source/FreeRTOS-Plus-TCP/FreeRTOS_IP.c **** typedef union _xUnion32
 188:../../../FreeRTOS-Plus/Source/FreeRTOS-Plus-TCP/FreeRTOS_IP.c **** {
 189:../../../FreeRTOS-Plus/Source/FreeRTOS-Plus-TCP/FreeRTOS_IP.c **** 	uint32_t u32;
 190:../../../FreeRTOS-Plus/Source/FreeRTOS-Plus-TCP/FreeRTOS_IP.c **** 	uint16_t u16[ 2 ];
 191:../../../FreeRTOS-Plus/Source/FreeRTOS-Plus-TCP/FreeRTOS_IP.c **** 	uint8_t u8[ 4 ];
 192:../../../FreeRTOS-Plus/Source/FreeRTOS-Plus-TCP/FreeRTOS_IP.c **** } xUnion32;
 193:../../../FreeRTOS-Plus/Source/FreeRTOS-Plus-TCP/FreeRTOS_IP.c **** 
 194:../../../FreeRTOS-Plus/Source/FreeRTOS-Plus-TCP/FreeRTOS_IP.c **** /* Used in checksum calculation. */
 195:../../../FreeRTOS-Plus/Source/FreeRTOS-Plus-TCP/FreeRTOS_IP.c **** typedef union _xUnionPtr
 196:../../../FreeRTOS-Plus/Source/FreeRTOS-Plus-TCP/FreeRTOS_IP.c **** {
 197:../../../FreeRTOS-Plus/Source/FreeRTOS-Plus-TCP/FreeRTOS_IP.c **** 	uint32_t *u32ptr;
 198:../../../FreeRTOS-Plus/Source/FreeRTOS-Plus-TCP/FreeRTOS_IP.c **** 	uint16_t *u16ptr;
 199:../../../FreeRTOS-Plus/Source/FreeRTOS-Plus-TCP/FreeRTOS_IP.c **** 	uint8_t *u8ptr;
 200:../../../FreeRTOS-Plus/Source/FreeRTOS-Plus-TCP/FreeRTOS_IP.c **** } xUnionPtr;
 201:../../../FreeRTOS-Plus/Source/FreeRTOS-Plus-TCP/FreeRTOS_IP.c **** 
 202:../../../FreeRTOS-Plus/Source/FreeRTOS-Plus-TCP/FreeRTOS_IP.c **** /*-----------------------------------------------------------*/
 203:../../../FreeRTOS-Plus/Source/FreeRTOS-Plus-TCP/FreeRTOS_IP.c **** 
 204:../../../FreeRTOS-Plus/Source/FreeRTOS-Plus-TCP/FreeRTOS_IP.c **** /*
 205:../../../FreeRTOS-Plus/Source/FreeRTOS-Plus-TCP/FreeRTOS_IP.c ****  * The main TCP/IP stack processing task.  This task receives commands/events
 206:../../../FreeRTOS-Plus/Source/FreeRTOS-Plus-TCP/FreeRTOS_IP.c ****  * from the network hardware drivers and tasks that are using sockets.  It also
 207:../../../FreeRTOS-Plus/Source/FreeRTOS-Plus-TCP/FreeRTOS_IP.c ****  * maintains a set of protocol timers.
 208:../../../FreeRTOS-Plus/Source/FreeRTOS-Plus-TCP/FreeRTOS_IP.c ****  */
 209:../../../FreeRTOS-Plus/Source/FreeRTOS-Plus-TCP/FreeRTOS_IP.c **** static void prvIPTask( void *pvParameters );
 210:../../../FreeRTOS-Plus/Source/FreeRTOS-Plus-TCP/FreeRTOS_IP.c **** 
 211:../../../FreeRTOS-Plus/Source/FreeRTOS-Plus-TCP/FreeRTOS_IP.c **** /*
 212:../../../FreeRTOS-Plus/Source/FreeRTOS-Plus-TCP/FreeRTOS_IP.c ****  * Called when new data is available from the network interface.
 213:../../../FreeRTOS-Plus/Source/FreeRTOS-Plus-TCP/FreeRTOS_IP.c ****  */
 214:../../../FreeRTOS-Plus/Source/FreeRTOS-Plus-TCP/FreeRTOS_IP.c **** static void prvProcessEthernetPacket( NetworkBufferDescriptor_t * const pxNetworkBuffer );
 215:../../../FreeRTOS-Plus/Source/FreeRTOS-Plus-TCP/FreeRTOS_IP.c **** 
 216:../../../FreeRTOS-Plus/Source/FreeRTOS-Plus-TCP/FreeRTOS_IP.c **** /*
 217:../../../FreeRTOS-Plus/Source/FreeRTOS-Plus-TCP/FreeRTOS_IP.c ****  * Process incoming IP packets.
 218:../../../FreeRTOS-Plus/Source/FreeRTOS-Plus-TCP/FreeRTOS_IP.c ****  */
 219:../../../FreeRTOS-Plus/Source/FreeRTOS-Plus-TCP/FreeRTOS_IP.c **** static eFrameProcessingResult_t prvProcessIPPacket( const IPPacket_t * const pxIPPacket, NetworkBuf
 220:../../../FreeRTOS-Plus/Source/FreeRTOS-Plus-TCP/FreeRTOS_IP.c **** 
 221:../../../FreeRTOS-Plus/Source/FreeRTOS-Plus-TCP/FreeRTOS_IP.c **** #if ( ipconfigREPLY_TO_INCOMING_PINGS == 1 ) || ( ipconfigSUPPORT_OUTGOING_PINGS == 1 )
 222:../../../FreeRTOS-Plus/Source/FreeRTOS-Plus-TCP/FreeRTOS_IP.c **** 	/*
 223:../../../FreeRTOS-Plus/Source/FreeRTOS-Plus-TCP/FreeRTOS_IP.c **** 	 * Process incoming ICMP packets.
 224:../../../FreeRTOS-Plus/Source/FreeRTOS-Plus-TCP/FreeRTOS_IP.c **** 	 */
 225:../../../FreeRTOS-Plus/Source/FreeRTOS-Plus-TCP/FreeRTOS_IP.c **** 	static eFrameProcessingResult_t prvProcessICMPPacket( ICMPPacket_t * const pxICMPPacket );
 226:../../../FreeRTOS-Plus/Source/FreeRTOS-Plus-TCP/FreeRTOS_IP.c **** #endif /* ( ipconfigREPLY_TO_INCOMING_PINGS == 1 ) || ( ipconfigSUPPORT_OUTGOING_PINGS == 1 ) */
ARM GAS  /tmp/cc3wfdLm.s 			page 7


 227:../../../FreeRTOS-Plus/Source/FreeRTOS-Plus-TCP/FreeRTOS_IP.c **** 
 228:../../../FreeRTOS-Plus/Source/FreeRTOS-Plus-TCP/FreeRTOS_IP.c **** /*
 229:../../../FreeRTOS-Plus/Source/FreeRTOS-Plus-TCP/FreeRTOS_IP.c ****  * Turns around an incoming ping request to convert it into a ping reply.
 230:../../../FreeRTOS-Plus/Source/FreeRTOS-Plus-TCP/FreeRTOS_IP.c ****  */
 231:../../../FreeRTOS-Plus/Source/FreeRTOS-Plus-TCP/FreeRTOS_IP.c **** #if ( ipconfigREPLY_TO_INCOMING_PINGS == 1 )
 232:../../../FreeRTOS-Plus/Source/FreeRTOS-Plus-TCP/FreeRTOS_IP.c **** 	static eFrameProcessingResult_t prvProcessICMPEchoRequest( ICMPPacket_t * const pxICMPPacket );
 233:../../../FreeRTOS-Plus/Source/FreeRTOS-Plus-TCP/FreeRTOS_IP.c **** #endif /* ipconfigREPLY_TO_INCOMING_PINGS */
 234:../../../FreeRTOS-Plus/Source/FreeRTOS-Plus-TCP/FreeRTOS_IP.c **** 
 235:../../../FreeRTOS-Plus/Source/FreeRTOS-Plus-TCP/FreeRTOS_IP.c **** /*
 236:../../../FreeRTOS-Plus/Source/FreeRTOS-Plus-TCP/FreeRTOS_IP.c ****  * Processes incoming ping replies.  The application callback function
 237:../../../FreeRTOS-Plus/Source/FreeRTOS-Plus-TCP/FreeRTOS_IP.c ****  * vApplicationPingReplyHook() is called with the results.
 238:../../../FreeRTOS-Plus/Source/FreeRTOS-Plus-TCP/FreeRTOS_IP.c ****  */
 239:../../../FreeRTOS-Plus/Source/FreeRTOS-Plus-TCP/FreeRTOS_IP.c **** #if ( ipconfigSUPPORT_OUTGOING_PINGS == 1 )
 240:../../../FreeRTOS-Plus/Source/FreeRTOS-Plus-TCP/FreeRTOS_IP.c **** 	static void prvProcessICMPEchoReply( ICMPPacket_t * const pxICMPPacket );
 241:../../../FreeRTOS-Plus/Source/FreeRTOS-Plus-TCP/FreeRTOS_IP.c **** #endif /* ipconfigSUPPORT_OUTGOING_PINGS */
 242:../../../FreeRTOS-Plus/Source/FreeRTOS-Plus-TCP/FreeRTOS_IP.c **** 
 243:../../../FreeRTOS-Plus/Source/FreeRTOS-Plus-TCP/FreeRTOS_IP.c **** /*
 244:../../../FreeRTOS-Plus/Source/FreeRTOS-Plus-TCP/FreeRTOS_IP.c ****  * Called to create a network connection when the stack is first started, or
 245:../../../FreeRTOS-Plus/Source/FreeRTOS-Plus-TCP/FreeRTOS_IP.c ****  * when the network connection is lost.
 246:../../../FreeRTOS-Plus/Source/FreeRTOS-Plus-TCP/FreeRTOS_IP.c ****  */
 247:../../../FreeRTOS-Plus/Source/FreeRTOS-Plus-TCP/FreeRTOS_IP.c **** static void prvProcessNetworkDownEvent( void );
 248:../../../FreeRTOS-Plus/Source/FreeRTOS-Plus-TCP/FreeRTOS_IP.c **** 
 249:../../../FreeRTOS-Plus/Source/FreeRTOS-Plus-TCP/FreeRTOS_IP.c **** /*
 250:../../../FreeRTOS-Plus/Source/FreeRTOS-Plus-TCP/FreeRTOS_IP.c ****  * Checks the ARP, DHCP and TCP timers to see if any periodic or timeout
 251:../../../FreeRTOS-Plus/Source/FreeRTOS-Plus-TCP/FreeRTOS_IP.c ****  * processing is required.
 252:../../../FreeRTOS-Plus/Source/FreeRTOS-Plus-TCP/FreeRTOS_IP.c ****  */
 253:../../../FreeRTOS-Plus/Source/FreeRTOS-Plus-TCP/FreeRTOS_IP.c **** static void prvCheckNetworkTimers( void );
 254:../../../FreeRTOS-Plus/Source/FreeRTOS-Plus-TCP/FreeRTOS_IP.c **** 
 255:../../../FreeRTOS-Plus/Source/FreeRTOS-Plus-TCP/FreeRTOS_IP.c **** /*
 256:../../../FreeRTOS-Plus/Source/FreeRTOS-Plus-TCP/FreeRTOS_IP.c ****  * Determine how long the IP task can sleep for, which depends on when the next
 257:../../../FreeRTOS-Plus/Source/FreeRTOS-Plus-TCP/FreeRTOS_IP.c ****  * periodic or timeout processing must be performed.
 258:../../../FreeRTOS-Plus/Source/FreeRTOS-Plus-TCP/FreeRTOS_IP.c ****  */
 259:../../../FreeRTOS-Plus/Source/FreeRTOS-Plus-TCP/FreeRTOS_IP.c **** static TickType_t prvCalculateSleepTime( void );
 260:../../../FreeRTOS-Plus/Source/FreeRTOS-Plus-TCP/FreeRTOS_IP.c **** 
 261:../../../FreeRTOS-Plus/Source/FreeRTOS-Plus-TCP/FreeRTOS_IP.c **** /*
 262:../../../FreeRTOS-Plus/Source/FreeRTOS-Plus-TCP/FreeRTOS_IP.c ****  * The network card driver has received a packet.  In the case that it is part
 263:../../../FreeRTOS-Plus/Source/FreeRTOS-Plus-TCP/FreeRTOS_IP.c ****  * of a linked packet chain, walk through it to handle every message.
 264:../../../FreeRTOS-Plus/Source/FreeRTOS-Plus-TCP/FreeRTOS_IP.c ****  */
 265:../../../FreeRTOS-Plus/Source/FreeRTOS-Plus-TCP/FreeRTOS_IP.c **** static void prvHandleEthernetPacket( NetworkBufferDescriptor_t *pxBuffer );
 266:../../../FreeRTOS-Plus/Source/FreeRTOS-Plus-TCP/FreeRTOS_IP.c **** 
 267:../../../FreeRTOS-Plus/Source/FreeRTOS-Plus-TCP/FreeRTOS_IP.c **** /*
 268:../../../FreeRTOS-Plus/Source/FreeRTOS-Plus-TCP/FreeRTOS_IP.c ****  * Utility functions for the light weight IP timers.
 269:../../../FreeRTOS-Plus/Source/FreeRTOS-Plus-TCP/FreeRTOS_IP.c ****  */
 270:../../../FreeRTOS-Plus/Source/FreeRTOS-Plus-TCP/FreeRTOS_IP.c **** static void prvIPTimerStart( IPTimer_t *pxTimer, TickType_t xTime );
 271:../../../FreeRTOS-Plus/Source/FreeRTOS-Plus-TCP/FreeRTOS_IP.c **** static BaseType_t prvIPTimerCheck( IPTimer_t *pxTimer );
 272:../../../FreeRTOS-Plus/Source/FreeRTOS-Plus-TCP/FreeRTOS_IP.c **** static void prvIPTimerReload( IPTimer_t *pxTimer, TickType_t xTime );
 273:../../../FreeRTOS-Plus/Source/FreeRTOS-Plus-TCP/FreeRTOS_IP.c **** 
 274:../../../FreeRTOS-Plus/Source/FreeRTOS-Plus-TCP/FreeRTOS_IP.c **** static eFrameProcessingResult_t prvAllowIPPacket( const IPPacket_t * const pxIPPacket,
 275:../../../FreeRTOS-Plus/Source/FreeRTOS-Plus-TCP/FreeRTOS_IP.c **** 	NetworkBufferDescriptor_t * const pxNetworkBuffer, UBaseType_t uxHeaderLength );
 276:../../../FreeRTOS-Plus/Source/FreeRTOS-Plus-TCP/FreeRTOS_IP.c **** 
 277:../../../FreeRTOS-Plus/Source/FreeRTOS-Plus-TCP/FreeRTOS_IP.c **** /*-----------------------------------------------------------*/
 278:../../../FreeRTOS-Plus/Source/FreeRTOS-Plus-TCP/FreeRTOS_IP.c **** 
 279:../../../FreeRTOS-Plus/Source/FreeRTOS-Plus-TCP/FreeRTOS_IP.c **** /* The queue used to pass events into the IP-task for processing. */
 280:../../../FreeRTOS-Plus/Source/FreeRTOS-Plus-TCP/FreeRTOS_IP.c **** QueueHandle_t xNetworkEventQueue = NULL;
 281:../../../FreeRTOS-Plus/Source/FreeRTOS-Plus-TCP/FreeRTOS_IP.c **** 
 282:../../../FreeRTOS-Plus/Source/FreeRTOS-Plus-TCP/FreeRTOS_IP.c **** /*_RB_ Requires comment. */
 283:../../../FreeRTOS-Plus/Source/FreeRTOS-Plus-TCP/FreeRTOS_IP.c **** uint16_t usPacketIdentifier = 0U;
ARM GAS  /tmp/cc3wfdLm.s 			page 8


 284:../../../FreeRTOS-Plus/Source/FreeRTOS-Plus-TCP/FreeRTOS_IP.c **** 
 285:../../../FreeRTOS-Plus/Source/FreeRTOS-Plus-TCP/FreeRTOS_IP.c **** /* For convenience, a MAC address of all 0xffs is defined const for quick
 286:../../../FreeRTOS-Plus/Source/FreeRTOS-Plus-TCP/FreeRTOS_IP.c **** reference. */
 287:../../../FreeRTOS-Plus/Source/FreeRTOS-Plus-TCP/FreeRTOS_IP.c **** const MACAddress_t xBroadcastMACAddress = { { 0xff, 0xff, 0xff, 0xff, 0xff, 0xff } };
 288:../../../FreeRTOS-Plus/Source/FreeRTOS-Plus-TCP/FreeRTOS_IP.c **** 
 289:../../../FreeRTOS-Plus/Source/FreeRTOS-Plus-TCP/FreeRTOS_IP.c **** /* Structure that stores the netmask, gateway address and DNS server addresses. */
 290:../../../FreeRTOS-Plus/Source/FreeRTOS-Plus-TCP/FreeRTOS_IP.c **** NetworkAddressingParameters_t xNetworkAddressing = { 0, 0, 0, 0, 0 };
 291:../../../FreeRTOS-Plus/Source/FreeRTOS-Plus-TCP/FreeRTOS_IP.c **** 
 292:../../../FreeRTOS-Plus/Source/FreeRTOS-Plus-TCP/FreeRTOS_IP.c **** /* Default values for the above struct in case DHCP
 293:../../../FreeRTOS-Plus/Source/FreeRTOS-Plus-TCP/FreeRTOS_IP.c **** does not lead to a confirmed request. */
 294:../../../FreeRTOS-Plus/Source/FreeRTOS-Plus-TCP/FreeRTOS_IP.c **** NetworkAddressingParameters_t xDefaultAddressing = { 0, 0, 0, 0, 0 };
 295:../../../FreeRTOS-Plus/Source/FreeRTOS-Plus-TCP/FreeRTOS_IP.c **** 
 296:../../../FreeRTOS-Plus/Source/FreeRTOS-Plus-TCP/FreeRTOS_IP.c **** /* Used to ensure network down events cannot be missed when they cannot be
 297:../../../FreeRTOS-Plus/Source/FreeRTOS-Plus-TCP/FreeRTOS_IP.c **** posted to the network event queue because the network event queue is already
 298:../../../FreeRTOS-Plus/Source/FreeRTOS-Plus-TCP/FreeRTOS_IP.c **** full. */
 299:../../../FreeRTOS-Plus/Source/FreeRTOS-Plus-TCP/FreeRTOS_IP.c **** static BaseType_t xNetworkDownEventPending = pdFALSE;
 300:../../../FreeRTOS-Plus/Source/FreeRTOS-Plus-TCP/FreeRTOS_IP.c **** 
 301:../../../FreeRTOS-Plus/Source/FreeRTOS-Plus-TCP/FreeRTOS_IP.c **** /* Stores the handle of the task that handles the stack.  The handle is used
 302:../../../FreeRTOS-Plus/Source/FreeRTOS-Plus-TCP/FreeRTOS_IP.c **** (indirectly) by some utility function to determine if the utility function is
 303:../../../FreeRTOS-Plus/Source/FreeRTOS-Plus-TCP/FreeRTOS_IP.c **** being called by a task (in which case it is ok to block) or by the IP task
 304:../../../FreeRTOS-Plus/Source/FreeRTOS-Plus-TCP/FreeRTOS_IP.c **** itself (in which case it is not ok to block). */
 305:../../../FreeRTOS-Plus/Source/FreeRTOS-Plus-TCP/FreeRTOS_IP.c **** static TaskHandle_t xIPTaskHandle = NULL;
 306:../../../FreeRTOS-Plus/Source/FreeRTOS-Plus-TCP/FreeRTOS_IP.c **** 
 307:../../../FreeRTOS-Plus/Source/FreeRTOS-Plus-TCP/FreeRTOS_IP.c **** #if( ipconfigUSE_TCP != 0 )
 308:../../../FreeRTOS-Plus/Source/FreeRTOS-Plus-TCP/FreeRTOS_IP.c **** 	/* Set to a non-zero value if one or more TCP message have been processed
 309:../../../FreeRTOS-Plus/Source/FreeRTOS-Plus-TCP/FreeRTOS_IP.c **** 	within the last round. */
 310:../../../FreeRTOS-Plus/Source/FreeRTOS-Plus-TCP/FreeRTOS_IP.c **** 	static BaseType_t xProcessedTCPMessage;
 311:../../../FreeRTOS-Plus/Source/FreeRTOS-Plus-TCP/FreeRTOS_IP.c **** #endif
 312:../../../FreeRTOS-Plus/Source/FreeRTOS-Plus-TCP/FreeRTOS_IP.c **** 
 313:../../../FreeRTOS-Plus/Source/FreeRTOS-Plus-TCP/FreeRTOS_IP.c **** /* Simple set to pdTRUE or pdFALSE depending on whether the network is up or
 314:../../../FreeRTOS-Plus/Source/FreeRTOS-Plus-TCP/FreeRTOS_IP.c **** down (connected, not connected) respectively. */
 315:../../../FreeRTOS-Plus/Source/FreeRTOS-Plus-TCP/FreeRTOS_IP.c **** static BaseType_t xNetworkUp = pdFALSE;
 316:../../../FreeRTOS-Plus/Source/FreeRTOS-Plus-TCP/FreeRTOS_IP.c **** 
 317:../../../FreeRTOS-Plus/Source/FreeRTOS-Plus-TCP/FreeRTOS_IP.c **** /*
 318:../../../FreeRTOS-Plus/Source/FreeRTOS-Plus-TCP/FreeRTOS_IP.c **** A timer for each of the following processes, all of which need attention on a
 319:../../../FreeRTOS-Plus/Source/FreeRTOS-Plus-TCP/FreeRTOS_IP.c **** regular basis:
 320:../../../FreeRTOS-Plus/Source/FreeRTOS-Plus-TCP/FreeRTOS_IP.c **** 	1. ARP, to check its table entries
 321:../../../FreeRTOS-Plus/Source/FreeRTOS-Plus-TCP/FreeRTOS_IP.c **** 	2. DPHC, to send requests and to renew a reservation
 322:../../../FreeRTOS-Plus/Source/FreeRTOS-Plus-TCP/FreeRTOS_IP.c **** 	3. TCP, to check for timeouts, resends
 323:../../../FreeRTOS-Plus/Source/FreeRTOS-Plus-TCP/FreeRTOS_IP.c **** 	4. DNS, to check for timeouts when looking-up a domain.
 324:../../../FreeRTOS-Plus/Source/FreeRTOS-Plus-TCP/FreeRTOS_IP.c ****  */
 325:../../../FreeRTOS-Plus/Source/FreeRTOS-Plus-TCP/FreeRTOS_IP.c **** static IPTimer_t xARPTimer;
 326:../../../FreeRTOS-Plus/Source/FreeRTOS-Plus-TCP/FreeRTOS_IP.c **** #if( ipconfigUSE_DHCP != 0 )
 327:../../../FreeRTOS-Plus/Source/FreeRTOS-Plus-TCP/FreeRTOS_IP.c **** 	static IPTimer_t xDHCPTimer;
 328:../../../FreeRTOS-Plus/Source/FreeRTOS-Plus-TCP/FreeRTOS_IP.c **** #endif
 329:../../../FreeRTOS-Plus/Source/FreeRTOS-Plus-TCP/FreeRTOS_IP.c **** #if( ipconfigUSE_TCP != 0 )
 330:../../../FreeRTOS-Plus/Source/FreeRTOS-Plus-TCP/FreeRTOS_IP.c **** 	static IPTimer_t xTCPTimer;
 331:../../../FreeRTOS-Plus/Source/FreeRTOS-Plus-TCP/FreeRTOS_IP.c **** #endif
 332:../../../FreeRTOS-Plus/Source/FreeRTOS-Plus-TCP/FreeRTOS_IP.c **** #if( ipconfigDNS_USE_CALLBACKS != 0 )
 333:../../../FreeRTOS-Plus/Source/FreeRTOS-Plus-TCP/FreeRTOS_IP.c **** 	static IPTimer_t xDNSTimer;
 334:../../../FreeRTOS-Plus/Source/FreeRTOS-Plus-TCP/FreeRTOS_IP.c **** #endif
 335:../../../FreeRTOS-Plus/Source/FreeRTOS-Plus-TCP/FreeRTOS_IP.c **** 
 336:../../../FreeRTOS-Plus/Source/FreeRTOS-Plus-TCP/FreeRTOS_IP.c **** /* Set to pdTRUE when the IP task is ready to start processing packets. */
 337:../../../FreeRTOS-Plus/Source/FreeRTOS-Plus-TCP/FreeRTOS_IP.c **** static BaseType_t xIPTaskInitialised = pdFALSE;
 338:../../../FreeRTOS-Plus/Source/FreeRTOS-Plus-TCP/FreeRTOS_IP.c **** 
 339:../../../FreeRTOS-Plus/Source/FreeRTOS-Plus-TCP/FreeRTOS_IP.c **** #if( ipconfigCHECK_IP_QUEUE_SPACE != 0 )
 340:../../../FreeRTOS-Plus/Source/FreeRTOS-Plus-TCP/FreeRTOS_IP.c **** 	/* Keep track of the lowest amount of space in 'xNetworkEventQueue'. */
ARM GAS  /tmp/cc3wfdLm.s 			page 9


 341:../../../FreeRTOS-Plus/Source/FreeRTOS-Plus-TCP/FreeRTOS_IP.c **** 	static UBaseType_t uxQueueMinimumSpace = ipconfigEVENT_QUEUE_LENGTH;
 342:../../../FreeRTOS-Plus/Source/FreeRTOS-Plus-TCP/FreeRTOS_IP.c **** #endif
 343:../../../FreeRTOS-Plus/Source/FreeRTOS-Plus-TCP/FreeRTOS_IP.c **** 
 344:../../../FreeRTOS-Plus/Source/FreeRTOS-Plus-TCP/FreeRTOS_IP.c **** /*-----------------------------------------------------------*/
 345:../../../FreeRTOS-Plus/Source/FreeRTOS-Plus-TCP/FreeRTOS_IP.c **** 
 346:../../../FreeRTOS-Plus/Source/FreeRTOS-Plus-TCP/FreeRTOS_IP.c **** static void prvIPTask( void *pvParameters )
 347:../../../FreeRTOS-Plus/Source/FreeRTOS-Plus-TCP/FreeRTOS_IP.c **** {
 122              		.loc 1 347 0
 123              		.cfi_startproc
 124              		@ args = 0, pretend = 0, frame = 32
 125              		@ frame_needed = 1, uses_anonymous_args = 0
 126 0000 80B5     		push	{r7, lr}
 127              	.LCFI0:
 128              		.cfi_def_cfa_offset 8
 129              		.cfi_offset 7, -8
 130              		.cfi_offset 14, -4
 131 0002 88B0     		sub	sp, sp, #32
 132              	.LCFI1:
 133              		.cfi_def_cfa_offset 40
 134 0004 00AF     		add	r7, sp, #0
 135              	.LCFI2:
 136              		.cfi_def_cfa_register 7
 137 0006 7860     		str	r0, [r7, #4]
 348:../../../FreeRTOS-Plus/Source/FreeRTOS-Plus-TCP/FreeRTOS_IP.c **** IPStackEvent_t xReceivedEvent;
 349:../../../FreeRTOS-Plus/Source/FreeRTOS-Plus-TCP/FreeRTOS_IP.c **** TickType_t xNextIPSleep;
 350:../../../FreeRTOS-Plus/Source/FreeRTOS-Plus-TCP/FreeRTOS_IP.c **** FreeRTOS_Socket_t *pxSocket;
 351:../../../FreeRTOS-Plus/Source/FreeRTOS-Plus-TCP/FreeRTOS_IP.c **** struct freertos_sockaddr xAddress;
 352:../../../FreeRTOS-Plus/Source/FreeRTOS-Plus-TCP/FreeRTOS_IP.c **** 
 353:../../../FreeRTOS-Plus/Source/FreeRTOS-Plus-TCP/FreeRTOS_IP.c **** 	/* Just to prevent compiler warnings about unused parameters. */
 354:../../../FreeRTOS-Plus/Source/FreeRTOS-Plus-TCP/FreeRTOS_IP.c **** 	( void ) pvParameters;
 355:../../../FreeRTOS-Plus/Source/FreeRTOS-Plus-TCP/FreeRTOS_IP.c **** 
 356:../../../FreeRTOS-Plus/Source/FreeRTOS-Plus-TCP/FreeRTOS_IP.c **** 	/* A possibility to set some additional task properties. */
 357:../../../FreeRTOS-Plus/Source/FreeRTOS-Plus-TCP/FreeRTOS_IP.c **** 	iptraceIP_TASK_STARTING();
 358:../../../FreeRTOS-Plus/Source/FreeRTOS-Plus-TCP/FreeRTOS_IP.c **** 
 359:../../../FreeRTOS-Plus/Source/FreeRTOS-Plus-TCP/FreeRTOS_IP.c **** 	/* Generate a dummy message to say that the network connection has gone
 360:../../../FreeRTOS-Plus/Source/FreeRTOS-Plus-TCP/FreeRTOS_IP.c **** 	down.  This will cause this task to initialise the network interface.  After
 361:../../../FreeRTOS-Plus/Source/FreeRTOS-Plus-TCP/FreeRTOS_IP.c **** 	this it is the responsibility of the network interface hardware driver to
 362:../../../FreeRTOS-Plus/Source/FreeRTOS-Plus-TCP/FreeRTOS_IP.c **** 	send this message if a previously connected network is disconnected. */
 363:../../../FreeRTOS-Plus/Source/FreeRTOS-Plus-TCP/FreeRTOS_IP.c **** 	FreeRTOS_NetworkDown();
 138              		.loc 1 363 0
 139 0008 FFF7FEFF 		bl	FreeRTOS_NetworkDown
 364:../../../FreeRTOS-Plus/Source/FreeRTOS-Plus-TCP/FreeRTOS_IP.c **** 
 365:../../../FreeRTOS-Plus/Source/FreeRTOS-Plus-TCP/FreeRTOS_IP.c **** 	#if( ipconfigUSE_TCP == 1 )
 366:../../../FreeRTOS-Plus/Source/FreeRTOS-Plus-TCP/FreeRTOS_IP.c **** 	{
 367:../../../FreeRTOS-Plus/Source/FreeRTOS-Plus-TCP/FreeRTOS_IP.c **** 		/* Initialise the TCP timer. */
 368:../../../FreeRTOS-Plus/Source/FreeRTOS-Plus-TCP/FreeRTOS_IP.c **** 		prvIPTimerReload( &xTCPTimer, pdMS_TO_TICKS( ipTCP_TIMER_PERIOD_MS ) );
 140              		.loc 1 368 0
 141 000c 5448     		ldr	r0, .L21
 142 000e 4FF47A71 		mov	r1, #1000
 143 0012 FFF7FEFF 		bl	prvIPTimerReload
 369:../../../FreeRTOS-Plus/Source/FreeRTOS-Plus-TCP/FreeRTOS_IP.c **** 	}
 370:../../../FreeRTOS-Plus/Source/FreeRTOS-Plus-TCP/FreeRTOS_IP.c **** 	#endif
 371:../../../FreeRTOS-Plus/Source/FreeRTOS-Plus-TCP/FreeRTOS_IP.c **** 
 372:../../../FreeRTOS-Plus/Source/FreeRTOS-Plus-TCP/FreeRTOS_IP.c **** 	/* Initialisation is complete and events can now be processed. */
 373:../../../FreeRTOS-Plus/Source/FreeRTOS-Plus-TCP/FreeRTOS_IP.c **** 	xIPTaskInitialised = pdTRUE;
 144              		.loc 1 373 0
 145 0016 534B     		ldr	r3, .L21+4
ARM GAS  /tmp/cc3wfdLm.s 			page 10


 146 0018 0122     		movs	r2, #1
 147 001a 1A60     		str	r2, [r3]
 148              	.L19:
 374:../../../FreeRTOS-Plus/Source/FreeRTOS-Plus-TCP/FreeRTOS_IP.c **** 
 375:../../../FreeRTOS-Plus/Source/FreeRTOS-Plus-TCP/FreeRTOS_IP.c **** 	FreeRTOS_debug_printf( ( "prvIPTask started\n" ) );
 376:../../../FreeRTOS-Plus/Source/FreeRTOS-Plus-TCP/FreeRTOS_IP.c **** 
 377:../../../FreeRTOS-Plus/Source/FreeRTOS-Plus-TCP/FreeRTOS_IP.c **** 	/* Loop, processing IP events. */
 378:../../../FreeRTOS-Plus/Source/FreeRTOS-Plus-TCP/FreeRTOS_IP.c **** 	for( ;; )
 379:../../../FreeRTOS-Plus/Source/FreeRTOS-Plus-TCP/FreeRTOS_IP.c **** 	{
 380:../../../FreeRTOS-Plus/Source/FreeRTOS-Plus-TCP/FreeRTOS_IP.c **** 		ipconfigWATCHDOG_TIMER();
 381:../../../FreeRTOS-Plus/Source/FreeRTOS-Plus-TCP/FreeRTOS_IP.c **** 
 382:../../../FreeRTOS-Plus/Source/FreeRTOS-Plus-TCP/FreeRTOS_IP.c **** 		/* Check the ARP, DHCP and TCP timers to see if there is any periodic
 383:../../../FreeRTOS-Plus/Source/FreeRTOS-Plus-TCP/FreeRTOS_IP.c **** 		or timeout processing to perform. */
 384:../../../FreeRTOS-Plus/Source/FreeRTOS-Plus-TCP/FreeRTOS_IP.c **** 		prvCheckNetworkTimers();
 149              		.loc 1 384 0
 150 001c FFF7FEFF 		bl	prvCheckNetworkTimers
 385:../../../FreeRTOS-Plus/Source/FreeRTOS-Plus-TCP/FreeRTOS_IP.c **** 
 386:../../../FreeRTOS-Plus/Source/FreeRTOS-Plus-TCP/FreeRTOS_IP.c **** 		/* Calculate the acceptable maximum sleep time. */
 387:../../../FreeRTOS-Plus/Source/FreeRTOS-Plus-TCP/FreeRTOS_IP.c **** 		xNextIPSleep = prvCalculateSleepTime();
 151              		.loc 1 387 0
 152 0020 FFF7FEFF 		bl	prvCalculateSleepTime
 153 0024 F861     		str	r0, [r7, #28]
 388:../../../FreeRTOS-Plus/Source/FreeRTOS-Plus-TCP/FreeRTOS_IP.c **** 
 389:../../../FreeRTOS-Plus/Source/FreeRTOS-Plus-TCP/FreeRTOS_IP.c **** 		/* Wait until there is something to do.  The event is initialised to "no
 390:../../../FreeRTOS-Plus/Source/FreeRTOS-Plus-TCP/FreeRTOS_IP.c **** 		event" in case the following call exits due to a time out rather than a
 391:../../../FreeRTOS-Plus/Source/FreeRTOS-Plus-TCP/FreeRTOS_IP.c **** 		message being received. */
 392:../../../FreeRTOS-Plus/Source/FreeRTOS-Plus-TCP/FreeRTOS_IP.c **** 		xReceivedEvent.eEventType = eNoEvent;
 154              		.loc 1 392 0
 155 0026 FF23     		movs	r3, #255
 156 0028 3B74     		strb	r3, [r7, #16]
 393:../../../FreeRTOS-Plus/Source/FreeRTOS-Plus-TCP/FreeRTOS_IP.c **** 		xQueueReceive( xNetworkEventQueue, ( void * ) &xReceivedEvent, xNextIPSleep );
 157              		.loc 1 393 0
 158 002a 4F4B     		ldr	r3, .L21+8
 159 002c 1A68     		ldr	r2, [r3]
 160 002e 07F11003 		add	r3, r7, #16
 161 0032 1046     		mov	r0, r2
 162 0034 1946     		mov	r1, r3
 163 0036 FA69     		ldr	r2, [r7, #28]
 164 0038 0023     		movs	r3, #0
 165 003a FFF7FEFF 		bl	xQueueGenericReceive
 394:../../../FreeRTOS-Plus/Source/FreeRTOS-Plus-TCP/FreeRTOS_IP.c **** 
 395:../../../FreeRTOS-Plus/Source/FreeRTOS-Plus-TCP/FreeRTOS_IP.c **** 		#if( ipconfigCHECK_IP_QUEUE_SPACE != 0 )
 396:../../../FreeRTOS-Plus/Source/FreeRTOS-Plus-TCP/FreeRTOS_IP.c **** 		{
 397:../../../FreeRTOS-Plus/Source/FreeRTOS-Plus-TCP/FreeRTOS_IP.c **** 			if( xReceivedEvent.eEventType != eNoEvent )
 398:../../../FreeRTOS-Plus/Source/FreeRTOS-Plus-TCP/FreeRTOS_IP.c **** 			{
 399:../../../FreeRTOS-Plus/Source/FreeRTOS-Plus-TCP/FreeRTOS_IP.c **** 			UBaseType_t uxCount;
 400:../../../FreeRTOS-Plus/Source/FreeRTOS-Plus-TCP/FreeRTOS_IP.c **** 
 401:../../../FreeRTOS-Plus/Source/FreeRTOS-Plus-TCP/FreeRTOS_IP.c **** 				uxCount = uxQueueSpacesAvailable( xNetworkEventQueue );
 402:../../../FreeRTOS-Plus/Source/FreeRTOS-Plus-TCP/FreeRTOS_IP.c **** 				if( uxQueueMinimumSpace > uxCount )
 403:../../../FreeRTOS-Plus/Source/FreeRTOS-Plus-TCP/FreeRTOS_IP.c **** 				{
 404:../../../FreeRTOS-Plus/Source/FreeRTOS-Plus-TCP/FreeRTOS_IP.c **** 					uxQueueMinimumSpace = uxCount;
 405:../../../FreeRTOS-Plus/Source/FreeRTOS-Plus-TCP/FreeRTOS_IP.c **** 				}
 406:../../../FreeRTOS-Plus/Source/FreeRTOS-Plus-TCP/FreeRTOS_IP.c **** 			}
 407:../../../FreeRTOS-Plus/Source/FreeRTOS-Plus-TCP/FreeRTOS_IP.c **** 		}
 408:../../../FreeRTOS-Plus/Source/FreeRTOS-Plus-TCP/FreeRTOS_IP.c **** 		#endif /* ipconfigCHECK_IP_QUEUE_SPACE */
 409:../../../FreeRTOS-Plus/Source/FreeRTOS-Plus-TCP/FreeRTOS_IP.c **** 
 410:../../../FreeRTOS-Plus/Source/FreeRTOS-Plus-TCP/FreeRTOS_IP.c **** 		iptraceNETWORK_EVENT_RECEIVED( xReceivedEvent.eEventType );
ARM GAS  /tmp/cc3wfdLm.s 			page 11


 411:../../../FreeRTOS-Plus/Source/FreeRTOS-Plus-TCP/FreeRTOS_IP.c **** 
 412:../../../FreeRTOS-Plus/Source/FreeRTOS-Plus-TCP/FreeRTOS_IP.c **** 		switch( xReceivedEvent.eEventType )
 166              		.loc 1 412 0
 167 003e 3B7C     		ldrb	r3, [r7, #16]	@ zero_extendqisi2
 168 0040 5BB2     		sxtb	r3, r3
 169 0042 0B2B     		cmp	r3, #11
 170 0044 00F28480 		bhi	.L20
 171 0048 01A2     		adr	r2, .L4
 172 004a 52F823F0 		ldr	pc, [r2, r3, lsl #2]
 173 004e 00BF     		.p2align 2
 174              	.L4:
 175 0050 81000000 		.word	.L3+1
 176 0054 8D000000 		.word	.L5+1
 177 0058 97000000 		.word	.L6+1
 178 005c F3000000 		.word	.L7+1
 179 0060 FD000000 		.word	.L8+1
 180 0064 19010000 		.word	.L9+1
 181 0068 25010000 		.word	.L10+1
 182 006c 4B010000 		.word	.L11+1
 183 0070 9D000000 		.word	.L12+1
 184 0074 E9000000 		.word	.L13+1
 185 0078 05010000 		.word	.L14+1
 186 007c 0F010000 		.word	.L15+1
 187              		.p2align 1
 188              	.L3:
 413:../../../FreeRTOS-Plus/Source/FreeRTOS-Plus-TCP/FreeRTOS_IP.c **** 		{
 414:../../../FreeRTOS-Plus/Source/FreeRTOS-Plus-TCP/FreeRTOS_IP.c **** 			case eNetworkDownEvent :
 415:../../../FreeRTOS-Plus/Source/FreeRTOS-Plus-TCP/FreeRTOS_IP.c **** 				/* Attempt to establish a connection. */
 416:../../../FreeRTOS-Plus/Source/FreeRTOS-Plus-TCP/FreeRTOS_IP.c **** 				xNetworkUp = pdFALSE;
 189              		.loc 1 416 0
 190 0080 3A4B     		ldr	r3, .L21+12
 191 0082 0022     		movs	r2, #0
 192 0084 1A60     		str	r2, [r3]
 417:../../../FreeRTOS-Plus/Source/FreeRTOS-Plus-TCP/FreeRTOS_IP.c **** 				prvProcessNetworkDownEvent();
 193              		.loc 1 417 0
 194 0086 FFF7FEFF 		bl	prvProcessNetworkDownEvent
 418:../../../FreeRTOS-Plus/Source/FreeRTOS-Plus-TCP/FreeRTOS_IP.c **** 				break;
 195              		.loc 1 418 0
 196 008a 62E0     		b	.L16
 197              	.L5:
 419:../../../FreeRTOS-Plus/Source/FreeRTOS-Plus-TCP/FreeRTOS_IP.c **** 
 420:../../../FreeRTOS-Plus/Source/FreeRTOS-Plus-TCP/FreeRTOS_IP.c **** 			case eNetworkRxEvent:
 421:../../../FreeRTOS-Plus/Source/FreeRTOS-Plus-TCP/FreeRTOS_IP.c **** 				/* The network hardware driver has received a new packet.  A
 422:../../../FreeRTOS-Plus/Source/FreeRTOS-Plus-TCP/FreeRTOS_IP.c **** 				pointer to the received buffer is located in the pvData member
 423:../../../FreeRTOS-Plus/Source/FreeRTOS-Plus-TCP/FreeRTOS_IP.c **** 				of the received event structure. */
 424:../../../FreeRTOS-Plus/Source/FreeRTOS-Plus-TCP/FreeRTOS_IP.c **** 				prvHandleEthernetPacket( ( NetworkBufferDescriptor_t * ) ( xReceivedEvent.pvData ) );
 198              		.loc 1 424 0
 199 008c 7B69     		ldr	r3, [r7, #20]
 200 008e 1846     		mov	r0, r3
 201 0090 FFF7FEFF 		bl	prvHandleEthernetPacket
 425:../../../FreeRTOS-Plus/Source/FreeRTOS-Plus-TCP/FreeRTOS_IP.c **** 				break;
 202              		.loc 1 425 0
 203 0094 5DE0     		b	.L16
 204              	.L6:
 426:../../../FreeRTOS-Plus/Source/FreeRTOS-Plus-TCP/FreeRTOS_IP.c **** 
 427:../../../FreeRTOS-Plus/Source/FreeRTOS-Plus-TCP/FreeRTOS_IP.c **** 			case eARPTimerEvent :
 428:../../../FreeRTOS-Plus/Source/FreeRTOS-Plus-TCP/FreeRTOS_IP.c **** 				/* The ARP timer has expired, process the ARP cache. */
ARM GAS  /tmp/cc3wfdLm.s 			page 12


 429:../../../FreeRTOS-Plus/Source/FreeRTOS-Plus-TCP/FreeRTOS_IP.c **** 				vARPAgeCache();
 205              		.loc 1 429 0
 206 0096 FFF7FEFF 		bl	vARPAgeCache
 430:../../../FreeRTOS-Plus/Source/FreeRTOS-Plus-TCP/FreeRTOS_IP.c **** 				break;
 207              		.loc 1 430 0
 208 009a 5AE0     		b	.L16
 209              	.L12:
 431:../../../FreeRTOS-Plus/Source/FreeRTOS-Plus-TCP/FreeRTOS_IP.c **** 
 432:../../../FreeRTOS-Plus/Source/FreeRTOS-Plus-TCP/FreeRTOS_IP.c **** 			case eSocketBindEvent:
 433:../../../FreeRTOS-Plus/Source/FreeRTOS-Plus-TCP/FreeRTOS_IP.c **** 				/* FreeRTOS_bind (a user API) wants the IP-task to bind a socket
 434:../../../FreeRTOS-Plus/Source/FreeRTOS-Plus-TCP/FreeRTOS_IP.c **** 				to a port. The port number is communicated in the socket field
 435:../../../FreeRTOS-Plus/Source/FreeRTOS-Plus-TCP/FreeRTOS_IP.c **** 				usLocalPort. vSocketBind() will actually bind the socket and the
 436:../../../FreeRTOS-Plus/Source/FreeRTOS-Plus-TCP/FreeRTOS_IP.c **** 				API will unblock as soon as the eSOCKET_BOUND event is
 437:../../../FreeRTOS-Plus/Source/FreeRTOS-Plus-TCP/FreeRTOS_IP.c **** 				triggered. */
 438:../../../FreeRTOS-Plus/Source/FreeRTOS-Plus-TCP/FreeRTOS_IP.c **** 				pxSocket = ( FreeRTOS_Socket_t * ) ( xReceivedEvent.pvData );
 210              		.loc 1 438 0
 211 009c 7B69     		ldr	r3, [r7, #20]
 212 009e BB61     		str	r3, [r7, #24]
 439:../../../FreeRTOS-Plus/Source/FreeRTOS-Plus-TCP/FreeRTOS_IP.c **** 				xAddress.sin_addr = 0u;	/* For the moment. */
 213              		.loc 1 439 0
 214 00a0 0023     		movs	r3, #0
 215 00a2 FB60     		str	r3, [r7, #12]
 440:../../../FreeRTOS-Plus/Source/FreeRTOS-Plus-TCP/FreeRTOS_IP.c **** 				xAddress.sin_port = FreeRTOS_ntohs( pxSocket->usLocalPort );
 216              		.loc 1 440 0
 217 00a4 BB69     		ldr	r3, [r7, #24]
 218 00a6 9B8C     		ldrh	r3, [r3, #36]
 219 00a8 1B02     		lsls	r3, r3, #8
 220 00aa 9AB2     		uxth	r2, r3
 221 00ac BB69     		ldr	r3, [r7, #24]
 222 00ae 9B8C     		ldrh	r3, [r3, #36]
 223 00b0 1B0A     		lsrs	r3, r3, #8
 224 00b2 9BB2     		uxth	r3, r3
 225 00b4 9BB2     		uxth	r3, r3
 226 00b6 1343     		orrs	r3, r3, r2
 227 00b8 9BB2     		uxth	r3, r3
 228 00ba 9BB2     		uxth	r3, r3
 229 00bc 7B81     		strh	r3, [r7, #10]	@ movhi
 441:../../../FreeRTOS-Plus/Source/FreeRTOS-Plus-TCP/FreeRTOS_IP.c **** 				pxSocket->usLocalPort = 0u;
 230              		.loc 1 441 0
 231 00be BB69     		ldr	r3, [r7, #24]
 232 00c0 0022     		movs	r2, #0
 233 00c2 9A84     		strh	r2, [r3, #36]	@ movhi
 442:../../../FreeRTOS-Plus/Source/FreeRTOS-Plus-TCP/FreeRTOS_IP.c **** 				vSocketBind( pxSocket, &xAddress, sizeof( xAddress ), pdFALSE );
 234              		.loc 1 442 0
 235 00c4 07F10803 		add	r3, r7, #8
 236 00c8 B869     		ldr	r0, [r7, #24]
 237 00ca 1946     		mov	r1, r3
 238 00cc 0822     		movs	r2, #8
 239 00ce 0023     		movs	r3, #0
 240 00d0 FFF7FEFF 		bl	vSocketBind
 443:../../../FreeRTOS-Plus/Source/FreeRTOS-Plus-TCP/FreeRTOS_IP.c **** 
 444:../../../FreeRTOS-Plus/Source/FreeRTOS-Plus-TCP/FreeRTOS_IP.c **** 				/* Before 'eSocketBindEvent' was sent it was tested that
 445:../../../FreeRTOS-Plus/Source/FreeRTOS-Plus-TCP/FreeRTOS_IP.c **** 				( xEventGroup != NULL ) so it can be used now to wake up the
 446:../../../FreeRTOS-Plus/Source/FreeRTOS-Plus-TCP/FreeRTOS_IP.c **** 				user. */
 447:../../../FreeRTOS-Plus/Source/FreeRTOS-Plus-TCP/FreeRTOS_IP.c **** 				pxSocket->xEventBits |= eSOCKET_BOUND;
 241              		.loc 1 447 0
 242 00d4 BB69     		ldr	r3, [r7, #24]
ARM GAS  /tmp/cc3wfdLm.s 			page 13


 243 00d6 1B68     		ldr	r3, [r3]
 244 00d8 43F01002 		orr	r2, r3, #16
 245 00dc BB69     		ldr	r3, [r7, #24]
 246 00de 1A60     		str	r2, [r3]
 448:../../../FreeRTOS-Plus/Source/FreeRTOS-Plus-TCP/FreeRTOS_IP.c **** 				vSocketWakeUpUser( pxSocket );
 247              		.loc 1 448 0
 248 00e0 B869     		ldr	r0, [r7, #24]
 249 00e2 FFF7FEFF 		bl	vSocketWakeUpUser
 449:../../../FreeRTOS-Plus/Source/FreeRTOS-Plus-TCP/FreeRTOS_IP.c **** 				break;
 250              		.loc 1 449 0
 251 00e6 34E0     		b	.L16
 252              	.L13:
 450:../../../FreeRTOS-Plus/Source/FreeRTOS-Plus-TCP/FreeRTOS_IP.c **** 
 451:../../../FreeRTOS-Plus/Source/FreeRTOS-Plus-TCP/FreeRTOS_IP.c **** 			case eSocketCloseEvent :
 452:../../../FreeRTOS-Plus/Source/FreeRTOS-Plus-TCP/FreeRTOS_IP.c **** 				/* The user API FreeRTOS_closesocket() has sent a message to the
 453:../../../FreeRTOS-Plus/Source/FreeRTOS-Plus-TCP/FreeRTOS_IP.c **** 				IP-task to actually close a socket. This is handled in
 454:../../../FreeRTOS-Plus/Source/FreeRTOS-Plus-TCP/FreeRTOS_IP.c **** 				vSocketClose().  As the socket gets closed, there is no way to
 455:../../../FreeRTOS-Plus/Source/FreeRTOS-Plus-TCP/FreeRTOS_IP.c **** 				report back to the API, so the API won't wait for the result */
 456:../../../FreeRTOS-Plus/Source/FreeRTOS-Plus-TCP/FreeRTOS_IP.c **** 				vSocketClose( ( FreeRTOS_Socket_t * ) ( xReceivedEvent.pvData ) );
 253              		.loc 1 456 0
 254 00e8 7B69     		ldr	r3, [r7, #20]
 255 00ea 1846     		mov	r0, r3
 256 00ec FFF7FEFF 		bl	vSocketClose
 457:../../../FreeRTOS-Plus/Source/FreeRTOS-Plus-TCP/FreeRTOS_IP.c **** 				break;
 257              		.loc 1 457 0
 258 00f0 2FE0     		b	.L16
 259              	.L7:
 458:../../../FreeRTOS-Plus/Source/FreeRTOS-Plus-TCP/FreeRTOS_IP.c **** 
 459:../../../FreeRTOS-Plus/Source/FreeRTOS-Plus-TCP/FreeRTOS_IP.c **** 			case eStackTxEvent :
 460:../../../FreeRTOS-Plus/Source/FreeRTOS-Plus-TCP/FreeRTOS_IP.c **** 				/* The network stack has generated a packet to send.  A
 461:../../../FreeRTOS-Plus/Source/FreeRTOS-Plus-TCP/FreeRTOS_IP.c **** 				pointer to the generated buffer is located in the pvData
 462:../../../FreeRTOS-Plus/Source/FreeRTOS-Plus-TCP/FreeRTOS_IP.c **** 				member of the received event structure. */
 463:../../../FreeRTOS-Plus/Source/FreeRTOS-Plus-TCP/FreeRTOS_IP.c **** 				vProcessGeneratedUDPPacket( ( NetworkBufferDescriptor_t * ) ( xReceivedEvent.pvData ) );
 260              		.loc 1 463 0
 261 00f2 7B69     		ldr	r3, [r7, #20]
 262 00f4 1846     		mov	r0, r3
 263 00f6 FFF7FEFF 		bl	vProcessGeneratedUDPPacket
 464:../../../FreeRTOS-Plus/Source/FreeRTOS-Plus-TCP/FreeRTOS_IP.c **** 				break;
 264              		.loc 1 464 0
 265 00fa 2AE0     		b	.L16
 266              	.L8:
 465:../../../FreeRTOS-Plus/Source/FreeRTOS-Plus-TCP/FreeRTOS_IP.c **** 
 466:../../../FreeRTOS-Plus/Source/FreeRTOS-Plus-TCP/FreeRTOS_IP.c **** 			case eDHCPEvent:
 467:../../../FreeRTOS-Plus/Source/FreeRTOS-Plus-TCP/FreeRTOS_IP.c **** 				/* The DHCP state machine needs processing. */
 468:../../../FreeRTOS-Plus/Source/FreeRTOS-Plus-TCP/FreeRTOS_IP.c **** 				#if( ipconfigUSE_DHCP == 1 )
 469:../../../FreeRTOS-Plus/Source/FreeRTOS-Plus-TCP/FreeRTOS_IP.c **** 				{
 470:../../../FreeRTOS-Plus/Source/FreeRTOS-Plus-TCP/FreeRTOS_IP.c **** 					vDHCPProcess( pdFALSE );
 267              		.loc 1 470 0
 268 00fc 0020     		movs	r0, #0
 269 00fe FFF7FEFF 		bl	vDHCPProcess
 471:../../../FreeRTOS-Plus/Source/FreeRTOS-Plus-TCP/FreeRTOS_IP.c **** 				}
 472:../../../FreeRTOS-Plus/Source/FreeRTOS-Plus-TCP/FreeRTOS_IP.c **** 				#endif /* ipconfigUSE_DHCP */
 473:../../../FreeRTOS-Plus/Source/FreeRTOS-Plus-TCP/FreeRTOS_IP.c **** 				break;
 270              		.loc 1 473 0
 271 0102 26E0     		b	.L16
 272              	.L14:
 474:../../../FreeRTOS-Plus/Source/FreeRTOS-Plus-TCP/FreeRTOS_IP.c **** 
ARM GAS  /tmp/cc3wfdLm.s 			page 14


 475:../../../FreeRTOS-Plus/Source/FreeRTOS-Plus-TCP/FreeRTOS_IP.c **** 			case eSocketSelectEvent :
 476:../../../FreeRTOS-Plus/Source/FreeRTOS-Plus-TCP/FreeRTOS_IP.c **** 				/* FreeRTOS_select() has got unblocked by a socket event,
 477:../../../FreeRTOS-Plus/Source/FreeRTOS-Plus-TCP/FreeRTOS_IP.c **** 				vSocketSelect() will check which sockets actually have an event
 478:../../../FreeRTOS-Plus/Source/FreeRTOS-Plus-TCP/FreeRTOS_IP.c **** 				and update the socket field xSocketBits. */
 479:../../../FreeRTOS-Plus/Source/FreeRTOS-Plus-TCP/FreeRTOS_IP.c **** 				#if( ipconfigSUPPORT_SELECT_FUNCTION == 1 )
 480:../../../FreeRTOS-Plus/Source/FreeRTOS-Plus-TCP/FreeRTOS_IP.c **** 				{
 481:../../../FreeRTOS-Plus/Source/FreeRTOS-Plus-TCP/FreeRTOS_IP.c **** 					vSocketSelect( ( SocketSelect_t * ) ( xReceivedEvent.pvData ) );
 273              		.loc 1 481 0
 274 0104 7B69     		ldr	r3, [r7, #20]
 275 0106 1846     		mov	r0, r3
 276 0108 FFF7FEFF 		bl	vSocketSelect
 482:../../../FreeRTOS-Plus/Source/FreeRTOS-Plus-TCP/FreeRTOS_IP.c **** 				}
 483:../../../FreeRTOS-Plus/Source/FreeRTOS-Plus-TCP/FreeRTOS_IP.c **** 				#endif /* ipconfigSUPPORT_SELECT_FUNCTION == 1 */
 484:../../../FreeRTOS-Plus/Source/FreeRTOS-Plus-TCP/FreeRTOS_IP.c **** 				break;
 277              		.loc 1 484 0
 278 010c 21E0     		b	.L16
 279              	.L15:
 485:../../../FreeRTOS-Plus/Source/FreeRTOS-Plus-TCP/FreeRTOS_IP.c **** 
 486:../../../FreeRTOS-Plus/Source/FreeRTOS-Plus-TCP/FreeRTOS_IP.c **** 			case eSocketSignalEvent :
 487:../../../FreeRTOS-Plus/Source/FreeRTOS-Plus-TCP/FreeRTOS_IP.c **** 				#if( ipconfigSUPPORT_SIGNALS != 0 )
 488:../../../FreeRTOS-Plus/Source/FreeRTOS-Plus-TCP/FreeRTOS_IP.c **** 				{
 489:../../../FreeRTOS-Plus/Source/FreeRTOS-Plus-TCP/FreeRTOS_IP.c **** 					/* Some task wants to signal the user of this socket in
 490:../../../FreeRTOS-Plus/Source/FreeRTOS-Plus-TCP/FreeRTOS_IP.c **** 					order to interrupt a call to recv() or a call to select(). */
 491:../../../FreeRTOS-Plus/Source/FreeRTOS-Plus-TCP/FreeRTOS_IP.c **** 					FreeRTOS_SignalSocket( ( Socket_t ) xReceivedEvent.pvData );
 280              		.loc 1 491 0
 281 010e 7B69     		ldr	r3, [r7, #20]
 282 0110 1846     		mov	r0, r3
 283 0112 FFF7FEFF 		bl	FreeRTOS_SignalSocket
 492:../../../FreeRTOS-Plus/Source/FreeRTOS-Plus-TCP/FreeRTOS_IP.c **** 				}
 493:../../../FreeRTOS-Plus/Source/FreeRTOS-Plus-TCP/FreeRTOS_IP.c **** 				#endif /* ipconfigSUPPORT_SIGNALS */
 494:../../../FreeRTOS-Plus/Source/FreeRTOS-Plus-TCP/FreeRTOS_IP.c **** 				break;
 284              		.loc 1 494 0
 285 0116 1CE0     		b	.L16
 286              	.L9:
 495:../../../FreeRTOS-Plus/Source/FreeRTOS-Plus-TCP/FreeRTOS_IP.c **** 
 496:../../../FreeRTOS-Plus/Source/FreeRTOS-Plus-TCP/FreeRTOS_IP.c **** 			case eTCPTimerEvent :
 497:../../../FreeRTOS-Plus/Source/FreeRTOS-Plus-TCP/FreeRTOS_IP.c **** 				#if( ipconfigUSE_TCP == 1 )
 498:../../../FreeRTOS-Plus/Source/FreeRTOS-Plus-TCP/FreeRTOS_IP.c **** 				{
 499:../../../FreeRTOS-Plus/Source/FreeRTOS-Plus-TCP/FreeRTOS_IP.c **** 					/* Simply mark the TCP timer as expired so it gets processed
 500:../../../FreeRTOS-Plus/Source/FreeRTOS-Plus-TCP/FreeRTOS_IP.c **** 					the next time prvCheckNetworkTimers() is called. */
 501:../../../FreeRTOS-Plus/Source/FreeRTOS-Plus-TCP/FreeRTOS_IP.c **** 					xTCPTimer.bExpired = pdTRUE_UNSIGNED;
 287              		.loc 1 501 0
 288 0118 114A     		ldr	r2, .L21
 289 011a 1378     		ldrb	r3, [r2]
 290 011c 43F00203 		orr	r3, r3, #2
 291 0120 1370     		strb	r3, [r2]
 502:../../../FreeRTOS-Plus/Source/FreeRTOS-Plus-TCP/FreeRTOS_IP.c **** 				}
 503:../../../FreeRTOS-Plus/Source/FreeRTOS-Plus-TCP/FreeRTOS_IP.c **** 				#endif /* ipconfigUSE_TCP */
 504:../../../FreeRTOS-Plus/Source/FreeRTOS-Plus-TCP/FreeRTOS_IP.c **** 				break;
 292              		.loc 1 504 0
 293 0122 16E0     		b	.L16
 294              	.L10:
 505:../../../FreeRTOS-Plus/Source/FreeRTOS-Plus-TCP/FreeRTOS_IP.c **** 
 506:../../../FreeRTOS-Plus/Source/FreeRTOS-Plus-TCP/FreeRTOS_IP.c **** 			case eTCPAcceptEvent:
 507:../../../FreeRTOS-Plus/Source/FreeRTOS-Plus-TCP/FreeRTOS_IP.c **** 				/* The API FreeRTOS_accept() was called, the IP-task will now
 508:../../../FreeRTOS-Plus/Source/FreeRTOS-Plus-TCP/FreeRTOS_IP.c **** 				check if the listening socket (communicated in pvData) actually
 509:../../../FreeRTOS-Plus/Source/FreeRTOS-Plus-TCP/FreeRTOS_IP.c **** 				received a new connection. */
ARM GAS  /tmp/cc3wfdLm.s 			page 15


 510:../../../FreeRTOS-Plus/Source/FreeRTOS-Plus-TCP/FreeRTOS_IP.c **** 				#if( ipconfigUSE_TCP == 1 )
 511:../../../FreeRTOS-Plus/Source/FreeRTOS-Plus-TCP/FreeRTOS_IP.c **** 				{
 512:../../../FreeRTOS-Plus/Source/FreeRTOS-Plus-TCP/FreeRTOS_IP.c **** 					pxSocket = ( FreeRTOS_Socket_t * ) ( xReceivedEvent.pvData );
 295              		.loc 1 512 0
 296 0124 7B69     		ldr	r3, [r7, #20]
 297 0126 BB61     		str	r3, [r7, #24]
 513:../../../FreeRTOS-Plus/Source/FreeRTOS-Plus-TCP/FreeRTOS_IP.c **** 
 514:../../../FreeRTOS-Plus/Source/FreeRTOS-Plus-TCP/FreeRTOS_IP.c **** 					if( xTCPCheckNewClient( pxSocket ) != pdFALSE )
 298              		.loc 1 514 0
 299 0128 B869     		ldr	r0, [r7, #24]
 300 012a FFF7FEFF 		bl	xTCPCheckNewClient
 301 012e 0346     		mov	r3, r0
 302 0130 002B     		cmp	r3, #0
 303 0132 09D0     		beq	.L17
 515:../../../FreeRTOS-Plus/Source/FreeRTOS-Plus-TCP/FreeRTOS_IP.c **** 					{
 516:../../../FreeRTOS-Plus/Source/FreeRTOS-Plus-TCP/FreeRTOS_IP.c **** 						pxSocket->xEventBits |= eSOCKET_ACCEPT;
 304              		.loc 1 516 0
 305 0134 BB69     		ldr	r3, [r7, #24]
 306 0136 1B68     		ldr	r3, [r3]
 307 0138 43F00402 		orr	r2, r3, #4
 308 013c BB69     		ldr	r3, [r7, #24]
 309 013e 1A60     		str	r2, [r3]
 517:../../../FreeRTOS-Plus/Source/FreeRTOS-Plus-TCP/FreeRTOS_IP.c **** 						vSocketWakeUpUser( pxSocket );
 310              		.loc 1 517 0
 311 0140 B869     		ldr	r0, [r7, #24]
 312 0142 FFF7FEFF 		bl	vSocketWakeUpUser
 518:../../../FreeRTOS-Plus/Source/FreeRTOS-Plus-TCP/FreeRTOS_IP.c **** 					}
 519:../../../FreeRTOS-Plus/Source/FreeRTOS-Plus-TCP/FreeRTOS_IP.c **** 				}
 520:../../../FreeRTOS-Plus/Source/FreeRTOS-Plus-TCP/FreeRTOS_IP.c **** 				#endif /* ipconfigUSE_TCP */
 521:../../../FreeRTOS-Plus/Source/FreeRTOS-Plus-TCP/FreeRTOS_IP.c **** 				break;
 313              		.loc 1 521 0
 314 0146 04E0     		b	.L16
 315              	.L17:
 316 0148 03E0     		b	.L16
 317              	.L11:
 522:../../../FreeRTOS-Plus/Source/FreeRTOS-Plus-TCP/FreeRTOS_IP.c **** 
 523:../../../FreeRTOS-Plus/Source/FreeRTOS-Plus-TCP/FreeRTOS_IP.c **** 			case eTCPNetStat:
 524:../../../FreeRTOS-Plus/Source/FreeRTOS-Plus-TCP/FreeRTOS_IP.c **** 				/* FreeRTOS_netstat() was called to have the IP-task print an
 525:../../../FreeRTOS-Plus/Source/FreeRTOS-Plus-TCP/FreeRTOS_IP.c **** 				overview of all sockets and their connections */
 526:../../../FreeRTOS-Plus/Source/FreeRTOS-Plus-TCP/FreeRTOS_IP.c **** 				#if( ( ipconfigUSE_TCP == 1 ) && ( ipconfigHAS_PRINTF == 1 ) )
 527:../../../FreeRTOS-Plus/Source/FreeRTOS-Plus-TCP/FreeRTOS_IP.c **** 				{
 528:../../../FreeRTOS-Plus/Source/FreeRTOS-Plus-TCP/FreeRTOS_IP.c **** 					vTCPNetStat();
 318              		.loc 1 528 0
 319 014a FFF7FEFF 		bl	vTCPNetStat
 529:../../../FreeRTOS-Plus/Source/FreeRTOS-Plus-TCP/FreeRTOS_IP.c **** 				}
 530:../../../FreeRTOS-Plus/Source/FreeRTOS-Plus-TCP/FreeRTOS_IP.c **** 				#endif /* ipconfigUSE_TCP */
 531:../../../FreeRTOS-Plus/Source/FreeRTOS-Plus-TCP/FreeRTOS_IP.c **** 				break;
 320              		.loc 1 531 0
 321 014e 00E0     		b	.L16
 322              	.L20:
 532:../../../FreeRTOS-Plus/Source/FreeRTOS-Plus-TCP/FreeRTOS_IP.c **** 
 533:../../../FreeRTOS-Plus/Source/FreeRTOS-Plus-TCP/FreeRTOS_IP.c **** 			default :
 534:../../../FreeRTOS-Plus/Source/FreeRTOS-Plus-TCP/FreeRTOS_IP.c **** 				/* Should not get here. */
 535:../../../FreeRTOS-Plus/Source/FreeRTOS-Plus-TCP/FreeRTOS_IP.c **** 				break;
 323              		.loc 1 535 0
 324 0150 00BF     		nop
 325              	.L16:
ARM GAS  /tmp/cc3wfdLm.s 			page 16


 536:../../../FreeRTOS-Plus/Source/FreeRTOS-Plus-TCP/FreeRTOS_IP.c **** 		}
 537:../../../FreeRTOS-Plus/Source/FreeRTOS-Plus-TCP/FreeRTOS_IP.c **** 
 538:../../../FreeRTOS-Plus/Source/FreeRTOS-Plus-TCP/FreeRTOS_IP.c **** 		if( xNetworkDownEventPending != pdFALSE )
 326              		.loc 1 538 0
 327 0152 074B     		ldr	r3, .L21+16
 328 0154 1B68     		ldr	r3, [r3]
 329 0156 002B     		cmp	r3, #0
 330 0158 01D0     		beq	.L18
 539:../../../FreeRTOS-Plus/Source/FreeRTOS-Plus-TCP/FreeRTOS_IP.c **** 		{
 540:../../../FreeRTOS-Plus/Source/FreeRTOS-Plus-TCP/FreeRTOS_IP.c **** 			/* A network down event could not be posted to the network event
 541:../../../FreeRTOS-Plus/Source/FreeRTOS-Plus-TCP/FreeRTOS_IP.c **** 			queue because the queue was full.  Try posting again. */
 542:../../../FreeRTOS-Plus/Source/FreeRTOS-Plus-TCP/FreeRTOS_IP.c **** 			FreeRTOS_NetworkDown();
 331              		.loc 1 542 0
 332 015a FFF7FEFF 		bl	FreeRTOS_NetworkDown
 333              	.L18:
 543:../../../FreeRTOS-Plus/Source/FreeRTOS-Plus-TCP/FreeRTOS_IP.c **** 		}
 544:../../../FreeRTOS-Plus/Source/FreeRTOS-Plus-TCP/FreeRTOS_IP.c **** 	}
 334              		.loc 1 544 0
 335 015e 5DE7     		b	.L19
 336              	.L22:
 337              		.align	2
 338              	.L21:
 339 0160 00000000 		.word	xTCPTimer
 340 0164 00000000 		.word	xIPTaskInitialised
 341 0168 00000000 		.word	xNetworkEventQueue
 342 016c 00000000 		.word	xNetworkUp
 343 0170 00000000 		.word	xNetworkDownEventPending
 344              		.cfi_endproc
 345              	.LFE29:
 347              		.section	.text.xIsCallingFromIPTask,"ax",%progbits
 348              		.align	2
 349              		.global	xIsCallingFromIPTask
 350              		.thumb
 351              		.thumb_func
 353              	xIsCallingFromIPTask:
 354              	.LFB30:
 545:../../../FreeRTOS-Plus/Source/FreeRTOS-Plus-TCP/FreeRTOS_IP.c **** }
 546:../../../FreeRTOS-Plus/Source/FreeRTOS-Plus-TCP/FreeRTOS_IP.c **** /*-----------------------------------------------------------*/
 547:../../../FreeRTOS-Plus/Source/FreeRTOS-Plus-TCP/FreeRTOS_IP.c **** 
 548:../../../FreeRTOS-Plus/Source/FreeRTOS-Plus-TCP/FreeRTOS_IP.c **** BaseType_t xIsCallingFromIPTask( void )
 549:../../../FreeRTOS-Plus/Source/FreeRTOS-Plus-TCP/FreeRTOS_IP.c **** {
 355              		.loc 1 549 0
 356              		.cfi_startproc
 357              		@ args = 0, pretend = 0, frame = 8
 358              		@ frame_needed = 1, uses_anonymous_args = 0
 359 0000 80B5     		push	{r7, lr}
 360              	.LCFI3:
 361              		.cfi_def_cfa_offset 8
 362              		.cfi_offset 7, -8
 363              		.cfi_offset 14, -4
 364 0002 82B0     		sub	sp, sp, #8
 365              	.LCFI4:
 366              		.cfi_def_cfa_offset 16
 367 0004 00AF     		add	r7, sp, #0
 368              	.LCFI5:
 369              		.cfi_def_cfa_register 7
 550:../../../FreeRTOS-Plus/Source/FreeRTOS-Plus-TCP/FreeRTOS_IP.c **** BaseType_t xReturn;
ARM GAS  /tmp/cc3wfdLm.s 			page 17


 551:../../../FreeRTOS-Plus/Source/FreeRTOS-Plus-TCP/FreeRTOS_IP.c **** 
 552:../../../FreeRTOS-Plus/Source/FreeRTOS-Plus-TCP/FreeRTOS_IP.c **** 	if( xTaskGetCurrentTaskHandle() == xIPTaskHandle )
 370              		.loc 1 552 0
 371 0006 FFF7FEFF 		bl	xTaskGetCurrentTaskHandle
 372 000a 0246     		mov	r2, r0
 373 000c 064B     		ldr	r3, .L27
 374 000e 1B68     		ldr	r3, [r3]
 375 0010 9A42     		cmp	r2, r3
 376 0012 02D1     		bne	.L24
 553:../../../FreeRTOS-Plus/Source/FreeRTOS-Plus-TCP/FreeRTOS_IP.c **** 	{
 554:../../../FreeRTOS-Plus/Source/FreeRTOS-Plus-TCP/FreeRTOS_IP.c **** 		xReturn = pdTRUE;
 377              		.loc 1 554 0
 378 0014 0123     		movs	r3, #1
 379 0016 7B60     		str	r3, [r7, #4]
 380 0018 01E0     		b	.L25
 381              	.L24:
 555:../../../FreeRTOS-Plus/Source/FreeRTOS-Plus-TCP/FreeRTOS_IP.c **** 	}
 556:../../../FreeRTOS-Plus/Source/FreeRTOS-Plus-TCP/FreeRTOS_IP.c **** 	else
 557:../../../FreeRTOS-Plus/Source/FreeRTOS-Plus-TCP/FreeRTOS_IP.c **** 	{
 558:../../../FreeRTOS-Plus/Source/FreeRTOS-Plus-TCP/FreeRTOS_IP.c **** 		xReturn = pdFALSE;
 382              		.loc 1 558 0
 383 001a 0023     		movs	r3, #0
 384 001c 7B60     		str	r3, [r7, #4]
 385              	.L25:
 559:../../../FreeRTOS-Plus/Source/FreeRTOS-Plus-TCP/FreeRTOS_IP.c **** 	}
 560:../../../FreeRTOS-Plus/Source/FreeRTOS-Plus-TCP/FreeRTOS_IP.c **** 
 561:../../../FreeRTOS-Plus/Source/FreeRTOS-Plus-TCP/FreeRTOS_IP.c **** 	return xReturn;
 386              		.loc 1 561 0
 387 001e 7B68     		ldr	r3, [r7, #4]
 562:../../../FreeRTOS-Plus/Source/FreeRTOS-Plus-TCP/FreeRTOS_IP.c **** }
 388              		.loc 1 562 0
 389 0020 1846     		mov	r0, r3
 390 0022 0837     		adds	r7, r7, #8
 391              	.LCFI6:
 392              		.cfi_def_cfa_offset 8
 393 0024 BD46     		mov	sp, r7
 394              	.LCFI7:
 395              		.cfi_def_cfa_register 13
 396              		@ sp needed
 397 0026 80BD     		pop	{r7, pc}
 398              	.L28:
 399              		.align	2
 400              	.L27:
 401 0028 00000000 		.word	xIPTaskHandle
 402              		.cfi_endproc
 403              	.LFE30:
 405              		.section	.text.prvHandleEthernetPacket,"ax",%progbits
 406              		.align	2
 407              		.thumb
 408              		.thumb_func
 410              	prvHandleEthernetPacket:
 411              	.LFB31:
 563:../../../FreeRTOS-Plus/Source/FreeRTOS-Plus-TCP/FreeRTOS_IP.c **** /*-----------------------------------------------------------*/
 564:../../../FreeRTOS-Plus/Source/FreeRTOS-Plus-TCP/FreeRTOS_IP.c **** 
 565:../../../FreeRTOS-Plus/Source/FreeRTOS-Plus-TCP/FreeRTOS_IP.c **** static void prvHandleEthernetPacket( NetworkBufferDescriptor_t *pxBuffer )
 566:../../../FreeRTOS-Plus/Source/FreeRTOS-Plus-TCP/FreeRTOS_IP.c **** {
 412              		.loc 1 566 0
ARM GAS  /tmp/cc3wfdLm.s 			page 18


 413              		.cfi_startproc
 414              		@ args = 0, pretend = 0, frame = 8
 415              		@ frame_needed = 1, uses_anonymous_args = 0
 416 0000 80B5     		push	{r7, lr}
 417              	.LCFI8:
 418              		.cfi_def_cfa_offset 8
 419              		.cfi_offset 7, -8
 420              		.cfi_offset 14, -4
 421 0002 82B0     		sub	sp, sp, #8
 422              	.LCFI9:
 423              		.cfi_def_cfa_offset 16
 424 0004 00AF     		add	r7, sp, #0
 425              	.LCFI10:
 426              		.cfi_def_cfa_register 7
 427 0006 7860     		str	r0, [r7, #4]
 567:../../../FreeRTOS-Plus/Source/FreeRTOS-Plus-TCP/FreeRTOS_IP.c **** 	#if( ipconfigUSE_LINKED_RX_MESSAGES == 0 )
 568:../../../FreeRTOS-Plus/Source/FreeRTOS-Plus-TCP/FreeRTOS_IP.c **** 	{
 569:../../../FreeRTOS-Plus/Source/FreeRTOS-Plus-TCP/FreeRTOS_IP.c **** 		/* When ipconfigUSE_LINKED_RX_MESSAGES is not set to 0 then only one
 570:../../../FreeRTOS-Plus/Source/FreeRTOS-Plus-TCP/FreeRTOS_IP.c **** 		buffer will be sent at a time.  This is the default way for +TCP to pass
 571:../../../FreeRTOS-Plus/Source/FreeRTOS-Plus-TCP/FreeRTOS_IP.c **** 		messages from the MAC to the TCP/IP stack. */
 572:../../../FreeRTOS-Plus/Source/FreeRTOS-Plus-TCP/FreeRTOS_IP.c **** 		prvProcessEthernetPacket( pxBuffer );
 428              		.loc 1 572 0
 429 0008 7868     		ldr	r0, [r7, #4]
 430 000a FFF7FEFF 		bl	prvProcessEthernetPacket
 573:../../../FreeRTOS-Plus/Source/FreeRTOS-Plus-TCP/FreeRTOS_IP.c **** 	}
 574:../../../FreeRTOS-Plus/Source/FreeRTOS-Plus-TCP/FreeRTOS_IP.c **** 	#else /* ipconfigUSE_LINKED_RX_MESSAGES */
 575:../../../FreeRTOS-Plus/Source/FreeRTOS-Plus-TCP/FreeRTOS_IP.c **** 	{
 576:../../../FreeRTOS-Plus/Source/FreeRTOS-Plus-TCP/FreeRTOS_IP.c **** 	NetworkBufferDescriptor_t *pxNextBuffer;
 577:../../../FreeRTOS-Plus/Source/FreeRTOS-Plus-TCP/FreeRTOS_IP.c **** 
 578:../../../FreeRTOS-Plus/Source/FreeRTOS-Plus-TCP/FreeRTOS_IP.c **** 		/* An optimisation that is useful when there is high network traffic.
 579:../../../FreeRTOS-Plus/Source/FreeRTOS-Plus-TCP/FreeRTOS_IP.c **** 		Instead of passing received packets into the IP task one at a time the
 580:../../../FreeRTOS-Plus/Source/FreeRTOS-Plus-TCP/FreeRTOS_IP.c **** 		network interface can chain received packets together and pass them into
 581:../../../FreeRTOS-Plus/Source/FreeRTOS-Plus-TCP/FreeRTOS_IP.c **** 		the IP task in one go.  The packets are chained using the pxNextBuffer
 582:../../../FreeRTOS-Plus/Source/FreeRTOS-Plus-TCP/FreeRTOS_IP.c **** 		member.  The loop below walks through the chain processing each packet
 583:../../../FreeRTOS-Plus/Source/FreeRTOS-Plus-TCP/FreeRTOS_IP.c **** 		in the chain in turn. */
 584:../../../FreeRTOS-Plus/Source/FreeRTOS-Plus-TCP/FreeRTOS_IP.c **** 		do
 585:../../../FreeRTOS-Plus/Source/FreeRTOS-Plus-TCP/FreeRTOS_IP.c **** 		{
 586:../../../FreeRTOS-Plus/Source/FreeRTOS-Plus-TCP/FreeRTOS_IP.c **** 			/* Store a pointer to the buffer after pxBuffer for use later on. */
 587:../../../FreeRTOS-Plus/Source/FreeRTOS-Plus-TCP/FreeRTOS_IP.c **** 			pxNextBuffer = pxBuffer->pxNextBuffer;
 588:../../../FreeRTOS-Plus/Source/FreeRTOS-Plus-TCP/FreeRTOS_IP.c **** 
 589:../../../FreeRTOS-Plus/Source/FreeRTOS-Plus-TCP/FreeRTOS_IP.c **** 			/* Make it NULL to avoid using it later on. */
 590:../../../FreeRTOS-Plus/Source/FreeRTOS-Plus-TCP/FreeRTOS_IP.c **** 			pxBuffer->pxNextBuffer = NULL;
 591:../../../FreeRTOS-Plus/Source/FreeRTOS-Plus-TCP/FreeRTOS_IP.c **** 
 592:../../../FreeRTOS-Plus/Source/FreeRTOS-Plus-TCP/FreeRTOS_IP.c **** 			prvProcessEthernetPacket( pxBuffer );
 593:../../../FreeRTOS-Plus/Source/FreeRTOS-Plus-TCP/FreeRTOS_IP.c **** 			pxBuffer = pxNextBuffer;
 594:../../../FreeRTOS-Plus/Source/FreeRTOS-Plus-TCP/FreeRTOS_IP.c **** 
 595:../../../FreeRTOS-Plus/Source/FreeRTOS-Plus-TCP/FreeRTOS_IP.c **** 		/* While there is another packet in the chain. */
 596:../../../FreeRTOS-Plus/Source/FreeRTOS-Plus-TCP/FreeRTOS_IP.c **** 		} while( pxBuffer != NULL );
 597:../../../FreeRTOS-Plus/Source/FreeRTOS-Plus-TCP/FreeRTOS_IP.c **** 	}
 598:../../../FreeRTOS-Plus/Source/FreeRTOS-Plus-TCP/FreeRTOS_IP.c **** 	#endif /* ipconfigUSE_LINKED_RX_MESSAGES */
 599:../../../FreeRTOS-Plus/Source/FreeRTOS-Plus-TCP/FreeRTOS_IP.c **** }
 431              		.loc 1 599 0
 432 000e 0837     		adds	r7, r7, #8
 433              	.LCFI11:
 434              		.cfi_def_cfa_offset 8
 435 0010 BD46     		mov	sp, r7
 436              	.LCFI12:
ARM GAS  /tmp/cc3wfdLm.s 			page 19


 437              		.cfi_def_cfa_register 13
 438              		@ sp needed
 439 0012 80BD     		pop	{r7, pc}
 440              		.cfi_endproc
 441              	.LFE31:
 443              		.section	.text.prvCalculateSleepTime,"ax",%progbits
 444              		.align	2
 445              		.thumb
 446              		.thumb_func
 448              	prvCalculateSleepTime:
 449              	.LFB32:
 600:../../../FreeRTOS-Plus/Source/FreeRTOS-Plus-TCP/FreeRTOS_IP.c **** /*-----------------------------------------------------------*/
 601:../../../FreeRTOS-Plus/Source/FreeRTOS-Plus-TCP/FreeRTOS_IP.c **** 
 602:../../../FreeRTOS-Plus/Source/FreeRTOS-Plus-TCP/FreeRTOS_IP.c **** static TickType_t prvCalculateSleepTime( void )
 603:../../../FreeRTOS-Plus/Source/FreeRTOS-Plus-TCP/FreeRTOS_IP.c **** {
 450              		.loc 1 603 0
 451              		.cfi_startproc
 452              		@ args = 0, pretend = 0, frame = 8
 453              		@ frame_needed = 1, uses_anonymous_args = 0
 454              		@ link register save eliminated.
 455 0000 80B4     		push	{r7}
 456              	.LCFI13:
 457              		.cfi_def_cfa_offset 4
 458              		.cfi_offset 7, -4
 459 0002 83B0     		sub	sp, sp, #12
 460              	.LCFI14:
 461              		.cfi_def_cfa_offset 16
 462 0004 00AF     		add	r7, sp, #0
 463              	.LCFI15:
 464              		.cfi_def_cfa_register 7
 604:../../../FreeRTOS-Plus/Source/FreeRTOS-Plus-TCP/FreeRTOS_IP.c **** TickType_t xMaximumSleepTime;
 605:../../../FreeRTOS-Plus/Source/FreeRTOS-Plus-TCP/FreeRTOS_IP.c **** 
 606:../../../FreeRTOS-Plus/Source/FreeRTOS-Plus-TCP/FreeRTOS_IP.c **** 	/* Start with the maximum sleep time, then check this against the remaining
 607:../../../FreeRTOS-Plus/Source/FreeRTOS-Plus-TCP/FreeRTOS_IP.c **** 	time in any other timers that are active. */
 608:../../../FreeRTOS-Plus/Source/FreeRTOS-Plus-TCP/FreeRTOS_IP.c **** 	xMaximumSleepTime = ipconfigMAX_IP_TASK_SLEEP_TIME;
 465              		.loc 1 608 0
 466 0006 42F21073 		movw	r3, #10000
 467 000a 7B60     		str	r3, [r7, #4]
 609:../../../FreeRTOS-Plus/Source/FreeRTOS-Plus-TCP/FreeRTOS_IP.c **** 
 610:../../../FreeRTOS-Plus/Source/FreeRTOS-Plus-TCP/FreeRTOS_IP.c **** 	if( xARPTimer.bActive != pdFALSE_UNSIGNED )
 468              		.loc 1 610 0
 469 000c 1D4B     		ldr	r3, .L36
 470 000e 1B78     		ldrb	r3, [r3]	@ zero_extendqisi2
 471 0010 03F00103 		and	r3, r3, #1
 472 0014 DBB2     		uxtb	r3, r3
 473 0016 002B     		cmp	r3, #0
 474 0018 07D0     		beq	.L31
 611:../../../FreeRTOS-Plus/Source/FreeRTOS-Plus-TCP/FreeRTOS_IP.c **** 	{
 612:../../../FreeRTOS-Plus/Source/FreeRTOS-Plus-TCP/FreeRTOS_IP.c **** 		if( xARPTimer.ulRemainingTime < xMaximumSleepTime )
 475              		.loc 1 612 0
 476 001a 1A4B     		ldr	r3, .L36
 477 001c DA68     		ldr	r2, [r3, #12]
 478 001e 7B68     		ldr	r3, [r7, #4]
 479 0020 9A42     		cmp	r2, r3
 480 0022 02D2     		bcs	.L31
 613:../../../FreeRTOS-Plus/Source/FreeRTOS-Plus-TCP/FreeRTOS_IP.c **** 		{
 614:../../../FreeRTOS-Plus/Source/FreeRTOS-Plus-TCP/FreeRTOS_IP.c **** 			xMaximumSleepTime = xARPTimer.ulReloadTime;
ARM GAS  /tmp/cc3wfdLm.s 			page 20


 481              		.loc 1 614 0
 482 0024 174B     		ldr	r3, .L36
 483 0026 1B69     		ldr	r3, [r3, #16]
 484 0028 7B60     		str	r3, [r7, #4]
 485              	.L31:
 615:../../../FreeRTOS-Plus/Source/FreeRTOS-Plus-TCP/FreeRTOS_IP.c **** 		}
 616:../../../FreeRTOS-Plus/Source/FreeRTOS-Plus-TCP/FreeRTOS_IP.c **** 	}
 617:../../../FreeRTOS-Plus/Source/FreeRTOS-Plus-TCP/FreeRTOS_IP.c **** 
 618:../../../FreeRTOS-Plus/Source/FreeRTOS-Plus-TCP/FreeRTOS_IP.c **** 	#if( ipconfigUSE_DHCP == 1 )
 619:../../../FreeRTOS-Plus/Source/FreeRTOS-Plus-TCP/FreeRTOS_IP.c **** 	{
 620:../../../FreeRTOS-Plus/Source/FreeRTOS-Plus-TCP/FreeRTOS_IP.c **** 		if( xDHCPTimer.bActive != pdFALSE_UNSIGNED )
 486              		.loc 1 620 0
 487 002a 174B     		ldr	r3, .L36+4
 488 002c 1B78     		ldrb	r3, [r3]	@ zero_extendqisi2
 489 002e 03F00103 		and	r3, r3, #1
 490 0032 DBB2     		uxtb	r3, r3
 491 0034 002B     		cmp	r3, #0
 492 0036 07D0     		beq	.L32
 621:../../../FreeRTOS-Plus/Source/FreeRTOS-Plus-TCP/FreeRTOS_IP.c **** 		{
 622:../../../FreeRTOS-Plus/Source/FreeRTOS-Plus-TCP/FreeRTOS_IP.c **** 			if( xDHCPTimer.ulRemainingTime < xMaximumSleepTime )
 493              		.loc 1 622 0
 494 0038 134B     		ldr	r3, .L36+4
 495 003a DA68     		ldr	r2, [r3, #12]
 496 003c 7B68     		ldr	r3, [r7, #4]
 497 003e 9A42     		cmp	r2, r3
 498 0040 02D2     		bcs	.L32
 623:../../../FreeRTOS-Plus/Source/FreeRTOS-Plus-TCP/FreeRTOS_IP.c **** 			{
 624:../../../FreeRTOS-Plus/Source/FreeRTOS-Plus-TCP/FreeRTOS_IP.c **** 				xMaximumSleepTime = xDHCPTimer.ulRemainingTime;
 499              		.loc 1 624 0
 500 0042 114B     		ldr	r3, .L36+4
 501 0044 DB68     		ldr	r3, [r3, #12]
 502 0046 7B60     		str	r3, [r7, #4]
 503              	.L32:
 625:../../../FreeRTOS-Plus/Source/FreeRTOS-Plus-TCP/FreeRTOS_IP.c **** 			}
 626:../../../FreeRTOS-Plus/Source/FreeRTOS-Plus-TCP/FreeRTOS_IP.c **** 		}
 627:../../../FreeRTOS-Plus/Source/FreeRTOS-Plus-TCP/FreeRTOS_IP.c **** 	}
 628:../../../FreeRTOS-Plus/Source/FreeRTOS-Plus-TCP/FreeRTOS_IP.c **** 	#endif /* ipconfigUSE_DHCP */
 629:../../../FreeRTOS-Plus/Source/FreeRTOS-Plus-TCP/FreeRTOS_IP.c **** 
 630:../../../FreeRTOS-Plus/Source/FreeRTOS-Plus-TCP/FreeRTOS_IP.c **** 	#if( ipconfigUSE_TCP == 1 )
 631:../../../FreeRTOS-Plus/Source/FreeRTOS-Plus-TCP/FreeRTOS_IP.c **** 	{
 632:../../../FreeRTOS-Plus/Source/FreeRTOS-Plus-TCP/FreeRTOS_IP.c **** 		if( xTCPTimer.ulRemainingTime < xMaximumSleepTime )
 504              		.loc 1 632 0
 505 0048 104B     		ldr	r3, .L36+8
 506 004a DA68     		ldr	r2, [r3, #12]
 507 004c 7B68     		ldr	r3, [r7, #4]
 508 004e 9A42     		cmp	r2, r3
 509 0050 02D2     		bcs	.L33
 633:../../../FreeRTOS-Plus/Source/FreeRTOS-Plus-TCP/FreeRTOS_IP.c **** 		{
 634:../../../FreeRTOS-Plus/Source/FreeRTOS-Plus-TCP/FreeRTOS_IP.c **** 			xMaximumSleepTime = xTCPTimer.ulRemainingTime;
 510              		.loc 1 634 0
 511 0052 0E4B     		ldr	r3, .L36+8
 512 0054 DB68     		ldr	r3, [r3, #12]
 513 0056 7B60     		str	r3, [r7, #4]
 514              	.L33:
 635:../../../FreeRTOS-Plus/Source/FreeRTOS-Plus-TCP/FreeRTOS_IP.c **** 		}
 636:../../../FreeRTOS-Plus/Source/FreeRTOS-Plus-TCP/FreeRTOS_IP.c **** 	}
 637:../../../FreeRTOS-Plus/Source/FreeRTOS-Plus-TCP/FreeRTOS_IP.c **** 	#endif
ARM GAS  /tmp/cc3wfdLm.s 			page 21


 638:../../../FreeRTOS-Plus/Source/FreeRTOS-Plus-TCP/FreeRTOS_IP.c **** 
 639:../../../FreeRTOS-Plus/Source/FreeRTOS-Plus-TCP/FreeRTOS_IP.c **** 	#if( ipconfigDNS_USE_CALLBACKS != 0 )
 640:../../../FreeRTOS-Plus/Source/FreeRTOS-Plus-TCP/FreeRTOS_IP.c **** 	{
 641:../../../FreeRTOS-Plus/Source/FreeRTOS-Plus-TCP/FreeRTOS_IP.c **** 		if( xDNSTimer.bActive != pdFALSE )
 515              		.loc 1 641 0
 516 0058 0D4B     		ldr	r3, .L36+12
 517 005a 1B78     		ldrb	r3, [r3]	@ zero_extendqisi2
 518 005c 03F00103 		and	r3, r3, #1
 519 0060 DBB2     		uxtb	r3, r3
 520 0062 002B     		cmp	r3, #0
 521 0064 07D0     		beq	.L34
 642:../../../FreeRTOS-Plus/Source/FreeRTOS-Plus-TCP/FreeRTOS_IP.c **** 		{
 643:../../../FreeRTOS-Plus/Source/FreeRTOS-Plus-TCP/FreeRTOS_IP.c **** 			if( xDNSTimer.ulRemainingTime < xMaximumSleepTime )
 522              		.loc 1 643 0
 523 0066 0A4B     		ldr	r3, .L36+12
 524 0068 DA68     		ldr	r2, [r3, #12]
 525 006a 7B68     		ldr	r3, [r7, #4]
 526 006c 9A42     		cmp	r2, r3
 527 006e 02D2     		bcs	.L34
 644:../../../FreeRTOS-Plus/Source/FreeRTOS-Plus-TCP/FreeRTOS_IP.c **** 			{
 645:../../../FreeRTOS-Plus/Source/FreeRTOS-Plus-TCP/FreeRTOS_IP.c **** 				xMaximumSleepTime = xDNSTimer.ulRemainingTime;
 528              		.loc 1 645 0
 529 0070 074B     		ldr	r3, .L36+12
 530 0072 DB68     		ldr	r3, [r3, #12]
 531 0074 7B60     		str	r3, [r7, #4]
 532              	.L34:
 646:../../../FreeRTOS-Plus/Source/FreeRTOS-Plus-TCP/FreeRTOS_IP.c **** 			}
 647:../../../FreeRTOS-Plus/Source/FreeRTOS-Plus-TCP/FreeRTOS_IP.c **** 		}
 648:../../../FreeRTOS-Plus/Source/FreeRTOS-Plus-TCP/FreeRTOS_IP.c **** 	}
 649:../../../FreeRTOS-Plus/Source/FreeRTOS-Plus-TCP/FreeRTOS_IP.c **** 	#endif
 650:../../../FreeRTOS-Plus/Source/FreeRTOS-Plus-TCP/FreeRTOS_IP.c **** 
 651:../../../FreeRTOS-Plus/Source/FreeRTOS-Plus-TCP/FreeRTOS_IP.c **** 	return xMaximumSleepTime;
 533              		.loc 1 651 0
 534 0076 7B68     		ldr	r3, [r7, #4]
 652:../../../FreeRTOS-Plus/Source/FreeRTOS-Plus-TCP/FreeRTOS_IP.c **** }
 535              		.loc 1 652 0
 536 0078 1846     		mov	r0, r3
 537 007a 0C37     		adds	r7, r7, #12
 538              	.LCFI16:
 539              		.cfi_def_cfa_offset 4
 540 007c BD46     		mov	sp, r7
 541              	.LCFI17:
 542              		.cfi_def_cfa_register 13
 543              		@ sp needed
 544 007e 5DF8047B 		ldr	r7, [sp], #4
 545              	.LCFI18:
 546              		.cfi_restore 7
 547              		.cfi_def_cfa_offset 0
 548 0082 7047     		bx	lr
 549              	.L37:
 550              		.align	2
 551              	.L36:
 552 0084 00000000 		.word	xARPTimer
 553 0088 00000000 		.word	xDHCPTimer
 554 008c 00000000 		.word	xTCPTimer
 555 0090 00000000 		.word	xDNSTimer
 556              		.cfi_endproc
ARM GAS  /tmp/cc3wfdLm.s 			page 22


 557              	.LFE32:
 559              		.section	.text.prvCheckNetworkTimers,"ax",%progbits
 560              		.align	2
 561              		.thumb
 562              		.thumb_func
 564              	prvCheckNetworkTimers:
 565              	.LFB33:
 653:../../../FreeRTOS-Plus/Source/FreeRTOS-Plus-TCP/FreeRTOS_IP.c **** /*-----------------------------------------------------------*/
 654:../../../FreeRTOS-Plus/Source/FreeRTOS-Plus-TCP/FreeRTOS_IP.c **** 
 655:../../../FreeRTOS-Plus/Source/FreeRTOS-Plus-TCP/FreeRTOS_IP.c **** static void prvCheckNetworkTimers( void )
 656:../../../FreeRTOS-Plus/Source/FreeRTOS-Plus-TCP/FreeRTOS_IP.c **** {
 566              		.loc 1 656 0
 567              		.cfi_startproc
 568              		@ args = 0, pretend = 0, frame = 16
 569              		@ frame_needed = 1, uses_anonymous_args = 0
 570 0000 80B5     		push	{r7, lr}
 571              	.LCFI19:
 572              		.cfi_def_cfa_offset 8
 573              		.cfi_offset 7, -8
 574              		.cfi_offset 14, -4
 575 0002 84B0     		sub	sp, sp, #16
 576              	.LCFI20:
 577              		.cfi_def_cfa_offset 24
 578 0004 00AF     		add	r7, sp, #0
 579              	.LCFI21:
 580              		.cfi_def_cfa_register 7
 657:../../../FreeRTOS-Plus/Source/FreeRTOS-Plus-TCP/FreeRTOS_IP.c **** 	/* Is it time for ARP processing? */
 658:../../../FreeRTOS-Plus/Source/FreeRTOS-Plus-TCP/FreeRTOS_IP.c **** 	if( prvIPTimerCheck( &xARPTimer ) != pdFALSE )
 581              		.loc 1 658 0
 582 0006 2D48     		ldr	r0, .L47
 583 0008 FFF7FEFF 		bl	prvIPTimerCheck
 584 000c 0346     		mov	r3, r0
 585 000e 002B     		cmp	r3, #0
 586 0010 02D0     		beq	.L39
 659:../../../FreeRTOS-Plus/Source/FreeRTOS-Plus-TCP/FreeRTOS_IP.c **** 	{
 660:../../../FreeRTOS-Plus/Source/FreeRTOS-Plus-TCP/FreeRTOS_IP.c **** 		xSendEventToIPTask( eARPTimerEvent );
 587              		.loc 1 660 0
 588 0012 0220     		movs	r0, #2
 589 0014 FFF7FEFF 		bl	xSendEventToIPTask
 590              	.L39:
 661:../../../FreeRTOS-Plus/Source/FreeRTOS-Plus-TCP/FreeRTOS_IP.c **** 	}
 662:../../../FreeRTOS-Plus/Source/FreeRTOS-Plus-TCP/FreeRTOS_IP.c **** 
 663:../../../FreeRTOS-Plus/Source/FreeRTOS-Plus-TCP/FreeRTOS_IP.c **** 	#if( ipconfigUSE_DHCP == 1 )
 664:../../../FreeRTOS-Plus/Source/FreeRTOS-Plus-TCP/FreeRTOS_IP.c **** 	{
 665:../../../FreeRTOS-Plus/Source/FreeRTOS-Plus-TCP/FreeRTOS_IP.c **** 		/* Is it time for DHCP processing? */
 666:../../../FreeRTOS-Plus/Source/FreeRTOS-Plus-TCP/FreeRTOS_IP.c **** 		if( prvIPTimerCheck( &xDHCPTimer ) != pdFALSE )
 591              		.loc 1 666 0
 592 0018 2948     		ldr	r0, .L47+4
 593 001a FFF7FEFF 		bl	prvIPTimerCheck
 594 001e 0346     		mov	r3, r0
 595 0020 002B     		cmp	r3, #0
 596 0022 02D0     		beq	.L40
 667:../../../FreeRTOS-Plus/Source/FreeRTOS-Plus-TCP/FreeRTOS_IP.c **** 		{
 668:../../../FreeRTOS-Plus/Source/FreeRTOS-Plus-TCP/FreeRTOS_IP.c **** 			xSendEventToIPTask( eDHCPEvent );
 597              		.loc 1 668 0
 598 0024 0420     		movs	r0, #4
 599 0026 FFF7FEFF 		bl	xSendEventToIPTask
ARM GAS  /tmp/cc3wfdLm.s 			page 23


 600              	.L40:
 601              	.LBB12:
 669:../../../FreeRTOS-Plus/Source/FreeRTOS-Plus-TCP/FreeRTOS_IP.c **** 		}
 670:../../../FreeRTOS-Plus/Source/FreeRTOS-Plus-TCP/FreeRTOS_IP.c **** 	}
 671:../../../FreeRTOS-Plus/Source/FreeRTOS-Plus-TCP/FreeRTOS_IP.c **** 	#endif /* ipconfigUSE_DHCP */
 672:../../../FreeRTOS-Plus/Source/FreeRTOS-Plus-TCP/FreeRTOS_IP.c **** 
 673:../../../FreeRTOS-Plus/Source/FreeRTOS-Plus-TCP/FreeRTOS_IP.c **** 	#if( ipconfigDNS_USE_CALLBACKS != 0 )
 674:../../../FreeRTOS-Plus/Source/FreeRTOS-Plus-TCP/FreeRTOS_IP.c **** 	{
 675:../../../FreeRTOS-Plus/Source/FreeRTOS-Plus-TCP/FreeRTOS_IP.c **** 	extern void vDNSCheckCallBack( void *pvSearchID );
 676:../../../FreeRTOS-Plus/Source/FreeRTOS-Plus-TCP/FreeRTOS_IP.c **** 
 677:../../../FreeRTOS-Plus/Source/FreeRTOS-Plus-TCP/FreeRTOS_IP.c **** 		/* Is it time for DNS processing? */
 678:../../../FreeRTOS-Plus/Source/FreeRTOS-Plus-TCP/FreeRTOS_IP.c **** 		if( prvIPTimerCheck( &xDNSTimer ) != pdFALSE )
 602              		.loc 1 678 0
 603 002a 2648     		ldr	r0, .L47+8
 604 002c FFF7FEFF 		bl	prvIPTimerCheck
 605 0030 0346     		mov	r3, r0
 606 0032 002B     		cmp	r3, #0
 607 0034 02D0     		beq	.L41
 679:../../../FreeRTOS-Plus/Source/FreeRTOS-Plus-TCP/FreeRTOS_IP.c **** 		{
 680:../../../FreeRTOS-Plus/Source/FreeRTOS-Plus-TCP/FreeRTOS_IP.c **** 			vDNSCheckCallBack( NULL );
 608              		.loc 1 680 0
 609 0036 0020     		movs	r0, #0
 610 0038 FFF7FEFF 		bl	vDNSCheckCallBack
 611              	.L41:
 612              	.LBE12:
 613              	.LBB13:
 681:../../../FreeRTOS-Plus/Source/FreeRTOS-Plus-TCP/FreeRTOS_IP.c **** 		}
 682:../../../FreeRTOS-Plus/Source/FreeRTOS-Plus-TCP/FreeRTOS_IP.c **** 	}
 683:../../../FreeRTOS-Plus/Source/FreeRTOS-Plus-TCP/FreeRTOS_IP.c **** 	#endif /* ipconfigDNS_USE_CALLBACKS */
 684:../../../FreeRTOS-Plus/Source/FreeRTOS-Plus-TCP/FreeRTOS_IP.c **** 
 685:../../../FreeRTOS-Plus/Source/FreeRTOS-Plus-TCP/FreeRTOS_IP.c **** 	#if( ipconfigUSE_TCP == 1 )
 686:../../../FreeRTOS-Plus/Source/FreeRTOS-Plus-TCP/FreeRTOS_IP.c **** 	{
 687:../../../FreeRTOS-Plus/Source/FreeRTOS-Plus-TCP/FreeRTOS_IP.c **** 	BaseType_t xWillSleep;
 688:../../../FreeRTOS-Plus/Source/FreeRTOS-Plus-TCP/FreeRTOS_IP.c **** 	/* xStart keeps a copy of the last time this function was active,
 689:../../../FreeRTOS-Plus/Source/FreeRTOS-Plus-TCP/FreeRTOS_IP.c **** 	and during every call it will be updated with xTaskGetTickCount()
 690:../../../FreeRTOS-Plus/Source/FreeRTOS-Plus-TCP/FreeRTOS_IP.c **** 	'0' means: not yet initialised (although later '0' might be returned
 691:../../../FreeRTOS-Plus/Source/FreeRTOS-Plus-TCP/FreeRTOS_IP.c **** 	by xTaskGetTickCount(), which is no problem). */
 692:../../../FreeRTOS-Plus/Source/FreeRTOS-Plus-TCP/FreeRTOS_IP.c **** 	static TickType_t xStart = ( TickType_t ) 0;
 693:../../../FreeRTOS-Plus/Source/FreeRTOS-Plus-TCP/FreeRTOS_IP.c **** 	TickType_t xTimeNow, xNextTime;
 694:../../../FreeRTOS-Plus/Source/FreeRTOS-Plus-TCP/FreeRTOS_IP.c **** 	BaseType_t xCheckTCPSockets;
 695:../../../FreeRTOS-Plus/Source/FreeRTOS-Plus-TCP/FreeRTOS_IP.c **** 	extern uint32_t ulNextInitialSequenceNumber;
 696:../../../FreeRTOS-Plus/Source/FreeRTOS-Plus-TCP/FreeRTOS_IP.c **** 
 697:../../../FreeRTOS-Plus/Source/FreeRTOS-Plus-TCP/FreeRTOS_IP.c **** 		if( uxQueueMessagesWaiting( xNetworkEventQueue ) == 0u )
 614              		.loc 1 697 0
 615 003c 224B     		ldr	r3, .L47+12
 616 003e 1B68     		ldr	r3, [r3]
 617 0040 1846     		mov	r0, r3
 618 0042 FFF7FEFF 		bl	uxQueueMessagesWaiting
 619 0046 0346     		mov	r3, r0
 620 0048 002B     		cmp	r3, #0
 621 004a 02D1     		bne	.L42
 698:../../../FreeRTOS-Plus/Source/FreeRTOS-Plus-TCP/FreeRTOS_IP.c **** 		{
 699:../../../FreeRTOS-Plus/Source/FreeRTOS-Plus-TCP/FreeRTOS_IP.c **** 			xWillSleep = pdTRUE;
 622              		.loc 1 699 0
 623 004c 0123     		movs	r3, #1
 624 004e FB60     		str	r3, [r7, #12]
 625 0050 01E0     		b	.L43
ARM GAS  /tmp/cc3wfdLm.s 			page 24


 626              	.L42:
 700:../../../FreeRTOS-Plus/Source/FreeRTOS-Plus-TCP/FreeRTOS_IP.c **** 		}
 701:../../../FreeRTOS-Plus/Source/FreeRTOS-Plus-TCP/FreeRTOS_IP.c **** 		else
 702:../../../FreeRTOS-Plus/Source/FreeRTOS-Plus-TCP/FreeRTOS_IP.c **** 		{
 703:../../../FreeRTOS-Plus/Source/FreeRTOS-Plus-TCP/FreeRTOS_IP.c **** 			xWillSleep = pdFALSE;
 627              		.loc 1 703 0
 628 0052 0023     		movs	r3, #0
 629 0054 FB60     		str	r3, [r7, #12]
 630              	.L43:
 704:../../../FreeRTOS-Plus/Source/FreeRTOS-Plus-TCP/FreeRTOS_IP.c **** 		}
 705:../../../FreeRTOS-Plus/Source/FreeRTOS-Plus-TCP/FreeRTOS_IP.c **** 
 706:../../../FreeRTOS-Plus/Source/FreeRTOS-Plus-TCP/FreeRTOS_IP.c **** 		xTimeNow = xTaskGetTickCount();
 631              		.loc 1 706 0
 632 0056 FFF7FEFF 		bl	xTaskGetTickCount
 633 005a 7860     		str	r0, [r7, #4]
 707:../../../FreeRTOS-Plus/Source/FreeRTOS-Plus-TCP/FreeRTOS_IP.c **** 
 708:../../../FreeRTOS-Plus/Source/FreeRTOS-Plus-TCP/FreeRTOS_IP.c **** 		if( xStart != ( TickType_t ) 0 )
 634              		.loc 1 708 0
 635 005c 1B4B     		ldr	r3, .L47+16
 636 005e 1B68     		ldr	r3, [r3]
 637 0060 002B     		cmp	r3, #0
 638 0062 09D0     		beq	.L44
 709:../../../FreeRTOS-Plus/Source/FreeRTOS-Plus-TCP/FreeRTOS_IP.c **** 		{
 710:../../../FreeRTOS-Plus/Source/FreeRTOS-Plus-TCP/FreeRTOS_IP.c **** 			/* It is advised to increment the Initial Sequence Number every 4
 711:../../../FreeRTOS-Plus/Source/FreeRTOS-Plus-TCP/FreeRTOS_IP.c **** 			microseconds which makes 250 times per ms.  This will make it harder
 712:../../../FreeRTOS-Plus/Source/FreeRTOS-Plus-TCP/FreeRTOS_IP.c **** 			for a third party to 'guess' our sequence number and 'take over'
 713:../../../FreeRTOS-Plus/Source/FreeRTOS-Plus-TCP/FreeRTOS_IP.c **** 			a TCP connection */
 714:../../../FreeRTOS-Plus/Source/FreeRTOS-Plus-TCP/FreeRTOS_IP.c **** 			ulNextInitialSequenceNumber += ipINITIAL_SEQUENCE_NUMBER_FACTOR * ( ( xTimeNow - xStart ) * port
 639              		.loc 1 714 0
 640 0064 194B     		ldr	r3, .L47+16
 641 0066 1B68     		ldr	r3, [r3]
 642 0068 7A68     		ldr	r2, [r7, #4]
 643 006a D31A     		subs	r3, r2, r3
 644 006c 1A02     		lsls	r2, r3, #8
 645 006e 184B     		ldr	r3, .L47+20
 646 0070 1B68     		ldr	r3, [r3]
 647 0072 1344     		add	r3, r3, r2
 648 0074 164A     		ldr	r2, .L47+20
 649 0076 1360     		str	r3, [r2]
 650              	.L44:
 715:../../../FreeRTOS-Plus/Source/FreeRTOS-Plus-TCP/FreeRTOS_IP.c **** 		}
 716:../../../FreeRTOS-Plus/Source/FreeRTOS-Plus-TCP/FreeRTOS_IP.c **** 
 717:../../../FreeRTOS-Plus/Source/FreeRTOS-Plus-TCP/FreeRTOS_IP.c **** 		xStart = xTimeNow;
 651              		.loc 1 717 0
 652 0078 144A     		ldr	r2, .L47+16
 653 007a 7B68     		ldr	r3, [r7, #4]
 654 007c 1360     		str	r3, [r2]
 718:../../../FreeRTOS-Plus/Source/FreeRTOS-Plus-TCP/FreeRTOS_IP.c **** 
 719:../../../FreeRTOS-Plus/Source/FreeRTOS-Plus-TCP/FreeRTOS_IP.c **** 		/* Sockets need to be checked if the TCP timer has expired. */
 720:../../../FreeRTOS-Plus/Source/FreeRTOS-Plus-TCP/FreeRTOS_IP.c **** 		xCheckTCPSockets = prvIPTimerCheck( &xTCPTimer );
 655              		.loc 1 720 0
 656 007e 1548     		ldr	r0, .L47+24
 657 0080 FFF7FEFF 		bl	prvIPTimerCheck
 658 0084 B860     		str	r0, [r7, #8]
 721:../../../FreeRTOS-Plus/Source/FreeRTOS-Plus-TCP/FreeRTOS_IP.c **** 
 722:../../../FreeRTOS-Plus/Source/FreeRTOS-Plus-TCP/FreeRTOS_IP.c **** 		/* Sockets will also be checked if there are TCP messages but the
 723:../../../FreeRTOS-Plus/Source/FreeRTOS-Plus-TCP/FreeRTOS_IP.c **** 		message queue is empty (indicated by xWillSleep being true). */
ARM GAS  /tmp/cc3wfdLm.s 			page 25


 724:../../../FreeRTOS-Plus/Source/FreeRTOS-Plus-TCP/FreeRTOS_IP.c **** 		if( ( xProcessedTCPMessage != pdFALSE ) && ( xWillSleep != pdFALSE ) )
 659              		.loc 1 724 0
 660 0086 144B     		ldr	r3, .L47+28
 661 0088 1B68     		ldr	r3, [r3]
 662 008a 002B     		cmp	r3, #0
 663 008c 04D0     		beq	.L45
 664              		.loc 1 724 0 is_stmt 0 discriminator 1
 665 008e FB68     		ldr	r3, [r7, #12]
 666 0090 002B     		cmp	r3, #0
 667 0092 01D0     		beq	.L45
 725:../../../FreeRTOS-Plus/Source/FreeRTOS-Plus-TCP/FreeRTOS_IP.c **** 		{
 726:../../../FreeRTOS-Plus/Source/FreeRTOS-Plus-TCP/FreeRTOS_IP.c **** 			xCheckTCPSockets = pdTRUE;
 668              		.loc 1 726 0 is_stmt 1
 669 0094 0123     		movs	r3, #1
 670 0096 BB60     		str	r3, [r7, #8]
 671              	.L45:
 727:../../../FreeRTOS-Plus/Source/FreeRTOS-Plus-TCP/FreeRTOS_IP.c **** 		}
 728:../../../FreeRTOS-Plus/Source/FreeRTOS-Plus-TCP/FreeRTOS_IP.c **** 
 729:../../../FreeRTOS-Plus/Source/FreeRTOS-Plus-TCP/FreeRTOS_IP.c **** 		if( xCheckTCPSockets != pdFALSE )
 672              		.loc 1 729 0
 673 0098 BB68     		ldr	r3, [r7, #8]
 674 009a 002B     		cmp	r3, #0
 675 009c 0AD0     		beq	.L38
 730:../../../FreeRTOS-Plus/Source/FreeRTOS-Plus-TCP/FreeRTOS_IP.c **** 		{
 731:../../../FreeRTOS-Plus/Source/FreeRTOS-Plus-TCP/FreeRTOS_IP.c **** 			/* Attend to the sockets, returning the period after which the
 732:../../../FreeRTOS-Plus/Source/FreeRTOS-Plus-TCP/FreeRTOS_IP.c **** 			check must be repeated. */
 733:../../../FreeRTOS-Plus/Source/FreeRTOS-Plus-TCP/FreeRTOS_IP.c **** 			xNextTime = xTCPTimerCheck( xWillSleep );
 676              		.loc 1 733 0
 677 009e F868     		ldr	r0, [r7, #12]
 678 00a0 FFF7FEFF 		bl	xTCPTimerCheck
 679 00a4 3860     		str	r0, [r7]
 734:../../../FreeRTOS-Plus/Source/FreeRTOS-Plus-TCP/FreeRTOS_IP.c **** 			prvIPTimerStart( &xTCPTimer, xNextTime );
 680              		.loc 1 734 0
 681 00a6 0B48     		ldr	r0, .L47+24
 682 00a8 3968     		ldr	r1, [r7]
 683 00aa FFF7FEFF 		bl	prvIPTimerStart
 735:../../../FreeRTOS-Plus/Source/FreeRTOS-Plus-TCP/FreeRTOS_IP.c **** 			xProcessedTCPMessage = 0;
 684              		.loc 1 735 0
 685 00ae 0A4B     		ldr	r3, .L47+28
 686 00b0 0022     		movs	r2, #0
 687 00b2 1A60     		str	r2, [r3]
 688              	.L38:
 689              	.LBE13:
 736:../../../FreeRTOS-Plus/Source/FreeRTOS-Plus-TCP/FreeRTOS_IP.c **** 		}
 737:../../../FreeRTOS-Plus/Source/FreeRTOS-Plus-TCP/FreeRTOS_IP.c **** 	}
 738:../../../FreeRTOS-Plus/Source/FreeRTOS-Plus-TCP/FreeRTOS_IP.c **** 	#endif /* ipconfigUSE_TCP == 1 */
 739:../../../FreeRTOS-Plus/Source/FreeRTOS-Plus-TCP/FreeRTOS_IP.c **** }
 690              		.loc 1 739 0
 691 00b4 1037     		adds	r7, r7, #16
 692              	.LCFI22:
 693              		.cfi_def_cfa_offset 8
 694 00b6 BD46     		mov	sp, r7
 695              	.LCFI23:
 696              		.cfi_def_cfa_register 13
 697              		@ sp needed
 698 00b8 80BD     		pop	{r7, pc}
 699              	.L48:
ARM GAS  /tmp/cc3wfdLm.s 			page 26


 700 00ba 00BF     		.align	2
 701              	.L47:
 702 00bc 00000000 		.word	xARPTimer
 703 00c0 00000000 		.word	xDHCPTimer
 704 00c4 00000000 		.word	xDNSTimer
 705 00c8 00000000 		.word	xNetworkEventQueue
 706 00cc 00000000 		.word	xStart.7234
 707 00d0 00000000 		.word	ulNextInitialSequenceNumber
 708 00d4 00000000 		.word	xTCPTimer
 709 00d8 00000000 		.word	xProcessedTCPMessage
 710              		.cfi_endproc
 711              	.LFE33:
 713              		.section	.text.prvIPTimerStart,"ax",%progbits
 714              		.align	2
 715              		.thumb
 716              		.thumb_func
 718              	prvIPTimerStart:
 719              	.LFB34:
 740:../../../FreeRTOS-Plus/Source/FreeRTOS-Plus-TCP/FreeRTOS_IP.c **** /*-----------------------------------------------------------*/
 741:../../../FreeRTOS-Plus/Source/FreeRTOS-Plus-TCP/FreeRTOS_IP.c **** 
 742:../../../FreeRTOS-Plus/Source/FreeRTOS-Plus-TCP/FreeRTOS_IP.c **** static void prvIPTimerStart( IPTimer_t *pxTimer, TickType_t xTime )
 743:../../../FreeRTOS-Plus/Source/FreeRTOS-Plus-TCP/FreeRTOS_IP.c **** {
 720              		.loc 1 743 0
 721              		.cfi_startproc
 722              		@ args = 0, pretend = 0, frame = 8
 723              		@ frame_needed = 1, uses_anonymous_args = 0
 724 0000 80B5     		push	{r7, lr}
 725              	.LCFI24:
 726              		.cfi_def_cfa_offset 8
 727              		.cfi_offset 7, -8
 728              		.cfi_offset 14, -4
 729 0002 82B0     		sub	sp, sp, #8
 730              	.LCFI25:
 731              		.cfi_def_cfa_offset 16
 732 0004 00AF     		add	r7, sp, #0
 733              	.LCFI26:
 734              		.cfi_def_cfa_register 7
 735 0006 7860     		str	r0, [r7, #4]
 736 0008 3960     		str	r1, [r7]
 744:../../../FreeRTOS-Plus/Source/FreeRTOS-Plus-TCP/FreeRTOS_IP.c **** 	vTaskSetTimeOutState( &pxTimer->xTimeOut );
 737              		.loc 1 744 0
 738 000a 7B68     		ldr	r3, [r7, #4]
 739 000c 0433     		adds	r3, r3, #4
 740 000e 1846     		mov	r0, r3
 741 0010 FFF7FEFF 		bl	vTaskSetTimeOutState
 745:../../../FreeRTOS-Plus/Source/FreeRTOS-Plus-TCP/FreeRTOS_IP.c **** 	pxTimer->ulRemainingTime = xTime;
 742              		.loc 1 745 0
 743 0014 7B68     		ldr	r3, [r7, #4]
 744 0016 3A68     		ldr	r2, [r7]
 745 0018 DA60     		str	r2, [r3, #12]
 746:../../../FreeRTOS-Plus/Source/FreeRTOS-Plus-TCP/FreeRTOS_IP.c **** 
 747:../../../FreeRTOS-Plus/Source/FreeRTOS-Plus-TCP/FreeRTOS_IP.c **** 	if( xTime == ( TickType_t ) 0 )
 746              		.loc 1 747 0
 747 001a 3B68     		ldr	r3, [r7]
 748 001c 002B     		cmp	r3, #0
 749 001e 05D1     		bne	.L50
 748:../../../FreeRTOS-Plus/Source/FreeRTOS-Plus-TCP/FreeRTOS_IP.c **** 	{
ARM GAS  /tmp/cc3wfdLm.s 			page 27


 749:../../../FreeRTOS-Plus/Source/FreeRTOS-Plus-TCP/FreeRTOS_IP.c **** 		pxTimer->bExpired = pdTRUE_UNSIGNED;
 750              		.loc 1 749 0
 751 0020 7A68     		ldr	r2, [r7, #4]
 752 0022 1378     		ldrb	r3, [r2]
 753 0024 43F00203 		orr	r3, r3, #2
 754 0028 1370     		strb	r3, [r2]
 755 002a 04E0     		b	.L51
 756              	.L50:
 750:../../../FreeRTOS-Plus/Source/FreeRTOS-Plus-TCP/FreeRTOS_IP.c **** 	}
 751:../../../FreeRTOS-Plus/Source/FreeRTOS-Plus-TCP/FreeRTOS_IP.c **** 	else
 752:../../../FreeRTOS-Plus/Source/FreeRTOS-Plus-TCP/FreeRTOS_IP.c **** 	{
 753:../../../FreeRTOS-Plus/Source/FreeRTOS-Plus-TCP/FreeRTOS_IP.c **** 		pxTimer->bExpired = pdFALSE_UNSIGNED;
 757              		.loc 1 753 0
 758 002c 7A68     		ldr	r2, [r7, #4]
 759 002e 1378     		ldrb	r3, [r2]
 760 0030 6FF34103 		bfc	r3, #1, #1
 761 0034 1370     		strb	r3, [r2]
 762              	.L51:
 754:../../../FreeRTOS-Plus/Source/FreeRTOS-Plus-TCP/FreeRTOS_IP.c **** 	}
 755:../../../FreeRTOS-Plus/Source/FreeRTOS-Plus-TCP/FreeRTOS_IP.c **** 
 756:../../../FreeRTOS-Plus/Source/FreeRTOS-Plus-TCP/FreeRTOS_IP.c **** 	pxTimer->bActive = pdTRUE_UNSIGNED;
 763              		.loc 1 756 0
 764 0036 7A68     		ldr	r2, [r7, #4]
 765 0038 1378     		ldrb	r3, [r2]
 766 003a 43F00103 		orr	r3, r3, #1
 767 003e 1370     		strb	r3, [r2]
 757:../../../FreeRTOS-Plus/Source/FreeRTOS-Plus-TCP/FreeRTOS_IP.c **** }
 768              		.loc 1 757 0
 769 0040 0837     		adds	r7, r7, #8
 770              	.LCFI27:
 771              		.cfi_def_cfa_offset 8
 772 0042 BD46     		mov	sp, r7
 773              	.LCFI28:
 774              		.cfi_def_cfa_register 13
 775              		@ sp needed
 776 0044 80BD     		pop	{r7, pc}
 777              		.cfi_endproc
 778              	.LFE34:
 780 0046 00BF     		.section	.text.prvIPTimerReload,"ax",%progbits
 781              		.align	2
 782              		.thumb
 783              		.thumb_func
 785              	prvIPTimerReload:
 786              	.LFB35:
 758:../../../FreeRTOS-Plus/Source/FreeRTOS-Plus-TCP/FreeRTOS_IP.c **** /*-----------------------------------------------------------*/
 759:../../../FreeRTOS-Plus/Source/FreeRTOS-Plus-TCP/FreeRTOS_IP.c **** 
 760:../../../FreeRTOS-Plus/Source/FreeRTOS-Plus-TCP/FreeRTOS_IP.c **** static void prvIPTimerReload( IPTimer_t *pxTimer, TickType_t xTime )
 761:../../../FreeRTOS-Plus/Source/FreeRTOS-Plus-TCP/FreeRTOS_IP.c **** {
 787              		.loc 1 761 0
 788              		.cfi_startproc
 789              		@ args = 0, pretend = 0, frame = 8
 790              		@ frame_needed = 1, uses_anonymous_args = 0
 791 0000 80B5     		push	{r7, lr}
 792              	.LCFI29:
 793              		.cfi_def_cfa_offset 8
 794              		.cfi_offset 7, -8
 795              		.cfi_offset 14, -4
ARM GAS  /tmp/cc3wfdLm.s 			page 28


 796 0002 82B0     		sub	sp, sp, #8
 797              	.LCFI30:
 798              		.cfi_def_cfa_offset 16
 799 0004 00AF     		add	r7, sp, #0
 800              	.LCFI31:
 801              		.cfi_def_cfa_register 7
 802 0006 7860     		str	r0, [r7, #4]
 803 0008 3960     		str	r1, [r7]
 762:../../../FreeRTOS-Plus/Source/FreeRTOS-Plus-TCP/FreeRTOS_IP.c **** 	pxTimer->ulReloadTime = xTime;
 804              		.loc 1 762 0
 805 000a 7B68     		ldr	r3, [r7, #4]
 806 000c 3A68     		ldr	r2, [r7]
 807 000e 1A61     		str	r2, [r3, #16]
 763:../../../FreeRTOS-Plus/Source/FreeRTOS-Plus-TCP/FreeRTOS_IP.c **** 	prvIPTimerStart( pxTimer, xTime );
 808              		.loc 1 763 0
 809 0010 7868     		ldr	r0, [r7, #4]
 810 0012 3968     		ldr	r1, [r7]
 811 0014 FFF7FEFF 		bl	prvIPTimerStart
 764:../../../FreeRTOS-Plus/Source/FreeRTOS-Plus-TCP/FreeRTOS_IP.c **** }
 812              		.loc 1 764 0
 813 0018 0837     		adds	r7, r7, #8
 814              	.LCFI32:
 815              		.cfi_def_cfa_offset 8
 816 001a BD46     		mov	sp, r7
 817              	.LCFI33:
 818              		.cfi_def_cfa_register 13
 819              		@ sp needed
 820 001c 80BD     		pop	{r7, pc}
 821              		.cfi_endproc
 822              	.LFE35:
 824 001e 00BF     		.section	.text.prvIPTimerCheck,"ax",%progbits
 825              		.align	2
 826              		.thumb
 827              		.thumb_func
 829              	prvIPTimerCheck:
 830              	.LFB36:
 765:../../../FreeRTOS-Plus/Source/FreeRTOS-Plus-TCP/FreeRTOS_IP.c **** /*-----------------------------------------------------------*/
 766:../../../FreeRTOS-Plus/Source/FreeRTOS-Plus-TCP/FreeRTOS_IP.c **** 
 767:../../../FreeRTOS-Plus/Source/FreeRTOS-Plus-TCP/FreeRTOS_IP.c **** static BaseType_t prvIPTimerCheck( IPTimer_t *pxTimer )
 768:../../../FreeRTOS-Plus/Source/FreeRTOS-Plus-TCP/FreeRTOS_IP.c **** {
 831              		.loc 1 768 0
 832              		.cfi_startproc
 833              		@ args = 0, pretend = 0, frame = 16
 834              		@ frame_needed = 1, uses_anonymous_args = 0
 835 0000 80B5     		push	{r7, lr}
 836              	.LCFI34:
 837              		.cfi_def_cfa_offset 8
 838              		.cfi_offset 7, -8
 839              		.cfi_offset 14, -4
 840 0002 84B0     		sub	sp, sp, #16
 841              	.LCFI35:
 842              		.cfi_def_cfa_offset 24
 843 0004 00AF     		add	r7, sp, #0
 844              	.LCFI36:
 845              		.cfi_def_cfa_register 7
 846 0006 7860     		str	r0, [r7, #4]
 769:../../../FreeRTOS-Plus/Source/FreeRTOS-Plus-TCP/FreeRTOS_IP.c **** BaseType_t xReturn;
ARM GAS  /tmp/cc3wfdLm.s 			page 29


 770:../../../FreeRTOS-Plus/Source/FreeRTOS-Plus-TCP/FreeRTOS_IP.c **** 
 771:../../../FreeRTOS-Plus/Source/FreeRTOS-Plus-TCP/FreeRTOS_IP.c **** 	if( pxTimer->bActive == pdFALSE_UNSIGNED )
 847              		.loc 1 771 0
 848 0008 7B68     		ldr	r3, [r7, #4]
 849 000a 1B78     		ldrb	r3, [r3]	@ zero_extendqisi2
 850 000c 03F00103 		and	r3, r3, #1
 851 0010 DBB2     		uxtb	r3, r3
 852 0012 002B     		cmp	r3, #0
 853 0014 02D1     		bne	.L54
 772:../../../FreeRTOS-Plus/Source/FreeRTOS-Plus-TCP/FreeRTOS_IP.c **** 	{
 773:../../../FreeRTOS-Plus/Source/FreeRTOS-Plus-TCP/FreeRTOS_IP.c **** 		/* The timer is not enabled. */
 774:../../../FreeRTOS-Plus/Source/FreeRTOS-Plus-TCP/FreeRTOS_IP.c **** 		xReturn = pdFALSE;
 854              		.loc 1 774 0
 855 0016 0023     		movs	r3, #0
 856 0018 FB60     		str	r3, [r7, #12]
 857 001a 1CE0     		b	.L55
 858              	.L54:
 775:../../../FreeRTOS-Plus/Source/FreeRTOS-Plus-TCP/FreeRTOS_IP.c **** 	}
 776:../../../FreeRTOS-Plus/Source/FreeRTOS-Plus-TCP/FreeRTOS_IP.c **** 	else
 777:../../../FreeRTOS-Plus/Source/FreeRTOS-Plus-TCP/FreeRTOS_IP.c **** 	{
 778:../../../FreeRTOS-Plus/Source/FreeRTOS-Plus-TCP/FreeRTOS_IP.c **** 		/* The timer might have set the bExpired flag already, if not, check the
 779:../../../FreeRTOS-Plus/Source/FreeRTOS-Plus-TCP/FreeRTOS_IP.c **** 		value of xTimeOut against ulRemainingTime. */
 780:../../../FreeRTOS-Plus/Source/FreeRTOS-Plus-TCP/FreeRTOS_IP.c **** 		if( ( pxTimer->bExpired != pdFALSE_UNSIGNED ) ||
 859              		.loc 1 780 0
 860 001c 7B68     		ldr	r3, [r7, #4]
 861 001e 1B78     		ldrb	r3, [r3]	@ zero_extendqisi2
 862 0020 03F00203 		and	r3, r3, #2
 863 0024 DBB2     		uxtb	r3, r3
 864 0026 002B     		cmp	r3, #0
 865 0028 0AD1     		bne	.L56
 781:../../../FreeRTOS-Plus/Source/FreeRTOS-Plus-TCP/FreeRTOS_IP.c **** 			( xTaskCheckForTimeOut( &( pxTimer->xTimeOut ), &( pxTimer->ulRemainingTime ) ) != pdFALSE ) )
 866              		.loc 1 781 0 discriminator 1
 867 002a 7B68     		ldr	r3, [r7, #4]
 868 002c 1A1D     		adds	r2, r3, #4
 869 002e 7B68     		ldr	r3, [r7, #4]
 870 0030 0C33     		adds	r3, r3, #12
 871 0032 1046     		mov	r0, r2
 872 0034 1946     		mov	r1, r3
 873 0036 FFF7FEFF 		bl	xTaskCheckForTimeOut
 874 003a 0346     		mov	r3, r0
 780:../../../FreeRTOS-Plus/Source/FreeRTOS-Plus-TCP/FreeRTOS_IP.c **** 			( xTaskCheckForTimeOut( &( pxTimer->xTimeOut ), &( pxTimer->ulRemainingTime ) ) != pdFALSE ) )
 875              		.loc 1 780 0 discriminator 1
 876 003c 002B     		cmp	r3, #0
 877 003e 08D0     		beq	.L57
 878              	.L56:
 782:../../../FreeRTOS-Plus/Source/FreeRTOS-Plus-TCP/FreeRTOS_IP.c **** 		{
 783:../../../FreeRTOS-Plus/Source/FreeRTOS-Plus-TCP/FreeRTOS_IP.c **** 			prvIPTimerStart( pxTimer, pxTimer->ulReloadTime );
 879              		.loc 1 783 0
 880 0040 7B68     		ldr	r3, [r7, #4]
 881 0042 1B69     		ldr	r3, [r3, #16]
 882 0044 7868     		ldr	r0, [r7, #4]
 883 0046 1946     		mov	r1, r3
 884 0048 FFF7FEFF 		bl	prvIPTimerStart
 784:../../../FreeRTOS-Plus/Source/FreeRTOS-Plus-TCP/FreeRTOS_IP.c **** 			xReturn = pdTRUE;
 885              		.loc 1 784 0
 886 004c 0123     		movs	r3, #1
 887 004e FB60     		str	r3, [r7, #12]
ARM GAS  /tmp/cc3wfdLm.s 			page 30


 888 0050 01E0     		b	.L55
 889              	.L57:
 785:../../../FreeRTOS-Plus/Source/FreeRTOS-Plus-TCP/FreeRTOS_IP.c **** 		}
 786:../../../FreeRTOS-Plus/Source/FreeRTOS-Plus-TCP/FreeRTOS_IP.c **** 		else
 787:../../../FreeRTOS-Plus/Source/FreeRTOS-Plus-TCP/FreeRTOS_IP.c **** 		{
 788:../../../FreeRTOS-Plus/Source/FreeRTOS-Plus-TCP/FreeRTOS_IP.c **** 			xReturn = pdFALSE;
 890              		.loc 1 788 0
 891 0052 0023     		movs	r3, #0
 892 0054 FB60     		str	r3, [r7, #12]
 893              	.L55:
 789:../../../FreeRTOS-Plus/Source/FreeRTOS-Plus-TCP/FreeRTOS_IP.c **** 		}
 790:../../../FreeRTOS-Plus/Source/FreeRTOS-Plus-TCP/FreeRTOS_IP.c **** 	}
 791:../../../FreeRTOS-Plus/Source/FreeRTOS-Plus-TCP/FreeRTOS_IP.c **** 
 792:../../../FreeRTOS-Plus/Source/FreeRTOS-Plus-TCP/FreeRTOS_IP.c **** 	return xReturn;
 894              		.loc 1 792 0
 895 0056 FB68     		ldr	r3, [r7, #12]
 793:../../../FreeRTOS-Plus/Source/FreeRTOS-Plus-TCP/FreeRTOS_IP.c **** }
 896              		.loc 1 793 0
 897 0058 1846     		mov	r0, r3
 898 005a 1037     		adds	r7, r7, #16
 899              	.LCFI37:
 900              		.cfi_def_cfa_offset 8
 901 005c BD46     		mov	sp, r7
 902              	.LCFI38:
 903              		.cfi_def_cfa_register 13
 904              		@ sp needed
 905 005e 80BD     		pop	{r7, pc}
 906              		.cfi_endproc
 907              	.LFE36:
 909              		.section	.text.FreeRTOS_NetworkDown,"ax",%progbits
 910              		.align	2
 911              		.global	FreeRTOS_NetworkDown
 912              		.thumb
 913              		.thumb_func
 915              	FreeRTOS_NetworkDown:
 916              	.LFB37:
 794:../../../FreeRTOS-Plus/Source/FreeRTOS-Plus-TCP/FreeRTOS_IP.c **** /*-----------------------------------------------------------*/
 795:../../../FreeRTOS-Plus/Source/FreeRTOS-Plus-TCP/FreeRTOS_IP.c **** 
 796:../../../FreeRTOS-Plus/Source/FreeRTOS-Plus-TCP/FreeRTOS_IP.c **** void FreeRTOS_NetworkDown( void )
 797:../../../FreeRTOS-Plus/Source/FreeRTOS-Plus-TCP/FreeRTOS_IP.c **** {
 917              		.loc 1 797 0
 918              		.cfi_startproc
 919              		@ args = 0, pretend = 0, frame = 8
 920              		@ frame_needed = 1, uses_anonymous_args = 0
 921 0000 80B5     		push	{r7, lr}
 922              	.LCFI39:
 923              		.cfi_def_cfa_offset 8
 924              		.cfi_offset 7, -8
 925              		.cfi_offset 14, -4
 926 0002 82B0     		sub	sp, sp, #8
 927              	.LCFI40:
 928              		.cfi_def_cfa_offset 16
 929 0004 00AF     		add	r7, sp, #0
 930              	.LCFI41:
 931              		.cfi_def_cfa_register 7
 798:../../../FreeRTOS-Plus/Source/FreeRTOS-Plus-TCP/FreeRTOS_IP.c **** static const IPStackEvent_t xNetworkDownEvent = { eNetworkDownEvent, NULL };
 799:../../../FreeRTOS-Plus/Source/FreeRTOS-Plus-TCP/FreeRTOS_IP.c **** const TickType_t xDontBlock = ( TickType_t ) 0;
ARM GAS  /tmp/cc3wfdLm.s 			page 31


 932              		.loc 1 799 0
 933 0006 0023     		movs	r3, #0
 934 0008 7B60     		str	r3, [r7, #4]
 800:../../../FreeRTOS-Plus/Source/FreeRTOS-Plus-TCP/FreeRTOS_IP.c **** 
 801:../../../FreeRTOS-Plus/Source/FreeRTOS-Plus-TCP/FreeRTOS_IP.c **** 	/* Simply send the network task the appropriate event. */
 802:../../../FreeRTOS-Plus/Source/FreeRTOS-Plus-TCP/FreeRTOS_IP.c **** 	if( xSendEventStructToIPTask( &xNetworkDownEvent, xDontBlock ) != pdPASS )
 935              		.loc 1 802 0
 936 000a 0848     		ldr	r0, .L62
 937 000c 7968     		ldr	r1, [r7, #4]
 938 000e FFF7FEFF 		bl	xSendEventStructToIPTask
 939 0012 0346     		mov	r3, r0
 940 0014 012B     		cmp	r3, #1
 941 0016 03D0     		beq	.L60
 803:../../../FreeRTOS-Plus/Source/FreeRTOS-Plus-TCP/FreeRTOS_IP.c **** 	{
 804:../../../FreeRTOS-Plus/Source/FreeRTOS-Plus-TCP/FreeRTOS_IP.c **** 		/* Could not send the message, so it is still pending. */
 805:../../../FreeRTOS-Plus/Source/FreeRTOS-Plus-TCP/FreeRTOS_IP.c **** 		xNetworkDownEventPending = pdTRUE;
 942              		.loc 1 805 0
 943 0018 054B     		ldr	r3, .L62+4
 944 001a 0122     		movs	r2, #1
 945 001c 1A60     		str	r2, [r3]
 946 001e 02E0     		b	.L59
 947              	.L60:
 806:../../../FreeRTOS-Plus/Source/FreeRTOS-Plus-TCP/FreeRTOS_IP.c **** 	}
 807:../../../FreeRTOS-Plus/Source/FreeRTOS-Plus-TCP/FreeRTOS_IP.c **** 	else
 808:../../../FreeRTOS-Plus/Source/FreeRTOS-Plus-TCP/FreeRTOS_IP.c **** 	{
 809:../../../FreeRTOS-Plus/Source/FreeRTOS-Plus-TCP/FreeRTOS_IP.c **** 		/* Message was sent so it is not pending. */
 810:../../../FreeRTOS-Plus/Source/FreeRTOS-Plus-TCP/FreeRTOS_IP.c **** 		xNetworkDownEventPending = pdFALSE;
 948              		.loc 1 810 0
 949 0020 034B     		ldr	r3, .L62+4
 950 0022 0022     		movs	r2, #0
 951 0024 1A60     		str	r2, [r3]
 952              	.L59:
 811:../../../FreeRTOS-Plus/Source/FreeRTOS-Plus-TCP/FreeRTOS_IP.c **** 	}
 812:../../../FreeRTOS-Plus/Source/FreeRTOS-Plus-TCP/FreeRTOS_IP.c **** 
 813:../../../FreeRTOS-Plus/Source/FreeRTOS-Plus-TCP/FreeRTOS_IP.c **** 	iptraceNETWORK_DOWN();
 814:../../../FreeRTOS-Plus/Source/FreeRTOS-Plus-TCP/FreeRTOS_IP.c **** }
 953              		.loc 1 814 0
 954 0026 0837     		adds	r7, r7, #8
 955              	.LCFI42:
 956              		.cfi_def_cfa_offset 8
 957 0028 BD46     		mov	sp, r7
 958              	.LCFI43:
 959              		.cfi_def_cfa_register 13
 960              		@ sp needed
 961 002a 80BD     		pop	{r7, pc}
 962              	.L63:
 963              		.align	2
 964              	.L62:
 965 002c 00000000 		.word	xNetworkDownEvent.7255
 966 0030 00000000 		.word	xNetworkDownEventPending
 967              		.cfi_endproc
 968              	.LFE37:
 970              		.section	.text.FreeRTOS_NetworkDownFromISR,"ax",%progbits
 971              		.align	2
 972              		.global	FreeRTOS_NetworkDownFromISR
 973              		.thumb
 974              		.thumb_func
ARM GAS  /tmp/cc3wfdLm.s 			page 32


 976              	FreeRTOS_NetworkDownFromISR:
 977              	.LFB38:
 815:../../../FreeRTOS-Plus/Source/FreeRTOS-Plus-TCP/FreeRTOS_IP.c **** /*-----------------------------------------------------------*/
 816:../../../FreeRTOS-Plus/Source/FreeRTOS-Plus-TCP/FreeRTOS_IP.c **** 
 817:../../../FreeRTOS-Plus/Source/FreeRTOS-Plus-TCP/FreeRTOS_IP.c **** BaseType_t FreeRTOS_NetworkDownFromISR( void )
 818:../../../FreeRTOS-Plus/Source/FreeRTOS-Plus-TCP/FreeRTOS_IP.c **** {
 978              		.loc 1 818 0
 979              		.cfi_startproc
 980              		@ args = 0, pretend = 0, frame = 8
 981              		@ frame_needed = 1, uses_anonymous_args = 0
 982 0000 80B5     		push	{r7, lr}
 983              	.LCFI44:
 984              		.cfi_def_cfa_offset 8
 985              		.cfi_offset 7, -8
 986              		.cfi_offset 14, -4
 987 0002 82B0     		sub	sp, sp, #8
 988              	.LCFI45:
 989              		.cfi_def_cfa_offset 16
 990 0004 00AF     		add	r7, sp, #0
 991              	.LCFI46:
 992              		.cfi_def_cfa_register 7
 819:../../../FreeRTOS-Plus/Source/FreeRTOS-Plus-TCP/FreeRTOS_IP.c **** static const IPStackEvent_t xNetworkDownEvent = { eNetworkDownEvent, NULL };
 820:../../../FreeRTOS-Plus/Source/FreeRTOS-Plus-TCP/FreeRTOS_IP.c **** BaseType_t xHigherPriorityTaskWoken = pdFALSE;
 993              		.loc 1 820 0
 994 0006 0023     		movs	r3, #0
 995 0008 7B60     		str	r3, [r7, #4]
 821:../../../FreeRTOS-Plus/Source/FreeRTOS-Plus-TCP/FreeRTOS_IP.c **** 
 822:../../../FreeRTOS-Plus/Source/FreeRTOS-Plus-TCP/FreeRTOS_IP.c **** 	/* Simply send the network task the appropriate event. */
 823:../../../FreeRTOS-Plus/Source/FreeRTOS-Plus-TCP/FreeRTOS_IP.c **** 	if( xQueueSendToBackFromISR( xNetworkEventQueue, &xNetworkDownEvent, &xHigherPriorityTaskWoken ) !
 996              		.loc 1 823 0
 997 000a 0C4B     		ldr	r3, .L68
 998 000c 1A68     		ldr	r2, [r3]
 999 000e 3B1D     		adds	r3, r7, #4
 1000 0010 1046     		mov	r0, r2
 1001 0012 0B49     		ldr	r1, .L68+4
 1002 0014 1A46     		mov	r2, r3
 1003 0016 0023     		movs	r3, #0
 1004 0018 FFF7FEFF 		bl	xQueueGenericSendFromISR
 1005 001c 0346     		mov	r3, r0
 1006 001e 012B     		cmp	r3, #1
 1007 0020 03D0     		beq	.L65
 824:../../../FreeRTOS-Plus/Source/FreeRTOS-Plus-TCP/FreeRTOS_IP.c **** 	{
 825:../../../FreeRTOS-Plus/Source/FreeRTOS-Plus-TCP/FreeRTOS_IP.c **** 		xNetworkDownEventPending = pdTRUE;
 1008              		.loc 1 825 0
 1009 0022 084B     		ldr	r3, .L68+8
 1010 0024 0122     		movs	r2, #1
 1011 0026 1A60     		str	r2, [r3]
 1012 0028 02E0     		b	.L66
 1013              	.L65:
 826:../../../FreeRTOS-Plus/Source/FreeRTOS-Plus-TCP/FreeRTOS_IP.c **** 	}
 827:../../../FreeRTOS-Plus/Source/FreeRTOS-Plus-TCP/FreeRTOS_IP.c **** 	else
 828:../../../FreeRTOS-Plus/Source/FreeRTOS-Plus-TCP/FreeRTOS_IP.c **** 	{
 829:../../../FreeRTOS-Plus/Source/FreeRTOS-Plus-TCP/FreeRTOS_IP.c **** 		xNetworkDownEventPending = pdFALSE;
 1014              		.loc 1 829 0
 1015 002a 064B     		ldr	r3, .L68+8
 1016 002c 0022     		movs	r2, #0
 1017 002e 1A60     		str	r2, [r3]
ARM GAS  /tmp/cc3wfdLm.s 			page 33


 1018              	.L66:
 830:../../../FreeRTOS-Plus/Source/FreeRTOS-Plus-TCP/FreeRTOS_IP.c **** 	}
 831:../../../FreeRTOS-Plus/Source/FreeRTOS-Plus-TCP/FreeRTOS_IP.c **** 
 832:../../../FreeRTOS-Plus/Source/FreeRTOS-Plus-TCP/FreeRTOS_IP.c **** 	iptraceNETWORK_DOWN();
 833:../../../FreeRTOS-Plus/Source/FreeRTOS-Plus-TCP/FreeRTOS_IP.c **** 
 834:../../../FreeRTOS-Plus/Source/FreeRTOS-Plus-TCP/FreeRTOS_IP.c **** 	return xHigherPriorityTaskWoken;
 1019              		.loc 1 834 0
 1020 0030 7B68     		ldr	r3, [r7, #4]
 835:../../../FreeRTOS-Plus/Source/FreeRTOS-Plus-TCP/FreeRTOS_IP.c **** }
 1021              		.loc 1 835 0
 1022 0032 1846     		mov	r0, r3
 1023 0034 0837     		adds	r7, r7, #8
 1024              	.LCFI47:
 1025              		.cfi_def_cfa_offset 8
 1026 0036 BD46     		mov	sp, r7
 1027              	.LCFI48:
 1028              		.cfi_def_cfa_register 13
 1029              		@ sp needed
 1030 0038 80BD     		pop	{r7, pc}
 1031              	.L69:
 1032 003a 00BF     		.align	2
 1033              	.L68:
 1034 003c 00000000 		.word	xNetworkEventQueue
 1035 0040 00000000 		.word	xNetworkDownEvent.7260
 1036 0044 00000000 		.word	xNetworkDownEventPending
 1037              		.cfi_endproc
 1038              	.LFE38:
 1040              		.section	.text.FreeRTOS_GetUDPPayloadBuffer,"ax",%progbits
 1041              		.align	2
 1042              		.global	FreeRTOS_GetUDPPayloadBuffer
 1043              		.thumb
 1044              		.thumb_func
 1046              	FreeRTOS_GetUDPPayloadBuffer:
 1047              	.LFB39:
 836:../../../FreeRTOS-Plus/Source/FreeRTOS-Plus-TCP/FreeRTOS_IP.c **** /*-----------------------------------------------------------*/
 837:../../../FreeRTOS-Plus/Source/FreeRTOS-Plus-TCP/FreeRTOS_IP.c **** 
 838:../../../FreeRTOS-Plus/Source/FreeRTOS-Plus-TCP/FreeRTOS_IP.c **** void *FreeRTOS_GetUDPPayloadBuffer( size_t xRequestedSizeBytes, TickType_t xBlockTimeTicks )
 839:../../../FreeRTOS-Plus/Source/FreeRTOS-Plus-TCP/FreeRTOS_IP.c **** {
 1048              		.loc 1 839 0
 1049              		.cfi_startproc
 1050              		@ args = 0, pretend = 0, frame = 16
 1051              		@ frame_needed = 1, uses_anonymous_args = 0
 1052 0000 80B5     		push	{r7, lr}
 1053              	.LCFI49:
 1054              		.cfi_def_cfa_offset 8
 1055              		.cfi_offset 7, -8
 1056              		.cfi_offset 14, -4
 1057 0002 84B0     		sub	sp, sp, #16
 1058              	.LCFI50:
 1059              		.cfi_def_cfa_offset 24
 1060 0004 00AF     		add	r7, sp, #0
 1061              	.LCFI51:
 1062              		.cfi_def_cfa_register 7
 1063 0006 7860     		str	r0, [r7, #4]
 1064 0008 3960     		str	r1, [r7]
 840:../../../FreeRTOS-Plus/Source/FreeRTOS-Plus-TCP/FreeRTOS_IP.c **** NetworkBufferDescriptor_t *pxNetworkBuffer;
 841:../../../FreeRTOS-Plus/Source/FreeRTOS-Plus-TCP/FreeRTOS_IP.c **** void *pvReturn;
ARM GAS  /tmp/cc3wfdLm.s 			page 34


 842:../../../FreeRTOS-Plus/Source/FreeRTOS-Plus-TCP/FreeRTOS_IP.c **** 
 843:../../../FreeRTOS-Plus/Source/FreeRTOS-Plus-TCP/FreeRTOS_IP.c **** 	/* Cap the block time.  The reason for this is explained where
 844:../../../FreeRTOS-Plus/Source/FreeRTOS-Plus-TCP/FreeRTOS_IP.c **** 	ipconfigUDP_MAX_SEND_BLOCK_TIME_TICKS is defined (assuming an official
 845:../../../FreeRTOS-Plus/Source/FreeRTOS-Plus-TCP/FreeRTOS_IP.c **** 	FreeRTOSIPConfig.h header file is being used). */
 846:../../../FreeRTOS-Plus/Source/FreeRTOS-Plus-TCP/FreeRTOS_IP.c **** 	if( xBlockTimeTicks > ipconfigUDP_MAX_SEND_BLOCK_TIME_TICKS )
 1065              		.loc 1 846 0
 1066 000a 3B68     		ldr	r3, [r7]
 1067 000c 41F28832 		movw	r2, #5000
 1068 0010 9342     		cmp	r3, r2
 1069 0012 02D9     		bls	.L71
 847:../../../FreeRTOS-Plus/Source/FreeRTOS-Plus-TCP/FreeRTOS_IP.c **** 	{
 848:../../../FreeRTOS-Plus/Source/FreeRTOS-Plus-TCP/FreeRTOS_IP.c **** 		xBlockTimeTicks = ipconfigUDP_MAX_SEND_BLOCK_TIME_TICKS;
 1070              		.loc 1 848 0
 1071 0014 41F28833 		movw	r3, #5000
 1072 0018 3B60     		str	r3, [r7]
 1073              	.L71:
 849:../../../FreeRTOS-Plus/Source/FreeRTOS-Plus-TCP/FreeRTOS_IP.c **** 	}
 850:../../../FreeRTOS-Plus/Source/FreeRTOS-Plus-TCP/FreeRTOS_IP.c **** 
 851:../../../FreeRTOS-Plus/Source/FreeRTOS-Plus-TCP/FreeRTOS_IP.c **** 	/* Obtain a network buffer with the required amount of storage. */
 852:../../../FreeRTOS-Plus/Source/FreeRTOS-Plus-TCP/FreeRTOS_IP.c **** 	pxNetworkBuffer = pxGetNetworkBufferWithDescriptor( sizeof( UDPPacket_t ) + xRequestedSizeBytes, x
 1074              		.loc 1 852 0
 1075 001a 7B68     		ldr	r3, [r7, #4]
 1076 001c 2A33     		adds	r3, r3, #42
 1077 001e 1846     		mov	r0, r3
 1078 0020 3968     		ldr	r1, [r7]
 1079 0022 FFF7FEFF 		bl	pxGetNetworkBufferWithDescriptor
 1080 0026 B860     		str	r0, [r7, #8]
 853:../../../FreeRTOS-Plus/Source/FreeRTOS-Plus-TCP/FreeRTOS_IP.c **** 
 854:../../../FreeRTOS-Plus/Source/FreeRTOS-Plus-TCP/FreeRTOS_IP.c **** 	if( pxNetworkBuffer != NULL )
 1081              		.loc 1 854 0
 1082 0028 BB68     		ldr	r3, [r7, #8]
 1083 002a 002B     		cmp	r3, #0
 1084 002c 04D0     		beq	.L72
 855:../../../FreeRTOS-Plus/Source/FreeRTOS-Plus-TCP/FreeRTOS_IP.c **** 	{
 856:../../../FreeRTOS-Plus/Source/FreeRTOS-Plus-TCP/FreeRTOS_IP.c **** 		/* Leave space for the UPD header. */
 857:../../../FreeRTOS-Plus/Source/FreeRTOS-Plus-TCP/FreeRTOS_IP.c **** 		pvReturn = ( void * ) &( pxNetworkBuffer->pucEthernetBuffer[ ipUDP_PAYLOAD_OFFSET_IPv4 ] );
 1085              		.loc 1 857 0
 1086 002e BB68     		ldr	r3, [r7, #8]
 1087 0030 9B69     		ldr	r3, [r3, #24]
 1088 0032 2A33     		adds	r3, r3, #42
 1089 0034 FB60     		str	r3, [r7, #12]
 1090 0036 01E0     		b	.L73
 1091              	.L72:
 858:../../../FreeRTOS-Plus/Source/FreeRTOS-Plus-TCP/FreeRTOS_IP.c **** 	}
 859:../../../FreeRTOS-Plus/Source/FreeRTOS-Plus-TCP/FreeRTOS_IP.c **** 	else
 860:../../../FreeRTOS-Plus/Source/FreeRTOS-Plus-TCP/FreeRTOS_IP.c **** 	{
 861:../../../FreeRTOS-Plus/Source/FreeRTOS-Plus-TCP/FreeRTOS_IP.c **** 		pvReturn = NULL;
 1092              		.loc 1 861 0
 1093 0038 0023     		movs	r3, #0
 1094 003a FB60     		str	r3, [r7, #12]
 1095              	.L73:
 862:../../../FreeRTOS-Plus/Source/FreeRTOS-Plus-TCP/FreeRTOS_IP.c **** 	}
 863:../../../FreeRTOS-Plus/Source/FreeRTOS-Plus-TCP/FreeRTOS_IP.c **** 
 864:../../../FreeRTOS-Plus/Source/FreeRTOS-Plus-TCP/FreeRTOS_IP.c **** 	return ( void * ) pvReturn;
 1096              		.loc 1 864 0
 1097 003c FB68     		ldr	r3, [r7, #12]
 865:../../../FreeRTOS-Plus/Source/FreeRTOS-Plus-TCP/FreeRTOS_IP.c **** }
ARM GAS  /tmp/cc3wfdLm.s 			page 35


 1098              		.loc 1 865 0
 1099 003e 1846     		mov	r0, r3
 1100 0040 1037     		adds	r7, r7, #16
 1101              	.LCFI52:
 1102              		.cfi_def_cfa_offset 8
 1103 0042 BD46     		mov	sp, r7
 1104              	.LCFI53:
 1105              		.cfi_def_cfa_register 13
 1106              		@ sp needed
 1107 0044 80BD     		pop	{r7, pc}
 1108              		.cfi_endproc
 1109              	.LFE39:
 1111 0046 00BF     		.section	.text.pxDuplicateNetworkBufferWithDescriptor,"ax",%progbits
 1112              		.align	2
 1113              		.global	pxDuplicateNetworkBufferWithDescriptor
 1114              		.thumb
 1115              		.thumb_func
 1117              	pxDuplicateNetworkBufferWithDescriptor:
 1118              	.LFB40:
 866:../../../FreeRTOS-Plus/Source/FreeRTOS-Plus-TCP/FreeRTOS_IP.c **** /*-----------------------------------------------------------*/
 867:../../../FreeRTOS-Plus/Source/FreeRTOS-Plus-TCP/FreeRTOS_IP.c **** 
 868:../../../FreeRTOS-Plus/Source/FreeRTOS-Plus-TCP/FreeRTOS_IP.c **** NetworkBufferDescriptor_t *pxDuplicateNetworkBufferWithDescriptor( NetworkBufferDescriptor_t * cons
 869:../../../FreeRTOS-Plus/Source/FreeRTOS-Plus-TCP/FreeRTOS_IP.c **** 	BaseType_t xNewLength )
 870:../../../FreeRTOS-Plus/Source/FreeRTOS-Plus-TCP/FreeRTOS_IP.c **** {
 1119              		.loc 1 870 0
 1120              		.cfi_startproc
 1121              		@ args = 0, pretend = 0, frame = 16
 1122              		@ frame_needed = 1, uses_anonymous_args = 0
 1123 0000 80B5     		push	{r7, lr}
 1124              	.LCFI54:
 1125              		.cfi_def_cfa_offset 8
 1126              		.cfi_offset 7, -8
 1127              		.cfi_offset 14, -4
 1128 0002 84B0     		sub	sp, sp, #16
 1129              	.LCFI55:
 1130              		.cfi_def_cfa_offset 24
 1131 0004 00AF     		add	r7, sp, #0
 1132              	.LCFI56:
 1133              		.cfi_def_cfa_register 7
 1134 0006 7860     		str	r0, [r7, #4]
 1135 0008 3960     		str	r1, [r7]
 871:../../../FreeRTOS-Plus/Source/FreeRTOS-Plus-TCP/FreeRTOS_IP.c **** NetworkBufferDescriptor_t * pxNewBuffer;
 872:../../../FreeRTOS-Plus/Source/FreeRTOS-Plus-TCP/FreeRTOS_IP.c **** 
 873:../../../FreeRTOS-Plus/Source/FreeRTOS-Plus-TCP/FreeRTOS_IP.c **** 	/* This function is only used when 'ipconfigZERO_COPY_TX_DRIVER' is set to 1.
 874:../../../FreeRTOS-Plus/Source/FreeRTOS-Plus-TCP/FreeRTOS_IP.c **** 	The transmit routine wants to have ownership of the network buffer
 875:../../../FreeRTOS-Plus/Source/FreeRTOS-Plus-TCP/FreeRTOS_IP.c **** 	descriptor, because it will pass the buffer straight to DMA. */
 876:../../../FreeRTOS-Plus/Source/FreeRTOS-Plus-TCP/FreeRTOS_IP.c **** 	pxNewBuffer = pxGetNetworkBufferWithDescriptor( ( size_t ) xNewLength, ( TickType_t ) 0 );
 1136              		.loc 1 876 0
 1137 000a 3B68     		ldr	r3, [r7]
 1138 000c 1846     		mov	r0, r3
 1139 000e 0021     		movs	r1, #0
 1140 0010 FFF7FEFF 		bl	pxGetNetworkBufferWithDescriptor
 1141 0014 F860     		str	r0, [r7, #12]
 877:../../../FreeRTOS-Plus/Source/FreeRTOS-Plus-TCP/FreeRTOS_IP.c **** 
 878:../../../FreeRTOS-Plus/Source/FreeRTOS-Plus-TCP/FreeRTOS_IP.c **** 	if( pxNewBuffer != NULL )
 1142              		.loc 1 878 0
 1143 0016 FB68     		ldr	r3, [r7, #12]
ARM GAS  /tmp/cc3wfdLm.s 			page 36


 1144 0018 002B     		cmp	r3, #0
 1145 001a 16D0     		beq	.L76
 879:../../../FreeRTOS-Plus/Source/FreeRTOS-Plus-TCP/FreeRTOS_IP.c **** 	{
 880:../../../FreeRTOS-Plus/Source/FreeRTOS-Plus-TCP/FreeRTOS_IP.c **** 		pxNewBuffer->ulIPAddress = pxNetworkBuffer->ulIPAddress;
 1146              		.loc 1 880 0
 1147 001c 7B68     		ldr	r3, [r7, #4]
 1148 001e 5A69     		ldr	r2, [r3, #20]
 1149 0020 FB68     		ldr	r3, [r7, #12]
 1150 0022 5A61     		str	r2, [r3, #20]
 881:../../../FreeRTOS-Plus/Source/FreeRTOS-Plus-TCP/FreeRTOS_IP.c **** 		pxNewBuffer->usPort = pxNetworkBuffer->usPort;
 1151              		.loc 1 881 0
 1152 0024 7B68     		ldr	r3, [r7, #4]
 1153 0026 1A8C     		ldrh	r2, [r3, #32]
 1154 0028 FB68     		ldr	r3, [r7, #12]
 1155 002a 1A84     		strh	r2, [r3, #32]	@ movhi
 882:../../../FreeRTOS-Plus/Source/FreeRTOS-Plus-TCP/FreeRTOS_IP.c **** 		pxNewBuffer->usBoundPort = pxNetworkBuffer->usBoundPort;
 1156              		.loc 1 882 0
 1157 002c 7B68     		ldr	r3, [r7, #4]
 1158 002e 5A8C     		ldrh	r2, [r3, #34]
 1159 0030 FB68     		ldr	r3, [r7, #12]
 1160 0032 5A84     		strh	r2, [r3, #34]	@ movhi
 883:../../../FreeRTOS-Plus/Source/FreeRTOS-Plus-TCP/FreeRTOS_IP.c **** 		memcpy( pxNewBuffer->pucEthernetBuffer, pxNetworkBuffer->pucEthernetBuffer, pxNetworkBuffer->xDat
 1161              		.loc 1 883 0
 1162 0034 FB68     		ldr	r3, [r7, #12]
 1163 0036 9969     		ldr	r1, [r3, #24]
 1164 0038 7B68     		ldr	r3, [r7, #4]
 1165 003a 9A69     		ldr	r2, [r3, #24]
 1166 003c 7B68     		ldr	r3, [r7, #4]
 1167 003e DB69     		ldr	r3, [r3, #28]
 1168 0040 0846     		mov	r0, r1
 1169 0042 1146     		mov	r1, r2
 1170 0044 1A46     		mov	r2, r3
 1171 0046 FFF7FEFF 		bl	memcpy
 1172              	.L76:
 884:../../../FreeRTOS-Plus/Source/FreeRTOS-Plus-TCP/FreeRTOS_IP.c **** 	}
 885:../../../FreeRTOS-Plus/Source/FreeRTOS-Plus-TCP/FreeRTOS_IP.c **** 
 886:../../../FreeRTOS-Plus/Source/FreeRTOS-Plus-TCP/FreeRTOS_IP.c **** 	return pxNewBuffer;
 1173              		.loc 1 886 0
 1174 004a FB68     		ldr	r3, [r7, #12]
 887:../../../FreeRTOS-Plus/Source/FreeRTOS-Plus-TCP/FreeRTOS_IP.c **** }
 1175              		.loc 1 887 0
 1176 004c 1846     		mov	r0, r3
 1177 004e 1037     		adds	r7, r7, #16
 1178              	.LCFI57:
 1179              		.cfi_def_cfa_offset 8
 1180 0050 BD46     		mov	sp, r7
 1181              	.LCFI58:
 1182              		.cfi_def_cfa_register 13
 1183              		@ sp needed
 1184 0052 80BD     		pop	{r7, pc}
 1185              		.cfi_endproc
 1186              	.LFE40:
 1188              		.section	.text.pxPacketBuffer_to_NetworkBuffer,"ax",%progbits
 1189              		.align	2
 1190              		.global	pxPacketBuffer_to_NetworkBuffer
 1191              		.thumb
 1192              		.thumb_func
ARM GAS  /tmp/cc3wfdLm.s 			page 37


 1194              	pxPacketBuffer_to_NetworkBuffer:
 1195              	.LFB41:
 888:../../../FreeRTOS-Plus/Source/FreeRTOS-Plus-TCP/FreeRTOS_IP.c **** /*-----------------------------------------------------------*/
 889:../../../FreeRTOS-Plus/Source/FreeRTOS-Plus-TCP/FreeRTOS_IP.c **** 
 890:../../../FreeRTOS-Plus/Source/FreeRTOS-Plus-TCP/FreeRTOS_IP.c **** #if( ipconfigZERO_COPY_TX_DRIVER != 0 ) || ( ipconfigZERO_COPY_RX_DRIVER != 0 )
 891:../../../FreeRTOS-Plus/Source/FreeRTOS-Plus-TCP/FreeRTOS_IP.c **** 
 892:../../../FreeRTOS-Plus/Source/FreeRTOS-Plus-TCP/FreeRTOS_IP.c **** 	NetworkBufferDescriptor_t *pxPacketBuffer_to_NetworkBuffer( void *pvBuffer )
 893:../../../FreeRTOS-Plus/Source/FreeRTOS-Plus-TCP/FreeRTOS_IP.c **** 	{
 1196              		.loc 1 893 0
 1197              		.cfi_startproc
 1198              		@ args = 0, pretend = 0, frame = 16
 1199              		@ frame_needed = 1, uses_anonymous_args = 0
 1200              		@ link register save eliminated.
 1201 0000 80B4     		push	{r7}
 1202              	.LCFI59:
 1203              		.cfi_def_cfa_offset 4
 1204              		.cfi_offset 7, -4
 1205 0002 85B0     		sub	sp, sp, #20
 1206              	.LCFI60:
 1207              		.cfi_def_cfa_offset 24
 1208 0004 00AF     		add	r7, sp, #0
 1209              	.LCFI61:
 1210              		.cfi_def_cfa_register 7
 1211 0006 7860     		str	r0, [r7, #4]
 894:../../../FreeRTOS-Plus/Source/FreeRTOS-Plus-TCP/FreeRTOS_IP.c **** 	uint8_t *pucBuffer;
 895:../../../FreeRTOS-Plus/Source/FreeRTOS-Plus-TCP/FreeRTOS_IP.c **** 	NetworkBufferDescriptor_t *pxResult;
 896:../../../FreeRTOS-Plus/Source/FreeRTOS-Plus-TCP/FreeRTOS_IP.c **** 
 897:../../../FreeRTOS-Plus/Source/FreeRTOS-Plus-TCP/FreeRTOS_IP.c **** 		if( pvBuffer == NULL )
 1212              		.loc 1 897 0
 1213 0008 7B68     		ldr	r3, [r7, #4]
 1214 000a 002B     		cmp	r3, #0
 1215 000c 02D1     		bne	.L79
 898:../../../FreeRTOS-Plus/Source/FreeRTOS-Plus-TCP/FreeRTOS_IP.c **** 		{
 899:../../../FreeRTOS-Plus/Source/FreeRTOS-Plus-TCP/FreeRTOS_IP.c **** 			pxResult = NULL;
 1216              		.loc 1 899 0
 1217 000e 0023     		movs	r3, #0
 1218 0010 FB60     		str	r3, [r7, #12]
 1219 0012 0FE0     		b	.L80
 1220              	.L79:
 900:../../../FreeRTOS-Plus/Source/FreeRTOS-Plus-TCP/FreeRTOS_IP.c **** 		}
 901:../../../FreeRTOS-Plus/Source/FreeRTOS-Plus-TCP/FreeRTOS_IP.c **** 		else
 902:../../../FreeRTOS-Plus/Source/FreeRTOS-Plus-TCP/FreeRTOS_IP.c **** 		{
 903:../../../FreeRTOS-Plus/Source/FreeRTOS-Plus-TCP/FreeRTOS_IP.c **** 			/* Obtain the network buffer from the zero copy pointer. */
 904:../../../FreeRTOS-Plus/Source/FreeRTOS-Plus-TCP/FreeRTOS_IP.c **** 			pucBuffer = ( uint8_t * ) pvBuffer;
 1221              		.loc 1 904 0
 1222 0014 7B68     		ldr	r3, [r7, #4]
 1223 0016 BB60     		str	r3, [r7, #8]
 905:../../../FreeRTOS-Plus/Source/FreeRTOS-Plus-TCP/FreeRTOS_IP.c **** 
 906:../../../FreeRTOS-Plus/Source/FreeRTOS-Plus-TCP/FreeRTOS_IP.c **** 			/* The input here is a pointer to a payload buffer.  Subtract the
 907:../../../FreeRTOS-Plus/Source/FreeRTOS-Plus-TCP/FreeRTOS_IP.c **** 			size of the header in the network buffer, usually 8 + 2 bytes. */
 908:../../../FreeRTOS-Plus/Source/FreeRTOS-Plus-TCP/FreeRTOS_IP.c **** 			pucBuffer -= ipBUFFER_PADDING;
 1224              		.loc 1 908 0
 1225 0018 BB68     		ldr	r3, [r7, #8]
 1226 001a 0A3B     		subs	r3, r3, #10
 1227 001c BB60     		str	r3, [r7, #8]
 909:../../../FreeRTOS-Plus/Source/FreeRTOS-Plus-TCP/FreeRTOS_IP.c **** 
 910:../../../FreeRTOS-Plus/Source/FreeRTOS-Plus-TCP/FreeRTOS_IP.c **** 			/* Here a pointer was placed to the network descriptor.  As a
ARM GAS  /tmp/cc3wfdLm.s 			page 38


 911:../../../FreeRTOS-Plus/Source/FreeRTOS-Plus-TCP/FreeRTOS_IP.c **** 			pointer is dereferenced, make sure it is well aligned. */
 912:../../../FreeRTOS-Plus/Source/FreeRTOS-Plus-TCP/FreeRTOS_IP.c **** 			if( ( ( ( uint32_t ) pucBuffer ) & ( sizeof( pucBuffer ) - ( size_t ) 1 ) ) == ( uint32_t ) 0 )
 1228              		.loc 1 912 0
 1229 001e BB68     		ldr	r3, [r7, #8]
 1230 0020 03F00303 		and	r3, r3, #3
 1231 0024 002B     		cmp	r3, #0
 1232 0026 03D1     		bne	.L81
 913:../../../FreeRTOS-Plus/Source/FreeRTOS-Plus-TCP/FreeRTOS_IP.c **** 			{
 914:../../../FreeRTOS-Plus/Source/FreeRTOS-Plus-TCP/FreeRTOS_IP.c **** 				pxResult = * ( ( NetworkBufferDescriptor_t ** ) pucBuffer );
 1233              		.loc 1 914 0
 1234 0028 BB68     		ldr	r3, [r7, #8]
 1235 002a 1B68     		ldr	r3, [r3]
 1236 002c FB60     		str	r3, [r7, #12]
 1237 002e 01E0     		b	.L80
 1238              	.L81:
 915:../../../FreeRTOS-Plus/Source/FreeRTOS-Plus-TCP/FreeRTOS_IP.c **** 			}
 916:../../../FreeRTOS-Plus/Source/FreeRTOS-Plus-TCP/FreeRTOS_IP.c **** 			else
 917:../../../FreeRTOS-Plus/Source/FreeRTOS-Plus-TCP/FreeRTOS_IP.c **** 			{
 918:../../../FreeRTOS-Plus/Source/FreeRTOS-Plus-TCP/FreeRTOS_IP.c **** 				pxResult = NULL;
 1239              		.loc 1 918 0
 1240 0030 0023     		movs	r3, #0
 1241 0032 FB60     		str	r3, [r7, #12]
 1242              	.L80:
 919:../../../FreeRTOS-Plus/Source/FreeRTOS-Plus-TCP/FreeRTOS_IP.c **** 			}
 920:../../../FreeRTOS-Plus/Source/FreeRTOS-Plus-TCP/FreeRTOS_IP.c **** 		}
 921:../../../FreeRTOS-Plus/Source/FreeRTOS-Plus-TCP/FreeRTOS_IP.c **** 
 922:../../../FreeRTOS-Plus/Source/FreeRTOS-Plus-TCP/FreeRTOS_IP.c **** 		return pxResult;
 1243              		.loc 1 922 0
 1244 0034 FB68     		ldr	r3, [r7, #12]
 923:../../../FreeRTOS-Plus/Source/FreeRTOS-Plus-TCP/FreeRTOS_IP.c **** 	}
 1245              		.loc 1 923 0
 1246 0036 1846     		mov	r0, r3
 1247 0038 1437     		adds	r7, r7, #20
 1248              	.LCFI62:
 1249              		.cfi_def_cfa_offset 4
 1250 003a BD46     		mov	sp, r7
 1251              	.LCFI63:
 1252              		.cfi_def_cfa_register 13
 1253              		@ sp needed
 1254 003c 5DF8047B 		ldr	r7, [sp], #4
 1255              	.LCFI64:
 1256              		.cfi_restore 7
 1257              		.cfi_def_cfa_offset 0
 1258 0040 7047     		bx	lr
 1259              		.cfi_endproc
 1260              	.LFE41:
 1262 0042 00BF     		.section	.text.pxUDPPayloadBuffer_to_NetworkBuffer,"ax",%progbits
 1263              		.align	2
 1264              		.global	pxUDPPayloadBuffer_to_NetworkBuffer
 1265              		.thumb
 1266              		.thumb_func
 1268              	pxUDPPayloadBuffer_to_NetworkBuffer:
 1269              	.LFB42:
 924:../../../FreeRTOS-Plus/Source/FreeRTOS-Plus-TCP/FreeRTOS_IP.c **** 
 925:../../../FreeRTOS-Plus/Source/FreeRTOS-Plus-TCP/FreeRTOS_IP.c **** #endif /* ipconfigZERO_COPY_TX_DRIVER != 0 */
 926:../../../FreeRTOS-Plus/Source/FreeRTOS-Plus-TCP/FreeRTOS_IP.c **** /*-----------------------------------------------------------*/
 927:../../../FreeRTOS-Plus/Source/FreeRTOS-Plus-TCP/FreeRTOS_IP.c **** 
ARM GAS  /tmp/cc3wfdLm.s 			page 39


 928:../../../FreeRTOS-Plus/Source/FreeRTOS-Plus-TCP/FreeRTOS_IP.c **** NetworkBufferDescriptor_t *pxUDPPayloadBuffer_to_NetworkBuffer( void *pvBuffer )
 929:../../../FreeRTOS-Plus/Source/FreeRTOS-Plus-TCP/FreeRTOS_IP.c **** {
 1270              		.loc 1 929 0
 1271              		.cfi_startproc
 1272              		@ args = 0, pretend = 0, frame = 16
 1273              		@ frame_needed = 1, uses_anonymous_args = 0
 1274              		@ link register save eliminated.
 1275 0000 80B4     		push	{r7}
 1276              	.LCFI65:
 1277              		.cfi_def_cfa_offset 4
 1278              		.cfi_offset 7, -4
 1279 0002 85B0     		sub	sp, sp, #20
 1280              	.LCFI66:
 1281              		.cfi_def_cfa_offset 24
 1282 0004 00AF     		add	r7, sp, #0
 1283              	.LCFI67:
 1284              		.cfi_def_cfa_register 7
 1285 0006 7860     		str	r0, [r7, #4]
 930:../../../FreeRTOS-Plus/Source/FreeRTOS-Plus-TCP/FreeRTOS_IP.c **** uint8_t *pucBuffer;
 931:../../../FreeRTOS-Plus/Source/FreeRTOS-Plus-TCP/FreeRTOS_IP.c **** NetworkBufferDescriptor_t *pxResult;
 932:../../../FreeRTOS-Plus/Source/FreeRTOS-Plus-TCP/FreeRTOS_IP.c **** 
 933:../../../FreeRTOS-Plus/Source/FreeRTOS-Plus-TCP/FreeRTOS_IP.c **** 	if( pvBuffer == NULL )
 1286              		.loc 1 933 0
 1287 0008 7B68     		ldr	r3, [r7, #4]
 1288 000a 002B     		cmp	r3, #0
 1289 000c 02D1     		bne	.L84
 934:../../../FreeRTOS-Plus/Source/FreeRTOS-Plus-TCP/FreeRTOS_IP.c **** 	{
 935:../../../FreeRTOS-Plus/Source/FreeRTOS-Plus-TCP/FreeRTOS_IP.c **** 		pxResult = NULL;
 1290              		.loc 1 935 0
 1291 000e 0023     		movs	r3, #0
 1292 0010 FB60     		str	r3, [r7, #12]
 1293 0012 0FE0     		b	.L85
 1294              	.L84:
 936:../../../FreeRTOS-Plus/Source/FreeRTOS-Plus-TCP/FreeRTOS_IP.c **** 	}
 937:../../../FreeRTOS-Plus/Source/FreeRTOS-Plus-TCP/FreeRTOS_IP.c **** 	else
 938:../../../FreeRTOS-Plus/Source/FreeRTOS-Plus-TCP/FreeRTOS_IP.c **** 	{
 939:../../../FreeRTOS-Plus/Source/FreeRTOS-Plus-TCP/FreeRTOS_IP.c **** 		/* Obtain the network buffer from the zero copy pointer. */
 940:../../../FreeRTOS-Plus/Source/FreeRTOS-Plus-TCP/FreeRTOS_IP.c **** 		pucBuffer = ( uint8_t * ) pvBuffer;
 1295              		.loc 1 940 0
 1296 0014 7B68     		ldr	r3, [r7, #4]
 1297 0016 BB60     		str	r3, [r7, #8]
 941:../../../FreeRTOS-Plus/Source/FreeRTOS-Plus-TCP/FreeRTOS_IP.c **** 
 942:../../../FreeRTOS-Plus/Source/FreeRTOS-Plus-TCP/FreeRTOS_IP.c **** 		/* The input here is a pointer to a payload buffer.  Subtract
 943:../../../FreeRTOS-Plus/Source/FreeRTOS-Plus-TCP/FreeRTOS_IP.c **** 		the total size of a UDP/IP header plus the size of the header in
 944:../../../FreeRTOS-Plus/Source/FreeRTOS-Plus-TCP/FreeRTOS_IP.c **** 		the network buffer, usually 8 + 2 bytes. */
 945:../../../FreeRTOS-Plus/Source/FreeRTOS-Plus-TCP/FreeRTOS_IP.c **** 		pucBuffer -= ( sizeof( UDPPacket_t ) + ipBUFFER_PADDING );
 1298              		.loc 1 945 0
 1299 0018 BB68     		ldr	r3, [r7, #8]
 1300 001a 343B     		subs	r3, r3, #52
 1301 001c BB60     		str	r3, [r7, #8]
 946:../../../FreeRTOS-Plus/Source/FreeRTOS-Plus-TCP/FreeRTOS_IP.c **** 
 947:../../../FreeRTOS-Plus/Source/FreeRTOS-Plus-TCP/FreeRTOS_IP.c **** 		/* Here a pointer was placed to the network descriptor,
 948:../../../FreeRTOS-Plus/Source/FreeRTOS-Plus-TCP/FreeRTOS_IP.c **** 		As a pointer is dereferenced, make sure it is well aligned */
 949:../../../FreeRTOS-Plus/Source/FreeRTOS-Plus-TCP/FreeRTOS_IP.c **** 		if( ( ( ( uint32_t ) pucBuffer ) & ( sizeof( pucBuffer ) - 1 ) ) == 0 )
 1302              		.loc 1 949 0
 1303 001e BB68     		ldr	r3, [r7, #8]
 1304 0020 03F00303 		and	r3, r3, #3
ARM GAS  /tmp/cc3wfdLm.s 			page 40


 1305 0024 002B     		cmp	r3, #0
 1306 0026 03D1     		bne	.L86
 950:../../../FreeRTOS-Plus/Source/FreeRTOS-Plus-TCP/FreeRTOS_IP.c **** 		{
 951:../../../FreeRTOS-Plus/Source/FreeRTOS-Plus-TCP/FreeRTOS_IP.c **** 			/* The following statement may trigger a:
 952:../../../FreeRTOS-Plus/Source/FreeRTOS-Plus-TCP/FreeRTOS_IP.c **** 			warning: cast increases required alignment of target type [-Wcast-align].
 953:../../../FreeRTOS-Plus/Source/FreeRTOS-Plus-TCP/FreeRTOS_IP.c **** 			It has been confirmed though that the alignment is suitable. */
 954:../../../FreeRTOS-Plus/Source/FreeRTOS-Plus-TCP/FreeRTOS_IP.c **** 			pxResult = * ( ( NetworkBufferDescriptor_t ** ) pucBuffer );
 1307              		.loc 1 954 0
 1308 0028 BB68     		ldr	r3, [r7, #8]
 1309 002a 1B68     		ldr	r3, [r3]
 1310 002c FB60     		str	r3, [r7, #12]
 1311 002e 01E0     		b	.L85
 1312              	.L86:
 955:../../../FreeRTOS-Plus/Source/FreeRTOS-Plus-TCP/FreeRTOS_IP.c **** 		}
 956:../../../FreeRTOS-Plus/Source/FreeRTOS-Plus-TCP/FreeRTOS_IP.c **** 		else
 957:../../../FreeRTOS-Plus/Source/FreeRTOS-Plus-TCP/FreeRTOS_IP.c **** 		{
 958:../../../FreeRTOS-Plus/Source/FreeRTOS-Plus-TCP/FreeRTOS_IP.c **** 			pxResult = NULL;
 1313              		.loc 1 958 0
 1314 0030 0023     		movs	r3, #0
 1315 0032 FB60     		str	r3, [r7, #12]
 1316              	.L85:
 959:../../../FreeRTOS-Plus/Source/FreeRTOS-Plus-TCP/FreeRTOS_IP.c **** 		}
 960:../../../FreeRTOS-Plus/Source/FreeRTOS-Plus-TCP/FreeRTOS_IP.c **** 	}
 961:../../../FreeRTOS-Plus/Source/FreeRTOS-Plus-TCP/FreeRTOS_IP.c **** 
 962:../../../FreeRTOS-Plus/Source/FreeRTOS-Plus-TCP/FreeRTOS_IP.c **** 	return pxResult;
 1317              		.loc 1 962 0
 1318 0034 FB68     		ldr	r3, [r7, #12]
 963:../../../FreeRTOS-Plus/Source/FreeRTOS-Plus-TCP/FreeRTOS_IP.c **** }
 1319              		.loc 1 963 0
 1320 0036 1846     		mov	r0, r3
 1321 0038 1437     		adds	r7, r7, #20
 1322              	.LCFI68:
 1323              		.cfi_def_cfa_offset 4
 1324 003a BD46     		mov	sp, r7
 1325              	.LCFI69:
 1326              		.cfi_def_cfa_register 13
 1327              		@ sp needed
 1328 003c 5DF8047B 		ldr	r7, [sp], #4
 1329              	.LCFI70:
 1330              		.cfi_restore 7
 1331              		.cfi_def_cfa_offset 0
 1332 0040 7047     		bx	lr
 1333              		.cfi_endproc
 1334              	.LFE42:
 1336 0042 00BF     		.section	.text.FreeRTOS_ReleaseUDPPayloadBuffer,"ax",%progbits
 1337              		.align	2
 1338              		.global	FreeRTOS_ReleaseUDPPayloadBuffer
 1339              		.thumb
 1340              		.thumb_func
 1342              	FreeRTOS_ReleaseUDPPayloadBuffer:
 1343              	.LFB43:
 964:../../../FreeRTOS-Plus/Source/FreeRTOS-Plus-TCP/FreeRTOS_IP.c **** /*-----------------------------------------------------------*/
 965:../../../FreeRTOS-Plus/Source/FreeRTOS-Plus-TCP/FreeRTOS_IP.c **** 
 966:../../../FreeRTOS-Plus/Source/FreeRTOS-Plus-TCP/FreeRTOS_IP.c **** void FreeRTOS_ReleaseUDPPayloadBuffer( void *pvBuffer )
 967:../../../FreeRTOS-Plus/Source/FreeRTOS-Plus-TCP/FreeRTOS_IP.c **** {
 1344              		.loc 1 967 0
 1345              		.cfi_startproc
ARM GAS  /tmp/cc3wfdLm.s 			page 41


 1346              		@ args = 0, pretend = 0, frame = 8
 1347              		@ frame_needed = 1, uses_anonymous_args = 0
 1348 0000 80B5     		push	{r7, lr}
 1349              	.LCFI71:
 1350              		.cfi_def_cfa_offset 8
 1351              		.cfi_offset 7, -8
 1352              		.cfi_offset 14, -4
 1353 0002 82B0     		sub	sp, sp, #8
 1354              	.LCFI72:
 1355              		.cfi_def_cfa_offset 16
 1356 0004 00AF     		add	r7, sp, #0
 1357              	.LCFI73:
 1358              		.cfi_def_cfa_register 7
 1359 0006 7860     		str	r0, [r7, #4]
 968:../../../FreeRTOS-Plus/Source/FreeRTOS-Plus-TCP/FreeRTOS_IP.c **** 	vReleaseNetworkBufferAndDescriptor( pxUDPPayloadBuffer_to_NetworkBuffer( pvBuffer ) );
 1360              		.loc 1 968 0
 1361 0008 7868     		ldr	r0, [r7, #4]
 1362 000a FFF7FEFF 		bl	pxUDPPayloadBuffer_to_NetworkBuffer
 1363 000e 0346     		mov	r3, r0
 1364 0010 1846     		mov	r0, r3
 1365 0012 FFF7FEFF 		bl	vReleaseNetworkBufferAndDescriptor
 969:../../../FreeRTOS-Plus/Source/FreeRTOS-Plus-TCP/FreeRTOS_IP.c **** }
 1366              		.loc 1 969 0
 1367 0016 0837     		adds	r7, r7, #8
 1368              	.LCFI74:
 1369              		.cfi_def_cfa_offset 8
 1370 0018 BD46     		mov	sp, r7
 1371              	.LCFI75:
 1372              		.cfi_def_cfa_register 13
 1373              		@ sp needed
 1374 001a 80BD     		pop	{r7, pc}
 1375              		.cfi_endproc
 1376              	.LFE43:
 1378              		.section	.rodata
 1379              		.align	2
 1380              	.LC0:
 1381 0000 4E657445 		.ascii	"NetEvnt\000"
 1381      766E7400 
 1382              		.align	2
 1383              	.LC1:
 1384 0008 49502D74 		.ascii	"IP-task\000"
 1384      61736B00 
 1385              		.section	.text.FreeRTOS_IPInit,"ax",%progbits
 1386              		.align	2
 1387              		.global	FreeRTOS_IPInit
 1388              		.thumb
 1389              		.thumb_func
 1391              	FreeRTOS_IPInit:
 1392              	.LFB44:
 970:../../../FreeRTOS-Plus/Source/FreeRTOS-Plus-TCP/FreeRTOS_IP.c **** /*-----------------------------------------------------------*/
 971:../../../FreeRTOS-Plus/Source/FreeRTOS-Plus-TCP/FreeRTOS_IP.c **** 
 972:../../../FreeRTOS-Plus/Source/FreeRTOS-Plus-TCP/FreeRTOS_IP.c **** /*_RB_ Should we add an error or assert if the task priorities are set such that the servers won't 
 973:../../../FreeRTOS-Plus/Source/FreeRTOS-Plus-TCP/FreeRTOS_IP.c **** /*_HT_ There was a bug in FreeRTOS_TCP_IP.c that only occurred when the applications' priority was 
 974:../../../FreeRTOS-Plus/Source/FreeRTOS-Plus-TCP/FreeRTOS_IP.c ****  As that bug has been repaired, there is not an urgent reason to warn.
 975:../../../FreeRTOS-Plus/Source/FreeRTOS-Plus-TCP/FreeRTOS_IP.c ****  It is better though to use the advised priority scheme. */
 976:../../../FreeRTOS-Plus/Source/FreeRTOS-Plus-TCP/FreeRTOS_IP.c **** BaseType_t FreeRTOS_IPInit( const uint8_t ucIPAddress[ ipIP_ADDRESS_LENGTH_BYTES ], const uint8_t u
 977:../../../FreeRTOS-Plus/Source/FreeRTOS-Plus-TCP/FreeRTOS_IP.c **** {
ARM GAS  /tmp/cc3wfdLm.s 			page 42


 1393              		.loc 1 977 0
 1394              		.cfi_startproc
 1395              		@ args = 4, pretend = 0, frame = 40
 1396              		@ frame_needed = 1, uses_anonymous_args = 0
 1397 0000 B0B5     		push	{r4, r5, r7, lr}
 1398              	.LCFI76:
 1399              		.cfi_def_cfa_offset 16
 1400              		.cfi_offset 4, -16
 1401              		.cfi_offset 5, -12
 1402              		.cfi_offset 7, -8
 1403              		.cfi_offset 14, -4
 1404 0002 8CB0     		sub	sp, sp, #48
 1405              	.LCFI77:
 1406              		.cfi_def_cfa_offset 64
 1407 0004 02AF     		add	r7, sp, #8
 1408              	.LCFI78:
 1409              		.cfi_def_cfa 7, 56
 1410 0006 F860     		str	r0, [r7, #12]
 1411 0008 B960     		str	r1, [r7, #8]
 1412 000a 7A60     		str	r2, [r7, #4]
 1413 000c 3B60     		str	r3, [r7]
 978:../../../FreeRTOS-Plus/Source/FreeRTOS-Plus-TCP/FreeRTOS_IP.c **** BaseType_t xReturn = pdFALSE;
 1414              		.loc 1 978 0
 1415 000e 0023     		movs	r3, #0
 1416 0010 7B62     		str	r3, [r7, #36]
 979:../../../FreeRTOS-Plus/Source/FreeRTOS-Plus-TCP/FreeRTOS_IP.c **** 
 980:../../../FreeRTOS-Plus/Source/FreeRTOS-Plus-TCP/FreeRTOS_IP.c **** 	/* This function should only be called once. */
 981:../../../FreeRTOS-Plus/Source/FreeRTOS-Plus-TCP/FreeRTOS_IP.c **** 	configASSERT( xIPIsNetworkTaskReady() == pdFALSE );
 1417              		.loc 1 981 0
 1418 0012 FFF7FEFF 		bl	xIPIsNetworkTaskReady
 1419 0016 0346     		mov	r3, r0
 1420 0018 002B     		cmp	r3, #0
 1421 001a 09D0     		beq	.L90
 1422              	.LBB14:
 1423              	.LBB15:
 1424              		.file 2 "../../../FreeRTOS_9_0/Source/portable/GCC/ARM_CM4F/portmacro.h"
   1:../../../FreeRTOS_9_0/Source/portable/GCC/ARM_CM4F/portmacro.h **** /*
   2:../../../FreeRTOS_9_0/Source/portable/GCC/ARM_CM4F/portmacro.h ****     FreeRTOS V9.0.0 - Copyright (C) 2016 Real Time Engineers Ltd.
   3:../../../FreeRTOS_9_0/Source/portable/GCC/ARM_CM4F/portmacro.h ****     All rights reserved
   4:../../../FreeRTOS_9_0/Source/portable/GCC/ARM_CM4F/portmacro.h **** 
   5:../../../FreeRTOS_9_0/Source/portable/GCC/ARM_CM4F/portmacro.h ****     VISIT http://www.FreeRTOS.org TO ENSURE YOU ARE USING THE LATEST VERSION.
   6:../../../FreeRTOS_9_0/Source/portable/GCC/ARM_CM4F/portmacro.h **** 
   7:../../../FreeRTOS_9_0/Source/portable/GCC/ARM_CM4F/portmacro.h ****     This file is part of the FreeRTOS distribution.
   8:../../../FreeRTOS_9_0/Source/portable/GCC/ARM_CM4F/portmacro.h **** 
   9:../../../FreeRTOS_9_0/Source/portable/GCC/ARM_CM4F/portmacro.h ****     FreeRTOS is free software; you can redistribute it and/or modify it under
  10:../../../FreeRTOS_9_0/Source/portable/GCC/ARM_CM4F/portmacro.h ****     the terms of the GNU General Public License (version 2) as published by the
  11:../../../FreeRTOS_9_0/Source/portable/GCC/ARM_CM4F/portmacro.h ****     Free Software Foundation >>>> AND MODIFIED BY <<<< the FreeRTOS exception.
  12:../../../FreeRTOS_9_0/Source/portable/GCC/ARM_CM4F/portmacro.h **** 
  13:../../../FreeRTOS_9_0/Source/portable/GCC/ARM_CM4F/portmacro.h ****     ***************************************************************************
  14:../../../FreeRTOS_9_0/Source/portable/GCC/ARM_CM4F/portmacro.h ****     >>!   NOTE: The modification to the GPL is included to allow you to     !<<
  15:../../../FreeRTOS_9_0/Source/portable/GCC/ARM_CM4F/portmacro.h ****     >>!   distribute a combined work that includes FreeRTOS without being   !<<
  16:../../../FreeRTOS_9_0/Source/portable/GCC/ARM_CM4F/portmacro.h ****     >>!   obliged to provide the source code for proprietary components     !<<
  17:../../../FreeRTOS_9_0/Source/portable/GCC/ARM_CM4F/portmacro.h ****     >>!   outside of the FreeRTOS kernel.                                   !<<
  18:../../../FreeRTOS_9_0/Source/portable/GCC/ARM_CM4F/portmacro.h ****     ***************************************************************************
  19:../../../FreeRTOS_9_0/Source/portable/GCC/ARM_CM4F/portmacro.h **** 
  20:../../../FreeRTOS_9_0/Source/portable/GCC/ARM_CM4F/portmacro.h ****     FreeRTOS is distributed in the hope that it will be useful, but WITHOUT ANY
  21:../../../FreeRTOS_9_0/Source/portable/GCC/ARM_CM4F/portmacro.h ****     WARRANTY; without even the implied warranty of MERCHANTABILITY or FITNESS
ARM GAS  /tmp/cc3wfdLm.s 			page 43


  22:../../../FreeRTOS_9_0/Source/portable/GCC/ARM_CM4F/portmacro.h ****     FOR A PARTICULAR PURPOSE.  Full license text is available on the following
  23:../../../FreeRTOS_9_0/Source/portable/GCC/ARM_CM4F/portmacro.h ****     link: http://www.freertos.org/a00114.html
  24:../../../FreeRTOS_9_0/Source/portable/GCC/ARM_CM4F/portmacro.h **** 
  25:../../../FreeRTOS_9_0/Source/portable/GCC/ARM_CM4F/portmacro.h ****     ***************************************************************************
  26:../../../FreeRTOS_9_0/Source/portable/GCC/ARM_CM4F/portmacro.h ****      *                                                                       *
  27:../../../FreeRTOS_9_0/Source/portable/GCC/ARM_CM4F/portmacro.h ****      *    FreeRTOS provides completely free yet professionally developed,    *
  28:../../../FreeRTOS_9_0/Source/portable/GCC/ARM_CM4F/portmacro.h ****      *    robust, strictly quality controlled, supported, and cross          *
  29:../../../FreeRTOS_9_0/Source/portable/GCC/ARM_CM4F/portmacro.h ****      *    platform software that is more than just the market leader, it     *
  30:../../../FreeRTOS_9_0/Source/portable/GCC/ARM_CM4F/portmacro.h ****      *    is the industry's de facto standard.                               *
  31:../../../FreeRTOS_9_0/Source/portable/GCC/ARM_CM4F/portmacro.h ****      *                                                                       *
  32:../../../FreeRTOS_9_0/Source/portable/GCC/ARM_CM4F/portmacro.h ****      *    Help yourself get started quickly while simultaneously helping     *
  33:../../../FreeRTOS_9_0/Source/portable/GCC/ARM_CM4F/portmacro.h ****      *    to support the FreeRTOS project by purchasing a FreeRTOS           *
  34:../../../FreeRTOS_9_0/Source/portable/GCC/ARM_CM4F/portmacro.h ****      *    tutorial book, reference manual, or both:                          *
  35:../../../FreeRTOS_9_0/Source/portable/GCC/ARM_CM4F/portmacro.h ****      *    http://www.FreeRTOS.org/Documentation                              *
  36:../../../FreeRTOS_9_0/Source/portable/GCC/ARM_CM4F/portmacro.h ****      *                                                                       *
  37:../../../FreeRTOS_9_0/Source/portable/GCC/ARM_CM4F/portmacro.h ****     ***************************************************************************
  38:../../../FreeRTOS_9_0/Source/portable/GCC/ARM_CM4F/portmacro.h **** 
  39:../../../FreeRTOS_9_0/Source/portable/GCC/ARM_CM4F/portmacro.h ****     http://www.FreeRTOS.org/FAQHelp.html - Having a problem?  Start by reading
  40:../../../FreeRTOS_9_0/Source/portable/GCC/ARM_CM4F/portmacro.h ****     the FAQ page "My application does not run, what could be wrong?".  Have you
  41:../../../FreeRTOS_9_0/Source/portable/GCC/ARM_CM4F/portmacro.h ****     defined configASSERT()?
  42:../../../FreeRTOS_9_0/Source/portable/GCC/ARM_CM4F/portmacro.h **** 
  43:../../../FreeRTOS_9_0/Source/portable/GCC/ARM_CM4F/portmacro.h ****     http://www.FreeRTOS.org/support - In return for receiving this top quality
  44:../../../FreeRTOS_9_0/Source/portable/GCC/ARM_CM4F/portmacro.h ****     embedded software for free we request you assist our global community by
  45:../../../FreeRTOS_9_0/Source/portable/GCC/ARM_CM4F/portmacro.h ****     participating in the support forum.
  46:../../../FreeRTOS_9_0/Source/portable/GCC/ARM_CM4F/portmacro.h **** 
  47:../../../FreeRTOS_9_0/Source/portable/GCC/ARM_CM4F/portmacro.h ****     http://www.FreeRTOS.org/training - Investing in training allows your team to
  48:../../../FreeRTOS_9_0/Source/portable/GCC/ARM_CM4F/portmacro.h ****     be as productive as possible as early as possible.  Now you can receive
  49:../../../FreeRTOS_9_0/Source/portable/GCC/ARM_CM4F/portmacro.h ****     FreeRTOS training directly from Richard Barry, CEO of Real Time Engineers
  50:../../../FreeRTOS_9_0/Source/portable/GCC/ARM_CM4F/portmacro.h ****     Ltd, and the world's leading authority on the world's leading RTOS.
  51:../../../FreeRTOS_9_0/Source/portable/GCC/ARM_CM4F/portmacro.h **** 
  52:../../../FreeRTOS_9_0/Source/portable/GCC/ARM_CM4F/portmacro.h ****     http://www.FreeRTOS.org/plus - A selection of FreeRTOS ecosystem products,
  53:../../../FreeRTOS_9_0/Source/portable/GCC/ARM_CM4F/portmacro.h ****     including FreeRTOS+Trace - an indispensable productivity tool, a DOS
  54:../../../FreeRTOS_9_0/Source/portable/GCC/ARM_CM4F/portmacro.h ****     compatible FAT file system, and our tiny thread aware UDP/IP stack.
  55:../../../FreeRTOS_9_0/Source/portable/GCC/ARM_CM4F/portmacro.h **** 
  56:../../../FreeRTOS_9_0/Source/portable/GCC/ARM_CM4F/portmacro.h ****     http://www.FreeRTOS.org/labs - Where new FreeRTOS products go to incubate.
  57:../../../FreeRTOS_9_0/Source/portable/GCC/ARM_CM4F/portmacro.h ****     Come and try FreeRTOS+TCP, our new open source TCP/IP stack for FreeRTOS.
  58:../../../FreeRTOS_9_0/Source/portable/GCC/ARM_CM4F/portmacro.h **** 
  59:../../../FreeRTOS_9_0/Source/portable/GCC/ARM_CM4F/portmacro.h ****     http://www.OpenRTOS.com - Real Time Engineers ltd. license FreeRTOS to High
  60:../../../FreeRTOS_9_0/Source/portable/GCC/ARM_CM4F/portmacro.h ****     Integrity Systems ltd. to sell under the OpenRTOS brand.  Low cost OpenRTOS
  61:../../../FreeRTOS_9_0/Source/portable/GCC/ARM_CM4F/portmacro.h ****     licenses offer ticketed support, indemnification and commercial middleware.
  62:../../../FreeRTOS_9_0/Source/portable/GCC/ARM_CM4F/portmacro.h **** 
  63:../../../FreeRTOS_9_0/Source/portable/GCC/ARM_CM4F/portmacro.h ****     http://www.SafeRTOS.com - High Integrity Systems also provide a safety
  64:../../../FreeRTOS_9_0/Source/portable/GCC/ARM_CM4F/portmacro.h ****     engineered and independently SIL3 certified version for use in safety and
  65:../../../FreeRTOS_9_0/Source/portable/GCC/ARM_CM4F/portmacro.h ****     mission critical applications that require provable dependability.
  66:../../../FreeRTOS_9_0/Source/portable/GCC/ARM_CM4F/portmacro.h **** 
  67:../../../FreeRTOS_9_0/Source/portable/GCC/ARM_CM4F/portmacro.h ****     1 tab == 4 spaces!
  68:../../../FreeRTOS_9_0/Source/portable/GCC/ARM_CM4F/portmacro.h **** */
  69:../../../FreeRTOS_9_0/Source/portable/GCC/ARM_CM4F/portmacro.h **** 
  70:../../../FreeRTOS_9_0/Source/portable/GCC/ARM_CM4F/portmacro.h **** 
  71:../../../FreeRTOS_9_0/Source/portable/GCC/ARM_CM4F/portmacro.h **** #ifndef PORTMACRO_H
  72:../../../FreeRTOS_9_0/Source/portable/GCC/ARM_CM4F/portmacro.h **** #define PORTMACRO_H
  73:../../../FreeRTOS_9_0/Source/portable/GCC/ARM_CM4F/portmacro.h **** 
  74:../../../FreeRTOS_9_0/Source/portable/GCC/ARM_CM4F/portmacro.h **** #ifdef __cplusplus
  75:../../../FreeRTOS_9_0/Source/portable/GCC/ARM_CM4F/portmacro.h **** extern "C" {
  76:../../../FreeRTOS_9_0/Source/portable/GCC/ARM_CM4F/portmacro.h **** #endif
  77:../../../FreeRTOS_9_0/Source/portable/GCC/ARM_CM4F/portmacro.h **** 
  78:../../../FreeRTOS_9_0/Source/portable/GCC/ARM_CM4F/portmacro.h **** /*-----------------------------------------------------------
ARM GAS  /tmp/cc3wfdLm.s 			page 44


  79:../../../FreeRTOS_9_0/Source/portable/GCC/ARM_CM4F/portmacro.h ****  * Port specific definitions.
  80:../../../FreeRTOS_9_0/Source/portable/GCC/ARM_CM4F/portmacro.h ****  *
  81:../../../FreeRTOS_9_0/Source/portable/GCC/ARM_CM4F/portmacro.h ****  * The settings in this file configure FreeRTOS correctly for the
  82:../../../FreeRTOS_9_0/Source/portable/GCC/ARM_CM4F/portmacro.h ****  * given hardware and compiler.
  83:../../../FreeRTOS_9_0/Source/portable/GCC/ARM_CM4F/portmacro.h ****  *
  84:../../../FreeRTOS_9_0/Source/portable/GCC/ARM_CM4F/portmacro.h ****  * These settings should not be altered.
  85:../../../FreeRTOS_9_0/Source/portable/GCC/ARM_CM4F/portmacro.h ****  *-----------------------------------------------------------
  86:../../../FreeRTOS_9_0/Source/portable/GCC/ARM_CM4F/portmacro.h ****  */
  87:../../../FreeRTOS_9_0/Source/portable/GCC/ARM_CM4F/portmacro.h **** 
  88:../../../FreeRTOS_9_0/Source/portable/GCC/ARM_CM4F/portmacro.h **** /* Type definitions. */
  89:../../../FreeRTOS_9_0/Source/portable/GCC/ARM_CM4F/portmacro.h **** #define portCHAR		char
  90:../../../FreeRTOS_9_0/Source/portable/GCC/ARM_CM4F/portmacro.h **** #define portFLOAT		float
  91:../../../FreeRTOS_9_0/Source/portable/GCC/ARM_CM4F/portmacro.h **** #define portDOUBLE		double
  92:../../../FreeRTOS_9_0/Source/portable/GCC/ARM_CM4F/portmacro.h **** #define portLONG		long
  93:../../../FreeRTOS_9_0/Source/portable/GCC/ARM_CM4F/portmacro.h **** #define portSHORT		short
  94:../../../FreeRTOS_9_0/Source/portable/GCC/ARM_CM4F/portmacro.h **** #define portSTACK_TYPE	uint32_t
  95:../../../FreeRTOS_9_0/Source/portable/GCC/ARM_CM4F/portmacro.h **** #define portBASE_TYPE	long
  96:../../../FreeRTOS_9_0/Source/portable/GCC/ARM_CM4F/portmacro.h **** 
  97:../../../FreeRTOS_9_0/Source/portable/GCC/ARM_CM4F/portmacro.h **** typedef portSTACK_TYPE StackType_t;
  98:../../../FreeRTOS_9_0/Source/portable/GCC/ARM_CM4F/portmacro.h **** typedef long BaseType_t;
  99:../../../FreeRTOS_9_0/Source/portable/GCC/ARM_CM4F/portmacro.h **** typedef unsigned long UBaseType_t;
 100:../../../FreeRTOS_9_0/Source/portable/GCC/ARM_CM4F/portmacro.h **** 
 101:../../../FreeRTOS_9_0/Source/portable/GCC/ARM_CM4F/portmacro.h **** #if( configUSE_16_BIT_TICKS == 1 )
 102:../../../FreeRTOS_9_0/Source/portable/GCC/ARM_CM4F/portmacro.h **** 	typedef uint16_t TickType_t;
 103:../../../FreeRTOS_9_0/Source/portable/GCC/ARM_CM4F/portmacro.h **** 	#define portMAX_DELAY ( TickType_t ) 0xffff
 104:../../../FreeRTOS_9_0/Source/portable/GCC/ARM_CM4F/portmacro.h **** #else
 105:../../../FreeRTOS_9_0/Source/portable/GCC/ARM_CM4F/portmacro.h **** 	typedef uint32_t TickType_t;
 106:../../../FreeRTOS_9_0/Source/portable/GCC/ARM_CM4F/portmacro.h **** 	#define portMAX_DELAY ( TickType_t ) 0xffffffffUL
 107:../../../FreeRTOS_9_0/Source/portable/GCC/ARM_CM4F/portmacro.h **** 
 108:../../../FreeRTOS_9_0/Source/portable/GCC/ARM_CM4F/portmacro.h **** 	/* 32-bit tick type on a 32-bit architecture, so reads of the tick count do
 109:../../../FreeRTOS_9_0/Source/portable/GCC/ARM_CM4F/portmacro.h **** 	not need to be guarded with a critical section. */
 110:../../../FreeRTOS_9_0/Source/portable/GCC/ARM_CM4F/portmacro.h **** 	#define portTICK_TYPE_IS_ATOMIC 1
 111:../../../FreeRTOS_9_0/Source/portable/GCC/ARM_CM4F/portmacro.h **** #endif
 112:../../../FreeRTOS_9_0/Source/portable/GCC/ARM_CM4F/portmacro.h **** /*-----------------------------------------------------------*/
 113:../../../FreeRTOS_9_0/Source/portable/GCC/ARM_CM4F/portmacro.h **** 
 114:../../../FreeRTOS_9_0/Source/portable/GCC/ARM_CM4F/portmacro.h **** /* Architecture specifics. */
 115:../../../FreeRTOS_9_0/Source/portable/GCC/ARM_CM4F/portmacro.h **** #define portSTACK_GROWTH			( -1 )
 116:../../../FreeRTOS_9_0/Source/portable/GCC/ARM_CM4F/portmacro.h **** #define portTICK_PERIOD_MS			( ( TickType_t ) 1000 / configTICK_RATE_HZ )
 117:../../../FreeRTOS_9_0/Source/portable/GCC/ARM_CM4F/portmacro.h **** #define portBYTE_ALIGNMENT			8
 118:../../../FreeRTOS_9_0/Source/portable/GCC/ARM_CM4F/portmacro.h **** /*-----------------------------------------------------------*/
 119:../../../FreeRTOS_9_0/Source/portable/GCC/ARM_CM4F/portmacro.h **** 
 120:../../../FreeRTOS_9_0/Source/portable/GCC/ARM_CM4F/portmacro.h **** /* Scheduler utilities. */
 121:../../../FreeRTOS_9_0/Source/portable/GCC/ARM_CM4F/portmacro.h **** #define portYIELD() 															\
 122:../../../FreeRTOS_9_0/Source/portable/GCC/ARM_CM4F/portmacro.h **** {																				\
 123:../../../FreeRTOS_9_0/Source/portable/GCC/ARM_CM4F/portmacro.h **** 	/* Set a PendSV to request a context switch. */								\
 124:../../../FreeRTOS_9_0/Source/portable/GCC/ARM_CM4F/portmacro.h **** 	portNVIC_INT_CTRL_REG = portNVIC_PENDSVSET_BIT;								\
 125:../../../FreeRTOS_9_0/Source/portable/GCC/ARM_CM4F/portmacro.h **** 																				\
 126:../../../FreeRTOS_9_0/Source/portable/GCC/ARM_CM4F/portmacro.h **** 	/* Barriers are normally not required but do ensure the code is completely	\
 127:../../../FreeRTOS_9_0/Source/portable/GCC/ARM_CM4F/portmacro.h **** 	within the specified behaviour for the architecture. */						\
 128:../../../FreeRTOS_9_0/Source/portable/GCC/ARM_CM4F/portmacro.h **** 	__asm volatile( "dsb" );													\
 129:../../../FreeRTOS_9_0/Source/portable/GCC/ARM_CM4F/portmacro.h **** 	__asm volatile( "isb" );													\
 130:../../../FreeRTOS_9_0/Source/portable/GCC/ARM_CM4F/portmacro.h **** }
 131:../../../FreeRTOS_9_0/Source/portable/GCC/ARM_CM4F/portmacro.h **** 
 132:../../../FreeRTOS_9_0/Source/portable/GCC/ARM_CM4F/portmacro.h **** #define portNVIC_INT_CTRL_REG		( * ( ( volatile uint32_t * ) 0xe000ed04 ) )
 133:../../../FreeRTOS_9_0/Source/portable/GCC/ARM_CM4F/portmacro.h **** #define portNVIC_PENDSVSET_BIT		( 1UL << 28UL )
 134:../../../FreeRTOS_9_0/Source/portable/GCC/ARM_CM4F/portmacro.h **** #define portEND_SWITCHING_ISR( xSwitchRequired ) { if( xSwitchRequired != pdFALSE ) { traceISR_EXIT
 135:../../../FreeRTOS_9_0/Source/portable/GCC/ARM_CM4F/portmacro.h **** #define portYIELD_FROM_ISR( x ) portEND_SWITCHING_ISR( x )
ARM GAS  /tmp/cc3wfdLm.s 			page 45


 136:../../../FreeRTOS_9_0/Source/portable/GCC/ARM_CM4F/portmacro.h **** /*-----------------------------------------------------------*/
 137:../../../FreeRTOS_9_0/Source/portable/GCC/ARM_CM4F/portmacro.h **** 
 138:../../../FreeRTOS_9_0/Source/portable/GCC/ARM_CM4F/portmacro.h **** /* Critical section management. */
 139:../../../FreeRTOS_9_0/Source/portable/GCC/ARM_CM4F/portmacro.h **** extern void vPortEnterCritical( void );
 140:../../../FreeRTOS_9_0/Source/portable/GCC/ARM_CM4F/portmacro.h **** extern void vPortExitCritical( void );
 141:../../../FreeRTOS_9_0/Source/portable/GCC/ARM_CM4F/portmacro.h **** #define portSET_INTERRUPT_MASK_FROM_ISR()		ulPortRaiseBASEPRI()
 142:../../../FreeRTOS_9_0/Source/portable/GCC/ARM_CM4F/portmacro.h **** #define portCLEAR_INTERRUPT_MASK_FROM_ISR(x)	vPortSetBASEPRI(x)
 143:../../../FreeRTOS_9_0/Source/portable/GCC/ARM_CM4F/portmacro.h **** #define portDISABLE_INTERRUPTS()				vPortRaiseBASEPRI()
 144:../../../FreeRTOS_9_0/Source/portable/GCC/ARM_CM4F/portmacro.h **** #define portENABLE_INTERRUPTS()					vPortSetBASEPRI(0)
 145:../../../FreeRTOS_9_0/Source/portable/GCC/ARM_CM4F/portmacro.h **** #define portENTER_CRITICAL()					vPortEnterCritical()
 146:../../../FreeRTOS_9_0/Source/portable/GCC/ARM_CM4F/portmacro.h **** #define portEXIT_CRITICAL()						vPortExitCritical()
 147:../../../FreeRTOS_9_0/Source/portable/GCC/ARM_CM4F/portmacro.h **** 
 148:../../../FreeRTOS_9_0/Source/portable/GCC/ARM_CM4F/portmacro.h **** /*-----------------------------------------------------------*/
 149:../../../FreeRTOS_9_0/Source/portable/GCC/ARM_CM4F/portmacro.h **** 
 150:../../../FreeRTOS_9_0/Source/portable/GCC/ARM_CM4F/portmacro.h **** /* Task function macros as described on the FreeRTOS.org WEB site.  These are
 151:../../../FreeRTOS_9_0/Source/portable/GCC/ARM_CM4F/portmacro.h **** not necessary for to use this port.  They are defined so the common demo files
 152:../../../FreeRTOS_9_0/Source/portable/GCC/ARM_CM4F/portmacro.h **** (which build with all the ports) will build. */
 153:../../../FreeRTOS_9_0/Source/portable/GCC/ARM_CM4F/portmacro.h **** #define portTASK_FUNCTION_PROTO( vFunction, pvParameters ) void vFunction( void *pvParameters )
 154:../../../FreeRTOS_9_0/Source/portable/GCC/ARM_CM4F/portmacro.h **** #define portTASK_FUNCTION( vFunction, pvParameters ) void vFunction( void *pvParameters )
 155:../../../FreeRTOS_9_0/Source/portable/GCC/ARM_CM4F/portmacro.h **** /*-----------------------------------------------------------*/
 156:../../../FreeRTOS_9_0/Source/portable/GCC/ARM_CM4F/portmacro.h **** 
 157:../../../FreeRTOS_9_0/Source/portable/GCC/ARM_CM4F/portmacro.h **** /* Tickless idle/low power functionality. */
 158:../../../FreeRTOS_9_0/Source/portable/GCC/ARM_CM4F/portmacro.h **** #ifndef portSUPPRESS_TICKS_AND_SLEEP
 159:../../../FreeRTOS_9_0/Source/portable/GCC/ARM_CM4F/portmacro.h **** 	extern void vPortSuppressTicksAndSleep( TickType_t xExpectedIdleTime );
 160:../../../FreeRTOS_9_0/Source/portable/GCC/ARM_CM4F/portmacro.h **** 	#define portSUPPRESS_TICKS_AND_SLEEP( xExpectedIdleTime ) vPortSuppressTicksAndSleep( xExpectedIdl
 161:../../../FreeRTOS_9_0/Source/portable/GCC/ARM_CM4F/portmacro.h **** #endif
 162:../../../FreeRTOS_9_0/Source/portable/GCC/ARM_CM4F/portmacro.h **** /*-----------------------------------------------------------*/
 163:../../../FreeRTOS_9_0/Source/portable/GCC/ARM_CM4F/portmacro.h **** 
 164:../../../FreeRTOS_9_0/Source/portable/GCC/ARM_CM4F/portmacro.h **** /* Architecture specific optimisations. */
 165:../../../FreeRTOS_9_0/Source/portable/GCC/ARM_CM4F/portmacro.h **** #ifndef configUSE_PORT_OPTIMISED_TASK_SELECTION
 166:../../../FreeRTOS_9_0/Source/portable/GCC/ARM_CM4F/portmacro.h **** 	#define configUSE_PORT_OPTIMISED_TASK_SELECTION 1
 167:../../../FreeRTOS_9_0/Source/portable/GCC/ARM_CM4F/portmacro.h **** #endif
 168:../../../FreeRTOS_9_0/Source/portable/GCC/ARM_CM4F/portmacro.h **** 
 169:../../../FreeRTOS_9_0/Source/portable/GCC/ARM_CM4F/portmacro.h **** #if configUSE_PORT_OPTIMISED_TASK_SELECTION == 1
 170:../../../FreeRTOS_9_0/Source/portable/GCC/ARM_CM4F/portmacro.h **** 
 171:../../../FreeRTOS_9_0/Source/portable/GCC/ARM_CM4F/portmacro.h **** 	/* Generic helper function. */
 172:../../../FreeRTOS_9_0/Source/portable/GCC/ARM_CM4F/portmacro.h **** 	__attribute__( ( always_inline ) ) static inline uint8_t ucPortCountLeadingZeros( uint32_t ulBitma
 173:../../../FreeRTOS_9_0/Source/portable/GCC/ARM_CM4F/portmacro.h **** 	{
 174:../../../FreeRTOS_9_0/Source/portable/GCC/ARM_CM4F/portmacro.h **** 	uint8_t ucReturn;
 175:../../../FreeRTOS_9_0/Source/portable/GCC/ARM_CM4F/portmacro.h **** 
 176:../../../FreeRTOS_9_0/Source/portable/GCC/ARM_CM4F/portmacro.h **** 		__asm volatile ( "clz %0, %1" : "=r" ( ucReturn ) : "r" ( ulBitmap ) );
 177:../../../FreeRTOS_9_0/Source/portable/GCC/ARM_CM4F/portmacro.h **** 		return ucReturn;
 178:../../../FreeRTOS_9_0/Source/portable/GCC/ARM_CM4F/portmacro.h **** 	}
 179:../../../FreeRTOS_9_0/Source/portable/GCC/ARM_CM4F/portmacro.h **** 
 180:../../../FreeRTOS_9_0/Source/portable/GCC/ARM_CM4F/portmacro.h **** 	/* Check the configuration. */
 181:../../../FreeRTOS_9_0/Source/portable/GCC/ARM_CM4F/portmacro.h **** 	#if( configMAX_PRIORITIES > 32 )
 182:../../../FreeRTOS_9_0/Source/portable/GCC/ARM_CM4F/portmacro.h **** 		#error configUSE_PORT_OPTIMISED_TASK_SELECTION can only be set to 1 when configMAX_PRIORITIES is 
 183:../../../FreeRTOS_9_0/Source/portable/GCC/ARM_CM4F/portmacro.h **** 	#endif
 184:../../../FreeRTOS_9_0/Source/portable/GCC/ARM_CM4F/portmacro.h **** 
 185:../../../FreeRTOS_9_0/Source/portable/GCC/ARM_CM4F/portmacro.h **** 	/* Store/clear the ready priorities in a bit map. */
 186:../../../FreeRTOS_9_0/Source/portable/GCC/ARM_CM4F/portmacro.h **** 	#define portRECORD_READY_PRIORITY( uxPriority, uxReadyPriorities ) ( uxReadyPriorities ) |= ( 1UL 
 187:../../../FreeRTOS_9_0/Source/portable/GCC/ARM_CM4F/portmacro.h **** 	#define portRESET_READY_PRIORITY( uxPriority, uxReadyPriorities ) ( uxReadyPriorities ) &= ~( 1UL 
 188:../../../FreeRTOS_9_0/Source/portable/GCC/ARM_CM4F/portmacro.h **** 
 189:../../../FreeRTOS_9_0/Source/portable/GCC/ARM_CM4F/portmacro.h **** 	/*-----------------------------------------------------------*/
 190:../../../FreeRTOS_9_0/Source/portable/GCC/ARM_CM4F/portmacro.h **** 
 191:../../../FreeRTOS_9_0/Source/portable/GCC/ARM_CM4F/portmacro.h **** 	#define portGET_HIGHEST_PRIORITY( uxTopPriority, uxReadyPriorities ) uxTopPriority = ( 31UL - ( ui
 192:../../../FreeRTOS_9_0/Source/portable/GCC/ARM_CM4F/portmacro.h **** 
ARM GAS  /tmp/cc3wfdLm.s 			page 46


 193:../../../FreeRTOS_9_0/Source/portable/GCC/ARM_CM4F/portmacro.h **** #endif /* configUSE_PORT_OPTIMISED_TASK_SELECTION */
 194:../../../FreeRTOS_9_0/Source/portable/GCC/ARM_CM4F/portmacro.h **** 
 195:../../../FreeRTOS_9_0/Source/portable/GCC/ARM_CM4F/portmacro.h **** /*-----------------------------------------------------------*/
 196:../../../FreeRTOS_9_0/Source/portable/GCC/ARM_CM4F/portmacro.h **** 
 197:../../../FreeRTOS_9_0/Source/portable/GCC/ARM_CM4F/portmacro.h **** #ifdef configASSERT
 198:../../../FreeRTOS_9_0/Source/portable/GCC/ARM_CM4F/portmacro.h **** 	void vPortValidateInterruptPriority( void );
 199:../../../FreeRTOS_9_0/Source/portable/GCC/ARM_CM4F/portmacro.h **** 	#define portASSERT_IF_INTERRUPT_PRIORITY_INVALID() 	vPortValidateInterruptPriority()
 200:../../../FreeRTOS_9_0/Source/portable/GCC/ARM_CM4F/portmacro.h **** #endif
 201:../../../FreeRTOS_9_0/Source/portable/GCC/ARM_CM4F/portmacro.h **** 
 202:../../../FreeRTOS_9_0/Source/portable/GCC/ARM_CM4F/portmacro.h **** /* portNOP() is not required by this port. */
 203:../../../FreeRTOS_9_0/Source/portable/GCC/ARM_CM4F/portmacro.h **** #define portNOP()
 204:../../../FreeRTOS_9_0/Source/portable/GCC/ARM_CM4F/portmacro.h **** 
 205:../../../FreeRTOS_9_0/Source/portable/GCC/ARM_CM4F/portmacro.h **** #define portINLINE	__inline
 206:../../../FreeRTOS_9_0/Source/portable/GCC/ARM_CM4F/portmacro.h **** 
 207:../../../FreeRTOS_9_0/Source/portable/GCC/ARM_CM4F/portmacro.h **** #ifndef portFORCE_INLINE
 208:../../../FreeRTOS_9_0/Source/portable/GCC/ARM_CM4F/portmacro.h **** 	#define portFORCE_INLINE inline __attribute__(( always_inline))
 209:../../../FreeRTOS_9_0/Source/portable/GCC/ARM_CM4F/portmacro.h **** #endif
 210:../../../FreeRTOS_9_0/Source/portable/GCC/ARM_CM4F/portmacro.h **** 
 211:../../../FreeRTOS_9_0/Source/portable/GCC/ARM_CM4F/portmacro.h **** portFORCE_INLINE static BaseType_t xPortIsInsideInterrupt( void )
 212:../../../FreeRTOS_9_0/Source/portable/GCC/ARM_CM4F/portmacro.h **** {
 213:../../../FreeRTOS_9_0/Source/portable/GCC/ARM_CM4F/portmacro.h **** uint32_t ulCurrentInterrupt;
 214:../../../FreeRTOS_9_0/Source/portable/GCC/ARM_CM4F/portmacro.h **** BaseType_t xReturn;
 215:../../../FreeRTOS_9_0/Source/portable/GCC/ARM_CM4F/portmacro.h **** 
 216:../../../FreeRTOS_9_0/Source/portable/GCC/ARM_CM4F/portmacro.h **** 	/* Obtain the number of the currently executing interrupt. */
 217:../../../FreeRTOS_9_0/Source/portable/GCC/ARM_CM4F/portmacro.h **** 	__asm volatile( "mrs %0, ipsr" : "=r"( ulCurrentInterrupt ) );
 218:../../../FreeRTOS_9_0/Source/portable/GCC/ARM_CM4F/portmacro.h **** 
 219:../../../FreeRTOS_9_0/Source/portable/GCC/ARM_CM4F/portmacro.h **** 	if( ulCurrentInterrupt == 0 )
 220:../../../FreeRTOS_9_0/Source/portable/GCC/ARM_CM4F/portmacro.h **** 	{
 221:../../../FreeRTOS_9_0/Source/portable/GCC/ARM_CM4F/portmacro.h **** 		xReturn = pdFALSE;
 222:../../../FreeRTOS_9_0/Source/portable/GCC/ARM_CM4F/portmacro.h **** 	}
 223:../../../FreeRTOS_9_0/Source/portable/GCC/ARM_CM4F/portmacro.h **** 	else
 224:../../../FreeRTOS_9_0/Source/portable/GCC/ARM_CM4F/portmacro.h **** 	{
 225:../../../FreeRTOS_9_0/Source/portable/GCC/ARM_CM4F/portmacro.h **** 		xReturn = pdTRUE;
 226:../../../FreeRTOS_9_0/Source/portable/GCC/ARM_CM4F/portmacro.h **** 	}
 227:../../../FreeRTOS_9_0/Source/portable/GCC/ARM_CM4F/portmacro.h **** 
 228:../../../FreeRTOS_9_0/Source/portable/GCC/ARM_CM4F/portmacro.h **** 	return xReturn;
 229:../../../FreeRTOS_9_0/Source/portable/GCC/ARM_CM4F/portmacro.h **** }
 230:../../../FreeRTOS_9_0/Source/portable/GCC/ARM_CM4F/portmacro.h **** 
 231:../../../FreeRTOS_9_0/Source/portable/GCC/ARM_CM4F/portmacro.h **** /*-----------------------------------------------------------*/
 232:../../../FreeRTOS_9_0/Source/portable/GCC/ARM_CM4F/portmacro.h **** 
 233:../../../FreeRTOS_9_0/Source/portable/GCC/ARM_CM4F/portmacro.h **** portFORCE_INLINE static void vPortRaiseBASEPRI( void )
 234:../../../FreeRTOS_9_0/Source/portable/GCC/ARM_CM4F/portmacro.h **** {
 235:../../../FreeRTOS_9_0/Source/portable/GCC/ARM_CM4F/portmacro.h **** uint32_t ulNewBASEPRI;
 236:../../../FreeRTOS_9_0/Source/portable/GCC/ARM_CM4F/portmacro.h **** 
 237:../../../FreeRTOS_9_0/Source/portable/GCC/ARM_CM4F/portmacro.h **** 	__asm volatile
 1425              		.loc 2 237 0 discriminator 1
 1426              	@ 237 "../../../FreeRTOS_9_0/Source/portable/GCC/ARM_CM4F/portmacro.h" 1
 1427 001c 4FF05003 			mov r3, #80												
 1428 0020 83F31188 		msr basepri, r3											
 1429 0024 BFF36F8F 		isb														
 1430 0028 BFF34F8F 		dsb														
 1431              	
 1432              	@ 0 "" 2
 1433              		.thumb
 1434 002c 3B62     		str	r3, [r7, #32]
 1435              	.L91:
 1436              	.LBE15:
ARM GAS  /tmp/cc3wfdLm.s 			page 47


 1437              	.LBE14:
 1438              		.loc 1 981 0 discriminator 1
 1439 002e FEE7     		b	.L91
 1440              	.L90:
 982:../../../FreeRTOS-Plus/Source/FreeRTOS-Plus-TCP/FreeRTOS_IP.c **** 	configASSERT( xNetworkEventQueue == NULL );
 1441              		.loc 1 982 0
 1442 0030 624B     		ldr	r3, .L102
 1443 0032 1B68     		ldr	r3, [r3]
 1444 0034 002B     		cmp	r3, #0
 1445 0036 09D0     		beq	.L92
 1446              	.LBB16:
 1447              	.LBB17:
 1448              		.loc 2 237 0 discriminator 1
 1449              	@ 237 "../../../FreeRTOS_9_0/Source/portable/GCC/ARM_CM4F/portmacro.h" 1
 1450 0038 4FF05003 			mov r3, #80												
 1451 003c 83F31188 		msr basepri, r3											
 1452 0040 BFF36F8F 		isb														
 1453 0044 BFF34F8F 		dsb														
 1454              	
 1455              	@ 0 "" 2
 1456              		.thumb
 1457 0048 FB61     		str	r3, [r7, #28]
 1458              	.L93:
 1459              	.LBE17:
 1460              	.LBE16:
 1461              		.loc 1 982 0 discriminator 2
 1462 004a FEE7     		b	.L93
 1463              	.L92:
 983:../../../FreeRTOS-Plus/Source/FreeRTOS-Plus-TCP/FreeRTOS_IP.c **** 	configASSERT( xIPTaskHandle == NULL );
 1464              		.loc 1 983 0
 1465 004c 5C4B     		ldr	r3, .L102+4
 1466 004e 1B68     		ldr	r3, [r3]
 1467 0050 002B     		cmp	r3, #0
 1468 0052 09D0     		beq	.L94
 1469              	.LBB18:
 1470              	.LBB19:
 1471              		.loc 2 237 0 discriminator 1
 1472              	@ 237 "../../../FreeRTOS_9_0/Source/portable/GCC/ARM_CM4F/portmacro.h" 1
 1473 0054 4FF05003 			mov r3, #80												
 1474 0058 83F31188 		msr basepri, r3											
 1475 005c BFF36F8F 		isb														
 1476 0060 BFF34F8F 		dsb														
 1477              	
 1478              	@ 0 "" 2
 1479              		.thumb
 1480 0064 BB61     		str	r3, [r7, #24]
 1481              	.L95:
 1482              	.LBE19:
 1483              	.LBE18:
 1484              		.loc 1 983 0 discriminator 3
 1485 0066 FEE7     		b	.L95
 1486              	.L94:
 984:../../../FreeRTOS-Plus/Source/FreeRTOS-Plus-TCP/FreeRTOS_IP.c **** 
 985:../../../FreeRTOS-Plus/Source/FreeRTOS-Plus-TCP/FreeRTOS_IP.c **** 	/* Check structure packing is correct. */
 986:../../../FreeRTOS-Plus/Source/FreeRTOS-Plus-TCP/FreeRTOS_IP.c **** 	configASSERT( sizeof( EthernetHeader_t ) == ipEXPECTED_EthernetHeader_t_SIZE );
 987:../../../FreeRTOS-Plus/Source/FreeRTOS-Plus-TCP/FreeRTOS_IP.c **** 	configASSERT( sizeof( ARPHeader_t ) == ipEXPECTED_ARPHeader_t_SIZE );
 988:../../../FreeRTOS-Plus/Source/FreeRTOS-Plus-TCP/FreeRTOS_IP.c **** 	configASSERT( sizeof( IPHeader_t ) == ipEXPECTED_IPHeader_t_SIZE );
ARM GAS  /tmp/cc3wfdLm.s 			page 48


 989:../../../FreeRTOS-Plus/Source/FreeRTOS-Plus-TCP/FreeRTOS_IP.c **** 	configASSERT( sizeof( ICMPHeader_t ) == ipEXPECTED_ICMPHeader_t_SIZE );
 990:../../../FreeRTOS-Plus/Source/FreeRTOS-Plus-TCP/FreeRTOS_IP.c **** 	configASSERT( sizeof( UDPHeader_t ) == ipEXPECTED_UDPHeader_t_SIZE );
 991:../../../FreeRTOS-Plus/Source/FreeRTOS-Plus-TCP/FreeRTOS_IP.c **** 
 992:../../../FreeRTOS-Plus/Source/FreeRTOS-Plus-TCP/FreeRTOS_IP.c **** 	/* Attempt to create the queue used to communicate with the IP task. */
 993:../../../FreeRTOS-Plus/Source/FreeRTOS-Plus-TCP/FreeRTOS_IP.c **** 	xNetworkEventQueue = xQueueCreate( ( UBaseType_t ) ipconfigEVENT_QUEUE_LENGTH, ( UBaseType_t ) siz
 1487              		.loc 1 993 0
 1488 0068 2420     		movs	r0, #36
 1489 006a 0821     		movs	r1, #8
 1490 006c 0022     		movs	r2, #0
 1491 006e FFF7FEFF 		bl	xQueueGenericCreate
 1492 0072 0246     		mov	r2, r0
 1493 0074 514B     		ldr	r3, .L102
 1494 0076 1A60     		str	r2, [r3]
 994:../../../FreeRTOS-Plus/Source/FreeRTOS-Plus-TCP/FreeRTOS_IP.c **** 	configASSERT( xNetworkEventQueue );
 1495              		.loc 1 994 0
 1496 0078 504B     		ldr	r3, .L102
 1497 007a 1B68     		ldr	r3, [r3]
 1498 007c 002B     		cmp	r3, #0
 1499 007e 09D1     		bne	.L96
 1500              	.LBB20:
 1501              	.LBB21:
 1502              		.loc 2 237 0 discriminator 1
 1503              	@ 237 "../../../FreeRTOS_9_0/Source/portable/GCC/ARM_CM4F/portmacro.h" 1
 1504 0080 4FF05003 			mov r3, #80												
 1505 0084 83F31188 		msr basepri, r3											
 1506 0088 BFF36F8F 		isb														
 1507 008c BFF34F8F 		dsb														
 1508              	
 1509              	@ 0 "" 2
 1510              		.thumb
 1511 0090 7B61     		str	r3, [r7, #20]
 1512              	.L97:
 1513              	.LBE21:
 1514              	.LBE20:
 1515              		.loc 1 994 0 discriminator 9
 1516 0092 FEE7     		b	.L97
 1517              	.L96:
 995:../../../FreeRTOS-Plus/Source/FreeRTOS-Plus-TCP/FreeRTOS_IP.c **** 
 996:../../../FreeRTOS-Plus/Source/FreeRTOS-Plus-TCP/FreeRTOS_IP.c **** 	if( xNetworkEventQueue != NULL )
 1518              		.loc 1 996 0
 1519 0094 494B     		ldr	r3, .L102
 1520 0096 1B68     		ldr	r3, [r3]
 1521 0098 002B     		cmp	r3, #0
 1522 009a 00F08980 		beq	.L98
 997:../../../FreeRTOS-Plus/Source/FreeRTOS-Plus-TCP/FreeRTOS_IP.c **** 	{
 998:../../../FreeRTOS-Plus/Source/FreeRTOS-Plus-TCP/FreeRTOS_IP.c **** 		#if ( configQUEUE_REGISTRY_SIZE > 0 )
 999:../../../FreeRTOS-Plus/Source/FreeRTOS-Plus-TCP/FreeRTOS_IP.c **** 		{
1000:../../../FreeRTOS-Plus/Source/FreeRTOS-Plus-TCP/FreeRTOS_IP.c **** 			/* A queue registry is normally used to assist a kernel aware
1001:../../../FreeRTOS-Plus/Source/FreeRTOS-Plus-TCP/FreeRTOS_IP.c **** 			debugger.  If one is in use then it will be helpful for the debugger
1002:../../../FreeRTOS-Plus/Source/FreeRTOS-Plus-TCP/FreeRTOS_IP.c **** 			to show information about the network event queue. */
1003:../../../FreeRTOS-Plus/Source/FreeRTOS-Plus-TCP/FreeRTOS_IP.c **** 			vQueueAddToRegistry( xNetworkEventQueue, "NetEvnt" );
 1523              		.loc 1 1003 0
 1524 009e 474B     		ldr	r3, .L102
 1525 00a0 1B68     		ldr	r3, [r3]
 1526 00a2 1846     		mov	r0, r3
 1527 00a4 4749     		ldr	r1, .L102+8
 1528 00a6 FFF7FEFF 		bl	vQueueAddToRegistry
ARM GAS  /tmp/cc3wfdLm.s 			page 49


1004:../../../FreeRTOS-Plus/Source/FreeRTOS-Plus-TCP/FreeRTOS_IP.c **** 		}
1005:../../../FreeRTOS-Plus/Source/FreeRTOS-Plus-TCP/FreeRTOS_IP.c **** 		#endif /* configQUEUE_REGISTRY_SIZE */
1006:../../../FreeRTOS-Plus/Source/FreeRTOS-Plus-TCP/FreeRTOS_IP.c **** 
1007:../../../FreeRTOS-Plus/Source/FreeRTOS-Plus-TCP/FreeRTOS_IP.c **** 		if( xNetworkBuffersInitialise() == pdPASS )
 1529              		.loc 1 1007 0
 1530 00aa FFF7FEFF 		bl	xNetworkBuffersInitialise
 1531 00ae 0346     		mov	r3, r0
 1532 00b0 012B     		cmp	r3, #1
 1533 00b2 75D1     		bne	.L99
1008:../../../FreeRTOS-Plus/Source/FreeRTOS-Plus-TCP/FreeRTOS_IP.c **** 		{
1009:../../../FreeRTOS-Plus/Source/FreeRTOS-Plus-TCP/FreeRTOS_IP.c **** 			/* Store the local IP and MAC address. */
1010:../../../FreeRTOS-Plus/Source/FreeRTOS-Plus-TCP/FreeRTOS_IP.c **** 			xNetworkAddressing.ulDefaultIPAddress = FreeRTOS_inet_addr_quick( ucIPAddress[ 0 ], ucIPAddress[
 1534              		.loc 1 1010 0
 1535 00b4 FB68     		ldr	r3, [r7, #12]
 1536 00b6 0333     		adds	r3, r3, #3
 1537 00b8 1B78     		ldrb	r3, [r3]	@ zero_extendqisi2
 1538 00ba 1A06     		lsls	r2, r3, #24
 1539 00bc FB68     		ldr	r3, [r7, #12]
 1540 00be 0233     		adds	r3, r3, #2
 1541 00c0 1B78     		ldrb	r3, [r3]	@ zero_extendqisi2
 1542 00c2 1B04     		lsls	r3, r3, #16
 1543 00c4 1A43     		orrs	r2, r2, r3
 1544 00c6 FB68     		ldr	r3, [r7, #12]
 1545 00c8 0133     		adds	r3, r3, #1
 1546 00ca 1B78     		ldrb	r3, [r3]	@ zero_extendqisi2
 1547 00cc 1B02     		lsls	r3, r3, #8
 1548 00ce 1343     		orrs	r3, r3, r2
 1549 00d0 FA68     		ldr	r2, [r7, #12]
 1550 00d2 1278     		ldrb	r2, [r2]	@ zero_extendqisi2
 1551 00d4 1343     		orrs	r3, r3, r2
 1552 00d6 3C4A     		ldr	r2, .L102+12
 1553 00d8 1360     		str	r3, [r2]
1011:../../../FreeRTOS-Plus/Source/FreeRTOS-Plus-TCP/FreeRTOS_IP.c **** 			xNetworkAddressing.ulNetMask = FreeRTOS_inet_addr_quick( ucNetMask[ 0 ], ucNetMask[ 1 ], ucNetMa
 1554              		.loc 1 1011 0
 1555 00da BB68     		ldr	r3, [r7, #8]
 1556 00dc 0333     		adds	r3, r3, #3
 1557 00de 1B78     		ldrb	r3, [r3]	@ zero_extendqisi2
 1558 00e0 1A06     		lsls	r2, r3, #24
 1559 00e2 BB68     		ldr	r3, [r7, #8]
 1560 00e4 0233     		adds	r3, r3, #2
 1561 00e6 1B78     		ldrb	r3, [r3]	@ zero_extendqisi2
 1562 00e8 1B04     		lsls	r3, r3, #16
 1563 00ea 1A43     		orrs	r2, r2, r3
 1564 00ec BB68     		ldr	r3, [r7, #8]
 1565 00ee 0133     		adds	r3, r3, #1
 1566 00f0 1B78     		ldrb	r3, [r3]	@ zero_extendqisi2
 1567 00f2 1B02     		lsls	r3, r3, #8
 1568 00f4 1343     		orrs	r3, r3, r2
 1569 00f6 BA68     		ldr	r2, [r7, #8]
 1570 00f8 1278     		ldrb	r2, [r2]	@ zero_extendqisi2
 1571 00fa 1343     		orrs	r3, r3, r2
 1572 00fc 324A     		ldr	r2, .L102+12
 1573 00fe 5360     		str	r3, [r2, #4]
1012:../../../FreeRTOS-Plus/Source/FreeRTOS-Plus-TCP/FreeRTOS_IP.c **** 			xNetworkAddressing.ulGatewayAddress = FreeRTOS_inet_addr_quick( ucGatewayAddress[ 0 ], ucGateway
 1574              		.loc 1 1012 0
 1575 0100 7B68     		ldr	r3, [r7, #4]
 1576 0102 0333     		adds	r3, r3, #3
ARM GAS  /tmp/cc3wfdLm.s 			page 50


 1577 0104 1B78     		ldrb	r3, [r3]	@ zero_extendqisi2
 1578 0106 1A06     		lsls	r2, r3, #24
 1579 0108 7B68     		ldr	r3, [r7, #4]
 1580 010a 0233     		adds	r3, r3, #2
 1581 010c 1B78     		ldrb	r3, [r3]	@ zero_extendqisi2
 1582 010e 1B04     		lsls	r3, r3, #16
 1583 0110 1A43     		orrs	r2, r2, r3
 1584 0112 7B68     		ldr	r3, [r7, #4]
 1585 0114 0133     		adds	r3, r3, #1
 1586 0116 1B78     		ldrb	r3, [r3]	@ zero_extendqisi2
 1587 0118 1B02     		lsls	r3, r3, #8
 1588 011a 1343     		orrs	r3, r3, r2
 1589 011c 7A68     		ldr	r2, [r7, #4]
 1590 011e 1278     		ldrb	r2, [r2]	@ zero_extendqisi2
 1591 0120 1343     		orrs	r3, r3, r2
 1592 0122 294A     		ldr	r2, .L102+12
 1593 0124 9360     		str	r3, [r2, #8]
1013:../../../FreeRTOS-Plus/Source/FreeRTOS-Plus-TCP/FreeRTOS_IP.c **** 			xNetworkAddressing.ulDNSServerAddress = FreeRTOS_inet_addr_quick( ucDNSServerAddress[ 0 ], ucDNS
 1594              		.loc 1 1013 0
 1595 0126 3B68     		ldr	r3, [r7]
 1596 0128 0333     		adds	r3, r3, #3
 1597 012a 1B78     		ldrb	r3, [r3]	@ zero_extendqisi2
 1598 012c 1A06     		lsls	r2, r3, #24
 1599 012e 3B68     		ldr	r3, [r7]
 1600 0130 0233     		adds	r3, r3, #2
 1601 0132 1B78     		ldrb	r3, [r3]	@ zero_extendqisi2
 1602 0134 1B04     		lsls	r3, r3, #16
 1603 0136 1A43     		orrs	r2, r2, r3
 1604 0138 3B68     		ldr	r3, [r7]
 1605 013a 0133     		adds	r3, r3, #1
 1606 013c 1B78     		ldrb	r3, [r3]	@ zero_extendqisi2
 1607 013e 1B02     		lsls	r3, r3, #8
 1608 0140 1343     		orrs	r3, r3, r2
 1609 0142 3A68     		ldr	r2, [r7]
 1610 0144 1278     		ldrb	r2, [r2]	@ zero_extendqisi2
 1611 0146 1343     		orrs	r3, r3, r2
 1612 0148 1F4A     		ldr	r2, .L102+12
 1613 014a D360     		str	r3, [r2, #12]
1014:../../../FreeRTOS-Plus/Source/FreeRTOS-Plus-TCP/FreeRTOS_IP.c **** 			xNetworkAddressing.ulBroadcastAddress = ( xNetworkAddressing.ulDefaultIPAddress & xNetworkAddres
 1614              		.loc 1 1014 0
 1615 014c 1E4B     		ldr	r3, .L102+12
 1616 014e 1A68     		ldr	r2, [r3]
 1617 0150 1D4B     		ldr	r3, .L102+12
 1618 0152 5B68     		ldr	r3, [r3, #4]
 1619 0154 1A40     		ands	r2, r2, r3
 1620 0156 1C4B     		ldr	r3, .L102+12
 1621 0158 5B68     		ldr	r3, [r3, #4]
 1622 015a DB43     		mvns	r3, r3
 1623 015c 1343     		orrs	r3, r3, r2
 1624 015e 1A4A     		ldr	r2, .L102+12
 1625 0160 1361     		str	r3, [r2, #16]
1015:../../../FreeRTOS-Plus/Source/FreeRTOS-Plus-TCP/FreeRTOS_IP.c **** 
1016:../../../FreeRTOS-Plus/Source/FreeRTOS-Plus-TCP/FreeRTOS_IP.c **** 			memcpy( &xDefaultAddressing, &xNetworkAddressing, sizeof( xDefaultAddressing ) );
 1626              		.loc 1 1016 0
 1627 0162 1A4A     		ldr	r2, .L102+16
 1628 0164 184B     		ldr	r3, .L102+12
 1629 0166 1446     		mov	r4, r2
ARM GAS  /tmp/cc3wfdLm.s 			page 51


 1630 0168 1D46     		mov	r5, r3
 1631 016a 0FCD     		ldmia	r5!, {r0, r1, r2, r3}
 1632 016c 0FC4     		stmia	r4!, {r0, r1, r2, r3}
 1633 016e 2B68     		ldr	r3, [r5]
 1634 0170 2360     		str	r3, [r4]
1017:../../../FreeRTOS-Plus/Source/FreeRTOS-Plus-TCP/FreeRTOS_IP.c **** 
1018:../../../FreeRTOS-Plus/Source/FreeRTOS-Plus-TCP/FreeRTOS_IP.c **** 			#if ipconfigUSE_DHCP == 1
1019:../../../FreeRTOS-Plus/Source/FreeRTOS-Plus-TCP/FreeRTOS_IP.c **** 			{
1020:../../../FreeRTOS-Plus/Source/FreeRTOS-Plus-TCP/FreeRTOS_IP.c **** 				/* The IP address is not set until DHCP completes. */
1021:../../../FreeRTOS-Plus/Source/FreeRTOS-Plus-TCP/FreeRTOS_IP.c **** 				*ipLOCAL_IP_ADDRESS_POINTER = 0x00UL;
 1635              		.loc 1 1021 0
 1636 0172 174B     		ldr	r3, .L102+20
 1637 0174 0022     		movs	r2, #0
 1638 0176 5A61     		str	r2, [r3, #20]
1022:../../../FreeRTOS-Plus/Source/FreeRTOS-Plus-TCP/FreeRTOS_IP.c **** 			}
1023:../../../FreeRTOS-Plus/Source/FreeRTOS-Plus-TCP/FreeRTOS_IP.c **** 			#else
1024:../../../FreeRTOS-Plus/Source/FreeRTOS-Plus-TCP/FreeRTOS_IP.c **** 			{
1025:../../../FreeRTOS-Plus/Source/FreeRTOS-Plus-TCP/FreeRTOS_IP.c **** 				/* The IP address is set from the value passed in. */
1026:../../../FreeRTOS-Plus/Source/FreeRTOS-Plus-TCP/FreeRTOS_IP.c **** 				*ipLOCAL_IP_ADDRESS_POINTER = xNetworkAddressing.ulDefaultIPAddress;
1027:../../../FreeRTOS-Plus/Source/FreeRTOS-Plus-TCP/FreeRTOS_IP.c **** 
1028:../../../FreeRTOS-Plus/Source/FreeRTOS-Plus-TCP/FreeRTOS_IP.c **** 				/* Added to prevent ARP flood to gateway.  Ensure the
1029:../../../FreeRTOS-Plus/Source/FreeRTOS-Plus-TCP/FreeRTOS_IP.c **** 				gateway is on the same subnet as the IP	address. */
1030:../../../FreeRTOS-Plus/Source/FreeRTOS-Plus-TCP/FreeRTOS_IP.c **** 				configASSERT( ( ( *ipLOCAL_IP_ADDRESS_POINTER ) & xNetworkAddressing.ulNetMask ) == ( xNetworkA
1031:../../../FreeRTOS-Plus/Source/FreeRTOS-Plus-TCP/FreeRTOS_IP.c **** 			}
1032:../../../FreeRTOS-Plus/Source/FreeRTOS-Plus-TCP/FreeRTOS_IP.c **** 			#endif /* ipconfigUSE_DHCP == 1 */
1033:../../../FreeRTOS-Plus/Source/FreeRTOS-Plus-TCP/FreeRTOS_IP.c **** 
1034:../../../FreeRTOS-Plus/Source/FreeRTOS-Plus-TCP/FreeRTOS_IP.c **** 			/* The MAC address is stored in the start of the default packet
1035:../../../FreeRTOS-Plus/Source/FreeRTOS-Plus-TCP/FreeRTOS_IP.c **** 			header fragment, which is used when sending UDP packets. */
1036:../../../FreeRTOS-Plus/Source/FreeRTOS-Plus-TCP/FreeRTOS_IP.c **** 			memcpy( ( void * ) ipLOCAL_MAC_ADDRESS, ( void * ) ucMACAddress, ( size_t ) ipMAC_ADDRESS_LENGTH
 1639              		.loc 1 1036 0
 1640 0178 1548     		ldr	r0, .L102+20
 1641 017a B96B     		ldr	r1, [r7, #56]
 1642 017c 0622     		movs	r2, #6
 1643 017e FFF7FEFF 		bl	memcpy
1037:../../../FreeRTOS-Plus/Source/FreeRTOS-Plus-TCP/FreeRTOS_IP.c **** 
1038:../../../FreeRTOS-Plus/Source/FreeRTOS-Plus-TCP/FreeRTOS_IP.c **** 			/* Prepare the sockets interface. */
1039:../../../FreeRTOS-Plus/Source/FreeRTOS-Plus-TCP/FreeRTOS_IP.c **** 			vNetworkSocketsInit();
 1644              		.loc 1 1039 0
 1645 0182 FFF7FEFF 		bl	vNetworkSocketsInit
1040:../../../FreeRTOS-Plus/Source/FreeRTOS-Plus-TCP/FreeRTOS_IP.c **** 
1041:../../../FreeRTOS-Plus/Source/FreeRTOS-Plus-TCP/FreeRTOS_IP.c **** 			/* Create the task that processes Ethernet and stack events. */
1042:../../../FreeRTOS-Plus/Source/FreeRTOS-Plus-TCP/FreeRTOS_IP.c **** 			xReturn = xTaskCreate( prvIPTask, "IP-task", ( uint16_t ) ipconfigIP_TASK_STACK_SIZE_WORDS, NULL
 1646              		.loc 1 1042 0
 1647 0186 0523     		movs	r3, #5
 1648 0188 0093     		str	r3, [sp]
 1649 018a 0D4B     		ldr	r3, .L102+4
 1650 018c 0193     		str	r3, [sp, #4]
 1651 018e 1148     		ldr	r0, .L102+24
 1652 0190 1149     		ldr	r1, .L102+28
 1653 0192 4FF42072 		mov	r2, #640
 1654 0196 0023     		movs	r3, #0
 1655 0198 FFF7FEFF 		bl	xTaskCreate
 1656 019c 7862     		str	r0, [r7, #36]
 1657 019e 07E0     		b	.L98
 1658              	.L99:
1043:../../../FreeRTOS-Plus/Source/FreeRTOS-Plus-TCP/FreeRTOS_IP.c **** 		}
1044:../../../FreeRTOS-Plus/Source/FreeRTOS-Plus-TCP/FreeRTOS_IP.c **** 		else
ARM GAS  /tmp/cc3wfdLm.s 			page 52


1045:../../../FreeRTOS-Plus/Source/FreeRTOS-Plus-TCP/FreeRTOS_IP.c **** 		{
1046:../../../FreeRTOS-Plus/Source/FreeRTOS-Plus-TCP/FreeRTOS_IP.c **** 			FreeRTOS_debug_printf( ( "FreeRTOS_IPInit: xNetworkBuffersInitialise() failed\n") );
1047:../../../FreeRTOS-Plus/Source/FreeRTOS-Plus-TCP/FreeRTOS_IP.c **** 
1048:../../../FreeRTOS-Plus/Source/FreeRTOS-Plus-TCP/FreeRTOS_IP.c **** 			/* Clean up. */
1049:../../../FreeRTOS-Plus/Source/FreeRTOS-Plus-TCP/FreeRTOS_IP.c **** 			vQueueDelete( xNetworkEventQueue );
 1659              		.loc 1 1049 0
 1660 01a0 064B     		ldr	r3, .L102
 1661 01a2 1B68     		ldr	r3, [r3]
 1662 01a4 1846     		mov	r0, r3
 1663 01a6 FFF7FEFF 		bl	vQueueDelete
1050:../../../FreeRTOS-Plus/Source/FreeRTOS-Plus-TCP/FreeRTOS_IP.c **** 			xNetworkEventQueue = NULL;
 1664              		.loc 1 1050 0
 1665 01aa 044B     		ldr	r3, .L102
 1666 01ac 0022     		movs	r2, #0
 1667 01ae 1A60     		str	r2, [r3]
 1668              	.L98:
1051:../../../FreeRTOS-Plus/Source/FreeRTOS-Plus-TCP/FreeRTOS_IP.c **** 		}
1052:../../../FreeRTOS-Plus/Source/FreeRTOS-Plus-TCP/FreeRTOS_IP.c **** 	}
1053:../../../FreeRTOS-Plus/Source/FreeRTOS-Plus-TCP/FreeRTOS_IP.c **** 	else
1054:../../../FreeRTOS-Plus/Source/FreeRTOS-Plus-TCP/FreeRTOS_IP.c **** 	{
1055:../../../FreeRTOS-Plus/Source/FreeRTOS-Plus-TCP/FreeRTOS_IP.c **** 		FreeRTOS_debug_printf( ( "FreeRTOS_IPInit: Network event queue could not be created\n") );
1056:../../../FreeRTOS-Plus/Source/FreeRTOS-Plus-TCP/FreeRTOS_IP.c **** 	}
1057:../../../FreeRTOS-Plus/Source/FreeRTOS-Plus-TCP/FreeRTOS_IP.c **** 
1058:../../../FreeRTOS-Plus/Source/FreeRTOS-Plus-TCP/FreeRTOS_IP.c **** 	return xReturn;
 1669              		.loc 1 1058 0
 1670 01b0 7B6A     		ldr	r3, [r7, #36]
1059:../../../FreeRTOS-Plus/Source/FreeRTOS-Plus-TCP/FreeRTOS_IP.c **** }
 1671              		.loc 1 1059 0
 1672 01b2 1846     		mov	r0, r3
 1673 01b4 2837     		adds	r7, r7, #40
 1674              	.LCFI79:
 1675              		.cfi_def_cfa_offset 16
 1676 01b6 BD46     		mov	sp, r7
 1677              	.LCFI80:
 1678              		.cfi_def_cfa_register 13
 1679              		@ sp needed
 1680 01b8 B0BD     		pop	{r4, r5, r7, pc}
 1681              	.L103:
 1682 01ba 00BF     		.align	2
 1683              	.L102:
 1684 01bc 00000000 		.word	xNetworkEventQueue
 1685 01c0 00000000 		.word	xIPTaskHandle
 1686 01c4 00000000 		.word	.LC0
 1687 01c8 00000000 		.word	xNetworkAddressing
 1688 01cc 00000000 		.word	xDefaultAddressing
 1689 01d0 00000000 		.word	xDefaultPartUDPPacketHeader
 1690 01d4 00000000 		.word	prvIPTask
 1691 01d8 08000000 		.word	.LC1
 1692              		.cfi_endproc
 1693              	.LFE44:
 1695              		.section	.text.FreeRTOS_GetAddressConfiguration,"ax",%progbits
 1696              		.align	2
 1697              		.global	FreeRTOS_GetAddressConfiguration
 1698              		.thumb
 1699              		.thumb_func
 1701              	FreeRTOS_GetAddressConfiguration:
 1702              	.LFB45:
ARM GAS  /tmp/cc3wfdLm.s 			page 53


1060:../../../FreeRTOS-Plus/Source/FreeRTOS-Plus-TCP/FreeRTOS_IP.c **** /*-----------------------------------------------------------*/
1061:../../../FreeRTOS-Plus/Source/FreeRTOS-Plus-TCP/FreeRTOS_IP.c **** 
1062:../../../FreeRTOS-Plus/Source/FreeRTOS-Plus-TCP/FreeRTOS_IP.c **** void FreeRTOS_GetAddressConfiguration( uint32_t *pulIPAddress, uint32_t *pulNetMask, uint32_t *pulG
1063:../../../FreeRTOS-Plus/Source/FreeRTOS-Plus-TCP/FreeRTOS_IP.c **** {
 1703              		.loc 1 1063 0
 1704              		.cfi_startproc
 1705              		@ args = 0, pretend = 0, frame = 16
 1706              		@ frame_needed = 1, uses_anonymous_args = 0
 1707              		@ link register save eliminated.
 1708 0000 80B4     		push	{r7}
 1709              	.LCFI81:
 1710              		.cfi_def_cfa_offset 4
 1711              		.cfi_offset 7, -4
 1712 0002 85B0     		sub	sp, sp, #20
 1713              	.LCFI82:
 1714              		.cfi_def_cfa_offset 24
 1715 0004 00AF     		add	r7, sp, #0
 1716              	.LCFI83:
 1717              		.cfi_def_cfa_register 7
 1718 0006 F860     		str	r0, [r7, #12]
 1719 0008 B960     		str	r1, [r7, #8]
 1720 000a 7A60     		str	r2, [r7, #4]
 1721 000c 3B60     		str	r3, [r7]
1064:../../../FreeRTOS-Plus/Source/FreeRTOS-Plus-TCP/FreeRTOS_IP.c **** 	/* Return the address configuration to the caller. */
1065:../../../FreeRTOS-Plus/Source/FreeRTOS-Plus-TCP/FreeRTOS_IP.c **** 
1066:../../../FreeRTOS-Plus/Source/FreeRTOS-Plus-TCP/FreeRTOS_IP.c **** 	if( pulIPAddress != NULL )
 1722              		.loc 1 1066 0
 1723 000e FB68     		ldr	r3, [r7, #12]
 1724 0010 002B     		cmp	r3, #0
 1725 0012 03D0     		beq	.L105
1067:../../../FreeRTOS-Plus/Source/FreeRTOS-Plus-TCP/FreeRTOS_IP.c **** 	{
1068:../../../FreeRTOS-Plus/Source/FreeRTOS-Plus-TCP/FreeRTOS_IP.c **** 		*pulIPAddress = *ipLOCAL_IP_ADDRESS_POINTER;
 1726              		.loc 1 1068 0
 1727 0014 0E4B     		ldr	r3, .L109
 1728 0016 5A69     		ldr	r2, [r3, #20]
 1729 0018 FB68     		ldr	r3, [r7, #12]
 1730 001a 1A60     		str	r2, [r3]
 1731              	.L105:
1069:../../../FreeRTOS-Plus/Source/FreeRTOS-Plus-TCP/FreeRTOS_IP.c **** 	}
1070:../../../FreeRTOS-Plus/Source/FreeRTOS-Plus-TCP/FreeRTOS_IP.c **** 
1071:../../../FreeRTOS-Plus/Source/FreeRTOS-Plus-TCP/FreeRTOS_IP.c **** 	if( pulNetMask != NULL )
 1732              		.loc 1 1071 0
 1733 001c BB68     		ldr	r3, [r7, #8]
 1734 001e 002B     		cmp	r3, #0
 1735 0020 03D0     		beq	.L106
1072:../../../FreeRTOS-Plus/Source/FreeRTOS-Plus-TCP/FreeRTOS_IP.c **** 	{
1073:../../../FreeRTOS-Plus/Source/FreeRTOS-Plus-TCP/FreeRTOS_IP.c **** 		*pulNetMask = xNetworkAddressing.ulNetMask;
 1736              		.loc 1 1073 0
 1737 0022 0C4B     		ldr	r3, .L109+4
 1738 0024 5A68     		ldr	r2, [r3, #4]
 1739 0026 BB68     		ldr	r3, [r7, #8]
 1740 0028 1A60     		str	r2, [r3]
 1741              	.L106:
1074:../../../FreeRTOS-Plus/Source/FreeRTOS-Plus-TCP/FreeRTOS_IP.c **** 	}
1075:../../../FreeRTOS-Plus/Source/FreeRTOS-Plus-TCP/FreeRTOS_IP.c **** 
1076:../../../FreeRTOS-Plus/Source/FreeRTOS-Plus-TCP/FreeRTOS_IP.c **** 	if( pulGatewayAddress != NULL )
 1742              		.loc 1 1076 0
ARM GAS  /tmp/cc3wfdLm.s 			page 54


 1743 002a 7B68     		ldr	r3, [r7, #4]
 1744 002c 002B     		cmp	r3, #0
 1745 002e 03D0     		beq	.L107
1077:../../../FreeRTOS-Plus/Source/FreeRTOS-Plus-TCP/FreeRTOS_IP.c **** 	{
1078:../../../FreeRTOS-Plus/Source/FreeRTOS-Plus-TCP/FreeRTOS_IP.c **** 		*pulGatewayAddress = xNetworkAddressing.ulGatewayAddress;
 1746              		.loc 1 1078 0
 1747 0030 084B     		ldr	r3, .L109+4
 1748 0032 9A68     		ldr	r2, [r3, #8]
 1749 0034 7B68     		ldr	r3, [r7, #4]
 1750 0036 1A60     		str	r2, [r3]
 1751              	.L107:
1079:../../../FreeRTOS-Plus/Source/FreeRTOS-Plus-TCP/FreeRTOS_IP.c **** 	}
1080:../../../FreeRTOS-Plus/Source/FreeRTOS-Plus-TCP/FreeRTOS_IP.c **** 
1081:../../../FreeRTOS-Plus/Source/FreeRTOS-Plus-TCP/FreeRTOS_IP.c **** 	if( pulDNSServerAddress != NULL )
 1752              		.loc 1 1081 0
 1753 0038 3B68     		ldr	r3, [r7]
 1754 003a 002B     		cmp	r3, #0
 1755 003c 03D0     		beq	.L104
1082:../../../FreeRTOS-Plus/Source/FreeRTOS-Plus-TCP/FreeRTOS_IP.c **** 	{
1083:../../../FreeRTOS-Plus/Source/FreeRTOS-Plus-TCP/FreeRTOS_IP.c **** 		*pulDNSServerAddress = xNetworkAddressing.ulDNSServerAddress;
 1756              		.loc 1 1083 0
 1757 003e 054B     		ldr	r3, .L109+4
 1758 0040 DA68     		ldr	r2, [r3, #12]
 1759 0042 3B68     		ldr	r3, [r7]
 1760 0044 1A60     		str	r2, [r3]
 1761              	.L104:
1084:../../../FreeRTOS-Plus/Source/FreeRTOS-Plus-TCP/FreeRTOS_IP.c **** 	}
1085:../../../FreeRTOS-Plus/Source/FreeRTOS-Plus-TCP/FreeRTOS_IP.c **** }
 1762              		.loc 1 1085 0
 1763 0046 1437     		adds	r7, r7, #20
 1764              	.LCFI84:
 1765              		.cfi_def_cfa_offset 4
 1766 0048 BD46     		mov	sp, r7
 1767              	.LCFI85:
 1768              		.cfi_def_cfa_register 13
 1769              		@ sp needed
 1770 004a 5DF8047B 		ldr	r7, [sp], #4
 1771              	.LCFI86:
 1772              		.cfi_restore 7
 1773              		.cfi_def_cfa_offset 0
 1774 004e 7047     		bx	lr
 1775              	.L110:
 1776              		.align	2
 1777              	.L109:
 1778 0050 00000000 		.word	xDefaultPartUDPPacketHeader
 1779 0054 00000000 		.word	xNetworkAddressing
 1780              		.cfi_endproc
 1781              	.LFE45:
 1783              		.section	.text.FreeRTOS_SetAddressConfiguration,"ax",%progbits
 1784              		.align	2
 1785              		.global	FreeRTOS_SetAddressConfiguration
 1786              		.thumb
 1787              		.thumb_func
 1789              	FreeRTOS_SetAddressConfiguration:
 1790              	.LFB46:
1086:../../../FreeRTOS-Plus/Source/FreeRTOS-Plus-TCP/FreeRTOS_IP.c **** /*-----------------------------------------------------------*/
1087:../../../FreeRTOS-Plus/Source/FreeRTOS-Plus-TCP/FreeRTOS_IP.c **** 
ARM GAS  /tmp/cc3wfdLm.s 			page 55


1088:../../../FreeRTOS-Plus/Source/FreeRTOS-Plus-TCP/FreeRTOS_IP.c **** void FreeRTOS_SetAddressConfiguration( const uint32_t *pulIPAddress, const uint32_t *pulNetMask, co
1089:../../../FreeRTOS-Plus/Source/FreeRTOS-Plus-TCP/FreeRTOS_IP.c **** {
 1791              		.loc 1 1089 0
 1792              		.cfi_startproc
 1793              		@ args = 0, pretend = 0, frame = 16
 1794              		@ frame_needed = 1, uses_anonymous_args = 0
 1795              		@ link register save eliminated.
 1796 0000 80B4     		push	{r7}
 1797              	.LCFI87:
 1798              		.cfi_def_cfa_offset 4
 1799              		.cfi_offset 7, -4
 1800 0002 85B0     		sub	sp, sp, #20
 1801              	.LCFI88:
 1802              		.cfi_def_cfa_offset 24
 1803 0004 00AF     		add	r7, sp, #0
 1804              	.LCFI89:
 1805              		.cfi_def_cfa_register 7
 1806 0006 F860     		str	r0, [r7, #12]
 1807 0008 B960     		str	r1, [r7, #8]
 1808 000a 7A60     		str	r2, [r7, #4]
 1809 000c 3B60     		str	r3, [r7]
1090:../../../FreeRTOS-Plus/Source/FreeRTOS-Plus-TCP/FreeRTOS_IP.c **** 	/* Update the address configuration. */
1091:../../../FreeRTOS-Plus/Source/FreeRTOS-Plus-TCP/FreeRTOS_IP.c **** 
1092:../../../FreeRTOS-Plus/Source/FreeRTOS-Plus-TCP/FreeRTOS_IP.c **** 	if( pulIPAddress != NULL )
 1810              		.loc 1 1092 0
 1811 000e FB68     		ldr	r3, [r7, #12]
 1812 0010 002B     		cmp	r3, #0
 1813 0012 03D0     		beq	.L112
1093:../../../FreeRTOS-Plus/Source/FreeRTOS-Plus-TCP/FreeRTOS_IP.c **** 	{
1094:../../../FreeRTOS-Plus/Source/FreeRTOS-Plus-TCP/FreeRTOS_IP.c **** 		*ipLOCAL_IP_ADDRESS_POINTER = *pulIPAddress;
 1814              		.loc 1 1094 0
 1815 0014 FB68     		ldr	r3, [r7, #12]
 1816 0016 1B68     		ldr	r3, [r3]
 1817 0018 0D4A     		ldr	r2, .L116
 1818 001a 5361     		str	r3, [r2, #20]
 1819              	.L112:
1095:../../../FreeRTOS-Plus/Source/FreeRTOS-Plus-TCP/FreeRTOS_IP.c **** 	}
1096:../../../FreeRTOS-Plus/Source/FreeRTOS-Plus-TCP/FreeRTOS_IP.c **** 
1097:../../../FreeRTOS-Plus/Source/FreeRTOS-Plus-TCP/FreeRTOS_IP.c **** 	if( pulNetMask != NULL )
 1820              		.loc 1 1097 0
 1821 001c BB68     		ldr	r3, [r7, #8]
 1822 001e 002B     		cmp	r3, #0
 1823 0020 03D0     		beq	.L113
1098:../../../FreeRTOS-Plus/Source/FreeRTOS-Plus-TCP/FreeRTOS_IP.c **** 	{
1099:../../../FreeRTOS-Plus/Source/FreeRTOS-Plus-TCP/FreeRTOS_IP.c **** 		xNetworkAddressing.ulNetMask = *pulNetMask;
 1824              		.loc 1 1099 0
 1825 0022 BB68     		ldr	r3, [r7, #8]
 1826 0024 1B68     		ldr	r3, [r3]
 1827 0026 0B4A     		ldr	r2, .L116+4
 1828 0028 5360     		str	r3, [r2, #4]
 1829              	.L113:
1100:../../../FreeRTOS-Plus/Source/FreeRTOS-Plus-TCP/FreeRTOS_IP.c **** 	}
1101:../../../FreeRTOS-Plus/Source/FreeRTOS-Plus-TCP/FreeRTOS_IP.c **** 
1102:../../../FreeRTOS-Plus/Source/FreeRTOS-Plus-TCP/FreeRTOS_IP.c **** 	if( pulGatewayAddress != NULL )
 1830              		.loc 1 1102 0
 1831 002a 7B68     		ldr	r3, [r7, #4]
 1832 002c 002B     		cmp	r3, #0
ARM GAS  /tmp/cc3wfdLm.s 			page 56


 1833 002e 03D0     		beq	.L114
1103:../../../FreeRTOS-Plus/Source/FreeRTOS-Plus-TCP/FreeRTOS_IP.c **** 	{
1104:../../../FreeRTOS-Plus/Source/FreeRTOS-Plus-TCP/FreeRTOS_IP.c **** 		xNetworkAddressing.ulGatewayAddress = *pulGatewayAddress;
 1834              		.loc 1 1104 0
 1835 0030 7B68     		ldr	r3, [r7, #4]
 1836 0032 1B68     		ldr	r3, [r3]
 1837 0034 074A     		ldr	r2, .L116+4
 1838 0036 9360     		str	r3, [r2, #8]
 1839              	.L114:
1105:../../../FreeRTOS-Plus/Source/FreeRTOS-Plus-TCP/FreeRTOS_IP.c **** 	}
1106:../../../FreeRTOS-Plus/Source/FreeRTOS-Plus-TCP/FreeRTOS_IP.c **** 
1107:../../../FreeRTOS-Plus/Source/FreeRTOS-Plus-TCP/FreeRTOS_IP.c **** 	if( pulDNSServerAddress != NULL )
 1840              		.loc 1 1107 0
 1841 0038 3B68     		ldr	r3, [r7]
 1842 003a 002B     		cmp	r3, #0
 1843 003c 03D0     		beq	.L111
1108:../../../FreeRTOS-Plus/Source/FreeRTOS-Plus-TCP/FreeRTOS_IP.c **** 	{
1109:../../../FreeRTOS-Plus/Source/FreeRTOS-Plus-TCP/FreeRTOS_IP.c **** 		xNetworkAddressing.ulDNSServerAddress = *pulDNSServerAddress;
 1844              		.loc 1 1109 0
 1845 003e 3B68     		ldr	r3, [r7]
 1846 0040 1B68     		ldr	r3, [r3]
 1847 0042 044A     		ldr	r2, .L116+4
 1848 0044 D360     		str	r3, [r2, #12]
 1849              	.L111:
1110:../../../FreeRTOS-Plus/Source/FreeRTOS-Plus-TCP/FreeRTOS_IP.c **** 	}
1111:../../../FreeRTOS-Plus/Source/FreeRTOS-Plus-TCP/FreeRTOS_IP.c **** }
 1850              		.loc 1 1111 0
 1851 0046 1437     		adds	r7, r7, #20
 1852              	.LCFI90:
 1853              		.cfi_def_cfa_offset 4
 1854 0048 BD46     		mov	sp, r7
 1855              	.LCFI91:
 1856              		.cfi_def_cfa_register 13
 1857              		@ sp needed
 1858 004a 5DF8047B 		ldr	r7, [sp], #4
 1859              	.LCFI92:
 1860              		.cfi_restore 7
 1861              		.cfi_def_cfa_offset 0
 1862 004e 7047     		bx	lr
 1863              	.L117:
 1864              		.align	2
 1865              	.L116:
 1866 0050 00000000 		.word	xDefaultPartUDPPacketHeader
 1867 0054 00000000 		.word	xNetworkAddressing
 1868              		.cfi_endproc
 1869              	.LFE46:
 1871              		.section	.text.FreeRTOS_SendPingRequest,"ax",%progbits
 1872              		.align	2
 1873              		.global	FreeRTOS_SendPingRequest
 1874              		.thumb
 1875              		.thumb_func
 1877              	FreeRTOS_SendPingRequest:
 1878              	.LFB47:
1112:../../../FreeRTOS-Plus/Source/FreeRTOS-Plus-TCP/FreeRTOS_IP.c **** /*-----------------------------------------------------------*/
1113:../../../FreeRTOS-Plus/Source/FreeRTOS-Plus-TCP/FreeRTOS_IP.c **** 
1114:../../../FreeRTOS-Plus/Source/FreeRTOS-Plus-TCP/FreeRTOS_IP.c **** #if ( ipconfigSUPPORT_OUTGOING_PINGS == 1 )
1115:../../../FreeRTOS-Plus/Source/FreeRTOS-Plus-TCP/FreeRTOS_IP.c **** 
ARM GAS  /tmp/cc3wfdLm.s 			page 57


1116:../../../FreeRTOS-Plus/Source/FreeRTOS-Plus-TCP/FreeRTOS_IP.c **** 	BaseType_t FreeRTOS_SendPingRequest( uint32_t ulIPAddress, size_t xNumberOfBytesToSend, TickType_t
1117:../../../FreeRTOS-Plus/Source/FreeRTOS-Plus-TCP/FreeRTOS_IP.c **** 	{
 1879              		.loc 1 1117 0
 1880              		.cfi_startproc
 1881              		@ args = 0, pretend = 0, frame = 40
 1882              		@ frame_needed = 1, uses_anonymous_args = 0
 1883 0000 80B5     		push	{r7, lr}
 1884              	.LCFI93:
 1885              		.cfi_def_cfa_offset 8
 1886              		.cfi_offset 7, -8
 1887              		.cfi_offset 14, -4
 1888 0002 8AB0     		sub	sp, sp, #40
 1889              	.LCFI94:
 1890              		.cfi_def_cfa_offset 48
 1891 0004 00AF     		add	r7, sp, #0
 1892              	.LCFI95:
 1893              		.cfi_def_cfa_register 7
 1894 0006 F860     		str	r0, [r7, #12]
 1895 0008 B960     		str	r1, [r7, #8]
 1896 000a 7A60     		str	r2, [r7, #4]
1118:../../../FreeRTOS-Plus/Source/FreeRTOS-Plus-TCP/FreeRTOS_IP.c **** 	NetworkBufferDescriptor_t *pxNetworkBuffer;
1119:../../../FreeRTOS-Plus/Source/FreeRTOS-Plus-TCP/FreeRTOS_IP.c **** 	ICMPHeader_t *pxICMPHeader;
1120:../../../FreeRTOS-Plus/Source/FreeRTOS-Plus-TCP/FreeRTOS_IP.c **** 	BaseType_t xReturn = pdFAIL;
 1897              		.loc 1 1120 0
 1898 000c 0023     		movs	r3, #0
 1899 000e 7B62     		str	r3, [r7, #36]
1121:../../../FreeRTOS-Plus/Source/FreeRTOS-Plus-TCP/FreeRTOS_IP.c **** 	static uint16_t usSequenceNumber = 0;
1122:../../../FreeRTOS-Plus/Source/FreeRTOS-Plus-TCP/FreeRTOS_IP.c **** 	uint8_t *pucChar;
1123:../../../FreeRTOS-Plus/Source/FreeRTOS-Plus-TCP/FreeRTOS_IP.c **** 	IPStackEvent_t xStackTxEvent = { eStackTxEvent, NULL };
 1900              		.loc 1 1123 0
 1901 0010 0323     		movs	r3, #3
 1902 0012 3B74     		strb	r3, [r7, #16]
 1903 0014 0023     		movs	r3, #0
 1904 0016 7B61     		str	r3, [r7, #20]
1124:../../../FreeRTOS-Plus/Source/FreeRTOS-Plus-TCP/FreeRTOS_IP.c **** 
1125:../../../FreeRTOS-Plus/Source/FreeRTOS-Plus-TCP/FreeRTOS_IP.c **** 		if( xNumberOfBytesToSend < ( ( ipconfigNETWORK_MTU - sizeof( IPHeader_t ) ) - sizeof( ICMPHeader_
 1905              		.loc 1 1125 0
 1906 0018 BB68     		ldr	r3, [r7, #8]
 1907 001a B3F5B86F 		cmp	r3, #1472
 1908 001e 4DD2     		bcs	.L119
1126:../../../FreeRTOS-Plus/Source/FreeRTOS-Plus-TCP/FreeRTOS_IP.c **** 		{
1127:../../../FreeRTOS-Plus/Source/FreeRTOS-Plus-TCP/FreeRTOS_IP.c **** 			pxNetworkBuffer = pxGetNetworkBufferWithDescriptor( xNumberOfBytesToSend + sizeof( ICMPPacket_t 
 1909              		.loc 1 1127 0
 1910 0020 BB68     		ldr	r3, [r7, #8]
 1911 0022 2A33     		adds	r3, r3, #42
 1912 0024 1846     		mov	r0, r3
 1913 0026 7968     		ldr	r1, [r7, #4]
 1914 0028 FFF7FEFF 		bl	pxGetNetworkBufferWithDescriptor
 1915 002c 3862     		str	r0, [r7, #32]
1128:../../../FreeRTOS-Plus/Source/FreeRTOS-Plus-TCP/FreeRTOS_IP.c **** 
1129:../../../FreeRTOS-Plus/Source/FreeRTOS-Plus-TCP/FreeRTOS_IP.c **** 			if( pxNetworkBuffer != NULL )
 1916              		.loc 1 1129 0
 1917 002e 3B6A     		ldr	r3, [r7, #32]
 1918 0030 002B     		cmp	r3, #0
 1919 0032 43D0     		beq	.L119
1130:../../../FreeRTOS-Plus/Source/FreeRTOS-Plus-TCP/FreeRTOS_IP.c **** 			{
1131:../../../FreeRTOS-Plus/Source/FreeRTOS-Plus-TCP/FreeRTOS_IP.c **** 				pxICMPHeader = ( ICMPHeader_t * ) &( pxNetworkBuffer->pucEthernetBuffer[ ipIP_PAYLOAD_OFFSET ] 
ARM GAS  /tmp/cc3wfdLm.s 			page 58


 1920              		.loc 1 1131 0
 1921 0034 3B6A     		ldr	r3, [r7, #32]
 1922 0036 9B69     		ldr	r3, [r3, #24]
 1923 0038 2233     		adds	r3, r3, #34
 1924 003a FB61     		str	r3, [r7, #28]
1132:../../../FreeRTOS-Plus/Source/FreeRTOS-Plus-TCP/FreeRTOS_IP.c **** 				usSequenceNumber++;
 1925              		.loc 1 1132 0
 1926 003c 224B     		ldr	r3, .L123
 1927 003e 1B88     		ldrh	r3, [r3]
 1928 0040 0133     		adds	r3, r3, #1
 1929 0042 9AB2     		uxth	r2, r3
 1930 0044 204B     		ldr	r3, .L123
 1931 0046 1A80     		strh	r2, [r3]	@ movhi
1133:../../../FreeRTOS-Plus/Source/FreeRTOS-Plus-TCP/FreeRTOS_IP.c **** 
1134:../../../FreeRTOS-Plus/Source/FreeRTOS-Plus-TCP/FreeRTOS_IP.c **** 				/* Fill in the basic header information. */
1135:../../../FreeRTOS-Plus/Source/FreeRTOS-Plus-TCP/FreeRTOS_IP.c **** 				pxICMPHeader->ucTypeOfMessage = ipICMP_ECHO_REQUEST;
 1932              		.loc 1 1135 0
 1933 0048 FB69     		ldr	r3, [r7, #28]
 1934 004a 0822     		movs	r2, #8
 1935 004c 1A70     		strb	r2, [r3]
1136:../../../FreeRTOS-Plus/Source/FreeRTOS-Plus-TCP/FreeRTOS_IP.c **** 				pxICMPHeader->ucTypeOfService = 0;
 1936              		.loc 1 1136 0
 1937 004e FB69     		ldr	r3, [r7, #28]
 1938 0050 0022     		movs	r2, #0
 1939 0052 5A70     		strb	r2, [r3, #1]
1137:../../../FreeRTOS-Plus/Source/FreeRTOS-Plus-TCP/FreeRTOS_IP.c **** 				pxICMPHeader->usIdentifier = usSequenceNumber;
 1940              		.loc 1 1137 0
 1941 0054 1C4B     		ldr	r3, .L123
 1942 0056 1A88     		ldrh	r2, [r3]
 1943 0058 FB69     		ldr	r3, [r7, #28]
 1944 005a 9A80     		strh	r2, [r3, #4]	@ unaligned
1138:../../../FreeRTOS-Plus/Source/FreeRTOS-Plus-TCP/FreeRTOS_IP.c **** 				pxICMPHeader->usSequenceNumber = usSequenceNumber;
 1945              		.loc 1 1138 0
 1946 005c 1A4B     		ldr	r3, .L123
 1947 005e 1A88     		ldrh	r2, [r3]
 1948 0060 FB69     		ldr	r3, [r7, #28]
 1949 0062 DA80     		strh	r2, [r3, #6]	@ unaligned
1139:../../../FreeRTOS-Plus/Source/FreeRTOS-Plus-TCP/FreeRTOS_IP.c **** 
1140:../../../FreeRTOS-Plus/Source/FreeRTOS-Plus-TCP/FreeRTOS_IP.c **** 				/* Find the start of the data. */
1141:../../../FreeRTOS-Plus/Source/FreeRTOS-Plus-TCP/FreeRTOS_IP.c **** 				pucChar = ( uint8_t * ) pxICMPHeader;
 1950              		.loc 1 1141 0
 1951 0064 FB69     		ldr	r3, [r7, #28]
 1952 0066 BB61     		str	r3, [r7, #24]
1142:../../../FreeRTOS-Plus/Source/FreeRTOS-Plus-TCP/FreeRTOS_IP.c **** 				pucChar += sizeof( ICMPHeader_t );
 1953              		.loc 1 1142 0
 1954 0068 BB69     		ldr	r3, [r7, #24]
 1955 006a 0833     		adds	r3, r3, #8
 1956 006c BB61     		str	r3, [r7, #24]
1143:../../../FreeRTOS-Plus/Source/FreeRTOS-Plus-TCP/FreeRTOS_IP.c **** 
1144:../../../FreeRTOS-Plus/Source/FreeRTOS-Plus-TCP/FreeRTOS_IP.c **** 				/* Just memset the data to a fixed value. */
1145:../../../FreeRTOS-Plus/Source/FreeRTOS-Plus-TCP/FreeRTOS_IP.c **** 				memset( ( void * ) pucChar, ( int ) ipECHO_DATA_FILL_BYTE, xNumberOfBytesToSend );
 1957              		.loc 1 1145 0
 1958 006e B869     		ldr	r0, [r7, #24]
 1959 0070 7821     		movs	r1, #120
 1960 0072 BA68     		ldr	r2, [r7, #8]
 1961 0074 FFF7FEFF 		bl	memset
1146:../../../FreeRTOS-Plus/Source/FreeRTOS-Plus-TCP/FreeRTOS_IP.c **** 
ARM GAS  /tmp/cc3wfdLm.s 			page 59


1147:../../../FreeRTOS-Plus/Source/FreeRTOS-Plus-TCP/FreeRTOS_IP.c **** 				/* The message is complete, IP and checksum's are handled by
1148:../../../FreeRTOS-Plus/Source/FreeRTOS-Plus-TCP/FreeRTOS_IP.c **** 				vProcessGeneratedUDPPacket */
1149:../../../FreeRTOS-Plus/Source/FreeRTOS-Plus-TCP/FreeRTOS_IP.c **** 				pxNetworkBuffer->pucEthernetBuffer[ ipSOCKET_OPTIONS_OFFSET ] = FREERTOS_SO_UDPCKSUM_OUT;
 1962              		.loc 1 1149 0
 1963 0078 3B6A     		ldr	r3, [r7, #32]
 1964 007a 9B69     		ldr	r3, [r3, #24]
 1965 007c 0633     		adds	r3, r3, #6
 1966 007e 0222     		movs	r2, #2
 1967 0080 1A70     		strb	r2, [r3]
1150:../../../FreeRTOS-Plus/Source/FreeRTOS-Plus-TCP/FreeRTOS_IP.c **** 				pxNetworkBuffer->ulIPAddress = ulIPAddress;
 1968              		.loc 1 1150 0
 1969 0082 3B6A     		ldr	r3, [r7, #32]
 1970 0084 FA68     		ldr	r2, [r7, #12]
 1971 0086 5A61     		str	r2, [r3, #20]
1151:../../../FreeRTOS-Plus/Source/FreeRTOS-Plus-TCP/FreeRTOS_IP.c **** 				pxNetworkBuffer->usPort = ipPACKET_CONTAINS_ICMP_DATA;
 1972              		.loc 1 1151 0
 1973 0088 3B6A     		ldr	r3, [r7, #32]
 1974 008a 0022     		movs	r2, #0
 1975 008c 1A84     		strh	r2, [r3, #32]	@ movhi
1152:../../../FreeRTOS-Plus/Source/FreeRTOS-Plus-TCP/FreeRTOS_IP.c **** 				pxNetworkBuffer->xDataLength = xNumberOfBytesToSend + sizeof( ICMPHeader_t );
 1976              		.loc 1 1152 0
 1977 008e BB68     		ldr	r3, [r7, #8]
 1978 0090 03F10802 		add	r2, r3, #8
 1979 0094 3B6A     		ldr	r3, [r7, #32]
 1980 0096 DA61     		str	r2, [r3, #28]
1153:../../../FreeRTOS-Plus/Source/FreeRTOS-Plus-TCP/FreeRTOS_IP.c **** 
1154:../../../FreeRTOS-Plus/Source/FreeRTOS-Plus-TCP/FreeRTOS_IP.c **** 				/* Send to the stack. */
1155:../../../FreeRTOS-Plus/Source/FreeRTOS-Plus-TCP/FreeRTOS_IP.c **** 				xStackTxEvent.pvData = pxNetworkBuffer;
 1981              		.loc 1 1155 0
 1982 0098 3B6A     		ldr	r3, [r7, #32]
 1983 009a 7B61     		str	r3, [r7, #20]
1156:../../../FreeRTOS-Plus/Source/FreeRTOS-Plus-TCP/FreeRTOS_IP.c **** 
1157:../../../FreeRTOS-Plus/Source/FreeRTOS-Plus-TCP/FreeRTOS_IP.c **** 				if( xSendEventStructToIPTask( &xStackTxEvent, xBlockTimeTicks) != pdPASS )
 1984              		.loc 1 1157 0
 1985 009c 07F11003 		add	r3, r7, #16
 1986 00a0 1846     		mov	r0, r3
 1987 00a2 7968     		ldr	r1, [r7, #4]
 1988 00a4 FFF7FEFF 		bl	xSendEventStructToIPTask
 1989 00a8 0346     		mov	r3, r0
 1990 00aa 012B     		cmp	r3, #1
 1991 00ac 03D0     		beq	.L121
1158:../../../FreeRTOS-Plus/Source/FreeRTOS-Plus-TCP/FreeRTOS_IP.c **** 				{
1159:../../../FreeRTOS-Plus/Source/FreeRTOS-Plus-TCP/FreeRTOS_IP.c **** 					vReleaseNetworkBufferAndDescriptor( pxNetworkBuffer );
 1992              		.loc 1 1159 0
 1993 00ae 386A     		ldr	r0, [r7, #32]
 1994 00b0 FFF7FEFF 		bl	vReleaseNetworkBufferAndDescriptor
 1995 00b4 02E0     		b	.L119
 1996              	.L121:
1160:../../../FreeRTOS-Plus/Source/FreeRTOS-Plus-TCP/FreeRTOS_IP.c **** 					iptraceSTACK_TX_EVENT_LOST( ipSTACK_TX_EVENT );
1161:../../../FreeRTOS-Plus/Source/FreeRTOS-Plus-TCP/FreeRTOS_IP.c **** 				}
1162:../../../FreeRTOS-Plus/Source/FreeRTOS-Plus-TCP/FreeRTOS_IP.c **** 				else
1163:../../../FreeRTOS-Plus/Source/FreeRTOS-Plus-TCP/FreeRTOS_IP.c **** 				{
1164:../../../FreeRTOS-Plus/Source/FreeRTOS-Plus-TCP/FreeRTOS_IP.c **** 					xReturn = usSequenceNumber;
 1997              		.loc 1 1164 0
 1998 00b6 044B     		ldr	r3, .L123
 1999 00b8 1B88     		ldrh	r3, [r3]
 2000 00ba 7B62     		str	r3, [r7, #36]
ARM GAS  /tmp/cc3wfdLm.s 			page 60


 2001              	.L119:
1165:../../../FreeRTOS-Plus/Source/FreeRTOS-Plus-TCP/FreeRTOS_IP.c **** 				}
1166:../../../FreeRTOS-Plus/Source/FreeRTOS-Plus-TCP/FreeRTOS_IP.c **** 			}
1167:../../../FreeRTOS-Plus/Source/FreeRTOS-Plus-TCP/FreeRTOS_IP.c **** 		}
1168:../../../FreeRTOS-Plus/Source/FreeRTOS-Plus-TCP/FreeRTOS_IP.c **** 		else
1169:../../../FreeRTOS-Plus/Source/FreeRTOS-Plus-TCP/FreeRTOS_IP.c **** 		{
1170:../../../FreeRTOS-Plus/Source/FreeRTOS-Plus-TCP/FreeRTOS_IP.c **** 			/* The requested number of bytes will not fit in the available space
1171:../../../FreeRTOS-Plus/Source/FreeRTOS-Plus-TCP/FreeRTOS_IP.c **** 			in the network buffer. */
1172:../../../FreeRTOS-Plus/Source/FreeRTOS-Plus-TCP/FreeRTOS_IP.c **** 		}
1173:../../../FreeRTOS-Plus/Source/FreeRTOS-Plus-TCP/FreeRTOS_IP.c **** 
1174:../../../FreeRTOS-Plus/Source/FreeRTOS-Plus-TCP/FreeRTOS_IP.c **** 		return xReturn;
 2002              		.loc 1 1174 0
 2003 00bc 7B6A     		ldr	r3, [r7, #36]
1175:../../../FreeRTOS-Plus/Source/FreeRTOS-Plus-TCP/FreeRTOS_IP.c **** 	}
 2004              		.loc 1 1175 0
 2005 00be 1846     		mov	r0, r3
 2006 00c0 2837     		adds	r7, r7, #40
 2007              	.LCFI96:
 2008              		.cfi_def_cfa_offset 8
 2009 00c2 BD46     		mov	sp, r7
 2010              	.LCFI97:
 2011              		.cfi_def_cfa_register 13
 2012              		@ sp needed
 2013 00c4 80BD     		pop	{r7, pc}
 2014              	.L124:
 2015 00c6 00BF     		.align	2
 2016              	.L123:
 2017 00c8 00000000 		.word	usSequenceNumber.7323
 2018              		.cfi_endproc
 2019              	.LFE47:
 2021              		.section	.text.xSendEventToIPTask,"ax",%progbits
 2022              		.align	2
 2023              		.global	xSendEventToIPTask
 2024              		.thumb
 2025              		.thumb_func
 2027              	xSendEventToIPTask:
 2028              	.LFB48:
1176:../../../FreeRTOS-Plus/Source/FreeRTOS-Plus-TCP/FreeRTOS_IP.c **** 
1177:../../../FreeRTOS-Plus/Source/FreeRTOS-Plus-TCP/FreeRTOS_IP.c **** #endif /* ipconfigSUPPORT_OUTGOING_PINGS == 1 */
1178:../../../FreeRTOS-Plus/Source/FreeRTOS-Plus-TCP/FreeRTOS_IP.c **** /*-----------------------------------------------------------*/
1179:../../../FreeRTOS-Plus/Source/FreeRTOS-Plus-TCP/FreeRTOS_IP.c **** 
1180:../../../FreeRTOS-Plus/Source/FreeRTOS-Plus-TCP/FreeRTOS_IP.c **** BaseType_t xSendEventToIPTask( eIPEvent_t eEvent )
1181:../../../FreeRTOS-Plus/Source/FreeRTOS-Plus-TCP/FreeRTOS_IP.c **** {
 2029              		.loc 1 1181 0
 2030              		.cfi_startproc
 2031              		@ args = 0, pretend = 0, frame = 24
 2032              		@ frame_needed = 1, uses_anonymous_args = 0
 2033 0000 80B5     		push	{r7, lr}
 2034              	.LCFI98:
 2035              		.cfi_def_cfa_offset 8
 2036              		.cfi_offset 7, -8
 2037              		.cfi_offset 14, -4
 2038 0002 86B0     		sub	sp, sp, #24
 2039              	.LCFI99:
 2040              		.cfi_def_cfa_offset 32
 2041 0004 00AF     		add	r7, sp, #0
 2042              	.LCFI100:
ARM GAS  /tmp/cc3wfdLm.s 			page 61


 2043              		.cfi_def_cfa_register 7
 2044 0006 0346     		mov	r3, r0
 2045 0008 FB71     		strb	r3, [r7, #7]
1182:../../../FreeRTOS-Plus/Source/FreeRTOS-Plus-TCP/FreeRTOS_IP.c **** IPStackEvent_t xEventMessage;
1183:../../../FreeRTOS-Plus/Source/FreeRTOS-Plus-TCP/FreeRTOS_IP.c **** const TickType_t xDontBlock = ( TickType_t ) 0;
 2046              		.loc 1 1183 0
 2047 000a 0023     		movs	r3, #0
 2048 000c 7B61     		str	r3, [r7, #20]
1184:../../../FreeRTOS-Plus/Source/FreeRTOS-Plus-TCP/FreeRTOS_IP.c **** 
1185:../../../FreeRTOS-Plus/Source/FreeRTOS-Plus-TCP/FreeRTOS_IP.c **** 	xEventMessage.eEventType = eEvent;
 2049              		.loc 1 1185 0
 2050 000e FB79     		ldrb	r3, [r7, #7]
 2051 0010 3B73     		strb	r3, [r7, #12]
1186:../../../FreeRTOS-Plus/Source/FreeRTOS-Plus-TCP/FreeRTOS_IP.c **** 	xEventMessage.pvData = ( void* )NULL;
 2052              		.loc 1 1186 0
 2053 0012 0023     		movs	r3, #0
 2054 0014 3B61     		str	r3, [r7, #16]
1187:../../../FreeRTOS-Plus/Source/FreeRTOS-Plus-TCP/FreeRTOS_IP.c **** 
1188:../../../FreeRTOS-Plus/Source/FreeRTOS-Plus-TCP/FreeRTOS_IP.c **** 	return xSendEventStructToIPTask( &xEventMessage, xDontBlock );
 2055              		.loc 1 1188 0
 2056 0016 07F10C03 		add	r3, r7, #12
 2057 001a 1846     		mov	r0, r3
 2058 001c 7969     		ldr	r1, [r7, #20]
 2059 001e FFF7FEFF 		bl	xSendEventStructToIPTask
 2060 0022 0346     		mov	r3, r0
1189:../../../FreeRTOS-Plus/Source/FreeRTOS-Plus-TCP/FreeRTOS_IP.c **** }
 2061              		.loc 1 1189 0
 2062 0024 1846     		mov	r0, r3
 2063 0026 1837     		adds	r7, r7, #24
 2064              	.LCFI101:
 2065              		.cfi_def_cfa_offset 8
 2066 0028 BD46     		mov	sp, r7
 2067              	.LCFI102:
 2068              		.cfi_def_cfa_register 13
 2069              		@ sp needed
 2070 002a 80BD     		pop	{r7, pc}
 2071              		.cfi_endproc
 2072              	.LFE48:
 2074              		.section	.text.xSendEventStructToIPTask,"ax",%progbits
 2075              		.align	2
 2076              		.global	xSendEventStructToIPTask
 2077              		.thumb
 2078              		.thumb_func
 2080              	xSendEventStructToIPTask:
 2081              	.LFB49:
1190:../../../FreeRTOS-Plus/Source/FreeRTOS-Plus-TCP/FreeRTOS_IP.c **** /*-----------------------------------------------------------*/
1191:../../../FreeRTOS-Plus/Source/FreeRTOS-Plus-TCP/FreeRTOS_IP.c **** 
1192:../../../FreeRTOS-Plus/Source/FreeRTOS-Plus-TCP/FreeRTOS_IP.c **** BaseType_t xSendEventStructToIPTask( const IPStackEvent_t *pxEvent, TickType_t xTimeout )
1193:../../../FreeRTOS-Plus/Source/FreeRTOS-Plus-TCP/FreeRTOS_IP.c **** {
 2082              		.loc 1 1193 0
 2083              		.cfi_startproc
 2084              		@ args = 0, pretend = 0, frame = 16
 2085              		@ frame_needed = 1, uses_anonymous_args = 0
 2086 0000 80B5     		push	{r7, lr}
 2087              	.LCFI103:
 2088              		.cfi_def_cfa_offset 8
 2089              		.cfi_offset 7, -8
ARM GAS  /tmp/cc3wfdLm.s 			page 62


 2090              		.cfi_offset 14, -4
 2091 0002 84B0     		sub	sp, sp, #16
 2092              	.LCFI104:
 2093              		.cfi_def_cfa_offset 24
 2094 0004 00AF     		add	r7, sp, #0
 2095              	.LCFI105:
 2096              		.cfi_def_cfa_register 7
 2097 0006 7860     		str	r0, [r7, #4]
 2098 0008 3960     		str	r1, [r7]
1194:../../../FreeRTOS-Plus/Source/FreeRTOS-Plus-TCP/FreeRTOS_IP.c **** BaseType_t xReturn, xSendMessage;
1195:../../../FreeRTOS-Plus/Source/FreeRTOS-Plus-TCP/FreeRTOS_IP.c **** 
1196:../../../FreeRTOS-Plus/Source/FreeRTOS-Plus-TCP/FreeRTOS_IP.c **** 	if( ( xIPIsNetworkTaskReady() == pdFALSE ) && ( pxEvent->eEventType != eNetworkDownEvent ) )
 2099              		.loc 1 1196 0
 2100 000a FFF7FEFF 		bl	xIPIsNetworkTaskReady
 2101 000e 0346     		mov	r3, r0
 2102 0010 002B     		cmp	r3, #0
 2103 0012 06D1     		bne	.L128
 2104              		.loc 1 1196 0 is_stmt 0 discriminator 1
 2105 0014 7B68     		ldr	r3, [r7, #4]
 2106 0016 1B78     		ldrb	r3, [r3]	@ zero_extendqisi2
 2107 0018 002B     		cmp	r3, #0
 2108 001a 02D0     		beq	.L128
1197:../../../FreeRTOS-Plus/Source/FreeRTOS-Plus-TCP/FreeRTOS_IP.c **** 	{
1198:../../../FreeRTOS-Plus/Source/FreeRTOS-Plus-TCP/FreeRTOS_IP.c **** 		/* Only allow eNetworkDownEvent events if the IP task is not ready
1199:../../../FreeRTOS-Plus/Source/FreeRTOS-Plus-TCP/FreeRTOS_IP.c **** 		yet.  Not going to attempt to send the message so the send failed. */
1200:../../../FreeRTOS-Plus/Source/FreeRTOS-Plus-TCP/FreeRTOS_IP.c **** 		xReturn = pdFAIL;
 2109              		.loc 1 1200 0 is_stmt 1
 2110 001c 0023     		movs	r3, #0
 2111 001e FB60     		str	r3, [r7, #12]
 2112 0020 2EE0     		b	.L129
 2113              	.L128:
1201:../../../FreeRTOS-Plus/Source/FreeRTOS-Plus-TCP/FreeRTOS_IP.c **** 	}
1202:../../../FreeRTOS-Plus/Source/FreeRTOS-Plus-TCP/FreeRTOS_IP.c **** 	else
1203:../../../FreeRTOS-Plus/Source/FreeRTOS-Plus-TCP/FreeRTOS_IP.c **** 	{
1204:../../../FreeRTOS-Plus/Source/FreeRTOS-Plus-TCP/FreeRTOS_IP.c **** 		xSendMessage = pdTRUE;
 2114              		.loc 1 1204 0
 2115 0022 0123     		movs	r3, #1
 2116 0024 BB60     		str	r3, [r7, #8]
1205:../../../FreeRTOS-Plus/Source/FreeRTOS-Plus-TCP/FreeRTOS_IP.c **** 
1206:../../../FreeRTOS-Plus/Source/FreeRTOS-Plus-TCP/FreeRTOS_IP.c **** 		#if( ipconfigUSE_TCP == 1 )
1207:../../../FreeRTOS-Plus/Source/FreeRTOS-Plus-TCP/FreeRTOS_IP.c **** 		{
1208:../../../FreeRTOS-Plus/Source/FreeRTOS-Plus-TCP/FreeRTOS_IP.c **** 			if( pxEvent->eEventType == eTCPTimerEvent )
 2117              		.loc 1 1208 0
 2118 0026 7B68     		ldr	r3, [r7, #4]
 2119 0028 1B78     		ldrb	r3, [r3]	@ zero_extendqisi2
 2120 002a 5BB2     		sxtb	r3, r3
 2121 002c 052B     		cmp	r3, #5
 2122 002e 0ED1     		bne	.L130
1209:../../../FreeRTOS-Plus/Source/FreeRTOS-Plus-TCP/FreeRTOS_IP.c **** 			{
1210:../../../FreeRTOS-Plus/Source/FreeRTOS-Plus-TCP/FreeRTOS_IP.c **** 				/* TCP timer events are sent to wake the timer task when
1211:../../../FreeRTOS-Plus/Source/FreeRTOS-Plus-TCP/FreeRTOS_IP.c **** 				xTCPTimer has expired, but there is no point sending them if the
1212:../../../FreeRTOS-Plus/Source/FreeRTOS-Plus-TCP/FreeRTOS_IP.c **** 				IP task is already awake processing other message. */
1213:../../../FreeRTOS-Plus/Source/FreeRTOS-Plus-TCP/FreeRTOS_IP.c **** 				xTCPTimer.bExpired = pdTRUE_UNSIGNED;
 2123              		.loc 1 1213 0
 2124 0030 164A     		ldr	r2, .L134
 2125 0032 1378     		ldrb	r3, [r2]
 2126 0034 43F00203 		orr	r3, r3, #2
ARM GAS  /tmp/cc3wfdLm.s 			page 63


 2127 0038 1370     		strb	r3, [r2]
1214:../../../FreeRTOS-Plus/Source/FreeRTOS-Plus-TCP/FreeRTOS_IP.c **** 
1215:../../../FreeRTOS-Plus/Source/FreeRTOS-Plus-TCP/FreeRTOS_IP.c **** 				if( uxQueueMessagesWaiting( xNetworkEventQueue ) != 0u )
 2128              		.loc 1 1215 0
 2129 003a 154B     		ldr	r3, .L134+4
 2130 003c 1B68     		ldr	r3, [r3]
 2131 003e 1846     		mov	r0, r3
 2132 0040 FFF7FEFF 		bl	uxQueueMessagesWaiting
 2133 0044 0346     		mov	r3, r0
 2134 0046 002B     		cmp	r3, #0
 2135 0048 01D0     		beq	.L130
1216:../../../FreeRTOS-Plus/Source/FreeRTOS-Plus-TCP/FreeRTOS_IP.c **** 				{
1217:../../../FreeRTOS-Plus/Source/FreeRTOS-Plus-TCP/FreeRTOS_IP.c **** 					/* Not actually going to send the message but this is not a
1218:../../../FreeRTOS-Plus/Source/FreeRTOS-Plus-TCP/FreeRTOS_IP.c **** 					failure as the message didn't need to be sent. */
1219:../../../FreeRTOS-Plus/Source/FreeRTOS-Plus-TCP/FreeRTOS_IP.c **** 					xSendMessage = pdFALSE;
 2136              		.loc 1 1219 0
 2137 004a 0023     		movs	r3, #0
 2138 004c BB60     		str	r3, [r7, #8]
 2139              	.L130:
1220:../../../FreeRTOS-Plus/Source/FreeRTOS-Plus-TCP/FreeRTOS_IP.c **** 				}
1221:../../../FreeRTOS-Plus/Source/FreeRTOS-Plus-TCP/FreeRTOS_IP.c **** 			}
1222:../../../FreeRTOS-Plus/Source/FreeRTOS-Plus-TCP/FreeRTOS_IP.c **** 		}
1223:../../../FreeRTOS-Plus/Source/FreeRTOS-Plus-TCP/FreeRTOS_IP.c **** 		#endif /* ipconfigUSE_TCP */
1224:../../../FreeRTOS-Plus/Source/FreeRTOS-Plus-TCP/FreeRTOS_IP.c **** 
1225:../../../FreeRTOS-Plus/Source/FreeRTOS-Plus-TCP/FreeRTOS_IP.c **** 		if( xSendMessage != pdFALSE )
 2140              		.loc 1 1225 0
 2141 004e BB68     		ldr	r3, [r7, #8]
 2142 0050 002B     		cmp	r3, #0
 2143 0052 13D0     		beq	.L131
1226:../../../FreeRTOS-Plus/Source/FreeRTOS-Plus-TCP/FreeRTOS_IP.c **** 		{
1227:../../../FreeRTOS-Plus/Source/FreeRTOS-Plus-TCP/FreeRTOS_IP.c **** 			/* The IP task cannot block itself while waiting for itself to
1228:../../../FreeRTOS-Plus/Source/FreeRTOS-Plus-TCP/FreeRTOS_IP.c **** 			respond. */
1229:../../../FreeRTOS-Plus/Source/FreeRTOS-Plus-TCP/FreeRTOS_IP.c **** 			if( ( xIsCallingFromIPTask() == pdTRUE ) && ( xTimeout > ( TickType_t ) 0 ) )
 2144              		.loc 1 1229 0
 2145 0054 FFF7FEFF 		bl	xIsCallingFromIPTask
 2146 0058 0346     		mov	r3, r0
 2147 005a 012B     		cmp	r3, #1
 2148 005c 04D1     		bne	.L132
 2149              		.loc 1 1229 0 is_stmt 0 discriminator 1
 2150 005e 3B68     		ldr	r3, [r7]
 2151 0060 002B     		cmp	r3, #0
 2152 0062 01D0     		beq	.L132
1230:../../../FreeRTOS-Plus/Source/FreeRTOS-Plus-TCP/FreeRTOS_IP.c **** 			{
1231:../../../FreeRTOS-Plus/Source/FreeRTOS-Plus-TCP/FreeRTOS_IP.c **** 				xTimeout = ( TickType_t ) 0;
 2153              		.loc 1 1231 0 is_stmt 1
 2154 0064 0023     		movs	r3, #0
 2155 0066 3B60     		str	r3, [r7]
 2156              	.L132:
1232:../../../FreeRTOS-Plus/Source/FreeRTOS-Plus-TCP/FreeRTOS_IP.c **** 			}
1233:../../../FreeRTOS-Plus/Source/FreeRTOS-Plus-TCP/FreeRTOS_IP.c **** 
1234:../../../FreeRTOS-Plus/Source/FreeRTOS-Plus-TCP/FreeRTOS_IP.c **** 			xReturn = xQueueSendToBack( xNetworkEventQueue, pxEvent, xTimeout );
 2157              		.loc 1 1234 0
 2158 0068 094B     		ldr	r3, .L134+4
 2159 006a 1B68     		ldr	r3, [r3]
 2160 006c 1846     		mov	r0, r3
 2161 006e 7968     		ldr	r1, [r7, #4]
 2162 0070 3A68     		ldr	r2, [r7]
ARM GAS  /tmp/cc3wfdLm.s 			page 64


 2163 0072 0023     		movs	r3, #0
 2164 0074 FFF7FEFF 		bl	xQueueGenericSend
 2165 0078 F860     		str	r0, [r7, #12]
 2166 007a 01E0     		b	.L129
 2167              	.L131:
1235:../../../FreeRTOS-Plus/Source/FreeRTOS-Plus-TCP/FreeRTOS_IP.c **** 
1236:../../../FreeRTOS-Plus/Source/FreeRTOS-Plus-TCP/FreeRTOS_IP.c **** 			if( xReturn == pdFAIL )
1237:../../../FreeRTOS-Plus/Source/FreeRTOS-Plus-TCP/FreeRTOS_IP.c **** 			{
1238:../../../FreeRTOS-Plus/Source/FreeRTOS-Plus-TCP/FreeRTOS_IP.c **** 				/* A message should have been sent to the IP task, but wasn't. */
1239:../../../FreeRTOS-Plus/Source/FreeRTOS-Plus-TCP/FreeRTOS_IP.c **** 				FreeRTOS_debug_printf( ( "xSendEventStructToIPTask: CAN NOT ADD %d\n", pxEvent->eEventType ) );
1240:../../../FreeRTOS-Plus/Source/FreeRTOS-Plus-TCP/FreeRTOS_IP.c **** 				iptraceSTACK_TX_EVENT_LOST( pxEvent->eEventType );
1241:../../../FreeRTOS-Plus/Source/FreeRTOS-Plus-TCP/FreeRTOS_IP.c **** 			}
1242:../../../FreeRTOS-Plus/Source/FreeRTOS-Plus-TCP/FreeRTOS_IP.c **** 		}
1243:../../../FreeRTOS-Plus/Source/FreeRTOS-Plus-TCP/FreeRTOS_IP.c **** 		else
1244:../../../FreeRTOS-Plus/Source/FreeRTOS-Plus-TCP/FreeRTOS_IP.c **** 		{
1245:../../../FreeRTOS-Plus/Source/FreeRTOS-Plus-TCP/FreeRTOS_IP.c **** 			/* It was not necessary to send the message to process the event so
1246:../../../FreeRTOS-Plus/Source/FreeRTOS-Plus-TCP/FreeRTOS_IP.c **** 			even though the message was not sent the call was successful. */
1247:../../../FreeRTOS-Plus/Source/FreeRTOS-Plus-TCP/FreeRTOS_IP.c **** 			xReturn = pdPASS;
 2168              		.loc 1 1247 0
 2169 007c 0123     		movs	r3, #1
 2170 007e FB60     		str	r3, [r7, #12]
 2171              	.L129:
1248:../../../FreeRTOS-Plus/Source/FreeRTOS-Plus-TCP/FreeRTOS_IP.c **** 		}
1249:../../../FreeRTOS-Plus/Source/FreeRTOS-Plus-TCP/FreeRTOS_IP.c **** 	}
1250:../../../FreeRTOS-Plus/Source/FreeRTOS-Plus-TCP/FreeRTOS_IP.c **** 
1251:../../../FreeRTOS-Plus/Source/FreeRTOS-Plus-TCP/FreeRTOS_IP.c **** 	return xReturn;
 2172              		.loc 1 1251 0
 2173 0080 FB68     		ldr	r3, [r7, #12]
1252:../../../FreeRTOS-Plus/Source/FreeRTOS-Plus-TCP/FreeRTOS_IP.c **** }
 2174              		.loc 1 1252 0
 2175 0082 1846     		mov	r0, r3
 2176 0084 1037     		adds	r7, r7, #16
 2177              	.LCFI106:
 2178              		.cfi_def_cfa_offset 8
 2179 0086 BD46     		mov	sp, r7
 2180              	.LCFI107:
 2181              		.cfi_def_cfa_register 13
 2182              		@ sp needed
 2183 0088 80BD     		pop	{r7, pc}
 2184              	.L135:
 2185 008a 00BF     		.align	2
 2186              	.L134:
 2187 008c 00000000 		.word	xTCPTimer
 2188 0090 00000000 		.word	xNetworkEventQueue
 2189              		.cfi_endproc
 2190              	.LFE49:
 2192              		.section	.text.eConsiderFrameForProcessing,"ax",%progbits
 2193              		.align	2
 2194              		.global	eConsiderFrameForProcessing
 2195              		.thumb
 2196              		.thumb_func
 2198              	eConsiderFrameForProcessing:
 2199              	.LFB50:
1253:../../../FreeRTOS-Plus/Source/FreeRTOS-Plus-TCP/FreeRTOS_IP.c **** /*-----------------------------------------------------------*/
1254:../../../FreeRTOS-Plus/Source/FreeRTOS-Plus-TCP/FreeRTOS_IP.c **** 
1255:../../../FreeRTOS-Plus/Source/FreeRTOS-Plus-TCP/FreeRTOS_IP.c **** eFrameProcessingResult_t eConsiderFrameForProcessing( const uint8_t * const pucEthernetBuffer )
1256:../../../FreeRTOS-Plus/Source/FreeRTOS-Plus-TCP/FreeRTOS_IP.c **** {
ARM GAS  /tmp/cc3wfdLm.s 			page 65


 2200              		.loc 1 1256 0
 2201              		.cfi_startproc
 2202              		@ args = 0, pretend = 0, frame = 24
 2203              		@ frame_needed = 1, uses_anonymous_args = 0
 2204 0000 80B5     		push	{r7, lr}
 2205              	.LCFI108:
 2206              		.cfi_def_cfa_offset 8
 2207              		.cfi_offset 7, -8
 2208              		.cfi_offset 14, -4
 2209 0002 86B0     		sub	sp, sp, #24
 2210              	.LCFI109:
 2211              		.cfi_def_cfa_offset 32
 2212 0004 00AF     		add	r7, sp, #0
 2213              	.LCFI110:
 2214              		.cfi_def_cfa_register 7
 2215 0006 7860     		str	r0, [r7, #4]
1257:../../../FreeRTOS-Plus/Source/FreeRTOS-Plus-TCP/FreeRTOS_IP.c **** eFrameProcessingResult_t eReturn;
1258:../../../FreeRTOS-Plus/Source/FreeRTOS-Plus-TCP/FreeRTOS_IP.c **** const EthernetHeader_t *pxEthernetHeader;
1259:../../../FreeRTOS-Plus/Source/FreeRTOS-Plus-TCP/FreeRTOS_IP.c **** 
1260:../../../FreeRTOS-Plus/Source/FreeRTOS-Plus-TCP/FreeRTOS_IP.c **** 	pxEthernetHeader = ( const EthernetHeader_t * ) pucEthernetBuffer;
 2216              		.loc 1 1260 0
 2217 0008 7B68     		ldr	r3, [r7, #4]
 2218 000a 3B61     		str	r3, [r7, #16]
1261:../../../FreeRTOS-Plus/Source/FreeRTOS-Plus-TCP/FreeRTOS_IP.c **** 
1262:../../../FreeRTOS-Plus/Source/FreeRTOS-Plus-TCP/FreeRTOS_IP.c **** 	if( memcmp( ( void * ) ipLOCAL_MAC_ADDRESS, ( void * ) &( pxEthernetHeader->xDestinationAddress ),
 2219              		.loc 1 1262 0
 2220 000c 3B69     		ldr	r3, [r7, #16]
 2221 000e 2148     		ldr	r0, .L143
 2222 0010 1946     		mov	r1, r3
 2223 0012 0622     		movs	r2, #6
 2224 0014 FFF7FEFF 		bl	memcmp
 2225 0018 0346     		mov	r3, r0
 2226 001a 002B     		cmp	r3, #0
 2227 001c 02D1     		bne	.L137
1263:../../../FreeRTOS-Plus/Source/FreeRTOS-Plus-TCP/FreeRTOS_IP.c **** 	{
1264:../../../FreeRTOS-Plus/Source/FreeRTOS-Plus-TCP/FreeRTOS_IP.c **** 		/* The packet was directed to this node directly - process it. */
1265:../../../FreeRTOS-Plus/Source/FreeRTOS-Plus-TCP/FreeRTOS_IP.c **** 		eReturn = eProcessBuffer;
 2228              		.loc 1 1265 0
 2229 001e 0123     		movs	r3, #1
 2230 0020 FB75     		strb	r3, [r7, #23]
 2231 0022 19E0     		b	.L138
 2232              	.L137:
1266:../../../FreeRTOS-Plus/Source/FreeRTOS-Plus-TCP/FreeRTOS_IP.c **** 	}
1267:../../../FreeRTOS-Plus/Source/FreeRTOS-Plus-TCP/FreeRTOS_IP.c **** 	else if( memcmp( ( void * ) xBroadcastMACAddress.ucBytes, ( void * ) pxEthernetHeader->xDestinatio
 2233              		.loc 1 1267 0
 2234 0024 3B69     		ldr	r3, [r7, #16]
 2235 0026 1C48     		ldr	r0, .L143+4
 2236 0028 1946     		mov	r1, r3
 2237 002a 0622     		movs	r2, #6
 2238 002c FFF7FEFF 		bl	memcmp
 2239 0030 0346     		mov	r3, r0
 2240 0032 002B     		cmp	r3, #0
 2241 0034 02D1     		bne	.L139
1268:../../../FreeRTOS-Plus/Source/FreeRTOS-Plus-TCP/FreeRTOS_IP.c **** 	{
1269:../../../FreeRTOS-Plus/Source/FreeRTOS-Plus-TCP/FreeRTOS_IP.c **** 		/* The packet was a broadcast - process it. */
1270:../../../FreeRTOS-Plus/Source/FreeRTOS-Plus-TCP/FreeRTOS_IP.c **** 		eReturn = eProcessBuffer;
 2242              		.loc 1 1270 0
ARM GAS  /tmp/cc3wfdLm.s 			page 66


 2243 0036 0123     		movs	r3, #1
 2244 0038 FB75     		strb	r3, [r7, #23]
 2245 003a 0DE0     		b	.L138
 2246              	.L139:
1271:../../../FreeRTOS-Plus/Source/FreeRTOS-Plus-TCP/FreeRTOS_IP.c **** 	}
1272:../../../FreeRTOS-Plus/Source/FreeRTOS-Plus-TCP/FreeRTOS_IP.c **** 	else
1273:../../../FreeRTOS-Plus/Source/FreeRTOS-Plus-TCP/FreeRTOS_IP.c **** #if( ipconfigUSE_LLMNR == 1 )
1274:../../../FreeRTOS-Plus/Source/FreeRTOS-Plus-TCP/FreeRTOS_IP.c **** 	if( memcmp( ( void * ) xLLMNR_MacAdress.ucBytes, ( void * ) pxEthernetHeader->xDestinationAddress.
 2247              		.loc 1 1274 0
 2248 003c 3B69     		ldr	r3, [r7, #16]
 2249 003e 1748     		ldr	r0, .L143+8
 2250 0040 1946     		mov	r1, r3
 2251 0042 0622     		movs	r2, #6
 2252 0044 FFF7FEFF 		bl	memcmp
 2253 0048 0346     		mov	r3, r0
 2254 004a 002B     		cmp	r3, #0
 2255 004c 02D1     		bne	.L140
1275:../../../FreeRTOS-Plus/Source/FreeRTOS-Plus-TCP/FreeRTOS_IP.c **** 	{
1276:../../../FreeRTOS-Plus/Source/FreeRTOS-Plus-TCP/FreeRTOS_IP.c **** 		/* The packet is a request for LLMNR - process it. */
1277:../../../FreeRTOS-Plus/Source/FreeRTOS-Plus-TCP/FreeRTOS_IP.c **** 		eReturn = eProcessBuffer;
 2256              		.loc 1 1277 0
 2257 004e 0123     		movs	r3, #1
 2258 0050 FB75     		strb	r3, [r7, #23]
 2259 0052 01E0     		b	.L138
 2260              	.L140:
1278:../../../FreeRTOS-Plus/Source/FreeRTOS-Plus-TCP/FreeRTOS_IP.c **** 	}
1279:../../../FreeRTOS-Plus/Source/FreeRTOS-Plus-TCP/FreeRTOS_IP.c **** 	else
1280:../../../FreeRTOS-Plus/Source/FreeRTOS-Plus-TCP/FreeRTOS_IP.c **** #endif /* ipconfigUSE_LLMNR */
1281:../../../FreeRTOS-Plus/Source/FreeRTOS-Plus-TCP/FreeRTOS_IP.c **** 	{
1282:../../../FreeRTOS-Plus/Source/FreeRTOS-Plus-TCP/FreeRTOS_IP.c **** 		/* The packet was not a broadcast, or for this node, just release
1283:../../../FreeRTOS-Plus/Source/FreeRTOS-Plus-TCP/FreeRTOS_IP.c **** 		the buffer without taking any other action. */
1284:../../../FreeRTOS-Plus/Source/FreeRTOS-Plus-TCP/FreeRTOS_IP.c **** 		eReturn = eReleaseBuffer;
 2261              		.loc 1 1284 0
 2262 0054 0023     		movs	r3, #0
 2263 0056 FB75     		strb	r3, [r7, #23]
 2264              	.L138:
 2265              	.LBB22:
1285:../../../FreeRTOS-Plus/Source/FreeRTOS-Plus-TCP/FreeRTOS_IP.c **** 	}
1286:../../../FreeRTOS-Plus/Source/FreeRTOS-Plus-TCP/FreeRTOS_IP.c **** 
1287:../../../FreeRTOS-Plus/Source/FreeRTOS-Plus-TCP/FreeRTOS_IP.c **** 	#if( ipconfigFILTER_OUT_NON_ETHERNET_II_FRAMES == 1 )
1288:../../../FreeRTOS-Plus/Source/FreeRTOS-Plus-TCP/FreeRTOS_IP.c **** 	{
1289:../../../FreeRTOS-Plus/Source/FreeRTOS-Plus-TCP/FreeRTOS_IP.c **** 	uint16_t usFrameType;
1290:../../../FreeRTOS-Plus/Source/FreeRTOS-Plus-TCP/FreeRTOS_IP.c **** 
1291:../../../FreeRTOS-Plus/Source/FreeRTOS-Plus-TCP/FreeRTOS_IP.c **** 		if( eReturn == eProcessBuffer )
 2266              		.loc 1 1291 0
 2267 0058 FB7D     		ldrb	r3, [r7, #23]	@ zero_extendqisi2
 2268 005a 012B     		cmp	r3, #1
 2269 005c 15D1     		bne	.L141
1292:../../../FreeRTOS-Plus/Source/FreeRTOS-Plus-TCP/FreeRTOS_IP.c **** 		{
1293:../../../FreeRTOS-Plus/Source/FreeRTOS-Plus-TCP/FreeRTOS_IP.c **** 			usFrameType = pxEthernetHeader->usFrameType;
 2270              		.loc 1 1293 0
 2271 005e 3B69     		ldr	r3, [r7, #16]
 2272 0060 1A7B     		ldrb	r2, [r3, #12]	@ zero_extendqisi2
 2273 0062 5B7B     		ldrb	r3, [r3, #13]	@ zero_extendqisi2
 2274 0064 1B02     		lsls	r3, r3, #8
 2275 0066 1343     		orrs	r3, r3, r2
 2276 0068 FB81     		strh	r3, [r7, #14]	@ movhi
ARM GAS  /tmp/cc3wfdLm.s 			page 67


1294:../../../FreeRTOS-Plus/Source/FreeRTOS-Plus-TCP/FreeRTOS_IP.c **** 			usFrameType = FreeRTOS_ntohs( usFrameType );
 2277              		.loc 1 1294 0
 2278 006a FB89     		ldrh	r3, [r7, #14]
 2279 006c 1B02     		lsls	r3, r3, #8
 2280 006e 9AB2     		uxth	r2, r3
 2281 0070 FB89     		ldrh	r3, [r7, #14]
 2282 0072 1B0A     		lsrs	r3, r3, #8
 2283 0074 9BB2     		uxth	r3, r3
 2284 0076 9BB2     		uxth	r3, r3
 2285 0078 1343     		orrs	r3, r3, r2
 2286 007a 9BB2     		uxth	r3, r3
 2287 007c FB81     		strh	r3, [r7, #14]	@ movhi
1295:../../../FreeRTOS-Plus/Source/FreeRTOS-Plus-TCP/FreeRTOS_IP.c **** 
1296:../../../FreeRTOS-Plus/Source/FreeRTOS-Plus-TCP/FreeRTOS_IP.c **** 			if( usFrameType <= 0x600U )
 2288              		.loc 1 1296 0
 2289 007e FB89     		ldrh	r3, [r7, #14]
 2290 0080 B3F5C06F 		cmp	r3, #1536
 2291 0084 01D8     		bhi	.L141
1297:../../../FreeRTOS-Plus/Source/FreeRTOS-Plus-TCP/FreeRTOS_IP.c **** 			{
1298:../../../FreeRTOS-Plus/Source/FreeRTOS-Plus-TCP/FreeRTOS_IP.c **** 				/* Not an Ethernet II frame. */
1299:../../../FreeRTOS-Plus/Source/FreeRTOS-Plus-TCP/FreeRTOS_IP.c **** 				eReturn = eReleaseBuffer;
 2292              		.loc 1 1299 0
 2293 0086 0023     		movs	r3, #0
 2294 0088 FB75     		strb	r3, [r7, #23]
 2295              	.L141:
 2296              	.LBE22:
1300:../../../FreeRTOS-Plus/Source/FreeRTOS-Plus-TCP/FreeRTOS_IP.c **** 			}
1301:../../../FreeRTOS-Plus/Source/FreeRTOS-Plus-TCP/FreeRTOS_IP.c **** 		}
1302:../../../FreeRTOS-Plus/Source/FreeRTOS-Plus-TCP/FreeRTOS_IP.c **** 	}
1303:../../../FreeRTOS-Plus/Source/FreeRTOS-Plus-TCP/FreeRTOS_IP.c **** 	#endif /* ipconfigFILTER_OUT_NON_ETHERNET_II_FRAMES == 1  */
1304:../../../FreeRTOS-Plus/Source/FreeRTOS-Plus-TCP/FreeRTOS_IP.c **** 
1305:../../../FreeRTOS-Plus/Source/FreeRTOS-Plus-TCP/FreeRTOS_IP.c **** 	return eReturn;
 2297              		.loc 1 1305 0
 2298 008a FB7D     		ldrb	r3, [r7, #23]	@ zero_extendqisi2
1306:../../../FreeRTOS-Plus/Source/FreeRTOS-Plus-TCP/FreeRTOS_IP.c **** }
 2299              		.loc 1 1306 0
 2300 008c 1846     		mov	r0, r3
 2301 008e 1837     		adds	r7, r7, #24
 2302              	.LCFI111:
 2303              		.cfi_def_cfa_offset 8
 2304 0090 BD46     		mov	sp, r7
 2305              	.LCFI112:
 2306              		.cfi_def_cfa_register 13
 2307              		@ sp needed
 2308 0092 80BD     		pop	{r7, pc}
 2309              	.L144:
 2310              		.align	2
 2311              	.L143:
 2312 0094 00000000 		.word	xDefaultPartUDPPacketHeader
 2313 0098 00000000 		.word	xBroadcastMACAddress
 2314 009c 00000000 		.word	xLLMNR_MacAdress
 2315              		.cfi_endproc
 2316              	.LFE50:
 2318              		.section	.text.prvProcessNetworkDownEvent,"ax",%progbits
 2319              		.align	2
 2320              		.thumb
 2321              		.thumb_func
ARM GAS  /tmp/cc3wfdLm.s 			page 68


 2323              	prvProcessNetworkDownEvent:
 2324              	.LFB51:
1307:../../../FreeRTOS-Plus/Source/FreeRTOS-Plus-TCP/FreeRTOS_IP.c **** /*-----------------------------------------------------------*/
1308:../../../FreeRTOS-Plus/Source/FreeRTOS-Plus-TCP/FreeRTOS_IP.c **** 
1309:../../../FreeRTOS-Plus/Source/FreeRTOS-Plus-TCP/FreeRTOS_IP.c **** static void prvProcessNetworkDownEvent( void )
1310:../../../FreeRTOS-Plus/Source/FreeRTOS-Plus-TCP/FreeRTOS_IP.c **** {
 2325              		.loc 1 1310 0
