ARM GAS  /tmp/ccrA3BdH.s 			page 1


   1              		.syntax unified
   2              		.cpu cortex-m7
   3              		.eabi_attribute 27, 1
   4              		.eabi_attribute 28, 1
   5              		.fpu fpv5-sp-d16
   6              		.eabi_attribute 20, 1
   7              		.eabi_attribute 21, 1
   8              		.eabi_attribute 23, 3
   9              		.eabi_attribute 24, 1
  10              		.eabi_attribute 25, 1
  11              		.eabi_attribute 26, 1
  12              		.eabi_attribute 30, 6
  13              		.eabi_attribute 34, 1
  14              		.eabi_attribute 18, 4
  15              		.thumb
  16              		.file	"FreeRTOS_Sockets.c"
  17              		.text
  18              	.Ltext0:
  19              		.cfi_sections	.debug_frame
  20              		.section	.text.FreeRTOS_max_uint32,"ax",%progbits
  21              		.align	2
  22              		.thumb
  23              		.thumb_func
  25              	FreeRTOS_max_uint32:
  26              	.LFB6:
  27              		.file 1 "../../../FreeRTOS-Plus/Source/FreeRTOS-Plus-TCP/include/FreeRTOS_IP.h"
   1:../../../FreeRTOS-Plus/Source/FreeRTOS-Plus-TCP/include/FreeRTOS_IP.h **** /*
   2:../../../FreeRTOS-Plus/Source/FreeRTOS-Plus-TCP/include/FreeRTOS_IP.h ****  * FreeRTOS+TCP Labs Build 160919 (C) 2016 Real Time Engineers ltd.
   3:../../../FreeRTOS-Plus/Source/FreeRTOS-Plus-TCP/include/FreeRTOS_IP.h ****  * Authors include Hein Tibosch and Richard Barry
   4:../../../FreeRTOS-Plus/Source/FreeRTOS-Plus-TCP/include/FreeRTOS_IP.h ****  *
   5:../../../FreeRTOS-Plus/Source/FreeRTOS-Plus-TCP/include/FreeRTOS_IP.h ****  *******************************************************************************
   6:../../../FreeRTOS-Plus/Source/FreeRTOS-Plus-TCP/include/FreeRTOS_IP.h ****  ***** NOTE ******* NOTE ******* NOTE ******* NOTE ******* NOTE ******* NOTE ***
   7:../../../FreeRTOS-Plus/Source/FreeRTOS-Plus-TCP/include/FreeRTOS_IP.h ****  ***                                                                         ***
   8:../../../FreeRTOS-Plus/Source/FreeRTOS-Plus-TCP/include/FreeRTOS_IP.h ****  ***                                                                         ***
   9:../../../FreeRTOS-Plus/Source/FreeRTOS-Plus-TCP/include/FreeRTOS_IP.h ****  ***   FREERTOS+TCP IS STILL IN THE LAB (mainly because the FTP and HTTP     ***
  10:../../../FreeRTOS-Plus/Source/FreeRTOS-Plus-TCP/include/FreeRTOS_IP.h ****  ***   demos have a dependency on FreeRTOS+FAT, which is only in the Labs    ***
  11:../../../FreeRTOS-Plus/Source/FreeRTOS-Plus-TCP/include/FreeRTOS_IP.h ****  ***   download):                                                            ***
  12:../../../FreeRTOS-Plus/Source/FreeRTOS-Plus-TCP/include/FreeRTOS_IP.h ****  ***                                                                         ***
  13:../../../FreeRTOS-Plus/Source/FreeRTOS-Plus-TCP/include/FreeRTOS_IP.h ****  ***   FreeRTOS+TCP is functional and has been used in commercial products   ***
  14:../../../FreeRTOS-Plus/Source/FreeRTOS-Plus-TCP/include/FreeRTOS_IP.h ****  ***   for some time.  Be aware however that we are still refining its       ***
  15:../../../FreeRTOS-Plus/Source/FreeRTOS-Plus-TCP/include/FreeRTOS_IP.h ****  ***   design, the source code does not yet quite conform to the strict      ***
  16:../../../FreeRTOS-Plus/Source/FreeRTOS-Plus-TCP/include/FreeRTOS_IP.h ****  ***   coding and style standards mandated by Real Time Engineers ltd., and  ***
  17:../../../FreeRTOS-Plus/Source/FreeRTOS-Plus-TCP/include/FreeRTOS_IP.h ****  ***   the documentation and testing is not necessarily complete.            ***
  18:../../../FreeRTOS-Plus/Source/FreeRTOS-Plus-TCP/include/FreeRTOS_IP.h ****  ***                                                                         ***
  19:../../../FreeRTOS-Plus/Source/FreeRTOS-Plus-TCP/include/FreeRTOS_IP.h ****  ***   PLEASE REPORT EXPERIENCES USING THE SUPPORT RESOURCES FOUND ON THE    ***
  20:../../../FreeRTOS-Plus/Source/FreeRTOS-Plus-TCP/include/FreeRTOS_IP.h ****  ***   URL: http://www.FreeRTOS.org/contact  Active early adopters may, at   ***
  21:../../../FreeRTOS-Plus/Source/FreeRTOS-Plus-TCP/include/FreeRTOS_IP.h ****  ***   the sole discretion of Real Time Engineers Ltd., be offered versions  ***
  22:../../../FreeRTOS-Plus/Source/FreeRTOS-Plus-TCP/include/FreeRTOS_IP.h ****  ***   under a license other than that described below.                      ***
  23:../../../FreeRTOS-Plus/Source/FreeRTOS-Plus-TCP/include/FreeRTOS_IP.h ****  ***                                                                         ***
  24:../../../FreeRTOS-Plus/Source/FreeRTOS-Plus-TCP/include/FreeRTOS_IP.h ****  ***                                                                         ***
  25:../../../FreeRTOS-Plus/Source/FreeRTOS-Plus-TCP/include/FreeRTOS_IP.h ****  ***** NOTE ******* NOTE ******* NOTE ******* NOTE ******* NOTE ******* NOTE ***
  26:../../../FreeRTOS-Plus/Source/FreeRTOS-Plus-TCP/include/FreeRTOS_IP.h ****  *******************************************************************************
  27:../../../FreeRTOS-Plus/Source/FreeRTOS-Plus-TCP/include/FreeRTOS_IP.h ****  *
  28:../../../FreeRTOS-Plus/Source/FreeRTOS-Plus-TCP/include/FreeRTOS_IP.h ****  * FreeRTOS+TCP can be used under two different free open source licenses.  The
  29:../../../FreeRTOS-Plus/Source/FreeRTOS-Plus-TCP/include/FreeRTOS_IP.h ****  * license that applies is dependent on the processor on which FreeRTOS+TCP is
  30:../../../FreeRTOS-Plus/Source/FreeRTOS-Plus-TCP/include/FreeRTOS_IP.h ****  * executed, as follows:
  31:../../../FreeRTOS-Plus/Source/FreeRTOS-Plus-TCP/include/FreeRTOS_IP.h ****  *
ARM GAS  /tmp/ccrA3BdH.s 			page 2


  32:../../../FreeRTOS-Plus/Source/FreeRTOS-Plus-TCP/include/FreeRTOS_IP.h ****  * If FreeRTOS+TCP is executed on one of the processors listed under the Special
  33:../../../FreeRTOS-Plus/Source/FreeRTOS-Plus-TCP/include/FreeRTOS_IP.h ****  * License Arrangements heading of the FreeRTOS+TCP license information web
  34:../../../FreeRTOS-Plus/Source/FreeRTOS-Plus-TCP/include/FreeRTOS_IP.h ****  * page, then it can be used under the terms of the FreeRTOS Open Source
  35:../../../FreeRTOS-Plus/Source/FreeRTOS-Plus-TCP/include/FreeRTOS_IP.h ****  * License.  If FreeRTOS+TCP is used on any other processor, then it can be used
  36:../../../FreeRTOS-Plus/Source/FreeRTOS-Plus-TCP/include/FreeRTOS_IP.h ****  * under the terms of the GNU General Public License V2.  Links to the relevant
  37:../../../FreeRTOS-Plus/Source/FreeRTOS-Plus-TCP/include/FreeRTOS_IP.h ****  * licenses follow:
  38:../../../FreeRTOS-Plus/Source/FreeRTOS-Plus-TCP/include/FreeRTOS_IP.h ****  *
  39:../../../FreeRTOS-Plus/Source/FreeRTOS-Plus-TCP/include/FreeRTOS_IP.h ****  * The FreeRTOS+TCP License Information Page: http://www.FreeRTOS.org/tcp_license
  40:../../../FreeRTOS-Plus/Source/FreeRTOS-Plus-TCP/include/FreeRTOS_IP.h ****  * The FreeRTOS Open Source License: http://www.FreeRTOS.org/license
  41:../../../FreeRTOS-Plus/Source/FreeRTOS-Plus-TCP/include/FreeRTOS_IP.h ****  * The GNU General Public License Version 2: http://www.FreeRTOS.org/gpl-2.0.txt
  42:../../../FreeRTOS-Plus/Source/FreeRTOS-Plus-TCP/include/FreeRTOS_IP.h ****  *
  43:../../../FreeRTOS-Plus/Source/FreeRTOS-Plus-TCP/include/FreeRTOS_IP.h ****  * FreeRTOS+TCP is distributed in the hope that it will be useful.  You cannot
  44:../../../FreeRTOS-Plus/Source/FreeRTOS-Plus-TCP/include/FreeRTOS_IP.h ****  * use FreeRTOS+TCP unless you agree that you use the software 'as is'.
  45:../../../FreeRTOS-Plus/Source/FreeRTOS-Plus-TCP/include/FreeRTOS_IP.h ****  * FreeRTOS+TCP is provided WITHOUT ANY WARRANTY; without even the implied
  46:../../../FreeRTOS-Plus/Source/FreeRTOS-Plus-TCP/include/FreeRTOS_IP.h ****  * warranties of NON-INFRINGEMENT, MERCHANTABILITY or FITNESS FOR A PARTICULAR
  47:../../../FreeRTOS-Plus/Source/FreeRTOS-Plus-TCP/include/FreeRTOS_IP.h ****  * PURPOSE. Real Time Engineers Ltd. disclaims all conditions and terms, be they
  48:../../../FreeRTOS-Plus/Source/FreeRTOS-Plus-TCP/include/FreeRTOS_IP.h ****  * implied, expressed, or statutory.
  49:../../../FreeRTOS-Plus/Source/FreeRTOS-Plus-TCP/include/FreeRTOS_IP.h ****  *
  50:../../../FreeRTOS-Plus/Source/FreeRTOS-Plus-TCP/include/FreeRTOS_IP.h ****  * 1 tab == 4 spaces!
  51:../../../FreeRTOS-Plus/Source/FreeRTOS-Plus-TCP/include/FreeRTOS_IP.h ****  *
  52:../../../FreeRTOS-Plus/Source/FreeRTOS-Plus-TCP/include/FreeRTOS_IP.h ****  * http://www.FreeRTOS.org
  53:../../../FreeRTOS-Plus/Source/FreeRTOS-Plus-TCP/include/FreeRTOS_IP.h ****  * http://www.FreeRTOS.org/plus
  54:../../../FreeRTOS-Plus/Source/FreeRTOS-Plus-TCP/include/FreeRTOS_IP.h ****  * http://www.FreeRTOS.org/labs
  55:../../../FreeRTOS-Plus/Source/FreeRTOS-Plus-TCP/include/FreeRTOS_IP.h ****  *
  56:../../../FreeRTOS-Plus/Source/FreeRTOS-Plus-TCP/include/FreeRTOS_IP.h ****  */
  57:../../../FreeRTOS-Plus/Source/FreeRTOS-Plus-TCP/include/FreeRTOS_IP.h **** 
  58:../../../FreeRTOS-Plus/Source/FreeRTOS-Plus-TCP/include/FreeRTOS_IP.h **** #ifndef FREERTOS_IP_H
  59:../../../FreeRTOS-Plus/Source/FreeRTOS-Plus-TCP/include/FreeRTOS_IP.h **** #define FREERTOS_IP_H
  60:../../../FreeRTOS-Plus/Source/FreeRTOS-Plus-TCP/include/FreeRTOS_IP.h **** 
  61:../../../FreeRTOS-Plus/Source/FreeRTOS-Plus-TCP/include/FreeRTOS_IP.h **** #ifdef __cplusplus
  62:../../../FreeRTOS-Plus/Source/FreeRTOS-Plus-TCP/include/FreeRTOS_IP.h **** extern "C" {
  63:../../../FreeRTOS-Plus/Source/FreeRTOS-Plus-TCP/include/FreeRTOS_IP.h **** #endif
  64:../../../FreeRTOS-Plus/Source/FreeRTOS-Plus-TCP/include/FreeRTOS_IP.h **** 
  65:../../../FreeRTOS-Plus/Source/FreeRTOS-Plus-TCP/include/FreeRTOS_IP.h **** /* Application level configuration options. */
  66:../../../FreeRTOS-Plus/Source/FreeRTOS-Plus-TCP/include/FreeRTOS_IP.h **** #include "FreeRTOSIPConfig.h"
  67:../../../FreeRTOS-Plus/Source/FreeRTOS-Plus-TCP/include/FreeRTOS_IP.h **** #include "FreeRTOSIPConfigDefaults.h"
  68:../../../FreeRTOS-Plus/Source/FreeRTOS-Plus-TCP/include/FreeRTOS_IP.h **** #include "IPTraceMacroDefaults.h"
  69:../../../FreeRTOS-Plus/Source/FreeRTOS-Plus-TCP/include/FreeRTOS_IP.h **** 
  70:../../../FreeRTOS-Plus/Source/FreeRTOS-Plus-TCP/include/FreeRTOS_IP.h **** /* Some constants defining the sizes of several parts of a packet */
  71:../../../FreeRTOS-Plus/Source/FreeRTOS-Plus-TCP/include/FreeRTOS_IP.h **** #define ipSIZE_OF_ETH_HEADER			14u
  72:../../../FreeRTOS-Plus/Source/FreeRTOS-Plus-TCP/include/FreeRTOS_IP.h **** #define ipSIZE_OF_IPv4_HEADER			20u
  73:../../../FreeRTOS-Plus/Source/FreeRTOS-Plus-TCP/include/FreeRTOS_IP.h **** #define ipSIZE_OF_IGMP_HEADER			8u
  74:../../../FreeRTOS-Plus/Source/FreeRTOS-Plus-TCP/include/FreeRTOS_IP.h **** #define ipSIZE_OF_ICMP_HEADER			8u
  75:../../../FreeRTOS-Plus/Source/FreeRTOS-Plus-TCP/include/FreeRTOS_IP.h **** #define ipSIZE_OF_UDP_HEADER			8u
  76:../../../FreeRTOS-Plus/Source/FreeRTOS-Plus-TCP/include/FreeRTOS_IP.h **** #define ipSIZE_OF_TCP_HEADER			20u
  77:../../../FreeRTOS-Plus/Source/FreeRTOS-Plus-TCP/include/FreeRTOS_IP.h **** 
  78:../../../FreeRTOS-Plus/Source/FreeRTOS-Plus-TCP/include/FreeRTOS_IP.h **** 
  79:../../../FreeRTOS-Plus/Source/FreeRTOS-Plus-TCP/include/FreeRTOS_IP.h **** /* The number of octets in the MAC and IP addresses respectively. */
  80:../../../FreeRTOS-Plus/Source/FreeRTOS-Plus-TCP/include/FreeRTOS_IP.h **** #define ipMAC_ADDRESS_LENGTH_BYTES ( 6 )
  81:../../../FreeRTOS-Plus/Source/FreeRTOS-Plus-TCP/include/FreeRTOS_IP.h **** #define ipIP_ADDRESS_LENGTH_BYTES ( 4 )
  82:../../../FreeRTOS-Plus/Source/FreeRTOS-Plus-TCP/include/FreeRTOS_IP.h **** 
  83:../../../FreeRTOS-Plus/Source/FreeRTOS-Plus-TCP/include/FreeRTOS_IP.h **** /* IP protocol definitions. */
  84:../../../FreeRTOS-Plus/Source/FreeRTOS-Plus-TCP/include/FreeRTOS_IP.h **** #define ipPROTOCOL_ICMP			( 1 )
  85:../../../FreeRTOS-Plus/Source/FreeRTOS-Plus-TCP/include/FreeRTOS_IP.h **** #define ipPROTOCOL_IGMP         ( 2 )
  86:../../../FreeRTOS-Plus/Source/FreeRTOS-Plus-TCP/include/FreeRTOS_IP.h **** #define ipPROTOCOL_TCP			( 6 )
  87:../../../FreeRTOS-Plus/Source/FreeRTOS-Plus-TCP/include/FreeRTOS_IP.h **** #define ipPROTOCOL_UDP			( 17 )
  88:../../../FreeRTOS-Plus/Source/FreeRTOS-Plus-TCP/include/FreeRTOS_IP.h **** 
ARM GAS  /tmp/ccrA3BdH.s 			page 3


  89:../../../FreeRTOS-Plus/Source/FreeRTOS-Plus-TCP/include/FreeRTOS_IP.h **** /* Dimensions the buffers that are filled by received Ethernet frames. */
  90:../../../FreeRTOS-Plus/Source/FreeRTOS-Plus-TCP/include/FreeRTOS_IP.h **** #define ipSIZE_OF_ETH_CRC_BYTES					( 4UL )
  91:../../../FreeRTOS-Plus/Source/FreeRTOS-Plus-TCP/include/FreeRTOS_IP.h **** #define ipSIZE_OF_ETH_OPTIONAL_802_1Q_TAG_BYTES	( 4UL )
  92:../../../FreeRTOS-Plus/Source/FreeRTOS-Plus-TCP/include/FreeRTOS_IP.h **** #define ipTOTAL_ETHERNET_FRAME_SIZE				( ( ( uint32_t ) ipconfigNETWORK_MTU ) + ( ( uint32_t ) ipSI
  93:../../../FreeRTOS-Plus/Source/FreeRTOS-Plus-TCP/include/FreeRTOS_IP.h **** 
  94:../../../FreeRTOS-Plus/Source/FreeRTOS-Plus-TCP/include/FreeRTOS_IP.h **** /*_RB_ Comment may need updating. */
  95:../../../FreeRTOS-Plus/Source/FreeRTOS-Plus-TCP/include/FreeRTOS_IP.h **** /* Space left at the beginning of a network buffer storage area to store a
  96:../../../FreeRTOS-Plus/Source/FreeRTOS-Plus-TCP/include/FreeRTOS_IP.h **** pointer back to the network buffer.  Should be a multiple of 8 to ensure 8 byte
  97:../../../FreeRTOS-Plus/Source/FreeRTOS-Plus-TCP/include/FreeRTOS_IP.h **** alignment is maintained on architectures that require it.
  98:../../../FreeRTOS-Plus/Source/FreeRTOS-Plus-TCP/include/FreeRTOS_IP.h **** 
  99:../../../FreeRTOS-Plus/Source/FreeRTOS-Plus-TCP/include/FreeRTOS_IP.h **** In order to get a 32-bit alignment of network packets, an offset of 2 bytes
 100:../../../FreeRTOS-Plus/Source/FreeRTOS-Plus-TCP/include/FreeRTOS_IP.h **** would be desirable, as defined by ipconfigPACKET_FILLER_SIZE.  So the malloc'd
 101:../../../FreeRTOS-Plus/Source/FreeRTOS-Plus-TCP/include/FreeRTOS_IP.h **** buffer will have the following contents:
 102:../../../FreeRTOS-Plus/Source/FreeRTOS-Plus-TCP/include/FreeRTOS_IP.h **** 	uint32_t pointer;	// word-aligned
 103:../../../FreeRTOS-Plus/Source/FreeRTOS-Plus-TCP/include/FreeRTOS_IP.h **** 	uchar_8 filler[6];
 104:../../../FreeRTOS-Plus/Source/FreeRTOS-Plus-TCP/include/FreeRTOS_IP.h **** 	<< ETH-header >>	// half-word-aligned
 105:../../../FreeRTOS-Plus/Source/FreeRTOS-Plus-TCP/include/FreeRTOS_IP.h **** 	uchar_8 dest[6];    // start of pucEthernetBuffer
 106:../../../FreeRTOS-Plus/Source/FreeRTOS-Plus-TCP/include/FreeRTOS_IP.h **** 	uchar_8 dest[6];
 107:../../../FreeRTOS-Plus/Source/FreeRTOS-Plus-TCP/include/FreeRTOS_IP.h **** 	uchar16_t type;
 108:../../../FreeRTOS-Plus/Source/FreeRTOS-Plus-TCP/include/FreeRTOS_IP.h **** 	<< IP-header >>		// word-aligned
 109:../../../FreeRTOS-Plus/Source/FreeRTOS-Plus-TCP/include/FreeRTOS_IP.h **** 	uint8_t ucVersionHeaderLength;
 110:../../../FreeRTOS-Plus/Source/FreeRTOS-Plus-TCP/include/FreeRTOS_IP.h **** 	etc
 111:../../../FreeRTOS-Plus/Source/FreeRTOS-Plus-TCP/include/FreeRTOS_IP.h ****  */
 112:../../../FreeRTOS-Plus/Source/FreeRTOS-Plus-TCP/include/FreeRTOS_IP.h **** #if( ipconfigBUFFER_PADDING != 0 )
 113:../../../FreeRTOS-Plus/Source/FreeRTOS-Plus-TCP/include/FreeRTOS_IP.h ****     #define ipBUFFER_PADDING    ipconfigBUFFER_PADDING
 114:../../../FreeRTOS-Plus/Source/FreeRTOS-Plus-TCP/include/FreeRTOS_IP.h **** #else
 115:../../../FreeRTOS-Plus/Source/FreeRTOS-Plus-TCP/include/FreeRTOS_IP.h ****     #define ipBUFFER_PADDING    ( 8u + ipconfigPACKET_FILLER_SIZE )
 116:../../../FreeRTOS-Plus/Source/FreeRTOS-Plus-TCP/include/FreeRTOS_IP.h **** #endif
 117:../../../FreeRTOS-Plus/Source/FreeRTOS-Plus-TCP/include/FreeRTOS_IP.h **** 
 118:../../../FreeRTOS-Plus/Source/FreeRTOS-Plus-TCP/include/FreeRTOS_IP.h **** /* The structure used to store buffers and pass them around the network stack.
 119:../../../FreeRTOS-Plus/Source/FreeRTOS-Plus-TCP/include/FreeRTOS_IP.h **** Buffers can be in use by the stack, in use by the network interface hardware
 120:../../../FreeRTOS-Plus/Source/FreeRTOS-Plus-TCP/include/FreeRTOS_IP.h **** driver, or free (not in use). */
 121:../../../FreeRTOS-Plus/Source/FreeRTOS-Plus-TCP/include/FreeRTOS_IP.h **** typedef struct xNETWORK_BUFFER
 122:../../../FreeRTOS-Plus/Source/FreeRTOS-Plus-TCP/include/FreeRTOS_IP.h **** {
 123:../../../FreeRTOS-Plus/Source/FreeRTOS-Plus-TCP/include/FreeRTOS_IP.h **** 	ListItem_t xBufferListItem; 	/* Used to reference the buffer form the free buffer list or a socket
 124:../../../FreeRTOS-Plus/Source/FreeRTOS-Plus-TCP/include/FreeRTOS_IP.h **** 	uint32_t ulIPAddress;			/* Source or destination IP address, depending on usage scenario. */
 125:../../../FreeRTOS-Plus/Source/FreeRTOS-Plus-TCP/include/FreeRTOS_IP.h **** 	uint8_t *pucEthernetBuffer; 	/* Pointer to the start of the Ethernet frame. */
 126:../../../FreeRTOS-Plus/Source/FreeRTOS-Plus-TCP/include/FreeRTOS_IP.h **** 	size_t xDataLength; 			/* Starts by holding the total Ethernet frame length, then the UDP/TCP payl
 127:../../../FreeRTOS-Plus/Source/FreeRTOS-Plus-TCP/include/FreeRTOS_IP.h **** 	uint16_t usPort;				/* Source or destination port, depending on usage scenario. */
 128:../../../FreeRTOS-Plus/Source/FreeRTOS-Plus-TCP/include/FreeRTOS_IP.h **** 	uint16_t usBoundPort;			/* The port to which a transmitting socket is bound. */
 129:../../../FreeRTOS-Plus/Source/FreeRTOS-Plus-TCP/include/FreeRTOS_IP.h **** 	#if( ipconfigUSE_LINKED_RX_MESSAGES != 0 )
 130:../../../FreeRTOS-Plus/Source/FreeRTOS-Plus-TCP/include/FreeRTOS_IP.h **** 		struct xNETWORK_BUFFER *pxNextBuffer; /* Possible optimisation for expert users - requires networ
 131:../../../FreeRTOS-Plus/Source/FreeRTOS-Plus-TCP/include/FreeRTOS_IP.h **** 	#endif
 132:../../../FreeRTOS-Plus/Source/FreeRTOS-Plus-TCP/include/FreeRTOS_IP.h **** } NetworkBufferDescriptor_t;
 133:../../../FreeRTOS-Plus/Source/FreeRTOS-Plus-TCP/include/FreeRTOS_IP.h **** 
 134:../../../FreeRTOS-Plus/Source/FreeRTOS-Plus-TCP/include/FreeRTOS_IP.h **** #include "pack_struct_start.h"
 135:../../../FreeRTOS-Plus/Source/FreeRTOS-Plus-TCP/include/FreeRTOS_IP.h **** struct xMAC_ADDRESS
 136:../../../FreeRTOS-Plus/Source/FreeRTOS-Plus-TCP/include/FreeRTOS_IP.h **** {
 137:../../../FreeRTOS-Plus/Source/FreeRTOS-Plus-TCP/include/FreeRTOS_IP.h **** 	uint8_t ucBytes[ ipMAC_ADDRESS_LENGTH_BYTES ];
 138:../../../FreeRTOS-Plus/Source/FreeRTOS-Plus-TCP/include/FreeRTOS_IP.h **** }
 139:../../../FreeRTOS-Plus/Source/FreeRTOS-Plus-TCP/include/FreeRTOS_IP.h **** #include "pack_struct_end.h"
 140:../../../FreeRTOS-Plus/Source/FreeRTOS-Plus-TCP/include/FreeRTOS_IP.h **** typedef struct xMAC_ADDRESS MACAddress_t;
 141:../../../FreeRTOS-Plus/Source/FreeRTOS-Plus-TCP/include/FreeRTOS_IP.h **** 
 142:../../../FreeRTOS-Plus/Source/FreeRTOS-Plus-TCP/include/FreeRTOS_IP.h **** typedef enum eNETWORK_EVENTS
 143:../../../FreeRTOS-Plus/Source/FreeRTOS-Plus-TCP/include/FreeRTOS_IP.h **** {
 144:../../../FreeRTOS-Plus/Source/FreeRTOS-Plus-TCP/include/FreeRTOS_IP.h **** 	eNetworkUp,		/* The network is configured. */
 145:../../../FreeRTOS-Plus/Source/FreeRTOS-Plus-TCP/include/FreeRTOS_IP.h **** 	eNetworkDown	/* The network connection has been lost. */
ARM GAS  /tmp/ccrA3BdH.s 			page 4


 146:../../../FreeRTOS-Plus/Source/FreeRTOS-Plus-TCP/include/FreeRTOS_IP.h **** } eIPCallbackEvent_t;
 147:../../../FreeRTOS-Plus/Source/FreeRTOS-Plus-TCP/include/FreeRTOS_IP.h **** 
 148:../../../FreeRTOS-Plus/Source/FreeRTOS-Plus-TCP/include/FreeRTOS_IP.h **** typedef enum ePING_REPLY_STATUS
 149:../../../FreeRTOS-Plus/Source/FreeRTOS-Plus-TCP/include/FreeRTOS_IP.h **** {
 150:../../../FreeRTOS-Plus/Source/FreeRTOS-Plus-TCP/include/FreeRTOS_IP.h **** 	eSuccess = 0,		/* A correct reply has been received for an outgoing ping. */
 151:../../../FreeRTOS-Plus/Source/FreeRTOS-Plus-TCP/include/FreeRTOS_IP.h **** 	eInvalidChecksum,	/* A reply was received for an outgoing ping but the checksum of the reply was i
 152:../../../FreeRTOS-Plus/Source/FreeRTOS-Plus-TCP/include/FreeRTOS_IP.h **** 	eInvalidData		/* A reply was received to an outgoing ping but the payload of the reply was not cor
 153:../../../FreeRTOS-Plus/Source/FreeRTOS-Plus-TCP/include/FreeRTOS_IP.h **** } ePingReplyStatus_t;
 154:../../../FreeRTOS-Plus/Source/FreeRTOS-Plus-TCP/include/FreeRTOS_IP.h **** 
 155:../../../FreeRTOS-Plus/Source/FreeRTOS-Plus-TCP/include/FreeRTOS_IP.h **** /* Endian related definitions. */
 156:../../../FreeRTOS-Plus/Source/FreeRTOS-Plus-TCP/include/FreeRTOS_IP.h **** #if( ipconfigBYTE_ORDER == pdFREERTOS_LITTLE_ENDIAN )
 157:../../../FreeRTOS-Plus/Source/FreeRTOS-Plus-TCP/include/FreeRTOS_IP.h **** 
 158:../../../FreeRTOS-Plus/Source/FreeRTOS-Plus-TCP/include/FreeRTOS_IP.h **** 	/* FreeRTOS_htons / FreeRTOS_htonl: some platforms might have built-in versions
 159:../../../FreeRTOS-Plus/Source/FreeRTOS-Plus-TCP/include/FreeRTOS_IP.h **** 	using a single instruction so allow these versions to be overridden. */
 160:../../../FreeRTOS-Plus/Source/FreeRTOS-Plus-TCP/include/FreeRTOS_IP.h **** 	#ifndef FreeRTOS_htons
 161:../../../FreeRTOS-Plus/Source/FreeRTOS-Plus-TCP/include/FreeRTOS_IP.h **** 		#define FreeRTOS_htons( usIn ) ( (uint16_t) ( ( ( usIn ) << 8U ) | ( ( usIn ) >> 8U ) ) )
 162:../../../FreeRTOS-Plus/Source/FreeRTOS-Plus-TCP/include/FreeRTOS_IP.h **** 	#endif
 163:../../../FreeRTOS-Plus/Source/FreeRTOS-Plus-TCP/include/FreeRTOS_IP.h **** 
 164:../../../FreeRTOS-Plus/Source/FreeRTOS-Plus-TCP/include/FreeRTOS_IP.h **** 	#ifndef	FreeRTOS_htonl
 165:../../../FreeRTOS-Plus/Source/FreeRTOS-Plus-TCP/include/FreeRTOS_IP.h **** 		#define FreeRTOS_htonl( ulIn ) 											\
 166:../../../FreeRTOS-Plus/Source/FreeRTOS-Plus-TCP/include/FreeRTOS_IP.h **** 			(																	\
 167:../../../FreeRTOS-Plus/Source/FreeRTOS-Plus-TCP/include/FreeRTOS_IP.h **** 				( uint32_t ) 													\
 168:../../../FreeRTOS-Plus/Source/FreeRTOS-Plus-TCP/include/FreeRTOS_IP.h **** 				( 																\
 169:../../../FreeRTOS-Plus/Source/FreeRTOS-Plus-TCP/include/FreeRTOS_IP.h **** 					( ( ( ( uint32_t ) ( ulIn ) )                ) << 24  ) | 	\
 170:../../../FreeRTOS-Plus/Source/FreeRTOS-Plus-TCP/include/FreeRTOS_IP.h **** 					( ( ( ( uint32_t ) ( ulIn ) ) & 0x0000ff00UL ) <<  8  ) | 	\
 171:../../../FreeRTOS-Plus/Source/FreeRTOS-Plus-TCP/include/FreeRTOS_IP.h **** 					( ( ( ( uint32_t ) ( ulIn ) ) & 0x00ff0000UL ) >>  8  ) | 	\
 172:../../../FreeRTOS-Plus/Source/FreeRTOS-Plus-TCP/include/FreeRTOS_IP.h **** 					( ( ( ( uint32_t ) ( ulIn ) )                ) >> 24  )  	\
 173:../../../FreeRTOS-Plus/Source/FreeRTOS-Plus-TCP/include/FreeRTOS_IP.h **** 				) 																\
 174:../../../FreeRTOS-Plus/Source/FreeRTOS-Plus-TCP/include/FreeRTOS_IP.h **** 			)
 175:../../../FreeRTOS-Plus/Source/FreeRTOS-Plus-TCP/include/FreeRTOS_IP.h **** 	#endif
 176:../../../FreeRTOS-Plus/Source/FreeRTOS-Plus-TCP/include/FreeRTOS_IP.h **** 
 177:../../../FreeRTOS-Plus/Source/FreeRTOS-Plus-TCP/include/FreeRTOS_IP.h **** #else /* ipconfigBYTE_ORDER */
 178:../../../FreeRTOS-Plus/Source/FreeRTOS-Plus-TCP/include/FreeRTOS_IP.h **** 
 179:../../../FreeRTOS-Plus/Source/FreeRTOS-Plus-TCP/include/FreeRTOS_IP.h **** 	#define FreeRTOS_htons( x ) ( ( uint16_t ) ( x ) )
 180:../../../FreeRTOS-Plus/Source/FreeRTOS-Plus-TCP/include/FreeRTOS_IP.h **** 	#define FreeRTOS_htonl( x ) ( ( uint32_t ) ( x ) )
 181:../../../FreeRTOS-Plus/Source/FreeRTOS-Plus-TCP/include/FreeRTOS_IP.h **** 
 182:../../../FreeRTOS-Plus/Source/FreeRTOS-Plus-TCP/include/FreeRTOS_IP.h **** #endif /* ipconfigBYTE_ORDER == pdFREERTOS_LITTLE_ENDIAN */
 183:../../../FreeRTOS-Plus/Source/FreeRTOS-Plus-TCP/include/FreeRTOS_IP.h **** 
 184:../../../FreeRTOS-Plus/Source/FreeRTOS-Plus-TCP/include/FreeRTOS_IP.h **** #define FreeRTOS_ntohs( x ) FreeRTOS_htons( x )
 185:../../../FreeRTOS-Plus/Source/FreeRTOS-Plus-TCP/include/FreeRTOS_IP.h **** #define FreeRTOS_ntohl( x ) FreeRTOS_htonl( x )
 186:../../../FreeRTOS-Plus/Source/FreeRTOS-Plus-TCP/include/FreeRTOS_IP.h **** 
 187:../../../FreeRTOS-Plus/Source/FreeRTOS-Plus-TCP/include/FreeRTOS_IP.h **** #if( ipconfigHAS_INLINE_FUNCTIONS == 1 )
 188:../../../FreeRTOS-Plus/Source/FreeRTOS-Plus-TCP/include/FreeRTOS_IP.h **** 
 189:../../../FreeRTOS-Plus/Source/FreeRTOS-Plus-TCP/include/FreeRTOS_IP.h **** 	static portINLINE int32_t  FreeRTOS_max_int32  (int32_t  a, int32_t  b);
 190:../../../FreeRTOS-Plus/Source/FreeRTOS-Plus-TCP/include/FreeRTOS_IP.h **** 	static portINLINE uint32_t FreeRTOS_max_uint32 (uint32_t a, uint32_t b);
 191:../../../FreeRTOS-Plus/Source/FreeRTOS-Plus-TCP/include/FreeRTOS_IP.h **** 	static portINLINE int32_t  FreeRTOS_min_int32  (int32_t  a, int32_t  b);
 192:../../../FreeRTOS-Plus/Source/FreeRTOS-Plus-TCP/include/FreeRTOS_IP.h **** 	static portINLINE uint32_t FreeRTOS_min_uint32 (uint32_t a, uint32_t b);
 193:../../../FreeRTOS-Plus/Source/FreeRTOS-Plus-TCP/include/FreeRTOS_IP.h **** 	static portINLINE uint32_t FreeRTOS_round_up   (uint32_t a, uint32_t d);
 194:../../../FreeRTOS-Plus/Source/FreeRTOS-Plus-TCP/include/FreeRTOS_IP.h **** 	static portINLINE uint32_t FreeRTOS_round_down (uint32_t a, uint32_t d);
 195:../../../FreeRTOS-Plus/Source/FreeRTOS-Plus-TCP/include/FreeRTOS_IP.h **** 	static portINLINE BaseType_t  FreeRTOS_min_BaseType  (BaseType_t  a, BaseType_t  b);
 196:../../../FreeRTOS-Plus/Source/FreeRTOS-Plus-TCP/include/FreeRTOS_IP.h **** 	static portINLINE BaseType_t  FreeRTOS_max_BaseType  (BaseType_t  a, BaseType_t  b);
 197:../../../FreeRTOS-Plus/Source/FreeRTOS-Plus-TCP/include/FreeRTOS_IP.h **** 	static portINLINE UBaseType_t FreeRTOS_max_UBaseTyp (UBaseType_t a, UBaseType_t b);
 198:../../../FreeRTOS-Plus/Source/FreeRTOS-Plus-TCP/include/FreeRTOS_IP.h **** 	static portINLINE BaseType_t  	FreeRTOS_min_BaseType  (BaseType_t  a, BaseType_t  b);
 199:../../../FreeRTOS-Plus/Source/FreeRTOS-Plus-TCP/include/FreeRTOS_IP.h **** 	static portINLINE UBaseType_t  	FreeRTOS_min_UBaseType (UBaseType_t  a, UBaseType_t  b);
 200:../../../FreeRTOS-Plus/Source/FreeRTOS-Plus-TCP/include/FreeRTOS_IP.h **** 
 201:../../../FreeRTOS-Plus/Source/FreeRTOS-Plus-TCP/include/FreeRTOS_IP.h **** 
 202:../../../FreeRTOS-Plus/Source/FreeRTOS-Plus-TCP/include/FreeRTOS_IP.h **** 	static portINLINE int32_t  FreeRTOS_max_int32  (int32_t  a, int32_t  b) { return a >= b ? a : b; }
ARM GAS  /tmp/ccrA3BdH.s 			page 5


 203:../../../FreeRTOS-Plus/Source/FreeRTOS-Plus-TCP/include/FreeRTOS_IP.h **** 	static portINLINE uint32_t FreeRTOS_max_uint32 (uint32_t a, uint32_t b) { return a >= b ? a : b; }
  28              		.loc 1 203 0
  29              		.cfi_startproc
  30              		@ args = 0, pretend = 0, frame = 8
  31              		@ frame_needed = 1, uses_anonymous_args = 0
  32              		@ link register save eliminated.
  33 0000 80B4     		push	{r7}
  34              	.LCFI0:
  35              		.cfi_def_cfa_offset 4
  36              		.cfi_offset 7, -4
  37 0002 83B0     		sub	sp, sp, #12
  38              	.LCFI1:
  39              		.cfi_def_cfa_offset 16
  40 0004 00AF     		add	r7, sp, #0
  41              	.LCFI2:
  42              		.cfi_def_cfa_register 7
  43 0006 7860     		str	r0, [r7, #4]
  44 0008 3960     		str	r1, [r7]
  45              		.loc 1 203 0
  46 000a 7A68     		ldr	r2, [r7, #4]
  47 000c 3B68     		ldr	r3, [r7]
  48 000e 9342     		cmp	r3, r2
  49 0010 38BF     		it	cc
  50 0012 1346     		movcc	r3, r2
  51 0014 1846     		mov	r0, r3
  52 0016 0C37     		adds	r7, r7, #12
  53              	.LCFI3:
  54              		.cfi_def_cfa_offset 4
  55 0018 BD46     		mov	sp, r7
  56              	.LCFI4:
  57              		.cfi_def_cfa_register 13
  58              		@ sp needed
  59 001a 5DF8047B 		ldr	r7, [sp], #4
  60              	.LCFI5:
  61              		.cfi_restore 7
  62              		.cfi_def_cfa_offset 0
  63 001e 7047     		bx	lr
  64              		.cfi_endproc
  65              	.LFE6:
  67              		.section	.text.FreeRTOS_min_int32,"ax",%progbits
  68              		.align	2
  69              		.thumb
  70              		.thumb_func
  72              	FreeRTOS_min_int32:
  73              	.LFB7:
 204:../../../FreeRTOS-Plus/Source/FreeRTOS-Plus-TCP/include/FreeRTOS_IP.h **** 	static portINLINE int32_t  FreeRTOS_min_int32  (int32_t  a, int32_t  b) { return a <= b ? a : b; }
  74              		.loc 1 204 0
  75              		.cfi_startproc
  76              		@ args = 0, pretend = 0, frame = 8
  77              		@ frame_needed = 1, uses_anonymous_args = 0
  78              		@ link register save eliminated.
  79 0000 80B4     		push	{r7}
  80              	.LCFI6:
  81              		.cfi_def_cfa_offset 4
  82              		.cfi_offset 7, -4
  83 0002 83B0     		sub	sp, sp, #12
  84              	.LCFI7:
ARM GAS  /tmp/ccrA3BdH.s 			page 6


  85              		.cfi_def_cfa_offset 16
  86 0004 00AF     		add	r7, sp, #0
  87              	.LCFI8:
  88              		.cfi_def_cfa_register 7
  89 0006 7860     		str	r0, [r7, #4]
  90 0008 3960     		str	r1, [r7]
  91              		.loc 1 204 0
  92 000a 7A68     		ldr	r2, [r7, #4]
  93 000c 3B68     		ldr	r3, [r7]
  94 000e 9342     		cmp	r3, r2
  95 0010 A8BF     		it	ge
  96 0012 1346     		movge	r3, r2
  97 0014 1846     		mov	r0, r3
  98 0016 0C37     		adds	r7, r7, #12
  99              	.LCFI9:
 100              		.cfi_def_cfa_offset 4
 101 0018 BD46     		mov	sp, r7
 102              	.LCFI10:
 103              		.cfi_def_cfa_register 13
 104              		@ sp needed
 105 001a 5DF8047B 		ldr	r7, [sp], #4
 106              	.LCFI11:
 107              		.cfi_restore 7
 108              		.cfi_def_cfa_offset 0
 109 001e 7047     		bx	lr
 110              		.cfi_endproc
 111              	.LFE7:
 113              		.section	.text.FreeRTOS_min_uint32,"ax",%progbits
 114              		.align	2
 115              		.thumb
 116              		.thumb_func
 118              	FreeRTOS_min_uint32:
 119              	.LFB8:
 205:../../../FreeRTOS-Plus/Source/FreeRTOS-Plus-TCP/include/FreeRTOS_IP.h **** 	static portINLINE uint32_t FreeRTOS_min_uint32 (uint32_t a, uint32_t b) { return a <= b ? a : b; }
 120              		.loc 1 205 0
 121              		.cfi_startproc
 122              		@ args = 0, pretend = 0, frame = 8
 123              		@ frame_needed = 1, uses_anonymous_args = 0
 124              		@ link register save eliminated.
 125 0000 80B4     		push	{r7}
 126              	.LCFI12:
 127              		.cfi_def_cfa_offset 4
 128              		.cfi_offset 7, -4
 129 0002 83B0     		sub	sp, sp, #12
 130              	.LCFI13:
 131              		.cfi_def_cfa_offset 16
 132 0004 00AF     		add	r7, sp, #0
 133              	.LCFI14:
 134              		.cfi_def_cfa_register 7
 135 0006 7860     		str	r0, [r7, #4]
 136 0008 3960     		str	r1, [r7]
 137              		.loc 1 205 0
 138 000a 7A68     		ldr	r2, [r7, #4]
 139 000c 3B68     		ldr	r3, [r7]
 140 000e 9342     		cmp	r3, r2
 141 0010 28BF     		it	cs
 142 0012 1346     		movcs	r3, r2
ARM GAS  /tmp/ccrA3BdH.s 			page 7


 143 0014 1846     		mov	r0, r3
 144 0016 0C37     		adds	r7, r7, #12
 145              	.LCFI15:
 146              		.cfi_def_cfa_offset 4
 147 0018 BD46     		mov	sp, r7
 148              	.LCFI16:
 149              		.cfi_def_cfa_register 13
 150              		@ sp needed
 151 001a 5DF8047B 		ldr	r7, [sp], #4
 152              	.LCFI17:
 153              		.cfi_restore 7
 154              		.cfi_def_cfa_offset 0
 155 001e 7047     		bx	lr
 156              		.cfi_endproc
 157              	.LFE8:
 159              		.section	.text.FreeRTOS_round_up,"ax",%progbits
 160              		.align	2
 161              		.thumb
 162              		.thumb_func
 164              	FreeRTOS_round_up:
 165              	.LFB9:
 206:../../../FreeRTOS-Plus/Source/FreeRTOS-Plus-TCP/include/FreeRTOS_IP.h **** 	static portINLINE uint32_t FreeRTOS_round_up   (uint32_t a, uint32_t d) { return d * ( ( a + d - 1
 166              		.loc 1 206 0
 167              		.cfi_startproc
 168              		@ args = 0, pretend = 0, frame = 8
 169              		@ frame_needed = 1, uses_anonymous_args = 0
 170              		@ link register save eliminated.
 171 0000 80B4     		push	{r7}
 172              	.LCFI18:
 173              		.cfi_def_cfa_offset 4
 174              		.cfi_offset 7, -4
 175 0002 83B0     		sub	sp, sp, #12
 176              	.LCFI19:
 177              		.cfi_def_cfa_offset 16
 178 0004 00AF     		add	r7, sp, #0
 179              	.LCFI20:
 180              		.cfi_def_cfa_register 7
 181 0006 7860     		str	r0, [r7, #4]
 182 0008 3960     		str	r1, [r7]
 183              		.loc 1 206 0
 184 000a 7A68     		ldr	r2, [r7, #4]
 185 000c 3B68     		ldr	r3, [r7]
 186 000e 1344     		add	r3, r3, r2
 187 0010 5A1E     		subs	r2, r3, #1
 188 0012 3B68     		ldr	r3, [r7]
 189 0014 B2FBF3F3 		udiv	r3, r2, r3
 190 0018 3A68     		ldr	r2, [r7]
 191 001a 02FB03F3 		mul	r3, r2, r3
 192 001e 1846     		mov	r0, r3
 193 0020 0C37     		adds	r7, r7, #12
 194              	.LCFI21:
 195              		.cfi_def_cfa_offset 4
 196 0022 BD46     		mov	sp, r7
 197              	.LCFI22:
 198              		.cfi_def_cfa_register 13
 199              		@ sp needed
 200 0024 5DF8047B 		ldr	r7, [sp], #4
ARM GAS  /tmp/ccrA3BdH.s 			page 8


 201              	.LCFI23:
 202              		.cfi_restore 7
 203              		.cfi_def_cfa_offset 0
 204 0028 7047     		bx	lr
 205              		.cfi_endproc
 206              	.LFE9:
 208 002a 00BF     		.section	.text.FreeRTOS_min_BaseType,"ax",%progbits
 209              		.align	2
 210              		.thumb
 211              		.thumb_func
 213              	FreeRTOS_min_BaseType:
 214              	.LFB13:
 207:../../../FreeRTOS-Plus/Source/FreeRTOS-Plus-TCP/include/FreeRTOS_IP.h **** 	static portINLINE uint32_t FreeRTOS_round_down (uint32_t a, uint32_t d) { return d * ( a / d ); }
 208:../../../FreeRTOS-Plus/Source/FreeRTOS-Plus-TCP/include/FreeRTOS_IP.h **** 
 209:../../../FreeRTOS-Plus/Source/FreeRTOS-Plus-TCP/include/FreeRTOS_IP.h **** 	static portINLINE BaseType_t  FreeRTOS_max_BaseType  (BaseType_t  a, BaseType_t  b) { return a >= 
 210:../../../FreeRTOS-Plus/Source/FreeRTOS-Plus-TCP/include/FreeRTOS_IP.h **** 	static portINLINE UBaseType_t FreeRTOS_max_UBaseTyp (UBaseType_t a, UBaseType_t b) { return a >= b
 211:../../../FreeRTOS-Plus/Source/FreeRTOS-Plus-TCP/include/FreeRTOS_IP.h **** 	static portINLINE BaseType_t  	FreeRTOS_min_BaseType  (BaseType_t  a, BaseType_t  b) { return a <=
 215              		.loc 1 211 0
 216              		.cfi_startproc
 217              		@ args = 0, pretend = 0, frame = 8
 218              		@ frame_needed = 1, uses_anonymous_args = 0
 219              		@ link register save eliminated.
 220 0000 80B4     		push	{r7}
 221              	.LCFI24:
 222              		.cfi_def_cfa_offset 4
 223              		.cfi_offset 7, -4
 224 0002 83B0     		sub	sp, sp, #12
 225              	.LCFI25:
 226              		.cfi_def_cfa_offset 16
 227 0004 00AF     		add	r7, sp, #0
 228              	.LCFI26:
 229              		.cfi_def_cfa_register 7
 230 0006 7860     		str	r0, [r7, #4]
 231 0008 3960     		str	r1, [r7]
 232              		.loc 1 211 0
 233 000a 7A68     		ldr	r2, [r7, #4]
 234 000c 3B68     		ldr	r3, [r7]
 235 000e 9342     		cmp	r3, r2
 236 0010 A8BF     		it	ge
 237 0012 1346     		movge	r3, r2
 238 0014 1846     		mov	r0, r3
 239 0016 0C37     		adds	r7, r7, #12
 240              	.LCFI27:
 241              		.cfi_def_cfa_offset 4
 242 0018 BD46     		mov	sp, r7
 243              	.LCFI28:
 244              		.cfi_def_cfa_register 13
 245              		@ sp needed
 246 001a 5DF8047B 		ldr	r7, [sp], #4
 247              	.LCFI29:
 248              		.cfi_restore 7
 249              		.cfi_def_cfa_offset 0
 250 001e 7047     		bx	lr
 251              		.cfi_endproc
 252              	.LFE13:
 254              		.section	.text.vStreamBufferClear,"ax",%progbits
 255              		.align	2
ARM GAS  /tmp/ccrA3BdH.s 			page 9


 256              		.thumb
 257              		.thumb_func
 259              	vStreamBufferClear:
 260              	.LFB15:
 261              		.file 2 "../../../FreeRTOS-Plus/Source/FreeRTOS-Plus-TCP/include/FreeRTOS_Stream_Buffer.h"
   1:../../../FreeRTOS-Plus/Source/FreeRTOS-Plus-TCP/include/FreeRTOS_Stream_Buffer.h **** /*
   2:../../../FreeRTOS-Plus/Source/FreeRTOS-Plus-TCP/include/FreeRTOS_Stream_Buffer.h ****  * FreeRTOS+TCP Labs Build 160919 (C) 2016 Real Time Engineers ltd.
   3:../../../FreeRTOS-Plus/Source/FreeRTOS-Plus-TCP/include/FreeRTOS_Stream_Buffer.h ****  * Authors include Hein Tibosch and Richard Barry
   4:../../../FreeRTOS-Plus/Source/FreeRTOS-Plus-TCP/include/FreeRTOS_Stream_Buffer.h ****  *
   5:../../../FreeRTOS-Plus/Source/FreeRTOS-Plus-TCP/include/FreeRTOS_Stream_Buffer.h ****  *******************************************************************************
   6:../../../FreeRTOS-Plus/Source/FreeRTOS-Plus-TCP/include/FreeRTOS_Stream_Buffer.h ****  ***** NOTE ******* NOTE ******* NOTE ******* NOTE ******* NOTE ******* NOTE ***
   7:../../../FreeRTOS-Plus/Source/FreeRTOS-Plus-TCP/include/FreeRTOS_Stream_Buffer.h ****  ***                                                                         ***
   8:../../../FreeRTOS-Plus/Source/FreeRTOS-Plus-TCP/include/FreeRTOS_Stream_Buffer.h ****  ***                                                                         ***
   9:../../../FreeRTOS-Plus/Source/FreeRTOS-Plus-TCP/include/FreeRTOS_Stream_Buffer.h ****  ***   FREERTOS+TCP IS STILL IN THE LAB (mainly because the FTP and HTTP     ***
  10:../../../FreeRTOS-Plus/Source/FreeRTOS-Plus-TCP/include/FreeRTOS_Stream_Buffer.h ****  ***   demos have a dependency on FreeRTOS+FAT, which is only in the Labs    ***
  11:../../../FreeRTOS-Plus/Source/FreeRTOS-Plus-TCP/include/FreeRTOS_Stream_Buffer.h ****  ***   download):                                                            ***
  12:../../../FreeRTOS-Plus/Source/FreeRTOS-Plus-TCP/include/FreeRTOS_Stream_Buffer.h ****  ***                                                                         ***
  13:../../../FreeRTOS-Plus/Source/FreeRTOS-Plus-TCP/include/FreeRTOS_Stream_Buffer.h ****  ***   FreeRTOS+TCP is functional and has been used in commercial products   ***
  14:../../../FreeRTOS-Plus/Source/FreeRTOS-Plus-TCP/include/FreeRTOS_Stream_Buffer.h ****  ***   for some time.  Be aware however that we are still refining its       ***
  15:../../../FreeRTOS-Plus/Source/FreeRTOS-Plus-TCP/include/FreeRTOS_Stream_Buffer.h ****  ***   design, the source code does not yet quite conform to the strict      ***
  16:../../../FreeRTOS-Plus/Source/FreeRTOS-Plus-TCP/include/FreeRTOS_Stream_Buffer.h ****  ***   coding and style standards mandated by Real Time Engineers ltd., and  ***
  17:../../../FreeRTOS-Plus/Source/FreeRTOS-Plus-TCP/include/FreeRTOS_Stream_Buffer.h ****  ***   the documentation and testing is not necessarily complete.            ***
  18:../../../FreeRTOS-Plus/Source/FreeRTOS-Plus-TCP/include/FreeRTOS_Stream_Buffer.h ****  ***                                                                         ***
  19:../../../FreeRTOS-Plus/Source/FreeRTOS-Plus-TCP/include/FreeRTOS_Stream_Buffer.h ****  ***   PLEASE REPORT EXPERIENCES USING THE SUPPORT RESOURCES FOUND ON THE    ***
  20:../../../FreeRTOS-Plus/Source/FreeRTOS-Plus-TCP/include/FreeRTOS_Stream_Buffer.h ****  ***   URL: http://www.FreeRTOS.org/contact  Active early adopters may, at   ***
  21:../../../FreeRTOS-Plus/Source/FreeRTOS-Plus-TCP/include/FreeRTOS_Stream_Buffer.h ****  ***   the sole discretion of Real Time Engineers Ltd., be offered versions  ***
  22:../../../FreeRTOS-Plus/Source/FreeRTOS-Plus-TCP/include/FreeRTOS_Stream_Buffer.h ****  ***   under a license other than that described below.                      ***
  23:../../../FreeRTOS-Plus/Source/FreeRTOS-Plus-TCP/include/FreeRTOS_Stream_Buffer.h ****  ***                                                                         ***
  24:../../../FreeRTOS-Plus/Source/FreeRTOS-Plus-TCP/include/FreeRTOS_Stream_Buffer.h ****  ***                                                                         ***
  25:../../../FreeRTOS-Plus/Source/FreeRTOS-Plus-TCP/include/FreeRTOS_Stream_Buffer.h ****  ***** NOTE ******* NOTE ******* NOTE ******* NOTE ******* NOTE ******* NOTE ***
  26:../../../FreeRTOS-Plus/Source/FreeRTOS-Plus-TCP/include/FreeRTOS_Stream_Buffer.h ****  *******************************************************************************
  27:../../../FreeRTOS-Plus/Source/FreeRTOS-Plus-TCP/include/FreeRTOS_Stream_Buffer.h ****  *
  28:../../../FreeRTOS-Plus/Source/FreeRTOS-Plus-TCP/include/FreeRTOS_Stream_Buffer.h ****  * FreeRTOS+TCP can be used under two different free open source licenses.  The
  29:../../../FreeRTOS-Plus/Source/FreeRTOS-Plus-TCP/include/FreeRTOS_Stream_Buffer.h ****  * license that applies is dependent on the processor on which FreeRTOS+TCP is
  30:../../../FreeRTOS-Plus/Source/FreeRTOS-Plus-TCP/include/FreeRTOS_Stream_Buffer.h ****  * executed, as follows:
  31:../../../FreeRTOS-Plus/Source/FreeRTOS-Plus-TCP/include/FreeRTOS_Stream_Buffer.h ****  *
  32:../../../FreeRTOS-Plus/Source/FreeRTOS-Plus-TCP/include/FreeRTOS_Stream_Buffer.h ****  * If FreeRTOS+TCP is executed on one of the processors listed under the Special
  33:../../../FreeRTOS-Plus/Source/FreeRTOS-Plus-TCP/include/FreeRTOS_Stream_Buffer.h ****  * License Arrangements heading of the FreeRTOS+TCP license information web
  34:../../../FreeRTOS-Plus/Source/FreeRTOS-Plus-TCP/include/FreeRTOS_Stream_Buffer.h ****  * page, then it can be used under the terms of the FreeRTOS Open Source
  35:../../../FreeRTOS-Plus/Source/FreeRTOS-Plus-TCP/include/FreeRTOS_Stream_Buffer.h ****  * License.  If FreeRTOS+TCP is used on any other processor, then it can be used
  36:../../../FreeRTOS-Plus/Source/FreeRTOS-Plus-TCP/include/FreeRTOS_Stream_Buffer.h ****  * under the terms of the GNU General Public License V2.  Links to the relevant
  37:../../../FreeRTOS-Plus/Source/FreeRTOS-Plus-TCP/include/FreeRTOS_Stream_Buffer.h ****  * licenses follow:
  38:../../../FreeRTOS-Plus/Source/FreeRTOS-Plus-TCP/include/FreeRTOS_Stream_Buffer.h ****  *
  39:../../../FreeRTOS-Plus/Source/FreeRTOS-Plus-TCP/include/FreeRTOS_Stream_Buffer.h ****  * The FreeRTOS+TCP License Information Page: http://www.FreeRTOS.org/tcp_license
  40:../../../FreeRTOS-Plus/Source/FreeRTOS-Plus-TCP/include/FreeRTOS_Stream_Buffer.h ****  * The FreeRTOS Open Source License: http://www.FreeRTOS.org/license
  41:../../../FreeRTOS-Plus/Source/FreeRTOS-Plus-TCP/include/FreeRTOS_Stream_Buffer.h ****  * The GNU General Public License Version 2: http://www.FreeRTOS.org/gpl-2.0.txt
  42:../../../FreeRTOS-Plus/Source/FreeRTOS-Plus-TCP/include/FreeRTOS_Stream_Buffer.h ****  *
  43:../../../FreeRTOS-Plus/Source/FreeRTOS-Plus-TCP/include/FreeRTOS_Stream_Buffer.h ****  * FreeRTOS+TCP is distributed in the hope that it will be useful.  You cannot
  44:../../../FreeRTOS-Plus/Source/FreeRTOS-Plus-TCP/include/FreeRTOS_Stream_Buffer.h ****  * use FreeRTOS+TCP unless you agree that you use the software 'as is'.
  45:../../../FreeRTOS-Plus/Source/FreeRTOS-Plus-TCP/include/FreeRTOS_Stream_Buffer.h ****  * FreeRTOS+TCP is provided WITHOUT ANY WARRANTY; without even the implied
  46:../../../FreeRTOS-Plus/Source/FreeRTOS-Plus-TCP/include/FreeRTOS_Stream_Buffer.h ****  * warranties of NON-INFRINGEMENT, MERCHANTABILITY or FITNESS FOR A PARTICULAR
  47:../../../FreeRTOS-Plus/Source/FreeRTOS-Plus-TCP/include/FreeRTOS_Stream_Buffer.h ****  * PURPOSE. Real Time Engineers Ltd. disclaims all conditions and terms, be they
  48:../../../FreeRTOS-Plus/Source/FreeRTOS-Plus-TCP/include/FreeRTOS_Stream_Buffer.h ****  * implied, expressed, or statutory.
  49:../../../FreeRTOS-Plus/Source/FreeRTOS-Plus-TCP/include/FreeRTOS_Stream_Buffer.h ****  *
  50:../../../FreeRTOS-Plus/Source/FreeRTOS-Plus-TCP/include/FreeRTOS_Stream_Buffer.h ****  * 1 tab == 4 spaces!
  51:../../../FreeRTOS-Plus/Source/FreeRTOS-Plus-TCP/include/FreeRTOS_Stream_Buffer.h ****  *
  52:../../../FreeRTOS-Plus/Source/FreeRTOS-Plus-TCP/include/FreeRTOS_Stream_Buffer.h ****  * http://www.FreeRTOS.org
ARM GAS  /tmp/ccrA3BdH.s 			page 10


  53:../../../FreeRTOS-Plus/Source/FreeRTOS-Plus-TCP/include/FreeRTOS_Stream_Buffer.h ****  * http://www.FreeRTOS.org/plus
  54:../../../FreeRTOS-Plus/Source/FreeRTOS-Plus-TCP/include/FreeRTOS_Stream_Buffer.h ****  * http://www.FreeRTOS.org/labs
  55:../../../FreeRTOS-Plus/Source/FreeRTOS-Plus-TCP/include/FreeRTOS_Stream_Buffer.h ****  *
  56:../../../FreeRTOS-Plus/Source/FreeRTOS-Plus-TCP/include/FreeRTOS_Stream_Buffer.h ****  */
  57:../../../FreeRTOS-Plus/Source/FreeRTOS-Plus-TCP/include/FreeRTOS_Stream_Buffer.h **** 
  58:../../../FreeRTOS-Plus/Source/FreeRTOS-Plus-TCP/include/FreeRTOS_Stream_Buffer.h **** /*
  59:../../../FreeRTOS-Plus/Source/FreeRTOS-Plus-TCP/include/FreeRTOS_Stream_Buffer.h ****  *	FreeRTOS_Stream_Buffer.h
  60:../../../FreeRTOS-Plus/Source/FreeRTOS-Plus-TCP/include/FreeRTOS_Stream_Buffer.h ****  *
  61:../../../FreeRTOS-Plus/Source/FreeRTOS-Plus-TCP/include/FreeRTOS_Stream_Buffer.h ****  *	A cicular character buffer
  62:../../../FreeRTOS-Plus/Source/FreeRTOS-Plus-TCP/include/FreeRTOS_Stream_Buffer.h ****  *	An implementation of a circular buffer without a length field
  63:../../../FreeRTOS-Plus/Source/FreeRTOS-Plus-TCP/include/FreeRTOS_Stream_Buffer.h ****  *	If LENGTH defines the size of the buffer, a maximum of (LENGT-1) bytes can be stored
  64:../../../FreeRTOS-Plus/Source/FreeRTOS-Plus-TCP/include/FreeRTOS_Stream_Buffer.h ****  *	In order to add or read data from the buffer, memcpy() will be called at most 2 times
  65:../../../FreeRTOS-Plus/Source/FreeRTOS-Plus-TCP/include/FreeRTOS_Stream_Buffer.h ****  */
  66:../../../FreeRTOS-Plus/Source/FreeRTOS-Plus-TCP/include/FreeRTOS_Stream_Buffer.h **** 
  67:../../../FreeRTOS-Plus/Source/FreeRTOS-Plus-TCP/include/FreeRTOS_Stream_Buffer.h **** #ifndef FREERTOS_STREAM_BUFFER_H
  68:../../../FreeRTOS-Plus/Source/FreeRTOS-Plus-TCP/include/FreeRTOS_Stream_Buffer.h **** #define	FREERTOS_STREAM_BUFFER_H
  69:../../../FreeRTOS-Plus/Source/FreeRTOS-Plus-TCP/include/FreeRTOS_Stream_Buffer.h **** 
  70:../../../FreeRTOS-Plus/Source/FreeRTOS-Plus-TCP/include/FreeRTOS_Stream_Buffer.h **** #ifdef __cplusplus
  71:../../../FreeRTOS-Plus/Source/FreeRTOS-Plus-TCP/include/FreeRTOS_Stream_Buffer.h **** extern "C" {
  72:../../../FreeRTOS-Plus/Source/FreeRTOS-Plus-TCP/include/FreeRTOS_Stream_Buffer.h **** #endif
  73:../../../FreeRTOS-Plus/Source/FreeRTOS-Plus-TCP/include/FreeRTOS_Stream_Buffer.h **** 
  74:../../../FreeRTOS-Plus/Source/FreeRTOS-Plus-TCP/include/FreeRTOS_Stream_Buffer.h **** typedef struct xSTREAM_BUFFER {
  75:../../../FreeRTOS-Plus/Source/FreeRTOS-Plus-TCP/include/FreeRTOS_Stream_Buffer.h **** 	volatile size_t uxTail;		/* next item to read */
  76:../../../FreeRTOS-Plus/Source/FreeRTOS-Plus-TCP/include/FreeRTOS_Stream_Buffer.h **** 	volatile size_t uxMid;		/* iterator within the valid items */
  77:../../../FreeRTOS-Plus/Source/FreeRTOS-Plus-TCP/include/FreeRTOS_Stream_Buffer.h **** 	volatile size_t uxHead;		/* next position store a new item */
  78:../../../FreeRTOS-Plus/Source/FreeRTOS-Plus-TCP/include/FreeRTOS_Stream_Buffer.h **** 	volatile size_t uxFront;	/* iterator within the free space */
  79:../../../FreeRTOS-Plus/Source/FreeRTOS-Plus-TCP/include/FreeRTOS_Stream_Buffer.h **** 	size_t LENGTH;				/* const value: number of reserved elements */
  80:../../../FreeRTOS-Plus/Source/FreeRTOS-Plus-TCP/include/FreeRTOS_Stream_Buffer.h **** 	uint8_t ucArray[ sizeof( size_t ) ];
  81:../../../FreeRTOS-Plus/Source/FreeRTOS-Plus-TCP/include/FreeRTOS_Stream_Buffer.h **** } StreamBuffer_t;
  82:../../../FreeRTOS-Plus/Source/FreeRTOS-Plus-TCP/include/FreeRTOS_Stream_Buffer.h **** 
  83:../../../FreeRTOS-Plus/Source/FreeRTOS-Plus-TCP/include/FreeRTOS_Stream_Buffer.h **** static portINLINE void vStreamBufferClear( StreamBuffer_t *pxBuffer );
  84:../../../FreeRTOS-Plus/Source/FreeRTOS-Plus-TCP/include/FreeRTOS_Stream_Buffer.h **** static portINLINE void vStreamBufferClear( StreamBuffer_t *pxBuffer )
  85:../../../FreeRTOS-Plus/Source/FreeRTOS-Plus-TCP/include/FreeRTOS_Stream_Buffer.h **** {
 262              		.loc 2 85 0
 263              		.cfi_startproc
 264              		@ args = 0, pretend = 0, frame = 8
 265              		@ frame_needed = 1, uses_anonymous_args = 0
 266              		@ link register save eliminated.
 267 0000 80B4     		push	{r7}
 268              	.LCFI30:
 269              		.cfi_def_cfa_offset 4
 270              		.cfi_offset 7, -4
 271 0002 83B0     		sub	sp, sp, #12
 272              	.LCFI31:
 273              		.cfi_def_cfa_offset 16
 274 0004 00AF     		add	r7, sp, #0
 275              	.LCFI32:
 276              		.cfi_def_cfa_register 7
 277 0006 7860     		str	r0, [r7, #4]
  86:../../../FreeRTOS-Plus/Source/FreeRTOS-Plus-TCP/include/FreeRTOS_Stream_Buffer.h **** 	/* Make the circular buffer empty */
  87:../../../FreeRTOS-Plus/Source/FreeRTOS-Plus-TCP/include/FreeRTOS_Stream_Buffer.h **** 	pxBuffer->uxHead = 0u;
 278              		.loc 2 87 0
 279 0008 7B68     		ldr	r3, [r7, #4]
 280 000a 0022     		movs	r2, #0
 281 000c 9A60     		str	r2, [r3, #8]
  88:../../../FreeRTOS-Plus/Source/FreeRTOS-Plus-TCP/include/FreeRTOS_Stream_Buffer.h **** 	pxBuffer->uxTail = 0u;
 282              		.loc 2 88 0
ARM GAS  /tmp/ccrA3BdH.s 			page 11


 283 000e 7B68     		ldr	r3, [r7, #4]
 284 0010 0022     		movs	r2, #0
 285 0012 1A60     		str	r2, [r3]
  89:../../../FreeRTOS-Plus/Source/FreeRTOS-Plus-TCP/include/FreeRTOS_Stream_Buffer.h **** 	pxBuffer->uxFront = 0u;
 286              		.loc 2 89 0
 287 0014 7B68     		ldr	r3, [r7, #4]
 288 0016 0022     		movs	r2, #0
 289 0018 DA60     		str	r2, [r3, #12]
  90:../../../FreeRTOS-Plus/Source/FreeRTOS-Plus-TCP/include/FreeRTOS_Stream_Buffer.h **** 	pxBuffer->uxMid = 0u;
 290              		.loc 2 90 0
 291 001a 7B68     		ldr	r3, [r7, #4]
 292 001c 0022     		movs	r2, #0
 293 001e 5A60     		str	r2, [r3, #4]
  91:../../../FreeRTOS-Plus/Source/FreeRTOS-Plus-TCP/include/FreeRTOS_Stream_Buffer.h **** }
 294              		.loc 2 91 0
 295 0020 0C37     		adds	r7, r7, #12
 296              	.LCFI33:
 297              		.cfi_def_cfa_offset 4
 298 0022 BD46     		mov	sp, r7
 299              	.LCFI34:
 300              		.cfi_def_cfa_register 13
 301              		@ sp needed
 302 0024 5DF8047B 		ldr	r7, [sp], #4
 303              	.LCFI35:
 304              		.cfi_restore 7
 305              		.cfi_def_cfa_offset 0
 306 0028 7047     		bx	lr
 307              		.cfi_endproc
 308              	.LFE15:
 310 002a 00BF     		.section	.text.uxStreamBufferSpace,"ax",%progbits
 311              		.align	2
 312              		.thumb
 313              		.thumb_func
 315              	uxStreamBufferSpace:
 316              	.LFB16:
  92:../../../FreeRTOS-Plus/Source/FreeRTOS-Plus-TCP/include/FreeRTOS_Stream_Buffer.h **** /*-----------------------------------------------------------*/
  93:../../../FreeRTOS-Plus/Source/FreeRTOS-Plus-TCP/include/FreeRTOS_Stream_Buffer.h **** 
  94:../../../FreeRTOS-Plus/Source/FreeRTOS-Plus-TCP/include/FreeRTOS_Stream_Buffer.h **** static portINLINE size_t uxStreamBufferSpace( const StreamBuffer_t *pxBuffer, const size_t uxLower,
  95:../../../FreeRTOS-Plus/Source/FreeRTOS-Plus-TCP/include/FreeRTOS_Stream_Buffer.h **** static portINLINE size_t uxStreamBufferSpace( const StreamBuffer_t *pxBuffer, const size_t uxLower,
  96:../../../FreeRTOS-Plus/Source/FreeRTOS-Plus-TCP/include/FreeRTOS_Stream_Buffer.h **** {
 317              		.loc 2 96 0
 318              		.cfi_startproc
 319              		@ args = 0, pretend = 0, frame = 24
 320              		@ frame_needed = 1, uses_anonymous_args = 0
 321              		@ link register save eliminated.
 322 0000 80B4     		push	{r7}
 323              	.LCFI36:
 324              		.cfi_def_cfa_offset 4
 325              		.cfi_offset 7, -4
 326 0002 87B0     		sub	sp, sp, #28
 327              	.LCFI37:
 328              		.cfi_def_cfa_offset 32
 329 0004 00AF     		add	r7, sp, #0
 330              	.LCFI38:
 331              		.cfi_def_cfa_register 7
 332 0006 F860     		str	r0, [r7, #12]
 333 0008 B960     		str	r1, [r7, #8]
ARM GAS  /tmp/ccrA3BdH.s 			page 12


 334 000a 7A60     		str	r2, [r7, #4]
  97:../../../FreeRTOS-Plus/Source/FreeRTOS-Plus-TCP/include/FreeRTOS_Stream_Buffer.h **** /* Returns the space between uxLower and uxUpper, which equals to the distance minus 1 */
  98:../../../FreeRTOS-Plus/Source/FreeRTOS-Plus-TCP/include/FreeRTOS_Stream_Buffer.h **** size_t uxCount;
  99:../../../FreeRTOS-Plus/Source/FreeRTOS-Plus-TCP/include/FreeRTOS_Stream_Buffer.h **** 
 100:../../../FreeRTOS-Plus/Source/FreeRTOS-Plus-TCP/include/FreeRTOS_Stream_Buffer.h **** 	uxCount = pxBuffer->LENGTH + uxUpper - uxLower - 1u;
 335              		.loc 2 100 0
 336 000c FB68     		ldr	r3, [r7, #12]
 337 000e 1A69     		ldr	r2, [r3, #16]
 338 0010 7B68     		ldr	r3, [r7, #4]
 339 0012 1A44     		add	r2, r2, r3
 340 0014 BB68     		ldr	r3, [r7, #8]
 341 0016 D31A     		subs	r3, r2, r3
 342 0018 013B     		subs	r3, r3, #1
 343 001a 7B61     		str	r3, [r7, #20]
 101:../../../FreeRTOS-Plus/Source/FreeRTOS-Plus-TCP/include/FreeRTOS_Stream_Buffer.h **** 	if( uxCount >= pxBuffer->LENGTH )
 344              		.loc 2 101 0
 345 001c FB68     		ldr	r3, [r7, #12]
 346 001e 1A69     		ldr	r2, [r3, #16]
 347 0020 7B69     		ldr	r3, [r7, #20]
 348 0022 9A42     		cmp	r2, r3
 349 0024 04D8     		bhi	.L13
 102:../../../FreeRTOS-Plus/Source/FreeRTOS-Plus-TCP/include/FreeRTOS_Stream_Buffer.h **** 	{
 103:../../../FreeRTOS-Plus/Source/FreeRTOS-Plus-TCP/include/FreeRTOS_Stream_Buffer.h **** 		uxCount -= pxBuffer->LENGTH;
 350              		.loc 2 103 0
 351 0026 FB68     		ldr	r3, [r7, #12]
 352 0028 1B69     		ldr	r3, [r3, #16]
 353 002a 7A69     		ldr	r2, [r7, #20]
 354 002c D31A     		subs	r3, r2, r3
 355 002e 7B61     		str	r3, [r7, #20]
 356              	.L13:
 104:../../../FreeRTOS-Plus/Source/FreeRTOS-Plus-TCP/include/FreeRTOS_Stream_Buffer.h **** 	}
 105:../../../FreeRTOS-Plus/Source/FreeRTOS-Plus-TCP/include/FreeRTOS_Stream_Buffer.h **** 
 106:../../../FreeRTOS-Plus/Source/FreeRTOS-Plus-TCP/include/FreeRTOS_Stream_Buffer.h **** 	return uxCount;
 357              		.loc 2 106 0
 358 0030 7B69     		ldr	r3, [r7, #20]
 107:../../../FreeRTOS-Plus/Source/FreeRTOS-Plus-TCP/include/FreeRTOS_Stream_Buffer.h **** }
 359              		.loc 2 107 0
 360 0032 1846     		mov	r0, r3
 361 0034 1C37     		adds	r7, r7, #28
 362              	.LCFI39:
 363              		.cfi_def_cfa_offset 4
 364 0036 BD46     		mov	sp, r7
 365              	.LCFI40:
 366              		.cfi_def_cfa_register 13
 367              		@ sp needed
 368 0038 5DF8047B 		ldr	r7, [sp], #4
 369              	.LCFI41:
 370              		.cfi_restore 7
 371              		.cfi_def_cfa_offset 0
 372 003c 7047     		bx	lr
 373              		.cfi_endproc
 374              	.LFE16:
 376 003e 00BF     		.section	.text.uxStreamBufferDistance,"ax",%progbits
 377              		.align	2
 378              		.thumb
 379              		.thumb_func
 381              	uxStreamBufferDistance:
ARM GAS  /tmp/ccrA3BdH.s 			page 13


 382              	.LFB17:
 108:../../../FreeRTOS-Plus/Source/FreeRTOS-Plus-TCP/include/FreeRTOS_Stream_Buffer.h **** /*-----------------------------------------------------------*/
 109:../../../FreeRTOS-Plus/Source/FreeRTOS-Plus-TCP/include/FreeRTOS_Stream_Buffer.h **** 
 110:../../../FreeRTOS-Plus/Source/FreeRTOS-Plus-TCP/include/FreeRTOS_Stream_Buffer.h **** static portINLINE size_t uxStreamBufferDistance( const StreamBuffer_t *pxBuffer, const size_t uxLow
 111:../../../FreeRTOS-Plus/Source/FreeRTOS-Plus-TCP/include/FreeRTOS_Stream_Buffer.h **** static portINLINE size_t uxStreamBufferDistance( const StreamBuffer_t *pxBuffer, const size_t uxLow
 112:../../../FreeRTOS-Plus/Source/FreeRTOS-Plus-TCP/include/FreeRTOS_Stream_Buffer.h **** {
 383              		.loc 2 112 0
 384              		.cfi_startproc
 385              		@ args = 0, pretend = 0, frame = 24
 386              		@ frame_needed = 1, uses_anonymous_args = 0
 387              		@ link register save eliminated.
 388 0000 80B4     		push	{r7}
 389              	.LCFI42:
 390              		.cfi_def_cfa_offset 4
 391              		.cfi_offset 7, -4
 392 0002 87B0     		sub	sp, sp, #28
 393              	.LCFI43:
 394              		.cfi_def_cfa_offset 32
 395 0004 00AF     		add	r7, sp, #0
 396              	.LCFI44:
 397              		.cfi_def_cfa_register 7
 398 0006 F860     		str	r0, [r7, #12]
 399 0008 B960     		str	r1, [r7, #8]
 400 000a 7A60     		str	r2, [r7, #4]
 113:../../../FreeRTOS-Plus/Source/FreeRTOS-Plus-TCP/include/FreeRTOS_Stream_Buffer.h **** /* Returns the distance between uxLower and uxUpper */
 114:../../../FreeRTOS-Plus/Source/FreeRTOS-Plus-TCP/include/FreeRTOS_Stream_Buffer.h **** size_t uxCount;
 115:../../../FreeRTOS-Plus/Source/FreeRTOS-Plus-TCP/include/FreeRTOS_Stream_Buffer.h **** 
 116:../../../FreeRTOS-Plus/Source/FreeRTOS-Plus-TCP/include/FreeRTOS_Stream_Buffer.h **** 	uxCount = pxBuffer->LENGTH + uxUpper - uxLower;
 401              		.loc 2 116 0
 402 000c FB68     		ldr	r3, [r7, #12]
 403 000e 1A69     		ldr	r2, [r3, #16]
 404 0010 7B68     		ldr	r3, [r7, #4]
 405 0012 1A44     		add	r2, r2, r3
 406 0014 BB68     		ldr	r3, [r7, #8]
 407 0016 D31A     		subs	r3, r2, r3
 408 0018 7B61     		str	r3, [r7, #20]
 117:../../../FreeRTOS-Plus/Source/FreeRTOS-Plus-TCP/include/FreeRTOS_Stream_Buffer.h **** 	if ( uxCount >= pxBuffer->LENGTH )
 409              		.loc 2 117 0
 410 001a FB68     		ldr	r3, [r7, #12]
 411 001c 1A69     		ldr	r2, [r3, #16]
 412 001e 7B69     		ldr	r3, [r7, #20]
 413 0020 9A42     		cmp	r2, r3
 414 0022 04D8     		bhi	.L16
 118:../../../FreeRTOS-Plus/Source/FreeRTOS-Plus-TCP/include/FreeRTOS_Stream_Buffer.h **** 	{
 119:../../../FreeRTOS-Plus/Source/FreeRTOS-Plus-TCP/include/FreeRTOS_Stream_Buffer.h **** 		uxCount -= pxBuffer->LENGTH;
 415              		.loc 2 119 0
 416 0024 FB68     		ldr	r3, [r7, #12]
 417 0026 1B69     		ldr	r3, [r3, #16]
 418 0028 7A69     		ldr	r2, [r7, #20]
 419 002a D31A     		subs	r3, r2, r3
 420 002c 7B61     		str	r3, [r7, #20]
 421              	.L16:
 120:../../../FreeRTOS-Plus/Source/FreeRTOS-Plus-TCP/include/FreeRTOS_Stream_Buffer.h **** 	}
 121:../../../FreeRTOS-Plus/Source/FreeRTOS-Plus-TCP/include/FreeRTOS_Stream_Buffer.h **** 
 122:../../../FreeRTOS-Plus/Source/FreeRTOS-Plus-TCP/include/FreeRTOS_Stream_Buffer.h **** 	return uxCount;
 422              		.loc 2 122 0
 423 002e 7B69     		ldr	r3, [r7, #20]
ARM GAS  /tmp/ccrA3BdH.s 			page 14


 123:../../../FreeRTOS-Plus/Source/FreeRTOS-Plus-TCP/include/FreeRTOS_Stream_Buffer.h **** }
 424              		.loc 2 123 0
 425 0030 1846     		mov	r0, r3
 426 0032 1C37     		adds	r7, r7, #28
 427              	.LCFI45:
 428              		.cfi_def_cfa_offset 4
 429 0034 BD46     		mov	sp, r7
 430              	.LCFI46:
 431              		.cfi_def_cfa_register 13
 432              		@ sp needed
 433 0036 5DF8047B 		ldr	r7, [sp], #4
 434              	.LCFI47:
 435              		.cfi_restore 7
 436              		.cfi_def_cfa_offset 0
 437 003a 7047     		bx	lr
 438              		.cfi_endproc
 439              	.LFE17:
 441              		.section	.text.uxStreamBufferGetSpace,"ax",%progbits
 442              		.align	2
 443              		.thumb
 444              		.thumb_func
 446              	uxStreamBufferGetSpace:
 447              	.LFB18:
 124:../../../FreeRTOS-Plus/Source/FreeRTOS-Plus-TCP/include/FreeRTOS_Stream_Buffer.h **** /*-----------------------------------------------------------*/
 125:../../../FreeRTOS-Plus/Source/FreeRTOS-Plus-TCP/include/FreeRTOS_Stream_Buffer.h **** 
 126:../../../FreeRTOS-Plus/Source/FreeRTOS-Plus-TCP/include/FreeRTOS_Stream_Buffer.h **** static portINLINE size_t uxStreamBufferGetSpace( const StreamBuffer_t *pxBuffer );
 127:../../../FreeRTOS-Plus/Source/FreeRTOS-Plus-TCP/include/FreeRTOS_Stream_Buffer.h **** static portINLINE size_t uxStreamBufferGetSpace( const StreamBuffer_t *pxBuffer )
 128:../../../FreeRTOS-Plus/Source/FreeRTOS-Plus-TCP/include/FreeRTOS_Stream_Buffer.h **** {
 448              		.loc 2 128 0
 449              		.cfi_startproc
 450              		@ args = 0, pretend = 0, frame = 16
 451              		@ frame_needed = 1, uses_anonymous_args = 0
 452 0000 80B5     		push	{r7, lr}
 453              	.LCFI48:
 454              		.cfi_def_cfa_offset 8
 455              		.cfi_offset 7, -8
 456              		.cfi_offset 14, -4
 457 0002 84B0     		sub	sp, sp, #16
 458              	.LCFI49:
 459              		.cfi_def_cfa_offset 24
 460 0004 00AF     		add	r7, sp, #0
 461              	.LCFI50:
 462              		.cfi_def_cfa_register 7
 463 0006 7860     		str	r0, [r7, #4]
 129:../../../FreeRTOS-Plus/Source/FreeRTOS-Plus-TCP/include/FreeRTOS_Stream_Buffer.h **** /* Returns the number of items which can still be added to uxHead
 130:../../../FreeRTOS-Plus/Source/FreeRTOS-Plus-TCP/include/FreeRTOS_Stream_Buffer.h **** before hitting on uxTail */
 131:../../../FreeRTOS-Plus/Source/FreeRTOS-Plus-TCP/include/FreeRTOS_Stream_Buffer.h **** size_t uxHead = pxBuffer->uxHead;
 464              		.loc 2 131 0
 465 0008 7B68     		ldr	r3, [r7, #4]
 466 000a 9B68     		ldr	r3, [r3, #8]
 467 000c FB60     		str	r3, [r7, #12]
 132:../../../FreeRTOS-Plus/Source/FreeRTOS-Plus-TCP/include/FreeRTOS_Stream_Buffer.h **** size_t uxTail = pxBuffer->uxTail;
 468              		.loc 2 132 0
 469 000e 7B68     		ldr	r3, [r7, #4]
 470 0010 1B68     		ldr	r3, [r3]
 471 0012 BB60     		str	r3, [r7, #8]
 133:../../../FreeRTOS-Plus/Source/FreeRTOS-Plus-TCP/include/FreeRTOS_Stream_Buffer.h **** 
ARM GAS  /tmp/ccrA3BdH.s 			page 15


 134:../../../FreeRTOS-Plus/Source/FreeRTOS-Plus-TCP/include/FreeRTOS_Stream_Buffer.h **** 	return uxStreamBufferSpace( pxBuffer, uxHead, uxTail );
 472              		.loc 2 134 0
 473 0014 7868     		ldr	r0, [r7, #4]
 474 0016 F968     		ldr	r1, [r7, #12]
 475 0018 BA68     		ldr	r2, [r7, #8]
 476 001a FFF7FEFF 		bl	uxStreamBufferSpace
 477 001e 0346     		mov	r3, r0
 135:../../../FreeRTOS-Plus/Source/FreeRTOS-Plus-TCP/include/FreeRTOS_Stream_Buffer.h **** }
 478              		.loc 2 135 0
 479 0020 1846     		mov	r0, r3
 480 0022 1037     		adds	r7, r7, #16
 481              	.LCFI51:
 482              		.cfi_def_cfa_offset 8
 483 0024 BD46     		mov	sp, r7
 484              	.LCFI52:
 485              		.cfi_def_cfa_register 13
 486              		@ sp needed
 487 0026 80BD     		pop	{r7, pc}
 488              		.cfi_endproc
 489              	.LFE18:
 491              		.section	.text.uxStreamBufferFrontSpace,"ax",%progbits
 492              		.align	2
 493              		.thumb
 494              		.thumb_func
 496              	uxStreamBufferFrontSpace:
 497              	.LFB19:
 136:../../../FreeRTOS-Plus/Source/FreeRTOS-Plus-TCP/include/FreeRTOS_Stream_Buffer.h **** /*-----------------------------------------------------------*/
 137:../../../FreeRTOS-Plus/Source/FreeRTOS-Plus-TCP/include/FreeRTOS_Stream_Buffer.h **** 
 138:../../../FreeRTOS-Plus/Source/FreeRTOS-Plus-TCP/include/FreeRTOS_Stream_Buffer.h **** static portINLINE size_t uxStreamBufferFrontSpace( const StreamBuffer_t *pxBuffer );
 139:../../../FreeRTOS-Plus/Source/FreeRTOS-Plus-TCP/include/FreeRTOS_Stream_Buffer.h **** static portINLINE size_t uxStreamBufferFrontSpace( const StreamBuffer_t *pxBuffer )
 140:../../../FreeRTOS-Plus/Source/FreeRTOS-Plus-TCP/include/FreeRTOS_Stream_Buffer.h **** {
 498              		.loc 2 140 0
 499              		.cfi_startproc
 500              		@ args = 0, pretend = 0, frame = 16
 501              		@ frame_needed = 1, uses_anonymous_args = 0
 502 0000 80B5     		push	{r7, lr}
 503              	.LCFI53:
 504              		.cfi_def_cfa_offset 8
 505              		.cfi_offset 7, -8
 506              		.cfi_offset 14, -4
 507 0002 84B0     		sub	sp, sp, #16
 508              	.LCFI54:
 509              		.cfi_def_cfa_offset 24
 510 0004 00AF     		add	r7, sp, #0
 511              	.LCFI55:
 512              		.cfi_def_cfa_register 7
 513 0006 7860     		str	r0, [r7, #4]
 141:../../../FreeRTOS-Plus/Source/FreeRTOS-Plus-TCP/include/FreeRTOS_Stream_Buffer.h **** /* Distance between uxFront and uxTail
 142:../../../FreeRTOS-Plus/Source/FreeRTOS-Plus-TCP/include/FreeRTOS_Stream_Buffer.h **** or the number of items which can still be added to uxFront,
 143:../../../FreeRTOS-Plus/Source/FreeRTOS-Plus-TCP/include/FreeRTOS_Stream_Buffer.h **** before hitting on uxTail */
 144:../../../FreeRTOS-Plus/Source/FreeRTOS-Plus-TCP/include/FreeRTOS_Stream_Buffer.h **** 
 145:../../../FreeRTOS-Plus/Source/FreeRTOS-Plus-TCP/include/FreeRTOS_Stream_Buffer.h **** size_t uxFront = pxBuffer->uxFront;
 514              		.loc 2 145 0
 515 0008 7B68     		ldr	r3, [r7, #4]
 516 000a DB68     		ldr	r3, [r3, #12]
 517 000c FB60     		str	r3, [r7, #12]
 146:../../../FreeRTOS-Plus/Source/FreeRTOS-Plus-TCP/include/FreeRTOS_Stream_Buffer.h **** size_t uxTail = pxBuffer->uxTail;
ARM GAS  /tmp/ccrA3BdH.s 			page 16


 518              		.loc 2 146 0
 519 000e 7B68     		ldr	r3, [r7, #4]
 520 0010 1B68     		ldr	r3, [r3]
 521 0012 BB60     		str	r3, [r7, #8]
 147:../../../FreeRTOS-Plus/Source/FreeRTOS-Plus-TCP/include/FreeRTOS_Stream_Buffer.h **** 
 148:../../../FreeRTOS-Plus/Source/FreeRTOS-Plus-TCP/include/FreeRTOS_Stream_Buffer.h **** 	return uxStreamBufferSpace( pxBuffer, uxFront, uxTail );
 522              		.loc 2 148 0
 523 0014 7868     		ldr	r0, [r7, #4]
 524 0016 F968     		ldr	r1, [r7, #12]
 525 0018 BA68     		ldr	r2, [r7, #8]
 526 001a FFF7FEFF 		bl	uxStreamBufferSpace
 527 001e 0346     		mov	r3, r0
 149:../../../FreeRTOS-Plus/Source/FreeRTOS-Plus-TCP/include/FreeRTOS_Stream_Buffer.h **** }
 528              		.loc 2 149 0
 529 0020 1846     		mov	r0, r3
 530 0022 1037     		adds	r7, r7, #16
 531              	.LCFI56:
 532              		.cfi_def_cfa_offset 8
 533 0024 BD46     		mov	sp, r7
 534              	.LCFI57:
 535              		.cfi_def_cfa_register 13
 536              		@ sp needed
 537 0026 80BD     		pop	{r7, pc}
 538              		.cfi_endproc
 539              	.LFE19:
 541              		.section	.text.uxStreamBufferGetSize,"ax",%progbits
 542              		.align	2
 543              		.thumb
 544              		.thumb_func
 546              	uxStreamBufferGetSize:
 547              	.LFB20:
 150:../../../FreeRTOS-Plus/Source/FreeRTOS-Plus-TCP/include/FreeRTOS_Stream_Buffer.h **** /*-----------------------------------------------------------*/
 151:../../../FreeRTOS-Plus/Source/FreeRTOS-Plus-TCP/include/FreeRTOS_Stream_Buffer.h **** 
 152:../../../FreeRTOS-Plus/Source/FreeRTOS-Plus-TCP/include/FreeRTOS_Stream_Buffer.h **** static portINLINE size_t uxStreamBufferGetSize( const StreamBuffer_t *pxBuffer );
 153:../../../FreeRTOS-Plus/Source/FreeRTOS-Plus-TCP/include/FreeRTOS_Stream_Buffer.h **** static portINLINE size_t uxStreamBufferGetSize( const StreamBuffer_t *pxBuffer )
 154:../../../FreeRTOS-Plus/Source/FreeRTOS-Plus-TCP/include/FreeRTOS_Stream_Buffer.h **** {
 548              		.loc 2 154 0
 549              		.cfi_startproc
 550              		@ args = 0, pretend = 0, frame = 16
 551              		@ frame_needed = 1, uses_anonymous_args = 0
 552 0000 80B5     		push	{r7, lr}
 553              	.LCFI58:
 554              		.cfi_def_cfa_offset 8
 555              		.cfi_offset 7, -8
 556              		.cfi_offset 14, -4
 557 0002 84B0     		sub	sp, sp, #16
 558              	.LCFI59:
 559              		.cfi_def_cfa_offset 24
 560 0004 00AF     		add	r7, sp, #0
 561              	.LCFI60:
 562              		.cfi_def_cfa_register 7
 563 0006 7860     		str	r0, [r7, #4]
 155:../../../FreeRTOS-Plus/Source/FreeRTOS-Plus-TCP/include/FreeRTOS_Stream_Buffer.h **** /* Returns the number of items which can be read from uxTail
 156:../../../FreeRTOS-Plus/Source/FreeRTOS-Plus-TCP/include/FreeRTOS_Stream_Buffer.h **** before reaching uxHead */
 157:../../../FreeRTOS-Plus/Source/FreeRTOS-Plus-TCP/include/FreeRTOS_Stream_Buffer.h **** size_t uxHead = pxBuffer->uxHead;
 564              		.loc 2 157 0
 565 0008 7B68     		ldr	r3, [r7, #4]
ARM GAS  /tmp/ccrA3BdH.s 			page 17


 566 000a 9B68     		ldr	r3, [r3, #8]
 567 000c FB60     		str	r3, [r7, #12]
 158:../../../FreeRTOS-Plus/Source/FreeRTOS-Plus-TCP/include/FreeRTOS_Stream_Buffer.h **** size_t uxTail = pxBuffer->uxTail;
 568              		.loc 2 158 0
 569 000e 7B68     		ldr	r3, [r7, #4]
 570 0010 1B68     		ldr	r3, [r3]
 571 0012 BB60     		str	r3, [r7, #8]
 159:../../../FreeRTOS-Plus/Source/FreeRTOS-Plus-TCP/include/FreeRTOS_Stream_Buffer.h **** 
 160:../../../FreeRTOS-Plus/Source/FreeRTOS-Plus-TCP/include/FreeRTOS_Stream_Buffer.h **** 	return uxStreamBufferDistance( pxBuffer, uxTail, uxHead );
 572              		.loc 2 160 0
 573 0014 7868     		ldr	r0, [r7, #4]
 574 0016 B968     		ldr	r1, [r7, #8]
 575 0018 FA68     		ldr	r2, [r7, #12]
 576 001a FFF7FEFF 		bl	uxStreamBufferDistance
 577 001e 0346     		mov	r3, r0
 161:../../../FreeRTOS-Plus/Source/FreeRTOS-Plus-TCP/include/FreeRTOS_Stream_Buffer.h **** }
 578              		.loc 2 161 0
 579 0020 1846     		mov	r0, r3
 580 0022 1037     		adds	r7, r7, #16
 581              	.LCFI61:
 582              		.cfi_def_cfa_offset 8
 583 0024 BD46     		mov	sp, r7
 584              	.LCFI62:
 585              		.cfi_def_cfa_register 13
 586              		@ sp needed
 587 0026 80BD     		pop	{r7, pc}
 588              		.cfi_endproc
 589              	.LFE20:
 591              		.section	.text.uxStreamBufferGetPtr,"ax",%progbits
 592              		.align	2
 593              		.thumb
 594              		.thumb_func
 596              	uxStreamBufferGetPtr:
 597              	.LFB26:
 162:../../../FreeRTOS-Plus/Source/FreeRTOS-Plus-TCP/include/FreeRTOS_Stream_Buffer.h **** /*-----------------------------------------------------------*/
 163:../../../FreeRTOS-Plus/Source/FreeRTOS-Plus-TCP/include/FreeRTOS_Stream_Buffer.h **** 
 164:../../../FreeRTOS-Plus/Source/FreeRTOS-Plus-TCP/include/FreeRTOS_Stream_Buffer.h **** static portINLINE size_t uxStreamBufferMidSpace( const StreamBuffer_t *pxBuffer );
 165:../../../FreeRTOS-Plus/Source/FreeRTOS-Plus-TCP/include/FreeRTOS_Stream_Buffer.h **** static portINLINE size_t uxStreamBufferMidSpace( const StreamBuffer_t *pxBuffer )
 166:../../../FreeRTOS-Plus/Source/FreeRTOS-Plus-TCP/include/FreeRTOS_Stream_Buffer.h **** {
 167:../../../FreeRTOS-Plus/Source/FreeRTOS-Plus-TCP/include/FreeRTOS_Stream_Buffer.h **** /* Returns the distance between uxHead and uxMid */
 168:../../../FreeRTOS-Plus/Source/FreeRTOS-Plus-TCP/include/FreeRTOS_Stream_Buffer.h **** size_t uxHead = pxBuffer->uxHead;
 169:../../../FreeRTOS-Plus/Source/FreeRTOS-Plus-TCP/include/FreeRTOS_Stream_Buffer.h **** size_t uxMid = pxBuffer->uxMid;
 170:../../../FreeRTOS-Plus/Source/FreeRTOS-Plus-TCP/include/FreeRTOS_Stream_Buffer.h **** 
 171:../../../FreeRTOS-Plus/Source/FreeRTOS-Plus-TCP/include/FreeRTOS_Stream_Buffer.h **** 	return uxStreamBufferDistance( pxBuffer, uxMid, uxHead );
 172:../../../FreeRTOS-Plus/Source/FreeRTOS-Plus-TCP/include/FreeRTOS_Stream_Buffer.h **** }
 173:../../../FreeRTOS-Plus/Source/FreeRTOS-Plus-TCP/include/FreeRTOS_Stream_Buffer.h **** /*-----------------------------------------------------------*/
 174:../../../FreeRTOS-Plus/Source/FreeRTOS-Plus-TCP/include/FreeRTOS_Stream_Buffer.h **** 
 175:../../../FreeRTOS-Plus/Source/FreeRTOS-Plus-TCP/include/FreeRTOS_Stream_Buffer.h **** static portINLINE void vStreamBufferMoveMid( StreamBuffer_t *pxBuffer, size_t uxCount );
 176:../../../FreeRTOS-Plus/Source/FreeRTOS-Plus-TCP/include/FreeRTOS_Stream_Buffer.h **** static portINLINE void vStreamBufferMoveMid( StreamBuffer_t *pxBuffer, size_t uxCount )
 177:../../../FreeRTOS-Plus/Source/FreeRTOS-Plus-TCP/include/FreeRTOS_Stream_Buffer.h **** {
 178:../../../FreeRTOS-Plus/Source/FreeRTOS-Plus-TCP/include/FreeRTOS_Stream_Buffer.h **** /* Increment uxMid, but no further than uxHead */
 179:../../../FreeRTOS-Plus/Source/FreeRTOS-Plus-TCP/include/FreeRTOS_Stream_Buffer.h **** size_t uxSize = uxStreamBufferMidSpace( pxBuffer );
 180:../../../FreeRTOS-Plus/Source/FreeRTOS-Plus-TCP/include/FreeRTOS_Stream_Buffer.h **** 
 181:../../../FreeRTOS-Plus/Source/FreeRTOS-Plus-TCP/include/FreeRTOS_Stream_Buffer.h **** 	if( uxCount > uxSize )
 182:../../../FreeRTOS-Plus/Source/FreeRTOS-Plus-TCP/include/FreeRTOS_Stream_Buffer.h **** 	{
 183:../../../FreeRTOS-Plus/Source/FreeRTOS-Plus-TCP/include/FreeRTOS_Stream_Buffer.h **** 		uxCount = uxSize;
 184:../../../FreeRTOS-Plus/Source/FreeRTOS-Plus-TCP/include/FreeRTOS_Stream_Buffer.h **** 	}
ARM GAS  /tmp/ccrA3BdH.s 			page 18


 185:../../../FreeRTOS-Plus/Source/FreeRTOS-Plus-TCP/include/FreeRTOS_Stream_Buffer.h **** 	pxBuffer->uxMid += uxCount;
 186:../../../FreeRTOS-Plus/Source/FreeRTOS-Plus-TCP/include/FreeRTOS_Stream_Buffer.h **** 	if( pxBuffer->uxMid >= pxBuffer->LENGTH )
 187:../../../FreeRTOS-Plus/Source/FreeRTOS-Plus-TCP/include/FreeRTOS_Stream_Buffer.h **** 	{
 188:../../../FreeRTOS-Plus/Source/FreeRTOS-Plus-TCP/include/FreeRTOS_Stream_Buffer.h **** 		pxBuffer->uxMid -= pxBuffer->LENGTH;
 189:../../../FreeRTOS-Plus/Source/FreeRTOS-Plus-TCP/include/FreeRTOS_Stream_Buffer.h **** 	}
 190:../../../FreeRTOS-Plus/Source/FreeRTOS-Plus-TCP/include/FreeRTOS_Stream_Buffer.h **** }
 191:../../../FreeRTOS-Plus/Source/FreeRTOS-Plus-TCP/include/FreeRTOS_Stream_Buffer.h **** /*-----------------------------------------------------------*/
 192:../../../FreeRTOS-Plus/Source/FreeRTOS-Plus-TCP/include/FreeRTOS_Stream_Buffer.h **** static portINLINE BaseType_t xStreamBufferIsEmpty( const StreamBuffer_t *pxBuffer );
 193:../../../FreeRTOS-Plus/Source/FreeRTOS-Plus-TCP/include/FreeRTOS_Stream_Buffer.h **** static portINLINE BaseType_t xStreamBufferIsEmpty( const StreamBuffer_t *pxBuffer )
 194:../../../FreeRTOS-Plus/Source/FreeRTOS-Plus-TCP/include/FreeRTOS_Stream_Buffer.h **** {
 195:../../../FreeRTOS-Plus/Source/FreeRTOS-Plus-TCP/include/FreeRTOS_Stream_Buffer.h **** BaseType_t xReturn;
 196:../../../FreeRTOS-Plus/Source/FreeRTOS-Plus-TCP/include/FreeRTOS_Stream_Buffer.h **** 
 197:../../../FreeRTOS-Plus/Source/FreeRTOS-Plus-TCP/include/FreeRTOS_Stream_Buffer.h **** 	/* True if no item is available */
 198:../../../FreeRTOS-Plus/Source/FreeRTOS-Plus-TCP/include/FreeRTOS_Stream_Buffer.h **** 	if( pxBuffer->uxHead == pxBuffer->uxTail )
 199:../../../FreeRTOS-Plus/Source/FreeRTOS-Plus-TCP/include/FreeRTOS_Stream_Buffer.h **** 	{
 200:../../../FreeRTOS-Plus/Source/FreeRTOS-Plus-TCP/include/FreeRTOS_Stream_Buffer.h **** 		xReturn = pdTRUE;
 201:../../../FreeRTOS-Plus/Source/FreeRTOS-Plus-TCP/include/FreeRTOS_Stream_Buffer.h **** 	}
 202:../../../FreeRTOS-Plus/Source/FreeRTOS-Plus-TCP/include/FreeRTOS_Stream_Buffer.h **** 	else
 203:../../../FreeRTOS-Plus/Source/FreeRTOS-Plus-TCP/include/FreeRTOS_Stream_Buffer.h **** 	{
 204:../../../FreeRTOS-Plus/Source/FreeRTOS-Plus-TCP/include/FreeRTOS_Stream_Buffer.h **** 		xReturn = pdFALSE;
 205:../../../FreeRTOS-Plus/Source/FreeRTOS-Plus-TCP/include/FreeRTOS_Stream_Buffer.h **** 	}
 206:../../../FreeRTOS-Plus/Source/FreeRTOS-Plus-TCP/include/FreeRTOS_Stream_Buffer.h **** 	return xReturn;
 207:../../../FreeRTOS-Plus/Source/FreeRTOS-Plus-TCP/include/FreeRTOS_Stream_Buffer.h **** }
 208:../../../FreeRTOS-Plus/Source/FreeRTOS-Plus-TCP/include/FreeRTOS_Stream_Buffer.h **** /*-----------------------------------------------------------*/
 209:../../../FreeRTOS-Plus/Source/FreeRTOS-Plus-TCP/include/FreeRTOS_Stream_Buffer.h **** 
 210:../../../FreeRTOS-Plus/Source/FreeRTOS-Plus-TCP/include/FreeRTOS_Stream_Buffer.h **** static portINLINE BaseType_t xStreamBufferIsFull( const StreamBuffer_t *pxBuffer );
 211:../../../FreeRTOS-Plus/Source/FreeRTOS-Plus-TCP/include/FreeRTOS_Stream_Buffer.h **** static portINLINE BaseType_t xStreamBufferIsFull( const StreamBuffer_t *pxBuffer )
 212:../../../FreeRTOS-Plus/Source/FreeRTOS-Plus-TCP/include/FreeRTOS_Stream_Buffer.h **** {
 213:../../../FreeRTOS-Plus/Source/FreeRTOS-Plus-TCP/include/FreeRTOS_Stream_Buffer.h **** 	/* True if the available space equals zero. */
 214:../../../FreeRTOS-Plus/Source/FreeRTOS-Plus-TCP/include/FreeRTOS_Stream_Buffer.h **** 	return ( BaseType_t ) ( uxStreamBufferGetSpace( pxBuffer ) == 0u );
 215:../../../FreeRTOS-Plus/Source/FreeRTOS-Plus-TCP/include/FreeRTOS_Stream_Buffer.h **** }
 216:../../../FreeRTOS-Plus/Source/FreeRTOS-Plus-TCP/include/FreeRTOS_Stream_Buffer.h **** /*-----------------------------------------------------------*/
 217:../../../FreeRTOS-Plus/Source/FreeRTOS-Plus-TCP/include/FreeRTOS_Stream_Buffer.h **** 
 218:../../../FreeRTOS-Plus/Source/FreeRTOS-Plus-TCP/include/FreeRTOS_Stream_Buffer.h **** static portINLINE BaseType_t xStreamBufferLessThenEqual( const StreamBuffer_t *pxBuffer, const size
 219:../../../FreeRTOS-Plus/Source/FreeRTOS-Plus-TCP/include/FreeRTOS_Stream_Buffer.h **** static portINLINE BaseType_t xStreamBufferLessThenEqual( const StreamBuffer_t *pxBuffer, const size
 220:../../../FreeRTOS-Plus/Source/FreeRTOS-Plus-TCP/include/FreeRTOS_Stream_Buffer.h **** {
 221:../../../FreeRTOS-Plus/Source/FreeRTOS-Plus-TCP/include/FreeRTOS_Stream_Buffer.h **** BaseType_t xReturn;
 222:../../../FreeRTOS-Plus/Source/FreeRTOS-Plus-TCP/include/FreeRTOS_Stream_Buffer.h **** size_t uxTail = pxBuffer->uxTail;
 223:../../../FreeRTOS-Plus/Source/FreeRTOS-Plus-TCP/include/FreeRTOS_Stream_Buffer.h **** 
 224:../../../FreeRTOS-Plus/Source/FreeRTOS-Plus-TCP/include/FreeRTOS_Stream_Buffer.h **** 	/* Returns true if ( uxLeft < uxRight ) */
 225:../../../FreeRTOS-Plus/Source/FreeRTOS-Plus-TCP/include/FreeRTOS_Stream_Buffer.h **** 	if( ( uxLeft < uxTail ) ^ ( uxRight < uxTail ) )
 226:../../../FreeRTOS-Plus/Source/FreeRTOS-Plus-TCP/include/FreeRTOS_Stream_Buffer.h **** 	{
 227:../../../FreeRTOS-Plus/Source/FreeRTOS-Plus-TCP/include/FreeRTOS_Stream_Buffer.h **** 		if( uxRight < uxTail )
 228:../../../FreeRTOS-Plus/Source/FreeRTOS-Plus-TCP/include/FreeRTOS_Stream_Buffer.h **** 		{
 229:../../../FreeRTOS-Plus/Source/FreeRTOS-Plus-TCP/include/FreeRTOS_Stream_Buffer.h **** 			xReturn = pdTRUE;
 230:../../../FreeRTOS-Plus/Source/FreeRTOS-Plus-TCP/include/FreeRTOS_Stream_Buffer.h **** 		}
 231:../../../FreeRTOS-Plus/Source/FreeRTOS-Plus-TCP/include/FreeRTOS_Stream_Buffer.h **** 		else
 232:../../../FreeRTOS-Plus/Source/FreeRTOS-Plus-TCP/include/FreeRTOS_Stream_Buffer.h **** 		{
 233:../../../FreeRTOS-Plus/Source/FreeRTOS-Plus-TCP/include/FreeRTOS_Stream_Buffer.h **** 			xReturn = pdFALSE;
 234:../../../FreeRTOS-Plus/Source/FreeRTOS-Plus-TCP/include/FreeRTOS_Stream_Buffer.h **** 		}
 235:../../../FreeRTOS-Plus/Source/FreeRTOS-Plus-TCP/include/FreeRTOS_Stream_Buffer.h **** 	}
 236:../../../FreeRTOS-Plus/Source/FreeRTOS-Plus-TCP/include/FreeRTOS_Stream_Buffer.h **** 	else
 237:../../../FreeRTOS-Plus/Source/FreeRTOS-Plus-TCP/include/FreeRTOS_Stream_Buffer.h **** 	{
 238:../../../FreeRTOS-Plus/Source/FreeRTOS-Plus-TCP/include/FreeRTOS_Stream_Buffer.h **** 		if( uxLeft <= uxRight )
 239:../../../FreeRTOS-Plus/Source/FreeRTOS-Plus-TCP/include/FreeRTOS_Stream_Buffer.h **** 		{
 240:../../../FreeRTOS-Plus/Source/FreeRTOS-Plus-TCP/include/FreeRTOS_Stream_Buffer.h **** 			xReturn = pdTRUE;
 241:../../../FreeRTOS-Plus/Source/FreeRTOS-Plus-TCP/include/FreeRTOS_Stream_Buffer.h **** 		}
ARM GAS  /tmp/ccrA3BdH.s 			page 19


 242:../../../FreeRTOS-Plus/Source/FreeRTOS-Plus-TCP/include/FreeRTOS_Stream_Buffer.h **** 		else
 243:../../../FreeRTOS-Plus/Source/FreeRTOS-Plus-TCP/include/FreeRTOS_Stream_Buffer.h **** 		{
 244:../../../FreeRTOS-Plus/Source/FreeRTOS-Plus-TCP/include/FreeRTOS_Stream_Buffer.h **** 			xReturn = pdFALSE;
 245:../../../FreeRTOS-Plus/Source/FreeRTOS-Plus-TCP/include/FreeRTOS_Stream_Buffer.h **** 		}
 246:../../../FreeRTOS-Plus/Source/FreeRTOS-Plus-TCP/include/FreeRTOS_Stream_Buffer.h **** 	}
 247:../../../FreeRTOS-Plus/Source/FreeRTOS-Plus-TCP/include/FreeRTOS_Stream_Buffer.h **** 	return xReturn;
 248:../../../FreeRTOS-Plus/Source/FreeRTOS-Plus-TCP/include/FreeRTOS_Stream_Buffer.h **** }
 249:../../../FreeRTOS-Plus/Source/FreeRTOS-Plus-TCP/include/FreeRTOS_Stream_Buffer.h **** /*-----------------------------------------------------------*/
 250:../../../FreeRTOS-Plus/Source/FreeRTOS-Plus-TCP/include/FreeRTOS_Stream_Buffer.h **** 
 251:../../../FreeRTOS-Plus/Source/FreeRTOS-Plus-TCP/include/FreeRTOS_Stream_Buffer.h **** static portINLINE size_t uxStreamBufferGetPtr( StreamBuffer_t *pxBuffer, uint8_t **ppucData );
 252:../../../FreeRTOS-Plus/Source/FreeRTOS-Plus-TCP/include/FreeRTOS_Stream_Buffer.h **** static portINLINE size_t uxStreamBufferGetPtr( StreamBuffer_t *pxBuffer, uint8_t **ppucData )
 253:../../../FreeRTOS-Plus/Source/FreeRTOS-Plus-TCP/include/FreeRTOS_Stream_Buffer.h **** {
 598              		.loc 2 253 0
 599              		.cfi_startproc
 600              		@ args = 0, pretend = 0, frame = 16
 601              		@ frame_needed = 1, uses_anonymous_args = 0
 602 0000 80B5     		push	{r7, lr}
 603              	.LCFI63:
 604              		.cfi_def_cfa_offset 8
 605              		.cfi_offset 7, -8
 606              		.cfi_offset 14, -4
 607 0002 84B0     		sub	sp, sp, #16
 608              	.LCFI64:
 609              		.cfi_def_cfa_offset 24
 610 0004 00AF     		add	r7, sp, #0
 611              	.LCFI65:
 612              		.cfi_def_cfa_register 7
 613 0006 7860     		str	r0, [r7, #4]
 614 0008 3960     		str	r1, [r7]
 254:../../../FreeRTOS-Plus/Source/FreeRTOS-Plus-TCP/include/FreeRTOS_Stream_Buffer.h **** size_t uxNextTail = pxBuffer->uxTail;
 615              		.loc 2 254 0
 616 000a 7B68     		ldr	r3, [r7, #4]
 617 000c 1B68     		ldr	r3, [r3]
 618 000e FB60     		str	r3, [r7, #12]
 255:../../../FreeRTOS-Plus/Source/FreeRTOS-Plus-TCP/include/FreeRTOS_Stream_Buffer.h **** size_t uxSize = uxStreamBufferGetSize( pxBuffer );
 619              		.loc 2 255 0
 620 0010 7868     		ldr	r0, [r7, #4]
 621 0012 FFF7FEFF 		bl	uxStreamBufferGetSize
 622 0016 B860     		str	r0, [r7, #8]
 256:../../../FreeRTOS-Plus/Source/FreeRTOS-Plus-TCP/include/FreeRTOS_Stream_Buffer.h **** 
 257:../../../FreeRTOS-Plus/Source/FreeRTOS-Plus-TCP/include/FreeRTOS_Stream_Buffer.h **** 	*ppucData = pxBuffer->ucArray + uxNextTail;
 623              		.loc 2 257 0
 624 0018 FB68     		ldr	r3, [r7, #12]
 625 001a 1033     		adds	r3, r3, #16
 626 001c 7A68     		ldr	r2, [r7, #4]
 627 001e 1344     		add	r3, r3, r2
 628 0020 1A1D     		adds	r2, r3, #4
 629 0022 3B68     		ldr	r3, [r7]
 630 0024 1A60     		str	r2, [r3]
 258:../../../FreeRTOS-Plus/Source/FreeRTOS-Plus-TCP/include/FreeRTOS_Stream_Buffer.h **** 
 259:../../../FreeRTOS-Plus/Source/FreeRTOS-Plus-TCP/include/FreeRTOS_Stream_Buffer.h **** 	return FreeRTOS_min_uint32( uxSize, pxBuffer->LENGTH - uxNextTail );
 631              		.loc 2 259 0
 632 0026 7B68     		ldr	r3, [r7, #4]
 633 0028 1A69     		ldr	r2, [r3, #16]
 634 002a FB68     		ldr	r3, [r7, #12]
 635 002c D31A     		subs	r3, r2, r3
 636 002e B868     		ldr	r0, [r7, #8]
ARM GAS  /tmp/ccrA3BdH.s 			page 20


 637 0030 1946     		mov	r1, r3
 638 0032 FFF7FEFF 		bl	FreeRTOS_min_uint32
 639 0036 0346     		mov	r3, r0
 260:../../../FreeRTOS-Plus/Source/FreeRTOS-Plus-TCP/include/FreeRTOS_Stream_Buffer.h **** }
 640              		.loc 2 260 0
 641 0038 1846     		mov	r0, r3
 642 003a 1037     		adds	r7, r7, #16
 643              	.LCFI66:
 644              		.cfi_def_cfa_offset 8
 645 003c BD46     		mov	sp, r7
 646              	.LCFI67:
 647              		.cfi_def_cfa_register 13
 648              		@ sp needed
 649 003e 80BD     		pop	{r7, pc}
 650              		.cfi_endproc
 651              	.LFE26:
 653              		.comm	xBoundUDPSocketsList,20,4
 654              		.comm	xBoundTCPSocketsList,20,4
 655              		.section	.bss.usNextPortToUse,"aw",%nobits
 656              		.align	2
 659              	usNextPortToUse:
 660 0000 00000000 		.space	4
 661              		.section	.text.prvValidSocket,"ax",%progbits
 662              		.align	2
 663              		.thumb
 664              		.thumb_func
 666              	prvValidSocket:
 667              	.LFB29:
 668              		.file 3 "../../../FreeRTOS-Plus/Source/FreeRTOS-Plus-TCP/FreeRTOS_Sockets.c"
   1:../../../FreeRTOS-Plus/Source/FreeRTOS-Plus-TCP/FreeRTOS_Sockets.c **** /*
   2:../../../FreeRTOS-Plus/Source/FreeRTOS-Plus-TCP/FreeRTOS_Sockets.c ****  * FreeRTOS+TCP Labs Build 160919 (C) 2016 Real Time Engineers ltd.
   3:../../../FreeRTOS-Plus/Source/FreeRTOS-Plus-TCP/FreeRTOS_Sockets.c ****  * Authors include Hein Tibosch and Richard Barry
   4:../../../FreeRTOS-Plus/Source/FreeRTOS-Plus-TCP/FreeRTOS_Sockets.c ****  *
   5:../../../FreeRTOS-Plus/Source/FreeRTOS-Plus-TCP/FreeRTOS_Sockets.c ****  *******************************************************************************
   6:../../../FreeRTOS-Plus/Source/FreeRTOS-Plus-TCP/FreeRTOS_Sockets.c ****  ***** NOTE ******* NOTE ******* NOTE ******* NOTE ******* NOTE ******* NOTE ***
   7:../../../FreeRTOS-Plus/Source/FreeRTOS-Plus-TCP/FreeRTOS_Sockets.c ****  ***                                                                         ***
   8:../../../FreeRTOS-Plus/Source/FreeRTOS-Plus-TCP/FreeRTOS_Sockets.c ****  ***                                                                         ***
   9:../../../FreeRTOS-Plus/Source/FreeRTOS-Plus-TCP/FreeRTOS_Sockets.c ****  ***   FREERTOS+TCP IS STILL IN THE LAB (mainly because the FTP and HTTP     ***
  10:../../../FreeRTOS-Plus/Source/FreeRTOS-Plus-TCP/FreeRTOS_Sockets.c ****  ***   demos have a dependency on FreeRTOS+FAT, which is only in the Labs    ***
  11:../../../FreeRTOS-Plus/Source/FreeRTOS-Plus-TCP/FreeRTOS_Sockets.c ****  ***   download):                                                            ***
  12:../../../FreeRTOS-Plus/Source/FreeRTOS-Plus-TCP/FreeRTOS_Sockets.c ****  ***                                                                         ***
  13:../../../FreeRTOS-Plus/Source/FreeRTOS-Plus-TCP/FreeRTOS_Sockets.c ****  ***   FreeRTOS+TCP is functional and has been used in commercial products   ***
  14:../../../FreeRTOS-Plus/Source/FreeRTOS-Plus-TCP/FreeRTOS_Sockets.c ****  ***   for some time.  Be aware however that we are still refining its       ***
  15:../../../FreeRTOS-Plus/Source/FreeRTOS-Plus-TCP/FreeRTOS_Sockets.c ****  ***   design, the source code does not yet quite conform to the strict      ***
  16:../../../FreeRTOS-Plus/Source/FreeRTOS-Plus-TCP/FreeRTOS_Sockets.c ****  ***   coding and style standards mandated by Real Time Engineers ltd., and  ***
  17:../../../FreeRTOS-Plus/Source/FreeRTOS-Plus-TCP/FreeRTOS_Sockets.c ****  ***   the documentation and testing is not necessarily complete.            ***
  18:../../../FreeRTOS-Plus/Source/FreeRTOS-Plus-TCP/FreeRTOS_Sockets.c ****  ***                                                                         ***
  19:../../../FreeRTOS-Plus/Source/FreeRTOS-Plus-TCP/FreeRTOS_Sockets.c ****  ***   PLEASE REPORT EXPERIENCES USING THE SUPPORT RESOURCES FOUND ON THE    ***
  20:../../../FreeRTOS-Plus/Source/FreeRTOS-Plus-TCP/FreeRTOS_Sockets.c ****  ***   URL: http://www.FreeRTOS.org/contact  Active early adopters may, at   ***
  21:../../../FreeRTOS-Plus/Source/FreeRTOS-Plus-TCP/FreeRTOS_Sockets.c ****  ***   the sole discretion of Real Time Engineers Ltd., be offered versions  ***
  22:../../../FreeRTOS-Plus/Source/FreeRTOS-Plus-TCP/FreeRTOS_Sockets.c ****  ***   under a license other than that described below.                      ***
  23:../../../FreeRTOS-Plus/Source/FreeRTOS-Plus-TCP/FreeRTOS_Sockets.c ****  ***                                                                         ***
  24:../../../FreeRTOS-Plus/Source/FreeRTOS-Plus-TCP/FreeRTOS_Sockets.c ****  ***                                                                         ***
  25:../../../FreeRTOS-Plus/Source/FreeRTOS-Plus-TCP/FreeRTOS_Sockets.c ****  ***** NOTE ******* NOTE ******* NOTE ******* NOTE ******* NOTE ******* NOTE ***
  26:../../../FreeRTOS-Plus/Source/FreeRTOS-Plus-TCP/FreeRTOS_Sockets.c ****  *******************************************************************************
  27:../../../FreeRTOS-Plus/Source/FreeRTOS-Plus-TCP/FreeRTOS_Sockets.c ****  *
  28:../../../FreeRTOS-Plus/Source/FreeRTOS-Plus-TCP/FreeRTOS_Sockets.c ****  * FreeRTOS+TCP can be used under two different free open source licenses.  The
ARM GAS  /tmp/ccrA3BdH.s 			page 21


  29:../../../FreeRTOS-Plus/Source/FreeRTOS-Plus-TCP/FreeRTOS_Sockets.c ****  * license that applies is dependent on the processor on which FreeRTOS+TCP is
  30:../../../FreeRTOS-Plus/Source/FreeRTOS-Plus-TCP/FreeRTOS_Sockets.c ****  * executed, as follows:
  31:../../../FreeRTOS-Plus/Source/FreeRTOS-Plus-TCP/FreeRTOS_Sockets.c ****  *
  32:../../../FreeRTOS-Plus/Source/FreeRTOS-Plus-TCP/FreeRTOS_Sockets.c ****  * If FreeRTOS+TCP is executed on one of the processors listed under the Special
  33:../../../FreeRTOS-Plus/Source/FreeRTOS-Plus-TCP/FreeRTOS_Sockets.c ****  * License Arrangements heading of the FreeRTOS+TCP license information web
  34:../../../FreeRTOS-Plus/Source/FreeRTOS-Plus-TCP/FreeRTOS_Sockets.c ****  * page, then it can be used under the terms of the FreeRTOS Open Source
  35:../../../FreeRTOS-Plus/Source/FreeRTOS-Plus-TCP/FreeRTOS_Sockets.c ****  * License.  If FreeRTOS+TCP is used on any other processor, then it can be used
  36:../../../FreeRTOS-Plus/Source/FreeRTOS-Plus-TCP/FreeRTOS_Sockets.c ****  * under the terms of the GNU General Public License V2.  Links to the relevant
  37:../../../FreeRTOS-Plus/Source/FreeRTOS-Plus-TCP/FreeRTOS_Sockets.c ****  * licenses follow:
  38:../../../FreeRTOS-Plus/Source/FreeRTOS-Plus-TCP/FreeRTOS_Sockets.c ****  *
  39:../../../FreeRTOS-Plus/Source/FreeRTOS-Plus-TCP/FreeRTOS_Sockets.c ****  * The FreeRTOS+TCP License Information Page: http://www.FreeRTOS.org/tcp_license
  40:../../../FreeRTOS-Plus/Source/FreeRTOS-Plus-TCP/FreeRTOS_Sockets.c ****  * The FreeRTOS Open Source License: http://www.FreeRTOS.org/license
  41:../../../FreeRTOS-Plus/Source/FreeRTOS-Plus-TCP/FreeRTOS_Sockets.c ****  * The GNU General Public License Version 2: http://www.FreeRTOS.org/gpl-2.0.txt
  42:../../../FreeRTOS-Plus/Source/FreeRTOS-Plus-TCP/FreeRTOS_Sockets.c ****  *
  43:../../../FreeRTOS-Plus/Source/FreeRTOS-Plus-TCP/FreeRTOS_Sockets.c ****  * FreeRTOS+TCP is distributed in the hope that it will be useful.  You cannot
  44:../../../FreeRTOS-Plus/Source/FreeRTOS-Plus-TCP/FreeRTOS_Sockets.c ****  * use FreeRTOS+TCP unless you agree that you use the software 'as is'.
  45:../../../FreeRTOS-Plus/Source/FreeRTOS-Plus-TCP/FreeRTOS_Sockets.c ****  * FreeRTOS+TCP is provided WITHOUT ANY WARRANTY; without even the implied
  46:../../../FreeRTOS-Plus/Source/FreeRTOS-Plus-TCP/FreeRTOS_Sockets.c ****  * warranties of NON-INFRINGEMENT, MERCHANTABILITY or FITNESS FOR A PARTICULAR
  47:../../../FreeRTOS-Plus/Source/FreeRTOS-Plus-TCP/FreeRTOS_Sockets.c ****  * PURPOSE. Real Time Engineers Ltd. disclaims all conditions and terms, be they
  48:../../../FreeRTOS-Plus/Source/FreeRTOS-Plus-TCP/FreeRTOS_Sockets.c ****  * implied, expressed, or statutory.
  49:../../../FreeRTOS-Plus/Source/FreeRTOS-Plus-TCP/FreeRTOS_Sockets.c ****  *
  50:../../../FreeRTOS-Plus/Source/FreeRTOS-Plus-TCP/FreeRTOS_Sockets.c ****  * 1 tab == 4 spaces!
  51:../../../FreeRTOS-Plus/Source/FreeRTOS-Plus-TCP/FreeRTOS_Sockets.c ****  *
  52:../../../FreeRTOS-Plus/Source/FreeRTOS-Plus-TCP/FreeRTOS_Sockets.c ****  * http://www.FreeRTOS.org
  53:../../../FreeRTOS-Plus/Source/FreeRTOS-Plus-TCP/FreeRTOS_Sockets.c ****  * http://www.FreeRTOS.org/plus
  54:../../../FreeRTOS-Plus/Source/FreeRTOS-Plus-TCP/FreeRTOS_Sockets.c ****  * http://www.FreeRTOS.org/labs
  55:../../../FreeRTOS-Plus/Source/FreeRTOS-Plus-TCP/FreeRTOS_Sockets.c ****  *
  56:../../../FreeRTOS-Plus/Source/FreeRTOS-Plus-TCP/FreeRTOS_Sockets.c ****  */
  57:../../../FreeRTOS-Plus/Source/FreeRTOS-Plus-TCP/FreeRTOS_Sockets.c **** 
  58:../../../FreeRTOS-Plus/Source/FreeRTOS-Plus-TCP/FreeRTOS_Sockets.c **** /* Standard includes. */
  59:../../../FreeRTOS-Plus/Source/FreeRTOS-Plus-TCP/FreeRTOS_Sockets.c **** #include <stdint.h>
  60:../../../FreeRTOS-Plus/Source/FreeRTOS-Plus-TCP/FreeRTOS_Sockets.c **** #include <stdio.h>
  61:../../../FreeRTOS-Plus/Source/FreeRTOS-Plus-TCP/FreeRTOS_Sockets.c **** 
  62:../../../FreeRTOS-Plus/Source/FreeRTOS-Plus-TCP/FreeRTOS_Sockets.c **** /* FreeRTOS includes. */
  63:../../../FreeRTOS-Plus/Source/FreeRTOS-Plus-TCP/FreeRTOS_Sockets.c **** #include "FreeRTOS.h"
  64:../../../FreeRTOS-Plus/Source/FreeRTOS-Plus-TCP/FreeRTOS_Sockets.c **** #include "task.h"
  65:../../../FreeRTOS-Plus/Source/FreeRTOS-Plus-TCP/FreeRTOS_Sockets.c **** #include "queue.h"
  66:../../../FreeRTOS-Plus/Source/FreeRTOS-Plus-TCP/FreeRTOS_Sockets.c **** #include "semphr.h"
  67:../../../FreeRTOS-Plus/Source/FreeRTOS-Plus-TCP/FreeRTOS_Sockets.c **** 
  68:../../../FreeRTOS-Plus/Source/FreeRTOS-Plus-TCP/FreeRTOS_Sockets.c **** /* FreeRTOS+TCP includes. */
  69:../../../FreeRTOS-Plus/Source/FreeRTOS-Plus-TCP/FreeRTOS_Sockets.c **** #include "FreeRTOS_UDP_IP.h"
  70:../../../FreeRTOS-Plus/Source/FreeRTOS-Plus-TCP/FreeRTOS_Sockets.c **** #include "FreeRTOS_IP.h"
  71:../../../FreeRTOS-Plus/Source/FreeRTOS-Plus-TCP/FreeRTOS_Sockets.c **** #include "FreeRTOS_Sockets.h"
  72:../../../FreeRTOS-Plus/Source/FreeRTOS-Plus-TCP/FreeRTOS_Sockets.c **** #include "FreeRTOS_IP_Private.h"
  73:../../../FreeRTOS-Plus/Source/FreeRTOS-Plus-TCP/FreeRTOS_Sockets.c **** #include "FreeRTOS_DNS.h"
  74:../../../FreeRTOS-Plus/Source/FreeRTOS-Plus-TCP/FreeRTOS_Sockets.c **** #include "NetworkBufferManagement.h"
  75:../../../FreeRTOS-Plus/Source/FreeRTOS-Plus-TCP/FreeRTOS_Sockets.c **** 
  76:../../../FreeRTOS-Plus/Source/FreeRTOS-Plus-TCP/FreeRTOS_Sockets.c **** /* The ItemValue of the sockets xBoundSocketListItem member holds the socket's
  77:../../../FreeRTOS-Plus/Source/FreeRTOS-Plus-TCP/FreeRTOS_Sockets.c **** port number. */
  78:../../../FreeRTOS-Plus/Source/FreeRTOS-Plus-TCP/FreeRTOS_Sockets.c **** #define socketSET_SOCKET_PORT( pxSocket, usPort ) listSET_LIST_ITEM_VALUE( ( &( ( pxSocket )->xBoun
  79:../../../FreeRTOS-Plus/Source/FreeRTOS-Plus-TCP/FreeRTOS_Sockets.c **** #define socketGET_SOCKET_PORT( pxSocket ) listGET_LIST_ITEM_VALUE( ( &( ( pxSocket )->xBoundSocketL
  80:../../../FreeRTOS-Plus/Source/FreeRTOS-Plus-TCP/FreeRTOS_Sockets.c **** 
  81:../../../FreeRTOS-Plus/Source/FreeRTOS-Plus-TCP/FreeRTOS_Sockets.c **** /* Test if a socket it bound which means it is either included in
  82:../../../FreeRTOS-Plus/Source/FreeRTOS-Plus-TCP/FreeRTOS_Sockets.c **** xBoundUDPSocketsList or xBoundTCPSocketsList */
  83:../../../FreeRTOS-Plus/Source/FreeRTOS-Plus-TCP/FreeRTOS_Sockets.c **** #define socketSOCKET_IS_BOUND( pxSocket )      ( listLIST_ITEM_CONTAINER( & ( pxSocket )->xBoundSoc
  84:../../../FreeRTOS-Plus/Source/FreeRTOS-Plus-TCP/FreeRTOS_Sockets.c **** 
  85:../../../FreeRTOS-Plus/Source/FreeRTOS-Plus-TCP/FreeRTOS_Sockets.c **** /* If FreeRTOS_sendto() is called on a socket that is not bound to a port
ARM GAS  /tmp/ccrA3BdH.s 			page 22


  86:../../../FreeRTOS-Plus/Source/FreeRTOS-Plus-TCP/FreeRTOS_Sockets.c **** number then, depending on the FreeRTOSIPConfig.h settings, it might be that a
  87:../../../FreeRTOS-Plus/Source/FreeRTOS-Plus-TCP/FreeRTOS_Sockets.c **** port number is automatically generated for the socket.  Automatically generated
  88:../../../FreeRTOS-Plus/Source/FreeRTOS-Plus-TCP/FreeRTOS_Sockets.c **** port numbers will be between socketAUTO_PORT_ALLOCATION_START_NUMBER and
  89:../../../FreeRTOS-Plus/Source/FreeRTOS-Plus-TCP/FreeRTOS_Sockets.c **** 0xffff. */
  90:../../../FreeRTOS-Plus/Source/FreeRTOS-Plus-TCP/FreeRTOS_Sockets.c **** /* _HT_ thinks that the default of 0xc000 is pretty high */
  91:../../../FreeRTOS-Plus/Source/FreeRTOS-Plus-TCP/FreeRTOS_Sockets.c **** #if !defined( socketAUTO_PORT_ALLOCATION_START_NUMBER )
  92:../../../FreeRTOS-Plus/Source/FreeRTOS-Plus-TCP/FreeRTOS_Sockets.c **** 	#define socketAUTO_PORT_ALLOCATION_START_NUMBER ( ( uint16_t ) 0xc000 )
  93:../../../FreeRTOS-Plus/Source/FreeRTOS-Plus-TCP/FreeRTOS_Sockets.c **** #endif
  94:../../../FreeRTOS-Plus/Source/FreeRTOS-Plus-TCP/FreeRTOS_Sockets.c **** 
  95:../../../FreeRTOS-Plus/Source/FreeRTOS-Plus-TCP/FreeRTOS_Sockets.c **** /* When the automatically generated port numbers overflow, the next value used
  96:../../../FreeRTOS-Plus/Source/FreeRTOS-Plus-TCP/FreeRTOS_Sockets.c **** is not set back to socketAUTO_PORT_ALLOCATION_START_NUMBER because it is likely
  97:../../../FreeRTOS-Plus/Source/FreeRTOS-Plus-TCP/FreeRTOS_Sockets.c **** that the first few automatically generated ports will still be in use.  Instead
  98:../../../FreeRTOS-Plus/Source/FreeRTOS-Plus-TCP/FreeRTOS_Sockets.c **** it is reset back to the value defined by this constant. */
  99:../../../FreeRTOS-Plus/Source/FreeRTOS-Plus-TCP/FreeRTOS_Sockets.c **** #define socketAUTO_PORT_ALLOCATION_RESET_NUMBER ( ( uint16_t ) 0xc100 )
 100:../../../FreeRTOS-Plus/Source/FreeRTOS-Plus-TCP/FreeRTOS_Sockets.c **** #define socketAUTO_PORT_ALLOCATION_MAX_NUMBER   ( ( uint16_t ) 0xff00 )
 101:../../../FreeRTOS-Plus/Source/FreeRTOS-Plus-TCP/FreeRTOS_Sockets.c **** 
 102:../../../FreeRTOS-Plus/Source/FreeRTOS-Plus-TCP/FreeRTOS_Sockets.c **** /* The number of octets that make up an IP address. */
 103:../../../FreeRTOS-Plus/Source/FreeRTOS-Plus-TCP/FreeRTOS_Sockets.c **** #define socketMAX_IP_ADDRESS_OCTETS		4u
 104:../../../FreeRTOS-Plus/Source/FreeRTOS-Plus-TCP/FreeRTOS_Sockets.c **** 
 105:../../../FreeRTOS-Plus/Source/FreeRTOS-Plus-TCP/FreeRTOS_Sockets.c **** /* A block time of 0 simply means "don't block". */
 106:../../../FreeRTOS-Plus/Source/FreeRTOS-Plus-TCP/FreeRTOS_Sockets.c **** #define socketDONT_BLOCK				( ( TickType_t ) 0 )
 107:../../../FreeRTOS-Plus/Source/FreeRTOS-Plus-TCP/FreeRTOS_Sockets.c **** 
 108:../../../FreeRTOS-Plus/Source/FreeRTOS-Plus-TCP/FreeRTOS_Sockets.c **** #if( ( ipconfigUSE_TCP == 1 ) && !defined( ipTCP_TIMER_PERIOD_MS ) )
 109:../../../FreeRTOS-Plus/Source/FreeRTOS-Plus-TCP/FreeRTOS_Sockets.c **** 	#define ipTCP_TIMER_PERIOD_MS	( 1000 )
 110:../../../FreeRTOS-Plus/Source/FreeRTOS-Plus-TCP/FreeRTOS_Sockets.c **** #endif
 111:../../../FreeRTOS-Plus/Source/FreeRTOS-Plus-TCP/FreeRTOS_Sockets.c **** 
 112:../../../FreeRTOS-Plus/Source/FreeRTOS-Plus-TCP/FreeRTOS_Sockets.c **** /* The next private port number to use when binding a client socket is stored in
 113:../../../FreeRTOS-Plus/Source/FreeRTOS-Plus-TCP/FreeRTOS_Sockets.c **** the usNextPortToUse[] array - which has either 1 or two indexes depending on
 114:../../../FreeRTOS-Plus/Source/FreeRTOS-Plus-TCP/FreeRTOS_Sockets.c **** whether TCP is being supported. */
 115:../../../FreeRTOS-Plus/Source/FreeRTOS-Plus-TCP/FreeRTOS_Sockets.c **** #if( ipconfigUSE_TCP == 1 )
 116:../../../FreeRTOS-Plus/Source/FreeRTOS-Plus-TCP/FreeRTOS_Sockets.c **** 	#define socketPROTOCOL_COUNT		2
 117:../../../FreeRTOS-Plus/Source/FreeRTOS-Plus-TCP/FreeRTOS_Sockets.c **** #else
 118:../../../FreeRTOS-Plus/Source/FreeRTOS-Plus-TCP/FreeRTOS_Sockets.c **** 	#define socketPROTOCOL_COUNT		1
 119:../../../FreeRTOS-Plus/Source/FreeRTOS-Plus-TCP/FreeRTOS_Sockets.c **** #endif
 120:../../../FreeRTOS-Plus/Source/FreeRTOS-Plus-TCP/FreeRTOS_Sockets.c **** 
 121:../../../FreeRTOS-Plus/Source/FreeRTOS-Plus-TCP/FreeRTOS_Sockets.c **** /* Indexes into the usNextPortToUse[] array for UDP and TCP sockets
 122:../../../FreeRTOS-Plus/Source/FreeRTOS-Plus-TCP/FreeRTOS_Sockets.c **** respectively. */
 123:../../../FreeRTOS-Plus/Source/FreeRTOS-Plus-TCP/FreeRTOS_Sockets.c **** #define socketNEXT_UDP_PORT_NUMBER_INDEX	0
 124:../../../FreeRTOS-Plus/Source/FreeRTOS-Plus-TCP/FreeRTOS_Sockets.c **** #define socketNEXT_TCP_PORT_NUMBER_INDEX	1
 125:../../../FreeRTOS-Plus/Source/FreeRTOS-Plus-TCP/FreeRTOS_Sockets.c **** 
 126:../../../FreeRTOS-Plus/Source/FreeRTOS-Plus-TCP/FreeRTOS_Sockets.c **** 
 127:../../../FreeRTOS-Plus/Source/FreeRTOS-Plus-TCP/FreeRTOS_Sockets.c **** /*-----------------------------------------------------------*/
 128:../../../FreeRTOS-Plus/Source/FreeRTOS-Plus-TCP/FreeRTOS_Sockets.c **** 
 129:../../../FreeRTOS-Plus/Source/FreeRTOS-Plus-TCP/FreeRTOS_Sockets.c **** /*
 130:../../../FreeRTOS-Plus/Source/FreeRTOS-Plus-TCP/FreeRTOS_Sockets.c ****  * Allocate the next port number from the private allocation range.
 131:../../../FreeRTOS-Plus/Source/FreeRTOS-Plus-TCP/FreeRTOS_Sockets.c ****  * TCP and UDP each have their own series of port numbers
 132:../../../FreeRTOS-Plus/Source/FreeRTOS-Plus-TCP/FreeRTOS_Sockets.c ****  * ulProtocol is either ipPROTOCOL_UDP or ipPROTOCOL_TCP
 133:../../../FreeRTOS-Plus/Source/FreeRTOS-Plus-TCP/FreeRTOS_Sockets.c ****  */
 134:../../../FreeRTOS-Plus/Source/FreeRTOS-Plus-TCP/FreeRTOS_Sockets.c **** static uint16_t prvGetPrivatePortNumber( BaseType_t xProtocol );
 135:../../../FreeRTOS-Plus/Source/FreeRTOS-Plus-TCP/FreeRTOS_Sockets.c **** 
 136:../../../FreeRTOS-Plus/Source/FreeRTOS-Plus-TCP/FreeRTOS_Sockets.c **** /*
 137:../../../FreeRTOS-Plus/Source/FreeRTOS-Plus-TCP/FreeRTOS_Sockets.c ****  * Return the list item from within pxList that has an item value of
 138:../../../FreeRTOS-Plus/Source/FreeRTOS-Plus-TCP/FreeRTOS_Sockets.c ****  * xWantedItemValue.  If there is no such list item return NULL.
 139:../../../FreeRTOS-Plus/Source/FreeRTOS-Plus-TCP/FreeRTOS_Sockets.c ****  */
 140:../../../FreeRTOS-Plus/Source/FreeRTOS-Plus-TCP/FreeRTOS_Sockets.c **** static const ListItem_t * pxListFindListItemWithValue( const List_t *pxList, TickType_t xWantedItem
 141:../../../FreeRTOS-Plus/Source/FreeRTOS-Plus-TCP/FreeRTOS_Sockets.c **** 
 142:../../../FreeRTOS-Plus/Source/FreeRTOS-Plus-TCP/FreeRTOS_Sockets.c **** /*
ARM GAS  /tmp/ccrA3BdH.s 			page 23


 143:../../../FreeRTOS-Plus/Source/FreeRTOS-Plus-TCP/FreeRTOS_Sockets.c ****  * Return pdTRUE only if pxSocket is valid and bound, as far as can be
 144:../../../FreeRTOS-Plus/Source/FreeRTOS-Plus-TCP/FreeRTOS_Sockets.c ****  * determined.
 145:../../../FreeRTOS-Plus/Source/FreeRTOS-Plus-TCP/FreeRTOS_Sockets.c ****  */
 146:../../../FreeRTOS-Plus/Source/FreeRTOS-Plus-TCP/FreeRTOS_Sockets.c **** static BaseType_t prvValidSocket( FreeRTOS_Socket_t *pxSocket, BaseType_t xProtocol, BaseType_t xIs
 147:../../../FreeRTOS-Plus/Source/FreeRTOS-Plus-TCP/FreeRTOS_Sockets.c **** 
 148:../../../FreeRTOS-Plus/Source/FreeRTOS-Plus-TCP/FreeRTOS_Sockets.c **** /*
 149:../../../FreeRTOS-Plus/Source/FreeRTOS-Plus-TCP/FreeRTOS_Sockets.c ****  * Before creating a socket, check the validity of the parameters used
 150:../../../FreeRTOS-Plus/Source/FreeRTOS-Plus-TCP/FreeRTOS_Sockets.c ****  * and find the size of the socket space, which is different for UDP and TCP
 151:../../../FreeRTOS-Plus/Source/FreeRTOS-Plus-TCP/FreeRTOS_Sockets.c ****  */
 152:../../../FreeRTOS-Plus/Source/FreeRTOS-Plus-TCP/FreeRTOS_Sockets.c **** static BaseType_t prvDetermineSocketSize( BaseType_t xDomain, BaseType_t xType, BaseType_t xProtoco
 153:../../../FreeRTOS-Plus/Source/FreeRTOS-Plus-TCP/FreeRTOS_Sockets.c **** 
 154:../../../FreeRTOS-Plus/Source/FreeRTOS-Plus-TCP/FreeRTOS_Sockets.c **** #if( ipconfigUSE_TCP == 1 )
 155:../../../FreeRTOS-Plus/Source/FreeRTOS-Plus-TCP/FreeRTOS_Sockets.c **** 	/*
 156:../../../FreeRTOS-Plus/Source/FreeRTOS-Plus-TCP/FreeRTOS_Sockets.c **** 	 * Create a txStream or a rxStream, depending on the parameter 'xIsInputStream'
 157:../../../FreeRTOS-Plus/Source/FreeRTOS-Plus-TCP/FreeRTOS_Sockets.c **** 	 */
 158:../../../FreeRTOS-Plus/Source/FreeRTOS-Plus-TCP/FreeRTOS_Sockets.c **** 	static StreamBuffer_t *prvTCPCreateStream (FreeRTOS_Socket_t *pxSocket, BaseType_t xIsInputStream 
 159:../../../FreeRTOS-Plus/Source/FreeRTOS-Plus-TCP/FreeRTOS_Sockets.c **** #endif /* ipconfigUSE_TCP == 1 */
 160:../../../FreeRTOS-Plus/Source/FreeRTOS-Plus-TCP/FreeRTOS_Sockets.c **** 
 161:../../../FreeRTOS-Plus/Source/FreeRTOS-Plus-TCP/FreeRTOS_Sockets.c **** #if( ipconfigUSE_TCP == 1 )
 162:../../../FreeRTOS-Plus/Source/FreeRTOS-Plus-TCP/FreeRTOS_Sockets.c **** 	/*
 163:../../../FreeRTOS-Plus/Source/FreeRTOS-Plus-TCP/FreeRTOS_Sockets.c **** 	 * Called from FreeRTOS_send(): some checks which will be done before
 164:../../../FreeRTOS-Plus/Source/FreeRTOS-Plus-TCP/FreeRTOS_Sockets.c **** 	 * sending a TCP packed.
 165:../../../FreeRTOS-Plus/Source/FreeRTOS-Plus-TCP/FreeRTOS_Sockets.c **** 	 */
 166:../../../FreeRTOS-Plus/Source/FreeRTOS-Plus-TCP/FreeRTOS_Sockets.c **** 	static int32_t prvTCPSendCheck( FreeRTOS_Socket_t *pxSocket, size_t xDataLength );
 167:../../../FreeRTOS-Plus/Source/FreeRTOS-Plus-TCP/FreeRTOS_Sockets.c **** #endif /* ipconfigUSE_TCP */
 168:../../../FreeRTOS-Plus/Source/FreeRTOS-Plus-TCP/FreeRTOS_Sockets.c **** 
 169:../../../FreeRTOS-Plus/Source/FreeRTOS-Plus-TCP/FreeRTOS_Sockets.c **** #if( ipconfigUSE_TCP == 1 )
 170:../../../FreeRTOS-Plus/Source/FreeRTOS-Plus-TCP/FreeRTOS_Sockets.c **** 	/*
 171:../../../FreeRTOS-Plus/Source/FreeRTOS-Plus-TCP/FreeRTOS_Sockets.c **** 	 * When a child socket gets closed, make sure to update the child-count of the parent
 172:../../../FreeRTOS-Plus/Source/FreeRTOS-Plus-TCP/FreeRTOS_Sockets.c **** 	 */
 173:../../../FreeRTOS-Plus/Source/FreeRTOS-Plus-TCP/FreeRTOS_Sockets.c **** 	static void prvTCPSetSocketCount( FreeRTOS_Socket_t *pxSocketToDelete );
 174:../../../FreeRTOS-Plus/Source/FreeRTOS-Plus-TCP/FreeRTOS_Sockets.c **** #endif  /* ipconfigUSE_TCP == 1 */
 175:../../../FreeRTOS-Plus/Source/FreeRTOS-Plus-TCP/FreeRTOS_Sockets.c **** 
 176:../../../FreeRTOS-Plus/Source/FreeRTOS-Plus-TCP/FreeRTOS_Sockets.c **** #if( ipconfigUSE_TCP == 1 )
 177:../../../FreeRTOS-Plus/Source/FreeRTOS-Plus-TCP/FreeRTOS_Sockets.c **** 	/*
 178:../../../FreeRTOS-Plus/Source/FreeRTOS-Plus-TCP/FreeRTOS_Sockets.c **** 	 * Called from FreeRTOS_connect(): make some checks and if allowed, send a
 179:../../../FreeRTOS-Plus/Source/FreeRTOS-Plus-TCP/FreeRTOS_Sockets.c **** 	 * message to the IP-task to start connecting to a remote socket
 180:../../../FreeRTOS-Plus/Source/FreeRTOS-Plus-TCP/FreeRTOS_Sockets.c **** 	 */
 181:../../../FreeRTOS-Plus/Source/FreeRTOS-Plus-TCP/FreeRTOS_Sockets.c **** 	static BaseType_t prvTCPConnectStart( FreeRTOS_Socket_t *pxSocket, struct freertos_sockaddr *pxAdd
 182:../../../FreeRTOS-Plus/Source/FreeRTOS-Plus-TCP/FreeRTOS_Sockets.c **** #endif /* ipconfigUSE_TCP */
 183:../../../FreeRTOS-Plus/Source/FreeRTOS-Plus-TCP/FreeRTOS_Sockets.c **** 
 184:../../../FreeRTOS-Plus/Source/FreeRTOS-Plus-TCP/FreeRTOS_Sockets.c **** #if( ipconfigSUPPORT_SELECT_FUNCTION == 1 )
 185:../../../FreeRTOS-Plus/Source/FreeRTOS-Plus-TCP/FreeRTOS_Sockets.c **** 
 186:../../../FreeRTOS-Plus/Source/FreeRTOS-Plus-TCP/FreeRTOS_Sockets.c **** 	/* Executed by the IP-task, it will check all sockets belonging to a set */
 187:../../../FreeRTOS-Plus/Source/FreeRTOS-Plus-TCP/FreeRTOS_Sockets.c **** 	static FreeRTOS_Socket_t *prvFindSelectedSocket( SocketSelect_t *pxSocketSet );
 188:../../../FreeRTOS-Plus/Source/FreeRTOS-Plus-TCP/FreeRTOS_Sockets.c **** 
 189:../../../FreeRTOS-Plus/Source/FreeRTOS-Plus-TCP/FreeRTOS_Sockets.c **** #endif /* ipconfigSUPPORT_SELECT_FUNCTION == 1 */
 190:../../../FreeRTOS-Plus/Source/FreeRTOS-Plus-TCP/FreeRTOS_Sockets.c **** /*-----------------------------------------------------------*/
 191:../../../FreeRTOS-Plus/Source/FreeRTOS-Plus-TCP/FreeRTOS_Sockets.c **** 
 192:../../../FreeRTOS-Plus/Source/FreeRTOS-Plus-TCP/FreeRTOS_Sockets.c **** /* The list that contains mappings between sockets and port numbers.  Accesses
 193:../../../FreeRTOS-Plus/Source/FreeRTOS-Plus-TCP/FreeRTOS_Sockets.c **** to this list must be protected by critical sections of one kind or another. */
 194:../../../FreeRTOS-Plus/Source/FreeRTOS-Plus-TCP/FreeRTOS_Sockets.c **** List_t xBoundUDPSocketsList;
 195:../../../FreeRTOS-Plus/Source/FreeRTOS-Plus-TCP/FreeRTOS_Sockets.c **** 
 196:../../../FreeRTOS-Plus/Source/FreeRTOS-Plus-TCP/FreeRTOS_Sockets.c **** #if ipconfigUSE_TCP == 1
 197:../../../FreeRTOS-Plus/Source/FreeRTOS-Plus-TCP/FreeRTOS_Sockets.c **** 	List_t xBoundTCPSocketsList;
 198:../../../FreeRTOS-Plus/Source/FreeRTOS-Plus-TCP/FreeRTOS_Sockets.c **** #endif /* ipconfigUSE_TCP == 1 */
 199:../../../FreeRTOS-Plus/Source/FreeRTOS-Plus-TCP/FreeRTOS_Sockets.c **** 
ARM GAS  /tmp/ccrA3BdH.s 			page 24


 200:../../../FreeRTOS-Plus/Source/FreeRTOS-Plus-TCP/FreeRTOS_Sockets.c **** /* Holds the next private port number to use when binding a client socket for
 201:../../../FreeRTOS-Plus/Source/FreeRTOS-Plus-TCP/FreeRTOS_Sockets.c **** UDP, and if ipconfigUSE_TCP is set to 1, also TCP.  UDP uses index
 202:../../../FreeRTOS-Plus/Source/FreeRTOS-Plus-TCP/FreeRTOS_Sockets.c **** socketNEXT_UDP_PORT_NUMBER_INDEX and TCP uses index
 203:../../../FreeRTOS-Plus/Source/FreeRTOS-Plus-TCP/FreeRTOS_Sockets.c **** socketNEXT_TCP_PORT_NUMBER_INDEX.  The initial value is set to be between
 204:../../../FreeRTOS-Plus/Source/FreeRTOS-Plus-TCP/FreeRTOS_Sockets.c **** socketAUTO_PORT_ALLOCATION_RESET_NUMBER and socketAUTO_PORT_ALLOCATION_MAX_NUMBER
 205:../../../FreeRTOS-Plus/Source/FreeRTOS-Plus-TCP/FreeRTOS_Sockets.c **** when the IP stack is initialised.  Note ipconfigRAND32() is used, which must be
 206:../../../FreeRTOS-Plus/Source/FreeRTOS-Plus-TCP/FreeRTOS_Sockets.c **** seeded prior to the IP task being started. */
 207:../../../FreeRTOS-Plus/Source/FreeRTOS-Plus-TCP/FreeRTOS_Sockets.c **** static uint16_t usNextPortToUse[ socketPROTOCOL_COUNT ] = { 0 };
 208:../../../FreeRTOS-Plus/Source/FreeRTOS-Plus-TCP/FreeRTOS_Sockets.c **** 
 209:../../../FreeRTOS-Plus/Source/FreeRTOS-Plus-TCP/FreeRTOS_Sockets.c **** /*-----------------------------------------------------------*/
 210:../../../FreeRTOS-Plus/Source/FreeRTOS-Plus-TCP/FreeRTOS_Sockets.c **** 
 211:../../../FreeRTOS-Plus/Source/FreeRTOS-Plus-TCP/FreeRTOS_Sockets.c **** static BaseType_t prvValidSocket( FreeRTOS_Socket_t *pxSocket, BaseType_t xProtocol, BaseType_t xIs
 212:../../../FreeRTOS-Plus/Source/FreeRTOS-Plus-TCP/FreeRTOS_Sockets.c **** {
 669              		.loc 3 212 0
 670              		.cfi_startproc
 671              		@ args = 0, pretend = 0, frame = 24
 672              		@ frame_needed = 1, uses_anonymous_args = 0
 673              		@ link register save eliminated.
 674 0000 80B4     		push	{r7}
 675              	.LCFI68:
 676              		.cfi_def_cfa_offset 4
 677              		.cfi_offset 7, -4
 678 0002 87B0     		sub	sp, sp, #28
 679              	.LCFI69:
 680              		.cfi_def_cfa_offset 32
 681 0004 00AF     		add	r7, sp, #0
 682              	.LCFI70:
 683              		.cfi_def_cfa_register 7
 684 0006 F860     		str	r0, [r7, #12]
 685 0008 B960     		str	r1, [r7, #8]
 686 000a 7A60     		str	r2, [r7, #4]
 213:../../../FreeRTOS-Plus/Source/FreeRTOS-Plus-TCP/FreeRTOS_Sockets.c **** BaseType_t xReturn = pdTRUE;
 687              		.loc 3 213 0
 688 000c 0123     		movs	r3, #1
 689 000e 7B61     		str	r3, [r7, #20]
 214:../../../FreeRTOS-Plus/Source/FreeRTOS-Plus-TCP/FreeRTOS_Sockets.c **** 
 215:../../../FreeRTOS-Plus/Source/FreeRTOS-Plus-TCP/FreeRTOS_Sockets.c **** 	if( ( pxSocket == NULL ) || ( pxSocket == FREERTOS_INVALID_SOCKET ) )
 690              		.loc 3 215 0
 691 0010 FB68     		ldr	r3, [r7, #12]
 692 0012 002B     		cmp	r3, #0
 693 0014 03D0     		beq	.L27
 694              		.loc 3 215 0 is_stmt 0 discriminator 1
 695 0016 FB68     		ldr	r3, [r7, #12]
 696 0018 B3F1FF3F 		cmp	r3, #-1
 697 001c 02D1     		bne	.L28
 698              	.L27:
 216:../../../FreeRTOS-Plus/Source/FreeRTOS-Plus-TCP/FreeRTOS_Sockets.c **** 	{
 217:../../../FreeRTOS-Plus/Source/FreeRTOS-Plus-TCP/FreeRTOS_Sockets.c **** 		xReturn = pdFALSE;
 699              		.loc 3 217 0 is_stmt 1
 700 001e 0023     		movs	r3, #0
 701 0020 7B61     		str	r3, [r7, #20]
 702 0022 12E0     		b	.L29
 703              	.L28:
 218:../../../FreeRTOS-Plus/Source/FreeRTOS-Plus-TCP/FreeRTOS_Sockets.c **** 	}
 219:../../../FreeRTOS-Plus/Source/FreeRTOS-Plus-TCP/FreeRTOS_Sockets.c **** 	else if( ( xIsBound != pdFALSE ) && ( socketSOCKET_IS_BOUND( pxSocket ) == pdFALSE ) )
 704              		.loc 3 219 0
 705 0024 7B68     		ldr	r3, [r7, #4]
ARM GAS  /tmp/ccrA3BdH.s 			page 25


 706 0026 002B     		cmp	r3, #0
 707 0028 06D0     		beq	.L30
 708              		.loc 3 219 0 is_stmt 0 discriminator 1
 709 002a FB68     		ldr	r3, [r7, #12]
 710 002c 9B69     		ldr	r3, [r3, #24]
 711 002e 002B     		cmp	r3, #0
 712 0030 02D1     		bne	.L30
 220:../../../FreeRTOS-Plus/Source/FreeRTOS-Plus-TCP/FreeRTOS_Sockets.c **** 	{
 221:../../../FreeRTOS-Plus/Source/FreeRTOS-Plus-TCP/FreeRTOS_Sockets.c **** 		/* The caller expects the socket to be bound, but it isn't. */
 222:../../../FreeRTOS-Plus/Source/FreeRTOS-Plus-TCP/FreeRTOS_Sockets.c **** 		xReturn = pdFALSE;
 713              		.loc 3 222 0 is_stmt 1
 714 0032 0023     		movs	r3, #0
 715 0034 7B61     		str	r3, [r7, #20]
 716 0036 08E0     		b	.L29
 717              	.L30:
 223:../../../FreeRTOS-Plus/Source/FreeRTOS-Plus-TCP/FreeRTOS_Sockets.c **** 	}
 224:../../../FreeRTOS-Plus/Source/FreeRTOS-Plus-TCP/FreeRTOS_Sockets.c **** 	else if( pxSocket->ucProtocol != ( uint8_t ) xProtocol )
 718              		.loc 3 224 0
 719 0038 FB68     		ldr	r3, [r7, #12]
 720 003a 93F82720 		ldrb	r2, [r3, #39]	@ zero_extendqisi2
 721 003e BB68     		ldr	r3, [r7, #8]
 722 0040 DBB2     		uxtb	r3, r3
 723 0042 9A42     		cmp	r2, r3
 724 0044 01D0     		beq	.L29
 225:../../../FreeRTOS-Plus/Source/FreeRTOS-Plus-TCP/FreeRTOS_Sockets.c **** 	{
 226:../../../FreeRTOS-Plus/Source/FreeRTOS-Plus-TCP/FreeRTOS_Sockets.c **** 		/* Socket has a wrong type (UDP != TCP). */
 227:../../../FreeRTOS-Plus/Source/FreeRTOS-Plus-TCP/FreeRTOS_Sockets.c **** 		xReturn = pdFALSE;
 725              		.loc 3 227 0
 726 0046 0023     		movs	r3, #0
 727 0048 7B61     		str	r3, [r7, #20]
 728              	.L29:
 228:../../../FreeRTOS-Plus/Source/FreeRTOS-Plus-TCP/FreeRTOS_Sockets.c **** 	}
 229:../../../FreeRTOS-Plus/Source/FreeRTOS-Plus-TCP/FreeRTOS_Sockets.c **** 
 230:../../../FreeRTOS-Plus/Source/FreeRTOS-Plus-TCP/FreeRTOS_Sockets.c **** 	return xReturn;
 729              		.loc 3 230 0
 730 004a 7B69     		ldr	r3, [r7, #20]
 231:../../../FreeRTOS-Plus/Source/FreeRTOS-Plus-TCP/FreeRTOS_Sockets.c **** }
 731              		.loc 3 231 0
 732 004c 1846     		mov	r0, r3
 733 004e 1C37     		adds	r7, r7, #28
 734              	.LCFI71:
 735              		.cfi_def_cfa_offset 4
 736 0050 BD46     		mov	sp, r7
 737              	.LCFI72:
 738              		.cfi_def_cfa_register 13
 739              		@ sp needed
 740 0052 5DF8047B 		ldr	r7, [sp], #4
 741              	.LCFI73:
 742              		.cfi_restore 7
 743              		.cfi_def_cfa_offset 0
 744 0056 7047     		bx	lr
 745              		.cfi_endproc
 746              	.LFE29:
 748              		.section	.text.vNetworkSocketsInit,"ax",%progbits
 749              		.align	2
 750              		.global	vNetworkSocketsInit
 751              		.thumb
ARM GAS  /tmp/ccrA3BdH.s 			page 26


 752              		.thumb_func
 754              	vNetworkSocketsInit:
 755              	.LFB30:
 232:../../../FreeRTOS-Plus/Source/FreeRTOS-Plus-TCP/FreeRTOS_Sockets.c **** /*-----------------------------------------------------------*/
 233:../../../FreeRTOS-Plus/Source/FreeRTOS-Plus-TCP/FreeRTOS_Sockets.c **** 
 234:../../../FreeRTOS-Plus/Source/FreeRTOS-Plus-TCP/FreeRTOS_Sockets.c **** void vNetworkSocketsInit( void )
 235:../../../FreeRTOS-Plus/Source/FreeRTOS-Plus-TCP/FreeRTOS_Sockets.c **** {
 756              		.loc 3 235 0
 757              		.cfi_startproc
 758              		@ args = 0, pretend = 0, frame = 8
 759              		@ frame_needed = 1, uses_anonymous_args = 0
 760 0000 80B5     		push	{r7, lr}
 761              	.LCFI74:
 762              		.cfi_def_cfa_offset 8
 763              		.cfi_offset 7, -8
 764              		.cfi_offset 14, -4
 765 0002 82B0     		sub	sp, sp, #8
 766              	.LCFI75:
 767              		.cfi_def_cfa_offset 16
 768 0004 00AF     		add	r7, sp, #0
 769              	.LCFI76:
 770              		.cfi_def_cfa_register 7
 236:../../../FreeRTOS-Plus/Source/FreeRTOS-Plus-TCP/FreeRTOS_Sockets.c **** const uint32_t ulAutoPortRange = socketAUTO_PORT_ALLOCATION_MAX_NUMBER - socketAUTO_PORT_ALLOCATION
 771              		.loc 3 236 0
 772 0006 4FF47853 		mov	r3, #15872
 773 000a 7B60     		str	r3, [r7, #4]
 237:../../../FreeRTOS-Plus/Source/FreeRTOS-Plus-TCP/FreeRTOS_Sockets.c **** uint32_t ulRandomPort;
 238:../../../FreeRTOS-Plus/Source/FreeRTOS-Plus-TCP/FreeRTOS_Sockets.c **** 
 239:../../../FreeRTOS-Plus/Source/FreeRTOS-Plus-TCP/FreeRTOS_Sockets.c **** 	vListInitialise( &xBoundUDPSocketsList );
 774              		.loc 3 239 0
 775 000c 1A48     		ldr	r0, .L33
 776 000e FFF7FEFF 		bl	vListInitialise
 240:../../../FreeRTOS-Plus/Source/FreeRTOS-Plus-TCP/FreeRTOS_Sockets.c **** 
 241:../../../FreeRTOS-Plus/Source/FreeRTOS-Plus-TCP/FreeRTOS_Sockets.c **** 	/* Determine the first anonymous UDP port number to get assigned.  Give it
 242:../../../FreeRTOS-Plus/Source/FreeRTOS-Plus-TCP/FreeRTOS_Sockets.c **** 	a random value in order to avoid confusion about port numbers being used
 243:../../../FreeRTOS-Plus/Source/FreeRTOS-Plus-TCP/FreeRTOS_Sockets.c **** 	earlier, before rebooting the device.  Start with the first auto port
 244:../../../FreeRTOS-Plus/Source/FreeRTOS-Plus-TCP/FreeRTOS_Sockets.c **** 	number, then add a random offset up to a maximum of the range of numbers. */
 245:../../../FreeRTOS-Plus/Source/FreeRTOS-Plus-TCP/FreeRTOS_Sockets.c **** 	ulRandomPort = socketAUTO_PORT_ALLOCATION_START_NUMBER;
 777              		.loc 3 245 0
 778 0012 4FF44043 		mov	r3, #49152
 779 0016 3B60     		str	r3, [r7]
 246:../../../FreeRTOS-Plus/Source/FreeRTOS-Plus-TCP/FreeRTOS_Sockets.c **** 	ulRandomPort += ( ipconfigRAND32() % ulAutoPortRange );
 780              		.loc 3 246 0
 781 0018 FFF7FEFF 		bl	uxRand
 782 001c 0346     		mov	r3, r0
 783 001e 7A68     		ldr	r2, [r7, #4]
 784 0020 B3FBF2F2 		udiv	r2, r3, r2
 785 0024 7968     		ldr	r1, [r7, #4]
 786 0026 01FB02F2 		mul	r2, r1, r2
 787 002a 9B1A     		subs	r3, r3, r2
 788 002c 3A68     		ldr	r2, [r7]
 789 002e 1344     		add	r3, r3, r2
 790 0030 3B60     		str	r3, [r7]
 247:../../../FreeRTOS-Plus/Source/FreeRTOS-Plus-TCP/FreeRTOS_Sockets.c **** 	usNextPortToUse[ socketNEXT_UDP_PORT_NUMBER_INDEX ] = ( uint16_t ) ulRandomPort;
 791              		.loc 3 247 0
 792 0032 3B68     		ldr	r3, [r7]
 793 0034 9AB2     		uxth	r2, r3
ARM GAS  /tmp/ccrA3BdH.s 			page 27


 794 0036 114B     		ldr	r3, .L33+4
 795 0038 1A80     		strh	r2, [r3]	@ movhi
 796              	.LBB42:
 248:../../../FreeRTOS-Plus/Source/FreeRTOS-Plus-TCP/FreeRTOS_Sockets.c **** 
 249:../../../FreeRTOS-Plus/Source/FreeRTOS-Plus-TCP/FreeRTOS_Sockets.c **** 	#if( ipconfigUSE_TCP == 1 )
 250:../../../FreeRTOS-Plus/Source/FreeRTOS-Plus-TCP/FreeRTOS_Sockets.c **** 	{
 251:../../../FreeRTOS-Plus/Source/FreeRTOS-Plus-TCP/FreeRTOS_Sockets.c **** 		extern uint32_t ulNextInitialSequenceNumber;
 252:../../../FreeRTOS-Plus/Source/FreeRTOS-Plus-TCP/FreeRTOS_Sockets.c **** 
 253:../../../FreeRTOS-Plus/Source/FreeRTOS-Plus-TCP/FreeRTOS_Sockets.c **** 		ulNextInitialSequenceNumber = ipconfigRAND32();
 797              		.loc 3 253 0
 798 003a FFF7FEFF 		bl	uxRand
 799 003e 0246     		mov	r2, r0
 800 0040 0F4B     		ldr	r3, .L33+8
 801 0042 1A60     		str	r2, [r3]
 254:../../../FreeRTOS-Plus/Source/FreeRTOS-Plus-TCP/FreeRTOS_Sockets.c **** 
 255:../../../FreeRTOS-Plus/Source/FreeRTOS-Plus-TCP/FreeRTOS_Sockets.c **** 		/* Determine the first anonymous TCP port number to get assigned. */
 256:../../../FreeRTOS-Plus/Source/FreeRTOS-Plus-TCP/FreeRTOS_Sockets.c **** 		ulRandomPort = socketAUTO_PORT_ALLOCATION_START_NUMBER;
 802              		.loc 3 256 0
 803 0044 4FF44043 		mov	r3, #49152
 804 0048 3B60     		str	r3, [r7]
 257:../../../FreeRTOS-Plus/Source/FreeRTOS-Plus-TCP/FreeRTOS_Sockets.c **** 		ulRandomPort += ( ipconfigRAND32() % ulAutoPortRange );
 805              		.loc 3 257 0
 806 004a FFF7FEFF 		bl	uxRand
 807 004e 0346     		mov	r3, r0
 808 0050 7A68     		ldr	r2, [r7, #4]
 809 0052 B3FBF2F2 		udiv	r2, r3, r2
 810 0056 7968     		ldr	r1, [r7, #4]
 811 0058 01FB02F2 		mul	r2, r1, r2
 812 005c 9B1A     		subs	r3, r3, r2
 813 005e 3A68     		ldr	r2, [r7]
 814 0060 1344     		add	r3, r3, r2
 815 0062 3B60     		str	r3, [r7]
 258:../../../FreeRTOS-Plus/Source/FreeRTOS-Plus-TCP/FreeRTOS_Sockets.c **** 		usNextPortToUse[ socketNEXT_TCP_PORT_NUMBER_INDEX ] = ( uint16_t ) ulRandomPort;
 816              		.loc 3 258 0
 817 0064 3B68     		ldr	r3, [r7]
 818 0066 9AB2     		uxth	r2, r3
 819 0068 044B     		ldr	r3, .L33+4
 820 006a 5A80     		strh	r2, [r3, #2]	@ movhi
 259:../../../FreeRTOS-Plus/Source/FreeRTOS-Plus-TCP/FreeRTOS_Sockets.c **** 
 260:../../../FreeRTOS-Plus/Source/FreeRTOS-Plus-TCP/FreeRTOS_Sockets.c **** 		vListInitialise( &xBoundTCPSocketsList );
 821              		.loc 3 260 0
 822 006c 0548     		ldr	r0, .L33+12
 823 006e FFF7FEFF 		bl	vListInitialise
 824              	.LBE42:
 261:../../../FreeRTOS-Plus/Source/FreeRTOS-Plus-TCP/FreeRTOS_Sockets.c **** 	}
 262:../../../FreeRTOS-Plus/Source/FreeRTOS-Plus-TCP/FreeRTOS_Sockets.c **** 	#endif  /* ipconfigUSE_TCP == 1 */
 263:../../../FreeRTOS-Plus/Source/FreeRTOS-Plus-TCP/FreeRTOS_Sockets.c **** }
 825              		.loc 3 263 0
 826 0072 0837     		adds	r7, r7, #8
 827              	.LCFI77:
 828              		.cfi_def_cfa_offset 8
 829 0074 BD46     		mov	sp, r7
 830              	.LCFI78:
 831              		.cfi_def_cfa_register 13
 832              		@ sp needed
 833 0076 80BD     		pop	{r7, pc}
 834              	.L34:
ARM GAS  /tmp/ccrA3BdH.s 			page 28


 835              		.align	2
 836              	.L33:
 837 0078 00000000 		.word	xBoundUDPSocketsList
 838 007c 00000000 		.word	usNextPortToUse
 839 0080 00000000 		.word	ulNextInitialSequenceNumber
 840 0084 00000000 		.word	xBoundTCPSocketsList
 841              		.cfi_endproc
 842              	.LFE30:
 844              		.section	.text.prvDetermineSocketSize,"ax",%progbits
 845              		.align	2
 846              		.thumb
 847              		.thumb_func
 849              	prvDetermineSocketSize:
 850              	.LFB31:
 264:../../../FreeRTOS-Plus/Source/FreeRTOS-Plus-TCP/FreeRTOS_Sockets.c **** /*-----------------------------------------------------------*/
 265:../../../FreeRTOS-Plus/Source/FreeRTOS-Plus-TCP/FreeRTOS_Sockets.c **** 
 266:../../../FreeRTOS-Plus/Source/FreeRTOS-Plus-TCP/FreeRTOS_Sockets.c **** static BaseType_t prvDetermineSocketSize( BaseType_t xDomain, BaseType_t xType, BaseType_t xProtoco
 267:../../../FreeRTOS-Plus/Source/FreeRTOS-Plus-TCP/FreeRTOS_Sockets.c **** {
 851              		.loc 3 267 0
 852              		.cfi_startproc
 853              		@ args = 0, pretend = 0, frame = 32
 854              		@ frame_needed = 1, uses_anonymous_args = 0
 855 0000 80B5     		push	{r7, lr}
 856              	.LCFI79:
 857              		.cfi_def_cfa_offset 8
 858              		.cfi_offset 7, -8
 859              		.cfi_offset 14, -4
 860 0002 88B0     		sub	sp, sp, #32
 861              	.LCFI80:
 862              		.cfi_def_cfa_offset 40
 863 0004 00AF     		add	r7, sp, #0
 864              	.LCFI81:
 865              		.cfi_def_cfa_register 7
 866 0006 F860     		str	r0, [r7, #12]
 867 0008 B960     		str	r1, [r7, #8]
 868 000a 7A60     		str	r2, [r7, #4]
 869 000c 3B60     		str	r3, [r7]
 268:../../../FreeRTOS-Plus/Source/FreeRTOS-Plus-TCP/FreeRTOS_Sockets.c **** BaseType_t xReturn = pdPASS;
 870              		.loc 3 268 0
 871 000e 0123     		movs	r3, #1
 872 0010 FB61     		str	r3, [r7, #28]
 269:../../../FreeRTOS-Plus/Source/FreeRTOS-Plus-TCP/FreeRTOS_Sockets.c **** FreeRTOS_Socket_t *pxSocket;
 270:../../../FreeRTOS-Plus/Source/FreeRTOS-Plus-TCP/FreeRTOS_Sockets.c **** 
 271:../../../FreeRTOS-Plus/Source/FreeRTOS-Plus-TCP/FreeRTOS_Sockets.c **** 	/* Asserts must not appear before it has been determined that the network
 272:../../../FreeRTOS-Plus/Source/FreeRTOS-Plus-TCP/FreeRTOS_Sockets.c **** 	task is ready - otherwise the asserts will fail. */
 273:../../../FreeRTOS-Plus/Source/FreeRTOS-Plus-TCP/FreeRTOS_Sockets.c **** 	if( xIPIsNetworkTaskReady() == pdFALSE )
 873              		.loc 3 273 0
 874 0012 FFF7FEFF 		bl	xIPIsNetworkTaskReady
 875 0016 0346     		mov	r3, r0
 876 0018 002B     		cmp	r3, #0
 877 001a 02D1     		bne	.L36
 274:../../../FreeRTOS-Plus/Source/FreeRTOS-Plus-TCP/FreeRTOS_Sockets.c **** 	{
 275:../../../FreeRTOS-Plus/Source/FreeRTOS-Plus-TCP/FreeRTOS_Sockets.c **** 		xReturn = pdFAIL;
 878              		.loc 3 275 0
 879 001c 0023     		movs	r3, #0
 880 001e FB61     		str	r3, [r7, #28]
 881 0020 45E0     		b	.L37
ARM GAS  /tmp/ccrA3BdH.s 			page 29


 882              	.L36:
 276:../../../FreeRTOS-Plus/Source/FreeRTOS-Plus-TCP/FreeRTOS_Sockets.c **** 	}
 277:../../../FreeRTOS-Plus/Source/FreeRTOS-Plus-TCP/FreeRTOS_Sockets.c **** 	else
 278:../../../FreeRTOS-Plus/Source/FreeRTOS-Plus-TCP/FreeRTOS_Sockets.c **** 	{
 279:../../../FreeRTOS-Plus/Source/FreeRTOS-Plus-TCP/FreeRTOS_Sockets.c **** 		/* Only Ethernet is currently supported. */
 280:../../../FreeRTOS-Plus/Source/FreeRTOS-Plus-TCP/FreeRTOS_Sockets.c **** 		configASSERT( xDomain == FREERTOS_AF_INET );
 883              		.loc 3 280 0
 884 0022 FB68     		ldr	r3, [r7, #12]
 885 0024 022B     		cmp	r3, #2
 886 0026 09D0     		beq	.L38
 887              	.LBB43:
 888              	.LBB44:
 889              		.file 4 "../../../FreeRTOS_9_0/Source/portable/GCC/ARM_CM4F/portmacro.h"
   1:../../../FreeRTOS_9_0/Source/portable/GCC/ARM_CM4F/portmacro.h **** /*
   2:../../../FreeRTOS_9_0/Source/portable/GCC/ARM_CM4F/portmacro.h ****     FreeRTOS V9.0.0 - Copyright (C) 2016 Real Time Engineers Ltd.
   3:../../../FreeRTOS_9_0/Source/portable/GCC/ARM_CM4F/portmacro.h ****     All rights reserved
   4:../../../FreeRTOS_9_0/Source/portable/GCC/ARM_CM4F/portmacro.h **** 
   5:../../../FreeRTOS_9_0/Source/portable/GCC/ARM_CM4F/portmacro.h ****     VISIT http://www.FreeRTOS.org TO ENSURE YOU ARE USING THE LATEST VERSION.
   6:../../../FreeRTOS_9_0/Source/portable/GCC/ARM_CM4F/portmacro.h **** 
   7:../../../FreeRTOS_9_0/Source/portable/GCC/ARM_CM4F/portmacro.h ****     This file is part of the FreeRTOS distribution.
   8:../../../FreeRTOS_9_0/Source/portable/GCC/ARM_CM4F/portmacro.h **** 
   9:../../../FreeRTOS_9_0/Source/portable/GCC/ARM_CM4F/portmacro.h ****     FreeRTOS is free software; you can redistribute it and/or modify it under
  10:../../../FreeRTOS_9_0/Source/portable/GCC/ARM_CM4F/portmacro.h ****     the terms of the GNU General Public License (version 2) as published by the
  11:../../../FreeRTOS_9_0/Source/portable/GCC/ARM_CM4F/portmacro.h ****     Free Software Foundation >>>> AND MODIFIED BY <<<< the FreeRTOS exception.
  12:../../../FreeRTOS_9_0/Source/portable/GCC/ARM_CM4F/portmacro.h **** 
  13:../../../FreeRTOS_9_0/Source/portable/GCC/ARM_CM4F/portmacro.h ****     ***************************************************************************
  14:../../../FreeRTOS_9_0/Source/portable/GCC/ARM_CM4F/portmacro.h ****     >>!   NOTE: The modification to the GPL is included to allow you to     !<<
  15:../../../FreeRTOS_9_0/Source/portable/GCC/ARM_CM4F/portmacro.h ****     >>!   distribute a combined work that includes FreeRTOS without being   !<<
  16:../../../FreeRTOS_9_0/Source/portable/GCC/ARM_CM4F/portmacro.h ****     >>!   obliged to provide the source code for proprietary components     !<<
  17:../../../FreeRTOS_9_0/Source/portable/GCC/ARM_CM4F/portmacro.h ****     >>!   outside of the FreeRTOS kernel.                                   !<<
  18:../../../FreeRTOS_9_0/Source/portable/GCC/ARM_CM4F/portmacro.h ****     ***************************************************************************
  19:../../../FreeRTOS_9_0/Source/portable/GCC/ARM_CM4F/portmacro.h **** 
  20:../../../FreeRTOS_9_0/Source/portable/GCC/ARM_CM4F/portmacro.h ****     FreeRTOS is distributed in the hope that it will be useful, but WITHOUT ANY
  21:../../../FreeRTOS_9_0/Source/portable/GCC/ARM_CM4F/portmacro.h ****     WARRANTY; without even the implied warranty of MERCHANTABILITY or FITNESS
  22:../../../FreeRTOS_9_0/Source/portable/GCC/ARM_CM4F/portmacro.h ****     FOR A PARTICULAR PURPOSE.  Full license text is available on the following
  23:../../../FreeRTOS_9_0/Source/portable/GCC/ARM_CM4F/portmacro.h ****     link: http://www.freertos.org/a00114.html
  24:../../../FreeRTOS_9_0/Source/portable/GCC/ARM_CM4F/portmacro.h **** 
  25:../../../FreeRTOS_9_0/Source/portable/GCC/ARM_CM4F/portmacro.h ****     ***************************************************************************
  26:../../../FreeRTOS_9_0/Source/portable/GCC/ARM_CM4F/portmacro.h ****      *                                                                       *
  27:../../../FreeRTOS_9_0/Source/portable/GCC/ARM_CM4F/portmacro.h ****      *    FreeRTOS provides completely free yet professionally developed,    *
  28:../../../FreeRTOS_9_0/Source/portable/GCC/ARM_CM4F/portmacro.h ****      *    robust, strictly quality controlled, supported, and cross          *
  29:../../../FreeRTOS_9_0/Source/portable/GCC/ARM_CM4F/portmacro.h ****      *    platform software that is more than just the market leader, it     *
  30:../../../FreeRTOS_9_0/Source/portable/GCC/ARM_CM4F/portmacro.h ****      *    is the industry's de facto standard.                               *
  31:../../../FreeRTOS_9_0/Source/portable/GCC/ARM_CM4F/portmacro.h ****      *                                                                       *
  32:../../../FreeRTOS_9_0/Source/portable/GCC/ARM_CM4F/portmacro.h ****      *    Help yourself get started quickly while simultaneously helping     *
  33:../../../FreeRTOS_9_0/Source/portable/GCC/ARM_CM4F/portmacro.h ****      *    to support the FreeRTOS project by purchasing a FreeRTOS           *
  34:../../../FreeRTOS_9_0/Source/portable/GCC/ARM_CM4F/portmacro.h ****      *    tutorial book, reference manual, or both:                          *
  35:../../../FreeRTOS_9_0/Source/portable/GCC/ARM_CM4F/portmacro.h ****      *    http://www.FreeRTOS.org/Documentation                              *
  36:../../../FreeRTOS_9_0/Source/portable/GCC/ARM_CM4F/portmacro.h ****      *                                                                       *
  37:../../../FreeRTOS_9_0/Source/portable/GCC/ARM_CM4F/portmacro.h ****     ***************************************************************************
  38:../../../FreeRTOS_9_0/Source/portable/GCC/ARM_CM4F/portmacro.h **** 
  39:../../../FreeRTOS_9_0/Source/portable/GCC/ARM_CM4F/portmacro.h ****     http://www.FreeRTOS.org/FAQHelp.html - Having a problem?  Start by reading
  40:../../../FreeRTOS_9_0/Source/portable/GCC/ARM_CM4F/portmacro.h ****     the FAQ page "My application does not run, what could be wrong?".  Have you
  41:../../../FreeRTOS_9_0/Source/portable/GCC/ARM_CM4F/portmacro.h ****     defined configASSERT()?
  42:../../../FreeRTOS_9_0/Source/portable/GCC/ARM_CM4F/portmacro.h **** 
  43:../../../FreeRTOS_9_0/Source/portable/GCC/ARM_CM4F/portmacro.h ****     http://www.FreeRTOS.org/support - In return for receiving this top quality
  44:../../../FreeRTOS_9_0/Source/portable/GCC/ARM_CM4F/portmacro.h ****     embedded software for free we request you assist our global community by
ARM GAS  /tmp/ccrA3BdH.s 			page 30


  45:../../../FreeRTOS_9_0/Source/portable/GCC/ARM_CM4F/portmacro.h ****     participating in the support forum.
  46:../../../FreeRTOS_9_0/Source/portable/GCC/ARM_CM4F/portmacro.h **** 
  47:../../../FreeRTOS_9_0/Source/portable/GCC/ARM_CM4F/portmacro.h ****     http://www.FreeRTOS.org/training - Investing in training allows your team to
  48:../../../FreeRTOS_9_0/Source/portable/GCC/ARM_CM4F/portmacro.h ****     be as productive as possible as early as possible.  Now you can receive
  49:../../../FreeRTOS_9_0/Source/portable/GCC/ARM_CM4F/portmacro.h ****     FreeRTOS training directly from Richard Barry, CEO of Real Time Engineers
  50:../../../FreeRTOS_9_0/Source/portable/GCC/ARM_CM4F/portmacro.h ****     Ltd, and the world's leading authority on the world's leading RTOS.
  51:../../../FreeRTOS_9_0/Source/portable/GCC/ARM_CM4F/portmacro.h **** 
  52:../../../FreeRTOS_9_0/Source/portable/GCC/ARM_CM4F/portmacro.h ****     http://www.FreeRTOS.org/plus - A selection of FreeRTOS ecosystem products,
  53:../../../FreeRTOS_9_0/Source/portable/GCC/ARM_CM4F/portmacro.h ****     including FreeRTOS+Trace - an indispensable productivity tool, a DOS
  54:../../../FreeRTOS_9_0/Source/portable/GCC/ARM_CM4F/portmacro.h ****     compatible FAT file system, and our tiny thread aware UDP/IP stack.
  55:../../../FreeRTOS_9_0/Source/portable/GCC/ARM_CM4F/portmacro.h **** 
  56:../../../FreeRTOS_9_0/Source/portable/GCC/ARM_CM4F/portmacro.h ****     http://www.FreeRTOS.org/labs - Where new FreeRTOS products go to incubate.
  57:../../../FreeRTOS_9_0/Source/portable/GCC/ARM_CM4F/portmacro.h ****     Come and try FreeRTOS+TCP, our new open source TCP/IP stack for FreeRTOS.
  58:../../../FreeRTOS_9_0/Source/portable/GCC/ARM_CM4F/portmacro.h **** 
  59:../../../FreeRTOS_9_0/Source/portable/GCC/ARM_CM4F/portmacro.h ****     http://www.OpenRTOS.com - Real Time Engineers ltd. license FreeRTOS to High
  60:../../../FreeRTOS_9_0/Source/portable/GCC/ARM_CM4F/portmacro.h ****     Integrity Systems ltd. to sell under the OpenRTOS brand.  Low cost OpenRTOS
  61:../../../FreeRTOS_9_0/Source/portable/GCC/ARM_CM4F/portmacro.h ****     licenses offer ticketed support, indemnification and commercial middleware.
  62:../../../FreeRTOS_9_0/Source/portable/GCC/ARM_CM4F/portmacro.h **** 
  63:../../../FreeRTOS_9_0/Source/portable/GCC/ARM_CM4F/portmacro.h ****     http://www.SafeRTOS.com - High Integrity Systems also provide a safety
  64:../../../FreeRTOS_9_0/Source/portable/GCC/ARM_CM4F/portmacro.h ****     engineered and independently SIL3 certified version for use in safety and
  65:../../../FreeRTOS_9_0/Source/portable/GCC/ARM_CM4F/portmacro.h ****     mission critical applications that require provable dependability.
  66:../../../FreeRTOS_9_0/Source/portable/GCC/ARM_CM4F/portmacro.h **** 
  67:../../../FreeRTOS_9_0/Source/portable/GCC/ARM_CM4F/portmacro.h ****     1 tab == 4 spaces!
  68:../../../FreeRTOS_9_0/Source/portable/GCC/ARM_CM4F/portmacro.h **** */
  69:../../../FreeRTOS_9_0/Source/portable/GCC/ARM_CM4F/portmacro.h **** 
  70:../../../FreeRTOS_9_0/Source/portable/GCC/ARM_CM4F/portmacro.h **** 
  71:../../../FreeRTOS_9_0/Source/portable/GCC/ARM_CM4F/portmacro.h **** #ifndef PORTMACRO_H
  72:../../../FreeRTOS_9_0/Source/portable/GCC/ARM_CM4F/portmacro.h **** #define PORTMACRO_H
  73:../../../FreeRTOS_9_0/Source/portable/GCC/ARM_CM4F/portmacro.h **** 
  74:../../../FreeRTOS_9_0/Source/portable/GCC/ARM_CM4F/portmacro.h **** #ifdef __cplusplus
  75:../../../FreeRTOS_9_0/Source/portable/GCC/ARM_CM4F/portmacro.h **** extern "C" {
  76:../../../FreeRTOS_9_0/Source/portable/GCC/ARM_CM4F/portmacro.h **** #endif
  77:../../../FreeRTOS_9_0/Source/portable/GCC/ARM_CM4F/portmacro.h **** 
  78:../../../FreeRTOS_9_0/Source/portable/GCC/ARM_CM4F/portmacro.h **** /*-----------------------------------------------------------
  79:../../../FreeRTOS_9_0/Source/portable/GCC/ARM_CM4F/portmacro.h ****  * Port specific definitions.
  80:../../../FreeRTOS_9_0/Source/portable/GCC/ARM_CM4F/portmacro.h ****  *
  81:../../../FreeRTOS_9_0/Source/portable/GCC/ARM_CM4F/portmacro.h ****  * The settings in this file configure FreeRTOS correctly for the
  82:../../../FreeRTOS_9_0/Source/portable/GCC/ARM_CM4F/portmacro.h ****  * given hardware and compiler.
  83:../../../FreeRTOS_9_0/Source/portable/GCC/ARM_CM4F/portmacro.h ****  *
  84:../../../FreeRTOS_9_0/Source/portable/GCC/ARM_CM4F/portmacro.h ****  * These settings should not be altered.
  85:../../../FreeRTOS_9_0/Source/portable/GCC/ARM_CM4F/portmacro.h ****  *-----------------------------------------------------------
  86:../../../FreeRTOS_9_0/Source/portable/GCC/ARM_CM4F/portmacro.h ****  */
  87:../../../FreeRTOS_9_0/Source/portable/GCC/ARM_CM4F/portmacro.h **** 
  88:../../../FreeRTOS_9_0/Source/portable/GCC/ARM_CM4F/portmacro.h **** /* Type definitions. */
  89:../../../FreeRTOS_9_0/Source/portable/GCC/ARM_CM4F/portmacro.h **** #define portCHAR		char
  90:../../../FreeRTOS_9_0/Source/portable/GCC/ARM_CM4F/portmacro.h **** #define portFLOAT		float
  91:../../../FreeRTOS_9_0/Source/portable/GCC/ARM_CM4F/portmacro.h **** #define portDOUBLE		double
  92:../../../FreeRTOS_9_0/Source/portable/GCC/ARM_CM4F/portmacro.h **** #define portLONG		long
  93:../../../FreeRTOS_9_0/Source/portable/GCC/ARM_CM4F/portmacro.h **** #define portSHORT		short
  94:../../../FreeRTOS_9_0/Source/portable/GCC/ARM_CM4F/portmacro.h **** #define portSTACK_TYPE	uint32_t
  95:../../../FreeRTOS_9_0/Source/portable/GCC/ARM_CM4F/portmacro.h **** #define portBASE_TYPE	long
  96:../../../FreeRTOS_9_0/Source/portable/GCC/ARM_CM4F/portmacro.h **** 
  97:../../../FreeRTOS_9_0/Source/portable/GCC/ARM_CM4F/portmacro.h **** typedef portSTACK_TYPE StackType_t;
  98:../../../FreeRTOS_9_0/Source/portable/GCC/ARM_CM4F/portmacro.h **** typedef long BaseType_t;
  99:../../../FreeRTOS_9_0/Source/portable/GCC/ARM_CM4F/portmacro.h **** typedef unsigned long UBaseType_t;
 100:../../../FreeRTOS_9_0/Source/portable/GCC/ARM_CM4F/portmacro.h **** 
 101:../../../FreeRTOS_9_0/Source/portable/GCC/ARM_CM4F/portmacro.h **** #if( configUSE_16_BIT_TICKS == 1 )
ARM GAS  /tmp/ccrA3BdH.s 			page 31


 102:../../../FreeRTOS_9_0/Source/portable/GCC/ARM_CM4F/portmacro.h **** 	typedef uint16_t TickType_t;
 103:../../../FreeRTOS_9_0/Source/portable/GCC/ARM_CM4F/portmacro.h **** 	#define portMAX_DELAY ( TickType_t ) 0xffff
 104:../../../FreeRTOS_9_0/Source/portable/GCC/ARM_CM4F/portmacro.h **** #else
 105:../../../FreeRTOS_9_0/Source/portable/GCC/ARM_CM4F/portmacro.h **** 	typedef uint32_t TickType_t;
 106:../../../FreeRTOS_9_0/Source/portable/GCC/ARM_CM4F/portmacro.h **** 	#define portMAX_DELAY ( TickType_t ) 0xffffffffUL
 107:../../../FreeRTOS_9_0/Source/portable/GCC/ARM_CM4F/portmacro.h **** 
 108:../../../FreeRTOS_9_0/Source/portable/GCC/ARM_CM4F/portmacro.h **** 	/* 32-bit tick type on a 32-bit architecture, so reads of the tick count do
 109:../../../FreeRTOS_9_0/Source/portable/GCC/ARM_CM4F/portmacro.h **** 	not need to be guarded with a critical section. */
 110:../../../FreeRTOS_9_0/Source/portable/GCC/ARM_CM4F/portmacro.h **** 	#define portTICK_TYPE_IS_ATOMIC 1
 111:../../../FreeRTOS_9_0/Source/portable/GCC/ARM_CM4F/portmacro.h **** #endif
 112:../../../FreeRTOS_9_0/Source/portable/GCC/ARM_CM4F/portmacro.h **** /*-----------------------------------------------------------*/
 113:../../../FreeRTOS_9_0/Source/portable/GCC/ARM_CM4F/portmacro.h **** 
 114:../../../FreeRTOS_9_0/Source/portable/GCC/ARM_CM4F/portmacro.h **** /* Architecture specifics. */
 115:../../../FreeRTOS_9_0/Source/portable/GCC/ARM_CM4F/portmacro.h **** #define portSTACK_GROWTH			( -1 )
 116:../../../FreeRTOS_9_0/Source/portable/GCC/ARM_CM4F/portmacro.h **** #define portTICK_PERIOD_MS			( ( TickType_t ) 1000 / configTICK_RATE_HZ )
 117:../../../FreeRTOS_9_0/Source/portable/GCC/ARM_CM4F/portmacro.h **** #define portBYTE_ALIGNMENT			8
 118:../../../FreeRTOS_9_0/Source/portable/GCC/ARM_CM4F/portmacro.h **** /*-----------------------------------------------------------*/
 119:../../../FreeRTOS_9_0/Source/portable/GCC/ARM_CM4F/portmacro.h **** 
 120:../../../FreeRTOS_9_0/Source/portable/GCC/ARM_CM4F/portmacro.h **** /* Scheduler utilities. */
 121:../../../FreeRTOS_9_0/Source/portable/GCC/ARM_CM4F/portmacro.h **** #define portYIELD() 															\
 122:../../../FreeRTOS_9_0/Source/portable/GCC/ARM_CM4F/portmacro.h **** {																				\
 123:../../../FreeRTOS_9_0/Source/portable/GCC/ARM_CM4F/portmacro.h **** 	/* Set a PendSV to request a context switch. */								\
 124:../../../FreeRTOS_9_0/Source/portable/GCC/ARM_CM4F/portmacro.h **** 	portNVIC_INT_CTRL_REG = portNVIC_PENDSVSET_BIT;								\
 125:../../../FreeRTOS_9_0/Source/portable/GCC/ARM_CM4F/portmacro.h **** 																				\
 126:../../../FreeRTOS_9_0/Source/portable/GCC/ARM_CM4F/portmacro.h **** 	/* Barriers are normally not required but do ensure the code is completely	\
 127:../../../FreeRTOS_9_0/Source/portable/GCC/ARM_CM4F/portmacro.h **** 	within the specified behaviour for the architecture. */						\
 128:../../../FreeRTOS_9_0/Source/portable/GCC/ARM_CM4F/portmacro.h **** 	__asm volatile( "dsb" );													\
 129:../../../FreeRTOS_9_0/Source/portable/GCC/ARM_CM4F/portmacro.h **** 	__asm volatile( "isb" );													\
 130:../../../FreeRTOS_9_0/Source/portable/GCC/ARM_CM4F/portmacro.h **** }
 131:../../../FreeRTOS_9_0/Source/portable/GCC/ARM_CM4F/portmacro.h **** 
 132:../../../FreeRTOS_9_0/Source/portable/GCC/ARM_CM4F/portmacro.h **** #define portNVIC_INT_CTRL_REG		( * ( ( volatile uint32_t * ) 0xe000ed04 ) )
 133:../../../FreeRTOS_9_0/Source/portable/GCC/ARM_CM4F/portmacro.h **** #define portNVIC_PENDSVSET_BIT		( 1UL << 28UL )
 134:../../../FreeRTOS_9_0/Source/portable/GCC/ARM_CM4F/portmacro.h **** #define portEND_SWITCHING_ISR( xSwitchRequired ) { if( xSwitchRequired != pdFALSE ) { traceISR_EXIT
 135:../../../FreeRTOS_9_0/Source/portable/GCC/ARM_CM4F/portmacro.h **** #define portYIELD_FROM_ISR( x ) portEND_SWITCHING_ISR( x )
 136:../../../FreeRTOS_9_0/Source/portable/GCC/ARM_CM4F/portmacro.h **** /*-----------------------------------------------------------*/
 137:../../../FreeRTOS_9_0/Source/portable/GCC/ARM_CM4F/portmacro.h **** 
 138:../../../FreeRTOS_9_0/Source/portable/GCC/ARM_CM4F/portmacro.h **** /* Critical section management. */
 139:../../../FreeRTOS_9_0/Source/portable/GCC/ARM_CM4F/portmacro.h **** extern void vPortEnterCritical( void );
 140:../../../FreeRTOS_9_0/Source/portable/GCC/ARM_CM4F/portmacro.h **** extern void vPortExitCritical( void );
 141:../../../FreeRTOS_9_0/Source/portable/GCC/ARM_CM4F/portmacro.h **** #define portSET_INTERRUPT_MASK_FROM_ISR()		ulPortRaiseBASEPRI()
 142:../../../FreeRTOS_9_0/Source/portable/GCC/ARM_CM4F/portmacro.h **** #define portCLEAR_INTERRUPT_MASK_FROM_ISR(x)	vPortSetBASEPRI(x)
 143:../../../FreeRTOS_9_0/Source/portable/GCC/ARM_CM4F/portmacro.h **** #define portDISABLE_INTERRUPTS()				vPortRaiseBASEPRI()
 144:../../../FreeRTOS_9_0/Source/portable/GCC/ARM_CM4F/portmacro.h **** #define portENABLE_INTERRUPTS()					vPortSetBASEPRI(0)
 145:../../../FreeRTOS_9_0/Source/portable/GCC/ARM_CM4F/portmacro.h **** #define portENTER_CRITICAL()					vPortEnterCritical()
 146:../../../FreeRTOS_9_0/Source/portable/GCC/ARM_CM4F/portmacro.h **** #define portEXIT_CRITICAL()						vPortExitCritical()
 147:../../../FreeRTOS_9_0/Source/portable/GCC/ARM_CM4F/portmacro.h **** 
 148:../../../FreeRTOS_9_0/Source/portable/GCC/ARM_CM4F/portmacro.h **** /*-----------------------------------------------------------*/
 149:../../../FreeRTOS_9_0/Source/portable/GCC/ARM_CM4F/portmacro.h **** 
 150:../../../FreeRTOS_9_0/Source/portable/GCC/ARM_CM4F/portmacro.h **** /* Task function macros as described on the FreeRTOS.org WEB site.  These are
 151:../../../FreeRTOS_9_0/Source/portable/GCC/ARM_CM4F/portmacro.h **** not necessary for to use this port.  They are defined so the common demo files
 152:../../../FreeRTOS_9_0/Source/portable/GCC/ARM_CM4F/portmacro.h **** (which build with all the ports) will build. */
 153:../../../FreeRTOS_9_0/Source/portable/GCC/ARM_CM4F/portmacro.h **** #define portTASK_FUNCTION_PROTO( vFunction, pvParameters ) void vFunction( void *pvParameters )
 154:../../../FreeRTOS_9_0/Source/portable/GCC/ARM_CM4F/portmacro.h **** #define portTASK_FUNCTION( vFunction, pvParameters ) void vFunction( void *pvParameters )
 155:../../../FreeRTOS_9_0/Source/portable/GCC/ARM_CM4F/portmacro.h **** /*-----------------------------------------------------------*/
 156:../../../FreeRTOS_9_0/Source/portable/GCC/ARM_CM4F/portmacro.h **** 
 157:../../../FreeRTOS_9_0/Source/portable/GCC/ARM_CM4F/portmacro.h **** /* Tickless idle/low power functionality. */
 158:../../../FreeRTOS_9_0/Source/portable/GCC/ARM_CM4F/portmacro.h **** #ifndef portSUPPRESS_TICKS_AND_SLEEP
ARM GAS  /tmp/ccrA3BdH.s 			page 32


 159:../../../FreeRTOS_9_0/Source/portable/GCC/ARM_CM4F/portmacro.h **** 	extern void vPortSuppressTicksAndSleep( TickType_t xExpectedIdleTime );
 160:../../../FreeRTOS_9_0/Source/portable/GCC/ARM_CM4F/portmacro.h **** 	#define portSUPPRESS_TICKS_AND_SLEEP( xExpectedIdleTime ) vPortSuppressTicksAndSleep( xExpectedIdl
 161:../../../FreeRTOS_9_0/Source/portable/GCC/ARM_CM4F/portmacro.h **** #endif
 162:../../../FreeRTOS_9_0/Source/portable/GCC/ARM_CM4F/portmacro.h **** /*-----------------------------------------------------------*/
 163:../../../FreeRTOS_9_0/Source/portable/GCC/ARM_CM4F/portmacro.h **** 
 164:../../../FreeRTOS_9_0/Source/portable/GCC/ARM_CM4F/portmacro.h **** /* Architecture specific optimisations. */
 165:../../../FreeRTOS_9_0/Source/portable/GCC/ARM_CM4F/portmacro.h **** #ifndef configUSE_PORT_OPTIMISED_TASK_SELECTION
 166:../../../FreeRTOS_9_0/Source/portable/GCC/ARM_CM4F/portmacro.h **** 	#define configUSE_PORT_OPTIMISED_TASK_SELECTION 1
 167:../../../FreeRTOS_9_0/Source/portable/GCC/ARM_CM4F/portmacro.h **** #endif
 168:../../../FreeRTOS_9_0/Source/portable/GCC/ARM_CM4F/portmacro.h **** 
 169:../../../FreeRTOS_9_0/Source/portable/GCC/ARM_CM4F/portmacro.h **** #if configUSE_PORT_OPTIMISED_TASK_SELECTION == 1
 170:../../../FreeRTOS_9_0/Source/portable/GCC/ARM_CM4F/portmacro.h **** 
 171:../../../FreeRTOS_9_0/Source/portable/GCC/ARM_CM4F/portmacro.h **** 	/* Generic helper function. */
 172:../../../FreeRTOS_9_0/Source/portable/GCC/ARM_CM4F/portmacro.h **** 	__attribute__( ( always_inline ) ) static inline uint8_t ucPortCountLeadingZeros( uint32_t ulBitma
 173:../../../FreeRTOS_9_0/Source/portable/GCC/ARM_CM4F/portmacro.h **** 	{
 174:../../../FreeRTOS_9_0/Source/portable/GCC/ARM_CM4F/portmacro.h **** 	uint8_t ucReturn;
 175:../../../FreeRTOS_9_0/Source/portable/GCC/ARM_CM4F/portmacro.h **** 
 176:../../../FreeRTOS_9_0/Source/portable/GCC/ARM_CM4F/portmacro.h **** 		__asm volatile ( "clz %0, %1" : "=r" ( ucReturn ) : "r" ( ulBitmap ) );
 177:../../../FreeRTOS_9_0/Source/portable/GCC/ARM_CM4F/portmacro.h **** 		return ucReturn;
 178:../../../FreeRTOS_9_0/Source/portable/GCC/ARM_CM4F/portmacro.h **** 	}
 179:../../../FreeRTOS_9_0/Source/portable/GCC/ARM_CM4F/portmacro.h **** 
 180:../../../FreeRTOS_9_0/Source/portable/GCC/ARM_CM4F/portmacro.h **** 	/* Check the configuration. */
 181:../../../FreeRTOS_9_0/Source/portable/GCC/ARM_CM4F/portmacro.h **** 	#if( configMAX_PRIORITIES > 32 )
 182:../../../FreeRTOS_9_0/Source/portable/GCC/ARM_CM4F/portmacro.h **** 		#error configUSE_PORT_OPTIMISED_TASK_SELECTION can only be set to 1 when configMAX_PRIORITIES is 
 183:../../../FreeRTOS_9_0/Source/portable/GCC/ARM_CM4F/portmacro.h **** 	#endif
 184:../../../FreeRTOS_9_0/Source/portable/GCC/ARM_CM4F/portmacro.h **** 
 185:../../../FreeRTOS_9_0/Source/portable/GCC/ARM_CM4F/portmacro.h **** 	/* Store/clear the ready priorities in a bit map. */
 186:../../../FreeRTOS_9_0/Source/portable/GCC/ARM_CM4F/portmacro.h **** 	#define portRECORD_READY_PRIORITY( uxPriority, uxReadyPriorities ) ( uxReadyPriorities ) |= ( 1UL 
 187:../../../FreeRTOS_9_0/Source/portable/GCC/ARM_CM4F/portmacro.h **** 	#define portRESET_READY_PRIORITY( uxPriority, uxReadyPriorities ) ( uxReadyPriorities ) &= ~( 1UL 
 188:../../../FreeRTOS_9_0/Source/portable/GCC/ARM_CM4F/portmacro.h **** 
 189:../../../FreeRTOS_9_0/Source/portable/GCC/ARM_CM4F/portmacro.h **** 	/*-----------------------------------------------------------*/
 190:../../../FreeRTOS_9_0/Source/portable/GCC/ARM_CM4F/portmacro.h **** 
 191:../../../FreeRTOS_9_0/Source/portable/GCC/ARM_CM4F/portmacro.h **** 	#define portGET_HIGHEST_PRIORITY( uxTopPriority, uxReadyPriorities ) uxTopPriority = ( 31UL - ( ui
 192:../../../FreeRTOS_9_0/Source/portable/GCC/ARM_CM4F/portmacro.h **** 
 193:../../../FreeRTOS_9_0/Source/portable/GCC/ARM_CM4F/portmacro.h **** #endif /* configUSE_PORT_OPTIMISED_TASK_SELECTION */
 194:../../../FreeRTOS_9_0/Source/portable/GCC/ARM_CM4F/portmacro.h **** 
 195:../../../FreeRTOS_9_0/Source/portable/GCC/ARM_CM4F/portmacro.h **** /*-----------------------------------------------------------*/
 196:../../../FreeRTOS_9_0/Source/portable/GCC/ARM_CM4F/portmacro.h **** 
 197:../../../FreeRTOS_9_0/Source/portable/GCC/ARM_CM4F/portmacro.h **** #ifdef configASSERT
 198:../../../FreeRTOS_9_0/Source/portable/GCC/ARM_CM4F/portmacro.h **** 	void vPortValidateInterruptPriority( void );
 199:../../../FreeRTOS_9_0/Source/portable/GCC/ARM_CM4F/portmacro.h **** 	#define portASSERT_IF_INTERRUPT_PRIORITY_INVALID() 	vPortValidateInterruptPriority()
 200:../../../FreeRTOS_9_0/Source/portable/GCC/ARM_CM4F/portmacro.h **** #endif
 201:../../../FreeRTOS_9_0/Source/portable/GCC/ARM_CM4F/portmacro.h **** 
 202:../../../FreeRTOS_9_0/Source/portable/GCC/ARM_CM4F/portmacro.h **** /* portNOP() is not required by this port. */
 203:../../../FreeRTOS_9_0/Source/portable/GCC/ARM_CM4F/portmacro.h **** #define portNOP()
 204:../../../FreeRTOS_9_0/Source/portable/GCC/ARM_CM4F/portmacro.h **** 
 205:../../../FreeRTOS_9_0/Source/portable/GCC/ARM_CM4F/portmacro.h **** #define portINLINE	__inline
 206:../../../FreeRTOS_9_0/Source/portable/GCC/ARM_CM4F/portmacro.h **** 
 207:../../../FreeRTOS_9_0/Source/portable/GCC/ARM_CM4F/portmacro.h **** #ifndef portFORCE_INLINE
 208:../../../FreeRTOS_9_0/Source/portable/GCC/ARM_CM4F/portmacro.h **** 	#define portFORCE_INLINE inline __attribute__(( always_inline))
 209:../../../FreeRTOS_9_0/Source/portable/GCC/ARM_CM4F/portmacro.h **** #endif
 210:../../../FreeRTOS_9_0/Source/portable/GCC/ARM_CM4F/portmacro.h **** 
 211:../../../FreeRTOS_9_0/Source/portable/GCC/ARM_CM4F/portmacro.h **** portFORCE_INLINE static BaseType_t xPortIsInsideInterrupt( void )
 212:../../../FreeRTOS_9_0/Source/portable/GCC/ARM_CM4F/portmacro.h **** {
 213:../../../FreeRTOS_9_0/Source/portable/GCC/ARM_CM4F/portmacro.h **** uint32_t ulCurrentInterrupt;
 214:../../../FreeRTOS_9_0/Source/portable/GCC/ARM_CM4F/portmacro.h **** BaseType_t xReturn;
 215:../../../FreeRTOS_9_0/Source/portable/GCC/ARM_CM4F/portmacro.h **** 
ARM GAS  /tmp/ccrA3BdH.s 			page 33


 216:../../../FreeRTOS_9_0/Source/portable/GCC/ARM_CM4F/portmacro.h **** 	/* Obtain the number of the currently executing interrupt. */
 217:../../../FreeRTOS_9_0/Source/portable/GCC/ARM_CM4F/portmacro.h **** 	__asm volatile( "mrs %0, ipsr" : "=r"( ulCurrentInterrupt ) );
 218:../../../FreeRTOS_9_0/Source/portable/GCC/ARM_CM4F/portmacro.h **** 
 219:../../../FreeRTOS_9_0/Source/portable/GCC/ARM_CM4F/portmacro.h **** 	if( ulCurrentInterrupt == 0 )
 220:../../../FreeRTOS_9_0/Source/portable/GCC/ARM_CM4F/portmacro.h **** 	{
 221:../../../FreeRTOS_9_0/Source/portable/GCC/ARM_CM4F/portmacro.h **** 		xReturn = pdFALSE;
 222:../../../FreeRTOS_9_0/Source/portable/GCC/ARM_CM4F/portmacro.h **** 	}
 223:../../../FreeRTOS_9_0/Source/portable/GCC/ARM_CM4F/portmacro.h **** 	else
 224:../../../FreeRTOS_9_0/Source/portable/GCC/ARM_CM4F/portmacro.h **** 	{
 225:../../../FreeRTOS_9_0/Source/portable/GCC/ARM_CM4F/portmacro.h **** 		xReturn = pdTRUE;
 226:../../../FreeRTOS_9_0/Source/portable/GCC/ARM_CM4F/portmacro.h **** 	}
 227:../../../FreeRTOS_9_0/Source/portable/GCC/ARM_CM4F/portmacro.h **** 
 228:../../../FreeRTOS_9_0/Source/portable/GCC/ARM_CM4F/portmacro.h **** 	return xReturn;
 229:../../../FreeRTOS_9_0/Source/portable/GCC/ARM_CM4F/portmacro.h **** }
 230:../../../FreeRTOS_9_0/Source/portable/GCC/ARM_CM4F/portmacro.h **** 
 231:../../../FreeRTOS_9_0/Source/portable/GCC/ARM_CM4F/portmacro.h **** /*-----------------------------------------------------------*/
 232:../../../FreeRTOS_9_0/Source/portable/GCC/ARM_CM4F/portmacro.h **** 
 233:../../../FreeRTOS_9_0/Source/portable/GCC/ARM_CM4F/portmacro.h **** portFORCE_INLINE static void vPortRaiseBASEPRI( void )
 234:../../../FreeRTOS_9_0/Source/portable/GCC/ARM_CM4F/portmacro.h **** {
 235:../../../FreeRTOS_9_0/Source/portable/GCC/ARM_CM4F/portmacro.h **** uint32_t ulNewBASEPRI;
 236:../../../FreeRTOS_9_0/Source/portable/GCC/ARM_CM4F/portmacro.h **** 
 237:../../../FreeRTOS_9_0/Source/portable/GCC/ARM_CM4F/portmacro.h **** 	__asm volatile
 890              		.loc 4 237 0 discriminator 1
 891              	@ 237 "../../../FreeRTOS_9_0/Source/portable/GCC/ARM_CM4F/portmacro.h" 1
 892 0028 4FF05003 			mov r3, #80												
 893 002c 83F31188 		msr basepri, r3											
 894 0030 BFF36F8F 		isb														
 895 0034 BFF34F8F 		dsb														
 896              	
 897              	@ 0 "" 2
 898              		.thumb
 899 0038 BB61     		str	r3, [r7, #24]
 900              	.L39:
 901              	.LBE44:
 902              	.LBE43:
 903              		.loc 3 280 0 discriminator 1
 904 003a FEE7     		b	.L39
 905              	.L38:
 281:../../../FreeRTOS-Plus/Source/FreeRTOS-Plus-TCP/FreeRTOS_Sockets.c **** 
 282:../../../FreeRTOS-Plus/Source/FreeRTOS-Plus-TCP/FreeRTOS_Sockets.c **** 		/* Check if the UDP socket-list has been initialised. */
 283:../../../FreeRTOS-Plus/Source/FreeRTOS-Plus-TCP/FreeRTOS_Sockets.c **** 		configASSERT( listLIST_IS_INITIALISED( &xBoundUDPSocketsList ) );
 906              		.loc 3 283 0
 907 003c 1E4B     		ldr	r3, .L49
 908 003e 9B68     		ldr	r3, [r3, #8]
 909 0040 B3F1FF3F 		cmp	r3, #-1
 910 0044 09D0     		beq	.L40
 911              	.LBB45:
 912              	.LBB46:
 913              		.loc 4 237 0 discriminator 1
 914              	@ 237 "../../../FreeRTOS_9_0/Source/portable/GCC/ARM_CM4F/portmacro.h" 1
 915 0046 4FF05003 			mov r3, #80												
 916 004a 83F31188 		msr basepri, r3											
 917 004e BFF36F8F 		isb														
 918 0052 BFF34F8F 		dsb														
 919              	
 920              	@ 0 "" 2
 921              		.thumb
ARM GAS  /tmp/ccrA3BdH.s 			page 34


 922 0056 7B61     		str	r3, [r7, #20]
 923              	.L41:
 924              	.LBE46:
 925              	.LBE45:
 926              		.loc 3 283 0 discriminator 2
 927 0058 FEE7     		b	.L41
 928              	.L40:
 284:../../../FreeRTOS-Plus/Source/FreeRTOS-Plus-TCP/FreeRTOS_Sockets.c **** 		#if( ipconfigUSE_TCP == 1 )
 285:../../../FreeRTOS-Plus/Source/FreeRTOS-Plus-TCP/FreeRTOS_Sockets.c **** 		{
 286:../../../FreeRTOS-Plus/Source/FreeRTOS-Plus-TCP/FreeRTOS_Sockets.c **** 			/* Check if the TCP socket-list has been initialised. */
 287:../../../FreeRTOS-Plus/Source/FreeRTOS-Plus-TCP/FreeRTOS_Sockets.c **** 			configASSERT( listLIST_IS_INITIALISED( &xBoundTCPSocketsList ) );
 929              		.loc 3 287 0
 930 005a 184B     		ldr	r3, .L49+4
 931 005c 9B68     		ldr	r3, [r3, #8]
 932 005e B3F1FF3F 		cmp	r3, #-1
 933 0062 09D0     		beq	.L42
 934              	.LBB47:
 935              	.LBB48:
 936              		.loc 4 237 0 discriminator 1
 937              	@ 237 "../../../FreeRTOS_9_0/Source/portable/GCC/ARM_CM4F/portmacro.h" 1
 938 0064 4FF05003 			mov r3, #80												
 939 0068 83F31188 		msr basepri, r3											
 940 006c BFF36F8F 		isb														
 941 0070 BFF34F8F 		dsb														
 942              	
 943              	@ 0 "" 2
 944              		.thumb
 945 0074 3B61     		str	r3, [r7, #16]
 946              	.L43:
 947              	.LBE48:
 948              	.LBE47:
 949              		.loc 3 287 0 discriminator 3
 950 0076 FEE7     		b	.L43
 951              	.L42:
 288:../../../FreeRTOS-Plus/Source/FreeRTOS-Plus-TCP/FreeRTOS_Sockets.c **** 		}
 289:../../../FreeRTOS-Plus/Source/FreeRTOS-Plus-TCP/FreeRTOS_Sockets.c **** 		#endif  /* ipconfigUSE_TCP == 1 */
 290:../../../FreeRTOS-Plus/Source/FreeRTOS-Plus-TCP/FreeRTOS_Sockets.c **** 
 291:../../../FreeRTOS-Plus/Source/FreeRTOS-Plus-TCP/FreeRTOS_Sockets.c **** 		if( xProtocol == FREERTOS_IPPROTO_UDP )
 952              		.loc 3 291 0
 953 0078 7B68     		ldr	r3, [r7, #4]
 954 007a 112B     		cmp	r3, #17
 955 007c 08D1     		bne	.L44
 292:../../../FreeRTOS-Plus/Source/FreeRTOS-Plus-TCP/FreeRTOS_Sockets.c **** 		{
 293:../../../FreeRTOS-Plus/Source/FreeRTOS-Plus-TCP/FreeRTOS_Sockets.c **** 			if( xType != FREERTOS_SOCK_DGRAM )
 956              		.loc 3 293 0
 957 007e BB68     		ldr	r3, [r7, #8]
 958 0080 022B     		cmp	r3, #2
 959 0082 01D0     		beq	.L45
 294:../../../FreeRTOS-Plus/Source/FreeRTOS-Plus-TCP/FreeRTOS_Sockets.c **** 			{
 295:../../../FreeRTOS-Plus/Source/FreeRTOS-Plus-TCP/FreeRTOS_Sockets.c **** 				xReturn = pdFAIL;
 960              		.loc 3 295 0
 961 0084 0023     		movs	r3, #0
 962 0086 FB61     		str	r3, [r7, #28]
 963              	.L45:
 296:../../../FreeRTOS-Plus/Source/FreeRTOS-Plus-TCP/FreeRTOS_Sockets.c **** 			}
 297:../../../FreeRTOS-Plus/Source/FreeRTOS-Plus-TCP/FreeRTOS_Sockets.c **** 			/* In case a UDP socket is created, do not allocate space for TCP data. */
 298:../../../FreeRTOS-Plus/Source/FreeRTOS-Plus-TCP/FreeRTOS_Sockets.c **** 			*pxSocketSize = ( sizeof( *pxSocket ) - sizeof( pxSocket->u ) ) + sizeof( pxSocket->u.xUDP );
ARM GAS  /tmp/ccrA3BdH.s 			page 35


 964              		.loc 3 298 0
 965 0088 3B68     		ldr	r3, [r7]
 966 008a 4C22     		movs	r2, #76
 967 008c 1A60     		str	r2, [r3]
 968 008e 0EE0     		b	.L37
 969              	.L44:
 299:../../../FreeRTOS-Plus/Source/FreeRTOS-Plus-TCP/FreeRTOS_Sockets.c **** 		}
 300:../../../FreeRTOS-Plus/Source/FreeRTOS-Plus-TCP/FreeRTOS_Sockets.c **** #if( ipconfigUSE_TCP == 1 )
 301:../../../FreeRTOS-Plus/Source/FreeRTOS-Plus-TCP/FreeRTOS_Sockets.c **** 		else if( xProtocol == FREERTOS_IPPROTO_TCP )
 970              		.loc 3 301 0
 971 0090 7B68     		ldr	r3, [r7, #4]
 972 0092 062B     		cmp	r3, #6
 973 0094 09D1     		bne	.L46
 302:../../../FreeRTOS-Plus/Source/FreeRTOS-Plus-TCP/FreeRTOS_Sockets.c **** 		{
 303:../../../FreeRTOS-Plus/Source/FreeRTOS-Plus-TCP/FreeRTOS_Sockets.c **** 			if( xType != FREERTOS_SOCK_STREAM )
 974              		.loc 3 303 0
 975 0096 BB68     		ldr	r3, [r7, #8]
 976 0098 012B     		cmp	r3, #1
 977 009a 01D0     		beq	.L47
 304:../../../FreeRTOS-Plus/Source/FreeRTOS-Plus-TCP/FreeRTOS_Sockets.c **** 			{
 305:../../../FreeRTOS-Plus/Source/FreeRTOS-Plus-TCP/FreeRTOS_Sockets.c **** 				xReturn = pdFAIL;
 978              		.loc 3 305 0
 979 009c 0023     		movs	r3, #0
 980 009e FB61     		str	r3, [r7, #28]
 981              	.L47:
 306:../../../FreeRTOS-Plus/Source/FreeRTOS-Plus-TCP/FreeRTOS_Sockets.c **** 			}
 307:../../../FreeRTOS-Plus/Source/FreeRTOS-Plus-TCP/FreeRTOS_Sockets.c **** 
 308:../../../FreeRTOS-Plus/Source/FreeRTOS-Plus-TCP/FreeRTOS_Sockets.c **** 			*pxSocketSize = ( sizeof( *pxSocket ) - sizeof( pxSocket->u ) ) + sizeof( pxSocket->u.xTCP );
 982              		.loc 3 308 0
 983 00a0 3B68     		ldr	r3, [r7]
 984 00a2 4FF4D072 		mov	r2, #416
 985 00a6 1A60     		str	r2, [r3]
 986 00a8 01E0     		b	.L37
 987              	.L46:
 309:../../../FreeRTOS-Plus/Source/FreeRTOS-Plus-TCP/FreeRTOS_Sockets.c **** 		}
 310:../../../FreeRTOS-Plus/Source/FreeRTOS-Plus-TCP/FreeRTOS_Sockets.c **** #endif  /* ipconfigUSE_TCP == 1 */
 311:../../../FreeRTOS-Plus/Source/FreeRTOS-Plus-TCP/FreeRTOS_Sockets.c **** 		else
 312:../../../FreeRTOS-Plus/Source/FreeRTOS-Plus-TCP/FreeRTOS_Sockets.c **** 		{
 313:../../../FreeRTOS-Plus/Source/FreeRTOS-Plus-TCP/FreeRTOS_Sockets.c **** 			xReturn = pdFAIL;
 988              		.loc 3 313 0
 989 00aa 0023     		movs	r3, #0
 990 00ac FB61     		str	r3, [r7, #28]
 991              	.L37:
 314:../../../FreeRTOS-Plus/Source/FreeRTOS-Plus-TCP/FreeRTOS_Sockets.c **** 		}
 315:../../../FreeRTOS-Plus/Source/FreeRTOS-Plus-TCP/FreeRTOS_Sockets.c **** 	}
 316:../../../FreeRTOS-Plus/Source/FreeRTOS-Plus-TCP/FreeRTOS_Sockets.c **** 	/* In case configASSERT() is not used */
 317:../../../FreeRTOS-Plus/Source/FreeRTOS-Plus-TCP/FreeRTOS_Sockets.c **** 	( void )xDomain;
 318:../../../FreeRTOS-Plus/Source/FreeRTOS-Plus-TCP/FreeRTOS_Sockets.c **** 	return xReturn;
 992              		.loc 3 318 0
 993 00ae FB69     		ldr	r3, [r7, #28]
 319:../../../FreeRTOS-Plus/Source/FreeRTOS-Plus-TCP/FreeRTOS_Sockets.c **** }
 994              		.loc 3 319 0
 995 00b0 1846     		mov	r0, r3
 996 00b2 2037     		adds	r7, r7, #32
 997              	.LCFI82:
 998              		.cfi_def_cfa_offset 8
 999 00b4 BD46     		mov	sp, r7
ARM GAS  /tmp/ccrA3BdH.s 			page 36


 1000              	.LCFI83:
 1001              		.cfi_def_cfa_register 13
 1002              		@ sp needed
 1003 00b6 80BD     		pop	{r7, pc}
 1004              	.L50:
 1005              		.align	2
 1006              	.L49:
 1007 00b8 00000000 		.word	xBoundUDPSocketsList
 1008 00bc 00000000 		.word	xBoundTCPSocketsList
 1009              		.cfi_endproc
 1010              	.LFE31:
 1012              		.section	.text.FreeRTOS_socket,"ax",%progbits
 1013              		.align	2
 1014              		.global	FreeRTOS_socket
 1015              		.thumb
 1016              		.thumb_func
 1018              	FreeRTOS_socket:
 1019              	.LFB32:
 320:../../../FreeRTOS-Plus/Source/FreeRTOS-Plus-TCP/FreeRTOS_Sockets.c **** /*-----------------------------------------------------------*/
 321:../../../FreeRTOS-Plus/Source/FreeRTOS-Plus-TCP/FreeRTOS_Sockets.c **** 
 322:../../../FreeRTOS-Plus/Source/FreeRTOS-Plus-TCP/FreeRTOS_Sockets.c **** /* FreeRTOS_socket() allocates and initiates a socket */
 323:../../../FreeRTOS-Plus/Source/FreeRTOS-Plus-TCP/FreeRTOS_Sockets.c **** Socket_t FreeRTOS_socket( BaseType_t xDomain, BaseType_t xType, BaseType_t xProtocol )
 324:../../../FreeRTOS-Plus/Source/FreeRTOS-Plus-TCP/FreeRTOS_Sockets.c **** {
 1020              		.loc 3 324 0
 1021              		.cfi_startproc
 1022              		@ args = 0, pretend = 0, frame = 32
 1023              		@ frame_needed = 1, uses_anonymous_args = 0
 1024 0000 80B5     		push	{r7, lr}
 1025              	.LCFI84:
 1026              		.cfi_def_cfa_offset 8
 1027              		.cfi_offset 7, -8
 1028              		.cfi_offset 14, -4
 1029 0002 88B0     		sub	sp, sp, #32
 1030              	.LCFI85:
 1031              		.cfi_def_cfa_offset 40
 1032 0004 00AF     		add	r7, sp, #0
 1033              	.LCFI86:
 1034              		.cfi_def_cfa_register 7
 1035 0006 F860     		str	r0, [r7, #12]
 1036 0008 B960     		str	r1, [r7, #8]
 1037 000a 7A60     		str	r2, [r7, #4]
 325:../../../FreeRTOS-Plus/Source/FreeRTOS-Plus-TCP/FreeRTOS_Sockets.c **** FreeRTOS_Socket_t *pxSocket;
 326:../../../FreeRTOS-Plus/Source/FreeRTOS-Plus-TCP/FreeRTOS_Sockets.c **** size_t uxSocketSize;
 327:../../../FreeRTOS-Plus/Source/FreeRTOS-Plus-TCP/FreeRTOS_Sockets.c **** EventGroupHandle_t xEventGroup;
 328:../../../FreeRTOS-Plus/Source/FreeRTOS-Plus-TCP/FreeRTOS_Sockets.c **** Socket_t xReturn;
 329:../../../FreeRTOS-Plus/Source/FreeRTOS-Plus-TCP/FreeRTOS_Sockets.c **** 
 330:../../../FreeRTOS-Plus/Source/FreeRTOS-Plus-TCP/FreeRTOS_Sockets.c **** 	if( prvDetermineSocketSize( xDomain, xType, xProtocol, &uxSocketSize ) == pdFAIL )
 1038              		.loc 3 330 0
 1039 000c 07F11003 		add	r3, r7, #16
 1040 0010 F868     		ldr	r0, [r7, #12]
 1041 0012 B968     		ldr	r1, [r7, #8]
 1042 0014 7A68     		ldr	r2, [r7, #4]
 1043 0016 FFF7FEFF 		bl	prvDetermineSocketSize
 1044 001a 0346     		mov	r3, r0
 1045 001c 002B     		cmp	r3, #0
 1046 001e 03D1     		bne	.L52
 331:../../../FreeRTOS-Plus/Source/FreeRTOS-Plus-TCP/FreeRTOS_Sockets.c **** 	{
ARM GAS  /tmp/ccrA3BdH.s 			page 37


 332:../../../FreeRTOS-Plus/Source/FreeRTOS-Plus-TCP/FreeRTOS_Sockets.c **** 		xReturn = FREERTOS_INVALID_SOCKET;
 1047              		.loc 3 332 0
 1048 0020 4FF0FF33 		mov	r3, #-1
 1049 0024 BB61     		str	r3, [r7, #24]
 1050 0026 7DE0     		b	.L53
 1051              	.L52:
 333:../../../FreeRTOS-Plus/Source/FreeRTOS-Plus-TCP/FreeRTOS_Sockets.c **** 	}
 334:../../../FreeRTOS-Plus/Source/FreeRTOS-Plus-TCP/FreeRTOS_Sockets.c **** 	else
 335:../../../FreeRTOS-Plus/Source/FreeRTOS-Plus-TCP/FreeRTOS_Sockets.c **** 	{
 336:../../../FreeRTOS-Plus/Source/FreeRTOS-Plus-TCP/FreeRTOS_Sockets.c **** 		/* Allocate the structure that will hold the socket information.  The
 337:../../../FreeRTOS-Plus/Source/FreeRTOS-Plus-TCP/FreeRTOS_Sockets.c **** 		size depends on the type of socket: UDP sockets need less space.  A
 338:../../../FreeRTOS-Plus/Source/FreeRTOS-Plus-TCP/FreeRTOS_Sockets.c **** 		define 'pvPortMallocSocket' will used to allocate the necessary space.
 339:../../../FreeRTOS-Plus/Source/FreeRTOS-Plus-TCP/FreeRTOS_Sockets.c **** 		By default it points to the FreeRTOS function 'pvPortMalloc()'. */
 340:../../../FreeRTOS-Plus/Source/FreeRTOS-Plus-TCP/FreeRTOS_Sockets.c **** 		pxSocket = ( FreeRTOS_Socket_t * ) pvPortMallocSocket( uxSocketSize );
 1052              		.loc 3 340 0
 1053 0028 3B69     		ldr	r3, [r7, #16]
 1054 002a 1846     		mov	r0, r3
 1055 002c FFF7FEFF 		bl	pvPortMalloc
 1056 0030 F861     		str	r0, [r7, #28]
 341:../../../FreeRTOS-Plus/Source/FreeRTOS-Plus-TCP/FreeRTOS_Sockets.c **** 
 342:../../../FreeRTOS-Plus/Source/FreeRTOS-Plus-TCP/FreeRTOS_Sockets.c **** 		if( pxSocket == NULL )
 1057              		.loc 3 342 0
 1058 0032 FB69     		ldr	r3, [r7, #28]
 1059 0034 002B     		cmp	r3, #0
 1060 0036 03D1     		bne	.L54
 343:../../../FreeRTOS-Plus/Source/FreeRTOS-Plus-TCP/FreeRTOS_Sockets.c **** 		{
 344:../../../FreeRTOS-Plus/Source/FreeRTOS-Plus-TCP/FreeRTOS_Sockets.c **** 			pxSocket = ( FreeRTOS_Socket_t * ) FREERTOS_INVALID_SOCKET;
 1061              		.loc 3 344 0
 1062 0038 4FF0FF33 		mov	r3, #-1
 1063 003c FB61     		str	r3, [r7, #28]
 1064 003e 6FE0     		b	.L55
 1065              	.L54:
 345:../../../FreeRTOS-Plus/Source/FreeRTOS-Plus-TCP/FreeRTOS_Sockets.c **** 			iptraceFAILED_TO_CREATE_SOCKET();
 346:../../../FreeRTOS-Plus/Source/FreeRTOS-Plus-TCP/FreeRTOS_Sockets.c **** 		}
 347:../../../FreeRTOS-Plus/Source/FreeRTOS-Plus-TCP/FreeRTOS_Sockets.c **** 		else if( ( xEventGroup = xEventGroupCreate() ) == NULL )
 1066              		.loc 3 347 0
 1067 0040 FFF7FEFF 		bl	xEventGroupCreate
 1068 0044 7861     		str	r0, [r7, #20]
 1069 0046 7B69     		ldr	r3, [r7, #20]
 1070 0048 002B     		cmp	r3, #0
 1071 004a 06D1     		bne	.L56
 348:../../../FreeRTOS-Plus/Source/FreeRTOS-Plus-TCP/FreeRTOS_Sockets.c **** 		{
 349:../../../FreeRTOS-Plus/Source/FreeRTOS-Plus-TCP/FreeRTOS_Sockets.c **** 			vPortFreeSocket( pxSocket );
 1072              		.loc 3 349 0
 1073 004c F869     		ldr	r0, [r7, #28]
 1074 004e FFF7FEFF 		bl	vPortFree
 350:../../../FreeRTOS-Plus/Source/FreeRTOS-Plus-TCP/FreeRTOS_Sockets.c **** 			pxSocket = ( FreeRTOS_Socket_t * ) FREERTOS_INVALID_SOCKET;
 1075              		.loc 3 350 0
 1076 0052 4FF0FF33 		mov	r3, #-1
 1077 0056 FB61     		str	r3, [r7, #28]
 1078 0058 62E0     		b	.L55
 1079              	.L56:
 351:../../../FreeRTOS-Plus/Source/FreeRTOS-Plus-TCP/FreeRTOS_Sockets.c **** 			iptraceFAILED_TO_CREATE_EVENT_GROUP();
 352:../../../FreeRTOS-Plus/Source/FreeRTOS-Plus-TCP/FreeRTOS_Sockets.c **** 		}
 353:../../../FreeRTOS-Plus/Source/FreeRTOS-Plus-TCP/FreeRTOS_Sockets.c **** 		else
 354:../../../FreeRTOS-Plus/Source/FreeRTOS-Plus-TCP/FreeRTOS_Sockets.c **** 		{
 355:../../../FreeRTOS-Plus/Source/FreeRTOS-Plus-TCP/FreeRTOS_Sockets.c **** 			/* Clear the entire space to avoid nulling individual entries */
ARM GAS  /tmp/ccrA3BdH.s 			page 38


 356:../../../FreeRTOS-Plus/Source/FreeRTOS-Plus-TCP/FreeRTOS_Sockets.c **** 			memset( pxSocket, '\0', uxSocketSize );
 1080              		.loc 3 356 0
 1081 005a 3B69     		ldr	r3, [r7, #16]
 1082 005c F869     		ldr	r0, [r7, #28]
 1083 005e 0021     		movs	r1, #0
 1084 0060 1A46     		mov	r2, r3
 1085 0062 FFF7FEFF 		bl	memset
 357:../../../FreeRTOS-Plus/Source/FreeRTOS-Plus-TCP/FreeRTOS_Sockets.c **** 
 358:../../../FreeRTOS-Plus/Source/FreeRTOS-Plus-TCP/FreeRTOS_Sockets.c **** 			pxSocket->xEventGroup = xEventGroup;
 1086              		.loc 3 358 0
 1087 0066 FB69     		ldr	r3, [r7, #28]
 1088 0068 7A69     		ldr	r2, [r7, #20]
 1089 006a 5A60     		str	r2, [r3, #4]
 359:../../../FreeRTOS-Plus/Source/FreeRTOS-Plus-TCP/FreeRTOS_Sockets.c **** 
 360:../../../FreeRTOS-Plus/Source/FreeRTOS-Plus-TCP/FreeRTOS_Sockets.c **** 			/* Initialise the socket's members.  The semaphore will be created
 361:../../../FreeRTOS-Plus/Source/FreeRTOS-Plus-TCP/FreeRTOS_Sockets.c **** 			if the socket is bound to an address, for now the pointer to the
 362:../../../FreeRTOS-Plus/Source/FreeRTOS-Plus-TCP/FreeRTOS_Sockets.c **** 			semaphore is just set to NULL to show it has not been created. */
 363:../../../FreeRTOS-Plus/Source/FreeRTOS-Plus-TCP/FreeRTOS_Sockets.c **** 			if( xProtocol == FREERTOS_IPPROTO_UDP )
 1090              		.loc 3 363 0
 1091 006c 7B68     		ldr	r3, [r7, #4]
 1092 006e 112B     		cmp	r3, #17
 1093 0070 04D1     		bne	.L57
 364:../../../FreeRTOS-Plus/Source/FreeRTOS-Plus-TCP/FreeRTOS_Sockets.c **** 			{
 365:../../../FreeRTOS-Plus/Source/FreeRTOS-Plus-TCP/FreeRTOS_Sockets.c **** 				vListInitialise( &( pxSocket->u.xUDP.xWaitingPacketsList ) );
 1094              		.loc 3 365 0
 1095 0072 FB69     		ldr	r3, [r7, #28]
 1096 0074 3833     		adds	r3, r3, #56
 1097 0076 1846     		mov	r0, r3
 1098 0078 FFF7FEFF 		bl	vListInitialise
 1099              	.L57:
 366:../../../FreeRTOS-Plus/Source/FreeRTOS-Plus-TCP/FreeRTOS_Sockets.c **** 
 367:../../../FreeRTOS-Plus/Source/FreeRTOS-Plus-TCP/FreeRTOS_Sockets.c **** 				#if( ipconfigUDP_MAX_RX_PACKETS > 0 )
 368:../../../FreeRTOS-Plus/Source/FreeRTOS-Plus-TCP/FreeRTOS_Sockets.c **** 				{
 369:../../../FreeRTOS-Plus/Source/FreeRTOS-Plus-TCP/FreeRTOS_Sockets.c **** 					pxSocket->u.xUDP.uxMaxPackets = ( UBaseType_t ) ipconfigUDP_MAX_RX_PACKETS;
 370:../../../FreeRTOS-Plus/Source/FreeRTOS-Plus-TCP/FreeRTOS_Sockets.c **** 				}
 371:../../../FreeRTOS-Plus/Source/FreeRTOS-Plus-TCP/FreeRTOS_Sockets.c **** 				#endif /* ipconfigUDP_MAX_RX_PACKETS > 0 */
 372:../../../FreeRTOS-Plus/Source/FreeRTOS-Plus-TCP/FreeRTOS_Sockets.c **** 			}
 373:../../../FreeRTOS-Plus/Source/FreeRTOS-Plus-TCP/FreeRTOS_Sockets.c **** 
 374:../../../FreeRTOS-Plus/Source/FreeRTOS-Plus-TCP/FreeRTOS_Sockets.c **** 			vListInitialiseItem( &( pxSocket->xBoundSocketListItem ) );
 1100              		.loc 3 374 0
 1101 007c FB69     		ldr	r3, [r7, #28]
 1102 007e 0833     		adds	r3, r3, #8
 1103 0080 1846     		mov	r0, r3
 1104 0082 FFF7FEFF 		bl	vListInitialiseItem
 375:../../../FreeRTOS-Plus/Source/FreeRTOS-Plus-TCP/FreeRTOS_Sockets.c **** 			listSET_LIST_ITEM_OWNER( &( pxSocket->xBoundSocketListItem ), ( void * ) pxSocket );
 1105              		.loc 3 375 0
 1106 0086 FB69     		ldr	r3, [r7, #28]
 1107 0088 FA69     		ldr	r2, [r7, #28]
 1108 008a 5A61     		str	r2, [r3, #20]
 376:../../../FreeRTOS-Plus/Source/FreeRTOS-Plus-TCP/FreeRTOS_Sockets.c **** 
 377:../../../FreeRTOS-Plus/Source/FreeRTOS-Plus-TCP/FreeRTOS_Sockets.c **** 			pxSocket->xReceiveBlockTime = ipconfigSOCK_DEFAULT_RECEIVE_BLOCK_TIME;
 1109              		.loc 3 377 0
 1110 008c FB69     		ldr	r3, [r7, #28]
 1111 008e 41F28832 		movw	r2, #5000
 1112 0092 DA61     		str	r2, [r3, #28]
 378:../../../FreeRTOS-Plus/Source/FreeRTOS-Plus-TCP/FreeRTOS_Sockets.c **** 			pxSocket->xSendBlockTime    = ipconfigSOCK_DEFAULT_SEND_BLOCK_TIME;
 1113              		.loc 3 378 0
ARM GAS  /tmp/ccrA3BdH.s 			page 39


 1114 0094 FB69     		ldr	r3, [r7, #28]
 1115 0096 41F28832 		movw	r2, #5000
 1116 009a 1A62     		str	r2, [r3, #32]
 379:../../../FreeRTOS-Plus/Source/FreeRTOS-Plus-TCP/FreeRTOS_Sockets.c **** 			pxSocket->ucSocketOptions   = ( uint8_t ) FREERTOS_SO_UDPCKSUM_OUT;
 1117              		.loc 3 379 0
 1118 009c FB69     		ldr	r3, [r7, #28]
 1119 009e 0222     		movs	r2, #2
 1120 00a0 83F82620 		strb	r2, [r3, #38]
 380:../../../FreeRTOS-Plus/Source/FreeRTOS-Plus-TCP/FreeRTOS_Sockets.c **** 			pxSocket->ucProtocol        = ( uint8_t ) xProtocol; /* protocol: UDP or TCP */
 1121              		.loc 3 380 0
 1122 00a4 7B68     		ldr	r3, [r7, #4]
 1123 00a6 DAB2     		uxtb	r2, r3
 1124 00a8 FB69     		ldr	r3, [r7, #28]
 1125 00aa 83F82720 		strb	r2, [r3, #39]
 381:../../../FreeRTOS-Plus/Source/FreeRTOS-Plus-TCP/FreeRTOS_Sockets.c **** 
 382:../../../FreeRTOS-Plus/Source/FreeRTOS-Plus-TCP/FreeRTOS_Sockets.c **** 			#if( ipconfigUSE_TCP == 1 )
 383:../../../FreeRTOS-Plus/Source/FreeRTOS-Plus-TCP/FreeRTOS_Sockets.c **** 			{
 384:../../../FreeRTOS-Plus/Source/FreeRTOS-Plus-TCP/FreeRTOS_Sockets.c **** 				if( xProtocol == FREERTOS_IPPROTO_TCP )
 1126              		.loc 3 384 0
 1127 00ae 7B68     		ldr	r3, [r7, #4]
 1128 00b0 062B     		cmp	r3, #6
 1129 00b2 35D1     		bne	.L55
 385:../../../FreeRTOS-Plus/Source/FreeRTOS-Plus-TCP/FreeRTOS_Sockets.c **** 				{
 386:../../../FreeRTOS-Plus/Source/FreeRTOS-Plus-TCP/FreeRTOS_Sockets.c **** 					/* StreamSize is expressed in number of bytes */
 387:../../../FreeRTOS-Plus/Source/FreeRTOS-Plus-TCP/FreeRTOS_Sockets.c **** 					/* Round up buffer sizes to nearest multiple of MSS */
 388:../../../FreeRTOS-Plus/Source/FreeRTOS-Plus-TCP/FreeRTOS_Sockets.c **** 					pxSocket->u.xTCP.usInitMSS    = pxSocket->u.xTCP.usCurMSS = ipconfigTCP_MSS;
 1130              		.loc 3 388 0
 1131 00b4 FB69     		ldr	r3, [r7, #28]
 1132 00b6 40F2B452 		movw	r2, #1460
 1133 00ba A3F84A20 		strh	r2, [r3, #74]	@ movhi
 1134 00be FB69     		ldr	r3, [r7, #28]
 1135 00c0 B3F84A20 		ldrh	r2, [r3, #74]
 1136 00c4 FB69     		ldr	r3, [r7, #28]
 1137 00c6 A3F84C20 		strh	r2, [r3, #76]	@ movhi
 389:../../../FreeRTOS-Plus/Source/FreeRTOS-Plus-TCP/FreeRTOS_Sockets.c **** 					pxSocket->u.xTCP.uxRxStreamSize = ( size_t ) ipconfigTCP_RX_BUFFER_LENGTH;
 1138              		.loc 3 389 0
 1139 00ca FB69     		ldr	r3, [r7, #28]
 1140 00cc 41F21C12 		movw	r2, #4380
 1141 00d0 DA66     		str	r2, [r3, #108]
 390:../../../FreeRTOS-Plus/Source/FreeRTOS-Plus-TCP/FreeRTOS_Sockets.c **** 					pxSocket->u.xTCP.uxTxStreamSize = ( size_t ) FreeRTOS_round_up( ipconfigTCP_TX_BUFFER_LENGTH, 
 1142              		.loc 3 390 0
 1143 00d2 40F66830 		movw	r0, #2920
 1144 00d6 40F2B451 		movw	r1, #1460
 1145 00da FFF7FEFF 		bl	FreeRTOS_round_up
 1146 00de 0246     		mov	r2, r0
 1147 00e0 FB69     		ldr	r3, [r7, #28]
 1148 00e2 1A67     		str	r2, [r3, #112]
 391:../../../FreeRTOS-Plus/Source/FreeRTOS-Plus-TCP/FreeRTOS_Sockets.c **** 					/* Use half of the buffer size of the TCP windows */
 392:../../../FreeRTOS-Plus/Source/FreeRTOS-Plus-TCP/FreeRTOS_Sockets.c **** 					#if ( ipconfigUSE_TCP_WIN == 1 )
 393:../../../FreeRTOS-Plus/Source/FreeRTOS-Plus-TCP/FreeRTOS_Sockets.c **** 					{
 394:../../../FreeRTOS-Plus/Source/FreeRTOS-Plus-TCP/FreeRTOS_Sockets.c **** 						pxSocket->u.xTCP.uxRxWinSize  = FreeRTOS_max_uint32( 1UL, ( uint32_t ) ( pxSocket->u.xTCP.uxR
 1149              		.loc 3 394 0
 1150 00e4 FB69     		ldr	r3, [r7, #28]
 1151 00e6 DB6E     		ldr	r3, [r3, #108]
 1152 00e8 DB08     		lsrs	r3, r3, #3
 1153 00ea 114A     		ldr	r2, .L59
 1154 00ec A2FB0323 		umull	r2, r3, r2, r3
ARM GAS  /tmp/ccrA3BdH.s 			page 40


 1155 00f0 9B09     		lsrs	r3, r3, #6
 1156 00f2 0120     		movs	r0, #1
 1157 00f4 1946     		mov	r1, r3
 1158 00f6 FFF7FEFF 		bl	FreeRTOS_max_uint32
 1159 00fa 0246     		mov	r2, r0
 1160 00fc FB69     		ldr	r3, [r7, #28]
 1161 00fe C3F8D420 		str	r2, [r3, #212]
 395:../../../FreeRTOS-Plus/Source/FreeRTOS-Plus-TCP/FreeRTOS_Sockets.c **** 						pxSocket->u.xTCP.uxTxWinSize  = FreeRTOS_max_uint32( 1UL, ( uint32_t ) ( pxSocket->u.xTCP.uxT
 1162              		.loc 3 395 0
 1163 0102 FB69     		ldr	r3, [r7, #28]
 1164 0104 1B6F     		ldr	r3, [r3, #112]
 1165 0106 DB08     		lsrs	r3, r3, #3
 1166 0108 094A     		ldr	r2, .L59
 1167 010a A2FB0323 		umull	r2, r3, r2, r3
 1168 010e 9B09     		lsrs	r3, r3, #6
 1169 0110 0120     		movs	r0, #1
 1170 0112 1946     		mov	r1, r3
 1171 0114 FFF7FEFF 		bl	FreeRTOS_max_uint32
 1172 0118 0246     		mov	r2, r0
 1173 011a FB69     		ldr	r3, [r7, #28]
 1174 011c C3F8D820 		str	r2, [r3, #216]
 1175              	.L55:
 396:../../../FreeRTOS-Plus/Source/FreeRTOS-Plus-TCP/FreeRTOS_Sockets.c **** 					}
 397:../../../FreeRTOS-Plus/Source/FreeRTOS-Plus-TCP/FreeRTOS_Sockets.c **** 					#else
 398:../../../FreeRTOS-Plus/Source/FreeRTOS-Plus-TCP/FreeRTOS_Sockets.c **** 					{
 399:../../../FreeRTOS-Plus/Source/FreeRTOS-Plus-TCP/FreeRTOS_Sockets.c **** 						pxSocket->u.xTCP.uxRxWinSize  = 1u;
 400:../../../FreeRTOS-Plus/Source/FreeRTOS-Plus-TCP/FreeRTOS_Sockets.c **** 						pxSocket->u.xTCP.uxTxWinSize  = 1u;
 401:../../../FreeRTOS-Plus/Source/FreeRTOS-Plus-TCP/FreeRTOS_Sockets.c **** 					}
 402:../../../FreeRTOS-Plus/Source/FreeRTOS-Plus-TCP/FreeRTOS_Sockets.c **** 					#endif
 403:../../../FreeRTOS-Plus/Source/FreeRTOS-Plus-TCP/FreeRTOS_Sockets.c **** 					/* The above values are just defaults, and can be overridden by
 404:../../../FreeRTOS-Plus/Source/FreeRTOS-Plus-TCP/FreeRTOS_Sockets.c **** 					calling FreeRTOS_setsockopt().  No buffers will be allocated until a
 405:../../../FreeRTOS-Plus/Source/FreeRTOS-Plus-TCP/FreeRTOS_Sockets.c **** 					socket is connected and data is exchanged. */
 406:../../../FreeRTOS-Plus/Source/FreeRTOS-Plus-TCP/FreeRTOS_Sockets.c **** 				}
 407:../../../FreeRTOS-Plus/Source/FreeRTOS-Plus-TCP/FreeRTOS_Sockets.c **** 			}
 408:../../../FreeRTOS-Plus/Source/FreeRTOS-Plus-TCP/FreeRTOS_Sockets.c **** 			#endif  /* ipconfigUSE_TCP == 1 */
 409:../../../FreeRTOS-Plus/Source/FreeRTOS-Plus-TCP/FreeRTOS_Sockets.c **** 		}
 410:../../../FreeRTOS-Plus/Source/FreeRTOS-Plus-TCP/FreeRTOS_Sockets.c **** 
 411:../../../FreeRTOS-Plus/Source/FreeRTOS-Plus-TCP/FreeRTOS_Sockets.c **** 		xReturn = ( Socket_t ) pxSocket;
 1176              		.loc 3 411 0
 1177 0120 FB69     		ldr	r3, [r7, #28]
 1178 0122 BB61     		str	r3, [r7, #24]
 1179              	.L53:
 412:../../../FreeRTOS-Plus/Source/FreeRTOS-Plus-TCP/FreeRTOS_Sockets.c **** 	}
 413:../../../FreeRTOS-Plus/Source/FreeRTOS-Plus-TCP/FreeRTOS_Sockets.c **** 
 414:../../../FreeRTOS-Plus/Source/FreeRTOS-Plus-TCP/FreeRTOS_Sockets.c **** 	/* Remove compiler warnings in the case the configASSERT() is not defined. */
 415:../../../FreeRTOS-Plus/Source/FreeRTOS-Plus-TCP/FreeRTOS_Sockets.c **** 	( void ) xDomain;
 416:../../../FreeRTOS-Plus/Source/FreeRTOS-Plus-TCP/FreeRTOS_Sockets.c **** 
 417:../../../FreeRTOS-Plus/Source/FreeRTOS-Plus-TCP/FreeRTOS_Sockets.c **** 	return xReturn;
 1180              		.loc 3 417 0
 1181 0124 BB69     		ldr	r3, [r7, #24]
 418:../../../FreeRTOS-Plus/Source/FreeRTOS-Plus-TCP/FreeRTOS_Sockets.c **** }
 1182              		.loc 3 418 0
 1183 0126 1846     		mov	r0, r3
 1184 0128 2037     		adds	r7, r7, #32
 1185              	.LCFI87:
 1186              		.cfi_def_cfa_offset 8
 1187 012a BD46     		mov	sp, r7
ARM GAS  /tmp/ccrA3BdH.s 			page 41


 1188              	.LCFI88:
 1189              		.cfi_def_cfa_register 13
 1190              		@ sp needed
 1191 012c 80BD     		pop	{r7, pc}
 1192              	.L60:
 1193 012e 00BF     		.align	2
 1194              	.L59:
 1195 0130 6D3EE32C 		.word	753090157
 1196              		.cfi_endproc
 1197              	.LFE32:
 1199              		.section	.text.FreeRTOS_CreateSocketSet,"ax",%progbits
 1200              		.align	2
 1201              		.global	FreeRTOS_CreateSocketSet
 1202              		.thumb
 1203              		.thumb_func
 1205              	FreeRTOS_CreateSocketSet:
 1206              	.LFB33:
 419:../../../FreeRTOS-Plus/Source/FreeRTOS-Plus-TCP/FreeRTOS_Sockets.c **** /*-----------------------------------------------------------*/
 420:../../../FreeRTOS-Plus/Source/FreeRTOS-Plus-TCP/FreeRTOS_Sockets.c **** 
 421:../../../FreeRTOS-Plus/Source/FreeRTOS-Plus-TCP/FreeRTOS_Sockets.c **** #if( ipconfigSUPPORT_SELECT_FUNCTION == 1 )
 422:../../../FreeRTOS-Plus/Source/FreeRTOS-Plus-TCP/FreeRTOS_Sockets.c **** 
 423:../../../FreeRTOS-Plus/Source/FreeRTOS-Plus-TCP/FreeRTOS_Sockets.c **** 	SocketSet_t FreeRTOS_CreateSocketSet( void )
 424:../../../FreeRTOS-Plus/Source/FreeRTOS-Plus-TCP/FreeRTOS_Sockets.c **** 	{
 1207              		.loc 3 424 0
 1208              		.cfi_startproc
 1209              		@ args = 0, pretend = 0, frame = 8
 1210              		@ frame_needed = 1, uses_anonymous_args = 0
 1211 0000 80B5     		push	{r7, lr}
 1212              	.LCFI89:
 1213              		.cfi_def_cfa_offset 8
 1214              		.cfi_offset 7, -8
 1215              		.cfi_offset 14, -4
 1216 0002 82B0     		sub	sp, sp, #8
 1217              	.LCFI90:
 1218              		.cfi_def_cfa_offset 16
 1219 0004 00AF     		add	r7, sp, #0
 1220              	.LCFI91:
 1221              		.cfi_def_cfa_register 7
 425:../../../FreeRTOS-Plus/Source/FreeRTOS-Plus-TCP/FreeRTOS_Sockets.c **** 	SocketSelect_t *pxSocketSet;
 426:../../../FreeRTOS-Plus/Source/FreeRTOS-Plus-TCP/FreeRTOS_Sockets.c **** 
 427:../../../FreeRTOS-Plus/Source/FreeRTOS-Plus-TCP/FreeRTOS_Sockets.c **** 		pxSocketSet = ( SocketSelect_t * ) pvPortMalloc( sizeof( *pxSocketSet ) );
 1222              		.loc 3 427 0
 1223 0006 0C20     		movs	r0, #12
 1224 0008 FFF7FEFF 		bl	pvPortMalloc
 1225 000c 7860     		str	r0, [r7, #4]
 428:../../../FreeRTOS-Plus/Source/FreeRTOS-Plus-TCP/FreeRTOS_Sockets.c **** 
 429:../../../FreeRTOS-Plus/Source/FreeRTOS-Plus-TCP/FreeRTOS_Sockets.c **** 		if( pxSocketSet != NULL )
 1226              		.loc 3 429 0
 1227 000e 7B68     		ldr	r3, [r7, #4]
 1228 0010 002B     		cmp	r3, #0
 1229 0012 12D0     		beq	.L62
 430:../../../FreeRTOS-Plus/Source/FreeRTOS-Plus-TCP/FreeRTOS_Sockets.c **** 		{
 431:../../../FreeRTOS-Plus/Source/FreeRTOS-Plus-TCP/FreeRTOS_Sockets.c **** 			memset( pxSocketSet, '\0', sizeof( *pxSocketSet ) );
 1230              		.loc 3 431 0
 1231 0014 7868     		ldr	r0, [r7, #4]
 1232 0016 0021     		movs	r1, #0
 1233 0018 0C22     		movs	r2, #12
ARM GAS  /tmp/ccrA3BdH.s 			page 42


 1234 001a FFF7FEFF 		bl	memset
 432:../../../FreeRTOS-Plus/Source/FreeRTOS-Plus-TCP/FreeRTOS_Sockets.c **** 			pxSocketSet->xSelectGroup = xEventGroupCreate();
 1235              		.loc 3 432 0
 1236 001e FFF7FEFF 		bl	xEventGroupCreate
 1237 0022 0246     		mov	r2, r0
 1238 0024 7B68     		ldr	r3, [r7, #4]
 1239 0026 1A60     		str	r2, [r3]
 433:../../../FreeRTOS-Plus/Source/FreeRTOS-Plus-TCP/FreeRTOS_Sockets.c **** 
 434:../../../FreeRTOS-Plus/Source/FreeRTOS-Plus-TCP/FreeRTOS_Sockets.c **** 			if( pxSocketSet->xSelectGroup == NULL )
 1240              		.loc 3 434 0
 1241 0028 7B68     		ldr	r3, [r7, #4]
 1242 002a 1B68     		ldr	r3, [r3]
 1243 002c 002B     		cmp	r3, #0
 1244 002e 04D1     		bne	.L62
 435:../../../FreeRTOS-Plus/Source/FreeRTOS-Plus-TCP/FreeRTOS_Sockets.c **** 			{
 436:../../../FreeRTOS-Plus/Source/FreeRTOS-Plus-TCP/FreeRTOS_Sockets.c **** 				vPortFree( ( void* ) pxSocketSet );
 1245              		.loc 3 436 0
 1246 0030 7868     		ldr	r0, [r7, #4]
 1247 0032 FFF7FEFF 		bl	vPortFree
 437:../../../FreeRTOS-Plus/Source/FreeRTOS-Plus-TCP/FreeRTOS_Sockets.c **** 				pxSocketSet = NULL;
 1248              		.loc 3 437 0
 1249 0036 0023     		movs	r3, #0
 1250 0038 7B60     		str	r3, [r7, #4]
 1251              	.L62:
 438:../../../FreeRTOS-Plus/Source/FreeRTOS-Plus-TCP/FreeRTOS_Sockets.c **** 			}
 439:../../../FreeRTOS-Plus/Source/FreeRTOS-Plus-TCP/FreeRTOS_Sockets.c **** 		}
 440:../../../FreeRTOS-Plus/Source/FreeRTOS-Plus-TCP/FreeRTOS_Sockets.c **** 
 441:../../../FreeRTOS-Plus/Source/FreeRTOS-Plus-TCP/FreeRTOS_Sockets.c **** 		return ( SocketSet_t * ) pxSocketSet;
 1252              		.loc 3 441 0
 1253 003a 7B68     		ldr	r3, [r7, #4]
 442:../../../FreeRTOS-Plus/Source/FreeRTOS-Plus-TCP/FreeRTOS_Sockets.c **** 	}
 1254              		.loc 3 442 0
 1255 003c 1846     		mov	r0, r3
 1256 003e 0837     		adds	r7, r7, #8
 1257              	.LCFI92:
 1258              		.cfi_def_cfa_offset 8
 1259 0040 BD46     		mov	sp, r7
 1260              	.LCFI93:
 1261              		.cfi_def_cfa_register 13
 1262              		@ sp needed
 1263 0042 80BD     		pop	{r7, pc}
 1264              		.cfi_endproc
 1265              	.LFE33:
 1267              		.section	.text.FreeRTOS_DeleteSocketSet,"ax",%progbits
 1268              		.align	2
 1269              		.global	FreeRTOS_DeleteSocketSet
 1270              		.thumb
 1271              		.thumb_func
 1273              	FreeRTOS_DeleteSocketSet:
 1274              	.LFB34:
 443:../../../FreeRTOS-Plus/Source/FreeRTOS-Plus-TCP/FreeRTOS_Sockets.c **** 
 444:../../../FreeRTOS-Plus/Source/FreeRTOS-Plus-TCP/FreeRTOS_Sockets.c **** #endif /* ipconfigSUPPORT_SELECT_FUNCTION == 1 */
 445:../../../FreeRTOS-Plus/Source/FreeRTOS-Plus-TCP/FreeRTOS_Sockets.c **** /*-----------------------------------------------------------*/
 446:../../../FreeRTOS-Plus/Source/FreeRTOS-Plus-TCP/FreeRTOS_Sockets.c **** 
 447:../../../FreeRTOS-Plus/Source/FreeRTOS-Plus-TCP/FreeRTOS_Sockets.c **** #if( ipconfigSUPPORT_SELECT_FUNCTION == 1 )
 448:../../../FreeRTOS-Plus/Source/FreeRTOS-Plus-TCP/FreeRTOS_Sockets.c **** 
 449:../../../FreeRTOS-Plus/Source/FreeRTOS-Plus-TCP/FreeRTOS_Sockets.c **** 	void FreeRTOS_DeleteSocketSet( SocketSet_t xSocketSet )
ARM GAS  /tmp/ccrA3BdH.s 			page 43


 450:../../../FreeRTOS-Plus/Source/FreeRTOS-Plus-TCP/FreeRTOS_Sockets.c **** 	{
 1275              		.loc 3 450 0
 1276              		.cfi_startproc
 1277              		@ args = 0, pretend = 0, frame = 16
 1278              		@ frame_needed = 1, uses_anonymous_args = 0
 1279 0000 80B5     		push	{r7, lr}
 1280              	.LCFI94:
 1281              		.cfi_def_cfa_offset 8
 1282              		.cfi_offset 7, -8
 1283              		.cfi_offset 14, -4
 1284 0002 84B0     		sub	sp, sp, #16
 1285              	.LCFI95:
 1286              		.cfi_def_cfa_offset 24
 1287 0004 00AF     		add	r7, sp, #0
 1288              	.LCFI96:
 1289              		.cfi_def_cfa_register 7
 1290 0006 7860     		str	r0, [r7, #4]
 451:../../../FreeRTOS-Plus/Source/FreeRTOS-Plus-TCP/FreeRTOS_Sockets.c **** 		SocketSelect_t *pxSocketSet = ( SocketSelect_t*) xSocketSet;
 1291              		.loc 3 451 0
 1292 0008 7B68     		ldr	r3, [r7, #4]
 1293 000a FB60     		str	r3, [r7, #12]
 452:../../../FreeRTOS-Plus/Source/FreeRTOS-Plus-TCP/FreeRTOS_Sockets.c **** 
 453:../../../FreeRTOS-Plus/Source/FreeRTOS-Plus-TCP/FreeRTOS_Sockets.c **** 		vEventGroupDelete( pxSocketSet->xSelectGroup );
 1294              		.loc 3 453 0
 1295 000c FB68     		ldr	r3, [r7, #12]
 1296 000e 1B68     		ldr	r3, [r3]
 1297 0010 1846     		mov	r0, r3
 1298 0012 FFF7FEFF 		bl	vEventGroupDelete
 454:../../../FreeRTOS-Plus/Source/FreeRTOS-Plus-TCP/FreeRTOS_Sockets.c **** 		vPortFree( ( void* ) pxSocketSet );
 1299              		.loc 3 454 0
 1300 0016 F868     		ldr	r0, [r7, #12]
 1301 0018 FFF7FEFF 		bl	vPortFree
 455:../../../FreeRTOS-Plus/Source/FreeRTOS-Plus-TCP/FreeRTOS_Sockets.c **** 	}
 1302              		.loc 3 455 0
 1303 001c 1037     		adds	r7, r7, #16
 1304              	.LCFI97:
 1305              		.cfi_def_cfa_offset 8
 1306 001e BD46     		mov	sp, r7
 1307              	.LCFI98:
 1308              		.cfi_def_cfa_register 13
 1309              		@ sp needed
 1310 0020 80BD     		pop	{r7, pc}
 1311              		.cfi_endproc
 1312              	.LFE34:
 1314 0022 00BF     		.section	.text.FreeRTOS_FD_SET,"ax",%progbits
 1315              		.align	2
 1316              		.global	FreeRTOS_FD_SET
 1317              		.thumb
 1318              		.thumb_func
 1320              	FreeRTOS_FD_SET:
 1321              	.LFB35:
 456:../../../FreeRTOS-Plus/Source/FreeRTOS-Plus-TCP/FreeRTOS_Sockets.c **** 
 457:../../../FreeRTOS-Plus/Source/FreeRTOS-Plus-TCP/FreeRTOS_Sockets.c **** #endif /* ipconfigSUPPORT_SELECT_FUNCTION == 1 */
 458:../../../FreeRTOS-Plus/Source/FreeRTOS-Plus-TCP/FreeRTOS_Sockets.c **** /*-----------------------------------------------------------*/
 459:../../../FreeRTOS-Plus/Source/FreeRTOS-Plus-TCP/FreeRTOS_Sockets.c **** 
 460:../../../FreeRTOS-Plus/Source/FreeRTOS-Plus-TCP/FreeRTOS_Sockets.c **** #if( ipconfigSUPPORT_SELECT_FUNCTION == 1 )
 461:../../../FreeRTOS-Plus/Source/FreeRTOS-Plus-TCP/FreeRTOS_Sockets.c **** 
ARM GAS  /tmp/ccrA3BdH.s 			page 44


 462:../../../FreeRTOS-Plus/Source/FreeRTOS-Plus-TCP/FreeRTOS_Sockets.c **** 	/* Add a socket to a set */
 463:../../../FreeRTOS-Plus/Source/FreeRTOS-Plus-TCP/FreeRTOS_Sockets.c **** 	void FreeRTOS_FD_SET( Socket_t xSocket, SocketSet_t xSocketSet, EventBits_t xSelectBits )
 464:../../../FreeRTOS-Plus/Source/FreeRTOS-Plus-TCP/FreeRTOS_Sockets.c **** 	{
 1322              		.loc 3 464 0
 1323              		.cfi_startproc
 1324              		@ args = 0, pretend = 0, frame = 32
 1325              		@ frame_needed = 1, uses_anonymous_args = 0
 1326 0000 80B5     		push	{r7, lr}
 1327              	.LCFI99:
 1328              		.cfi_def_cfa_offset 8
 1329              		.cfi_offset 7, -8
 1330              		.cfi_offset 14, -4
 1331 0002 88B0     		sub	sp, sp, #32
 1332              	.LCFI100:
 1333              		.cfi_def_cfa_offset 40
 1334 0004 00AF     		add	r7, sp, #0
 1335              	.LCFI101:
 1336              		.cfi_def_cfa_register 7
 1337 0006 F860     		str	r0, [r7, #12]
 1338 0008 B960     		str	r1, [r7, #8]
 1339 000a 7A60     		str	r2, [r7, #4]
 465:../../../FreeRTOS-Plus/Source/FreeRTOS-Plus-TCP/FreeRTOS_Sockets.c **** 	FreeRTOS_Socket_t *pxSocket = ( FreeRTOS_Socket_t * ) xSocket;
 1340              		.loc 3 465 0
 1341 000c FB68     		ldr	r3, [r7, #12]
 1342 000e FB61     		str	r3, [r7, #28]
 466:../../../FreeRTOS-Plus/Source/FreeRTOS-Plus-TCP/FreeRTOS_Sockets.c **** 	SocketSelect_t *pxSocketSet = ( SocketSelect_t * ) xSocketSet;
 1343              		.loc 3 466 0
 1344 0010 BB68     		ldr	r3, [r7, #8]
 1345 0012 BB61     		str	r3, [r7, #24]
 467:../../../FreeRTOS-Plus/Source/FreeRTOS-Plus-TCP/FreeRTOS_Sockets.c **** 
 468:../../../FreeRTOS-Plus/Source/FreeRTOS-Plus-TCP/FreeRTOS_Sockets.c **** 		configASSERT( pxSocket != NULL );
 1346              		.loc 3 468 0
 1347 0014 FB69     		ldr	r3, [r7, #28]
 1348 0016 002B     		cmp	r3, #0
 1349 0018 09D1     		bne	.L66
 1350              	.LBB49:
 1351              	.LBB50:
 1352              		.loc 4 237 0 discriminator 1
 1353              	@ 237 "../../../FreeRTOS_9_0/Source/portable/GCC/ARM_CM4F/portmacro.h" 1
 1354 001a 4FF05003 			mov r3, #80												
 1355 001e 83F31188 		msr basepri, r3											
 1356 0022 BFF36F8F 		isb														
 1357 0026 BFF34F8F 		dsb														
 1358              	
 1359              	@ 0 "" 2
 1360              		.thumb
 1361 002a 7B61     		str	r3, [r7, #20]
 1362              	.L67:
 1363              	.LBE50:
 1364              	.LBE49:
 1365              		.loc 3 468 0 discriminator 1
 1366 002c FEE7     		b	.L67
 1367              	.L66:
 469:../../../FreeRTOS-Plus/Source/FreeRTOS-Plus-TCP/FreeRTOS_Sockets.c **** 		configASSERT( xSocketSet != NULL );
 1368              		.loc 3 469 0
 1369 002e BB68     		ldr	r3, [r7, #8]
 1370 0030 002B     		cmp	r3, #0
ARM GAS  /tmp/ccrA3BdH.s 			page 45


 1371 0032 09D1     		bne	.L68
 1372              	.LBB51:
 1373              	.LBB52:
 1374              		.loc 4 237 0 discriminator 1
 1375              	@ 237 "../../../FreeRTOS_9_0/Source/portable/GCC/ARM_CM4F/portmacro.h" 1
 1376 0034 4FF05003 			mov r3, #80												
 1377 0038 83F31188 		msr basepri, r3											
 1378 003c BFF36F8F 		isb														
 1379 0040 BFF34F8F 		dsb														
 1380              	
 1381              	@ 0 "" 2
 1382              		.thumb
 1383 0044 3B61     		str	r3, [r7, #16]
 1384              	.L69:
 1385              	.LBE52:
 1386              	.LBE51:
 1387              		.loc 3 469 0 discriminator 2
 1388 0046 FEE7     		b	.L69
 1389              	.L68:
 470:../../../FreeRTOS-Plus/Source/FreeRTOS-Plus-TCP/FreeRTOS_Sockets.c **** 
 471:../../../FreeRTOS-Plus/Source/FreeRTOS-Plus-TCP/FreeRTOS_Sockets.c **** 		/* Make sure we're not adding bits which are reserved for internal use,
 472:../../../FreeRTOS-Plus/Source/FreeRTOS-Plus-TCP/FreeRTOS_Sockets.c **** 		such as eSELECT_CALL_IP */
 473:../../../FreeRTOS-Plus/Source/FreeRTOS-Plus-TCP/FreeRTOS_Sockets.c **** 		pxSocket->xSelectBits |= ( xSelectBits & eSELECT_ALL );
 1390              		.loc 3 473 0
 1391 0048 FB69     		ldr	r3, [r7, #28]
 1392 004a DA6A     		ldr	r2, [r3, #44]
 1393 004c 7B68     		ldr	r3, [r7, #4]
 1394 004e 03F00F03 		and	r3, r3, #15
 1395 0052 1A43     		orrs	r2, r2, r3
 1396 0054 FB69     		ldr	r3, [r7, #28]
 1397 0056 DA62     		str	r2, [r3, #44]
 474:../../../FreeRTOS-Plus/Source/FreeRTOS-Plus-TCP/FreeRTOS_Sockets.c **** 
 475:../../../FreeRTOS-Plus/Source/FreeRTOS-Plus-TCP/FreeRTOS_Sockets.c **** 		if( ( pxSocket->xSelectBits & eSELECT_ALL ) != 0 )
 1398              		.loc 3 475 0
 1399 0058 FB69     		ldr	r3, [r7, #28]
 1400 005a DB6A     		ldr	r3, [r3, #44]
 1401 005c 03F00F03 		and	r3, r3, #15
 1402 0060 002B     		cmp	r3, #0
 1403 0062 08D0     		beq	.L65
 476:../../../FreeRTOS-Plus/Source/FreeRTOS-Plus-TCP/FreeRTOS_Sockets.c **** 		{
 477:../../../FreeRTOS-Plus/Source/FreeRTOS-Plus-TCP/FreeRTOS_Sockets.c **** 			/* Adding a socket to a socket set. */
 478:../../../FreeRTOS-Plus/Source/FreeRTOS-Plus-TCP/FreeRTOS_Sockets.c **** 			pxSocket->pxSocketSet = ( SocketSelect_t * ) xSocketSet;
 1404              		.loc 3 478 0
 1405 0064 FB69     		ldr	r3, [r7, #28]
 1406 0066 BA68     		ldr	r2, [r7, #8]
 1407 0068 9A62     		str	r2, [r3, #40]
 479:../../../FreeRTOS-Plus/Source/FreeRTOS-Plus-TCP/FreeRTOS_Sockets.c **** 
 480:../../../FreeRTOS-Plus/Source/FreeRTOS-Plus-TCP/FreeRTOS_Sockets.c **** 			/* Now have the IP-task call vSocketSelect() to see if the set contains
 481:../../../FreeRTOS-Plus/Source/FreeRTOS-Plus-TCP/FreeRTOS_Sockets.c **** 			any sockets which are 'ready' and set the proper bits.
 482:../../../FreeRTOS-Plus/Source/FreeRTOS-Plus-TCP/FreeRTOS_Sockets.c **** 			By setting 'bApiCalled = false', vSocketSelect() knows that it was
 483:../../../FreeRTOS-Plus/Source/FreeRTOS-Plus-TCP/FreeRTOS_Sockets.c **** 			not called from a user API */
 484:../../../FreeRTOS-Plus/Source/FreeRTOS-Plus-TCP/FreeRTOS_Sockets.c **** 			pxSocketSet->bApiCalled = pdFALSE;
 1408              		.loc 3 484 0
 1409 006a BB69     		ldr	r3, [r7, #24]
 1410 006c 0022     		movs	r2, #0
 1411 006e 5A60     		str	r2, [r3, #4]
 485:../../../FreeRTOS-Plus/Source/FreeRTOS-Plus-TCP/FreeRTOS_Sockets.c **** 			prvFindSelectedSocket( pxSocketSet );
ARM GAS  /tmp/ccrA3BdH.s 			page 46


 1412              		.loc 3 485 0
 1413 0070 B869     		ldr	r0, [r7, #24]
 1414 0072 FFF7FEFF 		bl	prvFindSelectedSocket
 1415              	.L65:
 486:../../../FreeRTOS-Plus/Source/FreeRTOS-Plus-TCP/FreeRTOS_Sockets.c **** 		}
 487:../../../FreeRTOS-Plus/Source/FreeRTOS-Plus-TCP/FreeRTOS_Sockets.c **** 	}
 1416              		.loc 3 487 0
 1417 0076 2037     		adds	r7, r7, #32
 1418              	.LCFI102:
 1419              		.cfi_def_cfa_offset 8
 1420 0078 BD46     		mov	sp, r7
 1421              	.LCFI103:
 1422              		.cfi_def_cfa_register 13
 1423              		@ sp needed
 1424 007a 80BD     		pop	{r7, pc}
 1425              		.cfi_endproc
 1426              	.LFE35:
 1428              		.section	.text.FreeRTOS_FD_CLR,"ax",%progbits
 1429              		.align	2
 1430              		.global	FreeRTOS_FD_CLR
 1431              		.thumb
 1432              		.thumb_func
 1434              	FreeRTOS_FD_CLR:
 1435              	.LFB36:
 488:../../../FreeRTOS-Plus/Source/FreeRTOS-Plus-TCP/FreeRTOS_Sockets.c **** 
 489:../../../FreeRTOS-Plus/Source/FreeRTOS-Plus-TCP/FreeRTOS_Sockets.c **** #endif /* ipconfigSUPPORT_SELECT_FUNCTION == 1 */
 490:../../../FreeRTOS-Plus/Source/FreeRTOS-Plus-TCP/FreeRTOS_Sockets.c **** /*-----------------------------------------------------------*/
 491:../../../FreeRTOS-Plus/Source/FreeRTOS-Plus-TCP/FreeRTOS_Sockets.c **** 
 492:../../../FreeRTOS-Plus/Source/FreeRTOS-Plus-TCP/FreeRTOS_Sockets.c **** #if( ipconfigSUPPORT_SELECT_FUNCTION == 1 )
 493:../../../FreeRTOS-Plus/Source/FreeRTOS-Plus-TCP/FreeRTOS_Sockets.c **** 	/* Clear select bits for a socket
 494:../../../FreeRTOS-Plus/Source/FreeRTOS-Plus-TCP/FreeRTOS_Sockets.c **** 	If the mask becomes 0, remove the socket from the set */
 495:../../../FreeRTOS-Plus/Source/FreeRTOS-Plus-TCP/FreeRTOS_Sockets.c **** 	void FreeRTOS_FD_CLR( Socket_t xSocket, SocketSet_t xSocketSet, EventBits_t xSelectBits )
 496:../../../FreeRTOS-Plus/Source/FreeRTOS-Plus-TCP/FreeRTOS_Sockets.c **** 	{
 1436              		.loc 3 496 0
 1437              		.cfi_startproc
 1438              		@ args = 0, pretend = 0, frame = 32
 1439              		@ frame_needed = 1, uses_anonymous_args = 0
 1440              		@ link register save eliminated.
 1441 0000 80B4     		push	{r7}
 1442              	.LCFI104:
 1443              		.cfi_def_cfa_offset 4
 1444              		.cfi_offset 7, -4
 1445 0002 89B0     		sub	sp, sp, #36
 1446              	.LCFI105:
 1447              		.cfi_def_cfa_offset 40
 1448 0004 00AF     		add	r7, sp, #0
 1449              	.LCFI106:
 1450              		.cfi_def_cfa_register 7
 1451 0006 F860     		str	r0, [r7, #12]
 1452 0008 B960     		str	r1, [r7, #8]
 1453 000a 7A60     		str	r2, [r7, #4]
 497:../../../FreeRTOS-Plus/Source/FreeRTOS-Plus-TCP/FreeRTOS_Sockets.c **** 	FreeRTOS_Socket_t *pxSocket = ( FreeRTOS_Socket_t * ) xSocket;
 1454              		.loc 3 497 0
 1455 000c FB68     		ldr	r3, [r7, #12]
 1456 000e FB61     		str	r3, [r7, #28]
 498:../../../FreeRTOS-Plus/Source/FreeRTOS-Plus-TCP/FreeRTOS_Sockets.c **** 
 499:../../../FreeRTOS-Plus/Source/FreeRTOS-Plus-TCP/FreeRTOS_Sockets.c **** 		configASSERT( pxSocket != NULL );
ARM GAS  /tmp/ccrA3BdH.s 			page 47


 1457              		.loc 3 499 0
 1458 0010 FB69     		ldr	r3, [r7, #28]
 1459 0012 002B     		cmp	r3, #0
 1460 0014 09D1     		bne	.L72
 1461              	.LBB53:
 1462              	.LBB54:
 1463              		.loc 4 237 0 discriminator 1
 1464              	@ 237 "../../../FreeRTOS_9_0/Source/portable/GCC/ARM_CM4F/portmacro.h" 1
 1465 0016 4FF05003 			mov r3, #80												
 1466 001a 83F31188 		msr basepri, r3											
 1467 001e BFF36F8F 		isb														
 1468 0022 BFF34F8F 		dsb														
 1469              	
 1470              	@ 0 "" 2
 1471              		.thumb
 1472 0026 BB61     		str	r3, [r7, #24]
 1473              	.L73:
 1474              	.LBE54:
 1475              	.LBE53:
 1476              		.loc 3 499 0 discriminator 1
 1477 0028 FEE7     		b	.L73
 1478              	.L72:
 500:../../../FreeRTOS-Plus/Source/FreeRTOS-Plus-TCP/FreeRTOS_Sockets.c **** 		configASSERT( xSocketSet != NULL );
 1479              		.loc 3 500 0
 1480 002a BB68     		ldr	r3, [r7, #8]
 1481 002c 002B     		cmp	r3, #0
 1482 002e 09D1     		bne	.L74
 1483              	.LBB55:
 1484              	.LBB56:
 1485              		.loc 4 237 0 discriminator 1
 1486              	@ 237 "../../../FreeRTOS_9_0/Source/portable/GCC/ARM_CM4F/portmacro.h" 1
 1487 0030 4FF05003 			mov r3, #80												
 1488 0034 83F31188 		msr basepri, r3											
 1489 0038 BFF36F8F 		isb														
 1490 003c BFF34F8F 		dsb														
 1491              	
 1492              	@ 0 "" 2
 1493              		.thumb
 1494 0040 7B61     		str	r3, [r7, #20]
 1495              	.L75:
 1496              	.LBE56:
 1497              	.LBE55:
 1498              		.loc 3 500 0 discriminator 2
 1499 0042 FEE7     		b	.L75
 1500              	.L74:
 501:../../../FreeRTOS-Plus/Source/FreeRTOS-Plus-TCP/FreeRTOS_Sockets.c **** 
 502:../../../FreeRTOS-Plus/Source/FreeRTOS-Plus-TCP/FreeRTOS_Sockets.c **** 		pxSocket->xSelectBits &= ~( xSelectBits & eSELECT_ALL );
 1501              		.loc 3 502 0
 1502 0044 FB69     		ldr	r3, [r7, #28]
 1503 0046 DA6A     		ldr	r2, [r3, #44]
 1504 0048 7B68     		ldr	r3, [r7, #4]
 1505 004a 03F00F03 		and	r3, r3, #15
 1506 004e DB43     		mvns	r3, r3
 1507 0050 1A40     		ands	r2, r2, r3
 1508 0052 FB69     		ldr	r3, [r7, #28]
 1509 0054 DA62     		str	r2, [r3, #44]
 503:../../../FreeRTOS-Plus/Source/FreeRTOS-Plus-TCP/FreeRTOS_Sockets.c **** 		if( ( pxSocket->xSelectBits & eSELECT_ALL ) != 0 )
ARM GAS  /tmp/ccrA3BdH.s 			page 48


 1510              		.loc 3 503 0
 1511 0056 FB69     		ldr	r3, [r7, #28]
 1512 0058 DB6A     		ldr	r3, [r3, #44]
 1513 005a 03F00F03 		and	r3, r3, #15
 1514 005e 002B     		cmp	r3, #0
 1515 0060 03D0     		beq	.L76
 504:../../../FreeRTOS-Plus/Source/FreeRTOS-Plus-TCP/FreeRTOS_Sockets.c **** 		{
 505:../../../FreeRTOS-Plus/Source/FreeRTOS-Plus-TCP/FreeRTOS_Sockets.c **** 			pxSocket->pxSocketSet = ( SocketSelect_t *)xSocketSet;
 1516              		.loc 3 505 0
 1517 0062 FB69     		ldr	r3, [r7, #28]
 1518 0064 BA68     		ldr	r2, [r7, #8]
 1519 0066 9A62     		str	r2, [r3, #40]
 1520 0068 02E0     		b	.L71
 1521              	.L76:
 506:../../../FreeRTOS-Plus/Source/FreeRTOS-Plus-TCP/FreeRTOS_Sockets.c **** 		}
 507:../../../FreeRTOS-Plus/Source/FreeRTOS-Plus-TCP/FreeRTOS_Sockets.c **** 		else
 508:../../../FreeRTOS-Plus/Source/FreeRTOS-Plus-TCP/FreeRTOS_Sockets.c **** 		{
 509:../../../FreeRTOS-Plus/Source/FreeRTOS-Plus-TCP/FreeRTOS_Sockets.c **** 			/* disconnect it from the socket set */
 510:../../../FreeRTOS-Plus/Source/FreeRTOS-Plus-TCP/FreeRTOS_Sockets.c **** 			pxSocket->pxSocketSet = ( SocketSelect_t *)NULL;
 1522              		.loc 3 510 0
 1523 006a FB69     		ldr	r3, [r7, #28]
 1524 006c 0022     		movs	r2, #0
 1525 006e 9A62     		str	r2, [r3, #40]
 1526              	.L71:
 511:../../../FreeRTOS-Plus/Source/FreeRTOS-Plus-TCP/FreeRTOS_Sockets.c **** 		}
 512:../../../FreeRTOS-Plus/Source/FreeRTOS-Plus-TCP/FreeRTOS_Sockets.c **** 	}
 1527              		.loc 3 512 0
 1528 0070 2437     		adds	r7, r7, #36
 1529              	.LCFI107:
 1530              		.cfi_def_cfa_offset 4
 1531 0072 BD46     		mov	sp, r7
 1532              	.LCFI108:
 1533              		.cfi_def_cfa_register 13
 1534              		@ sp needed
 1535 0074 5DF8047B 		ldr	r7, [sp], #4
 1536              	.LCFI109:
 1537              		.cfi_restore 7
 1538              		.cfi_def_cfa_offset 0
 1539 0078 7047     		bx	lr
 1540              		.cfi_endproc
 1541              	.LFE36:
 1543 007a 00BF     		.section	.text.FreeRTOS_FD_ISSET,"ax",%progbits
 1544              		.align	2
 1545              		.global	FreeRTOS_FD_ISSET
 1546              		.thumb
 1547              		.thumb_func
 1549              	FreeRTOS_FD_ISSET:
 1550              	.LFB37:
 513:../../../FreeRTOS-Plus/Source/FreeRTOS-Plus-TCP/FreeRTOS_Sockets.c **** 
 514:../../../FreeRTOS-Plus/Source/FreeRTOS-Plus-TCP/FreeRTOS_Sockets.c **** #endif /* ipconfigSUPPORT_SELECT_FUNCTION == 1 */
 515:../../../FreeRTOS-Plus/Source/FreeRTOS-Plus-TCP/FreeRTOS_Sockets.c **** /*-----------------------------------------------------------*/
 516:../../../FreeRTOS-Plus/Source/FreeRTOS-Plus-TCP/FreeRTOS_Sockets.c **** 
 517:../../../FreeRTOS-Plus/Source/FreeRTOS-Plus-TCP/FreeRTOS_Sockets.c **** 
 518:../../../FreeRTOS-Plus/Source/FreeRTOS-Plus-TCP/FreeRTOS_Sockets.c **** #if( ipconfigSUPPORT_SELECT_FUNCTION == 1 )
 519:../../../FreeRTOS-Plus/Source/FreeRTOS-Plus-TCP/FreeRTOS_Sockets.c **** 
 520:../../../FreeRTOS-Plus/Source/FreeRTOS-Plus-TCP/FreeRTOS_Sockets.c **** 	/* Test if a socket belongs to a socket-set */
 521:../../../FreeRTOS-Plus/Source/FreeRTOS-Plus-TCP/FreeRTOS_Sockets.c **** 	EventBits_t FreeRTOS_FD_ISSET( Socket_t xSocket, SocketSet_t xSocketSet )
ARM GAS  /tmp/ccrA3BdH.s 			page 49


 522:../../../FreeRTOS-Plus/Source/FreeRTOS-Plus-TCP/FreeRTOS_Sockets.c **** 	{
 1551              		.loc 3 522 0
 1552              		.cfi_startproc
 1553              		@ args = 0, pretend = 0, frame = 24
 1554              		@ frame_needed = 1, uses_anonymous_args = 0
 1555              		@ link register save eliminated.
 1556 0000 80B4     		push	{r7}
 1557              	.LCFI110:
 1558              		.cfi_def_cfa_offset 4
 1559              		.cfi_offset 7, -4
 1560 0002 87B0     		sub	sp, sp, #28
 1561              	.LCFI111:
 1562              		.cfi_def_cfa_offset 32
 1563 0004 00AF     		add	r7, sp, #0
 1564              	.LCFI112:
 1565              		.cfi_def_cfa_register 7
 1566 0006 7860     		str	r0, [r7, #4]
 1567 0008 3960     		str	r1, [r7]
 523:../../../FreeRTOS-Plus/Source/FreeRTOS-Plus-TCP/FreeRTOS_Sockets.c **** 	EventBits_t xReturn;
 524:../../../FreeRTOS-Plus/Source/FreeRTOS-Plus-TCP/FreeRTOS_Sockets.c **** 	FreeRTOS_Socket_t *pxSocket = ( FreeRTOS_Socket_t * ) xSocket;
 1568              		.loc 3 524 0
 1569 000a 7B68     		ldr	r3, [r7, #4]
 1570 000c 3B61     		str	r3, [r7, #16]
 525:../../../FreeRTOS-Plus/Source/FreeRTOS-Plus-TCP/FreeRTOS_Sockets.c **** 
 526:../../../FreeRTOS-Plus/Source/FreeRTOS-Plus-TCP/FreeRTOS_Sockets.c **** 		configASSERT( pxSocket != NULL );
 1571              		.loc 3 526 0
 1572 000e 3B69     		ldr	r3, [r7, #16]
 1573 0010 002B     		cmp	r3, #0
 1574 0012 09D1     		bne	.L79
 1575              	.LBB57:
 1576              	.LBB58:
 1577              		.loc 4 237 0 discriminator 1
 1578              	@ 237 "../../../FreeRTOS_9_0/Source/portable/GCC/ARM_CM4F/portmacro.h" 1
 1579 0014 4FF05003 			mov r3, #80												
 1580 0018 83F31188 		msr basepri, r3											
 1581 001c BFF36F8F 		isb														
 1582 0020 BFF34F8F 		dsb														
 1583              	
 1584              	@ 0 "" 2
 1585              		.thumb
 1586 0024 FB60     		str	r3, [r7, #12]
 1587              	.L80:
 1588              	.LBE58:
 1589              	.LBE57:
 1590              		.loc 3 526 0 discriminator 1
 1591 0026 FEE7     		b	.L80
 1592              	.L79:
 527:../../../FreeRTOS-Plus/Source/FreeRTOS-Plus-TCP/FreeRTOS_Sockets.c **** 		configASSERT( xSocketSet != NULL );
 1593              		.loc 3 527 0
 1594 0028 3B68     		ldr	r3, [r7]
 1595 002a 002B     		cmp	r3, #0
 1596 002c 09D1     		bne	.L81
 1597              	.LBB59:
 1598              	.LBB60:
 1599              		.loc 4 237 0 discriminator 1
 1600              	@ 237 "../../../FreeRTOS_9_0/Source/portable/GCC/ARM_CM4F/portmacro.h" 1
 1601 002e 4FF05003 			mov r3, #80												
ARM GAS  /tmp/ccrA3BdH.s 			page 50


 1602 0032 83F31188 		msr basepri, r3											
 1603 0036 BFF36F8F 		isb														
 1604 003a BFF34F8F 		dsb														
 1605              	
 1606              	@ 0 "" 2
 1607              		.thumb
 1608 003e BB60     		str	r3, [r7, #8]
 1609              	.L82:
 1610              	.LBE60:
 1611              	.LBE59:
 1612              		.loc 3 527 0 discriminator 2
 1613 0040 FEE7     		b	.L82
 1614              	.L81:
 528:../../../FreeRTOS-Plus/Source/FreeRTOS-Plus-TCP/FreeRTOS_Sockets.c **** 
 529:../../../FreeRTOS-Plus/Source/FreeRTOS-Plus-TCP/FreeRTOS_Sockets.c **** 		if( xSocketSet == ( SocketSet_t ) pxSocket->pxSocketSet )
 1615              		.loc 3 529 0
 1616 0042 3B69     		ldr	r3, [r7, #16]
 1617 0044 9A6A     		ldr	r2, [r3, #40]
 1618 0046 3B68     		ldr	r3, [r7]
 1619 0048 9A42     		cmp	r2, r3
 1620 004a 05D1     		bne	.L83
 530:../../../FreeRTOS-Plus/Source/FreeRTOS-Plus-TCP/FreeRTOS_Sockets.c **** 		{
 531:../../../FreeRTOS-Plus/Source/FreeRTOS-Plus-TCP/FreeRTOS_Sockets.c **** 			/* Make sure we're not adding bits which are reserved for internal
 532:../../../FreeRTOS-Plus/Source/FreeRTOS-Plus-TCP/FreeRTOS_Sockets.c **** 			use. */
 533:../../../FreeRTOS-Plus/Source/FreeRTOS-Plus-TCP/FreeRTOS_Sockets.c **** 			xReturn = pxSocket->xSocketBits & eSELECT_ALL;
 1621              		.loc 3 533 0
 1622 004c 3B69     		ldr	r3, [r7, #16]
 1623 004e 1B6B     		ldr	r3, [r3, #48]
 1624 0050 03F00F03 		and	r3, r3, #15
 1625 0054 7B61     		str	r3, [r7, #20]
 1626 0056 01E0     		b	.L84
 1627              	.L83:
 534:../../../FreeRTOS-Plus/Source/FreeRTOS-Plus-TCP/FreeRTOS_Sockets.c **** 		}
 535:../../../FreeRTOS-Plus/Source/FreeRTOS-Plus-TCP/FreeRTOS_Sockets.c **** 		else
 536:../../../FreeRTOS-Plus/Source/FreeRTOS-Plus-TCP/FreeRTOS_Sockets.c **** 		{
 537:../../../FreeRTOS-Plus/Source/FreeRTOS-Plus-TCP/FreeRTOS_Sockets.c **** 			xReturn = 0;
 1628              		.loc 3 537 0
 1629 0058 0023     		movs	r3, #0
 1630 005a 7B61     		str	r3, [r7, #20]
 1631              	.L84:
 538:../../../FreeRTOS-Plus/Source/FreeRTOS-Plus-TCP/FreeRTOS_Sockets.c **** 		}
 539:../../../FreeRTOS-Plus/Source/FreeRTOS-Plus-TCP/FreeRTOS_Sockets.c **** 
 540:../../../FreeRTOS-Plus/Source/FreeRTOS-Plus-TCP/FreeRTOS_Sockets.c **** 		return xReturn;
 1632              		.loc 3 540 0
 1633 005c 7B69     		ldr	r3, [r7, #20]
 541:../../../FreeRTOS-Plus/Source/FreeRTOS-Plus-TCP/FreeRTOS_Sockets.c **** 	}
 1634              		.loc 3 541 0
 1635 005e 1846     		mov	r0, r3
 1636 0060 1C37     		adds	r7, r7, #28
 1637              	.LCFI113:
 1638              		.cfi_def_cfa_offset 4
 1639 0062 BD46     		mov	sp, r7
 1640              	.LCFI114:
 1641              		.cfi_def_cfa_register 13
 1642              		@ sp needed
 1643 0064 5DF8047B 		ldr	r7, [sp], #4
 1644              	.LCFI115:
ARM GAS  /tmp/ccrA3BdH.s 			page 51


 1645              		.cfi_restore 7
 1646              		.cfi_def_cfa_offset 0
 1647 0068 7047     		bx	lr
 1648              		.cfi_endproc
 1649              	.LFE37:
 1651 006a 00BF     		.section	.text.FreeRTOS_select,"ax",%progbits
 1652              		.align	2
 1653              		.global	FreeRTOS_select
 1654              		.thumb
 1655              		.thumb_func
 1657              	FreeRTOS_select:
 1658              	.LFB38:
 542:../../../FreeRTOS-Plus/Source/FreeRTOS-Plus-TCP/FreeRTOS_Sockets.c **** 
 543:../../../FreeRTOS-Plus/Source/FreeRTOS-Plus-TCP/FreeRTOS_Sockets.c **** #endif /* ipconfigSUPPORT_SELECT_FUNCTION == 1 */
 544:../../../FreeRTOS-Plus/Source/FreeRTOS-Plus-TCP/FreeRTOS_Sockets.c **** /*-----------------------------------------------------------*/
 545:../../../FreeRTOS-Plus/Source/FreeRTOS-Plus-TCP/FreeRTOS_Sockets.c **** 
 546:../../../FreeRTOS-Plus/Source/FreeRTOS-Plus-TCP/FreeRTOS_Sockets.c **** #if( ipconfigSUPPORT_SELECT_FUNCTION == 1 )
 547:../../../FreeRTOS-Plus/Source/FreeRTOS-Plus-TCP/FreeRTOS_Sockets.c **** 
 548:../../../FreeRTOS-Plus/Source/FreeRTOS-Plus-TCP/FreeRTOS_Sockets.c **** 	/* The select() statement: wait for an event to occur on any of the sockets
 549:../../../FreeRTOS-Plus/Source/FreeRTOS-Plus-TCP/FreeRTOS_Sockets.c **** 	included in a socket set */
 550:../../../FreeRTOS-Plus/Source/FreeRTOS-Plus-TCP/FreeRTOS_Sockets.c **** 	BaseType_t FreeRTOS_select( SocketSet_t xSocketSet, TickType_t xBlockTimeTicks )
 551:../../../FreeRTOS-Plus/Source/FreeRTOS-Plus-TCP/FreeRTOS_Sockets.c **** 	{
 1659              		.loc 3 551 0
 1660              		.cfi_startproc
 1661              		@ args = 0, pretend = 0, frame = 32
 1662              		@ frame_needed = 1, uses_anonymous_args = 0
 1663 0000 80B5     		push	{r7, lr}
 1664              	.LCFI116:
 1665              		.cfi_def_cfa_offset 8
 1666              		.cfi_offset 7, -8
 1667              		.cfi_offset 14, -4
 1668 0002 8AB0     		sub	sp, sp, #40
 1669              	.LCFI117:
 1670              		.cfi_def_cfa_offset 48
 1671 0004 02AF     		add	r7, sp, #8
 1672              	.LCFI118:
 1673              		.cfi_def_cfa 7, 40
 1674 0006 7860     		str	r0, [r7, #4]
 1675 0008 3960     		str	r1, [r7]
 552:../../../FreeRTOS-Plus/Source/FreeRTOS-Plus-TCP/FreeRTOS_Sockets.c **** 	TimeOut_t xTimeOut;
 553:../../../FreeRTOS-Plus/Source/FreeRTOS-Plus-TCP/FreeRTOS_Sockets.c **** 	TickType_t xRemainingTime;
 554:../../../FreeRTOS-Plus/Source/FreeRTOS-Plus-TCP/FreeRTOS_Sockets.c **** 	SocketSelect_t *pxSocketSet = ( SocketSelect_t*) xSocketSet;
 1676              		.loc 3 554 0
 1677 000a 7B68     		ldr	r3, [r7, #4]
 1678 000c BB61     		str	r3, [r7, #24]
 555:../../../FreeRTOS-Plus/Source/FreeRTOS-Plus-TCP/FreeRTOS_Sockets.c **** 	BaseType_t xResult;
 556:../../../FreeRTOS-Plus/Source/FreeRTOS-Plus-TCP/FreeRTOS_Sockets.c **** 
 557:../../../FreeRTOS-Plus/Source/FreeRTOS-Plus-TCP/FreeRTOS_Sockets.c **** 		configASSERT( xSocketSet != NULL );
 1679              		.loc 3 557 0
 1680 000e 7B68     		ldr	r3, [r7, #4]
 1681 0010 002B     		cmp	r3, #0
 1682 0012 09D1     		bne	.L87
 1683              	.LBB61:
 1684              	.LBB62:
 1685              		.loc 4 237 0 discriminator 1
 1686              	@ 237 "../../../FreeRTOS_9_0/Source/portable/GCC/ARM_CM4F/portmacro.h" 1
 1687 0014 4FF05003 			mov r3, #80												
ARM GAS  /tmp/ccrA3BdH.s 			page 52


 1688 0018 83F31188 		msr basepri, r3											
 1689 001c BFF36F8F 		isb														
 1690 0020 BFF34F8F 		dsb														
 1691              	
 1692              	@ 0 "" 2
 1693              		.thumb
 1694 0024 7B61     		str	r3, [r7, #20]
 1695              	.L88:
 1696              	.LBE62:
 1697              	.LBE61:
 1698              		.loc 3 557 0 discriminator 1
 1699 0026 FEE7     		b	.L88
 1700              	.L87:
 558:../../../FreeRTOS-Plus/Source/FreeRTOS-Plus-TCP/FreeRTOS_Sockets.c **** 
 559:../../../FreeRTOS-Plus/Source/FreeRTOS-Plus-TCP/FreeRTOS_Sockets.c **** 		/* Only in the first round, check for non-blocking */
 560:../../../FreeRTOS-Plus/Source/FreeRTOS-Plus-TCP/FreeRTOS_Sockets.c **** 		xRemainingTime = xBlockTimeTicks;
 1701              		.loc 3 560 0
 1702 0028 3B68     		ldr	r3, [r7]
 1703 002a BB60     		str	r3, [r7, #8]
 561:../../../FreeRTOS-Plus/Source/FreeRTOS-Plus-TCP/FreeRTOS_Sockets.c **** 
 562:../../../FreeRTOS-Plus/Source/FreeRTOS-Plus-TCP/FreeRTOS_Sockets.c **** 		/* Fetch the current time */
 563:../../../FreeRTOS-Plus/Source/FreeRTOS-Plus-TCP/FreeRTOS_Sockets.c **** 		vTaskSetTimeOutState( &xTimeOut );
 1704              		.loc 3 563 0
 1705 002c 07F10C03 		add	r3, r7, #12
 1706 0030 1846     		mov	r0, r3
 1707 0032 FFF7FEFF 		bl	vTaskSetTimeOutState
 1708              	.L93:
 564:../../../FreeRTOS-Plus/Source/FreeRTOS-Plus-TCP/FreeRTOS_Sockets.c **** 
 565:../../../FreeRTOS-Plus/Source/FreeRTOS-Plus-TCP/FreeRTOS_Sockets.c **** 		for( ;; )
 566:../../../FreeRTOS-Plus/Source/FreeRTOS-Plus-TCP/FreeRTOS_Sockets.c **** 		{
 567:../../../FreeRTOS-Plus/Source/FreeRTOS-Plus-TCP/FreeRTOS_Sockets.c **** 			/* Find a socket which might have triggered the bit
 568:../../../FreeRTOS-Plus/Source/FreeRTOS-Plus-TCP/FreeRTOS_Sockets.c **** 			This function might return immediately or block for a limited time */
 569:../../../FreeRTOS-Plus/Source/FreeRTOS-Plus-TCP/FreeRTOS_Sockets.c **** 			xResult = ( BaseType_t ) xEventGroupWaitBits( pxSocketSet->xSelectGroup, eSELECT_ALL, pdFALSE, p
 1709              		.loc 3 569 0
 1710 0036 BB69     		ldr	r3, [r7, #24]
 1711 0038 1A68     		ldr	r2, [r3]
 1712 003a BB68     		ldr	r3, [r7, #8]
 1713 003c 0093     		str	r3, [sp]
 1714 003e 1046     		mov	r0, r2
 1715 0040 0F21     		movs	r1, #15
 1716 0042 0022     		movs	r2, #0
 1717 0044 0023     		movs	r3, #0
 1718 0046 FFF7FEFF 		bl	xEventGroupWaitBits
 1719 004a 0346     		mov	r3, r0
 1720 004c FB61     		str	r3, [r7, #28]
 570:../../../FreeRTOS-Plus/Source/FreeRTOS-Plus-TCP/FreeRTOS_Sockets.c **** 
 571:../../../FreeRTOS-Plus/Source/FreeRTOS-Plus-TCP/FreeRTOS_Sockets.c **** 			#if( ipconfigSUPPORT_SIGNALS != 0 )
 572:../../../FreeRTOS-Plus/Source/FreeRTOS-Plus-TCP/FreeRTOS_Sockets.c **** 			{
 573:../../../FreeRTOS-Plus/Source/FreeRTOS-Plus-TCP/FreeRTOS_Sockets.c **** 				if( ( xResult & eSELECT_INTR ) != 0u )
 1721              		.loc 3 573 0
 1722 004e FB69     		ldr	r3, [r7, #28]
 1723 0050 03F00803 		and	r3, r3, #8
 1724 0054 002B     		cmp	r3, #0
 1725 0056 06D0     		beq	.L89
 574:../../../FreeRTOS-Plus/Source/FreeRTOS-Plus-TCP/FreeRTOS_Sockets.c **** 				{
 575:../../../FreeRTOS-Plus/Source/FreeRTOS-Plus-TCP/FreeRTOS_Sockets.c **** 					xEventGroupClearBits( pxSocketSet->xSelectGroup, eSELECT_INTR );
 1726              		.loc 3 575 0
ARM GAS  /tmp/ccrA3BdH.s 			page 53


 1727 0058 BB69     		ldr	r3, [r7, #24]
 1728 005a 1B68     		ldr	r3, [r3]
 1729 005c 1846     		mov	r0, r3
 1730 005e 0821     		movs	r1, #8
 1731 0060 FFF7FEFF 		bl	xEventGroupClearBits
 576:../../../FreeRTOS-Plus/Source/FreeRTOS-Plus-TCP/FreeRTOS_Sockets.c **** 					FreeRTOS_debug_printf( ( "FreeRTOS_select: interrupted\n" ) );
 577:../../../FreeRTOS-Plus/Source/FreeRTOS-Plus-TCP/FreeRTOS_Sockets.c **** 					break;
 1732              		.loc 3 577 0
 1733 0064 1EE0     		b	.L90
 1734              	.L89:
 578:../../../FreeRTOS-Plus/Source/FreeRTOS-Plus-TCP/FreeRTOS_Sockets.c **** 				}
 579:../../../FreeRTOS-Plus/Source/FreeRTOS-Plus-TCP/FreeRTOS_Sockets.c **** 			}
 580:../../../FreeRTOS-Plus/Source/FreeRTOS-Plus-TCP/FreeRTOS_Sockets.c **** 			#endif /* ipconfigSUPPORT_SIGNALS */
 581:../../../FreeRTOS-Plus/Source/FreeRTOS-Plus-TCP/FreeRTOS_Sockets.c **** 
 582:../../../FreeRTOS-Plus/Source/FreeRTOS-Plus-TCP/FreeRTOS_Sockets.c **** 			/* Have the IP-task find the socket which had an event */
 583:../../../FreeRTOS-Plus/Source/FreeRTOS-Plus-TCP/FreeRTOS_Sockets.c **** 			pxSocketSet->bApiCalled = pdTRUE;
 1735              		.loc 3 583 0
 1736 0066 BB69     		ldr	r3, [r7, #24]
 1737 0068 0122     		movs	r2, #1
 1738 006a 5A60     		str	r2, [r3, #4]
 584:../../../FreeRTOS-Plus/Source/FreeRTOS-Plus-TCP/FreeRTOS_Sockets.c **** 			prvFindSelectedSocket( pxSocketSet );
 1739              		.loc 3 584 0
 1740 006c B869     		ldr	r0, [r7, #24]
 1741 006e FFF7FEFF 		bl	prvFindSelectedSocket
 585:../../../FreeRTOS-Plus/Source/FreeRTOS-Plus-TCP/FreeRTOS_Sockets.c **** 
 586:../../../FreeRTOS-Plus/Source/FreeRTOS-Plus-TCP/FreeRTOS_Sockets.c **** 			xResult = ( BaseType_t ) xEventGroupGetBits( pxSocketSet->xSelectGroup );
 1742              		.loc 3 586 0
 1743 0072 BB69     		ldr	r3, [r7, #24]
 1744 0074 1B68     		ldr	r3, [r3]
 1745 0076 1846     		mov	r0, r3
 1746 0078 0021     		movs	r1, #0
 1747 007a FFF7FEFF 		bl	xEventGroupClearBits
 1748 007e 0346     		mov	r3, r0
 1749 0080 FB61     		str	r3, [r7, #28]
 587:../../../FreeRTOS-Plus/Source/FreeRTOS-Plus-TCP/FreeRTOS_Sockets.c **** 
 588:../../../FreeRTOS-Plus/Source/FreeRTOS-Plus-TCP/FreeRTOS_Sockets.c **** 			if( xResult != 0 )
 1750              		.loc 3 588 0
 1751 0082 FB69     		ldr	r3, [r7, #28]
 1752 0084 002B     		cmp	r3, #0
 1753 0086 00D0     		beq	.L91
 589:../../../FreeRTOS-Plus/Source/FreeRTOS-Plus-TCP/FreeRTOS_Sockets.c **** 			{
 590:../../../FreeRTOS-Plus/Source/FreeRTOS-Plus-TCP/FreeRTOS_Sockets.c **** 				break;
 1754              		.loc 3 590 0
 1755 0088 0CE0     		b	.L90
 1756              	.L91:
 591:../../../FreeRTOS-Plus/Source/FreeRTOS-Plus-TCP/FreeRTOS_Sockets.c **** 			}
 592:../../../FreeRTOS-Plus/Source/FreeRTOS-Plus-TCP/FreeRTOS_Sockets.c **** 
 593:../../../FreeRTOS-Plus/Source/FreeRTOS-Plus-TCP/FreeRTOS_Sockets.c **** 			/* Has the timeout been reached? */
 594:../../../FreeRTOS-Plus/Source/FreeRTOS-Plus-TCP/FreeRTOS_Sockets.c **** 			if( xTaskCheckForTimeOut( &xTimeOut, &xRemainingTime ) != pdFALSE )
 1757              		.loc 3 594 0
 1758 008a 07F10C02 		add	r2, r7, #12
 1759 008e 07F10803 		add	r3, r7, #8
 1760 0092 1046     		mov	r0, r2
 1761 0094 1946     		mov	r1, r3
 1762 0096 FFF7FEFF 		bl	xTaskCheckForTimeOut
 1763 009a 0346     		mov	r3, r0
 1764 009c 002B     		cmp	r3, #0
ARM GAS  /tmp/ccrA3BdH.s 			page 54


 1765 009e 00D0     		beq	.L92
 595:../../../FreeRTOS-Plus/Source/FreeRTOS-Plus-TCP/FreeRTOS_Sockets.c **** 			{
 596:../../../FreeRTOS-Plus/Source/FreeRTOS-Plus-TCP/FreeRTOS_Sockets.c **** 				break;
 1766              		.loc 3 596 0
 1767 00a0 00E0     		b	.L90
 1768              	.L92:
 597:../../../FreeRTOS-Plus/Source/FreeRTOS-Plus-TCP/FreeRTOS_Sockets.c **** 			}
 598:../../../FreeRTOS-Plus/Source/FreeRTOS-Plus-TCP/FreeRTOS_Sockets.c **** 		}
 1769              		.loc 3 598 0
 1770 00a2 C8E7     		b	.L93
 1771              	.L90:
 599:../../../FreeRTOS-Plus/Source/FreeRTOS-Plus-TCP/FreeRTOS_Sockets.c **** 
 600:../../../FreeRTOS-Plus/Source/FreeRTOS-Plus-TCP/FreeRTOS_Sockets.c **** 		return xResult;
 1772              		.loc 3 600 0
 1773 00a4 FB69     		ldr	r3, [r7, #28]
 601:../../../FreeRTOS-Plus/Source/FreeRTOS-Plus-TCP/FreeRTOS_Sockets.c **** 	}
 1774              		.loc 3 601 0
 1775 00a6 1846     		mov	r0, r3
 1776 00a8 2037     		adds	r7, r7, #32
 1777              	.LCFI119:
 1778              		.cfi_def_cfa_offset 8
 1779 00aa BD46     		mov	sp, r7
 1780              	.LCFI120:
 1781              		.cfi_def_cfa_register 13
 1782              		@ sp needed
 1783 00ac 80BD     		pop	{r7, pc}
 1784              		.cfi_endproc
 1785              	.LFE38:
 1787 00ae 00BF     		.section	.text.prvFindSelectedSocket,"ax",%progbits
 1788              		.align	2
 1789              		.thumb
 1790              		.thumb_func
 1792              	prvFindSelectedSocket:
 1793              	.LFB39:
 602:../../../FreeRTOS-Plus/Source/FreeRTOS-Plus-TCP/FreeRTOS_Sockets.c **** 
 603:../../../FreeRTOS-Plus/Source/FreeRTOS-Plus-TCP/FreeRTOS_Sockets.c **** #endif /* ipconfigSUPPORT_SELECT_FUNCTION */
 604:../../../FreeRTOS-Plus/Source/FreeRTOS-Plus-TCP/FreeRTOS_Sockets.c **** /*-----------------------------------------------------------*/
 605:../../../FreeRTOS-Plus/Source/FreeRTOS-Plus-TCP/FreeRTOS_Sockets.c **** 
 606:../../../FreeRTOS-Plus/Source/FreeRTOS-Plus-TCP/FreeRTOS_Sockets.c **** #if( ipconfigSUPPORT_SELECT_FUNCTION == 1 )
 607:../../../FreeRTOS-Plus/Source/FreeRTOS-Plus-TCP/FreeRTOS_Sockets.c **** 
 608:../../../FreeRTOS-Plus/Source/FreeRTOS-Plus-TCP/FreeRTOS_Sockets.c **** 	/* Send a message to the IP-task to have it check all sockets belonging to
 609:../../../FreeRTOS-Plus/Source/FreeRTOS-Plus-TCP/FreeRTOS_Sockets.c **** 	'pxSocketSet' */
 610:../../../FreeRTOS-Plus/Source/FreeRTOS-Plus-TCP/FreeRTOS_Sockets.c **** 	static FreeRTOS_Socket_t *prvFindSelectedSocket( SocketSelect_t *pxSocketSet )
 611:../../../FreeRTOS-Plus/Source/FreeRTOS-Plus-TCP/FreeRTOS_Sockets.c **** 	{
 1794              		.loc 3 611 0
 1795              		.cfi_startproc
 1796              		@ args = 0, pretend = 0, frame = 24
 1797              		@ frame_needed = 1, uses_anonymous_args = 0
 1798 0000 80B5     		push	{r7, lr}
 1799              	.LCFI121:
 1800              		.cfi_def_cfa_offset 8
 1801              		.cfi_offset 7, -8
 1802              		.cfi_offset 14, -4
 1803 0002 88B0     		sub	sp, sp, #32
 1804              	.LCFI122:
 1805              		.cfi_def_cfa_offset 40
 1806 0004 02AF     		add	r7, sp, #8
ARM GAS  /tmp/ccrA3BdH.s 			page 55


 1807              	.LCFI123:
 1808              		.cfi_def_cfa 7, 32
 1809 0006 7860     		str	r0, [r7, #4]
 612:../../../FreeRTOS-Plus/Source/FreeRTOS-Plus-TCP/FreeRTOS_Sockets.c **** 	IPStackEvent_t xSelectEvent;
 613:../../../FreeRTOS-Plus/Source/FreeRTOS-Plus-TCP/FreeRTOS_Sockets.c **** 	FreeRTOS_Socket_t *xReturn;
 614:../../../FreeRTOS-Plus/Source/FreeRTOS-Plus-TCP/FreeRTOS_Sockets.c **** 
 615:../../../FreeRTOS-Plus/Source/FreeRTOS-Plus-TCP/FreeRTOS_Sockets.c **** 		xSelectEvent.eEventType = eSocketSelectEvent;
 1810              		.loc 3 615 0
 1811 0008 0A23     		movs	r3, #10
 1812 000a 3B73     		strb	r3, [r7, #12]
 616:../../../FreeRTOS-Plus/Source/FreeRTOS-Plus-TCP/FreeRTOS_Sockets.c **** 		xSelectEvent.pvData = ( void * ) pxSocketSet;
 1813              		.loc 3 616 0
 1814 000c 7B68     		ldr	r3, [r7, #4]
 1815 000e 3B61     		str	r3, [r7, #16]
 617:../../../FreeRTOS-Plus/Source/FreeRTOS-Plus-TCP/FreeRTOS_Sockets.c **** 
 618:../../../FreeRTOS-Plus/Source/FreeRTOS-Plus-TCP/FreeRTOS_Sockets.c **** 		/* while the IP-task works on the request, the API will block on
 619:../../../FreeRTOS-Plus/Source/FreeRTOS-Plus-TCP/FreeRTOS_Sockets.c **** 		'eSELECT_CALL_IP'.  So clear it first. */
 620:../../../FreeRTOS-Plus/Source/FreeRTOS-Plus-TCP/FreeRTOS_Sockets.c **** 		xEventGroupClearBits( pxSocketSet->xSelectGroup, eSELECT_CALL_IP );
 1816              		.loc 3 620 0
 1817 0010 7B68     		ldr	r3, [r7, #4]
 1818 0012 1B68     		ldr	r3, [r3]
 1819 0014 1846     		mov	r0, r3
 1820 0016 1021     		movs	r1, #16
 1821 0018 FFF7FEFF 		bl	xEventGroupClearBits
 621:../../../FreeRTOS-Plus/Source/FreeRTOS-Plus-TCP/FreeRTOS_Sockets.c **** 
 622:../../../FreeRTOS-Plus/Source/FreeRTOS-Plus-TCP/FreeRTOS_Sockets.c **** 		/* Now send the socket select event */
 623:../../../FreeRTOS-Plus/Source/FreeRTOS-Plus-TCP/FreeRTOS_Sockets.c **** 		if( xSendEventStructToIPTask( &xSelectEvent, ( TickType_t ) portMAX_DELAY ) == pdFAIL )
 1822              		.loc 3 623 0
 1823 001c 07F10C03 		add	r3, r7, #12
 1824 0020 1846     		mov	r0, r3
 1825 0022 4FF0FF31 		mov	r1, #-1
 1826 0026 FFF7FEFF 		bl	xSendEventStructToIPTask
 1827 002a 0346     		mov	r3, r0
 1828 002c 002B     		cmp	r3, #0
 1829 002e 02D1     		bne	.L96
 624:../../../FreeRTOS-Plus/Source/FreeRTOS-Plus-TCP/FreeRTOS_Sockets.c **** 		{
 625:../../../FreeRTOS-Plus/Source/FreeRTOS-Plus-TCP/FreeRTOS_Sockets.c **** 			/* Oops, we failed to wake-up the IP task. No use to wait for it. */
 626:../../../FreeRTOS-Plus/Source/FreeRTOS-Plus-TCP/FreeRTOS_Sockets.c **** 			FreeRTOS_debug_printf( ( "prvFindSelectedSocket: failed\n" ) );
 627:../../../FreeRTOS-Plus/Source/FreeRTOS-Plus-TCP/FreeRTOS_Sockets.c **** 			xReturn = NULL;
 1830              		.loc 3 627 0
 1831 0030 0023     		movs	r3, #0
 1832 0032 7B61     		str	r3, [r7, #20]
 1833 0034 0DE0     		b	.L97
 1834              	.L96:
 628:../../../FreeRTOS-Plus/Source/FreeRTOS-Plus-TCP/FreeRTOS_Sockets.c **** 		}
 629:../../../FreeRTOS-Plus/Source/FreeRTOS-Plus-TCP/FreeRTOS_Sockets.c **** 		else
 630:../../../FreeRTOS-Plus/Source/FreeRTOS-Plus-TCP/FreeRTOS_Sockets.c **** 		{
 631:../../../FreeRTOS-Plus/Source/FreeRTOS-Plus-TCP/FreeRTOS_Sockets.c **** 			/* As soon as the IP-task is ready, it will set 'eSELECT_CALL_IP' to
 632:../../../FreeRTOS-Plus/Source/FreeRTOS-Plus-TCP/FreeRTOS_Sockets.c **** 			wakeup the calling API */
 633:../../../FreeRTOS-Plus/Source/FreeRTOS-Plus-TCP/FreeRTOS_Sockets.c **** 			xEventGroupWaitBits( pxSocketSet->xSelectGroup, eSELECT_CALL_IP, pdTRUE, pdFALSE, portMAX_DELAY 
 1835              		.loc 3 633 0
 1836 0036 7B68     		ldr	r3, [r7, #4]
 1837 0038 1A68     		ldr	r2, [r3]
 1838 003a 4FF0FF33 		mov	r3, #-1
 1839 003e 0093     		str	r3, [sp]
 1840 0040 1046     		mov	r0, r2
 1841 0042 1021     		movs	r1, #16
ARM GAS  /tmp/ccrA3BdH.s 			page 56


 1842 0044 0122     		movs	r2, #1
 1843 0046 0023     		movs	r3, #0
 1844 0048 FFF7FEFF 		bl	xEventGroupWaitBits
 634:../../../FreeRTOS-Plus/Source/FreeRTOS-Plus-TCP/FreeRTOS_Sockets.c **** 
 635:../../../FreeRTOS-Plus/Source/FreeRTOS-Plus-TCP/FreeRTOS_Sockets.c **** 			/* Return 'pxSocket' which is set by the IP-task */
 636:../../../FreeRTOS-Plus/Source/FreeRTOS-Plus-TCP/FreeRTOS_Sockets.c **** 			xReturn = pxSocketSet->pxSocket;
 1845              		.loc 3 636 0
 1846 004c 7B68     		ldr	r3, [r7, #4]
 1847 004e 9B68     		ldr	r3, [r3, #8]
 1848 0050 7B61     		str	r3, [r7, #20]
 1849              	.L97:
 637:../../../FreeRTOS-Plus/Source/FreeRTOS-Plus-TCP/FreeRTOS_Sockets.c **** 		}
 638:../../../FreeRTOS-Plus/Source/FreeRTOS-Plus-TCP/FreeRTOS_Sockets.c **** 
 639:../../../FreeRTOS-Plus/Source/FreeRTOS-Plus-TCP/FreeRTOS_Sockets.c **** 		return xReturn;
 1850              		.loc 3 639 0
 1851 0052 7B69     		ldr	r3, [r7, #20]
 640:../../../FreeRTOS-Plus/Source/FreeRTOS-Plus-TCP/FreeRTOS_Sockets.c **** 	}
 1852              		.loc 3 640 0
 1853 0054 1846     		mov	r0, r3
 1854 0056 1837     		adds	r7, r7, #24
 1855              	.LCFI124:
 1856              		.cfi_def_cfa_offset 8
 1857 0058 BD46     		mov	sp, r7
 1858              	.LCFI125:
 1859              		.cfi_def_cfa_register 13
 1860              		@ sp needed
 1861 005a 80BD     		pop	{r7, pc}
 1862              		.cfi_endproc
 1863              	.LFE39:
 1865              		.section	.text.FreeRTOS_recvfrom,"ax",%progbits
 1866              		.align	2
 1867              		.global	FreeRTOS_recvfrom
 1868              		.thumb
 1869              		.thumb_func
 1871              	FreeRTOS_recvfrom:
 1872              	.LFB40:
 641:../../../FreeRTOS-Plus/Source/FreeRTOS-Plus-TCP/FreeRTOS_Sockets.c **** 
 642:../../../FreeRTOS-Plus/Source/FreeRTOS-Plus-TCP/FreeRTOS_Sockets.c **** #endif /* ipconfigSUPPORT_SELECT_FUNCTION == 1 */
 643:../../../FreeRTOS-Plus/Source/FreeRTOS-Plus-TCP/FreeRTOS_Sockets.c **** /*-----------------------------------------------------------*/
 644:../../../FreeRTOS-Plus/Source/FreeRTOS-Plus-TCP/FreeRTOS_Sockets.c **** 
 645:../../../FreeRTOS-Plus/Source/FreeRTOS-Plus-TCP/FreeRTOS_Sockets.c **** /*
 646:../../../FreeRTOS-Plus/Source/FreeRTOS-Plus-TCP/FreeRTOS_Sockets.c ****  * FreeRTOS_recvfrom: receive data from a bound socket
 647:../../../FreeRTOS-Plus/Source/FreeRTOS-Plus-TCP/FreeRTOS_Sockets.c ****  * In this library, the function can only be used with connectionsless sockets
 648:../../../FreeRTOS-Plus/Source/FreeRTOS-Plus-TCP/FreeRTOS_Sockets.c ****  * (UDP)
 649:../../../FreeRTOS-Plus/Source/FreeRTOS-Plus-TCP/FreeRTOS_Sockets.c ****  */
 650:../../../FreeRTOS-Plus/Source/FreeRTOS-Plus-TCP/FreeRTOS_Sockets.c **** int32_t FreeRTOS_recvfrom( Socket_t xSocket, void *pvBuffer, size_t xBufferLength, BaseType_t xFlag
 651:../../../FreeRTOS-Plus/Source/FreeRTOS-Plus-TCP/FreeRTOS_Sockets.c **** {
 1873              		.loc 3 651 0
 1874              		.cfi_startproc
 1875              		@ args = 8, pretend = 0, frame = 56
 1876              		@ frame_needed = 1, uses_anonymous_args = 0
 1877 0000 80B5     		push	{r7, lr}
 1878              	.LCFI126:
 1879              		.cfi_def_cfa_offset 8
 1880              		.cfi_offset 7, -8
 1881              		.cfi_offset 14, -4
 1882 0002 90B0     		sub	sp, sp, #64
ARM GAS  /tmp/ccrA3BdH.s 			page 57


 1883              	.LCFI127:
 1884              		.cfi_def_cfa_offset 72
 1885 0004 02AF     		add	r7, sp, #8
 1886              	.LCFI128:
 1887              		.cfi_def_cfa 7, 64
 1888 0006 F860     		str	r0, [r7, #12]
 1889 0008 B960     		str	r1, [r7, #8]
 1890 000a 7A60     		str	r2, [r7, #4]
 1891 000c 3B60     		str	r3, [r7]
 652:../../../FreeRTOS-Plus/Source/FreeRTOS-Plus-TCP/FreeRTOS_Sockets.c **** BaseType_t lPacketCount = 0;
 1892              		.loc 3 652 0
 1893 000e 0023     		movs	r3, #0
 1894 0010 7B63     		str	r3, [r7, #52]
 653:../../../FreeRTOS-Plus/Source/FreeRTOS-Plus-TCP/FreeRTOS_Sockets.c **** NetworkBufferDescriptor_t *pxNetworkBuffer;
 654:../../../FreeRTOS-Plus/Source/FreeRTOS-Plus-TCP/FreeRTOS_Sockets.c **** FreeRTOS_Socket_t *pxSocket = ( FreeRTOS_Socket_t * ) xSocket;
 1895              		.loc 3 654 0
 1896 0012 FB68     		ldr	r3, [r7, #12]
 1897 0014 7B62     		str	r3, [r7, #36]
 655:../../../FreeRTOS-Plus/Source/FreeRTOS-Plus-TCP/FreeRTOS_Sockets.c **** TickType_t xRemainingTime = ( TickType_t ) 0; /* Obsolete assignment, but some compilers output a w
 1898              		.loc 3 655 0
 1899 0016 0023     		movs	r3, #0
 1900 0018 FB61     		str	r3, [r7, #28]
 656:../../../FreeRTOS-Plus/Source/FreeRTOS-Plus-TCP/FreeRTOS_Sockets.c **** BaseType_t xTimed = pdFALSE;
 1901              		.loc 3 656 0
 1902 001a 0023     		movs	r3, #0
 1903 001c 3B63     		str	r3, [r7, #48]
 657:../../../FreeRTOS-Plus/Source/FreeRTOS-Plus-TCP/FreeRTOS_Sockets.c **** TimeOut_t xTimeOut;
 658:../../../FreeRTOS-Plus/Source/FreeRTOS-Plus-TCP/FreeRTOS_Sockets.c **** int32_t lReturn;
 659:../../../FreeRTOS-Plus/Source/FreeRTOS-Plus-TCP/FreeRTOS_Sockets.c **** EventBits_t xEventBits = ( EventBits_t ) 0;
 1904              		.loc 3 659 0
 1905 001e 0023     		movs	r3, #0
 1906 0020 BB62     		str	r3, [r7, #40]
 660:../../../FreeRTOS-Plus/Source/FreeRTOS-Plus-TCP/FreeRTOS_Sockets.c **** 
 661:../../../FreeRTOS-Plus/Source/FreeRTOS-Plus-TCP/FreeRTOS_Sockets.c **** 	if( prvValidSocket( pxSocket, FREERTOS_IPPROTO_UDP, pdTRUE ) == pdFALSE )
 1907              		.loc 3 661 0
 1908 0022 786A     		ldr	r0, [r7, #36]
 1909 0024 1121     		movs	r1, #17
 1910 0026 0122     		movs	r2, #1
 1911 0028 FFF7FEFF 		bl	prvValidSocket
 1912 002c 0346     		mov	r3, r0
 1913 002e 002B     		cmp	r3, #0
 1914 0030 02D1     		bne	.L100
 662:../../../FreeRTOS-Plus/Source/FreeRTOS-Plus-TCP/FreeRTOS_Sockets.c **** 	{
 663:../../../FreeRTOS-Plus/Source/FreeRTOS-Plus-TCP/FreeRTOS_Sockets.c **** 		return -pdFREERTOS_ERRNO_EINVAL;
 1915              		.loc 3 663 0
 1916 0032 6FF01503 		mvn	r3, #21
 1917 0036 ACE0     		b	.L120
 1918              	.L100:
 664:../../../FreeRTOS-Plus/Source/FreeRTOS-Plus-TCP/FreeRTOS_Sockets.c **** 	}
 665:../../../FreeRTOS-Plus/Source/FreeRTOS-Plus-TCP/FreeRTOS_Sockets.c **** 
 666:../../../FreeRTOS-Plus/Source/FreeRTOS-Plus-TCP/FreeRTOS_Sockets.c **** 	lPacketCount = ( BaseType_t ) listCURRENT_LIST_LENGTH( &( pxSocket->u.xUDP.xWaitingPacketsList ) )
 1919              		.loc 3 666 0
 1920 0038 7B6A     		ldr	r3, [r7, #36]
 1921 003a 9B6B     		ldr	r3, [r3, #56]
 1922 003c 7B63     		str	r3, [r7, #52]
 667:../../../FreeRTOS-Plus/Source/FreeRTOS-Plus-TCP/FreeRTOS_Sockets.c **** 
 668:../../../FreeRTOS-Plus/Source/FreeRTOS-Plus-TCP/FreeRTOS_Sockets.c **** 	/* The function prototype is designed to maintain the expected Berkeley
ARM GAS  /tmp/ccrA3BdH.s 			page 58


 669:../../../FreeRTOS-Plus/Source/FreeRTOS-Plus-TCP/FreeRTOS_Sockets.c **** 	sockets standard, but this implementation does not use all the parameters. */
 670:../../../FreeRTOS-Plus/Source/FreeRTOS-Plus-TCP/FreeRTOS_Sockets.c **** 	( void ) pxSourceAddressLength;
 671:../../../FreeRTOS-Plus/Source/FreeRTOS-Plus-TCP/FreeRTOS_Sockets.c **** 
 672:../../../FreeRTOS-Plus/Source/FreeRTOS-Plus-TCP/FreeRTOS_Sockets.c **** 	while( lPacketCount == 0 )
 1923              		.loc 3 672 0
 1924 003e 51E0     		b	.L102
 1925              	.L110:
 673:../../../FreeRTOS-Plus/Source/FreeRTOS-Plus-TCP/FreeRTOS_Sockets.c **** 	{
 674:../../../FreeRTOS-Plus/Source/FreeRTOS-Plus-TCP/FreeRTOS_Sockets.c **** 		if( xTimed == pdFALSE )
 1926              		.loc 3 674 0
 1927 0040 3B6B     		ldr	r3, [r7, #48]
 1928 0042 002B     		cmp	r3, #0
 1929 0044 1ED1     		bne	.L103
 675:../../../FreeRTOS-Plus/Source/FreeRTOS-Plus-TCP/FreeRTOS_Sockets.c **** 		{
 676:../../../FreeRTOS-Plus/Source/FreeRTOS-Plus-TCP/FreeRTOS_Sockets.c **** 			/* Check to see if the socket is non blocking on the first
 677:../../../FreeRTOS-Plus/Source/FreeRTOS-Plus-TCP/FreeRTOS_Sockets.c **** 			iteration.  */
 678:../../../FreeRTOS-Plus/Source/FreeRTOS-Plus-TCP/FreeRTOS_Sockets.c **** 			xRemainingTime = pxSocket->xReceiveBlockTime;
 1930              		.loc 3 678 0
 1931 0046 7B6A     		ldr	r3, [r7, #36]
 1932 0048 DB69     		ldr	r3, [r3, #28]
 1933 004a FB61     		str	r3, [r7, #28]
 679:../../../FreeRTOS-Plus/Source/FreeRTOS-Plus-TCP/FreeRTOS_Sockets.c **** 
 680:../../../FreeRTOS-Plus/Source/FreeRTOS-Plus-TCP/FreeRTOS_Sockets.c **** 			if( xRemainingTime == ( TickType_t ) 0 )
 1934              		.loc 3 680 0
 1935 004c FB69     		ldr	r3, [r7, #28]
 1936 004e 002B     		cmp	r3, #0
 1937 0050 0BD1     		bne	.L104
 681:../../../FreeRTOS-Plus/Source/FreeRTOS-Plus-TCP/FreeRTOS_Sockets.c **** 			{
 682:../../../FreeRTOS-Plus/Source/FreeRTOS-Plus-TCP/FreeRTOS_Sockets.c **** 				#if( ipconfigSUPPORT_SIGNALS != 0 )
 683:../../../FreeRTOS-Plus/Source/FreeRTOS-Plus-TCP/FreeRTOS_Sockets.c **** 				{
 684:../../../FreeRTOS-Plus/Source/FreeRTOS-Plus-TCP/FreeRTOS_Sockets.c **** 					/* Just check for the interrupt flag. */
 685:../../../FreeRTOS-Plus/Source/FreeRTOS-Plus-TCP/FreeRTOS_Sockets.c **** 					xEventBits = xEventGroupWaitBits( pxSocket->xEventGroup, eSOCKET_INTR,
 1938              		.loc 3 685 0
 1939 0052 7B6A     		ldr	r3, [r7, #36]
 1940 0054 5A68     		ldr	r2, [r3, #4]
 1941 0056 0023     		movs	r3, #0
 1942 0058 0093     		str	r3, [sp]
 1943 005a 1046     		mov	r0, r2
 1944 005c 4021     		movs	r1, #64
 1945 005e 0122     		movs	r2, #1
 1946 0060 0023     		movs	r3, #0
 1947 0062 FFF7FEFF 		bl	xEventGroupWaitBits
 1948 0066 B862     		str	r0, [r7, #40]
 686:../../../FreeRTOS-Plus/Source/FreeRTOS-Plus-TCP/FreeRTOS_Sockets.c **** 						pdTRUE /*xClearOnExit*/, pdFALSE /*xWaitAllBits*/, socketDONT_BLOCK );
 687:../../../FreeRTOS-Plus/Source/FreeRTOS-Plus-TCP/FreeRTOS_Sockets.c **** 				}
 688:../../../FreeRTOS-Plus/Source/FreeRTOS-Plus-TCP/FreeRTOS_Sockets.c **** 				#endif /* ipconfigSUPPORT_SIGNALS */
 689:../../../FreeRTOS-Plus/Source/FreeRTOS-Plus-TCP/FreeRTOS_Sockets.c **** 				break;
 1949              		.loc 3 689 0
 1950 0068 3FE0     		b	.L105
 1951              	.L104:
 690:../../../FreeRTOS-Plus/Source/FreeRTOS-Plus-TCP/FreeRTOS_Sockets.c **** 			}
 691:../../../FreeRTOS-Plus/Source/FreeRTOS-Plus-TCP/FreeRTOS_Sockets.c **** 
 692:../../../FreeRTOS-Plus/Source/FreeRTOS-Plus-TCP/FreeRTOS_Sockets.c **** 			if( ( xFlags & FREERTOS_MSG_DONTWAIT ) != 0 )
 1952              		.loc 3 692 0
 1953 006a 3B68     		ldr	r3, [r7]
 1954 006c 03F01003 		and	r3, r3, #16
 1955 0070 002B     		cmp	r3, #0
ARM GAS  /tmp/ccrA3BdH.s 			page 59


 1956 0072 00D0     		beq	.L106
 693:../../../FreeRTOS-Plus/Source/FreeRTOS-Plus-TCP/FreeRTOS_Sockets.c **** 			{
 694:../../../FreeRTOS-Plus/Source/FreeRTOS-Plus-TCP/FreeRTOS_Sockets.c **** 				break;
 1957              		.loc 3 694 0
 1958 0074 39E0     		b	.L105
 1959              	.L106:
 695:../../../FreeRTOS-Plus/Source/FreeRTOS-Plus-TCP/FreeRTOS_Sockets.c **** 			}
 696:../../../FreeRTOS-Plus/Source/FreeRTOS-Plus-TCP/FreeRTOS_Sockets.c **** 
 697:../../../FreeRTOS-Plus/Source/FreeRTOS-Plus-TCP/FreeRTOS_Sockets.c **** 			/* To ensure this part only executes once. */
 698:../../../FreeRTOS-Plus/Source/FreeRTOS-Plus-TCP/FreeRTOS_Sockets.c **** 			xTimed = pdTRUE;
 1960              		.loc 3 698 0
 1961 0076 0123     		movs	r3, #1
 1962 0078 3B63     		str	r3, [r7, #48]
 699:../../../FreeRTOS-Plus/Source/FreeRTOS-Plus-TCP/FreeRTOS_Sockets.c **** 
 700:../../../FreeRTOS-Plus/Source/FreeRTOS-Plus-TCP/FreeRTOS_Sockets.c **** 			/* Fetch the current time. */
 701:../../../FreeRTOS-Plus/Source/FreeRTOS-Plus-TCP/FreeRTOS_Sockets.c **** 			vTaskSetTimeOutState( &xTimeOut );
 1963              		.loc 3 701 0
 1964 007a 07F11403 		add	r3, r7, #20
 1965 007e 1846     		mov	r0, r3
 1966 0080 FFF7FEFF 		bl	vTaskSetTimeOutState
 1967              	.L103:
 702:../../../FreeRTOS-Plus/Source/FreeRTOS-Plus-TCP/FreeRTOS_Sockets.c **** 		}
 703:../../../FreeRTOS-Plus/Source/FreeRTOS-Plus-TCP/FreeRTOS_Sockets.c **** 
 704:../../../FreeRTOS-Plus/Source/FreeRTOS-Plus-TCP/FreeRTOS_Sockets.c **** 		/* Wait for arrival of data.  While waiting, the IP-task may set the
 705:../../../FreeRTOS-Plus/Source/FreeRTOS-Plus-TCP/FreeRTOS_Sockets.c **** 		'eSOCKET_RECEIVE' bit in 'xEventGroup', if it receives data for this
 706:../../../FreeRTOS-Plus/Source/FreeRTOS-Plus-TCP/FreeRTOS_Sockets.c **** 		socket, thus unblocking this API call. */
 707:../../../FreeRTOS-Plus/Source/FreeRTOS-Plus-TCP/FreeRTOS_Sockets.c **** 		xEventBits = xEventGroupWaitBits( pxSocket->xEventGroup, eSOCKET_RECEIVE | eSOCKET_INTR,
 1968              		.loc 3 707 0
 1969 0084 7B6A     		ldr	r3, [r7, #36]
 1970 0086 5A68     		ldr	r2, [r3, #4]
 1971 0088 FB69     		ldr	r3, [r7, #28]
 1972 008a 0093     		str	r3, [sp]
 1973 008c 1046     		mov	r0, r2
 1974 008e 4121     		movs	r1, #65
 1975 0090 0122     		movs	r2, #1
 1976 0092 0023     		movs	r3, #0
 1977 0094 FFF7FEFF 		bl	xEventGroupWaitBits
 1978 0098 B862     		str	r0, [r7, #40]
 708:../../../FreeRTOS-Plus/Source/FreeRTOS-Plus-TCP/FreeRTOS_Sockets.c **** 			pdTRUE /*xClearOnExit*/, pdFALSE /*xWaitAllBits*/, xRemainingTime );
 709:../../../FreeRTOS-Plus/Source/FreeRTOS-Plus-TCP/FreeRTOS_Sockets.c **** 
 710:../../../FreeRTOS-Plus/Source/FreeRTOS-Plus-TCP/FreeRTOS_Sockets.c **** 		#if( ipconfigSUPPORT_SIGNALS != 0 )
 711:../../../FreeRTOS-Plus/Source/FreeRTOS-Plus-TCP/FreeRTOS_Sockets.c **** 		{
 712:../../../FreeRTOS-Plus/Source/FreeRTOS-Plus-TCP/FreeRTOS_Sockets.c **** 			if( ( xEventBits & eSOCKET_INTR ) != 0 )
 1979              		.loc 3 712 0
 1980 009a BB6A     		ldr	r3, [r7, #40]
 1981 009c 03F04003 		and	r3, r3, #64
 1982 00a0 002B     		cmp	r3, #0
 1983 00a2 0CD0     		beq	.L107
 713:../../../FreeRTOS-Plus/Source/FreeRTOS-Plus-TCP/FreeRTOS_Sockets.c **** 			{
 714:../../../FreeRTOS-Plus/Source/FreeRTOS-Plus-TCP/FreeRTOS_Sockets.c **** 				if( ( xEventBits & eSOCKET_RECEIVE ) != 0 )
 1984              		.loc 3 714 0
 1985 00a4 BB6A     		ldr	r3, [r7, #40]
 1986 00a6 03F00103 		and	r3, r3, #1
 1987 00aa 002B     		cmp	r3, #0
 1988 00ac 06D0     		beq	.L108
 715:../../../FreeRTOS-Plus/Source/FreeRTOS-Plus-TCP/FreeRTOS_Sockets.c **** 				{
 716:../../../FreeRTOS-Plus/Source/FreeRTOS-Plus-TCP/FreeRTOS_Sockets.c **** 					/* Shouldn't have cleared the eSOCKET_RECEIVE flag. */
ARM GAS  /tmp/ccrA3BdH.s 			page 60


 717:../../../FreeRTOS-Plus/Source/FreeRTOS-Plus-TCP/FreeRTOS_Sockets.c **** 					xEventGroupSetBits( pxSocket->xEventGroup, eSOCKET_RECEIVE );
 1989              		.loc 3 717 0
 1990 00ae 7B6A     		ldr	r3, [r7, #36]
 1991 00b0 5B68     		ldr	r3, [r3, #4]
 1992 00b2 1846     		mov	r0, r3
 1993 00b4 0121     		movs	r1, #1
 1994 00b6 FFF7FEFF 		bl	xEventGroupSetBits
 718:../../../FreeRTOS-Plus/Source/FreeRTOS-Plus-TCP/FreeRTOS_Sockets.c **** 				}
 719:../../../FreeRTOS-Plus/Source/FreeRTOS-Plus-TCP/FreeRTOS_Sockets.c **** 				break;
 1995              		.loc 3 719 0
 1996 00ba 16E0     		b	.L105
 1997              	.L108:
 1998 00bc 15E0     		b	.L105
 1999              	.L107:
 720:../../../FreeRTOS-Plus/Source/FreeRTOS-Plus-TCP/FreeRTOS_Sockets.c **** 			}
 721:../../../FreeRTOS-Plus/Source/FreeRTOS-Plus-TCP/FreeRTOS_Sockets.c **** 		}
 722:../../../FreeRTOS-Plus/Source/FreeRTOS-Plus-TCP/FreeRTOS_Sockets.c **** 		#else
 723:../../../FreeRTOS-Plus/Source/FreeRTOS-Plus-TCP/FreeRTOS_Sockets.c **** 		{
 724:../../../FreeRTOS-Plus/Source/FreeRTOS-Plus-TCP/FreeRTOS_Sockets.c **** 			( void ) xEventBits;
 725:../../../FreeRTOS-Plus/Source/FreeRTOS-Plus-TCP/FreeRTOS_Sockets.c **** 		}
 726:../../../FreeRTOS-Plus/Source/FreeRTOS-Plus-TCP/FreeRTOS_Sockets.c **** 		#endif /* ipconfigSUPPORT_SIGNALS */
 727:../../../FreeRTOS-Plus/Source/FreeRTOS-Plus-TCP/FreeRTOS_Sockets.c **** 
 728:../../../FreeRTOS-Plus/Source/FreeRTOS-Plus-TCP/FreeRTOS_Sockets.c **** 		lPacketCount = ( BaseType_t ) listCURRENT_LIST_LENGTH( &( pxSocket->u.xUDP.xWaitingPacketsList ) 
 2000              		.loc 3 728 0
 2001 00be 7B6A     		ldr	r3, [r7, #36]
 2002 00c0 9B6B     		ldr	r3, [r3, #56]
 2003 00c2 7B63     		str	r3, [r7, #52]
 729:../../../FreeRTOS-Plus/Source/FreeRTOS-Plus-TCP/FreeRTOS_Sockets.c **** 
 730:../../../FreeRTOS-Plus/Source/FreeRTOS-Plus-TCP/FreeRTOS_Sockets.c **** 		if( lPacketCount != 0 )
 2004              		.loc 3 730 0
 2005 00c4 7B6B     		ldr	r3, [r7, #52]
 2006 00c6 002B     		cmp	r3, #0
 2007 00c8 00D0     		beq	.L109
 731:../../../FreeRTOS-Plus/Source/FreeRTOS-Plus-TCP/FreeRTOS_Sockets.c **** 		{
 732:../../../FreeRTOS-Plus/Source/FreeRTOS-Plus-TCP/FreeRTOS_Sockets.c **** 			break;
 2008              		.loc 3 732 0
 2009 00ca 0EE0     		b	.L105
 2010              	.L109:
 733:../../../FreeRTOS-Plus/Source/FreeRTOS-Plus-TCP/FreeRTOS_Sockets.c **** 		}
 734:../../../FreeRTOS-Plus/Source/FreeRTOS-Plus-TCP/FreeRTOS_Sockets.c **** 
 735:../../../FreeRTOS-Plus/Source/FreeRTOS-Plus-TCP/FreeRTOS_Sockets.c **** 		/* Has the timeout been reached ? */
 736:../../../FreeRTOS-Plus/Source/FreeRTOS-Plus-TCP/FreeRTOS_Sockets.c **** 		if( xTaskCheckForTimeOut( &xTimeOut, &xRemainingTime ) )
 2011              		.loc 3 736 0
 2012 00cc 07F11402 		add	r2, r7, #20
 2013 00d0 07F11C03 		add	r3, r7, #28
 2014 00d4 1046     		mov	r0, r2
 2015 00d6 1946     		mov	r1, r3
 2016 00d8 FFF7FEFF 		bl	xTaskCheckForTimeOut
 2017 00dc 0346     		mov	r3, r0
 2018 00de 002B     		cmp	r3, #0
 2019 00e0 00D0     		beq	.L102
 737:../../../FreeRTOS-Plus/Source/FreeRTOS-Plus-TCP/FreeRTOS_Sockets.c **** 		{
 738:../../../FreeRTOS-Plus/Source/FreeRTOS-Plus-TCP/FreeRTOS_Sockets.c **** 			break;
 2020              		.loc 3 738 0
 2021 00e2 02E0     		b	.L105
 2022              	.L102:
 672:../../../FreeRTOS-Plus/Source/FreeRTOS-Plus-TCP/FreeRTOS_Sockets.c **** 	{
ARM GAS  /tmp/ccrA3BdH.s 			page 61


 2023              		.loc 3 672 0
 2024 00e4 7B6B     		ldr	r3, [r7, #52]
 2025 00e6 002B     		cmp	r3, #0
 2026 00e8 AAD0     		beq	.L110
 2027              	.L105:
 739:../../../FreeRTOS-Plus/Source/FreeRTOS-Plus-TCP/FreeRTOS_Sockets.c **** 		}
 740:../../../FreeRTOS-Plus/Source/FreeRTOS-Plus-TCP/FreeRTOS_Sockets.c **** 	} /* while( lPacketCount == 0 ) */
 741:../../../FreeRTOS-Plus/Source/FreeRTOS-Plus-TCP/FreeRTOS_Sockets.c **** 
 742:../../../FreeRTOS-Plus/Source/FreeRTOS-Plus-TCP/FreeRTOS_Sockets.c **** 	if( lPacketCount != 0 )
 2028              		.loc 3 742 0
 2029 00ea 7B6B     		ldr	r3, [r7, #52]
 2030 00ec 002B     		cmp	r3, #0
 2031 00ee 43D0     		beq	.L111
 743:../../../FreeRTOS-Plus/Source/FreeRTOS-Plus-TCP/FreeRTOS_Sockets.c **** 	{
 744:../../../FreeRTOS-Plus/Source/FreeRTOS-Plus-TCP/FreeRTOS_Sockets.c **** 		taskENTER_CRITICAL();
 2032              		.loc 3 744 0
 2033 00f0 FFF7FEFF 		bl	vPortEnterCritical
 745:../../../FreeRTOS-Plus/Source/FreeRTOS-Plus-TCP/FreeRTOS_Sockets.c **** 		{
 746:../../../FreeRTOS-Plus/Source/FreeRTOS-Plus-TCP/FreeRTOS_Sockets.c **** 			/* The owner of the list item is the network buffer. */
 747:../../../FreeRTOS-Plus/Source/FreeRTOS-Plus-TCP/FreeRTOS_Sockets.c **** 			pxNetworkBuffer = ( NetworkBufferDescriptor_t * ) listGET_OWNER_OF_HEAD_ENTRY( &( pxSocket->u.xU
 2034              		.loc 3 747 0
 2035 00f4 7B6A     		ldr	r3, [r7, #36]
 2036 00f6 5B6C     		ldr	r3, [r3, #68]
 2037 00f8 DB68     		ldr	r3, [r3, #12]
 2038 00fa 3B62     		str	r3, [r7, #32]
 748:../../../FreeRTOS-Plus/Source/FreeRTOS-Plus-TCP/FreeRTOS_Sockets.c **** 
 749:../../../FreeRTOS-Plus/Source/FreeRTOS-Plus-TCP/FreeRTOS_Sockets.c **** 			if( ( xFlags & FREERTOS_MSG_PEEK ) == 0 )
 2039              		.loc 3 749 0
 2040 00fc 3B68     		ldr	r3, [r7]
 2041 00fe 03F00403 		and	r3, r3, #4
 2042 0102 002B     		cmp	r3, #0
 2043 0104 03D1     		bne	.L112
 750:../../../FreeRTOS-Plus/Source/FreeRTOS-Plus-TCP/FreeRTOS_Sockets.c **** 			{
 751:../../../FreeRTOS-Plus/Source/FreeRTOS-Plus-TCP/FreeRTOS_Sockets.c **** 				/* Remove the network buffer from the list of buffers waiting to
 752:../../../FreeRTOS-Plus/Source/FreeRTOS-Plus-TCP/FreeRTOS_Sockets.c **** 				be processed by the socket. */
 753:../../../FreeRTOS-Plus/Source/FreeRTOS-Plus-TCP/FreeRTOS_Sockets.c **** 				uxListRemove( &( pxNetworkBuffer->xBufferListItem ) );
 2044              		.loc 3 753 0
 2045 0106 3B6A     		ldr	r3, [r7, #32]
 2046 0108 1846     		mov	r0, r3
 2047 010a FFF7FEFF 		bl	uxListRemove
 2048              	.L112:
 754:../../../FreeRTOS-Plus/Source/FreeRTOS-Plus-TCP/FreeRTOS_Sockets.c **** 			}
 755:../../../FreeRTOS-Plus/Source/FreeRTOS-Plus-TCP/FreeRTOS_Sockets.c **** 		}
 756:../../../FreeRTOS-Plus/Source/FreeRTOS-Plus-TCP/FreeRTOS_Sockets.c **** 		taskEXIT_CRITICAL();
 2049              		.loc 3 756 0
 2050 010e FFF7FEFF 		bl	vPortExitCritical
 757:../../../FreeRTOS-Plus/Source/FreeRTOS-Plus-TCP/FreeRTOS_Sockets.c **** 
 758:../../../FreeRTOS-Plus/Source/FreeRTOS-Plus-TCP/FreeRTOS_Sockets.c **** 		/* The returned value is the data length, which may have been capped to
 759:../../../FreeRTOS-Plus/Source/FreeRTOS-Plus-TCP/FreeRTOS_Sockets.c **** 		the receive buffer size. */
 760:../../../FreeRTOS-Plus/Source/FreeRTOS-Plus-TCP/FreeRTOS_Sockets.c **** 		lReturn = ( int32_t ) pxNetworkBuffer->xDataLength;
 2051              		.loc 3 760 0
 2052 0112 3B6A     		ldr	r3, [r7, #32]
 2053 0114 DB69     		ldr	r3, [r3, #28]
 2054 0116 FB62     		str	r3, [r7, #44]
 761:../../../FreeRTOS-Plus/Source/FreeRTOS-Plus-TCP/FreeRTOS_Sockets.c **** 
 762:../../../FreeRTOS-Plus/Source/FreeRTOS-Plus-TCP/FreeRTOS_Sockets.c **** 		if( pxSourceAddress != NULL )
 2055              		.loc 3 762 0
ARM GAS  /tmp/ccrA3BdH.s 			page 62


 2056 0118 3B6C     		ldr	r3, [r7, #64]
 2057 011a 002B     		cmp	r3, #0
 2058 011c 07D0     		beq	.L113
 763:../../../FreeRTOS-Plus/Source/FreeRTOS-Plus-TCP/FreeRTOS_Sockets.c **** 		{
 764:../../../FreeRTOS-Plus/Source/FreeRTOS-Plus-TCP/FreeRTOS_Sockets.c **** 			pxSourceAddress->sin_port = pxNetworkBuffer->usPort;
 2059              		.loc 3 764 0
 2060 011e 3B6A     		ldr	r3, [r7, #32]
 2061 0120 1A8C     		ldrh	r2, [r3, #32]
 2062 0122 3B6C     		ldr	r3, [r7, #64]
 2063 0124 5A80     		strh	r2, [r3, #2]	@ movhi
 765:../../../FreeRTOS-Plus/Source/FreeRTOS-Plus-TCP/FreeRTOS_Sockets.c **** 			pxSourceAddress->sin_addr = pxNetworkBuffer->ulIPAddress;
 2064              		.loc 3 765 0
 2065 0126 3B6A     		ldr	r3, [r7, #32]
 2066 0128 5A69     		ldr	r2, [r3, #20]
 2067 012a 3B6C     		ldr	r3, [r7, #64]
 2068 012c 5A60     		str	r2, [r3, #4]
 2069              	.L113:
 766:../../../FreeRTOS-Plus/Source/FreeRTOS-Plus-TCP/FreeRTOS_Sockets.c **** 		}
 767:../../../FreeRTOS-Plus/Source/FreeRTOS-Plus-TCP/FreeRTOS_Sockets.c **** 
 768:../../../FreeRTOS-Plus/Source/FreeRTOS-Plus-TCP/FreeRTOS_Sockets.c **** 		if( ( xFlags & FREERTOS_ZERO_COPY ) == 0 )
 2070              		.loc 3 768 0
 2071 012e 3B68     		ldr	r3, [r7]
 2072 0130 03F00103 		and	r3, r3, #1
 2073 0134 002B     		cmp	r3, #0
 2074 0136 18D1     		bne	.L114
 769:../../../FreeRTOS-Plus/Source/FreeRTOS-Plus-TCP/FreeRTOS_Sockets.c **** 		{
 770:../../../FreeRTOS-Plus/Source/FreeRTOS-Plus-TCP/FreeRTOS_Sockets.c **** 			/* The zero copy flag is not set.  Truncate the length if it won't
 771:../../../FreeRTOS-Plus/Source/FreeRTOS-Plus-TCP/FreeRTOS_Sockets.c **** 			fit in the provided buffer. */
 772:../../../FreeRTOS-Plus/Source/FreeRTOS-Plus-TCP/FreeRTOS_Sockets.c **** 			if( lReturn > ( int32_t ) xBufferLength )
 2075              		.loc 3 772 0
 2076 0138 7A68     		ldr	r2, [r7, #4]
 2077 013a FB6A     		ldr	r3, [r7, #44]
 2078 013c 9A42     		cmp	r2, r3
 2079 013e 01DA     		bge	.L115
 773:../../../FreeRTOS-Plus/Source/FreeRTOS-Plus-TCP/FreeRTOS_Sockets.c **** 			{
 774:../../../FreeRTOS-Plus/Source/FreeRTOS-Plus-TCP/FreeRTOS_Sockets.c **** 				iptraceRECVFROM_DISCARDING_BYTES( ( xBufferLength - lReturn ) );
 775:../../../FreeRTOS-Plus/Source/FreeRTOS-Plus-TCP/FreeRTOS_Sockets.c **** 				lReturn = ( int32_t )xBufferLength;
 2080              		.loc 3 775 0
 2081 0140 7B68     		ldr	r3, [r7, #4]
