ARM GAS  /tmp/ccJhHFds.s 			page 1


   1              		.syntax unified
   2              		.cpu cortex-m7
   3              		.eabi_attribute 27, 1
   4              		.eabi_attribute 28, 1
   5              		.fpu fpv5-sp-d16
   6              		.eabi_attribute 20, 1
   7              		.eabi_attribute 21, 1
   8              		.eabi_attribute 23, 3
   9              		.eabi_attribute 24, 1
  10              		.eabi_attribute 25, 1
  11              		.eabi_attribute 26, 1
  12              		.eabi_attribute 30, 6
  13              		.eabi_attribute 34, 1
  14              		.eabi_attribute 18, 4
  15              		.thumb
  16              		.file	"SEGGER_SYSVIEW.c"
  17              		.text
  18              	.Ltext0:
  19              		.cfi_sections	.debug_frame
  20              		.section	.rodata._abSync,"a",%progbits
  21              		.align	2
  24              	_abSync:
  25 0000 00000000 		.space	10
  25      00000000 
  25      0000
  26              		.section	.bss._UpBuffer,"aw",%nobits
  27              		.align	2
  30              	_UpBuffer:
  31 0000 00000000 		.space	1024
  31      00000000 
  31      00000000 
  31      00000000 
  31      00000000 
  32              		.section	.bss._DownBuffer,"aw",%nobits
  33              		.align	2
  36              	_DownBuffer:
  37 0000 00000000 		.space	8
  37      00000000 
  38              		.section	.bss._SYSVIEW_Globals,"aw",%nobits
  39              		.align	2
  42              	_SYSVIEW_Globals:
  43 0000 00000000 		.space	40
  43      00000000 
  43      00000000 
  43      00000000 
  43      00000000 
  44              		.section	.bss._pFirstModule,"aw",%nobits
  45              		.align	2
  48              	_pFirstModule:
  49 0000 00000000 		.space	4
  50              		.section	.bss._NumModules,"aw",%nobits
  53              	_NumModules:
  54 0000 00       		.space	1
  55              		.section	.bss._aPacket,"aw",%nobits
  56              		.align	2
  59              	_aPacket:
  60 0000 00000000 		.space	227
ARM GAS  /tmp/ccJhHFds.s 			page 2


  60      00000000 
  60      00000000 
  60      00000000 
  60      00000000 
  61              		.section	.text._EncodeData,"ax",%progbits
  62              		.align	2
  63              		.thumb
  64              		.thumb_func
  66              	_EncodeData:
  67              	.LFB0:
  68              		.file 1 "../../../SystemView/SEGGER/SEGGER_SYSVIEW.c"
   1:../../../SystemView/SEGGER/SEGGER_SYSVIEW.c **** /*********************************************************************
   2:../../../SystemView/SEGGER/SEGGER_SYSVIEW.c **** *                SEGGER Microcontroller GmbH & Co. KG                *
   3:../../../SystemView/SEGGER/SEGGER_SYSVIEW.c **** *                        The Embedded Experts                        *
   4:../../../SystemView/SEGGER/SEGGER_SYSVIEW.c **** **********************************************************************
   5:../../../SystemView/SEGGER/SEGGER_SYSVIEW.c **** *                                                                    *
   6:../../../SystemView/SEGGER/SEGGER_SYSVIEW.c **** *       (c) 2015 - 2017  SEGGER Microcontroller GmbH & Co. KG        *
   7:../../../SystemView/SEGGER/SEGGER_SYSVIEW.c **** *                                                                    *
   8:../../../SystemView/SEGGER/SEGGER_SYSVIEW.c **** *       www.segger.com     Support: support@segger.com               *
   9:../../../SystemView/SEGGER/SEGGER_SYSVIEW.c **** *                                                                    *
  10:../../../SystemView/SEGGER/SEGGER_SYSVIEW.c **** **********************************************************************
  11:../../../SystemView/SEGGER/SEGGER_SYSVIEW.c **** *                                                                    *
  12:../../../SystemView/SEGGER/SEGGER_SYSVIEW.c **** *       SEGGER SystemView * Real-time application analysis           *
  13:../../../SystemView/SEGGER/SEGGER_SYSVIEW.c **** *                                                                    *
  14:../../../SystemView/SEGGER/SEGGER_SYSVIEW.c **** **********************************************************************
  15:../../../SystemView/SEGGER/SEGGER_SYSVIEW.c **** *                                                                    *
  16:../../../SystemView/SEGGER/SEGGER_SYSVIEW.c **** * All rights reserved.                                               *
  17:../../../SystemView/SEGGER/SEGGER_SYSVIEW.c **** *                                                                    *
  18:../../../SystemView/SEGGER/SEGGER_SYSVIEW.c **** * SEGGER strongly recommends to not make any changes                 *
  19:../../../SystemView/SEGGER/SEGGER_SYSVIEW.c **** * to or modify the source code of this software in order to stay     *
  20:../../../SystemView/SEGGER/SEGGER_SYSVIEW.c **** * compatible with the RTT protocol and J-Link.                       *
  21:../../../SystemView/SEGGER/SEGGER_SYSVIEW.c **** *                                                                    *
  22:../../../SystemView/SEGGER/SEGGER_SYSVIEW.c **** * Redistribution and use in source and binary forms, with or         *
  23:../../../SystemView/SEGGER/SEGGER_SYSVIEW.c **** * without modification, are permitted provided that the following    *
  24:../../../SystemView/SEGGER/SEGGER_SYSVIEW.c **** * conditions are met:                                                *
  25:../../../SystemView/SEGGER/SEGGER_SYSVIEW.c **** *                                                                    *
  26:../../../SystemView/SEGGER/SEGGER_SYSVIEW.c **** * o Redistributions of source code must retain the above copyright   *
  27:../../../SystemView/SEGGER/SEGGER_SYSVIEW.c **** *   notice, this list of conditions and the following disclaimer.    *
  28:../../../SystemView/SEGGER/SEGGER_SYSVIEW.c **** *                                                                    *
  29:../../../SystemView/SEGGER/SEGGER_SYSVIEW.c **** * o Redistributions in binary form must reproduce the above          *
  30:../../../SystemView/SEGGER/SEGGER_SYSVIEW.c **** *   copyright notice, this list of conditions and the following      *
  31:../../../SystemView/SEGGER/SEGGER_SYSVIEW.c **** *   disclaimer in the documentation and/or other materials provided  *
  32:../../../SystemView/SEGGER/SEGGER_SYSVIEW.c **** *   with the distribution.                                           *
  33:../../../SystemView/SEGGER/SEGGER_SYSVIEW.c **** *                                                                    *
  34:../../../SystemView/SEGGER/SEGGER_SYSVIEW.c **** * o Neither the name of SEGGER Microcontroller GmbH & Co. KG         *
  35:../../../SystemView/SEGGER/SEGGER_SYSVIEW.c **** *   nor the names of its contributors may be used to endorse or      *
  36:../../../SystemView/SEGGER/SEGGER_SYSVIEW.c **** *   promote products derived from this software without specific     *
  37:../../../SystemView/SEGGER/SEGGER_SYSVIEW.c **** *   prior written permission.                                        *
  38:../../../SystemView/SEGGER/SEGGER_SYSVIEW.c **** *                                                                    *
  39:../../../SystemView/SEGGER/SEGGER_SYSVIEW.c **** * THIS SOFTWARE IS PROVIDED BY THE COPYRIGHT HOLDERS AND             *
  40:../../../SystemView/SEGGER/SEGGER_SYSVIEW.c **** * CONTRIBUTORS "AS IS" AND ANY EXPRESS OR IMPLIED WARRANTIES,        *
  41:../../../SystemView/SEGGER/SEGGER_SYSVIEW.c **** * INCLUDING, BUT NOT LIMITED TO, THE IMPLIED WARRANTIES OF           *
  42:../../../SystemView/SEGGER/SEGGER_SYSVIEW.c **** * MERCHANTABILITY AND FITNESS FOR A PARTICULAR PURPOSE ARE           *
  43:../../../SystemView/SEGGER/SEGGER_SYSVIEW.c **** * DISCLAIMED. IN NO EVENT SHALL SEGGER Microcontroller BE LIABLE FOR *
  44:../../../SystemView/SEGGER/SEGGER_SYSVIEW.c **** * ANY DIRECT, INDIRECT, INCIDENTAL, SPECIAL, EXEMPLARY, OR           *
  45:../../../SystemView/SEGGER/SEGGER_SYSVIEW.c **** * CONSEQUENTIAL DAMAGES (INCLUDING, BUT NOT LIMITED TO, PROCUREMENT  *
  46:../../../SystemView/SEGGER/SEGGER_SYSVIEW.c **** * OF SUBSTITUTE GOODS OR SERVICES; LOSS OF USE, DATA, OR PROFITS;    *
ARM GAS  /tmp/ccJhHFds.s 			page 3


  47:../../../SystemView/SEGGER/SEGGER_SYSVIEW.c **** * OR BUSINESS INTERRUPTION) HOWEVER CAUSED AND ON ANY THEORY OF      *
  48:../../../SystemView/SEGGER/SEGGER_SYSVIEW.c **** * LIABILITY, WHETHER IN CONTRACT, STRICT LIABILITY, OR TORT          *
  49:../../../SystemView/SEGGER/SEGGER_SYSVIEW.c **** * (INCLUDING NEGLIGENCE OR OTHERWISE) ARISING IN ANY WAY OUT OF THE  *
  50:../../../SystemView/SEGGER/SEGGER_SYSVIEW.c **** * USE OF THIS SOFTWARE, EVEN IF ADVISED OF THE POSSIBILITY OF SUCH   *
  51:../../../SystemView/SEGGER/SEGGER_SYSVIEW.c **** * DAMAGE.                                                            *
  52:../../../SystemView/SEGGER/SEGGER_SYSVIEW.c **** *                                                                    *
  53:../../../SystemView/SEGGER/SEGGER_SYSVIEW.c **** **********************************************************************
  54:../../../SystemView/SEGGER/SEGGER_SYSVIEW.c **** *                                                                    *
  55:../../../SystemView/SEGGER/SEGGER_SYSVIEW.c **** *       SystemView version: V2.50                                    *
  56:../../../SystemView/SEGGER/SEGGER_SYSVIEW.c **** *                                                                    *
  57:../../../SystemView/SEGGER/SEGGER_SYSVIEW.c **** **********************************************************************
  58:../../../SystemView/SEGGER/SEGGER_SYSVIEW.c **** -------------------------- END-OF-HEADER -----------------------------
  59:../../../SystemView/SEGGER/SEGGER_SYSVIEW.c **** 
  60:../../../SystemView/SEGGER/SEGGER_SYSVIEW.c **** File    : SEGGER_SYSVIEW.c
  61:../../../SystemView/SEGGER/SEGGER_SYSVIEW.c **** Purpose : System visualization API implementation.
  62:../../../SystemView/SEGGER/SEGGER_SYSVIEW.c **** Revision: $Rev: 6414 $
  63:../../../SystemView/SEGGER/SEGGER_SYSVIEW.c **** 
  64:../../../SystemView/SEGGER/SEGGER_SYSVIEW.c **** Additional information:
  65:../../../SystemView/SEGGER/SEGGER_SYSVIEW.c ****   Packet format:
  66:../../../SystemView/SEGGER/SEGGER_SYSVIEW.c ****     Packets with IDs 0..23 are standard packets with known structure.
  67:../../../SystemView/SEGGER/SEGGER_SYSVIEW.c ****     For efficiency, they do *NOT* contain a length field.
  68:../../../SystemView/SEGGER/SEGGER_SYSVIEW.c ****     <ID><Data><TimeStampDelta>
  69:../../../SystemView/SEGGER/SEGGER_SYSVIEW.c **** 
  70:../../../SystemView/SEGGER/SEGGER_SYSVIEW.c ****     Packets with IDs 24..31 are standard packets with extendible
  71:../../../SystemView/SEGGER/SEGGER_SYSVIEW.c ****     structure and contain a length field.
  72:../../../SystemView/SEGGER/SEGGER_SYSVIEW.c ****     <ID><Lenght><Data><TimeStampDelta>
  73:../../../SystemView/SEGGER/SEGGER_SYSVIEW.c **** 
  74:../../../SystemView/SEGGER/SEGGER_SYSVIEW.c ****     Packets with IDs >= 32 always contain a length field.
  75:../../../SystemView/SEGGER/SEGGER_SYSVIEW.c ****     <ID><Length><Data><TimeStampDelta>
  76:../../../SystemView/SEGGER/SEGGER_SYSVIEW.c **** 
  77:../../../SystemView/SEGGER/SEGGER_SYSVIEW.c ****   Packet IDs:
  78:../../../SystemView/SEGGER/SEGGER_SYSVIEW.c ****        0..  31 : Standard packets, known by SystemViewer.
  79:../../../SystemView/SEGGER/SEGGER_SYSVIEW.c ****       32..1023 : OS-definable packets, described in a SystemView description file.
  80:../../../SystemView/SEGGER/SEGGER_SYSVIEW.c ****     1024..2047 : User-definable packets, described in a SystemView description file.
  81:../../../SystemView/SEGGER/SEGGER_SYSVIEW.c ****     2048..32767: Undefined.
  82:../../../SystemView/SEGGER/SEGGER_SYSVIEW.c **** 
  83:../../../SystemView/SEGGER/SEGGER_SYSVIEW.c ****   Data encoding:
  84:../../../SystemView/SEGGER/SEGGER_SYSVIEW.c ****     Basic types (int, short, char, ...):
  85:../../../SystemView/SEGGER/SEGGER_SYSVIEW.c ****       Basic types are encoded little endian with most-significant bit variant
  86:../../../SystemView/SEGGER/SEGGER_SYSVIEW.c ****       encoding.
  87:../../../SystemView/SEGGER/SEGGER_SYSVIEW.c ****       Each encoded byte contains 7 data bits [6:0] and the MSB continuation bit.
  88:../../../SystemView/SEGGER/SEGGER_SYSVIEW.c ****       The continuation bit indicates whether the next byte belongs to the data
  89:../../../SystemView/SEGGER/SEGGER_SYSVIEW.c ****       (bit set) or this is the last byte (bit clear).
  90:../../../SystemView/SEGGER/SEGGER_SYSVIEW.c ****       The most significant bits of data are encoded first, proceeding to the
  91:../../../SystemView/SEGGER/SEGGER_SYSVIEW.c ****       least significant bits in the final byte (little endian).
  92:../../../SystemView/SEGGER/SEGGER_SYSVIEW.c **** 
  93:../../../SystemView/SEGGER/SEGGER_SYSVIEW.c ****       Example encoding:
  94:../../../SystemView/SEGGER/SEGGER_SYSVIEW.c ****         Data: 0x1F4 (500)
  95:../../../SystemView/SEGGER/SEGGER_SYSVIEW.c ****         Encoded: 0xF4 (First 7 data bits 74 | Continuation bit)
  96:../../../SystemView/SEGGER/SEGGER_SYSVIEW.c ****                  0x03 (Second 7 data bits 03, no continuation)
  97:../../../SystemView/SEGGER/SEGGER_SYSVIEW.c **** 
  98:../../../SystemView/SEGGER/SEGGER_SYSVIEW.c ****         Data: 0xFFFFFFFF
  99:../../../SystemView/SEGGER/SEGGER_SYSVIEW.c ****         Encoded: 0xFF 0xFF 0xFF 0xFF 0x0F
 100:../../../SystemView/SEGGER/SEGGER_SYSVIEW.c **** 
 101:../../../SystemView/SEGGER/SEGGER_SYSVIEW.c ****         Data: 0xA2 (162),   0x03 (3), 0x7000
 102:../../../SystemView/SEGGER/SEGGER_SYSVIEW.c ****         Encoded: 0xA2 0x01  0x03      0x80 0xE0 0x01
 103:../../../SystemView/SEGGER/SEGGER_SYSVIEW.c **** 
ARM GAS  /tmp/ccJhHFds.s 			page 4


 104:../../../SystemView/SEGGER/SEGGER_SYSVIEW.c ****     Byte arrays and strings:
 105:../../../SystemView/SEGGER/SEGGER_SYSVIEW.c ****       Byte arrays and strings are encoded as <NumBytes> followed by the raw data.
 106:../../../SystemView/SEGGER/SEGGER_SYSVIEW.c ****       NumBytes is encoded as a basic type with a theoretical maximum of 4G.
 107:../../../SystemView/SEGGER/SEGGER_SYSVIEW.c **** 
 108:../../../SystemView/SEGGER/SEGGER_SYSVIEW.c ****       Example encoding:
 109:../../../SystemView/SEGGER/SEGGER_SYSVIEW.c ****         Data: "Hello World\0" (0x48 0x65 0x6C 0x6C 0x6F 0x20 0x57 0x6F 0x72 0x6C 0x64 0x00)
 110:../../../SystemView/SEGGER/SEGGER_SYSVIEW.c ****         Encoded: 0x0B 0x48 0x65 0x6C 0x6C 0x6F 0x20 0x57 0x6F 0x72 0x6C 0x64
 111:../../../SystemView/SEGGER/SEGGER_SYSVIEW.c **** 
 112:../../../SystemView/SEGGER/SEGGER_SYSVIEW.c ****   Examples packets:
 113:../../../SystemView/SEGGER/SEGGER_SYSVIEW.c ****   01 F4 03 80 80 10 // Overflow packet. Data is a single U32.
 114:../../../SystemView/SEGGER/SEGGER_SYSVIEW.c ****                        This packet means: 500 packets lost, Timestamp is 0x40000
 115:../../../SystemView/SEGGER/SEGGER_SYSVIEW.c **** 
 116:../../../SystemView/SEGGER/SEGGER_SYSVIEW.c ****   02 0F 50          // ISR(15) Enter. Timestamp 80 (0x50)
 117:../../../SystemView/SEGGER/SEGGER_SYSVIEW.c **** 
 118:../../../SystemView/SEGGER/SEGGER_SYSVIEW.c ****   03 20             // ISR Exit. Timestamp 32 (0x20) (Shortest possible packet.)
 119:../../../SystemView/SEGGER/SEGGER_SYSVIEW.c **** 
 120:../../../SystemView/SEGGER/SEGGER_SYSVIEW.c ****   Sample code for user defined Packets:
 121:../../../SystemView/SEGGER/SEGGER_SYSVIEW.c ****     #define MY_ID   0x400                // Any value between 0x400 and 0x7FF
 122:../../../SystemView/SEGGER/SEGGER_SYSVIEW.c ****     void SendMyPacket(unsigned Para0, unsigned Para1, const char* s) {
 123:../../../SystemView/SEGGER/SEGGER_SYSVIEW.c ****       U8  aPacket[SEGGER_SYSVIEW_INFO_SIZE + 2 * SEGGER_SYSVIEW_QUANTA_U32 + MAX_STR_LEN + 1];
 124:../../../SystemView/SEGGER/SEGGER_SYSVIEW.c ****       U8* pPayload;
 125:../../../SystemView/SEGGER/SEGGER_SYSVIEW.c ****       //
 126:../../../SystemView/SEGGER/SEGGER_SYSVIEW.c ****       pPayload = SEGGER_SYSVIEW_PPREPARE_PACKET(aPacket);               // Prepare the packet for S
 127:../../../SystemView/SEGGER/SEGGER_SYSVIEW.c ****       pPayload = SEGGER_SYSVIEW_EncodeU32(pPayload, Para0);             // Add the first parameter 
 128:../../../SystemView/SEGGER/SEGGER_SYSVIEW.c ****       pPayload = SEGGER_SYSVIEW_EncodeU32(pPayload, Para1);             // Add the second parameter
 129:../../../SystemView/SEGGER/SEGGER_SYSVIEW.c ****       pPayload = SEGGER_SYSVIEW_EncodeString(pPayload, s, MAX_STR_LEN); // Add the string to the pa
 130:../../../SystemView/SEGGER/SEGGER_SYSVIEW.c ****       //
 131:../../../SystemView/SEGGER/SEGGER_SYSVIEW.c ****       SEGGER_SYSVIEW_SendPacket(&aPacket[0], pPayload, MY_ID);          // Send the packet with Eve
 132:../../../SystemView/SEGGER/SEGGER_SYSVIEW.c ****     }
 133:../../../SystemView/SEGGER/SEGGER_SYSVIEW.c **** 
 134:../../../SystemView/SEGGER/SEGGER_SYSVIEW.c ****     #define MY_ID_1 0x401
 135:../../../SystemView/SEGGER/SEGGER_SYSVIEW.c ****     void SendOnePara(unsigned Para0) {
 136:../../../SystemView/SEGGER/SEGGER_SYSVIEW.c ****       SEGGER_SYSVIEW_RecordU32(MY_ID_1, Para0);
 137:../../../SystemView/SEGGER/SEGGER_SYSVIEW.c ****     }
 138:../../../SystemView/SEGGER/SEGGER_SYSVIEW.c **** 
 139:../../../SystemView/SEGGER/SEGGER_SYSVIEW.c **** */
 140:../../../SystemView/SEGGER/SEGGER_SYSVIEW.c **** 
 141:../../../SystemView/SEGGER/SEGGER_SYSVIEW.c **** /*********************************************************************
 142:../../../SystemView/SEGGER/SEGGER_SYSVIEW.c **** *
 143:../../../SystemView/SEGGER/SEGGER_SYSVIEW.c **** *       #include section
 144:../../../SystemView/SEGGER/SEGGER_SYSVIEW.c **** *
 145:../../../SystemView/SEGGER/SEGGER_SYSVIEW.c **** **********************************************************************
 146:../../../SystemView/SEGGER/SEGGER_SYSVIEW.c **** */
 147:../../../SystemView/SEGGER/SEGGER_SYSVIEW.c **** 
 148:../../../SystemView/SEGGER/SEGGER_SYSVIEW.c **** #include "SEGGER_SYSVIEW_Int.h"
 149:../../../SystemView/SEGGER/SEGGER_SYSVIEW.c **** #include "SEGGER_RTT.h"
 150:../../../SystemView/SEGGER/SEGGER_SYSVIEW.c **** #include <string.h>
 151:../../../SystemView/SEGGER/SEGGER_SYSVIEW.c **** #include <stdlib.h>
 152:../../../SystemView/SEGGER/SEGGER_SYSVIEW.c **** #include <stdarg.h>
 153:../../../SystemView/SEGGER/SEGGER_SYSVIEW.c **** 
 154:../../../SystemView/SEGGER/SEGGER_SYSVIEW.c **** /*********************************************************************
 155:../../../SystemView/SEGGER/SEGGER_SYSVIEW.c **** *
 156:../../../SystemView/SEGGER/SEGGER_SYSVIEW.c **** *       Defines, fixed
 157:../../../SystemView/SEGGER/SEGGER_SYSVIEW.c **** *
 158:../../../SystemView/SEGGER/SEGGER_SYSVIEW.c **** **********************************************************************
 159:../../../SystemView/SEGGER/SEGGER_SYSVIEW.c **** */
 160:../../../SystemView/SEGGER/SEGGER_SYSVIEW.c **** #if SEGGER_SYSVIEW_ID_SHIFT
ARM GAS  /tmp/ccJhHFds.s 			page 5


 161:../../../SystemView/SEGGER/SEGGER_SYSVIEW.c ****   #define SHRINK_ID(Id)   (((Id) - _SYSVIEW_Globals.RAMBaseAddress) >> SEGGER_SYSVIEW_ID_SHIFT)
 162:../../../SystemView/SEGGER/SEGGER_SYSVIEW.c **** #else
 163:../../../SystemView/SEGGER/SEGGER_SYSVIEW.c ****   #define SHRINK_ID(Id)   ((Id) - _SYSVIEW_Globals.RAMBaseAddress)
 164:../../../SystemView/SEGGER/SEGGER_SYSVIEW.c **** #endif
 165:../../../SystemView/SEGGER/SEGGER_SYSVIEW.c **** 
 166:../../../SystemView/SEGGER/SEGGER_SYSVIEW.c **** #if SEGGER_SYSVIEW_RTT_CHANNEL > 0
 167:../../../SystemView/SEGGER/SEGGER_SYSVIEW.c ****   #define CHANNEL_ID_UP   SEGGER_SYSVIEW_RTT_CHANNEL
 168:../../../SystemView/SEGGER/SEGGER_SYSVIEW.c ****   #define CHANNEL_ID_DOWN SEGGER_SYSVIEW_RTT_CHANNEL
 169:../../../SystemView/SEGGER/SEGGER_SYSVIEW.c **** #else
 170:../../../SystemView/SEGGER/SEGGER_SYSVIEW.c ****   #define CHANNEL_ID_UP   _SYSVIEW_Globals.UpChannel
 171:../../../SystemView/SEGGER/SEGGER_SYSVIEW.c ****   #define CHANNEL_ID_DOWN _SYSVIEW_Globals.DownChannel
 172:../../../SystemView/SEGGER/SEGGER_SYSVIEW.c **** #endif
 173:../../../SystemView/SEGGER/SEGGER_SYSVIEW.c **** 
 174:../../../SystemView/SEGGER/SEGGER_SYSVIEW.c **** /*********************************************************************
 175:../../../SystemView/SEGGER/SEGGER_SYSVIEW.c **** *
 176:../../../SystemView/SEGGER/SEGGER_SYSVIEW.c **** *       Defines, configurable
 177:../../../SystemView/SEGGER/SEGGER_SYSVIEW.c **** *
 178:../../../SystemView/SEGGER/SEGGER_SYSVIEW.c **** **********************************************************************
 179:../../../SystemView/SEGGER/SEGGER_SYSVIEW.c **** */
 180:../../../SystemView/SEGGER/SEGGER_SYSVIEW.c **** // Timestamps may be less than full 32-bits, in which case we need to zero
 181:../../../SystemView/SEGGER/SEGGER_SYSVIEW.c **** // the unused bits to properly handle overflows.
 182:../../../SystemView/SEGGER/SEGGER_SYSVIEW.c **** // Note that this is a quite common scenario, as a 32-bit time such as
 183:../../../SystemView/SEGGER/SEGGER_SYSVIEW.c **** // SysTick might be scaled down to reduce bandwith
 184:../../../SystemView/SEGGER/SEGGER_SYSVIEW.c **** // or a 16-bit hardware time might be used.
 185:../../../SystemView/SEGGER/SEGGER_SYSVIEW.c **** #if SEGGER_SYSVIEW_TIMESTAMP_BITS < 32  // Eliminate unused bits in case hardware timestamps are le
 186:../../../SystemView/SEGGER/SEGGER_SYSVIEW.c ****   #define MAKE_DELTA_32BIT(Delta) Delta <<= 32 - SEGGER_SYSVIEW_TIMESTAMP_BITS; \
 187:../../../SystemView/SEGGER/SEGGER_SYSVIEW.c ****                                   Delta >>= 32 - SEGGER_SYSVIEW_TIMESTAMP_BITS;
 188:../../../SystemView/SEGGER/SEGGER_SYSVIEW.c **** #else
 189:../../../SystemView/SEGGER/SEGGER_SYSVIEW.c ****   #define MAKE_DELTA_32BIT(Delta)
 190:../../../SystemView/SEGGER/SEGGER_SYSVIEW.c **** #endif
 191:../../../SystemView/SEGGER/SEGGER_SYSVIEW.c **** 
 192:../../../SystemView/SEGGER/SEGGER_SYSVIEW.c **** 
 193:../../../SystemView/SEGGER/SEGGER_SYSVIEW.c **** /*********************************************************************
 194:../../../SystemView/SEGGER/SEGGER_SYSVIEW.c **** *
 195:../../../SystemView/SEGGER/SEGGER_SYSVIEW.c **** *       Defines, fixed
 196:../../../SystemView/SEGGER/SEGGER_SYSVIEW.c **** *
 197:../../../SystemView/SEGGER/SEGGER_SYSVIEW.c **** **********************************************************************
 198:../../../SystemView/SEGGER/SEGGER_SYSVIEW.c **** */
 199:../../../SystemView/SEGGER/SEGGER_SYSVIEW.c **** #define ENABLE_STATE_OFF        0
 200:../../../SystemView/SEGGER/SEGGER_SYSVIEW.c **** #define ENABLE_STATE_ON         1
 201:../../../SystemView/SEGGER/SEGGER_SYSVIEW.c **** #define ENABLE_STATE_DROPPING   2
 202:../../../SystemView/SEGGER/SEGGER_SYSVIEW.c **** 
 203:../../../SystemView/SEGGER/SEGGER_SYSVIEW.c **** #define FORMAT_FLAG_LEFT_JUSTIFY   (1u << 0)
 204:../../../SystemView/SEGGER/SEGGER_SYSVIEW.c **** #define FORMAT_FLAG_PAD_ZERO       (1u << 1)
 205:../../../SystemView/SEGGER/SEGGER_SYSVIEW.c **** #define FORMAT_FLAG_PRINT_SIGN     (1u << 2)
 206:../../../SystemView/SEGGER/SEGGER_SYSVIEW.c **** #define FORMAT_FLAG_ALTERNATE      (1u << 3)
 207:../../../SystemView/SEGGER/SEGGER_SYSVIEW.c **** 
 208:../../../SystemView/SEGGER/SEGGER_SYSVIEW.c **** #define MODULE_EVENT_OFFSET        (512)
 209:../../../SystemView/SEGGER/SEGGER_SYSVIEW.c **** 
 210:../../../SystemView/SEGGER/SEGGER_SYSVIEW.c **** /*********************************************************************
 211:../../../SystemView/SEGGER/SEGGER_SYSVIEW.c **** *
 212:../../../SystemView/SEGGER/SEGGER_SYSVIEW.c **** *       Types, local
 213:../../../SystemView/SEGGER/SEGGER_SYSVIEW.c **** *
 214:../../../SystemView/SEGGER/SEGGER_SYSVIEW.c **** **********************************************************************
 215:../../../SystemView/SEGGER/SEGGER_SYSVIEW.c **** */
 216:../../../SystemView/SEGGER/SEGGER_SYSVIEW.c **** typedef struct {
 217:../../../SystemView/SEGGER/SEGGER_SYSVIEW.c ****   U8*       pBuffer;
ARM GAS  /tmp/ccJhHFds.s 			page 6


 218:../../../SystemView/SEGGER/SEGGER_SYSVIEW.c ****   U8*       pPayload;
 219:../../../SystemView/SEGGER/SEGGER_SYSVIEW.c ****   U8*       pPayloadStart;
 220:../../../SystemView/SEGGER/SEGGER_SYSVIEW.c ****   U32       Options;
 221:../../../SystemView/SEGGER/SEGGER_SYSVIEW.c ****   unsigned  Cnt;
 222:../../../SystemView/SEGGER/SEGGER_SYSVIEW.c **** } SEGGER_SYSVIEW_PRINTF_DESC;
 223:../../../SystemView/SEGGER/SEGGER_SYSVIEW.c **** 
 224:../../../SystemView/SEGGER/SEGGER_SYSVIEW.c **** typedef struct {
 225:../../../SystemView/SEGGER/SEGGER_SYSVIEW.c ****         U8                      EnableState;   // 0: Disabled, 1: Enabled, (2: Dropping)
 226:../../../SystemView/SEGGER/SEGGER_SYSVIEW.c ****         U8                      UpChannel;
 227:../../../SystemView/SEGGER/SEGGER_SYSVIEW.c ****         U8                      RecursionCnt;
 228:../../../SystemView/SEGGER/SEGGER_SYSVIEW.c ****         U32                     SysFreq;
 229:../../../SystemView/SEGGER/SEGGER_SYSVIEW.c ****         U32                     CPUFreq;
 230:../../../SystemView/SEGGER/SEGGER_SYSVIEW.c ****         U32                     LastTxTimeStamp;
 231:../../../SystemView/SEGGER/SEGGER_SYSVIEW.c ****         U32                     RAMBaseAddress;
 232:../../../SystemView/SEGGER/SEGGER_SYSVIEW.c **** #if (SEGGER_SYSVIEW_POST_MORTEM_MODE == 1)
 233:../../../SystemView/SEGGER/SEGGER_SYSVIEW.c ****         U32                     PacketCount;
 234:../../../SystemView/SEGGER/SEGGER_SYSVIEW.c **** #else
 235:../../../SystemView/SEGGER/SEGGER_SYSVIEW.c ****         U32                     DropCount;
 236:../../../SystemView/SEGGER/SEGGER_SYSVIEW.c ****         U8                      DownChannel;
 237:../../../SystemView/SEGGER/SEGGER_SYSVIEW.c **** #endif
 238:../../../SystemView/SEGGER/SEGGER_SYSVIEW.c ****         U32                     DisabledEvents;
 239:../../../SystemView/SEGGER/SEGGER_SYSVIEW.c ****   const SEGGER_SYSVIEW_OS_API*  pOSAPI;
 240:../../../SystemView/SEGGER/SEGGER_SYSVIEW.c ****         SEGGER_SYSVIEW_SEND_SYS_DESC_FUNC*   pfSendSysDesc;
 241:../../../SystemView/SEGGER/SEGGER_SYSVIEW.c **** } SEGGER_SYSVIEW_GLOBALS;
 242:../../../SystemView/SEGGER/SEGGER_SYSVIEW.c **** 
 243:../../../SystemView/SEGGER/SEGGER_SYSVIEW.c **** /*********************************************************************
 244:../../../SystemView/SEGGER/SEGGER_SYSVIEW.c **** *
 245:../../../SystemView/SEGGER/SEGGER_SYSVIEW.c **** *       Function prototypes, required
 246:../../../SystemView/SEGGER/SEGGER_SYSVIEW.c **** *
 247:../../../SystemView/SEGGER/SEGGER_SYSVIEW.c **** **********************************************************************
 248:../../../SystemView/SEGGER/SEGGER_SYSVIEW.c **** */
 249:../../../SystemView/SEGGER/SEGGER_SYSVIEW.c **** static void _SendPacket(U8* pStartPacket, U8* pEndPacket, unsigned int EventId);
 250:../../../SystemView/SEGGER/SEGGER_SYSVIEW.c **** 
 251:../../../SystemView/SEGGER/SEGGER_SYSVIEW.c **** /*********************************************************************
 252:../../../SystemView/SEGGER/SEGGER_SYSVIEW.c **** *
 253:../../../SystemView/SEGGER/SEGGER_SYSVIEW.c **** *       Static data
 254:../../../SystemView/SEGGER/SEGGER_SYSVIEW.c **** *
 255:../../../SystemView/SEGGER/SEGGER_SYSVIEW.c **** **********************************************************************
 256:../../../SystemView/SEGGER/SEGGER_SYSVIEW.c **** */
 257:../../../SystemView/SEGGER/SEGGER_SYSVIEW.c **** static const U8 _abSync[10] = { 0x00, 0x00, 0x00, 0x00, 0x00, 0x00, 0x00, 0x00, 0x00, 0x00};
 258:../../../SystemView/SEGGER/SEGGER_SYSVIEW.c **** 
 259:../../../SystemView/SEGGER/SEGGER_SYSVIEW.c **** #ifdef SEGGER_SYSVIEW_SECTION
 260:../../../SystemView/SEGGER/SEGGER_SYSVIEW.c ****   #if (defined __GNUC__)
 261:../../../SystemView/SEGGER/SEGGER_SYSVIEW.c ****     __attribute__ ((section (SEGGER_SYSVIEW_SECTION))) static char _UpBuffer  [SEGGER_SYSVIEW_RTT_B
 262:../../../SystemView/SEGGER/SEGGER_SYSVIEW.c ****     #if (SEGGER_SYSVIEW_POST_MORTEM_MODE != 1)
 263:../../../SystemView/SEGGER/SEGGER_SYSVIEW.c ****     __attribute__ ((section (SEGGER_SYSVIEW_SECTION))) static char _DownBuffer[8];  // Small, fixed
 264:../../../SystemView/SEGGER/SEGGER_SYSVIEW.c ****     #endif
 265:../../../SystemView/SEGGER/SEGGER_SYSVIEW.c ****   #elif (defined __ICCARM__) || (defined __ICCRX__)
 266:../../../SystemView/SEGGER/SEGGER_SYSVIEW.c ****     #pragma location=SEGGER_SYSVIEW_SECTION
 267:../../../SystemView/SEGGER/SEGGER_SYSVIEW.c ****     static char _UpBuffer  [SEGGER_SYSVIEW_RTT_BUFFER_SIZE];
 268:../../../SystemView/SEGGER/SEGGER_SYSVIEW.c ****     #pragma location=SEGGER_SYSVIEW_SECTION
 269:../../../SystemView/SEGGER/SEGGER_SYSVIEW.c ****     static char _DownBuffer[8];  // Small, fixed-size buffer, for back-channel comms
 270:../../../SystemView/SEGGER/SEGGER_SYSVIEW.c ****   #elif (defined __CC_ARM)
 271:../../../SystemView/SEGGER/SEGGER_SYSVIEW.c ****     __attribute__ ((section (SEGGER_SYSVIEW_SECTION), zero_init)) static char _UpBuffer  [SEGGER_SY
 272:../../../SystemView/SEGGER/SEGGER_SYSVIEW.c ****     #if (SEGGER_SYSVIEW_POST_MORTEM_MODE != 1)
 273:../../../SystemView/SEGGER/SEGGER_SYSVIEW.c ****     __attribute__ ((section (SEGGER_SYSVIEW_SECTION), zero_init)) static char _DownBuffer[8];  // S
 274:../../../SystemView/SEGGER/SEGGER_SYSVIEW.c ****     #endif
ARM GAS  /tmp/ccJhHFds.s 			page 7


 275:../../../SystemView/SEGGER/SEGGER_SYSVIEW.c ****   #else
 276:../../../SystemView/SEGGER/SEGGER_SYSVIEW.c ****     static char _UpBuffer  [SEGGER_SYSVIEW_RTT_BUFFER_SIZE];
 277:../../../SystemView/SEGGER/SEGGER_SYSVIEW.c ****     #if (SEGGER_SYSVIEW_POST_MORTEM_MODE != 1)
 278:../../../SystemView/SEGGER/SEGGER_SYSVIEW.c ****     static char _DownBuffer[8];  // Small, fixed-size buffer, for back-channel comms
 279:../../../SystemView/SEGGER/SEGGER_SYSVIEW.c ****     #endif
 280:../../../SystemView/SEGGER/SEGGER_SYSVIEW.c ****   #endif
 281:../../../SystemView/SEGGER/SEGGER_SYSVIEW.c **** #else
 282:../../../SystemView/SEGGER/SEGGER_SYSVIEW.c ****     static char _UpBuffer  [SEGGER_SYSVIEW_RTT_BUFFER_SIZE];
 283:../../../SystemView/SEGGER/SEGGER_SYSVIEW.c ****     #if (SEGGER_SYSVIEW_POST_MORTEM_MODE != 1)
 284:../../../SystemView/SEGGER/SEGGER_SYSVIEW.c ****     static char _DownBuffer[8];  // Small, fixed-size buffer, for back-channel comms
 285:../../../SystemView/SEGGER/SEGGER_SYSVIEW.c ****     #endif
 286:../../../SystemView/SEGGER/SEGGER_SYSVIEW.c **** #endif
 287:../../../SystemView/SEGGER/SEGGER_SYSVIEW.c **** 
 288:../../../SystemView/SEGGER/SEGGER_SYSVIEW.c **** static SEGGER_SYSVIEW_GLOBALS _SYSVIEW_Globals;
 289:../../../SystemView/SEGGER/SEGGER_SYSVIEW.c **** 
 290:../../../SystemView/SEGGER/SEGGER_SYSVIEW.c **** static SEGGER_SYSVIEW_MODULE* _pFirstModule;
 291:../../../SystemView/SEGGER/SEGGER_SYSVIEW.c **** static U8                     _NumModules;
 292:../../../SystemView/SEGGER/SEGGER_SYSVIEW.c **** 
 293:../../../SystemView/SEGGER/SEGGER_SYSVIEW.c **** /*********************************************************************
 294:../../../SystemView/SEGGER/SEGGER_SYSVIEW.c **** *
 295:../../../SystemView/SEGGER/SEGGER_SYSVIEW.c **** *       Static code
 296:../../../SystemView/SEGGER/SEGGER_SYSVIEW.c **** *
 297:../../../SystemView/SEGGER/SEGGER_SYSVIEW.c **** **********************************************************************
 298:../../../SystemView/SEGGER/SEGGER_SYSVIEW.c **** */
 299:../../../SystemView/SEGGER/SEGGER_SYSVIEW.c **** 
 300:../../../SystemView/SEGGER/SEGGER_SYSVIEW.c **** #define ENCODE_U32(pDest, Value) {                                                  \
 301:../../../SystemView/SEGGER/SEGGER_SYSVIEW.c ****                                    U8* pSysviewPointer;                             \
 302:../../../SystemView/SEGGER/SEGGER_SYSVIEW.c ****                                    U32 SysViewData;                                 \
 303:../../../SystemView/SEGGER/SEGGER_SYSVIEW.c ****                                    pSysviewPointer = pDest;                         \
 304:../../../SystemView/SEGGER/SEGGER_SYSVIEW.c ****                                    SysViewData = Value;                             \
 305:../../../SystemView/SEGGER/SEGGER_SYSVIEW.c ****                                    while(SysViewData > 0x7F) {                      \
 306:../../../SystemView/SEGGER/SEGGER_SYSVIEW.c ****                                      *pSysviewPointer++ = (U8)(SysViewData | 0x80); \
 307:../../../SystemView/SEGGER/SEGGER_SYSVIEW.c ****                                      SysViewData >>= 7;                             \
 308:../../../SystemView/SEGGER/SEGGER_SYSVIEW.c ****                                    };                                               \
 309:../../../SystemView/SEGGER/SEGGER_SYSVIEW.c ****                                    *pSysviewPointer++ = (U8)SysViewData;            \
 310:../../../SystemView/SEGGER/SEGGER_SYSVIEW.c ****                                    pDest = pSysviewPointer;                         \
 311:../../../SystemView/SEGGER/SEGGER_SYSVIEW.c ****                                  };
 312:../../../SystemView/SEGGER/SEGGER_SYSVIEW.c **** 
 313:../../../SystemView/SEGGER/SEGGER_SYSVIEW.c **** 
 314:../../../SystemView/SEGGER/SEGGER_SYSVIEW.c **** 
 315:../../../SystemView/SEGGER/SEGGER_SYSVIEW.c **** #if (SEGGER_SYSVIEW_USE_STATIC_BUFFER == 1)
 316:../../../SystemView/SEGGER/SEGGER_SYSVIEW.c **** static U8 _aPacket[SEGGER_SYSVIEW_MAX_PACKET_SIZE];
 317:../../../SystemView/SEGGER/SEGGER_SYSVIEW.c **** 
 318:../../../SystemView/SEGGER/SEGGER_SYSVIEW.c **** #define RECORD_START(PacketSize)  SEGGER_SYSVIEW_LOCK();                            \
 319:../../../SystemView/SEGGER/SEGGER_SYSVIEW.c ****                                   pPayloadStart = _PreparePacket(_aPacket);
 320:../../../SystemView/SEGGER/SEGGER_SYSVIEW.c **** 
 321:../../../SystemView/SEGGER/SEGGER_SYSVIEW.c **** #define RECORD_END()              SEGGER_SYSVIEW_UNLOCK()
 322:../../../SystemView/SEGGER/SEGGER_SYSVIEW.c **** 
 323:../../../SystemView/SEGGER/SEGGER_SYSVIEW.c **** #else
 324:../../../SystemView/SEGGER/SEGGER_SYSVIEW.c **** 
 325:../../../SystemView/SEGGER/SEGGER_SYSVIEW.c **** #define RECORD_START(PacketSize)  U8 aPacket[(PacketSize)];                         \
 326:../../../SystemView/SEGGER/SEGGER_SYSVIEW.c ****                                   pPayloadStart = _PreparePacket(aPacket);          \
 327:../../../SystemView/SEGGER/SEGGER_SYSVIEW.c **** 
 328:../../../SystemView/SEGGER/SEGGER_SYSVIEW.c **** #define RECORD_END()
 329:../../../SystemView/SEGGER/SEGGER_SYSVIEW.c **** 
 330:../../../SystemView/SEGGER/SEGGER_SYSVIEW.c **** #endif
 331:../../../SystemView/SEGGER/SEGGER_SYSVIEW.c **** 
ARM GAS  /tmp/ccJhHFds.s 			page 8


 332:../../../SystemView/SEGGER/SEGGER_SYSVIEW.c **** /*********************************************************************
 333:../../../SystemView/SEGGER/SEGGER_SYSVIEW.c **** *
 334:../../../SystemView/SEGGER/SEGGER_SYSVIEW.c **** *       _EncodeData()
 335:../../../SystemView/SEGGER/SEGGER_SYSVIEW.c **** *
 336:../../../SystemView/SEGGER/SEGGER_SYSVIEW.c **** *  Function description
 337:../../../SystemView/SEGGER/SEGGER_SYSVIEW.c **** *    Encode a byte buffer in variable-length format.
 338:../../../SystemView/SEGGER/SEGGER_SYSVIEW.c **** *
 339:../../../SystemView/SEGGER/SEGGER_SYSVIEW.c **** *  Parameters
 340:../../../SystemView/SEGGER/SEGGER_SYSVIEW.c **** *    pPayload - Pointer to where string will be encoded.
 341:../../../SystemView/SEGGER/SEGGER_SYSVIEW.c **** *    pSrc     - Pointer to data buffer to be encoded.
 342:../../../SystemView/SEGGER/SEGGER_SYSVIEW.c **** *    NumBytes - Number of bytes in the buffer to be encoded.
 343:../../../SystemView/SEGGER/SEGGER_SYSVIEW.c **** *
 344:../../../SystemView/SEGGER/SEGGER_SYSVIEW.c **** *  Return value
 345:../../../SystemView/SEGGER/SEGGER_SYSVIEW.c **** *    Pointer to the byte following the value, i.e. the first free
 346:../../../SystemView/SEGGER/SEGGER_SYSVIEW.c **** *    byte in the payload and the next position to store payload
 347:../../../SystemView/SEGGER/SEGGER_SYSVIEW.c **** *    content.
 348:../../../SystemView/SEGGER/SEGGER_SYSVIEW.c **** *
 349:../../../SystemView/SEGGER/SEGGER_SYSVIEW.c **** *  Additional information
 350:../../../SystemView/SEGGER/SEGGER_SYSVIEW.c **** *    The data is encoded as a count byte followed by the contents
 351:../../../SystemView/SEGGER/SEGGER_SYSVIEW.c **** *    of the data buffer.
 352:../../../SystemView/SEGGER/SEGGER_SYSVIEW.c **** *    Make sure NumBytes + 1 bytes are free for the payload.
 353:../../../SystemView/SEGGER/SEGGER_SYSVIEW.c **** */
 354:../../../SystemView/SEGGER/SEGGER_SYSVIEW.c **** static U8* _EncodeData(U8* pPayload, const char* pSrc, unsigned int NumBytes) {
  69              		.loc 1 354 0
  70              		.cfi_startproc
  71              		@ args = 0, pretend = 0, frame = 24
  72              		@ frame_needed = 1, uses_anonymous_args = 0
  73              		@ link register save eliminated.
  74 0000 80B4     		push	{r7}
  75              	.LCFI0:
  76              		.cfi_def_cfa_offset 4
  77              		.cfi_offset 7, -4
  78 0002 87B0     		sub	sp, sp, #28
  79              	.LCFI1:
  80              		.cfi_def_cfa_offset 32
  81 0004 00AF     		add	r7, sp, #0
  82              	.LCFI2:
  83              		.cfi_def_cfa_register 7
  84 0006 F860     		str	r0, [r7, #12]
  85 0008 B960     		str	r1, [r7, #8]
  86 000a 7A60     		str	r2, [r7, #4]
 355:../../../SystemView/SEGGER/SEGGER_SYSVIEW.c ****   unsigned int n;
 356:../../../SystemView/SEGGER/SEGGER_SYSVIEW.c ****   //
 357:../../../SystemView/SEGGER/SEGGER_SYSVIEW.c ****   n = 0;
  87              		.loc 1 357 0
  88 000c 0023     		movs	r3, #0
  89 000e 7B61     		str	r3, [r7, #20]
 358:../../../SystemView/SEGGER/SEGGER_SYSVIEW.c ****   *pPayload++ = NumBytes;
  90              		.loc 1 358 0
  91 0010 FB68     		ldr	r3, [r7, #12]
  92 0012 5A1C     		adds	r2, r3, #1
  93 0014 FA60     		str	r2, [r7, #12]
  94 0016 7A68     		ldr	r2, [r7, #4]
  95 0018 D2B2     		uxtb	r2, r2
  96 001a 1A70     		strb	r2, [r3]
 359:../../../SystemView/SEGGER/SEGGER_SYSVIEW.c ****   while (n < NumBytes) {
  97              		.loc 1 359 0
ARM GAS  /tmp/ccJhHFds.s 			page 9


  98 001c 0AE0     		b	.L2
  99              	.L3:
 360:../../../SystemView/SEGGER/SEGGER_SYSVIEW.c ****     *pPayload++ = *pSrc++;
 100              		.loc 1 360 0
 101 001e FB68     		ldr	r3, [r7, #12]
 102 0020 5A1C     		adds	r2, r3, #1
 103 0022 FA60     		str	r2, [r7, #12]
 104 0024 BA68     		ldr	r2, [r7, #8]
 105 0026 511C     		adds	r1, r2, #1
 106 0028 B960     		str	r1, [r7, #8]
 107 002a 1278     		ldrb	r2, [r2]	@ zero_extendqisi2
 108 002c 1A70     		strb	r2, [r3]
 361:../../../SystemView/SEGGER/SEGGER_SYSVIEW.c ****     n++;
 109              		.loc 1 361 0
 110 002e 7B69     		ldr	r3, [r7, #20]
 111 0030 0133     		adds	r3, r3, #1
 112 0032 7B61     		str	r3, [r7, #20]
 113              	.L2:
 359:../../../SystemView/SEGGER/SEGGER_SYSVIEW.c ****   while (n < NumBytes) {
 114              		.loc 1 359 0
 115 0034 7A69     		ldr	r2, [r7, #20]
 116 0036 7B68     		ldr	r3, [r7, #4]
 117 0038 9A42     		cmp	r2, r3
 118 003a F0D3     		bcc	.L3
 362:../../../SystemView/SEGGER/SEGGER_SYSVIEW.c ****   }
 363:../../../SystemView/SEGGER/SEGGER_SYSVIEW.c ****   return pPayload;
 119              		.loc 1 363 0
 120 003c FB68     		ldr	r3, [r7, #12]
 364:../../../SystemView/SEGGER/SEGGER_SYSVIEW.c **** }
 121              		.loc 1 364 0
 122 003e 1846     		mov	r0, r3
 123 0040 1C37     		adds	r7, r7, #28
 124              	.LCFI3:
 125              		.cfi_def_cfa_offset 4
 126 0042 BD46     		mov	sp, r7
 127              	.LCFI4:
 128              		.cfi_def_cfa_register 13
 129              		@ sp needed
 130 0044 5DF8047B 		ldr	r7, [sp], #4
 131              	.LCFI5:
 132              		.cfi_restore 7
 133              		.cfi_def_cfa_offset 0
 134 0048 7047     		bx	lr
 135              		.cfi_endproc
 136              	.LFE0:
 138 004a 00BF     		.section	.text._EncodeStr,"ax",%progbits
 139              		.align	2
 140              		.thumb
 141              		.thumb_func
 143              	_EncodeStr:
 144              	.LFB1:
 365:../../../SystemView/SEGGER/SEGGER_SYSVIEW.c **** 
 366:../../../SystemView/SEGGER/SEGGER_SYSVIEW.c **** /*********************************************************************
 367:../../../SystemView/SEGGER/SEGGER_SYSVIEW.c **** *
 368:../../../SystemView/SEGGER/SEGGER_SYSVIEW.c **** *       _EncodeStr()
 369:../../../SystemView/SEGGER/SEGGER_SYSVIEW.c **** *
 370:../../../SystemView/SEGGER/SEGGER_SYSVIEW.c **** *  Function description
ARM GAS  /tmp/ccJhHFds.s 			page 10


 371:../../../SystemView/SEGGER/SEGGER_SYSVIEW.c **** *    Encode a string in variable-length format.
 372:../../../SystemView/SEGGER/SEGGER_SYSVIEW.c **** *
 373:../../../SystemView/SEGGER/SEGGER_SYSVIEW.c **** *  Parameters
 374:../../../SystemView/SEGGER/SEGGER_SYSVIEW.c **** *    pPayload - Pointer to where string will be encoded.
 375:../../../SystemView/SEGGER/SEGGER_SYSVIEW.c **** *    pText    - String to encode.
 376:../../../SystemView/SEGGER/SEGGER_SYSVIEW.c **** *    Limit    - Maximum number of characters to encode from string.
 377:../../../SystemView/SEGGER/SEGGER_SYSVIEW.c **** *
 378:../../../SystemView/SEGGER/SEGGER_SYSVIEW.c **** *  Return value
 379:../../../SystemView/SEGGER/SEGGER_SYSVIEW.c **** *    Pointer to the byte following the value, i.e. the first free
 380:../../../SystemView/SEGGER/SEGGER_SYSVIEW.c **** *    byte in the payload and the next position to store payload
 381:../../../SystemView/SEGGER/SEGGER_SYSVIEW.c **** *    content.
 382:../../../SystemView/SEGGER/SEGGER_SYSVIEW.c **** *
 383:../../../SystemView/SEGGER/SEGGER_SYSVIEW.c **** *  Additional information
 384:../../../SystemView/SEGGER/SEGGER_SYSVIEW.c **** *    The string is encoded as a count byte followed by the contents
 385:../../../SystemView/SEGGER/SEGGER_SYSVIEW.c **** *    of the string.
 386:../../../SystemView/SEGGER/SEGGER_SYSVIEW.c **** *    No more than 1 + Limit bytes will be encoded to the payload.
 387:../../../SystemView/SEGGER/SEGGER_SYSVIEW.c **** */
 388:../../../SystemView/SEGGER/SEGGER_SYSVIEW.c **** static U8 *_EncodeStr(U8 *pPayload, const char *pText, unsigned int Limit) {
 145              		.loc 1 388 0
 146              		.cfi_startproc
 147              		@ args = 0, pretend = 0, frame = 24
 148              		@ frame_needed = 1, uses_anonymous_args = 0
 149              		@ link register save eliminated.
 150 0000 80B4     		push	{r7}
 151              	.LCFI6:
 152              		.cfi_def_cfa_offset 4
 153              		.cfi_offset 7, -4
 154 0002 87B0     		sub	sp, sp, #28
 155              	.LCFI7:
 156              		.cfi_def_cfa_offset 32
 157 0004 00AF     		add	r7, sp, #0
 158              	.LCFI8:
 159              		.cfi_def_cfa_register 7
 160 0006 F860     		str	r0, [r7, #12]
 161 0008 B960     		str	r1, [r7, #8]
 162 000a 7A60     		str	r2, [r7, #4]
 389:../../../SystemView/SEGGER/SEGGER_SYSVIEW.c ****   unsigned int n;
 390:../../../SystemView/SEGGER/SEGGER_SYSVIEW.c ****   unsigned int Len;
 391:../../../SystemView/SEGGER/SEGGER_SYSVIEW.c ****   //
 392:../../../SystemView/SEGGER/SEGGER_SYSVIEW.c ****   // Compute string len
 393:../../../SystemView/SEGGER/SEGGER_SYSVIEW.c ****   //
 394:../../../SystemView/SEGGER/SEGGER_SYSVIEW.c ****   Len = 0;
 163              		.loc 1 394 0
 164 000c 0023     		movs	r3, #0
 165 000e 3B61     		str	r3, [r7, #16]
 395:../../../SystemView/SEGGER/SEGGER_SYSVIEW.c ****   while(*(pText + Len) != 0) {
 166              		.loc 1 395 0
 167 0010 02E0     		b	.L6
 168              	.L7:
 396:../../../SystemView/SEGGER/SEGGER_SYSVIEW.c ****     Len++;
 169              		.loc 1 396 0
 170 0012 3B69     		ldr	r3, [r7, #16]
 171 0014 0133     		adds	r3, r3, #1
 172 0016 3B61     		str	r3, [r7, #16]
 173              	.L6:
 395:../../../SystemView/SEGGER/SEGGER_SYSVIEW.c ****   while(*(pText + Len) != 0) {
 174              		.loc 1 395 0
ARM GAS  /tmp/ccJhHFds.s 			page 11


 175 0018 BA68     		ldr	r2, [r7, #8]
 176 001a 3B69     		ldr	r3, [r7, #16]
 177 001c 1344     		add	r3, r3, r2
 178 001e 1B78     		ldrb	r3, [r3]	@ zero_extendqisi2
 179 0020 002B     		cmp	r3, #0
 180 0022 F6D1     		bne	.L7
 397:../../../SystemView/SEGGER/SEGGER_SYSVIEW.c ****   }
 398:../../../SystemView/SEGGER/SEGGER_SYSVIEW.c ****   if (Len > Limit) {
 181              		.loc 1 398 0
 182 0024 3A69     		ldr	r2, [r7, #16]
 183 0026 7B68     		ldr	r3, [r7, #4]
 184 0028 9A42     		cmp	r2, r3
 185 002a 01D9     		bls	.L8
 399:../../../SystemView/SEGGER/SEGGER_SYSVIEW.c ****     Len = Limit;
 186              		.loc 1 399 0
 187 002c 7B68     		ldr	r3, [r7, #4]
 188 002e 3B61     		str	r3, [r7, #16]
 189              	.L8:
 400:../../../SystemView/SEGGER/SEGGER_SYSVIEW.c ****   }
 401:../../../SystemView/SEGGER/SEGGER_SYSVIEW.c ****   //
 402:../../../SystemView/SEGGER/SEGGER_SYSVIEW.c ****   // Write Len
 403:../../../SystemView/SEGGER/SEGGER_SYSVIEW.c ****   //
 404:../../../SystemView/SEGGER/SEGGER_SYSVIEW.c ****   if (Len < 255)  {
 190              		.loc 1 404 0
 191 0030 3B69     		ldr	r3, [r7, #16]
 192 0032 FE2B     		cmp	r3, #254
 193 0034 06D8     		bhi	.L9
 405:../../../SystemView/SEGGER/SEGGER_SYSVIEW.c ****     *pPayload++ = Len; 
 194              		.loc 1 405 0
 195 0036 FB68     		ldr	r3, [r7, #12]
 196 0038 5A1C     		adds	r2, r3, #1
 197 003a FA60     		str	r2, [r7, #12]
 198 003c 3A69     		ldr	r2, [r7, #16]
 199 003e D2B2     		uxtb	r2, r2
 200 0040 1A70     		strb	r2, [r3]
 201 0042 11E0     		b	.L10
 202              	.L9:
 406:../../../SystemView/SEGGER/SEGGER_SYSVIEW.c ****   } else {
 407:../../../SystemView/SEGGER/SEGGER_SYSVIEW.c ****     *pPayload++ = 255;
 203              		.loc 1 407 0
 204 0044 FB68     		ldr	r3, [r7, #12]
 205 0046 5A1C     		adds	r2, r3, #1
 206 0048 FA60     		str	r2, [r7, #12]
 207 004a FF22     		movs	r2, #255
 208 004c 1A70     		strb	r2, [r3]
 408:../../../SystemView/SEGGER/SEGGER_SYSVIEW.c ****     *pPayload++ = (Len & 255);
 209              		.loc 1 408 0
 210 004e FB68     		ldr	r3, [r7, #12]
 211 0050 5A1C     		adds	r2, r3, #1
 212 0052 FA60     		str	r2, [r7, #12]
 213 0054 3A69     		ldr	r2, [r7, #16]
 214 0056 D2B2     		uxtb	r2, r2
 215 0058 1A70     		strb	r2, [r3]
 409:../../../SystemView/SEGGER/SEGGER_SYSVIEW.c ****     *pPayload++ = ((Len >> 8) & 255);
 216              		.loc 1 409 0
 217 005a FB68     		ldr	r3, [r7, #12]
 218 005c 5A1C     		adds	r2, r3, #1
ARM GAS  /tmp/ccJhHFds.s 			page 12


 219 005e FA60     		str	r2, [r7, #12]
 220 0060 3A69     		ldr	r2, [r7, #16]
 221 0062 120A     		lsrs	r2, r2, #8
 222 0064 D2B2     		uxtb	r2, r2
 223 0066 1A70     		strb	r2, [r3]
 224              	.L10:
 410:../../../SystemView/SEGGER/SEGGER_SYSVIEW.c ****   }
 411:../../../SystemView/SEGGER/SEGGER_SYSVIEW.c ****   //
 412:../../../SystemView/SEGGER/SEGGER_SYSVIEW.c ****   // copy string
 413:../../../SystemView/SEGGER/SEGGER_SYSVIEW.c ****   //
 414:../../../SystemView/SEGGER/SEGGER_SYSVIEW.c ****   n = 0;
 225              		.loc 1 414 0
 226 0068 0023     		movs	r3, #0
 227 006a 7B61     		str	r3, [r7, #20]
 415:../../../SystemView/SEGGER/SEGGER_SYSVIEW.c ****   while (n < Len) {
 228              		.loc 1 415 0
 229 006c 0AE0     		b	.L11
 230              	.L12:
 416:../../../SystemView/SEGGER/SEGGER_SYSVIEW.c ****     *pPayload++ = *pText++;
 231              		.loc 1 416 0
 232 006e FB68     		ldr	r3, [r7, #12]
 233 0070 5A1C     		adds	r2, r3, #1
 234 0072 FA60     		str	r2, [r7, #12]
 235 0074 BA68     		ldr	r2, [r7, #8]
 236 0076 511C     		adds	r1, r2, #1
 237 0078 B960     		str	r1, [r7, #8]
 238 007a 1278     		ldrb	r2, [r2]	@ zero_extendqisi2
 239 007c 1A70     		strb	r2, [r3]
 417:../../../SystemView/SEGGER/SEGGER_SYSVIEW.c ****     n++;
 240              		.loc 1 417 0
 241 007e 7B69     		ldr	r3, [r7, #20]
 242 0080 0133     		adds	r3, r3, #1
 243 0082 7B61     		str	r3, [r7, #20]
 244              	.L11:
 415:../../../SystemView/SEGGER/SEGGER_SYSVIEW.c ****   while (n < Len) {
 245              		.loc 1 415 0
 246 0084 7A69     		ldr	r2, [r7, #20]
 247 0086 3B69     		ldr	r3, [r7, #16]
 248 0088 9A42     		cmp	r2, r3
 249 008a F0D3     		bcc	.L12
 418:../../../SystemView/SEGGER/SEGGER_SYSVIEW.c ****   }
 419:../../../SystemView/SEGGER/SEGGER_SYSVIEW.c ****   return pPayload;
 250              		.loc 1 419 0
 251 008c FB68     		ldr	r3, [r7, #12]
 420:../../../SystemView/SEGGER/SEGGER_SYSVIEW.c **** }
 252              		.loc 1 420 0
 253 008e 1846     		mov	r0, r3
 254 0090 1C37     		adds	r7, r7, #28
 255              	.LCFI9:
 256              		.cfi_def_cfa_offset 4
 257 0092 BD46     		mov	sp, r7
 258              	.LCFI10:
 259              		.cfi_def_cfa_register 13
 260              		@ sp needed
 261 0094 5DF8047B 		ldr	r7, [sp], #4
 262              	.LCFI11:
 263              		.cfi_restore 7
ARM GAS  /tmp/ccJhHFds.s 			page 13


 264              		.cfi_def_cfa_offset 0
 265 0098 7047     		bx	lr
 266              		.cfi_endproc
 267              	.LFE1:
 269 009a 00BF     		.section	.text._PreparePacket,"ax",%progbits
 270              		.align	2
 271              		.thumb
 272              		.thumb_func
 274              	_PreparePacket:
 275              	.LFB2:
 421:../../../SystemView/SEGGER/SEGGER_SYSVIEW.c **** 
 422:../../../SystemView/SEGGER/SEGGER_SYSVIEW.c **** /*********************************************************************
 423:../../../SystemView/SEGGER/SEGGER_SYSVIEW.c **** *
 424:../../../SystemView/SEGGER/SEGGER_SYSVIEW.c **** *       _PreparePacket()
 425:../../../SystemView/SEGGER/SEGGER_SYSVIEW.c **** *
 426:../../../SystemView/SEGGER/SEGGER_SYSVIEW.c **** *  Function description
 427:../../../SystemView/SEGGER/SEGGER_SYSVIEW.c **** *    Prepare a SystemView event packet header.
 428:../../../SystemView/SEGGER/SEGGER_SYSVIEW.c **** *
 429:../../../SystemView/SEGGER/SEGGER_SYSVIEW.c **** *  Parameters
 430:../../../SystemView/SEGGER/SEGGER_SYSVIEW.c **** *    pPacket - Pointer to start of packet to initialize.
 431:../../../SystemView/SEGGER/SEGGER_SYSVIEW.c **** *
 432:../../../SystemView/SEGGER/SEGGER_SYSVIEW.c **** *  Return value
 433:../../../SystemView/SEGGER/SEGGER_SYSVIEW.c **** *    Pointer to first byte of packet payload.
 434:../../../SystemView/SEGGER/SEGGER_SYSVIEW.c **** *
 435:../../../SystemView/SEGGER/SEGGER_SYSVIEW.c **** *  Additional information
 436:../../../SystemView/SEGGER/SEGGER_SYSVIEW.c **** *    The payload length and evnetId are not initialized.
 437:../../../SystemView/SEGGER/SEGGER_SYSVIEW.c **** *    PreparePacket only reserves space for them and they are
 438:../../../SystemView/SEGGER/SEGGER_SYSVIEW.c **** *    computed and filled in by the sending function.
 439:../../../SystemView/SEGGER/SEGGER_SYSVIEW.c **** */
 440:../../../SystemView/SEGGER/SEGGER_SYSVIEW.c **** static U8* _PreparePacket(U8* pPacket) {
 276              		.loc 1 440 0
 277              		.cfi_startproc
 278              		@ args = 0, pretend = 0, frame = 8
 279              		@ frame_needed = 1, uses_anonymous_args = 0
 280              		@ link register save eliminated.
 281 0000 80B4     		push	{r7}
 282              	.LCFI12:
 283              		.cfi_def_cfa_offset 4
 284              		.cfi_offset 7, -4
 285 0002 83B0     		sub	sp, sp, #12
 286              	.LCFI13:
 287              		.cfi_def_cfa_offset 16
 288 0004 00AF     		add	r7, sp, #0
 289              	.LCFI14:
 290              		.cfi_def_cfa_register 7
 291 0006 7860     		str	r0, [r7, #4]
 441:../../../SystemView/SEGGER/SEGGER_SYSVIEW.c ****   return pPacket + 4;
 292              		.loc 1 441 0
 293 0008 7B68     		ldr	r3, [r7, #4]
 294 000a 0433     		adds	r3, r3, #4
 442:../../../SystemView/SEGGER/SEGGER_SYSVIEW.c **** }
 295              		.loc 1 442 0
 296 000c 1846     		mov	r0, r3
 297 000e 0C37     		adds	r7, r7, #12
 298              	.LCFI15:
 299              		.cfi_def_cfa_offset 4
 300 0010 BD46     		mov	sp, r7
ARM GAS  /tmp/ccJhHFds.s 			page 14


 301              	.LCFI16:
 302              		.cfi_def_cfa_register 13
 303              		@ sp needed
 304 0012 5DF8047B 		ldr	r7, [sp], #4
 305              	.LCFI17:
 306              		.cfi_restore 7
 307              		.cfi_def_cfa_offset 0
 308 0016 7047     		bx	lr
 309              		.cfi_endproc
 310              	.LFE2:
 312              		.section	.text._HandleIncomingPacket,"ax",%progbits
 313              		.align	2
 314              		.thumb
 315              		.thumb_func
 317              	_HandleIncomingPacket:
 318              	.LFB3:
 443:../../../SystemView/SEGGER/SEGGER_SYSVIEW.c **** 
 444:../../../SystemView/SEGGER/SEGGER_SYSVIEW.c **** /*********************************************************************
 445:../../../SystemView/SEGGER/SEGGER_SYSVIEW.c **** *
 446:../../../SystemView/SEGGER/SEGGER_SYSVIEW.c **** *       _HandleIncomingPacket()
 447:../../../SystemView/SEGGER/SEGGER_SYSVIEW.c **** *
 448:../../../SystemView/SEGGER/SEGGER_SYSVIEW.c **** *  Function description
 449:../../../SystemView/SEGGER/SEGGER_SYSVIEW.c **** *    Read an incoming command from the down channel and process it.
 450:../../../SystemView/SEGGER/SEGGER_SYSVIEW.c **** *
 451:../../../SystemView/SEGGER/SEGGER_SYSVIEW.c **** *  Additional information
 452:../../../SystemView/SEGGER/SEGGER_SYSVIEW.c **** *    This function is called each time after sending a packet.
 453:../../../SystemView/SEGGER/SEGGER_SYSVIEW.c **** *    Processing incoming packets is done asynchronous. SystemView might
 454:../../../SystemView/SEGGER/SEGGER_SYSVIEW.c **** *    already have sent event packets after the host has sent a command.
 455:../../../SystemView/SEGGER/SEGGER_SYSVIEW.c **** */
 456:../../../SystemView/SEGGER/SEGGER_SYSVIEW.c **** #if (SEGGER_SYSVIEW_POST_MORTEM_MODE != 1)
 457:../../../SystemView/SEGGER/SEGGER_SYSVIEW.c **** static void _HandleIncomingPacket(void) {
 319              		.loc 1 457 0
 320              		.cfi_startproc
 321              		@ args = 0, pretend = 0, frame = 8
 322              		@ frame_needed = 1, uses_anonymous_args = 0
 323 0000 80B5     		push	{r7, lr}
 324              	.LCFI18:
 325              		.cfi_def_cfa_offset 8
 326              		.cfi_offset 7, -8
 327              		.cfi_offset 14, -4
 328 0002 82B0     		sub	sp, sp, #8
 329              	.LCFI19:
 330              		.cfi_def_cfa_offset 16
 331 0004 00AF     		add	r7, sp, #0
 332              	.LCFI20:
 333              		.cfi_def_cfa_register 7
 458:../../../SystemView/SEGGER/SEGGER_SYSVIEW.c ****   U8  Cmd;
 459:../../../SystemView/SEGGER/SEGGER_SYSVIEW.c ****   int Status;
 460:../../../SystemView/SEGGER/SEGGER_SYSVIEW.c ****   //
 461:../../../SystemView/SEGGER/SEGGER_SYSVIEW.c ****   Status = SEGGER_RTT_ReadNoLock(CHANNEL_ID_DOWN, &Cmd, 1);
 334              		.loc 1 461 0
 335 0006 FB1C     		adds	r3, r7, #3
 336 0008 0120     		movs	r0, #1
 337 000a 1946     		mov	r1, r3
 338 000c 0122     		movs	r2, #1
 339 000e FFF7FEFF 		bl	SEGGER_RTT_ReadNoLock
 340 0012 0346     		mov	r3, r0
ARM GAS  /tmp/ccJhHFds.s 			page 15


 341 0014 7B60     		str	r3, [r7, #4]
 462:../../../SystemView/SEGGER/SEGGER_SYSVIEW.c ****   if (Status > 0) {
 342              		.loc 1 462 0
 343 0016 7B68     		ldr	r3, [r7, #4]
 344 0018 002B     		cmp	r3, #0
 345 001a 46DD     		ble	.L16
 463:../../../SystemView/SEGGER/SEGGER_SYSVIEW.c ****     switch (Cmd) {
 346              		.loc 1 463 0
 347 001c FB78     		ldrb	r3, [r7, #3]	@ zero_extendqisi2
 348 001e 042B     		cmp	r3, #4
 349 0020 1AD0     		beq	.L19
 350 0022 042B     		cmp	r3, #4
 351 0024 06DC     		bgt	.L20
 352 0026 022B     		cmp	r3, #2
 353 0028 10D0     		beq	.L21
 354 002a 022B     		cmp	r3, #2
 355 002c 11DC     		bgt	.L22
 356 002e 012B     		cmp	r3, #1
 357 0030 09D0     		beq	.L23
 358 0032 2EE0     		b	.L18
 359              	.L20:
 360 0034 062B     		cmp	r3, #6
 361 0036 15D0     		beq	.L24
 362 0038 062B     		cmp	r3, #6
 363 003a 10DB     		blt	.L25
 364 003c 072B     		cmp	r3, #7
 365 003e 14D0     		beq	.L26
 366 0040 802B     		cmp	r3, #128
 367 0042 15D0     		beq	.L27
 368 0044 25E0     		b	.L18
 369              	.L23:
 464:../../../SystemView/SEGGER/SEGGER_SYSVIEW.c ****     case SEGGER_SYSVIEW_COMMAND_ID_START:
 465:../../../SystemView/SEGGER/SEGGER_SYSVIEW.c ****       SEGGER_SYSVIEW_Start();
 370              		.loc 1 465 0
 371 0046 FFF7FEFF 		bl	SEGGER_SYSVIEW_Start
 466:../../../SystemView/SEGGER/SEGGER_SYSVIEW.c ****       break;
 372              		.loc 1 466 0
 373 004a 2EE0     		b	.L16
 374              	.L21:
 467:../../../SystemView/SEGGER/SEGGER_SYSVIEW.c ****     case SEGGER_SYSVIEW_COMMAND_ID_STOP:
 468:../../../SystemView/SEGGER/SEGGER_SYSVIEW.c ****       SEGGER_SYSVIEW_Stop();
 375              		.loc 1 468 0
 376 004c FFF7FEFF 		bl	SEGGER_SYSVIEW_Stop
 469:../../../SystemView/SEGGER/SEGGER_SYSVIEW.c ****       break;
 377              		.loc 1 469 0
 378 0050 2BE0     		b	.L16
 379              	.L22:
 470:../../../SystemView/SEGGER/SEGGER_SYSVIEW.c ****     case SEGGER_SYSVIEW_COMMAND_ID_GET_SYSTIME:
 471:../../../SystemView/SEGGER/SEGGER_SYSVIEW.c ****       SEGGER_SYSVIEW_RecordSystime();
 380              		.loc 1 471 0
 381 0052 FFF7FEFF 		bl	SEGGER_SYSVIEW_RecordSystime
 472:../../../SystemView/SEGGER/SEGGER_SYSVIEW.c ****       break;
 382              		.loc 1 472 0
 383 0056 28E0     		b	.L16
 384              	.L19:
 473:../../../SystemView/SEGGER/SEGGER_SYSVIEW.c ****     case SEGGER_SYSVIEW_COMMAND_ID_GET_TASKLIST:
 474:../../../SystemView/SEGGER/SEGGER_SYSVIEW.c ****       SEGGER_SYSVIEW_SendTaskList();
ARM GAS  /tmp/ccJhHFds.s 			page 16


 385              		.loc 1 474 0
 386 0058 FFF7FEFF 		bl	SEGGER_SYSVIEW_SendTaskList
 475:../../../SystemView/SEGGER/SEGGER_SYSVIEW.c ****       break;
 387              		.loc 1 475 0
 388 005c 25E0     		b	.L16
 389              	.L25:
 476:../../../SystemView/SEGGER/SEGGER_SYSVIEW.c ****     case SEGGER_SYSVIEW_COMMAND_ID_GET_SYSDESC:
 477:../../../SystemView/SEGGER/SEGGER_SYSVIEW.c ****       SEGGER_SYSVIEW_GetSysDesc();
 390              		.loc 1 477 0
 391 005e FFF7FEFF 		bl	SEGGER_SYSVIEW_GetSysDesc
 478:../../../SystemView/SEGGER/SEGGER_SYSVIEW.c ****       break;
 392              		.loc 1 478 0
 393 0062 22E0     		b	.L16
 394              	.L24:
 479:../../../SystemView/SEGGER/SEGGER_SYSVIEW.c ****     case SEGGER_SYSVIEW_COMMAND_ID_GET_NUMMODULES:
 480:../../../SystemView/SEGGER/SEGGER_SYSVIEW.c ****       SEGGER_SYSVIEW_SendNumModules();
 395              		.loc 1 480 0
 396 0064 FFF7FEFF 		bl	SEGGER_SYSVIEW_SendNumModules
 481:../../../SystemView/SEGGER/SEGGER_SYSVIEW.c ****       break;
 397              		.loc 1 481 0
 398 0068 1FE0     		b	.L16
 399              	.L26:
 482:../../../SystemView/SEGGER/SEGGER_SYSVIEW.c ****     case SEGGER_SYSVIEW_COMMAND_ID_GET_MODULEDESC:
 483:../../../SystemView/SEGGER/SEGGER_SYSVIEW.c ****       SEGGER_SYSVIEW_SendModuleDescription();
 400              		.loc 1 483 0
 401 006a FFF7FEFF 		bl	SEGGER_SYSVIEW_SendModuleDescription
 484:../../../SystemView/SEGGER/SEGGER_SYSVIEW.c ****       break;
 402              		.loc 1 484 0
 403 006e 1CE0     		b	.L16
 404              	.L27:
 485:../../../SystemView/SEGGER/SEGGER_SYSVIEW.c ****     case SEGGER_SYSVIEW_COMMAND_ID_GET_MODULE:
 486:../../../SystemView/SEGGER/SEGGER_SYSVIEW.c ****       Status = SEGGER_RTT_ReadNoLock(CHANNEL_ID_DOWN, &Cmd, 1);
 405              		.loc 1 486 0
 406 0070 FB1C     		adds	r3, r7, #3
 407 0072 0120     		movs	r0, #1
 408 0074 1946     		mov	r1, r3
 409 0076 0122     		movs	r2, #1
 410 0078 FFF7FEFF 		bl	SEGGER_RTT_ReadNoLock
 411 007c 0346     		mov	r3, r0
 412 007e 7B60     		str	r3, [r7, #4]
 487:../../../SystemView/SEGGER/SEGGER_SYSVIEW.c ****       if (Status > 0) {
 413              		.loc 1 487 0
 414 0080 7B68     		ldr	r3, [r7, #4]
 415 0082 002B     		cmp	r3, #0
 416 0084 04DD     		ble	.L28
 488:../../../SystemView/SEGGER/SEGGER_SYSVIEW.c ****         SEGGER_SYSVIEW_SendModule(Cmd);
 417              		.loc 1 488 0
 418 0086 FB78     		ldrb	r3, [r7, #3]	@ zero_extendqisi2
 419 0088 1846     		mov	r0, r3
 420 008a FFF7FEFF 		bl	SEGGER_SYSVIEW_SendModule
 489:../../../SystemView/SEGGER/SEGGER_SYSVIEW.c ****       }
 490:../../../SystemView/SEGGER/SEGGER_SYSVIEW.c ****       break;
 421              		.loc 1 490 0
 422 008e 0CE0     		b	.L16
 423              	.L28:
 424 0090 0BE0     		b	.L16
 425              	.L18:
ARM GAS  /tmp/ccJhHFds.s 			page 17


 491:../../../SystemView/SEGGER/SEGGER_SYSVIEW.c ****     default:
 492:../../../SystemView/SEGGER/SEGGER_SYSVIEW.c ****       if (Cmd >= 128) { // Unknown extended command. Dummy read its parameter.
 426              		.loc 1 492 0
 427 0092 FB78     		ldrb	r3, [r7, #3]	@ zero_extendqisi2
 428 0094 DBB2     		uxtb	r3, r3
 429 0096 5BB2     		sxtb	r3, r3
 430 0098 002B     		cmp	r3, #0
 431 009a 05DA     		bge	.L29
 493:../../../SystemView/SEGGER/SEGGER_SYSVIEW.c ****         SEGGER_RTT_ReadNoLock(CHANNEL_ID_DOWN, &Cmd, 1);
 432              		.loc 1 493 0
 433 009c FB1C     		adds	r3, r7, #3
 434 009e 0120     		movs	r0, #1
 435 00a0 1946     		mov	r1, r3
 436 00a2 0122     		movs	r2, #1
 437 00a4 FFF7FEFF 		bl	SEGGER_RTT_ReadNoLock
 438              	.L29:
 494:../../../SystemView/SEGGER/SEGGER_SYSVIEW.c ****       }
 495:../../../SystemView/SEGGER/SEGGER_SYSVIEW.c ****       break;
 439              		.loc 1 495 0 discriminator 2
 440 00a8 00BF     		nop
 441              	.L16:
 496:../../../SystemView/SEGGER/SEGGER_SYSVIEW.c ****     }
 497:../../../SystemView/SEGGER/SEGGER_SYSVIEW.c ****   }
 498:../../../SystemView/SEGGER/SEGGER_SYSVIEW.c **** }
 442              		.loc 1 498 0
 443 00aa 0837     		adds	r7, r7, #8
 444              	.LCFI21:
 445              		.cfi_def_cfa_offset 8
 446 00ac BD46     		mov	sp, r7
 447              	.LCFI22:
 448              		.cfi_def_cfa_register 13
 449              		@ sp needed
 450 00ae 80BD     		pop	{r7, pc}
 451              		.cfi_endproc
 452              	.LFE3:
 454              		.section	.text._TrySendOverflowPacket,"ax",%progbits
 455              		.align	2
 456              		.thumb
 457              		.thumb_func
 459              	_TrySendOverflowPacket:
 460              	.LFB4:
 499:../../../SystemView/SEGGER/SEGGER_SYSVIEW.c **** #endif // (SEGGER_SYSVIEW_POST_MORTEM_MODE != 1)
 500:../../../SystemView/SEGGER/SEGGER_SYSVIEW.c **** 
 501:../../../SystemView/SEGGER/SEGGER_SYSVIEW.c **** /*********************************************************************
 502:../../../SystemView/SEGGER/SEGGER_SYSVIEW.c **** *
 503:../../../SystemView/SEGGER/SEGGER_SYSVIEW.c **** *       _TrySendOverflowPacket()
 504:../../../SystemView/SEGGER/SEGGER_SYSVIEW.c **** *
 505:../../../SystemView/SEGGER/SEGGER_SYSVIEW.c **** *  Function description
 506:../../../SystemView/SEGGER/SEGGER_SYSVIEW.c **** *    Try to transmit an SystemView Overflow packet containing the
 507:../../../SystemView/SEGGER/SEGGER_SYSVIEW.c **** *    number of dropped packets.
 508:../../../SystemView/SEGGER/SEGGER_SYSVIEW.c **** *
 509:../../../SystemView/SEGGER/SEGGER_SYSVIEW.c **** *  Additional information
 510:../../../SystemView/SEGGER/SEGGER_SYSVIEW.c **** *    Format as follows:
 511:../../../SystemView/SEGGER/SEGGER_SYSVIEW.c **** *      01 <DropCnt><TimeStamp>  Max. packet len is 1 + 5 + 5 = 11
 512:../../../SystemView/SEGGER/SEGGER_SYSVIEW.c **** *
 513:../../../SystemView/SEGGER/SEGGER_SYSVIEW.c **** *    Example packets sent
 514:../../../SystemView/SEGGER/SEGGER_SYSVIEW.c **** *      01 20 40
ARM GAS  /tmp/ccJhHFds.s 			page 18


 515:../../../SystemView/SEGGER/SEGGER_SYSVIEW.c **** *
 516:../../../SystemView/SEGGER/SEGGER_SYSVIEW.c **** *  Return value
 517:../../../SystemView/SEGGER/SEGGER_SYSVIEW.c **** *    !=0:  Success, Message sent (stored in RTT-Buffer)
 518:../../../SystemView/SEGGER/SEGGER_SYSVIEW.c **** *    ==0:  Buffer full, Message *NOT* stored
 519:../../../SystemView/SEGGER/SEGGER_SYSVIEW.c **** *
 520:../../../SystemView/SEGGER/SEGGER_SYSVIEW.c **** */
 521:../../../SystemView/SEGGER/SEGGER_SYSVIEW.c **** #if (SEGGER_SYSVIEW_POST_MORTEM_MODE != 1)
 522:../../../SystemView/SEGGER/SEGGER_SYSVIEW.c **** static int _TrySendOverflowPacket(void) {
 461              		.loc 1 522 0
 462              		.cfi_startproc
 463              		@ args = 0, pretend = 0, frame = 48
 464              		@ frame_needed = 1, uses_anonymous_args = 0
 465 0000 80B5     		push	{r7, lr}
 466              	.LCFI23:
 467              		.cfi_def_cfa_offset 8
 468              		.cfi_offset 7, -8
 469              		.cfi_offset 14, -4
 470 0002 8CB0     		sub	sp, sp, #48
 471              	.LCFI24:
 472              		.cfi_def_cfa_offset 56
 473 0004 00AF     		add	r7, sp, #0
 474              	.LCFI25:
 475              		.cfi_def_cfa_register 7
 523:../../../SystemView/SEGGER/SEGGER_SYSVIEW.c ****   U32 TimeStamp;
 524:../../../SystemView/SEGGER/SEGGER_SYSVIEW.c ****   I32 Delta;
 525:../../../SystemView/SEGGER/SEGGER_SYSVIEW.c ****   int Status;
 526:../../../SystemView/SEGGER/SEGGER_SYSVIEW.c ****   U8  aPacket[11];
 527:../../../SystemView/SEGGER/SEGGER_SYSVIEW.c ****   U8* pPayload;
 528:../../../SystemView/SEGGER/SEGGER_SYSVIEW.c **** 
 529:../../../SystemView/SEGGER/SEGGER_SYSVIEW.c ****   aPacket[0] = SYSVIEW_EVTID_OVERFLOW;      // 1
 476              		.loc 1 529 0
 477 0006 0123     		movs	r3, #1
 478 0008 3B71     		strb	r3, [r7, #4]
 530:../../../SystemView/SEGGER/SEGGER_SYSVIEW.c ****   pPayload   = &aPacket[1];
 479              		.loc 1 530 0
 480 000a 3B1D     		adds	r3, r7, #4
 481 000c 0133     		adds	r3, r3, #1
 482 000e FB61     		str	r3, [r7, #28]
 483              	.LBB2:
 531:../../../SystemView/SEGGER/SEGGER_SYSVIEW.c ****   ENCODE_U32(pPayload, _SYSVIEW_Globals.DropCount);
 484              		.loc 1 531 0
 485 0010 FB69     		ldr	r3, [r7, #28]
 486 0012 FB62     		str	r3, [r7, #44]
 487 0014 304B     		ldr	r3, .L38
 488 0016 5B69     		ldr	r3, [r3, #20]
 489 0018 BB62     		str	r3, [r7, #40]
 490 001a 0BE0     		b	.L31
 491              	.L32:
 492              		.loc 1 531 0 is_stmt 0 discriminator 3
 493 001c FB6A     		ldr	r3, [r7, #44]
 494 001e 5A1C     		adds	r2, r3, #1
 495 0020 FA62     		str	r2, [r7, #44]
 496 0022 BA6A     		ldr	r2, [r7, #40]
 497 0024 D2B2     		uxtb	r2, r2
 498 0026 62F07F02 		orn	r2, r2, #127
 499 002a D2B2     		uxtb	r2, r2
 500 002c 1A70     		strb	r2, [r3]
ARM GAS  /tmp/ccJhHFds.s 			page 19


 501 002e BB6A     		ldr	r3, [r7, #40]
 502 0030 DB09     		lsrs	r3, r3, #7
 503 0032 BB62     		str	r3, [r7, #40]
 504              	.L31:
 505              		.loc 1 531 0 discriminator 1
 506 0034 BB6A     		ldr	r3, [r7, #40]
 507 0036 7F2B     		cmp	r3, #127
 508 0038 F0D8     		bhi	.L32
 509              		.loc 1 531 0 discriminator 4
 510 003a FB6A     		ldr	r3, [r7, #44]
 511 003c 5A1C     		adds	r2, r3, #1
 512 003e FA62     		str	r2, [r7, #44]
 513 0040 BA6A     		ldr	r2, [r7, #40]
 514 0042 D2B2     		uxtb	r2, r2
 515 0044 1A70     		strb	r2, [r3]
 516 0046 FB6A     		ldr	r3, [r7, #44]
 517 0048 FB61     		str	r3, [r7, #28]
 518              	.LBE2:
 532:../../../SystemView/SEGGER/SEGGER_SYSVIEW.c ****   //
 533:../../../SystemView/SEGGER/SEGGER_SYSVIEW.c ****   // Compute time stamp delta and append it to packet.
 534:../../../SystemView/SEGGER/SEGGER_SYSVIEW.c ****   //
 535:../../../SystemView/SEGGER/SEGGER_SYSVIEW.c ****   TimeStamp  = SEGGER_SYSVIEW_GET_TIMESTAMP();
 519              		.loc 1 535 0 is_stmt 1 discriminator 4
 520 004a 244B     		ldr	r3, .L38+4
 521 004c 1B68     		ldr	r3, [r3]
 522 004e BB61     		str	r3, [r7, #24]
 536:../../../SystemView/SEGGER/SEGGER_SYSVIEW.c ****   Delta = TimeStamp - _SYSVIEW_Globals.LastTxTimeStamp;
 523              		.loc 1 536 0 discriminator 4
 524 0050 214B     		ldr	r3, .L38
 525 0052 DB68     		ldr	r3, [r3, #12]
 526 0054 BA69     		ldr	r2, [r7, #24]
 527 0056 D31A     		subs	r3, r2, r3
 528 0058 7B61     		str	r3, [r7, #20]
 529              	.LBB3:
 537:../../../SystemView/SEGGER/SEGGER_SYSVIEW.c ****   MAKE_DELTA_32BIT(Delta);
 538:../../../SystemView/SEGGER/SEGGER_SYSVIEW.c ****   ENCODE_U32(pPayload, Delta);
 530              		.loc 1 538 0 discriminator 4
 531 005a FB69     		ldr	r3, [r7, #28]
 532 005c 7B62     		str	r3, [r7, #36]
 533 005e 7B69     		ldr	r3, [r7, #20]
 534 0060 3B62     		str	r3, [r7, #32]
 535 0062 0BE0     		b	.L33
 536              	.L34:
 537              		.loc 1 538 0 is_stmt 0 discriminator 3
 538 0064 7B6A     		ldr	r3, [r7, #36]
 539 0066 5A1C     		adds	r2, r3, #1
 540 0068 7A62     		str	r2, [r7, #36]
 541 006a 3A6A     		ldr	r2, [r7, #32]
 542 006c D2B2     		uxtb	r2, r2
 543 006e 62F07F02 		orn	r2, r2, #127
 544 0072 D2B2     		uxtb	r2, r2
 545 0074 1A70     		strb	r2, [r3]
 546 0076 3B6A     		ldr	r3, [r7, #32]
 547 0078 DB09     		lsrs	r3, r3, #7
 548 007a 3B62     		str	r3, [r7, #32]
 549              	.L33:
 550              		.loc 1 538 0 discriminator 1
ARM GAS  /tmp/ccJhHFds.s 			page 20


 551 007c 3B6A     		ldr	r3, [r7, #32]
 552 007e 7F2B     		cmp	r3, #127
 553 0080 F0D8     		bhi	.L34
 554              		.loc 1 538 0 discriminator 4
 555 0082 7B6A     		ldr	r3, [r7, #36]
 556 0084 5A1C     		adds	r2, r3, #1
 557 0086 7A62     		str	r2, [r7, #36]
 558 0088 3A6A     		ldr	r2, [r7, #32]
 559 008a D2B2     		uxtb	r2, r2
 560 008c 1A70     		strb	r2, [r3]
 561 008e 7B6A     		ldr	r3, [r7, #36]
 562 0090 FB61     		str	r3, [r7, #28]
 563              	.LBE3:
 539:../../../SystemView/SEGGER/SEGGER_SYSVIEW.c ****   //
 540:../../../SystemView/SEGGER/SEGGER_SYSVIEW.c ****   // Try to store packet in RTT buffer and update time stamp when this was successful
 541:../../../SystemView/SEGGER/SEGGER_SYSVIEW.c ****   //
 542:../../../SystemView/SEGGER/SEGGER_SYSVIEW.c ****   Status = SEGGER_RTT_WriteSkipNoLock(CHANNEL_ID_UP, aPacket, pPayload - aPacket);
 564              		.loc 1 542 0 is_stmt 1 discriminator 4
 565 0092 FA69     		ldr	r2, [r7, #28]
 566 0094 3B1D     		adds	r3, r7, #4
 567 0096 D31A     		subs	r3, r2, r3
 568 0098 1A46     		mov	r2, r3
 569 009a 3B1D     		adds	r3, r7, #4
 570 009c 0120     		movs	r0, #1
 571 009e 1946     		mov	r1, r3
 572 00a0 FFF7FEFF 		bl	SEGGER_RTT_WriteSkipNoLock
 573 00a4 0346     		mov	r3, r0
 574 00a6 3B61     		str	r3, [r7, #16]
 543:../../../SystemView/SEGGER/SEGGER_SYSVIEW.c ****   if (Status) {
 575              		.loc 1 543 0 discriminator 4
 576 00a8 3B69     		ldr	r3, [r7, #16]
 577 00aa 002B     		cmp	r3, #0
 578 00ac 09D0     		beq	.L35
 544:../../../SystemView/SEGGER/SEGGER_SYSVIEW.c ****     _SYSVIEW_Globals.LastTxTimeStamp = TimeStamp;
 579              		.loc 1 544 0
 580 00ae 0A4A     		ldr	r2, .L38
 581 00b0 BB69     		ldr	r3, [r7, #24]
 582 00b2 D360     		str	r3, [r2, #12]
 545:../../../SystemView/SEGGER/SEGGER_SYSVIEW.c ****     _SYSVIEW_Globals.EnableState--; // EnableState has been 2, will be 1. Always.
 583              		.loc 1 545 0
 584 00b4 084B     		ldr	r3, .L38
 585 00b6 1B78     		ldrb	r3, [r3]	@ zero_extendqisi2
 586 00b8 013B     		subs	r3, r3, #1
 587 00ba DAB2     		uxtb	r2, r3
 588 00bc 064B     		ldr	r3, .L38
 589 00be 1A70     		strb	r2, [r3]
 590 00c0 04E0     		b	.L36
 591              	.L35:
 546:../../../SystemView/SEGGER/SEGGER_SYSVIEW.c ****   } else {
 547:../../../SystemView/SEGGER/SEGGER_SYSVIEW.c ****     _SYSVIEW_Globals.DropCount++;
 592              		.loc 1 547 0
 593 00c2 054B     		ldr	r3, .L38
 594 00c4 5B69     		ldr	r3, [r3, #20]
 595 00c6 0133     		adds	r3, r3, #1
 596 00c8 034A     		ldr	r2, .L38
 597 00ca 5361     		str	r3, [r2, #20]
 598              	.L36:
ARM GAS  /tmp/ccJhHFds.s 			page 21


 548:../../../SystemView/SEGGER/SEGGER_SYSVIEW.c ****   }
 549:../../../SystemView/SEGGER/SEGGER_SYSVIEW.c ****   //
 550:../../../SystemView/SEGGER/SEGGER_SYSVIEW.c ****   return Status;
 599              		.loc 1 550 0
 600 00cc 3B69     		ldr	r3, [r7, #16]
 551:../../../SystemView/SEGGER/SEGGER_SYSVIEW.c **** }
 601              		.loc 1 551 0
 602 00ce 1846     		mov	r0, r3
 603 00d0 3037     		adds	r7, r7, #48
 604              	.LCFI26:
 605              		.cfi_def_cfa_offset 8
 606 00d2 BD46     		mov	sp, r7
 607              	.LCFI27:
 608              		.cfi_def_cfa_register 13
 609              		@ sp needed
 610 00d4 80BD     		pop	{r7, pc}
 611              	.L39:
 612 00d6 00BF     		.align	2
 613              	.L38:
 614 00d8 00000000 		.word	_SYSVIEW_Globals
 615 00dc 041000E0 		.word	-536866812
 616              		.cfi_endproc
 617              	.LFE4:
 619              		.section	.text._SendPacket,"ax",%progbits
 620              		.align	2
 621              		.thumb
 622              		.thumb_func
 624              	_SendPacket:
 625              	.LFB5:
 552:../../../SystemView/SEGGER/SEGGER_SYSVIEW.c **** #endif  // (SEGGER_SYSVIEW_POST_MORTEM_MODE != 1)
 553:../../../SystemView/SEGGER/SEGGER_SYSVIEW.c **** 
 554:../../../SystemView/SEGGER/SEGGER_SYSVIEW.c **** /*********************************************************************
 555:../../../SystemView/SEGGER/SEGGER_SYSVIEW.c **** *
 556:../../../SystemView/SEGGER/SEGGER_SYSVIEW.c **** *       _SendSyncInfo()
 557:../../../SystemView/SEGGER/SEGGER_SYSVIEW.c **** *
 558:../../../SystemView/SEGGER/SEGGER_SYSVIEW.c **** *  Function description
 559:../../../SystemView/SEGGER/SEGGER_SYSVIEW.c **** *    Send SystemView sync packet and system information in 
 560:../../../SystemView/SEGGER/SEGGER_SYSVIEW.c **** *    post mortem mode.
 561:../../../SystemView/SEGGER/SEGGER_SYSVIEW.c **** *
 562:../../../SystemView/SEGGER/SEGGER_SYSVIEW.c **** *  Additional information
 563:../../../SystemView/SEGGER/SEGGER_SYSVIEW.c **** *    Sync is 10 * 0x00 without timestamp
 564:../../../SystemView/SEGGER/SEGGER_SYSVIEW.c **** */
 565:../../../SystemView/SEGGER/SEGGER_SYSVIEW.c **** #if (SEGGER_SYSVIEW_POST_MORTEM_MODE == 1)
 566:../../../SystemView/SEGGER/SEGGER_SYSVIEW.c **** static void _SendSyncInfo(void) {
 567:../../../SystemView/SEGGER/SEGGER_SYSVIEW.c ****   //
 568:../../../SystemView/SEGGER/SEGGER_SYSVIEW.c ****   // Add sync packet ( 10 * 0x00)
 569:../../../SystemView/SEGGER/SEGGER_SYSVIEW.c ****   // Send system description
 570:../../../SystemView/SEGGER/SEGGER_SYSVIEW.c ****   // Send system time
 571:../../../SystemView/SEGGER/SEGGER_SYSVIEW.c ****   // Send task list
 572:../../../SystemView/SEGGER/SEGGER_SYSVIEW.c ****   // Send module description
 573:../../../SystemView/SEGGER/SEGGER_SYSVIEW.c ****   // Send module information
 574:../../../SystemView/SEGGER/SEGGER_SYSVIEW.c ****   //
 575:../../../SystemView/SEGGER/SEGGER_SYSVIEW.c ****   SEGGER_RTT_WriteWithOverwriteNoLock(CHANNEL_ID_UP, _abSync, 10);
 576:../../../SystemView/SEGGER/SEGGER_SYSVIEW.c ****   SEGGER_SYSVIEW_RecordVoid(SYSVIEW_EVTID_TRACE_START);
 577:../../../SystemView/SEGGER/SEGGER_SYSVIEW.c ****   {
 578:../../../SystemView/SEGGER/SEGGER_SYSVIEW.c ****     U8* pPayload;
 579:../../../SystemView/SEGGER/SEGGER_SYSVIEW.c ****     U8* pPayloadStart;
ARM GAS  /tmp/ccJhHFds.s 			page 22


 580:../../../SystemView/SEGGER/SEGGER_SYSVIEW.c ****     RECORD_START(SEGGER_SYSVIEW_INFO_SIZE + 4 * SEGGER_SYSVIEW_QUANTA_U32);
 581:../../../SystemView/SEGGER/SEGGER_SYSVIEW.c ****     //
 582:../../../SystemView/SEGGER/SEGGER_SYSVIEW.c ****     pPayload = pPayloadStart;
 583:../../../SystemView/SEGGER/SEGGER_SYSVIEW.c ****     ENCODE_U32(pPayload, _SYSVIEW_Globals.SysFreq);
 584:../../../SystemView/SEGGER/SEGGER_SYSVIEW.c ****     ENCODE_U32(pPayload, _SYSVIEW_Globals.CPUFreq);
 585:../../../SystemView/SEGGER/SEGGER_SYSVIEW.c ****     ENCODE_U32(pPayload, _SYSVIEW_Globals.RAMBaseAddress);
 586:../../../SystemView/SEGGER/SEGGER_SYSVIEW.c ****     ENCODE_U32(pPayload, SEGGER_SYSVIEW_ID_SHIFT);
 587:../../../SystemView/SEGGER/SEGGER_SYSVIEW.c ****     _SendPacket(pPayloadStart, pPayload, SYSVIEW_EVTID_INIT);
 588:../../../SystemView/SEGGER/SEGGER_SYSVIEW.c ****     RECORD_END();
 589:../../../SystemView/SEGGER/SEGGER_SYSVIEW.c ****   }
 590:../../../SystemView/SEGGER/SEGGER_SYSVIEW.c ****   if (_SYSVIEW_Globals.pfSendSysDesc) {
 591:../../../SystemView/SEGGER/SEGGER_SYSVIEW.c ****     _SYSVIEW_Globals.pfSendSysDesc();
 592:../../../SystemView/SEGGER/SEGGER_SYSVIEW.c ****   }
 593:../../../SystemView/SEGGER/SEGGER_SYSVIEW.c ****   SEGGER_SYSVIEW_RecordSystime();
 594:../../../SystemView/SEGGER/SEGGER_SYSVIEW.c ****   SEGGER_SYSVIEW_SendTaskList();
 595:../../../SystemView/SEGGER/SEGGER_SYSVIEW.c ****   if (_NumModules > 0) {
 596:../../../SystemView/SEGGER/SEGGER_SYSVIEW.c ****     SEGGER_SYSVIEW_SendNumModules();
 597:../../../SystemView/SEGGER/SEGGER_SYSVIEW.c ****     for (int n = 0; n < _NumModules; n++) {
 598:../../../SystemView/SEGGER/SEGGER_SYSVIEW.c ****       SEGGER_SYSVIEW_SendModule(n);
 599:../../../SystemView/SEGGER/SEGGER_SYSVIEW.c ****     }
 600:../../../SystemView/SEGGER/SEGGER_SYSVIEW.c ****     SEGGER_SYSVIEW_SendModuleDescription();
 601:../../../SystemView/SEGGER/SEGGER_SYSVIEW.c ****   }
 602:../../../SystemView/SEGGER/SEGGER_SYSVIEW.c **** }
 603:../../../SystemView/SEGGER/SEGGER_SYSVIEW.c **** #endif  // (SEGGER_SYSVIEW_POST_MORTEM_MODE == 1)
 604:../../../SystemView/SEGGER/SEGGER_SYSVIEW.c **** 
 605:../../../SystemView/SEGGER/SEGGER_SYSVIEW.c **** /*********************************************************************
 606:../../../SystemView/SEGGER/SEGGER_SYSVIEW.c **** *
 607:../../../SystemView/SEGGER/SEGGER_SYSVIEW.c **** *       _SendPacket()
 608:../../../SystemView/SEGGER/SEGGER_SYSVIEW.c **** *
 609:../../../SystemView/SEGGER/SEGGER_SYSVIEW.c **** *  Function description
 610:../../../SystemView/SEGGER/SEGGER_SYSVIEW.c **** *    Send a SystemView packet over RTT. RTT channel and mode are
 611:../../../SystemView/SEGGER/SEGGER_SYSVIEW.c **** *    configured by macros when the SystemView component is initialized.
 612:../../../SystemView/SEGGER/SEGGER_SYSVIEW.c **** *    This function takes care of maintaining the packet drop count
 613:../../../SystemView/SEGGER/SEGGER_SYSVIEW.c **** *    and sending overflow packets when necessary.
 614:../../../SystemView/SEGGER/SEGGER_SYSVIEW.c **** *    The packet must be passed without Id and Length because this
 615:../../../SystemView/SEGGER/SEGGER_SYSVIEW.c **** *    function prepends it to the packet before transmission.
 616:../../../SystemView/SEGGER/SEGGER_SYSVIEW.c **** *
 617:../../../SystemView/SEGGER/SEGGER_SYSVIEW.c **** *  Parameters
 618:../../../SystemView/SEGGER/SEGGER_SYSVIEW.c **** *    pStartPacket - Pointer to start of packet payload.
 619:../../../SystemView/SEGGER/SEGGER_SYSVIEW.c **** *                   There must be at least 4 bytes free to prepend Id and Length.
 620:../../../SystemView/SEGGER/SEGGER_SYSVIEW.c **** *    pEndPacket   - Pointer to end of packet payload.
 621:../../../SystemView/SEGGER/SEGGER_SYSVIEW.c **** *    EventId      - Id of the event to send.
 622:../../../SystemView/SEGGER/SEGGER_SYSVIEW.c **** *
 623:../../../SystemView/SEGGER/SEGGER_SYSVIEW.c **** */
 624:../../../SystemView/SEGGER/SEGGER_SYSVIEW.c **** static void _SendPacket(U8* pStartPacket, U8* pEndPacket, unsigned int EventId) {
 626              		.loc 1 624 0
 627              		.cfi_startproc
 628              		@ args = 0, pretend = 0, frame = 40
 629              		@ frame_needed = 1, uses_anonymous_args = 0
 630 0000 80B5     		push	{r7, lr}
 631              	.LCFI28:
 632              		.cfi_def_cfa_offset 8
 633              		.cfi_offset 7, -8
 634              		.cfi_offset 14, -4
 635 0002 8AB0     		sub	sp, sp, #40
 636              	.LCFI29:
 637              		.cfi_def_cfa_offset 48
ARM GAS  /tmp/ccJhHFds.s 			page 23


 638 0004 00AF     		add	r7, sp, #0
 639              	.LCFI30:
 640              		.cfi_def_cfa_register 7
 641 0006 F860     		str	r0, [r7, #12]
 642 0008 B960     		str	r1, [r7, #8]
 643 000a 7A60     		str	r2, [r7, #4]
 625:../../../SystemView/SEGGER/SEGGER_SYSVIEW.c ****   unsigned int  NumBytes;
 626:../../../SystemView/SEGGER/SEGGER_SYSVIEW.c ****   U32           TimeStamp;
 627:../../../SystemView/SEGGER/SEGGER_SYSVIEW.c ****   U32           Delta;
 628:../../../SystemView/SEGGER/SEGGER_SYSVIEW.c **** #if (SEGGER_SYSVIEW_POST_MORTEM_MODE != 1)
 629:../../../SystemView/SEGGER/SEGGER_SYSVIEW.c ****   int           Status;
 630:../../../SystemView/SEGGER/SEGGER_SYSVIEW.c **** #endif
 631:../../../SystemView/SEGGER/SEGGER_SYSVIEW.c **** 
 632:../../../SystemView/SEGGER/SEGGER_SYSVIEW.c **** #if (SEGGER_SYSVIEW_USE_STATIC_BUFFER == 0)
 633:../../../SystemView/SEGGER/SEGGER_SYSVIEW.c ****   SEGGER_SYSVIEW_LOCK();
 634:../../../SystemView/SEGGER/SEGGER_SYSVIEW.c **** #endif
 635:../../../SystemView/SEGGER/SEGGER_SYSVIEW.c **** 
 636:../../../SystemView/SEGGER/SEGGER_SYSVIEW.c **** #if (SEGGER_SYSVIEW_POST_MORTEM_MODE == 1)
 637:../../../SystemView/SEGGER/SEGGER_SYSVIEW.c ****   if (_SYSVIEW_Globals.EnableState == 0) {
 638:../../../SystemView/SEGGER/SEGGER_SYSVIEW.c ****     goto SendDone;
 639:../../../SystemView/SEGGER/SEGGER_SYSVIEW.c ****   }
 640:../../../SystemView/SEGGER/SEGGER_SYSVIEW.c **** #else
 641:../../../SystemView/SEGGER/SEGGER_SYSVIEW.c ****   if (_SYSVIEW_Globals.EnableState == 1) {  // Enabled, no dropped packets remaining
 644              		.loc 1 641 0
 645 000c 5E4B     		ldr	r3, .L55
 646 000e 1B78     		ldrb	r3, [r3]	@ zero_extendqisi2
 647 0010 012B     		cmp	r3, #1
 648 0012 00D1     		bne	.L41
 642:../../../SystemView/SEGGER/SEGGER_SYSVIEW.c ****     goto Send;
 649              		.loc 1 642 0
 650 0014 0FE0     		b	.L42
 651              	.L41:
 643:../../../SystemView/SEGGER/SEGGER_SYSVIEW.c ****   }
 644:../../../SystemView/SEGGER/SEGGER_SYSVIEW.c ****   if (_SYSVIEW_Globals.EnableState == 0) {
 652              		.loc 1 644 0
 653 0016 5C4B     		ldr	r3, .L55
 654 0018 1B78     		ldrb	r3, [r3]	@ zero_extendqisi2
 655 001a 002B     		cmp	r3, #0
 656 001c 00D1     		bne	.L43
 645:../../../SystemView/SEGGER/SEGGER_SYSVIEW.c ****     goto SendDone;
 657              		.loc 1 645 0
 658 001e 9BE0     		b	.L44
 659              	.L43:
 646:../../../SystemView/SEGGER/SEGGER_SYSVIEW.c ****   }
 647:../../../SystemView/SEGGER/SEGGER_SYSVIEW.c ****   //
 648:../../../SystemView/SEGGER/SEGGER_SYSVIEW.c ****   // Handle buffer full situations:
 649:../../../SystemView/SEGGER/SEGGER_SYSVIEW.c ****   // Have packets been dropped before because buffer was full?
 650:../../../SystemView/SEGGER/SEGGER_SYSVIEW.c ****   // In this case try to send and overflow packet.
 651:../../../SystemView/SEGGER/SEGGER_SYSVIEW.c ****   //
 652:../../../SystemView/SEGGER/SEGGER_SYSVIEW.c ****   if (_SYSVIEW_Globals.EnableState == 2) {
 660              		.loc 1 652 0
 661 0020 594B     		ldr	r3, .L55
 662 0022 1B78     		ldrb	r3, [r3]	@ zero_extendqisi2
 663 0024 022B     		cmp	r3, #2
 664 0026 06D1     		bne	.L42
 653:../../../SystemView/SEGGER/SEGGER_SYSVIEW.c ****     _TrySendOverflowPacket();
 665              		.loc 1 653 0
ARM GAS  /tmp/ccJhHFds.s 			page 24


 666 0028 FFF7FEFF 		bl	_TrySendOverflowPacket
 654:../../../SystemView/SEGGER/SEGGER_SYSVIEW.c ****     if (_SYSVIEW_Globals.EnableState != 1) {
 667              		.loc 1 654 0
 668 002c 564B     		ldr	r3, .L55
 669 002e 1B78     		ldrb	r3, [r3]	@ zero_extendqisi2
 670 0030 012B     		cmp	r3, #1
 671 0032 00D0     		beq	.L42
 655:../../../SystemView/SEGGER/SEGGER_SYSVIEW.c ****       goto SendDone;
 672              		.loc 1 655 0
 673 0034 90E0     		b	.L44
 674              	.L42:
 656:../../../SystemView/SEGGER/SEGGER_SYSVIEW.c ****     }
 657:../../../SystemView/SEGGER/SEGGER_SYSVIEW.c ****   }
 658:../../../SystemView/SEGGER/SEGGER_SYSVIEW.c **** Send:
 659:../../../SystemView/SEGGER/SEGGER_SYSVIEW.c **** #endif
 660:../../../SystemView/SEGGER/SEGGER_SYSVIEW.c ****   //
 661:../../../SystemView/SEGGER/SEGGER_SYSVIEW.c ****   // Check if event is disabled from being recorded.
 662:../../../SystemView/SEGGER/SEGGER_SYSVIEW.c ****   //
 663:../../../SystemView/SEGGER/SEGGER_SYSVIEW.c ****   if (EventId < 32) {
 675              		.loc 1 663 0
 676 0036 7B68     		ldr	r3, [r7, #4]
 677 0038 1F2B     		cmp	r3, #31
 678 003a 09D8     		bhi	.L45
 664:../../../SystemView/SEGGER/SEGGER_SYSVIEW.c ****     if (_SYSVIEW_Globals.DisabledEvents & ((U32)1u << EventId)) {
 679              		.loc 1 664 0
 680 003c 524B     		ldr	r3, .L55
 681 003e DA69     		ldr	r2, [r3, #28]
 682 0040 7B68     		ldr	r3, [r7, #4]
 683 0042 22FA03F3 		lsr	r3, r2, r3
 684 0046 03F00103 		and	r3, r3, #1
 685 004a 002B     		cmp	r3, #0
 686 004c 00D0     		beq	.L45
 665:../../../SystemView/SEGGER/SEGGER_SYSVIEW.c ****       goto SendDone;
 687              		.loc 1 665 0
 688 004e 83E0     		b	.L44
 689              	.L45:
 666:../../../SystemView/SEGGER/SEGGER_SYSVIEW.c ****     }
 667:../../../SystemView/SEGGER/SEGGER_SYSVIEW.c ****   }
 668:../../../SystemView/SEGGER/SEGGER_SYSVIEW.c ****   //
 669:../../../SystemView/SEGGER/SEGGER_SYSVIEW.c ****   // Prepare actual packet.
 670:../../../SystemView/SEGGER/SEGGER_SYSVIEW.c ****   // If it is a known packet, prepend eventId only,
 671:../../../SystemView/SEGGER/SEGGER_SYSVIEW.c ****   // otherwise prepend packet length and eventId.
 672:../../../SystemView/SEGGER/SEGGER_SYSVIEW.c ****   //
 673:../../../SystemView/SEGGER/SEGGER_SYSVIEW.c ****   if (EventId < 24) {
 690              		.loc 1 673 0
 691 0050 7B68     		ldr	r3, [r7, #4]
 692 0052 172B     		cmp	r3, #23
 693 0054 07D8     		bhi	.L46
 674:../../../SystemView/SEGGER/SEGGER_SYSVIEW.c ****     *--pStartPacket = EventId;
 694              		.loc 1 674 0
 695 0056 FB68     		ldr	r3, [r7, #12]
 696 0058 013B     		subs	r3, r3, #1
 697 005a FB60     		str	r3, [r7, #12]
 698 005c 7B68     		ldr	r3, [r7, #4]
 699 005e DAB2     		uxtb	r2, r3
 700 0060 FB68     		ldr	r3, [r7, #12]
 701 0062 1A70     		strb	r2, [r3]
ARM GAS  /tmp/ccJhHFds.s 			page 25


 702 0064 3DE0     		b	.L47
 703              	.L46:
 675:../../../SystemView/SEGGER/SEGGER_SYSVIEW.c ****   } else {
 676:../../../SystemView/SEGGER/SEGGER_SYSVIEW.c ****     NumBytes = pEndPacket - pStartPacket;
 704              		.loc 1 676 0
 705 0066 BA68     		ldr	r2, [r7, #8]
 706 0068 FB68     		ldr	r3, [r7, #12]
 707 006a D31A     		subs	r3, r2, r3
 708 006c FB61     		str	r3, [r7, #28]
 677:../../../SystemView/SEGGER/SEGGER_SYSVIEW.c ****     if (NumBytes > 127) {
 709              		.loc 1 677 0
 710 006e FB69     		ldr	r3, [r7, #28]
 711 0070 7F2B     		cmp	r3, #127
 712 0072 12D9     		bls	.L48
 678:../../../SystemView/SEGGER/SEGGER_SYSVIEW.c ****       *--pStartPacket = (NumBytes >> 7);
 713              		.loc 1 678 0
 714 0074 FB68     		ldr	r3, [r7, #12]
 715 0076 013B     		subs	r3, r3, #1
 716 0078 FB60     		str	r3, [r7, #12]
 717 007a FB69     		ldr	r3, [r7, #28]
 718 007c DB09     		lsrs	r3, r3, #7
 719 007e DAB2     		uxtb	r2, r3
 720 0080 FB68     		ldr	r3, [r7, #12]
 721 0082 1A70     		strb	r2, [r3]
 679:../../../SystemView/SEGGER/SEGGER_SYSVIEW.c ****       *--pStartPacket = NumBytes | 0x80;
 722              		.loc 1 679 0
 723 0084 FB68     		ldr	r3, [r7, #12]
 724 0086 013B     		subs	r3, r3, #1
 725 0088 FB60     		str	r3, [r7, #12]
 726 008a FB69     		ldr	r3, [r7, #28]
 727 008c DBB2     		uxtb	r3, r3
 728 008e 63F07F03 		orn	r3, r3, #127
 729 0092 DAB2     		uxtb	r2, r3
 730 0094 FB68     		ldr	r3, [r7, #12]
 731 0096 1A70     		strb	r2, [r3]
 732 0098 06E0     		b	.L49
 733              	.L48:
 680:../../../SystemView/SEGGER/SEGGER_SYSVIEW.c ****     } else {
 681:../../../SystemView/SEGGER/SEGGER_SYSVIEW.c ****       *--pStartPacket = NumBytes;
 734              		.loc 1 681 0
 735 009a FB68     		ldr	r3, [r7, #12]
 736 009c 013B     		subs	r3, r3, #1
 737 009e FB60     		str	r3, [r7, #12]
 738 00a0 FB69     		ldr	r3, [r7, #28]
 739 00a2 DAB2     		uxtb	r2, r3
 740 00a4 FB68     		ldr	r3, [r7, #12]
 741 00a6 1A70     		strb	r2, [r3]
 742              	.L49:
 682:../../../SystemView/SEGGER/SEGGER_SYSVIEW.c ****     }
 683:../../../SystemView/SEGGER/SEGGER_SYSVIEW.c ****     if (EventId > 127) {
 743              		.loc 1 683 0
 744 00a8 7B68     		ldr	r3, [r7, #4]
 745 00aa 7F2B     		cmp	r3, #127
 746 00ac 12D9     		bls	.L50
 684:../../../SystemView/SEGGER/SEGGER_SYSVIEW.c ****       *--pStartPacket = (EventId >> 7);
 747              		.loc 1 684 0
 748 00ae FB68     		ldr	r3, [r7, #12]
ARM GAS  /tmp/ccJhHFds.s 			page 26


 749 00b0 013B     		subs	r3, r3, #1
 750 00b2 FB60     		str	r3, [r7, #12]
 751 00b4 7B68     		ldr	r3, [r7, #4]
 752 00b6 DB09     		lsrs	r3, r3, #7
 753 00b8 DAB2     		uxtb	r2, r3
 754 00ba FB68     		ldr	r3, [r7, #12]
 755 00bc 1A70     		strb	r2, [r3]
 685:../../../SystemView/SEGGER/SEGGER_SYSVIEW.c ****       *--pStartPacket = EventId | 0x80;
 756              		.loc 1 685 0
 757 00be FB68     		ldr	r3, [r7, #12]
 758 00c0 013B     		subs	r3, r3, #1
 759 00c2 FB60     		str	r3, [r7, #12]
 760 00c4 7B68     		ldr	r3, [r7, #4]
 761 00c6 DBB2     		uxtb	r3, r3
 762 00c8 63F07F03 		orn	r3, r3, #127
 763 00cc DAB2     		uxtb	r2, r3
 764 00ce FB68     		ldr	r3, [r7, #12]
 765 00d0 1A70     		strb	r2, [r3]
 766 00d2 06E0     		b	.L47
 767              	.L50:
 686:../../../SystemView/SEGGER/SEGGER_SYSVIEW.c ****     } else {
 687:../../../SystemView/SEGGER/SEGGER_SYSVIEW.c ****       *--pStartPacket = EventId;
 768              		.loc 1 687 0
 769 00d4 FB68     		ldr	r3, [r7, #12]
 770 00d6 013B     		subs	r3, r3, #1
 771 00d8 FB60     		str	r3, [r7, #12]
 772 00da 7B68     		ldr	r3, [r7, #4]
 773 00dc DAB2     		uxtb	r2, r3
 774 00de FB68     		ldr	r3, [r7, #12]
 775 00e0 1A70     		strb	r2, [r3]
 776              	.L47:
 688:../../../SystemView/SEGGER/SEGGER_SYSVIEW.c ****     }
 689:../../../SystemView/SEGGER/SEGGER_SYSVIEW.c ****   }
 690:../../../SystemView/SEGGER/SEGGER_SYSVIEW.c ****   //
 691:../../../SystemView/SEGGER/SEGGER_SYSVIEW.c ****   // Compute time stamp delta and append it to packet.
 692:../../../SystemView/SEGGER/SEGGER_SYSVIEW.c ****   //
 693:../../../SystemView/SEGGER/SEGGER_SYSVIEW.c ****   TimeStamp  = SEGGER_SYSVIEW_GET_TIMESTAMP();
 777              		.loc 1 693 0
 778 00e2 2A4B     		ldr	r3, .L55+4
 779 00e4 1B68     		ldr	r3, [r3]
 780 00e6 BB61     		str	r3, [r7, #24]
 694:../../../SystemView/SEGGER/SEGGER_SYSVIEW.c ****   Delta = TimeStamp - _SYSVIEW_Globals.LastTxTimeStamp;
 781              		.loc 1 694 0
 782 00e8 274B     		ldr	r3, .L55
 783 00ea DB68     		ldr	r3, [r3, #12]
 784 00ec BA69     		ldr	r2, [r7, #24]
 785 00ee D31A     		subs	r3, r2, r3
 786 00f0 7B61     		str	r3, [r7, #20]
 787              	.LBB4:
 695:../../../SystemView/SEGGER/SEGGER_SYSVIEW.c ****   MAKE_DELTA_32BIT(Delta);
 696:../../../SystemView/SEGGER/SEGGER_SYSVIEW.c ****   ENCODE_U32(pEndPacket, Delta);
 788              		.loc 1 696 0
 789 00f2 BB68     		ldr	r3, [r7, #8]
 790 00f4 7B62     		str	r3, [r7, #36]
 791 00f6 7B69     		ldr	r3, [r7, #20]
 792 00f8 3B62     		str	r3, [r7, #32]
 793 00fa 0BE0     		b	.L51
ARM GAS  /tmp/ccJhHFds.s 			page 27


 794              	.L52:
 795              		.loc 1 696 0 is_stmt 0 discriminator 3
 796 00fc 7B6A     		ldr	r3, [r7, #36]
 797 00fe 5A1C     		adds	r2, r3, #1
 798 0100 7A62     		str	r2, [r7, #36]
 799 0102 3A6A     		ldr	r2, [r7, #32]
 800 0104 D2B2     		uxtb	r2, r2
 801 0106 62F07F02 		orn	r2, r2, #127
 802 010a D2B2     		uxtb	r2, r2
 803 010c 1A70     		strb	r2, [r3]
 804 010e 3B6A     		ldr	r3, [r7, #32]
 805 0110 DB09     		lsrs	r3, r3, #7
 806 0112 3B62     		str	r3, [r7, #32]
 807              	.L51:
 808              		.loc 1 696 0 discriminator 1
 809 0114 3B6A     		ldr	r3, [r7, #32]
 810 0116 7F2B     		cmp	r3, #127
 811 0118 F0D8     		bhi	.L52
 812              		.loc 1 696 0 discriminator 4
 813 011a 7B6A     		ldr	r3, [r7, #36]
 814 011c 5A1C     		adds	r2, r3, #1
 815 011e 7A62     		str	r2, [r7, #36]
 816 0120 3A6A     		ldr	r2, [r7, #32]
 817 0122 D2B2     		uxtb	r2, r2
 818 0124 1A70     		strb	r2, [r3]
 819 0126 7B6A     		ldr	r3, [r7, #36]
 820 0128 BB60     		str	r3, [r7, #8]
 821              	.LBE4:
 697:../../../SystemView/SEGGER/SEGGER_SYSVIEW.c **** #if (SEGGER_SYSVIEW_POST_MORTEM_MODE == 1)
 698:../../../SystemView/SEGGER/SEGGER_SYSVIEW.c ****   //
 699:../../../SystemView/SEGGER/SEGGER_SYSVIEW.c ****   // Store packet in RTT buffer by overwriting old data and update time stamp
 700:../../../SystemView/SEGGER/SEGGER_SYSVIEW.c ****   //
 701:../../../SystemView/SEGGER/SEGGER_SYSVIEW.c ****   SEGGER_RTT_WriteWithOverwriteNoLock(CHANNEL_ID_UP, pStartPacket, pEndPacket - pStartPacket);
 702:../../../SystemView/SEGGER/SEGGER_SYSVIEW.c ****   _SYSVIEW_Globals.LastTxTimeStamp = TimeStamp;
 703:../../../SystemView/SEGGER/SEGGER_SYSVIEW.c **** #else
 704:../../../SystemView/SEGGER/SEGGER_SYSVIEW.c ****   //
 705:../../../SystemView/SEGGER/SEGGER_SYSVIEW.c ****   // Try to store packet in RTT buffer and update time stamp when this was successful
 706:../../../SystemView/SEGGER/SEGGER_SYSVIEW.c ****   //
 707:../../../SystemView/SEGGER/SEGGER_SYSVIEW.c ****   Status = SEGGER_RTT_WriteSkipNoLock(CHANNEL_ID_UP, pStartPacket, pEndPacket - pStartPacket);
 822              		.loc 1 707 0 is_stmt 1 discriminator 4
 823 012a BA68     		ldr	r2, [r7, #8]
 824 012c FB68     		ldr	r3, [r7, #12]
 825 012e D31A     		subs	r3, r2, r3
 826 0130 0120     		movs	r0, #1
 827 0132 F968     		ldr	r1, [r7, #12]
 828 0134 1A46     		mov	r2, r3
 829 0136 FFF7FEFF 		bl	SEGGER_RTT_WriteSkipNoLock
 830 013a 0346     		mov	r3, r0
 831 013c 3B61     		str	r3, [r7, #16]
 708:../../../SystemView/SEGGER/SEGGER_SYSVIEW.c ****   if (Status) {
 832              		.loc 1 708 0 discriminator 4
 833 013e 3B69     		ldr	r3, [r7, #16]
 834 0140 002B     		cmp	r3, #0
 835 0142 03D0     		beq	.L53
 709:../../../SystemView/SEGGER/SEGGER_SYSVIEW.c ****     _SYSVIEW_Globals.LastTxTimeStamp = TimeStamp;
 836              		.loc 1 709 0
 837 0144 104A     		ldr	r2, .L55
ARM GAS  /tmp/ccJhHFds.s 			page 28


 838 0146 BB69     		ldr	r3, [r7, #24]
 839 0148 D360     		str	r3, [r2, #12]
 840 014a 05E0     		b	.L44
 841              	.L53:
 710:../../../SystemView/SEGGER/SEGGER_SYSVIEW.c ****   } else {
 711:../../../SystemView/SEGGER/SEGGER_SYSVIEW.c ****     _SYSVIEW_Globals.EnableState++; // EnableState has been 1, will be 2. Always.
 842              		.loc 1 711 0
 843 014c 0E4B     		ldr	r3, .L55
 844 014e 1B78     		ldrb	r3, [r3]	@ zero_extendqisi2
 845 0150 0133     		adds	r3, r3, #1
 846 0152 DAB2     		uxtb	r2, r3
 847 0154 0C4B     		ldr	r3, .L55
 848 0156 1A70     		strb	r2, [r3]
 849              	.L44:
 712:../../../SystemView/SEGGER/SEGGER_SYSVIEW.c ****   }
 713:../../../SystemView/SEGGER/SEGGER_SYSVIEW.c **** #endif
 714:../../../SystemView/SEGGER/SEGGER_SYSVIEW.c **** 
 715:../../../SystemView/SEGGER/SEGGER_SYSVIEW.c **** #if (SEGGER_SYSVIEW_POST_MORTEM_MODE == 1)
 716:../../../SystemView/SEGGER/SEGGER_SYSVIEW.c ****   //
 717:../../../SystemView/SEGGER/SEGGER_SYSVIEW.c ****   // Add sync and system information periodically if we are in post mortem mode
 718:../../../SystemView/SEGGER/SEGGER_SYSVIEW.c ****   //
 719:../../../SystemView/SEGGER/SEGGER_SYSVIEW.c ****   if (_SYSVIEW_Globals.RecursionCnt == 0) {   // Avoid uncontrolled nesting. This way, this routine
 720:../../../SystemView/SEGGER/SEGGER_SYSVIEW.c ****     _SYSVIEW_Globals.RecursionCnt = 1;
 721:../../../SystemView/SEGGER/SEGGER_SYSVIEW.c ****     if (_SYSVIEW_Globals.PacketCount++ & (1 << SEGGER_SYSVIEW_SYNC_PERIOD_SHIFT)) {
 722:../../../SystemView/SEGGER/SEGGER_SYSVIEW.c ****       _SendSyncInfo();
 723:../../../SystemView/SEGGER/SEGGER_SYSVIEW.c ****       _SYSVIEW_Globals.PacketCount = 0;
 724:../../../SystemView/SEGGER/SEGGER_SYSVIEW.c ****     }
 725:../../../SystemView/SEGGER/SEGGER_SYSVIEW.c ****     _SYSVIEW_Globals.RecursionCnt = 0;
 726:../../../SystemView/SEGGER/SEGGER_SYSVIEW.c ****   }
 727:../../../SystemView/SEGGER/SEGGER_SYSVIEW.c **** SendDone:
 728:../../../SystemView/SEGGER/SEGGER_SYSVIEW.c ****   ; // Avoid "label at end of compound statement" error when using static buffer
 729:../../../SystemView/SEGGER/SEGGER_SYSVIEW.c **** #else
 730:../../../SystemView/SEGGER/SEGGER_SYSVIEW.c **** SendDone:
 731:../../../SystemView/SEGGER/SEGGER_SYSVIEW.c ****   //
 732:../../../SystemView/SEGGER/SEGGER_SYSVIEW.c ****   // Check if host is sending data which needs to be processed.
 733:../../../SystemView/SEGGER/SEGGER_SYSVIEW.c ****   // Note that since this code is called for every packet, it is very time critical, so we do
 734:../../../SystemView/SEGGER/SEGGER_SYSVIEW.c ****   // only what is really needed here, which is checking if there is any data
 735:../../../SystemView/SEGGER/SEGGER_SYSVIEW.c ****   //
 736:../../../SystemView/SEGGER/SEGGER_SYSVIEW.c ****   if (SEGGER_RTT_HASDATA(CHANNEL_ID_DOWN)) {
 850              		.loc 1 736 0
 851 0158 0D4B     		ldr	r3, .L55+8
 852 015a D3F88420 		ldr	r2, [r3, #132]
 853 015e 0C4B     		ldr	r3, .L55+8
 854 0160 D3F88830 		ldr	r3, [r3, #136]
 855 0164 9A42     		cmp	r2, r3
 856 0166 0BD0     		beq	.L40
 737:../../../SystemView/SEGGER/SEGGER_SYSVIEW.c ****     if (_SYSVIEW_Globals.RecursionCnt == 0) {   // Avoid uncontrolled nesting. This way, this routi
 857              		.loc 1 737 0
 858 0168 074B     		ldr	r3, .L55
 859 016a 9B78     		ldrb	r3, [r3, #2]	@ zero_extendqisi2
 860 016c 002B     		cmp	r3, #0
 861 016e 07D1     		bne	.L40
 738:../../../SystemView/SEGGER/SEGGER_SYSVIEW.c ****       _SYSVIEW_Globals.RecursionCnt = 1;
 862              		.loc 1 738 0
 863 0170 054B     		ldr	r3, .L55
 864 0172 0122     		movs	r2, #1
 865 0174 9A70     		strb	r2, [r3, #2]
ARM GAS  /tmp/ccJhHFds.s 			page 29


 739:../../../SystemView/SEGGER/SEGGER_SYSVIEW.c ****       _HandleIncomingPacket();
 866              		.loc 1 739 0
 867 0176 FFF7FEFF 		bl	_HandleIncomingPacket
 740:../../../SystemView/SEGGER/SEGGER_SYSVIEW.c ****       _SYSVIEW_Globals.RecursionCnt = 0;
 868              		.loc 1 740 0
 869 017a 034B     		ldr	r3, .L55
 870 017c 0022     		movs	r2, #0
 871 017e 9A70     		strb	r2, [r3, #2]
 872              	.L40:
 741:../../../SystemView/SEGGER/SEGGER_SYSVIEW.c ****     }
 742:../../../SystemView/SEGGER/SEGGER_SYSVIEW.c ****   }
 743:../../../SystemView/SEGGER/SEGGER_SYSVIEW.c **** #endif
 744:../../../SystemView/SEGGER/SEGGER_SYSVIEW.c ****   //
 745:../../../SystemView/SEGGER/SEGGER_SYSVIEW.c **** #if (SEGGER_SYSVIEW_USE_STATIC_BUFFER == 0)
 746:../../../SystemView/SEGGER/SEGGER_SYSVIEW.c ****   SEGGER_SYSVIEW_UNLOCK();  // We are done. Unlock and return
 747:../../../SystemView/SEGGER/SEGGER_SYSVIEW.c **** #endif
 748:../../../SystemView/SEGGER/SEGGER_SYSVIEW.c **** }
 873              		.loc 1 748 0
 874 0180 2837     		adds	r7, r7, #40
 875              	.LCFI31:
 876              		.cfi_def_cfa_offset 8
 877 0182 BD46     		mov	sp, r7
 878              	.LCFI32:
 879              		.cfi_def_cfa_register 13
 880              		@ sp needed
 881 0184 80BD     		pop	{r7, pc}
 882              	.L56:
 883 0186 00BF     		.align	2
 884              	.L55:
 885 0188 00000000 		.word	_SYSVIEW_Globals
 886 018c 041000E0 		.word	-536866812
 887 0190 00000000 		.word	_SEGGER_RTT
 888              		.cfi_endproc
 889              	.LFE5:
 891              		.section	.text._VPrintHost,"ax",%progbits
 892              		.align	2
 893              		.thumb
 894              		.thumb_func
 896              	_VPrintHost:
 897              	.LFB6:
 749:../../../SystemView/SEGGER/SEGGER_SYSVIEW.c **** 
 750:../../../SystemView/SEGGER/SEGGER_SYSVIEW.c **** #ifndef SEGGER_SYSVIEW_EXCLUDE_PRINTF // Define in project to avoid warnings about variable paramet
 751:../../../SystemView/SEGGER/SEGGER_SYSVIEW.c **** /*********************************************************************
 752:../../../SystemView/SEGGER/SEGGER_SYSVIEW.c **** *
 753:../../../SystemView/SEGGER/SEGGER_SYSVIEW.c **** *       _VPrintHost()
 754:../../../SystemView/SEGGER/SEGGER_SYSVIEW.c **** *
 755:../../../SystemView/SEGGER/SEGGER_SYSVIEW.c **** *  Function description
 756:../../../SystemView/SEGGER/SEGGER_SYSVIEW.c **** *    Send a format string and its parameters to the host.
 757:../../../SystemView/SEGGER/SEGGER_SYSVIEW.c **** *
 758:../../../SystemView/SEGGER/SEGGER_SYSVIEW.c **** *  Parameters
 759:../../../SystemView/SEGGER/SEGGER_SYSVIEW.c **** *    s            Pointer to format string.
 760:../../../SystemView/SEGGER/SEGGER_SYSVIEW.c **** *    Options      Options to be sent to the host.
 761:../../../SystemView/SEGGER/SEGGER_SYSVIEW.c **** *    pParamList   Pointer to the list of arguments for the format string.
 762:../../../SystemView/SEGGER/SEGGER_SYSVIEW.c **** */
 763:../../../SystemView/SEGGER/SEGGER_SYSVIEW.c **** static int _VPrintHost(const char* s, U32 Options, va_list* pParamList) {
 898              		.loc 1 763 0
 899              		.cfi_startproc
ARM GAS  /tmp/ccJhHFds.s 			page 30


 900              		@ args = 0, pretend = 0, frame = 136
 901              		@ frame_needed = 1, uses_anonymous_args = 0
 902 0000 80B5     		push	{r7, lr}
 903              	.LCFI33:
 904              		.cfi_def_cfa_offset 8
 905              		.cfi_offset 7, -8
 906              		.cfi_offset 14, -4
 907 0002 A2B0     		sub	sp, sp, #136
 908              	.LCFI34:
 909              		.cfi_def_cfa_offset 144
 910 0004 00AF     		add	r7, sp, #0
 911              	.LCFI35:
 912              		.cfi_def_cfa_register 7
 913 0006 F860     		str	r0, [r7, #12]
 914 0008 B960     		str	r1, [r7, #8]
 915 000a 7A60     		str	r2, [r7, #4]
 764:../../../SystemView/SEGGER/SEGGER_SYSVIEW.c ****   U32         aParas[SEGGER_SYSVIEW_MAX_ARGUMENTS];
 765:../../../SystemView/SEGGER/SEGGER_SYSVIEW.c ****   U32*        pParas;
 766:../../../SystemView/SEGGER/SEGGER_SYSVIEW.c ****   U32         NumArguments;
 767:../../../SystemView/SEGGER/SEGGER_SYSVIEW.c ****   const char* p;
 768:../../../SystemView/SEGGER/SEGGER_SYSVIEW.c ****   char        c;
 769:../../../SystemView/SEGGER/SEGGER_SYSVIEW.c ****   U8*         pPayload;
 770:../../../SystemView/SEGGER/SEGGER_SYSVIEW.c ****   U8*         pPayloadStart;
 771:../../../SystemView/SEGGER/SEGGER_SYSVIEW.c **** #if SEGGER_SYSVIEW_PRINTF_IMPLICIT_FORMAT
 772:../../../SystemView/SEGGER/SEGGER_SYSVIEW.c ****   U8 HasNonScalar;
 773:../../../SystemView/SEGGER/SEGGER_SYSVIEW.c ****   
 774:../../../SystemView/SEGGER/SEGGER_SYSVIEW.c ****   HasNonScalar = 0;
 775:../../../SystemView/SEGGER/SEGGER_SYSVIEW.c **** #endif  
 776:../../../SystemView/SEGGER/SEGGER_SYSVIEW.c ****   //
 777:../../../SystemView/SEGGER/SEGGER_SYSVIEW.c ****   // Count number of arguments by counting '%' characters in string.
 778:../../../SystemView/SEGGER/SEGGER_SYSVIEW.c ****   // If enabled, check for non-scalar modifier flags to format string on the target.
 779:../../../SystemView/SEGGER/SEGGER_SYSVIEW.c ****   //
 780:../../../SystemView/SEGGER/SEGGER_SYSVIEW.c ****   p = s;
 916              		.loc 1 780 0
 917 000c FB68     		ldr	r3, [r7, #12]
 918 000e FB67     		str	r3, [r7, #124]
 781:../../../SystemView/SEGGER/SEGGER_SYSVIEW.c ****   NumArguments = 0;
 919              		.loc 1 781 0
 920 0010 0023     		movs	r3, #0
 921 0012 C7F88030 		str	r3, [r7, #128]
 922              	.L61:
 782:../../../SystemView/SEGGER/SEGGER_SYSVIEW.c ****   for (;;) {
 783:../../../SystemView/SEGGER/SEGGER_SYSVIEW.c ****     c = *p++;
 923              		.loc 1 783 0
 924 0016 FB6F     		ldr	r3, [r7, #124]
 925 0018 5A1C     		adds	r2, r3, #1
 926 001a FA67     		str	r2, [r7, #124]
 927 001c 1B78     		ldrb	r3, [r3]
 928 001e 87F85F30 		strb	r3, [r7, #95]
 784:../../../SystemView/SEGGER/SEGGER_SYSVIEW.c ****     if (c == 0) {
 929              		.loc 1 784 0
 930 0022 97F85F30 		ldrb	r3, [r7, #95]	@ zero_extendqisi2
 931 0026 002B     		cmp	r3, #0
 932 0028 00D1     		bne	.L58
 785:../../../SystemView/SEGGER/SEGGER_SYSVIEW.c ****       break;
 933              		.loc 1 785 0
 934 002a 1EE0     		b	.L59
ARM GAS  /tmp/ccJhHFds.s 			page 31


 935              	.L58:
 786:../../../SystemView/SEGGER/SEGGER_SYSVIEW.c ****     }
 787:../../../SystemView/SEGGER/SEGGER_SYSVIEW.c ****     if (c == '%') {
 936              		.loc 1 787 0
 937 002c 97F85F30 		ldrb	r3, [r7, #95]	@ zero_extendqisi2
 938 0030 252B     		cmp	r3, #37
 939 0032 19D1     		bne	.L60
 788:../../../SystemView/SEGGER/SEGGER_SYSVIEW.c ****       c = *p;
 940              		.loc 1 788 0
 941 0034 FB6F     		ldr	r3, [r7, #124]
 942 0036 1B78     		ldrb	r3, [r3]
 943 0038 87F85F30 		strb	r3, [r7, #95]
 789:../../../SystemView/SEGGER/SEGGER_SYSVIEW.c **** #if SEGGER_SYSVIEW_PRINTF_IMPLICIT_FORMAT == 0
 790:../../../SystemView/SEGGER/SEGGER_SYSVIEW.c ****       aParas[NumArguments++] = va_arg(*pParamList, int);
 944              		.loc 1 790 0
 945 003c D7F88030 		ldr	r3, [r7, #128]
 946 0040 5A1C     		adds	r2, r3, #1
 947 0042 C7F88020 		str	r2, [r7, #128]
 948 0046 7A68     		ldr	r2, [r7, #4]
 949 0048 1268     		ldr	r2, [r2]
 950 004a 101D     		adds	r0, r2, #4
 951 004c 7968     		ldr	r1, [r7, #4]
 952 004e 0860     		str	r0, [r1]
 953 0050 1268     		ldr	r2, [r2]
 954 0052 9B00     		lsls	r3, r3, #2
 955 0054 07F18801 		add	r1, r7, #136
 956 0058 0B44     		add	r3, r3, r1
 957 005a 43F8742C 		str	r2, [r3, #-116]
 791:../../../SystemView/SEGGER/SEGGER_SYSVIEW.c ****       if (NumArguments == SEGGER_SYSVIEW_MAX_ARGUMENTS) {
 958              		.loc 1 791 0
 959 005e D7F88030 		ldr	r3, [r7, #128]
 960 0062 102B     		cmp	r3, #16
 961 0064 00D1     		bne	.L60
 792:../../../SystemView/SEGGER/SEGGER_SYSVIEW.c ****         break;
 962              		.loc 1 792 0
 963 0066 00E0     		b	.L59
 964              	.L60:
 793:../../../SystemView/SEGGER/SEGGER_SYSVIEW.c ****       }
 794:../../../SystemView/SEGGER/SEGGER_SYSVIEW.c **** #else
 795:../../../SystemView/SEGGER/SEGGER_SYSVIEW.c ****       if (c == 's') {
 796:../../../SystemView/SEGGER/SEGGER_SYSVIEW.c ****         HasNonScalar = 1;
 797:../../../SystemView/SEGGER/SEGGER_SYSVIEW.c ****         break;
 798:../../../SystemView/SEGGER/SEGGER_SYSVIEW.c ****       } else {
 799:../../../SystemView/SEGGER/SEGGER_SYSVIEW.c ****         aParas[NumArguments++] = va_arg(*pParamList, int);
 800:../../../SystemView/SEGGER/SEGGER_SYSVIEW.c ****         if (NumArguments == SEGGER_SYSVIEW_MAX_ARGUMENTS) {
 801:../../../SystemView/SEGGER/SEGGER_SYSVIEW.c ****           break;
 802:../../../SystemView/SEGGER/SEGGER_SYSVIEW.c ****         }
 803:../../../SystemView/SEGGER/SEGGER_SYSVIEW.c ****       }
 804:../../../SystemView/SEGGER/SEGGER_SYSVIEW.c **** #endif
 805:../../../SystemView/SEGGER/SEGGER_SYSVIEW.c ****     }
 806:../../../SystemView/SEGGER/SEGGER_SYSVIEW.c ****   }
 965              		.loc 1 806 0
 966 0068 D5E7     		b	.L61
 967              	.L59:
 968              	.LBB5:
 807:../../../SystemView/SEGGER/SEGGER_SYSVIEW.c **** 
 808:../../../SystemView/SEGGER/SEGGER_SYSVIEW.c **** #if SEGGER_SYSVIEW_PRINTF_IMPLICIT_FORMAT
ARM GAS  /tmp/ccJhHFds.s 			page 32


 809:../../../SystemView/SEGGER/SEGGER_SYSVIEW.c ****   if (HasNonScalar) {
 810:../../../SystemView/SEGGER/SEGGER_SYSVIEW.c ****     return -1;
 811:../../../SystemView/SEGGER/SEGGER_SYSVIEW.c ****   }
 812:../../../SystemView/SEGGER/SEGGER_SYSVIEW.c **** #endif
 813:../../../SystemView/SEGGER/SEGGER_SYSVIEW.c ****   //
 814:../../../SystemView/SEGGER/SEGGER_SYSVIEW.c ****   // Send string and parameters to host
 815:../../../SystemView/SEGGER/SEGGER_SYSVIEW.c ****   //
 816:../../../SystemView/SEGGER/SEGGER_SYSVIEW.c ****   {
 817:../../../SystemView/SEGGER/SEGGER_SYSVIEW.c ****     RECORD_START(SEGGER_SYSVIEW_INFO_SIZE + SEGGER_SYSVIEW_MAX_STRING_LEN + 2 * SEGGER_SYSVIEW_QUAN
 969              		.loc 1 817 0
 970              	@ 817 "../../../SystemView/SEGGER/SEGGER_SYSVIEW.c" 1
 971 006a EFF31183 		mrs   r3, basepri  
 972 006e 4FF02001 		mov   r1, #32       
 973 0072 81F31188 		msr   basepri, r1  
 974              		
 975              	@ 0 "" 2
 976              		.thumb
 977 0076 BB65     		str	r3, [r7, #88]
 978 0078 3F48     		ldr	r0, .L71
 979 007a FFF7FEFF 		bl	_PreparePacket
 980 007e 7865     		str	r0, [r7, #84]
 818:../../../SystemView/SEGGER/SEGGER_SYSVIEW.c ****     pPayload = _EncodeStr(pPayloadStart, s, SEGGER_SYSVIEW_MAX_STRING_LEN);
 981              		.loc 1 818 0
 982 0080 786D     		ldr	r0, [r7, #84]
 983 0082 F968     		ldr	r1, [r7, #12]
 984 0084 8022     		movs	r2, #128
 985 0086 FFF7FEFF 		bl	_EncodeStr
 986 008a B867     		str	r0, [r7, #120]
 987              	.LBB6:
 819:../../../SystemView/SEGGER/SEGGER_SYSVIEW.c ****     ENCODE_U32(pPayload, Options);
 988              		.loc 1 819 0
 989 008c BB6F     		ldr	r3, [r7, #120]
 990 008e 7B67     		str	r3, [r7, #116]
 991 0090 BB68     		ldr	r3, [r7, #8]
 992 0092 3B67     		str	r3, [r7, #112]
 993 0094 0BE0     		b	.L62
 994              	.L63:
 995              		.loc 1 819 0 is_stmt 0 discriminator 3
 996 0096 7B6F     		ldr	r3, [r7, #116]
 997 0098 5A1C     		adds	r2, r3, #1
 998 009a 7A67     		str	r2, [r7, #116]
 999 009c 3A6F     		ldr	r2, [r7, #112]
 1000 009e D2B2     		uxtb	r2, r2
 1001 00a0 62F07F02 		orn	r2, r2, #127
 1002 00a4 D2B2     		uxtb	r2, r2
 1003 00a6 1A70     		strb	r2, [r3]
 1004 00a8 3B6F     		ldr	r3, [r7, #112]
 1005 00aa DB09     		lsrs	r3, r3, #7
 1006 00ac 3B67     		str	r3, [r7, #112]
 1007              	.L62:
 1008              		.loc 1 819 0 discriminator 1
 1009 00ae 3B6F     		ldr	r3, [r7, #112]
 1010 00b0 7F2B     		cmp	r3, #127
 1011 00b2 F0D8     		bhi	.L63
 1012              		.loc 1 819 0 discriminator 4
 1013 00b4 7B6F     		ldr	r3, [r7, #116]
 1014 00b6 5A1C     		adds	r2, r3, #1
ARM GAS  /tmp/ccJhHFds.s 			page 33


 1015 00b8 7A67     		str	r2, [r7, #116]
 1016 00ba 3A6F     		ldr	r2, [r7, #112]
 1017 00bc D2B2     		uxtb	r2, r2
 1018 00be 1A70     		strb	r2, [r3]
 1019 00c0 7B6F     		ldr	r3, [r7, #116]
 1020 00c2 BB67     		str	r3, [r7, #120]
 1021              	.LBE6:
 1022              	.LBB7:
 820:../../../SystemView/SEGGER/SEGGER_SYSVIEW.c ****     ENCODE_U32(pPayload, NumArguments);
 1023              		.loc 1 820 0 is_stmt 1 discriminator 4
 1024 00c4 BB6F     		ldr	r3, [r7, #120]
 1025 00c6 FB66     		str	r3, [r7, #108]
 1026 00c8 D7F88030 		ldr	r3, [r7, #128]
 1027 00cc BB66     		str	r3, [r7, #104]
 1028 00ce 0BE0     		b	.L64
 1029              	.L65:
 1030              		.loc 1 820 0 is_stmt 0 discriminator 3
 1031 00d0 FB6E     		ldr	r3, [r7, #108]
 1032 00d2 5A1C     		adds	r2, r3, #1
 1033 00d4 FA66     		str	r2, [r7, #108]
 1034 00d6 BA6E     		ldr	r2, [r7, #104]
 1035 00d8 D2B2     		uxtb	r2, r2
 1036 00da 62F07F02 		orn	r2, r2, #127
 1037 00de D2B2     		uxtb	r2, r2
 1038 00e0 1A70     		strb	r2, [r3]
 1039 00e2 BB6E     		ldr	r3, [r7, #104]
 1040 00e4 DB09     		lsrs	r3, r3, #7
 1041 00e6 BB66     		str	r3, [r7, #104]
 1042              	.L64:
 1043              		.loc 1 820 0 discriminator 1
 1044 00e8 BB6E     		ldr	r3, [r7, #104]
 1045 00ea 7F2B     		cmp	r3, #127
 1046 00ec F0D8     		bhi	.L65
 1047              		.loc 1 820 0 discriminator 4
 1048 00ee FB6E     		ldr	r3, [r7, #108]
 1049 00f0 5A1C     		adds	r2, r3, #1
 1050 00f2 FA66     		str	r2, [r7, #108]
 1051 00f4 BA6E     		ldr	r2, [r7, #104]
 1052 00f6 D2B2     		uxtb	r2, r2
 1053 00f8 1A70     		strb	r2, [r3]
 1054 00fa FB6E     		ldr	r3, [r7, #108]
 1055 00fc BB67     		str	r3, [r7, #120]
 1056              	.LBE7:
 821:../../../SystemView/SEGGER/SEGGER_SYSVIEW.c ****     pParas = aParas;
 1057              		.loc 1 821 0 is_stmt 1 discriminator 4
 1058 00fe 07F11403 		add	r3, r7, #20
 1059 0102 C7F88430 		str	r3, [r7, #132]
 822:../../../SystemView/SEGGER/SEGGER_SYSVIEW.c ****     while (NumArguments--) {
 1060              		.loc 1 822 0 discriminator 4
 1061 0106 22E0     		b	.L66
 1062              	.L69:
 1063              	.LBB8:
 823:../../../SystemView/SEGGER/SEGGER_SYSVIEW.c ****       ENCODE_U32(pPayload, (*pParas));
 1064              		.loc 1 823 0
 1065 0108 BB6F     		ldr	r3, [r7, #120]
 1066 010a 7B66     		str	r3, [r7, #100]
 1067 010c D7F88430 		ldr	r3, [r7, #132]
ARM GAS  /tmp/ccJhHFds.s 			page 34


 1068 0110 1B68     		ldr	r3, [r3]
 1069 0112 3B66     		str	r3, [r7, #96]
 1070 0114 0BE0     		b	.L67
 1071              	.L68:
 1072              		.loc 1 823 0 is_stmt 0 discriminator 3
 1073 0116 7B6E     		ldr	r3, [r7, #100]
 1074 0118 5A1C     		adds	r2, r3, #1
 1075 011a 7A66     		str	r2, [r7, #100]
 1076 011c 3A6E     		ldr	r2, [r7, #96]
 1077 011e D2B2     		uxtb	r2, r2
 1078 0120 62F07F02 		orn	r2, r2, #127
 1079 0124 D2B2     		uxtb	r2, r2
 1080 0126 1A70     		strb	r2, [r3]
 1081 0128 3B6E     		ldr	r3, [r7, #96]
 1082 012a DB09     		lsrs	r3, r3, #7
 1083 012c 3B66     		str	r3, [r7, #96]
 1084              	.L67:
 1085              		.loc 1 823 0 discriminator 1
 1086 012e 3B6E     		ldr	r3, [r7, #96]
 1087 0130 7F2B     		cmp	r3, #127
 1088 0132 F0D8     		bhi	.L68
 1089              		.loc 1 823 0 discriminator 4
 1090 0134 7B6E     		ldr	r3, [r7, #100]
 1091 0136 5A1C     		adds	r2, r3, #1
 1092 0138 7A66     		str	r2, [r7, #100]
 1093 013a 3A6E     		ldr	r2, [r7, #96]
 1094 013c D2B2     		uxtb	r2, r2
 1095 013e 1A70     		strb	r2, [r3]
 1096 0140 7B6E     		ldr	r3, [r7, #100]
 1097 0142 BB67     		str	r3, [r7, #120]
 1098              	.LBE8:
 824:../../../SystemView/SEGGER/SEGGER_SYSVIEW.c ****       pParas++;
 1099              		.loc 1 824 0 is_stmt 1 discriminator 4
 1100 0144 D7F88430 		ldr	r3, [r7, #132]
 1101 0148 0433     		adds	r3, r3, #4
 1102 014a C7F88430 		str	r3, [r7, #132]
 1103              	.L66:
 822:../../../SystemView/SEGGER/SEGGER_SYSVIEW.c ****     while (NumArguments--) {
 1104              		.loc 1 822 0
 1105 014e D7F88030 		ldr	r3, [r7, #128]
 1106 0152 5A1E     		subs	r2, r3, #1
 1107 0154 C7F88020 		str	r2, [r7, #128]
 1108 0158 002B     		cmp	r3, #0
 1109 015a D5D1     		bne	.L69
 825:../../../SystemView/SEGGER/SEGGER_SYSVIEW.c ****     }
 826:../../../SystemView/SEGGER/SEGGER_SYSVIEW.c ****     _SendPacket(pPayloadStart, pPayload, SYSVIEW_EVTID_PRINT_FORMATTED);
 1110              		.loc 1 826 0
 1111 015c 786D     		ldr	r0, [r7, #84]
 1112 015e B96F     		ldr	r1, [r7, #120]
 1113 0160 1A22     		movs	r2, #26
 1114 0162 FFF7FEFF 		bl	_SendPacket
 827:../../../SystemView/SEGGER/SEGGER_SYSVIEW.c ****     RECORD_END();
 1115              		.loc 1 827 0
 1116 0166 BB6D     		ldr	r3, [r7, #88]
 1117              	@ 827 "../../../SystemView/SEGGER/SEGGER_SYSVIEW.c" 1
 1118 0168 83F31188 		msr   basepri, r3  
 1119              		
ARM GAS  /tmp/ccJhHFds.s 			page 35


 1120              	@ 0 "" 2
 1121              		.thumb
 1122              	.LBE5:
 828:../../../SystemView/SEGGER/SEGGER_SYSVIEW.c ****   }
 829:../../../SystemView/SEGGER/SEGGER_SYSVIEW.c ****   return 0;
 1123              		.loc 1 829 0
 1124 016c 0023     		movs	r3, #0
 830:../../../SystemView/SEGGER/SEGGER_SYSVIEW.c **** }
 1125              		.loc 1 830 0
 1126 016e 1846     		mov	r0, r3
 1127 0170 8837     		adds	r7, r7, #136
 1128              	.LCFI36:
 1129              		.cfi_def_cfa_offset 8
 1130 0172 BD46     		mov	sp, r7
 1131              	.LCFI37:
 1132              		.cfi_def_cfa_register 13
 1133              		@ sp needed
 1134 0174 80BD     		pop	{r7, pc}
 1135              	.L72:
 1136 0176 00BF     		.align	2
 1137              	.L71:
 1138 0178 00000000 		.word	_aPacket
 1139              		.cfi_endproc
 1140              	.LFE6:
 1142              		.section	.text._StoreChar,"ax",%progbits
 1143              		.align	2
 1144              		.thumb
 1145              		.thumb_func
 1147              	_StoreChar:
 1148              	.LFB7:
 831:../../../SystemView/SEGGER/SEGGER_SYSVIEW.c **** 
 832:../../../SystemView/SEGGER/SEGGER_SYSVIEW.c **** /*********************************************************************
 833:../../../SystemView/SEGGER/SEGGER_SYSVIEW.c **** *
 834:../../../SystemView/SEGGER/SEGGER_SYSVIEW.c **** *       _StoreChar()
 835:../../../SystemView/SEGGER/SEGGER_SYSVIEW.c **** *
 836:../../../SystemView/SEGGER/SEGGER_SYSVIEW.c **** *  Function description
 837:../../../SystemView/SEGGER/SEGGER_SYSVIEW.c **** *    Stores a character in the printf-buffer and sends the buffer when
 838:../../../SystemView/SEGGER/SEGGER_SYSVIEW.c **** *     it is filled.
 839:../../../SystemView/SEGGER/SEGGER_SYSVIEW.c **** *
 840:../../../SystemView/SEGGER/SEGGER_SYSVIEW.c **** *  Parameters
 841:../../../SystemView/SEGGER/SEGGER_SYSVIEW.c **** *    p            Pointer to the buffer description.
 842:../../../SystemView/SEGGER/SEGGER_SYSVIEW.c **** *    c            Character to be printed.
 843:../../../SystemView/SEGGER/SEGGER_SYSVIEW.c **** */
 844:../../../SystemView/SEGGER/SEGGER_SYSVIEW.c **** static void _StoreChar(SEGGER_SYSVIEW_PRINTF_DESC * p, char c) {
 1149              		.loc 1 844 0
 1150              		.cfi_startproc
 1151              		@ args = 0, pretend = 0, frame = 40
 1152              		@ frame_needed = 1, uses_anonymous_args = 0
 1153 0000 80B5     		push	{r7, lr}
 1154              	.LCFI38:
 1155              		.cfi_def_cfa_offset 8
 1156              		.cfi_offset 7, -8
 1157              		.cfi_offset 14, -4
 1158 0002 8AB0     		sub	sp, sp, #40
 1159              	.LCFI39:
 1160              		.cfi_def_cfa_offset 48
 1161 0004 00AF     		add	r7, sp, #0
ARM GAS  /tmp/ccJhHFds.s 			page 36


 1162              	.LCFI40:
 1163              		.cfi_def_cfa_register 7
 1164 0006 7860     		str	r0, [r7, #4]
 1165 0008 0B46     		mov	r3, r1
 1166 000a FB70     		strb	r3, [r7, #3]
 845:../../../SystemView/SEGGER/SEGGER_SYSVIEW.c ****   unsigned int  Cnt;
 846:../../../SystemView/SEGGER/SEGGER_SYSVIEW.c ****   U8*           pPayload;
 847:../../../SystemView/SEGGER/SEGGER_SYSVIEW.c ****   U32           Options;
 848:../../../SystemView/SEGGER/SEGGER_SYSVIEW.c **** 
 849:../../../SystemView/SEGGER/SEGGER_SYSVIEW.c ****   Cnt = p->Cnt;
 1167              		.loc 1 849 0
 1168 000c 7B68     		ldr	r3, [r7, #4]
 1169 000e 1B69     		ldr	r3, [r3, #16]
 1170 0010 7B61     		str	r3, [r7, #20]
 850:../../../SystemView/SEGGER/SEGGER_SYSVIEW.c ****   if ((Cnt + 1u) <= SEGGER_SYSVIEW_MAX_STRING_LEN) {
 1171              		.loc 1 850 0
 1172 0012 7B69     		ldr	r3, [r7, #20]
 1173 0014 0133     		adds	r3, r3, #1
 1174 0016 802B     		cmp	r3, #128
 1175 0018 0AD8     		bhi	.L74
 851:../../../SystemView/SEGGER/SEGGER_SYSVIEW.c ****     *(p->pPayload++) = c;
 1176              		.loc 1 851 0
 1177 001a 7B68     		ldr	r3, [r7, #4]
 1178 001c 5B68     		ldr	r3, [r3, #4]
 1179 001e 591C     		adds	r1, r3, #1
 1180 0020 7A68     		ldr	r2, [r7, #4]
 1181 0022 5160     		str	r1, [r2, #4]
 1182 0024 FA78     		ldrb	r2, [r7, #3]
 1183 0026 1A70     		strb	r2, [r3]
 852:../../../SystemView/SEGGER/SEGGER_SYSVIEW.c ****     p->Cnt = Cnt + 1u;
 1184              		.loc 1 852 0
 1185 0028 7B69     		ldr	r3, [r7, #20]
 1186 002a 5A1C     		adds	r2, r3, #1
 1187 002c 7B68     		ldr	r3, [r7, #4]
 1188 002e 1A61     		str	r2, [r3, #16]
 1189              	.L74:
 853:../../../SystemView/SEGGER/SEGGER_SYSVIEW.c ****   }
 854:../../../SystemView/SEGGER/SEGGER_SYSVIEW.c ****   //
 855:../../../SystemView/SEGGER/SEGGER_SYSVIEW.c ****   // Write part of string, when the buffer is full
 856:../../../SystemView/SEGGER/SEGGER_SYSVIEW.c ****   //
 857:../../../SystemView/SEGGER/SEGGER_SYSVIEW.c ****   if (p->Cnt == SEGGER_SYSVIEW_MAX_STRING_LEN) {
 1190              		.loc 1 857 0
 1191 0030 7B68     		ldr	r3, [r7, #4]
 1192 0032 1B69     		ldr	r3, [r3, #16]
 1193 0034 802B     		cmp	r3, #128
 1194 0036 5AD1     		bne	.L73
 858:../../../SystemView/SEGGER/SEGGER_SYSVIEW.c ****     *(p->pPayloadStart) = p->Cnt;
 1195              		.loc 1 858 0
 1196 0038 7B68     		ldr	r3, [r7, #4]
 1197 003a 9B68     		ldr	r3, [r3, #8]
 1198 003c 7A68     		ldr	r2, [r7, #4]
 1199 003e 1269     		ldr	r2, [r2, #16]
 1200 0040 D2B2     		uxtb	r2, r2
 1201 0042 1A70     		strb	r2, [r3]
 859:../../../SystemView/SEGGER/SEGGER_SYSVIEW.c ****     pPayload = p->pPayload;
 1202              		.loc 1 859 0
 1203 0044 7B68     		ldr	r3, [r7, #4]
ARM GAS  /tmp/ccJhHFds.s 			page 37


 1204 0046 5B68     		ldr	r3, [r3, #4]
 1205 0048 3B61     		str	r3, [r7, #16]
 860:../../../SystemView/SEGGER/SEGGER_SYSVIEW.c ****     Options = p->Options;
 1206              		.loc 1 860 0
 1207 004a 7B68     		ldr	r3, [r7, #4]
 1208 004c DB68     		ldr	r3, [r3, #12]
 1209 004e FB60     		str	r3, [r7, #12]
 1210              	.LBB9:
 861:../../../SystemView/SEGGER/SEGGER_SYSVIEW.c ****     ENCODE_U32(pPayload, Options);
 1211              		.loc 1 861 0
 1212 0050 3B69     		ldr	r3, [r7, #16]
 1213 0052 7B62     		str	r3, [r7, #36]
 1214 0054 FB68     		ldr	r3, [r7, #12]
 1215 0056 3B62     		str	r3, [r7, #32]
 1216 0058 0BE0     		b	.L76
 1217              	.L77:
 1218              		.loc 1 861 0 is_stmt 0 discriminator 3
 1219 005a 7B6A     		ldr	r3, [r7, #36]
 1220 005c 5A1C     		adds	r2, r3, #1
 1221 005e 7A62     		str	r2, [r7, #36]
 1222 0060 3A6A     		ldr	r2, [r7, #32]
 1223 0062 D2B2     		uxtb	r2, r2
 1224 0064 62F07F02 		orn	r2, r2, #127
 1225 0068 D2B2     		uxtb	r2, r2
 1226 006a 1A70     		strb	r2, [r3]
 1227 006c 3B6A     		ldr	r3, [r7, #32]
 1228 006e DB09     		lsrs	r3, r3, #7
 1229 0070 3B62     		str	r3, [r7, #32]
 1230              	.L76:
 1231              		.loc 1 861 0 discriminator 1
 1232 0072 3B6A     		ldr	r3, [r7, #32]
 1233 0074 7F2B     		cmp	r3, #127
 1234 0076 F0D8     		bhi	.L77
 1235              		.loc 1 861 0 discriminator 4
 1236 0078 7B6A     		ldr	r3, [r7, #36]
 1237 007a 5A1C     		adds	r2, r3, #1
 1238 007c 7A62     		str	r2, [r7, #36]
 1239 007e 3A6A     		ldr	r2, [r7, #32]
 1240 0080 D2B2     		uxtb	r2, r2
 1241 0082 1A70     		strb	r2, [r3]
 1242 0084 7B6A     		ldr	r3, [r7, #36]
 1243 0086 3B61     		str	r3, [r7, #16]
 1244              	.LBE9:
 1245              	.LBB10:
 862:../../../SystemView/SEGGER/SEGGER_SYSVIEW.c ****     ENCODE_U32(pPayload, 0);
 1246              		.loc 1 862 0 is_stmt 1 discriminator 4
 1247 0088 3B69     		ldr	r3, [r7, #16]
 1248 008a FB61     		str	r3, [r7, #28]
 1249 008c 0023     		movs	r3, #0
 1250 008e BB61     		str	r3, [r7, #24]
 1251 0090 0BE0     		b	.L78
 1252              	.L79:
 1253              		.loc 1 862 0 is_stmt 0 discriminator 3
 1254 0092 FB69     		ldr	r3, [r7, #28]
 1255 0094 5A1C     		adds	r2, r3, #1
 1256 0096 FA61     		str	r2, [r7, #28]
 1257 0098 BA69     		ldr	r2, [r7, #24]
ARM GAS  /tmp/ccJhHFds.s 			page 38


 1258 009a D2B2     		uxtb	r2, r2
 1259 009c 62F07F02 		orn	r2, r2, #127
 1260 00a0 D2B2     		uxtb	r2, r2
 1261 00a2 1A70     		strb	r2, [r3]
 1262 00a4 BB69     		ldr	r3, [r7, #24]
 1263 00a6 DB09     		lsrs	r3, r3, #7
 1264 00a8 BB61     		str	r3, [r7, #24]
 1265              	.L78:
 1266              		.loc 1 862 0 discriminator 1
 1267 00aa BB69     		ldr	r3, [r7, #24]
 1268 00ac 7F2B     		cmp	r3, #127
 1269 00ae F0D8     		bhi	.L79
 1270              		.loc 1 862 0 discriminator 4
 1271 00b0 FB69     		ldr	r3, [r7, #28]
 1272 00b2 5A1C     		adds	r2, r3, #1
 1273 00b4 FA61     		str	r2, [r7, #28]
 1274 00b6 BA69     		ldr	r2, [r7, #24]
 1275 00b8 D2B2     		uxtb	r2, r2
 1276 00ba 1A70     		strb	r2, [r3]
 1277 00bc FB69     		ldr	r3, [r7, #28]
 1278 00be 3B61     		str	r3, [r7, #16]
 1279              	.LBE10:
 863:../../../SystemView/SEGGER/SEGGER_SYSVIEW.c ****     _SendPacket(p->pPayloadStart, pPayload, SYSVIEW_EVTID_PRINT_FORMATTED);
 1280              		.loc 1 863 0 is_stmt 1 discriminator 4
 1281 00c0 7B68     		ldr	r3, [r7, #4]
 1282 00c2 9B68     		ldr	r3, [r3, #8]
 1283 00c4 1846     		mov	r0, r3
 1284 00c6 3969     		ldr	r1, [r7, #16]
 1285 00c8 1A22     		movs	r2, #26
 1286 00ca FFF7FEFF 		bl	_SendPacket
 864:../../../SystemView/SEGGER/SEGGER_SYSVIEW.c ****     p->pPayloadStart = _PreparePacket(p->pBuffer);
 1287              		.loc 1 864 0 discriminator 4
 1288 00ce 7B68     		ldr	r3, [r7, #4]
 1289 00d0 1B68     		ldr	r3, [r3]
 1290 00d2 1846     		mov	r0, r3
 1291 00d4 FFF7FEFF 		bl	_PreparePacket
 1292 00d8 0246     		mov	r2, r0
 1293 00da 7B68     		ldr	r3, [r7, #4]
 1294 00dc 9A60     		str	r2, [r3, #8]
 865:../../../SystemView/SEGGER/SEGGER_SYSVIEW.c ****     p->pPayload = p->pPayloadStart + 1u;
 1295              		.loc 1 865 0 discriminator 4
 1296 00de 7B68     		ldr	r3, [r7, #4]
 1297 00e0 9B68     		ldr	r3, [r3, #8]
 1298 00e2 5A1C     		adds	r2, r3, #1
 1299 00e4 7B68     		ldr	r3, [r7, #4]
 1300 00e6 5A60     		str	r2, [r3, #4]
 866:../../../SystemView/SEGGER/SEGGER_SYSVIEW.c ****     p->Cnt = 0u;
 1301              		.loc 1 866 0 discriminator 4
 1302 00e8 7B68     		ldr	r3, [r7, #4]
 1303 00ea 0022     		movs	r2, #0
 1304 00ec 1A61     		str	r2, [r3, #16]
 1305              	.L73:
 867:../../../SystemView/SEGGER/SEGGER_SYSVIEW.c ****   }
 868:../../../SystemView/SEGGER/SEGGER_SYSVIEW.c **** }
 1306              		.loc 1 868 0
 1307 00ee 2837     		adds	r7, r7, #40
 1308              	.LCFI41:
ARM GAS  /tmp/ccJhHFds.s 			page 39


 1309              		.cfi_def_cfa_offset 8
 1310 00f0 BD46     		mov	sp, r7
 1311              	.LCFI42:
 1312              		.cfi_def_cfa_register 13
 1313              		@ sp needed
 1314 00f2 80BD     		pop	{r7, pc}
 1315              		.cfi_endproc
 1316              	.LFE7:
 1318              		.section	.text._PrintUnsigned,"ax",%progbits
 1319              		.align	2
 1320              		.thumb
 1321              		.thumb_func
 1323              	_PrintUnsigned:
 1324              	.LFB8:
 869:../../../SystemView/SEGGER/SEGGER_SYSVIEW.c **** 
 870:../../../SystemView/SEGGER/SEGGER_SYSVIEW.c **** /*********************************************************************
 871:../../../SystemView/SEGGER/SEGGER_SYSVIEW.c **** *
 872:../../../SystemView/SEGGER/SEGGER_SYSVIEW.c **** *       _PrintUnsigned()
 873:../../../SystemView/SEGGER/SEGGER_SYSVIEW.c **** *
 874:../../../SystemView/SEGGER/SEGGER_SYSVIEW.c **** *  Function description
 875:../../../SystemView/SEGGER/SEGGER_SYSVIEW.c **** *    Print an unsigned integer with the given formatting into the 
 876:../../../SystemView/SEGGER/SEGGER_SYSVIEW.c **** *     formatted string.
 877:../../../SystemView/SEGGER/SEGGER_SYSVIEW.c **** *
 878:../../../SystemView/SEGGER/SEGGER_SYSVIEW.c **** *  Parameters
 879:../../../SystemView/SEGGER/SEGGER_SYSVIEW.c **** *    pBufferDesc  Pointer to the buffer description.
 880:../../../SystemView/SEGGER/SEGGER_SYSVIEW.c **** *    v            Value to be printed.
 881:../../../SystemView/SEGGER/SEGGER_SYSVIEW.c **** *    Base         Base of the value.
 882:../../../SystemView/SEGGER/SEGGER_SYSVIEW.c **** *    NumDigits    Number of digits to be printed.
 883:../../../SystemView/SEGGER/SEGGER_SYSVIEW.c **** *    FieldWidth   Width of the printed field.
 884:../../../SystemView/SEGGER/SEGGER_SYSVIEW.c **** *    FormatFlags  Flags for formatting the value.
 885:../../../SystemView/SEGGER/SEGGER_SYSVIEW.c **** */
 886:../../../SystemView/SEGGER/SEGGER_SYSVIEW.c **** static void _PrintUnsigned(SEGGER_SYSVIEW_PRINTF_DESC * pBufferDesc, unsigned int v, unsigned int B
 1325              		.loc 1 886 0
 1326              		.cfi_startproc
 1327              		@ args = 8, pretend = 0, frame = 40
 1328              		@ frame_needed = 1, uses_anonymous_args = 0
 1329 0000 80B5     		push	{r7, lr}
 1330              	.LCFI43:
 1331              		.cfi_def_cfa_offset 8
 1332              		.cfi_offset 7, -8
 1333              		.cfi_offset 14, -4
 1334 0002 8AB0     		sub	sp, sp, #40
 1335              	.LCFI44:
 1336              		.cfi_def_cfa_offset 48
 1337 0004 00AF     		add	r7, sp, #0
 1338              	.LCFI45:
 1339              		.cfi_def_cfa_register 7
 1340 0006 F860     		str	r0, [r7, #12]
 1341 0008 B960     		str	r1, [r7, #8]
 1342 000a 7A60     		str	r2, [r7, #4]
 1343 000c 3B60     		str	r3, [r7]
 887:../../../SystemView/SEGGER/SEGGER_SYSVIEW.c ****   static const char _aV2C[16] = {'0', '1', '2', '3', '4', '5', '6', '7', '8', '9', 'A', 'B', 'C', '
 888:../../../SystemView/SEGGER/SEGGER_SYSVIEW.c ****   unsigned int      Div;
 889:../../../SystemView/SEGGER/SEGGER_SYSVIEW.c ****   unsigned int      Digit;
 890:../../../SystemView/SEGGER/SEGGER_SYSVIEW.c ****   unsigned int      Number;
 891:../../../SystemView/SEGGER/SEGGER_SYSVIEW.c ****   unsigned int      Width;
 892:../../../SystemView/SEGGER/SEGGER_SYSVIEW.c ****   char              c;
ARM GAS  /tmp/ccJhHFds.s 			page 40


 893:../../../SystemView/SEGGER/SEGGER_SYSVIEW.c **** 
 894:../../../SystemView/SEGGER/SEGGER_SYSVIEW.c ****   Number = v;
 1344              		.loc 1 894 0
 1345 000e BB68     		ldr	r3, [r7, #8]
 1346 0010 3B62     		str	r3, [r7, #32]
 895:../../../SystemView/SEGGER/SEGGER_SYSVIEW.c ****   Digit = 1u;
 1347              		.loc 1 895 0
 1348 0012 0123     		movs	r3, #1
 1349 0014 7B62     		str	r3, [r7, #36]
 896:../../../SystemView/SEGGER/SEGGER_SYSVIEW.c ****   //
 897:../../../SystemView/SEGGER/SEGGER_SYSVIEW.c ****   // Get actual field width
 898:../../../SystemView/SEGGER/SEGGER_SYSVIEW.c ****   //
 899:../../../SystemView/SEGGER/SEGGER_SYSVIEW.c ****   Width = 1u;
 1350              		.loc 1 899 0
 1351 0016 0123     		movs	r3, #1
 1352 0018 FB61     		str	r3, [r7, #28]
 900:../../../SystemView/SEGGER/SEGGER_SYSVIEW.c ****   while (Number >= Base) {
 1353              		.loc 1 900 0
 1354 001a 07E0     		b	.L81
 1355              	.L82:
 901:../../../SystemView/SEGGER/SEGGER_SYSVIEW.c ****     Number = (Number / Base);
 1356              		.loc 1 901 0
 1357 001c 3A6A     		ldr	r2, [r7, #32]
 1358 001e 7B68     		ldr	r3, [r7, #4]
 1359 0020 B2FBF3F3 		udiv	r3, r2, r3
 1360 0024 3B62     		str	r3, [r7, #32]
 902:../../../SystemView/SEGGER/SEGGER_SYSVIEW.c ****     Width++;
 1361              		.loc 1 902 0
 1362 0026 FB69     		ldr	r3, [r7, #28]
 1363 0028 0133     		adds	r3, r3, #1
 1364 002a FB61     		str	r3, [r7, #28]
 1365              	.L81:
 900:../../../SystemView/SEGGER/SEGGER_SYSVIEW.c ****   while (Number >= Base) {
 1366              		.loc 1 900 0
 1367 002c 3A6A     		ldr	r2, [r7, #32]
 1368 002e 7B68     		ldr	r3, [r7, #4]
 1369 0030 9A42     		cmp	r2, r3
 1370 0032 F3D2     		bcs	.L82
 903:../../../SystemView/SEGGER/SEGGER_SYSVIEW.c ****   }
 904:../../../SystemView/SEGGER/SEGGER_SYSVIEW.c ****   if (NumDigits > Width) {
 1371              		.loc 1 904 0
 1372 0034 3A68     		ldr	r2, [r7]
 1373 0036 FB69     		ldr	r3, [r7, #28]
 1374 0038 9A42     		cmp	r2, r3
 1375 003a 01D9     		bls	.L83
 905:../../../SystemView/SEGGER/SEGGER_SYSVIEW.c ****     Width = NumDigits;
 1376              		.loc 1 905 0
 1377 003c 3B68     		ldr	r3, [r7]
 1378 003e FB61     		str	r3, [r7, #28]
 1379              	.L83:
 906:../../../SystemView/SEGGER/SEGGER_SYSVIEW.c ****   }
 907:../../../SystemView/SEGGER/SEGGER_SYSVIEW.c ****   //
 908:../../../SystemView/SEGGER/SEGGER_SYSVIEW.c ****   // Print leading chars if necessary
 909:../../../SystemView/SEGGER/SEGGER_SYSVIEW.c ****   //
 910:../../../SystemView/SEGGER/SEGGER_SYSVIEW.c ****   if ((FormatFlags & FORMAT_FLAG_LEFT_JUSTIFY) == 0u) {
 1380              		.loc 1 910 0
 1381 0040 7B6B     		ldr	r3, [r7, #52]
ARM GAS  /tmp/ccJhHFds.s 			page 41


 1382 0042 03F00103 		and	r3, r3, #1
 1383 0046 002B     		cmp	r3, #0
 1384 0048 1FD1     		bne	.L84
 911:../../../SystemView/SEGGER/SEGGER_SYSVIEW.c ****     if (FieldWidth != 0u) {
 1385              		.loc 1 911 0
 1386 004a 3B6B     		ldr	r3, [r7, #48]
 1387 004c 002B     		cmp	r3, #0
 1388 004e 1CD0     		beq	.L84
 912:../../../SystemView/SEGGER/SEGGER_SYSVIEW.c ****       if (((FormatFlags & FORMAT_FLAG_PAD_ZERO) == FORMAT_FLAG_PAD_ZERO) && (NumDigits == 0u)) {
 1389              		.loc 1 912 0
 1390 0050 7B6B     		ldr	r3, [r7, #52]
 1391 0052 03F00203 		and	r3, r3, #2
 1392 0056 002B     		cmp	r3, #0
 1393 0058 05D0     		beq	.L85
 1394              		.loc 1 912 0 is_stmt 0 discriminator 1
 1395 005a 3B68     		ldr	r3, [r7]
 1396 005c 002B     		cmp	r3, #0
 1397 005e 02D1     		bne	.L85
 913:../../../SystemView/SEGGER/SEGGER_SYSVIEW.c ****         c = '0';
 1398              		.loc 1 913 0 is_stmt 1
 1399 0060 3023     		movs	r3, #48
 1400 0062 FB76     		strb	r3, [r7, #27]
 1401 0064 01E0     		b	.L86
 1402              	.L85:
 914:../../../SystemView/SEGGER/SEGGER_SYSVIEW.c ****       } else {
 915:../../../SystemView/SEGGER/SEGGER_SYSVIEW.c ****         c = ' ';
 1403              		.loc 1 915 0
 1404 0066 2023     		movs	r3, #32
 1405 0068 FB76     		strb	r3, [r7, #27]
 1406              	.L86:
 916:../../../SystemView/SEGGER/SEGGER_SYSVIEW.c ****       }
 917:../../../SystemView/SEGGER/SEGGER_SYSVIEW.c ****       while ((FieldWidth != 0u) && (Width < FieldWidth)) {
 1407              		.loc 1 917 0
 1408 006a 07E0     		b	.L87
 1409              	.L88:
 918:../../../SystemView/SEGGER/SEGGER_SYSVIEW.c ****         FieldWidth--;
 1410              		.loc 1 918 0
 1411 006c 3B6B     		ldr	r3, [r7, #48]
 1412 006e 013B     		subs	r3, r3, #1
 1413 0070 3B63     		str	r3, [r7, #48]
 919:../../../SystemView/SEGGER/SEGGER_SYSVIEW.c ****         _StoreChar(pBufferDesc, c);
 1414              		.loc 1 919 0
 1415 0072 FB7E     		ldrb	r3, [r7, #27]	@ zero_extendqisi2
 1416 0074 F868     		ldr	r0, [r7, #12]
 1417 0076 1946     		mov	r1, r3
 1418 0078 FFF7FEFF 		bl	_StoreChar
 1419              	.L87:
 917:../../../SystemView/SEGGER/SEGGER_SYSVIEW.c ****         FieldWidth--;
 1420              		.loc 1 917 0
 1421 007c 3B6B     		ldr	r3, [r7, #48]
 1422 007e 002B     		cmp	r3, #0
 1423 0080 03D0     		beq	.L84
 917:../../../SystemView/SEGGER/SEGGER_SYSVIEW.c ****         FieldWidth--;
 1424              		.loc 1 917 0 is_stmt 0 discriminator 1
 1425 0082 FA69     		ldr	r2, [r7, #28]
 1426 0084 3B6B     		ldr	r3, [r7, #48]
 1427 0086 9A42     		cmp	r2, r3
ARM GAS  /tmp/ccJhHFds.s 			page 42


 1428 0088 F0D3     		bcc	.L88
 1429              	.L84:
 920:../../../SystemView/SEGGER/SEGGER_SYSVIEW.c ****       }
 921:../../../SystemView/SEGGER/SEGGER_SYSVIEW.c ****     }
 922:../../../SystemView/SEGGER/SEGGER_SYSVIEW.c ****   }
 923:../../../SystemView/SEGGER/SEGGER_SYSVIEW.c ****   //
 924:../../../SystemView/SEGGER/SEGGER_SYSVIEW.c ****   // Compute Digit.
 925:../../../SystemView/SEGGER/SEGGER_SYSVIEW.c ****   // Loop until Digit has the value of the highest digit required.
 926:../../../SystemView/SEGGER/SEGGER_SYSVIEW.c ****   // Example: If the output is 345 (Base 10), loop 2 times until Digit is 100.
 927:../../../SystemView/SEGGER/SEGGER_SYSVIEW.c ****   //
 928:../../../SystemView/SEGGER/SEGGER_SYSVIEW.c ****   while (1) {
 929:../../../SystemView/SEGGER/SEGGER_SYSVIEW.c ****     if (NumDigits > 1u) {       // User specified a min number of digits to print? => Make sure we 
 1430              		.loc 1 929 0 is_stmt 1
 1431 008a 3B68     		ldr	r3, [r7]
 1432 008c 012B     		cmp	r3, #1
 1433 008e 03D9     		bls	.L89
 930:../../../SystemView/SEGGER/SEGGER_SYSVIEW.c ****       NumDigits--;
 1434              		.loc 1 930 0
 1435 0090 3B68     		ldr	r3, [r7]
 1436 0092 013B     		subs	r3, r3, #1
 1437 0094 3B60     		str	r3, [r7]
 1438 0096 09E0     		b	.L90
 1439              	.L89:
 931:../../../SystemView/SEGGER/SEGGER_SYSVIEW.c ****     } else {
 932:../../../SystemView/SEGGER/SEGGER_SYSVIEW.c ****       Div = v / Digit;
 1440              		.loc 1 932 0
 1441 0098 BA68     		ldr	r2, [r7, #8]
 1442 009a 7B6A     		ldr	r3, [r7, #36]
 1443 009c B2FBF3F3 		udiv	r3, r2, r3
 1444 00a0 7B61     		str	r3, [r7, #20]
 933:../../../SystemView/SEGGER/SEGGER_SYSVIEW.c ****       if (Div < Base) {        // Is our divider big enough to extract the highest digit from value
 1445              		.loc 1 933 0
 1446 00a2 7A69     		ldr	r2, [r7, #20]
 1447 00a4 7B68     		ldr	r3, [r7, #4]
 1448 00a6 9A42     		cmp	r2, r3
 1449 00a8 00D2     		bcs	.L90
 934:../../../SystemView/SEGGER/SEGGER_SYSVIEW.c ****         break;
 1450              		.loc 1 934 0
 1451 00aa 05E0     		b	.L91
 1452              	.L90:
 935:../../../SystemView/SEGGER/SEGGER_SYSVIEW.c ****       }
 936:../../../SystemView/SEGGER/SEGGER_SYSVIEW.c ****     }
 937:../../../SystemView/SEGGER/SEGGER_SYSVIEW.c ****     Digit *= Base;
 1453              		.loc 1 937 0
 1454 00ac 7B6A     		ldr	r3, [r7, #36]
 1455 00ae 7A68     		ldr	r2, [r7, #4]
 1456 00b0 02FB03F3 		mul	r3, r2, r3
 1457 00b4 7B62     		str	r3, [r7, #36]
 938:../../../SystemView/SEGGER/SEGGER_SYSVIEW.c ****   }
 1458              		.loc 1 938 0
 1459 00b6 E8E7     		b	.L84
 1460              	.L91:
 939:../../../SystemView/SEGGER/SEGGER_SYSVIEW.c ****   //
 940:../../../SystemView/SEGGER/SEGGER_SYSVIEW.c ****   // Output digits
 941:../../../SystemView/SEGGER/SEGGER_SYSVIEW.c ****   //
 942:../../../SystemView/SEGGER/SEGGER_SYSVIEW.c ****   do {
 943:../../../SystemView/SEGGER/SEGGER_SYSVIEW.c ****     Div = v / Digit;
ARM GAS  /tmp/ccJhHFds.s 			page 43


 1461              		.loc 1 943 0 discriminator 1
 1462 00b8 BA68     		ldr	r2, [r7, #8]
 1463 00ba 7B6A     		ldr	r3, [r7, #36]
 1464 00bc B2FBF3F3 		udiv	r3, r2, r3
 1465 00c0 7B61     		str	r3, [r7, #20]
 944:../../../SystemView/SEGGER/SEGGER_SYSVIEW.c ****     v -= Div * Digit;
 1466              		.loc 1 944 0 discriminator 1
 1467 00c2 7B69     		ldr	r3, [r7, #20]
 1468 00c4 7A6A     		ldr	r2, [r7, #36]
 1469 00c6 02FB03F3 		mul	r3, r2, r3
 1470 00ca BA68     		ldr	r2, [r7, #8]
 1471 00cc D31A     		subs	r3, r2, r3
 1472 00ce BB60     		str	r3, [r7, #8]
 945:../../../SystemView/SEGGER/SEGGER_SYSVIEW.c ****     _StoreChar(pBufferDesc, _aV2C[Div]);
 1473              		.loc 1 945 0 discriminator 1
 1474 00d0 144A     		ldr	r2, .L95
 1475 00d2 7B69     		ldr	r3, [r7, #20]
 1476 00d4 1344     		add	r3, r3, r2
 1477 00d6 1B78     		ldrb	r3, [r3]	@ zero_extendqisi2
 1478 00d8 F868     		ldr	r0, [r7, #12]
 1479 00da 1946     		mov	r1, r3
 1480 00dc FFF7FEFF 		bl	_StoreChar
 946:../../../SystemView/SEGGER/SEGGER_SYSVIEW.c ****     Digit /= Base;
 1481              		.loc 1 946 0 discriminator 1
 1482 00e0 7A6A     		ldr	r2, [r7, #36]
 1483 00e2 7B68     		ldr	r3, [r7, #4]
 1484 00e4 B2FBF3F3 		udiv	r3, r2, r3
 1485 00e8 7B62     		str	r3, [r7, #36]
 947:../../../SystemView/SEGGER/SEGGER_SYSVIEW.c ****   } while (Digit);
 1486              		.loc 1 947 0 discriminator 1
 1487 00ea 7B6A     		ldr	r3, [r7, #36]
 1488 00ec 002B     		cmp	r3, #0
 1489 00ee E3D1     		bne	.L91
 948:../../../SystemView/SEGGER/SEGGER_SYSVIEW.c ****   //
 949:../../../SystemView/SEGGER/SEGGER_SYSVIEW.c ****   // Print trailing spaces if necessary
 950:../../../SystemView/SEGGER/SEGGER_SYSVIEW.c ****   //
 951:../../../SystemView/SEGGER/SEGGER_SYSVIEW.c ****   if ((FormatFlags & FORMAT_FLAG_LEFT_JUSTIFY) == FORMAT_FLAG_LEFT_JUSTIFY) {
 1490              		.loc 1 951 0
 1491 00f0 7B6B     		ldr	r3, [r7, #52]
 1492 00f2 03F00103 		and	r3, r3, #1
 1493 00f6 002B     		cmp	r3, #0
 1494 00f8 11D0     		beq	.L80
 952:../../../SystemView/SEGGER/SEGGER_SYSVIEW.c ****     if (FieldWidth != 0u) {
 1495              		.loc 1 952 0
 1496 00fa 3B6B     		ldr	r3, [r7, #48]
 1497 00fc 002B     		cmp	r3, #0
 1498 00fe 0ED0     		beq	.L80
 953:../../../SystemView/SEGGER/SEGGER_SYSVIEW.c ****       while ((FieldWidth != 0u) && (Width < FieldWidth)) {
 1499              		.loc 1 953 0
 1500 0100 06E0     		b	.L93
 1501              	.L94:
 954:../../../SystemView/SEGGER/SEGGER_SYSVIEW.c ****         FieldWidth--;
 1502              		.loc 1 954 0
 1503 0102 3B6B     		ldr	r3, [r7, #48]
 1504 0104 013B     		subs	r3, r3, #1
 1505 0106 3B63     		str	r3, [r7, #48]
 955:../../../SystemView/SEGGER/SEGGER_SYSVIEW.c ****         _StoreChar(pBufferDesc, ' ');
ARM GAS  /tmp/ccJhHFds.s 			page 44


 1506              		.loc 1 955 0
 1507 0108 F868     		ldr	r0, [r7, #12]
 1508 010a 2021     		movs	r1, #32
 1509 010c FFF7FEFF 		bl	_StoreChar
 1510              	.L93:
 953:../../../SystemView/SEGGER/SEGGER_SYSVIEW.c ****       while ((FieldWidth != 0u) && (Width < FieldWidth)) {
 1511              		.loc 1 953 0
 1512 0110 3B6B     		ldr	r3, [r7, #48]
 1513 0112 002B     		cmp	r3, #0
 1514 0114 03D0     		beq	.L80
 953:../../../SystemView/SEGGER/SEGGER_SYSVIEW.c ****       while ((FieldWidth != 0u) && (Width < FieldWidth)) {
 1515              		.loc 1 953 0 is_stmt 0 discriminator 1
 1516 0116 FA69     		ldr	r2, [r7, #28]
 1517 0118 3B6B     		ldr	r3, [r7, #48]
 1518 011a 9A42     		cmp	r2, r3
 1519 011c F1D3     		bcc	.L94
 1520              	.L80:
 956:../../../SystemView/SEGGER/SEGGER_SYSVIEW.c ****       }
 957:../../../SystemView/SEGGER/SEGGER_SYSVIEW.c ****     }
 958:../../../SystemView/SEGGER/SEGGER_SYSVIEW.c ****   }
 959:../../../SystemView/SEGGER/SEGGER_SYSVIEW.c **** }
 1521              		.loc 1 959 0 is_stmt 1
 1522 011e 2837     		adds	r7, r7, #40
 1523              	.LCFI46:
 1524              		.cfi_def_cfa_offset 8
 1525 0120 BD46     		mov	sp, r7
 1526              	.LCFI47:
 1527              		.cfi_def_cfa_register 13
 1528              		@ sp needed
 1529 0122 80BD     		pop	{r7, pc}
 1530              	.L96:
 1531              		.align	2
 1532              	.L95:
 1533 0124 00000000 		.word	_aV2C.5453
 1534              		.cfi_endproc
 1535              	.LFE8:
 1537              		.section	.text._PrintInt,"ax",%progbits
 1538              		.align	2
 1539              		.thumb
 1540              		.thumb_func
 1542              	_PrintInt:
 1543              	.LFB9:
 960:../../../SystemView/SEGGER/SEGGER_SYSVIEW.c **** 
 961:../../../SystemView/SEGGER/SEGGER_SYSVIEW.c **** /*********************************************************************
 962:../../../SystemView/SEGGER/SEGGER_SYSVIEW.c **** *
 963:../../../SystemView/SEGGER/SEGGER_SYSVIEW.c **** *       _PrintInt()
 964:../../../SystemView/SEGGER/SEGGER_SYSVIEW.c **** *
 965:../../../SystemView/SEGGER/SEGGER_SYSVIEW.c **** *  Function description
 966:../../../SystemView/SEGGER/SEGGER_SYSVIEW.c **** *    Print a signed integer with the given formatting into the 
 967:../../../SystemView/SEGGER/SEGGER_SYSVIEW.c **** *     formatted string.
 968:../../../SystemView/SEGGER/SEGGER_SYSVIEW.c **** *
 969:../../../SystemView/SEGGER/SEGGER_SYSVIEW.c **** *  Parameters
 970:../../../SystemView/SEGGER/SEGGER_SYSVIEW.c **** *    pBufferDesc  Pointer to the buffer description.
 971:../../../SystemView/SEGGER/SEGGER_SYSVIEW.c **** *    v            Value to be printed.
 972:../../../SystemView/SEGGER/SEGGER_SYSVIEW.c **** *    Base         Base of the value.
 973:../../../SystemView/SEGGER/SEGGER_SYSVIEW.c **** *    NumDigits    Number of digits to be printed.
 974:../../../SystemView/SEGGER/SEGGER_SYSVIEW.c **** *    FieldWidth   Width of the printed field.
ARM GAS  /tmp/ccJhHFds.s 			page 45


 975:../../../SystemView/SEGGER/SEGGER_SYSVIEW.c **** *    FormatFlags  Flags for formatting the value.
 976:../../../SystemView/SEGGER/SEGGER_SYSVIEW.c **** */
 977:../../../SystemView/SEGGER/SEGGER_SYSVIEW.c **** static void _PrintInt(SEGGER_SYSVIEW_PRINTF_DESC * pBufferDesc, int v, unsigned int Base, unsigned 
 1544              		.loc 1 977 0
 1545              		.cfi_startproc
 1546              		@ args = 8, pretend = 0, frame = 24
 1547              		@ frame_needed = 1, uses_anonymous_args = 0
 1548 0000 80B5     		push	{r7, lr}
 1549              	.LCFI48:
 1550              		.cfi_def_cfa_offset 8
 1551              		.cfi_offset 7, -8
 1552              		.cfi_offset 14, -4
 1553 0002 88B0     		sub	sp, sp, #32
 1554              	.LCFI49:
 1555              		.cfi_def_cfa_offset 40
 1556 0004 02AF     		add	r7, sp, #8
 1557              	.LCFI50:
 1558              		.cfi_def_cfa 7, 32
 1559 0006 F860     		str	r0, [r7, #12]
 1560 0008 B960     		str	r1, [r7, #8]
 1561 000a 7A60     		str	r2, [r7, #4]
 1562 000c 3B60     		str	r3, [r7]
 978:../../../SystemView/SEGGER/SEGGER_SYSVIEW.c ****   unsigned int  Width;
 979:../../../SystemView/SEGGER/SEGGER_SYSVIEW.c ****   int           Number;
 980:../../../SystemView/SEGGER/SEGGER_SYSVIEW.c **** 
 981:../../../SystemView/SEGGER/SEGGER_SYSVIEW.c ****   Number = (v < 0) ? -v : v;
 1563              		.loc 1 981 0
 1564 000e BB68     		ldr	r3, [r7, #8]
 1565 0010 002B     		cmp	r3, #0
 1566 0012 B8BF     		it	lt
 1567 0014 5B42     		rsblt	r3, r3, #0
 1568 0016 3B61     		str	r3, [r7, #16]
 982:../../../SystemView/SEGGER/SEGGER_SYSVIEW.c **** 
 983:../../../SystemView/SEGGER/SEGGER_SYSVIEW.c ****   //
 984:../../../SystemView/SEGGER/SEGGER_SYSVIEW.c ****   // Get actual field width
 985:../../../SystemView/SEGGER/SEGGER_SYSVIEW.c ****   //
 986:../../../SystemView/SEGGER/SEGGER_SYSVIEW.c ****   Width = 1u;
 1569              		.loc 1 986 0
 1570 0018 0123     		movs	r3, #1
 1571 001a 7B61     		str	r3, [r7, #20]
 987:../../../SystemView/SEGGER/SEGGER_SYSVIEW.c ****   while (Number >= (int)Base) {
 1572              		.loc 1 987 0
 1573 001c 07E0     		b	.L98
 1574              	.L99:
 988:../../../SystemView/SEGGER/SEGGER_SYSVIEW.c ****     Number = (Number / (int)Base);
 1575              		.loc 1 988 0
 1576 001e 7B68     		ldr	r3, [r7, #4]
 1577 0020 3A69     		ldr	r2, [r7, #16]
 1578 0022 92FBF3F3 		sdiv	r3, r2, r3
 1579 0026 3B61     		str	r3, [r7, #16]
 989:../../../SystemView/SEGGER/SEGGER_SYSVIEW.c ****     Width++;
 1580              		.loc 1 989 0
 1581 0028 7B69     		ldr	r3, [r7, #20]
 1582 002a 0133     		adds	r3, r3, #1
 1583 002c 7B61     		str	r3, [r7, #20]
 1584              	.L98:
 987:../../../SystemView/SEGGER/SEGGER_SYSVIEW.c ****   while (Number >= (int)Base) {
ARM GAS  /tmp/ccJhHFds.s 			page 46


 1585              		.loc 1 987 0
 1586 002e 7A68     		ldr	r2, [r7, #4]
 1587 0030 3B69     		ldr	r3, [r7, #16]
 1588 0032 9A42     		cmp	r2, r3
 1589 0034 F3DD     		ble	.L99
 990:../../../SystemView/SEGGER/SEGGER_SYSVIEW.c ****   }
 991:../../../SystemView/SEGGER/SEGGER_SYSVIEW.c ****   if (NumDigits > Width) {
 1590              		.loc 1 991 0
 1591 0036 3A68     		ldr	r2, [r7]
 1592 0038 7B69     		ldr	r3, [r7, #20]
 1593 003a 9A42     		cmp	r2, r3
 1594 003c 01D9     		bls	.L100
 992:../../../SystemView/SEGGER/SEGGER_SYSVIEW.c ****     Width = NumDigits;
 1595              		.loc 1 992 0
 1596 003e 3B68     		ldr	r3, [r7]
 1597 0040 7B61     		str	r3, [r7, #20]
 1598              	.L100:
 993:../../../SystemView/SEGGER/SEGGER_SYSVIEW.c ****   }
 994:../../../SystemView/SEGGER/SEGGER_SYSVIEW.c ****   if ((FieldWidth > 0u) && ((v < 0) || ((FormatFlags & FORMAT_FLAG_PRINT_SIGN) == FORMAT_FLAG_PRINT
 1599              		.loc 1 994 0
 1600 0042 3B6A     		ldr	r3, [r7, #32]
 1601 0044 002B     		cmp	r3, #0
 1602 0046 0AD0     		beq	.L101
 1603              		.loc 1 994 0 is_stmt 0 discriminator 1
 1604 0048 BB68     		ldr	r3, [r7, #8]
 1605 004a 002B     		cmp	r3, #0
 1606 004c 04DB     		blt	.L102
 1607              		.loc 1 994 0 discriminator 2
 1608 004e 7B6A     		ldr	r3, [r7, #36]
 1609 0050 03F00403 		and	r3, r3, #4
 1610 0054 002B     		cmp	r3, #0
 1611 0056 02D0     		beq	.L101
 1612              	.L102:
 995:../../../SystemView/SEGGER/SEGGER_SYSVIEW.c ****     FieldWidth--;
 1613              		.loc 1 995 0 is_stmt 1
 1614 0058 3B6A     		ldr	r3, [r7, #32]
 1615 005a 013B     		subs	r3, r3, #1
 1616 005c 3B62     		str	r3, [r7, #32]
 1617              	.L101:
 996:../../../SystemView/SEGGER/SEGGER_SYSVIEW.c ****   }
 997:../../../SystemView/SEGGER/SEGGER_SYSVIEW.c **** 
 998:../../../SystemView/SEGGER/SEGGER_SYSVIEW.c ****   //
 999:../../../SystemView/SEGGER/SEGGER_SYSVIEW.c ****   // Print leading spaces if necessary
1000:../../../SystemView/SEGGER/SEGGER_SYSVIEW.c ****   //
1001:../../../SystemView/SEGGER/SEGGER_SYSVIEW.c ****   if ((((FormatFlags & FORMAT_FLAG_PAD_ZERO) == 0u) || (NumDigits != 0u)) && ((FormatFlags & FORMAT
 1618              		.loc 1 1001 0
 1619 005e 7B6A     		ldr	r3, [r7, #36]
 1620 0060 03F00203 		and	r3, r3, #2
 1621 0064 002B     		cmp	r3, #0
 1622 0066 02D0     		beq	.L103
 1623              		.loc 1 1001 0 is_stmt 0 discriminator 2
 1624 0068 3B68     		ldr	r3, [r7]
 1625 006a 002B     		cmp	r3, #0
 1626 006c 16D0     		beq	.L104
 1627              	.L103:
 1628              		.loc 1 1001 0 discriminator 3
 1629 006e 7B6A     		ldr	r3, [r7, #36]
ARM GAS  /tmp/ccJhHFds.s 			page 47


 1630 0070 03F00103 		and	r3, r3, #1
 1631 0074 002B     		cmp	r3, #0
 1632 0076 11D1     		bne	.L104
1002:../../../SystemView/SEGGER/SEGGER_SYSVIEW.c ****     if (FieldWidth != 0u) {
 1633              		.loc 1 1002 0 is_stmt 1
 1634 0078 3B6A     		ldr	r3, [r7, #32]
 1635 007a 002B     		cmp	r3, #0
 1636 007c 0ED0     		beq	.L104
1003:../../../SystemView/SEGGER/SEGGER_SYSVIEW.c ****       while ((FieldWidth != 0u) && (Width < FieldWidth)) {
 1637              		.loc 1 1003 0
 1638 007e 06E0     		b	.L105
 1639              	.L106:
1004:../../../SystemView/SEGGER/SEGGER_SYSVIEW.c ****         FieldWidth--;
 1640              		.loc 1 1004 0
 1641 0080 3B6A     		ldr	r3, [r7, #32]
 1642 0082 013B     		subs	r3, r3, #1
 1643 0084 3B62     		str	r3, [r7, #32]
1005:../../../SystemView/SEGGER/SEGGER_SYSVIEW.c ****         _StoreChar(pBufferDesc, ' ');
 1644              		.loc 1 1005 0
 1645 0086 F868     		ldr	r0, [r7, #12]
 1646 0088 2021     		movs	r1, #32
 1647 008a FFF7FEFF 		bl	_StoreChar
 1648              	.L105:
1003:../../../SystemView/SEGGER/SEGGER_SYSVIEW.c ****       while ((FieldWidth != 0u) && (Width < FieldWidth)) {
 1649              		.loc 1 1003 0
 1650 008e 3B6A     		ldr	r3, [r7, #32]
 1651 0090 002B     		cmp	r3, #0
 1652 0092 03D0     		beq	.L104
1003:../../../SystemView/SEGGER/SEGGER_SYSVIEW.c ****       while ((FieldWidth != 0u) && (Width < FieldWidth)) {
 1653              		.loc 1 1003 0 is_stmt 0 discriminator 1
 1654 0094 7A69     		ldr	r2, [r7, #20]
 1655 0096 3B6A     		ldr	r3, [r7, #32]
 1656 0098 9A42     		cmp	r2, r3
 1657 009a F1D3     		bcc	.L106
 1658              	.L104:
1006:../../../SystemView/SEGGER/SEGGER_SYSVIEW.c ****       }
1007:../../../SystemView/SEGGER/SEGGER_SYSVIEW.c ****     }
1008:../../../SystemView/SEGGER/SEGGER_SYSVIEW.c ****   }
1009:../../../SystemView/SEGGER/SEGGER_SYSVIEW.c ****   //
1010:../../../SystemView/SEGGER/SEGGER_SYSVIEW.c ****   // Print sign if necessary
1011:../../../SystemView/SEGGER/SEGGER_SYSVIEW.c ****   //
1012:../../../SystemView/SEGGER/SEGGER_SYSVIEW.c ****   if (v < 0) {
 1659              		.loc 1 1012 0 is_stmt 1
 1660 009c BB68     		ldr	r3, [r7, #8]
 1661 009e 002B     		cmp	r3, #0
 1662 00a0 07DA     		bge	.L107
1013:../../../SystemView/SEGGER/SEGGER_SYSVIEW.c ****     v = -v;
 1663              		.loc 1 1013 0
 1664 00a2 BB68     		ldr	r3, [r7, #8]
 1665 00a4 5B42     		negs	r3, r3
 1666 00a6 BB60     		str	r3, [r7, #8]
1014:../../../SystemView/SEGGER/SEGGER_SYSVIEW.c ****     _StoreChar(pBufferDesc, '-');
 1667              		.loc 1 1014 0
 1668 00a8 F868     		ldr	r0, [r7, #12]
 1669 00aa 2D21     		movs	r1, #45
 1670 00ac FFF7FEFF 		bl	_StoreChar
 1671 00b0 08E0     		b	.L108
ARM GAS  /tmp/ccJhHFds.s 			page 48


 1672              	.L107:
1015:../../../SystemView/SEGGER/SEGGER_SYSVIEW.c ****   } else if ((FormatFlags & FORMAT_FLAG_PRINT_SIGN) == FORMAT_FLAG_PRINT_SIGN) {
 1673              		.loc 1 1015 0
 1674 00b2 7B6A     		ldr	r3, [r7, #36]
 1675 00b4 03F00403 		and	r3, r3, #4
 1676 00b8 002B     		cmp	r3, #0
 1677 00ba 03D0     		beq	.L108
1016:../../../SystemView/SEGGER/SEGGER_SYSVIEW.c ****     _StoreChar(pBufferDesc, '+');
 1678              		.loc 1 1016 0
 1679 00bc F868     		ldr	r0, [r7, #12]
 1680 00be 2B21     		movs	r1, #43
 1681 00c0 FFF7FEFF 		bl	_StoreChar
 1682              	.L108:
1017:../../../SystemView/SEGGER/SEGGER_SYSVIEW.c ****   } else {
1018:../../../SystemView/SEGGER/SEGGER_SYSVIEW.c **** 
1019:../../../SystemView/SEGGER/SEGGER_SYSVIEW.c ****   }
1020:../../../SystemView/SEGGER/SEGGER_SYSVIEW.c ****   //
1021:../../../SystemView/SEGGER/SEGGER_SYSVIEW.c ****   // Print leading zeros if necessary
1022:../../../SystemView/SEGGER/SEGGER_SYSVIEW.c ****   //
1023:../../../SystemView/SEGGER/SEGGER_SYSVIEW.c ****   if (((FormatFlags & FORMAT_FLAG_PAD_ZERO) == FORMAT_FLAG_PAD_ZERO) && ((FormatFlags & FORMAT_FLAG
 1683              		.loc 1 1023 0
 1684 00c4 7B6A     		ldr	r3, [r7, #36]
 1685 00c6 03F00203 		and	r3, r3, #2
 1686 00ca 002B     		cmp	r3, #0
 1687 00cc 19D0     		beq	.L109
 1688              		.loc 1 1023 0 is_stmt 0 discriminator 1
 1689 00ce 7B6A     		ldr	r3, [r7, #36]
 1690 00d0 03F00103 		and	r3, r3, #1
 1691 00d4 002B     		cmp	r3, #0
 1692 00d6 14D1     		bne	.L109
 1693              		.loc 1 1023 0 discriminator 2
 1694 00d8 3B68     		ldr	r3, [r7]
 1695 00da 002B     		cmp	r3, #0
 1696 00dc 11D1     		bne	.L109
1024:../../../SystemView/SEGGER/SEGGER_SYSVIEW.c ****     if (FieldWidth != 0u) {
 1697              		.loc 1 1024 0 is_stmt 1
 1698 00de 3B6A     		ldr	r3, [r7, #32]
 1699 00e0 002B     		cmp	r3, #0
 1700 00e2 0ED0     		beq	.L109
1025:../../../SystemView/SEGGER/SEGGER_SYSVIEW.c ****       while ((FieldWidth != 0u) && (Width < FieldWidth)) {
 1701              		.loc 1 1025 0
 1702 00e4 06E0     		b	.L110
 1703              	.L111:
1026:../../../SystemView/SEGGER/SEGGER_SYSVIEW.c ****         FieldWidth--;
 1704              		.loc 1 1026 0
 1705 00e6 3B6A     		ldr	r3, [r7, #32]
 1706 00e8 013B     		subs	r3, r3, #1
 1707 00ea 3B62     		str	r3, [r7, #32]
1027:../../../SystemView/SEGGER/SEGGER_SYSVIEW.c ****         _StoreChar(pBufferDesc, '0');
 1708              		.loc 1 1027 0
 1709 00ec F868     		ldr	r0, [r7, #12]
 1710 00ee 3021     		movs	r1, #48
 1711 00f0 FFF7FEFF 		bl	_StoreChar
 1712              	.L110:
1025:../../../SystemView/SEGGER/SEGGER_SYSVIEW.c ****       while ((FieldWidth != 0u) && (Width < FieldWidth)) {
 1713              		.loc 1 1025 0
 1714 00f4 3B6A     		ldr	r3, [r7, #32]
ARM GAS  /tmp/ccJhHFds.s 			page 49


 1715 00f6 002B     		cmp	r3, #0
 1716 00f8 03D0     		beq	.L109
1025:../../../SystemView/SEGGER/SEGGER_SYSVIEW.c ****       while ((FieldWidth != 0u) && (Width < FieldWidth)) {
 1717              		.loc 1 1025 0 is_stmt 0 discriminator 1
 1718 00fa 7A69     		ldr	r2, [r7, #20]
 1719 00fc 3B6A     		ldr	r3, [r7, #32]
 1720 00fe 9A42     		cmp	r2, r3
 1721 0100 F1D3     		bcc	.L111
 1722              	.L109:
1028:../../../SystemView/SEGGER/SEGGER_SYSVIEW.c ****       }
1029:../../../SystemView/SEGGER/SEGGER_SYSVIEW.c ****     }
1030:../../../SystemView/SEGGER/SEGGER_SYSVIEW.c ****   }
1031:../../../SystemView/SEGGER/SEGGER_SYSVIEW.c ****   //
1032:../../../SystemView/SEGGER/SEGGER_SYSVIEW.c ****   // Print number without sign
1033:../../../SystemView/SEGGER/SEGGER_SYSVIEW.c ****   //
1034:../../../SystemView/SEGGER/SEGGER_SYSVIEW.c ****   _PrintUnsigned(pBufferDesc, (unsigned int)v, Base, NumDigits, FieldWidth, FormatFlags);
 1723              		.loc 1 1034 0 is_stmt 1
 1724 0102 BA68     		ldr	r2, [r7, #8]
 1725 0104 3B6A     		ldr	r3, [r7, #32]
 1726 0106 0093     		str	r3, [sp]
 1727 0108 7B6A     		ldr	r3, [r7, #36]
 1728 010a 0193     		str	r3, [sp, #4]
 1729 010c F868     		ldr	r0, [r7, #12]
 1730 010e 1146     		mov	r1, r2
 1731 0110 7A68     		ldr	r2, [r7, #4]
 1732 0112 3B68     		ldr	r3, [r7]
 1733 0114 FFF7FEFF 		bl	_PrintUnsigned
1035:../../../SystemView/SEGGER/SEGGER_SYSVIEW.c **** }
 1734              		.loc 1 1035 0
 1735 0118 1837     		adds	r7, r7, #24
 1736              	.LCFI51:
 1737              		.cfi_def_cfa_offset 8
 1738 011a BD46     		mov	sp, r7
 1739              	.LCFI52:
 1740              		.cfi_def_cfa_register 13
 1741              		@ sp needed
 1742 011c 80BD     		pop	{r7, pc}
 1743              		.cfi_endproc
 1744              	.LFE9:
 1746 011e 00BF     		.section	.text._VPrintTarget,"ax",%progbits
 1747              		.align	2
 1748              		.thumb
 1749              		.thumb_func
 1751              	_VPrintTarget:
 1752              	.LFB10:
1036:../../../SystemView/SEGGER/SEGGER_SYSVIEW.c **** 
1037:../../../SystemView/SEGGER/SEGGER_SYSVIEW.c **** /*********************************************************************
1038:../../../SystemView/SEGGER/SEGGER_SYSVIEW.c **** *
1039:../../../SystemView/SEGGER/SEGGER_SYSVIEW.c **** *       _VPrintTarget()
1040:../../../SystemView/SEGGER/SEGGER_SYSVIEW.c **** *
1041:../../../SystemView/SEGGER/SEGGER_SYSVIEW.c **** *  Function description
1042:../../../SystemView/SEGGER/SEGGER_SYSVIEW.c **** *    Stores a formatted string.
1043:../../../SystemView/SEGGER/SEGGER_SYSVIEW.c **** *    This data is read by the host.
1044:../../../SystemView/SEGGER/SEGGER_SYSVIEW.c **** *
1045:../../../SystemView/SEGGER/SEGGER_SYSVIEW.c **** *  Parameters
1046:../../../SystemView/SEGGER/SEGGER_SYSVIEW.c **** *    sFormat      Pointer to format string.
1047:../../../SystemView/SEGGER/SEGGER_SYSVIEW.c **** *    Options      Options to be sent to the host.
ARM GAS  /tmp/ccJhHFds.s 			page 50


1048:../../../SystemView/SEGGER/SEGGER_SYSVIEW.c **** *    pParamList   Pointer to the list of arguments for the format string.
1049:../../../SystemView/SEGGER/SEGGER_SYSVIEW.c **** */
1050:../../../SystemView/SEGGER/SEGGER_SYSVIEW.c **** static void _VPrintTarget(const char* sFormat, U32 Options, va_list* pParamList) {
 1753              		.loc 1 1050 0
 1754              		.cfi_startproc
 1755              		@ args = 0, pretend = 0, frame = 88
 1756              		@ frame_needed = 1, uses_anonymous_args = 0
 1757 0000 80B5     		push	{r7, lr}
 1758              	.LCFI53:
 1759              		.cfi_def_cfa_offset 8
 1760              		.cfi_offset 7, -8
 1761              		.cfi_offset 14, -4
 1762 0002 98B0     		sub	sp, sp, #96
 1763              	.LCFI54:
 1764              		.cfi_def_cfa_offset 104
 1765 0004 02AF     		add	r7, sp, #8
 1766              	.LCFI55:
 1767              		.cfi_def_cfa 7, 96
 1768 0006 F860     		str	r0, [r7, #12]
 1769 0008 B960     		str	r1, [r7, #8]
 1770 000a 7A60     		str	r2, [r7, #4]
 1771              	.LBB11:
1051:../../../SystemView/SEGGER/SEGGER_SYSVIEW.c ****   SEGGER_SYSVIEW_PRINTF_DESC BufferDesc;
1052:../../../SystemView/SEGGER/SEGGER_SYSVIEW.c ****   char          c;
1053:../../../SystemView/SEGGER/SEGGER_SYSVIEW.c ****   int           v;
1054:../../../SystemView/SEGGER/SEGGER_SYSVIEW.c ****   unsigned int  NumDigits;
1055:../../../SystemView/SEGGER/SEGGER_SYSVIEW.c ****   unsigned int  FormatFlags;
1056:../../../SystemView/SEGGER/SEGGER_SYSVIEW.c ****   unsigned int  FieldWidth;
1057:../../../SystemView/SEGGER/SEGGER_SYSVIEW.c ****   U8*           pPayloadStart;
1058:../../../SystemView/SEGGER/SEGGER_SYSVIEW.c **** #if SEGGER_SYSVIEW_USE_STATIC_BUFFER == 0
1059:../../../SystemView/SEGGER/SEGGER_SYSVIEW.c ****   RECORD_START(SEGGER_SYSVIEW_INFO_SIZE + SEGGER_SYSVIEW_MAX_STRING_LEN + 1 + 2 * SEGGER_SYSVIEW_QU
1060:../../../SystemView/SEGGER/SEGGER_SYSVIEW.c ****   SEGGER_SYSVIEW_LOCK();
1061:../../../SystemView/SEGGER/SEGGER_SYSVIEW.c **** #else
1062:../../../SystemView/SEGGER/SEGGER_SYSVIEW.c ****   RECORD_START(SEGGER_SYSVIEW_INFO_SIZE + SEGGER_SYSVIEW_MAX_STRING_LEN + 1 + 2 * SEGGER_SYSVIEW_QU
 1772              		.loc 1 1062 0
 1773              	@ 1062 "../../../SystemView/SEGGER/SEGGER_SYSVIEW.c" 1
 1774 000c EFF31183 		mrs   r3, basepri  
 1775 0010 4FF02001 		mov   r1, #32       
 1776 0014 81F31188 		msr   basepri, r1  
 1777              		
 1778              	@ 0 "" 2
 1779              		.thumb
 1780 0018 3B63     		str	r3, [r7, #48]
 1781 001a A848     		ldr	r0, .L147
 1782 001c FFF7FEFF 		bl	_PreparePacket
 1783 0020 F862     		str	r0, [r7, #44]
1063:../../../SystemView/SEGGER/SEGGER_SYSVIEW.c **** #endif
1064:../../../SystemView/SEGGER/SEGGER_SYSVIEW.c **** 
1065:../../../SystemView/SEGGER/SEGGER_SYSVIEW.c **** #if SEGGER_SYSVIEW_USE_STATIC_BUFFER == 0
1066:../../../SystemView/SEGGER/SEGGER_SYSVIEW.c ****   BufferDesc.pBuffer        = aPacket;
1067:../../../SystemView/SEGGER/SEGGER_SYSVIEW.c **** #else
1068:../../../SystemView/SEGGER/SEGGER_SYSVIEW.c ****   BufferDesc.pBuffer        = _aPacket;
 1784              		.loc 1 1068 0
 1785 0022 A64B     		ldr	r3, .L147
 1786 0024 7B61     		str	r3, [r7, #20]
1069:../../../SystemView/SEGGER/SEGGER_SYSVIEW.c **** #endif
1070:../../../SystemView/SEGGER/SEGGER_SYSVIEW.c ****   BufferDesc.Cnt            = 0u;
ARM GAS  /tmp/ccJhHFds.s 			page 51


 1787              		.loc 1 1070 0
 1788 0026 0023     		movs	r3, #0
 1789 0028 7B62     		str	r3, [r7, #36]
1071:../../../SystemView/SEGGER/SEGGER_SYSVIEW.c ****   BufferDesc.pPayloadStart  = pPayloadStart;
 1790              		.loc 1 1071 0
 1791 002a FB6A     		ldr	r3, [r7, #44]
 1792 002c FB61     		str	r3, [r7, #28]
1072:../../../SystemView/SEGGER/SEGGER_SYSVIEW.c ****   BufferDesc.pPayload       = BufferDesc.pPayloadStart + 1u;
 1793              		.loc 1 1072 0
 1794 002e FB69     		ldr	r3, [r7, #28]
 1795 0030 0133     		adds	r3, r3, #1
 1796 0032 BB61     		str	r3, [r7, #24]
1073:../../../SystemView/SEGGER/SEGGER_SYSVIEW.c ****   BufferDesc.Options        =  Options;
 1797              		.loc 1 1073 0
 1798 0034 BB68     		ldr	r3, [r7, #8]
 1799 0036 3B62     		str	r3, [r7, #32]
 1800              	.L141:
1074:../../../SystemView/SEGGER/SEGGER_SYSVIEW.c **** 
1075:../../../SystemView/SEGGER/SEGGER_SYSVIEW.c ****   do {
1076:../../../SystemView/SEGGER/SEGGER_SYSVIEW.c ****     c = *sFormat;
 1801              		.loc 1 1076 0
 1802 0038 FB68     		ldr	r3, [r7, #12]
 1803 003a 1B78     		ldrb	r3, [r3]
 1804 003c 87F85730 		strb	r3, [r7, #87]
1077:../../../SystemView/SEGGER/SEGGER_SYSVIEW.c ****     sFormat++;
 1805              		.loc 1 1077 0
 1806 0040 FB68     		ldr	r3, [r7, #12]
 1807 0042 0133     		adds	r3, r3, #1
 1808 0044 FB60     		str	r3, [r7, #12]
1078:../../../SystemView/SEGGER/SEGGER_SYSVIEW.c ****     if (c == 0u) {
 1809              		.loc 1 1078 0
 1810 0046 97F85730 		ldrb	r3, [r7, #87]	@ zero_extendqisi2
 1811 004a 002B     		cmp	r3, #0
 1812 004c 00D1     		bne	.L113
1079:../../../SystemView/SEGGER/SEGGER_SYSVIEW.c ****       break;
 1813              		.loc 1 1079 0
 1814 004e 44E1     		b	.L114
 1815              	.L113:
1080:../../../SystemView/SEGGER/SEGGER_SYSVIEW.c ****     }
1081:../../../SystemView/SEGGER/SEGGER_SYSVIEW.c ****     if (c == '%') {
 1816              		.loc 1 1081 0
 1817 0050 97F85730 		ldrb	r3, [r7, #87]	@ zero_extendqisi2
 1818 0054 252B     		cmp	r3, #37
 1819 0056 40F03381 		bne	.L115
1082:../../../SystemView/SEGGER/SEGGER_SYSVIEW.c ****       //
1083:../../../SystemView/SEGGER/SEGGER_SYSVIEW.c ****       // Filter out flags
1084:../../../SystemView/SEGGER/SEGGER_SYSVIEW.c ****       //
1085:../../../SystemView/SEGGER/SEGGER_SYSVIEW.c ****       FormatFlags = 0u;
 1820              		.loc 1 1085 0
 1821 005a 0023     		movs	r3, #0
 1822 005c BB64     		str	r3, [r7, #72]
1086:../../../SystemView/SEGGER/SEGGER_SYSVIEW.c ****       v = 1;
 1823              		.loc 1 1086 0
 1824 005e 0123     		movs	r3, #1
 1825 0060 3B65     		str	r3, [r7, #80]
 1826              	.L123:
1087:../../../SystemView/SEGGER/SEGGER_SYSVIEW.c ****       do {
ARM GAS  /tmp/ccJhHFds.s 			page 52


1088:../../../SystemView/SEGGER/SEGGER_SYSVIEW.c ****         c = *sFormat;
 1827              		.loc 1 1088 0
 1828 0062 FB68     		ldr	r3, [r7, #12]
 1829 0064 1B78     		ldrb	r3, [r3]
 1830 0066 87F85730 		strb	r3, [r7, #87]
1089:../../../SystemView/SEGGER/SEGGER_SYSVIEW.c ****         switch (c) {
 1831              		.loc 1 1089 0
 1832 006a 97F85730 		ldrb	r3, [r7, #87]	@ zero_extendqisi2
 1833 006e 233B     		subs	r3, r3, #35
 1834 0070 0D2B     		cmp	r3, #13
 1835 0072 3FD8     		bhi	.L116
 1836 0074 01A2     		adr	r2, .L118
 1837 0076 52F823F0 		ldr	pc, [r2, r3, lsl #2]
 1838 007a 00BF     		.p2align 2
 1839              	.L118:
 1840 007c E5000000 		.word	.L117+1
 1841 0080 F5000000 		.word	.L116+1
 1842 0084 F5000000 		.word	.L116+1
 1843 0088 F5000000 		.word	.L116+1
 1844 008c F5000000 		.word	.L116+1
 1845 0090 F5000000 		.word	.L116+1
 1846 0094 F5000000 		.word	.L116+1
 1847 0098 F5000000 		.word	.L116+1
 1848 009c D5000000 		.word	.L119+1
 1849 00a0 F5000000 		.word	.L116+1
 1850 00a4 B5000000 		.word	.L120+1
 1851 00a8 F5000000 		.word	.L116+1
 1852 00ac F5000000 		.word	.L116+1
 1853 00b0 C5000000 		.word	.L121+1
 1854              		.p2align 1
 1855              	.L120:
1090:../../../SystemView/SEGGER/SEGGER_SYSVIEW.c ****         case '-': FormatFlags |= FORMAT_FLAG_LEFT_JUSTIFY; sFormat++; break;
 1856              		.loc 1 1090 0
 1857 00b4 BB6C     		ldr	r3, [r7, #72]
 1858 00b6 43F00103 		orr	r3, r3, #1
 1859 00ba BB64     		str	r3, [r7, #72]
 1860 00bc FB68     		ldr	r3, [r7, #12]
 1861 00be 0133     		adds	r3, r3, #1
 1862 00c0 FB60     		str	r3, [r7, #12]
 1863 00c2 1AE0     		b	.L122
 1864              	.L121:
1091:../../../SystemView/SEGGER/SEGGER_SYSVIEW.c ****         case '0': FormatFlags |= FORMAT_FLAG_PAD_ZERO;     sFormat++; break;
 1865              		.loc 1 1091 0
 1866 00c4 BB6C     		ldr	r3, [r7, #72]
 1867 00c6 43F00203 		orr	r3, r3, #2
 1868 00ca BB64     		str	r3, [r7, #72]
 1869 00cc FB68     		ldr	r3, [r7, #12]
 1870 00ce 0133     		adds	r3, r3, #1
 1871 00d0 FB60     		str	r3, [r7, #12]
 1872 00d2 12E0     		b	.L122
 1873              	.L119:
1092:../../../SystemView/SEGGER/SEGGER_SYSVIEW.c ****         case '+': FormatFlags |= FORMAT_FLAG_PRINT_SIGN;   sFormat++; break;
 1874              		.loc 1 1092 0
 1875 00d4 BB6C     		ldr	r3, [r7, #72]
 1876 00d6 43F00403 		orr	r3, r3, #4
 1877 00da BB64     		str	r3, [r7, #72]
 1878 00dc FB68     		ldr	r3, [r7, #12]
ARM GAS  /tmp/ccJhHFds.s 			page 53


 1879 00de 0133     		adds	r3, r3, #1
 1880 00e0 FB60     		str	r3, [r7, #12]
 1881 00e2 0AE0     		b	.L122
 1882              	.L117:
1093:../../../SystemView/SEGGER/SEGGER_SYSVIEW.c ****         case '#': FormatFlags |= FORMAT_FLAG_ALTERNATE;    sFormat++; break;
 1883              		.loc 1 1093 0
 1884 00e4 BB6C     		ldr	r3, [r7, #72]
 1885 00e6 43F00803 		orr	r3, r3, #8
 1886 00ea BB64     		str	r3, [r7, #72]
 1887 00ec FB68     		ldr	r3, [r7, #12]
 1888 00ee 0133     		adds	r3, r3, #1
 1889 00f0 FB60     		str	r3, [r7, #12]
 1890 00f2 02E0     		b	.L122
 1891              	.L116:
1094:../../../SystemView/SEGGER/SEGGER_SYSVIEW.c ****         default:  v = 0; break;
 1892              		.loc 1 1094 0
 1893 00f4 0023     		movs	r3, #0
 1894 00f6 3B65     		str	r3, [r7, #80]
 1895 00f8 00BF     		nop
 1896              	.L122:
1095:../../../SystemView/SEGGER/SEGGER_SYSVIEW.c ****         }
1096:../../../SystemView/SEGGER/SEGGER_SYSVIEW.c ****       } while (v);
 1897              		.loc 1 1096 0
 1898 00fa 3B6D     		ldr	r3, [r7, #80]
 1899 00fc 002B     		cmp	r3, #0
 1900 00fe B0D1     		bne	.L123
1097:../../../SystemView/SEGGER/SEGGER_SYSVIEW.c ****       //
1098:../../../SystemView/SEGGER/SEGGER_SYSVIEW.c ****       // filter out field with
1099:../../../SystemView/SEGGER/SEGGER_SYSVIEW.c ****       //
1100:../../../SystemView/SEGGER/SEGGER_SYSVIEW.c ****       FieldWidth = 0u;
 1901              		.loc 1 1100 0
 1902 0100 0023     		movs	r3, #0
 1903 0102 7B64     		str	r3, [r7, #68]
 1904              	.L125:
1101:../../../SystemView/SEGGER/SEGGER_SYSVIEW.c ****       do {
1102:../../../SystemView/SEGGER/SEGGER_SYSVIEW.c ****         c = *sFormat;
 1905              		.loc 1 1102 0
 1906 0104 FB68     		ldr	r3, [r7, #12]
 1907 0106 1B78     		ldrb	r3, [r3]
 1908 0108 87F85730 		strb	r3, [r7, #87]
1103:../../../SystemView/SEGGER/SEGGER_SYSVIEW.c ****         if ((c < '0') || (c > '9')) {
 1909              		.loc 1 1103 0
 1910 010c 97F85730 		ldrb	r3, [r7, #87]	@ zero_extendqisi2
 1911 0110 2F2B     		cmp	r3, #47
 1912 0112 12D9     		bls	.L124
 1913              		.loc 1 1103 0 is_stmt 0 discriminator 1
 1914 0114 97F85730 		ldrb	r3, [r7, #87]	@ zero_extendqisi2
 1915 0118 392B     		cmp	r3, #57
 1916 011a 0ED8     		bhi	.L124
1104:../../../SystemView/SEGGER/SEGGER_SYSVIEW.c ****           break;
1105:../../../SystemView/SEGGER/SEGGER_SYSVIEW.c ****         }
1106:../../../SystemView/SEGGER/SEGGER_SYSVIEW.c ****         sFormat++;
 1917              		.loc 1 1106 0 is_stmt 1
 1918 011c FB68     		ldr	r3, [r7, #12]
 1919 011e 0133     		adds	r3, r3, #1
 1920 0120 FB60     		str	r3, [r7, #12]
1107:../../../SystemView/SEGGER/SEGGER_SYSVIEW.c ****         FieldWidth = (FieldWidth * 10u) + ((unsigned int)c - '0');
ARM GAS  /tmp/ccJhHFds.s 			page 54


 1921              		.loc 1 1107 0
 1922 0122 7A6C     		ldr	r2, [r7, #68]
 1923 0124 1346     		mov	r3, r2
 1924 0126 9B00     		lsls	r3, r3, #2
 1925 0128 1344     		add	r3, r3, r2
 1926 012a 5B00     		lsls	r3, r3, #1
 1927 012c 1A46     		mov	r2, r3
 1928 012e 97F85730 		ldrb	r3, [r7, #87]	@ zero_extendqisi2
 1929 0132 1344     		add	r3, r3, r2
 1930 0134 303B     		subs	r3, r3, #48
 1931 0136 7B64     		str	r3, [r7, #68]
1108:../../../SystemView/SEGGER/SEGGER_SYSVIEW.c ****       } while (1);
 1932              		.loc 1 1108 0
 1933 0138 E4E7     		b	.L125
 1934              	.L124:
1109:../../../SystemView/SEGGER/SEGGER_SYSVIEW.c **** 
1110:../../../SystemView/SEGGER/SEGGER_SYSVIEW.c ****       //
1111:../../../SystemView/SEGGER/SEGGER_SYSVIEW.c ****       // Filter out precision (number of digits to display)
1112:../../../SystemView/SEGGER/SEGGER_SYSVIEW.c ****       //
1113:../../../SystemView/SEGGER/SEGGER_SYSVIEW.c ****       NumDigits = 0u;
 1935              		.loc 1 1113 0
 1936 013a 0023     		movs	r3, #0
 1937 013c FB64     		str	r3, [r7, #76]
1114:../../../SystemView/SEGGER/SEGGER_SYSVIEW.c ****       c = *sFormat;
 1938              		.loc 1 1114 0
 1939 013e FB68     		ldr	r3, [r7, #12]
 1940 0140 1B78     		ldrb	r3, [r3]
 1941 0142 87F85730 		strb	r3, [r7, #87]
1115:../../../SystemView/SEGGER/SEGGER_SYSVIEW.c ****       if (c == '.') {
 1942              		.loc 1 1115 0
 1943 0146 97F85730 		ldrb	r3, [r7, #87]	@ zero_extendqisi2
 1944 014a 2E2B     		cmp	r3, #46
 1945 014c 1DD1     		bne	.L126
1116:../../../SystemView/SEGGER/SEGGER_SYSVIEW.c ****         sFormat++;
 1946              		.loc 1 1116 0
 1947 014e FB68     		ldr	r3, [r7, #12]
 1948 0150 0133     		adds	r3, r3, #1
 1949 0152 FB60     		str	r3, [r7, #12]
 1950              	.L127:
1117:../../../SystemView/SEGGER/SEGGER_SYSVIEW.c ****         do {
1118:../../../SystemView/SEGGER/SEGGER_SYSVIEW.c ****           c = *sFormat;
 1951              		.loc 1 1118 0
 1952 0154 FB68     		ldr	r3, [r7, #12]
 1953 0156 1B78     		ldrb	r3, [r3]
 1954 0158 87F85730 		strb	r3, [r7, #87]
1119:../../../SystemView/SEGGER/SEGGER_SYSVIEW.c ****           if ((c < '0') || (c > '9')) {
 1955              		.loc 1 1119 0
 1956 015c 97F85730 		ldrb	r3, [r7, #87]	@ zero_extendqisi2
 1957 0160 2F2B     		cmp	r3, #47
 1958 0162 12D9     		bls	.L126
 1959              		.loc 1 1119 0 is_stmt 0 discriminator 1
 1960 0164 97F85730 		ldrb	r3, [r7, #87]	@ zero_extendqisi2
 1961 0168 392B     		cmp	r3, #57
 1962 016a 0ED8     		bhi	.L126
1120:../../../SystemView/SEGGER/SEGGER_SYSVIEW.c ****             break;
1121:../../../SystemView/SEGGER/SEGGER_SYSVIEW.c ****           }
1122:../../../SystemView/SEGGER/SEGGER_SYSVIEW.c ****           sFormat++;
ARM GAS  /tmp/ccJhHFds.s 			page 55


 1963              		.loc 1 1122 0 is_stmt 1
 1964 016c FB68     		ldr	r3, [r7, #12]
 1965 016e 0133     		adds	r3, r3, #1
 1966 0170 FB60     		str	r3, [r7, #12]
1123:../../../SystemView/SEGGER/SEGGER_SYSVIEW.c ****           NumDigits = NumDigits * 10u + ((unsigned int)c - '0');
 1967              		.loc 1 1123 0
 1968 0172 FA6C     		ldr	r2, [r7, #76]
 1969 0174 1346     		mov	r3, r2
 1970 0176 9B00     		lsls	r3, r3, #2
 1971 0178 1344     		add	r3, r3, r2
 1972 017a 5B00     		lsls	r3, r3, #1
 1973 017c 1A46     		mov	r2, r3
 1974 017e 97F85730 		ldrb	r3, [r7, #87]	@ zero_extendqisi2
 1975 0182 1344     		add	r3, r3, r2
 1976 0184 303B     		subs	r3, r3, #48
 1977 0186 FB64     		str	r3, [r7, #76]
1124:../../../SystemView/SEGGER/SEGGER_SYSVIEW.c ****         } while (1);
 1978              		.loc 1 1124 0
 1979 0188 E4E7     		b	.L127
 1980              	.L126:
1125:../../../SystemView/SEGGER/SEGGER_SYSVIEW.c ****       }
1126:../../../SystemView/SEGGER/SEGGER_SYSVIEW.c ****       //
1127:../../../SystemView/SEGGER/SEGGER_SYSVIEW.c ****       // Filter out length modifier
1128:../../../SystemView/SEGGER/SEGGER_SYSVIEW.c ****       //
1129:../../../SystemView/SEGGER/SEGGER_SYSVIEW.c ****       c = *sFormat;
 1981              		.loc 1 1129 0
 1982 018a FB68     		ldr	r3, [r7, #12]
 1983 018c 1B78     		ldrb	r3, [r3]
 1984 018e 87F85730 		strb	r3, [r7, #87]
 1985              	.L130:
1130:../../../SystemView/SEGGER/SEGGER_SYSVIEW.c ****       do {
1131:../../../SystemView/SEGGER/SEGGER_SYSVIEW.c ****         if ((c == 'l') || (c == 'h')) {
 1986              		.loc 1 1131 0
 1987 0192 97F85730 		ldrb	r3, [r7, #87]	@ zero_extendqisi2
 1988 0196 6C2B     		cmp	r3, #108
 1989 0198 03D0     		beq	.L128
 1990              		.loc 1 1131 0 is_stmt 0 discriminator 1
 1991 019a 97F85730 		ldrb	r3, [r7, #87]	@ zero_extendqisi2
 1992 019e 682B     		cmp	r3, #104
 1993 01a0 07D1     		bne	.L129
 1994              	.L128:
1132:../../../SystemView/SEGGER/SEGGER_SYSVIEW.c ****           c = *sFormat;
 1995              		.loc 1 1132 0 is_stmt 1
 1996 01a2 FB68     		ldr	r3, [r7, #12]
 1997 01a4 1B78     		ldrb	r3, [r3]
 1998 01a6 87F85730 		strb	r3, [r7, #87]
1133:../../../SystemView/SEGGER/SEGGER_SYSVIEW.c ****           sFormat++;
 1999              		.loc 1 1133 0
 2000 01aa FB68     		ldr	r3, [r7, #12]
 2001 01ac 0133     		adds	r3, r3, #1
 2002 01ae FB60     		str	r3, [r7, #12]
1134:../../../SystemView/SEGGER/SEGGER_SYSVIEW.c ****         } else {
1135:../../../SystemView/SEGGER/SEGGER_SYSVIEW.c ****           break;
1136:../../../SystemView/SEGGER/SEGGER_SYSVIEW.c ****         }
1137:../../../SystemView/SEGGER/SEGGER_SYSVIEW.c ****       } while (1);
 2003              		.loc 1 1137 0
 2004 01b0 EFE7     		b	.L130
ARM GAS  /tmp/ccJhHFds.s 			page 56


 2005              	.L129:
1138:../../../SystemView/SEGGER/SEGGER_SYSVIEW.c ****       //
1139:../../../SystemView/SEGGER/SEGGER_SYSVIEW.c ****       // Handle specifiers
1140:../../../SystemView/SEGGER/SEGGER_SYSVIEW.c ****       //
1141:../../../SystemView/SEGGER/SEGGER_SYSVIEW.c ****       switch (c) {
 2006              		.loc 1 1141 0
 2007 01b2 97F85730 		ldrb	r3, [r7, #87]	@ zero_extendqisi2
 2008 01b6 642B     		cmp	r3, #100
 2009 01b8 22D0     		beq	.L132
 2010 01ba 642B     		cmp	r3, #100
 2011 01bc 06DC     		bgt	.L133
 2012 01be 582B     		cmp	r3, #88
 2013 01c0 47D0     		beq	.L134
 2014 01c2 632B     		cmp	r3, #99
 2015 01c4 09D0     		beq	.L135
 2016 01c6 252B     		cmp	r3, #37
 2017 01c8 6DD0     		beq	.L136
1142:../../../SystemView/SEGGER/SEGGER_SYSVIEW.c ****       case 'c': {
1143:../../../SystemView/SEGGER/SEGGER_SYSVIEW.c ****         char c0;
1144:../../../SystemView/SEGGER/SEGGER_SYSVIEW.c ****         v = va_arg(*pParamList, int);
1145:../../../SystemView/SEGGER/SEGGER_SYSVIEW.c ****         c0 = (char)v;
1146:../../../SystemView/SEGGER/SEGGER_SYSVIEW.c ****         _StoreChar(&BufferDesc, c0);
1147:../../../SystemView/SEGGER/SEGGER_SYSVIEW.c ****         break;
1148:../../../SystemView/SEGGER/SEGGER_SYSVIEW.c ****       }
1149:../../../SystemView/SEGGER/SEGGER_SYSVIEW.c ****       case 'd':
1150:../../../SystemView/SEGGER/SEGGER_SYSVIEW.c ****         v = va_arg(*pParamList, int);
1151:../../../SystemView/SEGGER/SEGGER_SYSVIEW.c ****         _PrintInt(&BufferDesc, v, 10u, NumDigits, FieldWidth, FormatFlags);
1152:../../../SystemView/SEGGER/SEGGER_SYSVIEW.c ****         break;
1153:../../../SystemView/SEGGER/SEGGER_SYSVIEW.c ****       case 'u':
1154:../../../SystemView/SEGGER/SEGGER_SYSVIEW.c ****         v = va_arg(*pParamList, int);
1155:../../../SystemView/SEGGER/SEGGER_SYSVIEW.c ****         _PrintUnsigned(&BufferDesc, (unsigned int)v, 10u, NumDigits, FieldWidth, FormatFlags);
1156:../../../SystemView/SEGGER/SEGGER_SYSVIEW.c ****         break;
1157:../../../SystemView/SEGGER/SEGGER_SYSVIEW.c ****       case 'x':
1158:../../../SystemView/SEGGER/SEGGER_SYSVIEW.c ****       case 'X':
1159:../../../SystemView/SEGGER/SEGGER_SYSVIEW.c ****         v = va_arg(*pParamList, int);
1160:../../../SystemView/SEGGER/SEGGER_SYSVIEW.c ****         _PrintUnsigned(&BufferDesc, (unsigned int)v, 16u, NumDigits, FieldWidth, FormatFlags);
1161:../../../SystemView/SEGGER/SEGGER_SYSVIEW.c ****         break;
1162:../../../SystemView/SEGGER/SEGGER_SYSVIEW.c ****       case 'p':
1163:../../../SystemView/SEGGER/SEGGER_SYSVIEW.c ****         v = va_arg(*pParamList, int);
1164:../../../SystemView/SEGGER/SEGGER_SYSVIEW.c ****         _PrintUnsigned(&BufferDesc, (unsigned int)v, 16u, 8u, 8u, 0u);
1165:../../../SystemView/SEGGER/SEGGER_SYSVIEW.c ****         break;
1166:../../../SystemView/SEGGER/SEGGER_SYSVIEW.c ****       case '%':
1167:../../../SystemView/SEGGER/SEGGER_SYSVIEW.c ****         _StoreChar(&BufferDesc, '%');
1168:../../../SystemView/SEGGER/SEGGER_SYSVIEW.c ****         break;
1169:../../../SystemView/SEGGER/SEGGER_SYSVIEW.c ****       default:
1170:../../../SystemView/SEGGER/SEGGER_SYSVIEW.c ****         break;
 2018              		.loc 1 1170 0
 2019 01ca 73E0     		b	.L139
 2020              	.L133:
1141:../../../SystemView/SEGGER/SEGGER_SYSVIEW.c ****       case 'c': {
 2021              		.loc 1 1141 0
 2022 01cc 752B     		cmp	r3, #117
 2023 01ce 2BD0     		beq	.L137
 2024 01d0 782B     		cmp	r3, #120
 2025 01d2 3ED0     		beq	.L134
 2026 01d4 702B     		cmp	r3, #112
 2027 01d6 51D0     		beq	.L138
ARM GAS  /tmp/ccJhHFds.s 			page 57


 2028              		.loc 1 1170 0
 2029 01d8 6CE0     		b	.L139
 2030              	.L135:
 2031              	.LBB12:
1144:../../../SystemView/SEGGER/SEGGER_SYSVIEW.c ****         c0 = (char)v;
 2032              		.loc 1 1144 0
 2033 01da 7B68     		ldr	r3, [r7, #4]
 2034 01dc 1B68     		ldr	r3, [r3]
 2035 01de 191D     		adds	r1, r3, #4
 2036 01e0 7A68     		ldr	r2, [r7, #4]
 2037 01e2 1160     		str	r1, [r2]
 2038 01e4 1B68     		ldr	r3, [r3]
 2039 01e6 3B65     		str	r3, [r7, #80]
1145:../../../SystemView/SEGGER/SEGGER_SYSVIEW.c ****         _StoreChar(&BufferDesc, c0);
 2040              		.loc 1 1145 0
 2041 01e8 3B6D     		ldr	r3, [r7, #80]
 2042 01ea 87F82B30 		strb	r3, [r7, #43]
1146:../../../SystemView/SEGGER/SEGGER_SYSVIEW.c ****         break;
 2043              		.loc 1 1146 0
 2044 01ee 07F11402 		add	r2, r7, #20
 2045 01f2 97F82B30 		ldrb	r3, [r7, #43]	@ zero_extendqisi2
 2046 01f6 1046     		mov	r0, r2
 2047 01f8 1946     		mov	r1, r3
 2048 01fa FFF7FEFF 		bl	_StoreChar
1147:../../../SystemView/SEGGER/SEGGER_SYSVIEW.c ****       }
 2049              		.loc 1 1147 0
 2050 01fe 59E0     		b	.L139
 2051              	.L132:
 2052              	.LBE12:
1150:../../../SystemView/SEGGER/SEGGER_SYSVIEW.c ****         _PrintInt(&BufferDesc, v, 10u, NumDigits, FieldWidth, FormatFlags);
 2053              		.loc 1 1150 0
 2054 0200 7B68     		ldr	r3, [r7, #4]
 2055 0202 1B68     		ldr	r3, [r3]
 2056 0204 191D     		adds	r1, r3, #4
 2057 0206 7A68     		ldr	r2, [r7, #4]
 2058 0208 1160     		str	r1, [r2]
 2059 020a 1B68     		ldr	r3, [r3]
 2060 020c 3B65     		str	r3, [r7, #80]
1151:../../../SystemView/SEGGER/SEGGER_SYSVIEW.c ****         break;
 2061              		.loc 1 1151 0
 2062 020e 07F11402 		add	r2, r7, #20
 2063 0212 7B6C     		ldr	r3, [r7, #68]
 2064 0214 0093     		str	r3, [sp]
 2065 0216 BB6C     		ldr	r3, [r7, #72]
 2066 0218 0193     		str	r3, [sp, #4]
 2067 021a 1046     		mov	r0, r2
 2068 021c 396D     		ldr	r1, [r7, #80]
 2069 021e 0A22     		movs	r2, #10
 2070 0220 FB6C     		ldr	r3, [r7, #76]
 2071 0222 FFF7FEFF 		bl	_PrintInt
1152:../../../SystemView/SEGGER/SEGGER_SYSVIEW.c ****       case 'u':
 2072              		.loc 1 1152 0
 2073 0226 45E0     		b	.L139
 2074              	.L137:
1154:../../../SystemView/SEGGER/SEGGER_SYSVIEW.c ****         _PrintUnsigned(&BufferDesc, (unsigned int)v, 10u, NumDigits, FieldWidth, FormatFlags);
 2075              		.loc 1 1154 0
 2076 0228 7B68     		ldr	r3, [r7, #4]
ARM GAS  /tmp/ccJhHFds.s 			page 58


 2077 022a 1B68     		ldr	r3, [r3]
 2078 022c 191D     		adds	r1, r3, #4
 2079 022e 7A68     		ldr	r2, [r7, #4]
 2080 0230 1160     		str	r1, [r2]
 2081 0232 1B68     		ldr	r3, [r3]
 2082 0234 3B65     		str	r3, [r7, #80]
1155:../../../SystemView/SEGGER/SEGGER_SYSVIEW.c ****         break;
 2083              		.loc 1 1155 0
 2084 0236 3A6D     		ldr	r2, [r7, #80]
 2085 0238 07F11401 		add	r1, r7, #20
 2086 023c 7B6C     		ldr	r3, [r7, #68]
 2087 023e 0093     		str	r3, [sp]
 2088 0240 BB6C     		ldr	r3, [r7, #72]
 2089 0242 0193     		str	r3, [sp, #4]
 2090 0244 0846     		mov	r0, r1
 2091 0246 1146     		mov	r1, r2
 2092 0248 0A22     		movs	r2, #10
 2093 024a FB6C     		ldr	r3, [r7, #76]
 2094 024c FFF7FEFF 		bl	_PrintUnsigned
1156:../../../SystemView/SEGGER/SEGGER_SYSVIEW.c ****       case 'x':
 2095              		.loc 1 1156 0
 2096 0250 30E0     		b	.L139
 2097              	.L134:
1159:../../../SystemView/SEGGER/SEGGER_SYSVIEW.c ****         _PrintUnsigned(&BufferDesc, (unsigned int)v, 16u, NumDigits, FieldWidth, FormatFlags);
 2098              		.loc 1 1159 0
 2099 0252 7B68     		ldr	r3, [r7, #4]
 2100 0254 1B68     		ldr	r3, [r3]
 2101 0256 191D     		adds	r1, r3, #4
 2102 0258 7A68     		ldr	r2, [r7, #4]
 2103 025a 1160     		str	r1, [r2]
 2104 025c 1B68     		ldr	r3, [r3]
 2105 025e 3B65     		str	r3, [r7, #80]
1160:../../../SystemView/SEGGER/SEGGER_SYSVIEW.c ****         break;
 2106              		.loc 1 1160 0
 2107 0260 3A6D     		ldr	r2, [r7, #80]
 2108 0262 07F11401 		add	r1, r7, #20
 2109 0266 7B6C     		ldr	r3, [r7, #68]
 2110 0268 0093     		str	r3, [sp]
 2111 026a BB6C     		ldr	r3, [r7, #72]
 2112 026c 0193     		str	r3, [sp, #4]
 2113 026e 0846     		mov	r0, r1
 2114 0270 1146     		mov	r1, r2
 2115 0272 1022     		movs	r2, #16
 2116 0274 FB6C     		ldr	r3, [r7, #76]
 2117 0276 FFF7FEFF 		bl	_PrintUnsigned
1161:../../../SystemView/SEGGER/SEGGER_SYSVIEW.c ****       case 'p':
 2118              		.loc 1 1161 0
 2119 027a 1BE0     		b	.L139
 2120              	.L138:
1163:../../../SystemView/SEGGER/SEGGER_SYSVIEW.c ****         _PrintUnsigned(&BufferDesc, (unsigned int)v, 16u, 8u, 8u, 0u);
 2121              		.loc 1 1163 0
 2122 027c 7B68     		ldr	r3, [r7, #4]
 2123 027e 1B68     		ldr	r3, [r3]
 2124 0280 191D     		adds	r1, r3, #4
 2125 0282 7A68     		ldr	r2, [r7, #4]
 2126 0284 1160     		str	r1, [r2]
 2127 0286 1B68     		ldr	r3, [r3]
ARM GAS  /tmp/ccJhHFds.s 			page 59


 2128 0288 3B65     		str	r3, [r7, #80]
1164:../../../SystemView/SEGGER/SEGGER_SYSVIEW.c ****         break;
 2129              		.loc 1 1164 0
 2130 028a 3A6D     		ldr	r2, [r7, #80]
 2131 028c 07F11401 		add	r1, r7, #20
 2132 0290 0823     		movs	r3, #8
 2133 0292 0093     		str	r3, [sp]
 2134 0294 0023     		movs	r3, #0
 2135 0296 0193     		str	r3, [sp, #4]
 2136 0298 0846     		mov	r0, r1
 2137 029a 1146     		mov	r1, r2
 2138 029c 1022     		movs	r2, #16
 2139 029e 0823     		movs	r3, #8
 2140 02a0 FFF7FEFF 		bl	_PrintUnsigned
1165:../../../SystemView/SEGGER/SEGGER_SYSVIEW.c ****       case '%':
 2141              		.loc 1 1165 0
 2142 02a4 06E0     		b	.L139
 2143              	.L136:
1167:../../../SystemView/SEGGER/SEGGER_SYSVIEW.c ****         break;
 2144              		.loc 1 1167 0
 2145 02a6 07F11403 		add	r3, r7, #20
 2146 02aa 1846     		mov	r0, r3
 2147 02ac 2521     		movs	r1, #37
 2148 02ae FFF7FEFF 		bl	_StoreChar
1168:../../../SystemView/SEGGER/SEGGER_SYSVIEW.c ****       default:
 2149              		.loc 1 1168 0
 2150 02b2 00BF     		nop
 2151              	.L139:
1171:../../../SystemView/SEGGER/SEGGER_SYSVIEW.c ****       }
1172:../../../SystemView/SEGGER/SEGGER_SYSVIEW.c ****       sFormat++;
 2152              		.loc 1 1172 0
 2153 02b4 FB68     		ldr	r3, [r7, #12]
 2154 02b6 0133     		adds	r3, r3, #1
 2155 02b8 FB60     		str	r3, [r7, #12]
 2156 02ba 09E0     		b	.L140
 2157              	.L148:
 2158              		.align	2
 2159              	.L147:
 2160 02bc 00000000 		.word	_aPacket
 2161              	.L115:
1173:../../../SystemView/SEGGER/SEGGER_SYSVIEW.c ****     } else {
1174:../../../SystemView/SEGGER/SEGGER_SYSVIEW.c ****       _StoreChar(&BufferDesc, c);
 2162              		.loc 1 1174 0
 2163 02c0 07F11402 		add	r2, r7, #20
 2164 02c4 97F85730 		ldrb	r3, [r7, #87]	@ zero_extendqisi2
 2165 02c8 1046     		mov	r0, r2
 2166 02ca 1946     		mov	r1, r3
 2167 02cc FFF7FEFF 		bl	_StoreChar
 2168              	.L140:
1175:../../../SystemView/SEGGER/SEGGER_SYSVIEW.c ****     }
1176:../../../SystemView/SEGGER/SEGGER_SYSVIEW.c ****   } while (*sFormat);
 2169              		.loc 1 1176 0
 2170 02d0 FB68     		ldr	r3, [r7, #12]
 2171 02d2 1B78     		ldrb	r3, [r3]	@ zero_extendqisi2
 2172 02d4 002B     		cmp	r3, #0
 2173 02d6 7FF4AFAE 		bne	.L141
 2174              	.L114:
ARM GAS  /tmp/ccJhHFds.s 			page 60


1177:../../../SystemView/SEGGER/SEGGER_SYSVIEW.c **** 
1178:../../../SystemView/SEGGER/SEGGER_SYSVIEW.c ****   //
1179:../../../SystemView/SEGGER/SEGGER_SYSVIEW.c ****   // Write remaining data, if any
1180:../../../SystemView/SEGGER/SEGGER_SYSVIEW.c ****   //
1181:../../../SystemView/SEGGER/SEGGER_SYSVIEW.c ****   if (BufferDesc.Cnt != 0u) {
 2175              		.loc 1 1181 0
 2176 02da 7B6A     		ldr	r3, [r7, #36]
 2177 02dc 002B     		cmp	r3, #0
 2178 02de 42D0     		beq	.L142
1182:../../../SystemView/SEGGER/SEGGER_SYSVIEW.c ****     *(BufferDesc.pPayloadStart) = BufferDesc.Cnt;
 2179              		.loc 1 1182 0
 2180 02e0 FB69     		ldr	r3, [r7, #28]
 2181 02e2 7A6A     		ldr	r2, [r7, #36]
 2182 02e4 D2B2     		uxtb	r2, r2
 2183 02e6 1A70     		strb	r2, [r3]
 2184              	.LBB13:
1183:../../../SystemView/SEGGER/SEGGER_SYSVIEW.c ****     ENCODE_U32(BufferDesc.pPayload, BufferDesc.Options);
 2185              		.loc 1 1183 0
 2186 02e8 BB69     		ldr	r3, [r7, #24]
 2187 02ea 3B64     		str	r3, [r7, #64]
 2188 02ec 3B6A     		ldr	r3, [r7, #32]
 2189 02ee FB63     		str	r3, [r7, #60]
 2190 02f0 0BE0     		b	.L143
 2191              	.L144:
 2192              		.loc 1 1183 0 is_stmt 0 discriminator 3
 2193 02f2 3B6C     		ldr	r3, [r7, #64]
 2194 02f4 5A1C     		adds	r2, r3, #1
 2195 02f6 3A64     		str	r2, [r7, #64]
 2196 02f8 FA6B     		ldr	r2, [r7, #60]
 2197 02fa D2B2     		uxtb	r2, r2
 2198 02fc 62F07F02 		orn	r2, r2, #127
 2199 0300 D2B2     		uxtb	r2, r2
 2200 0302 1A70     		strb	r2, [r3]
 2201 0304 FB6B     		ldr	r3, [r7, #60]
 2202 0306 DB09     		lsrs	r3, r3, #7
 2203 0308 FB63     		str	r3, [r7, #60]
 2204              	.L143:
 2205              		.loc 1 1183 0 discriminator 1
 2206 030a FB6B     		ldr	r3, [r7, #60]
 2207 030c 7F2B     		cmp	r3, #127
 2208 030e F0D8     		bhi	.L144
 2209              		.loc 1 1183 0 discriminator 4
 2210 0310 3B6C     		ldr	r3, [r7, #64]
 2211 0312 5A1C     		adds	r2, r3, #1
 2212 0314 3A64     		str	r2, [r7, #64]
 2213 0316 FA6B     		ldr	r2, [r7, #60]
 2214 0318 D2B2     		uxtb	r2, r2
 2215 031a 1A70     		strb	r2, [r3]
 2216 031c 3B6C     		ldr	r3, [r7, #64]
 2217 031e BB61     		str	r3, [r7, #24]
 2218              	.LBE13:
 2219              	.LBB14:
1184:../../../SystemView/SEGGER/SEGGER_SYSVIEW.c ****     ENCODE_U32(BufferDesc.pPayload, 0);
 2220              		.loc 1 1184 0 is_stmt 1 discriminator 4
 2221 0320 BB69     		ldr	r3, [r7, #24]
 2222 0322 BB63     		str	r3, [r7, #56]
 2223 0324 0023     		movs	r3, #0
ARM GAS  /tmp/ccJhHFds.s 			page 61


 2224 0326 7B63     		str	r3, [r7, #52]
 2225 0328 0BE0     		b	.L145
 2226              	.L146:
 2227              		.loc 1 1184 0 is_stmt 0 discriminator 3
 2228 032a BB6B     		ldr	r3, [r7, #56]
 2229 032c 5A1C     		adds	r2, r3, #1
 2230 032e BA63     		str	r2, [r7, #56]
 2231 0330 7A6B     		ldr	r2, [r7, #52]
 2232 0332 D2B2     		uxtb	r2, r2
 2233 0334 62F07F02 		orn	r2, r2, #127
 2234 0338 D2B2     		uxtb	r2, r2
 2235 033a 1A70     		strb	r2, [r3]
 2236 033c 7B6B     		ldr	r3, [r7, #52]
 2237 033e DB09     		lsrs	r3, r3, #7
 2238 0340 7B63     		str	r3, [r7, #52]
 2239              	.L145:
 2240              		.loc 1 1184 0 discriminator 1
 2241 0342 7B6B     		ldr	r3, [r7, #52]
 2242 0344 7F2B     		cmp	r3, #127
 2243 0346 F0D8     		bhi	.L146
 2244              		.loc 1 1184 0 discriminator 4
 2245 0348 BB6B     		ldr	r3, [r7, #56]
 2246 034a 5A1C     		adds	r2, r3, #1
 2247 034c BA63     		str	r2, [r7, #56]
 2248 034e 7A6B     		ldr	r2, [r7, #52]
 2249 0350 D2B2     		uxtb	r2, r2
 2250 0352 1A70     		strb	r2, [r3]
 2251 0354 BB6B     		ldr	r3, [r7, #56]
 2252 0356 BB61     		str	r3, [r7, #24]
 2253              	.LBE14:
1185:../../../SystemView/SEGGER/SEGGER_SYSVIEW.c ****     _SendPacket(BufferDesc.pPayloadStart, BufferDesc.pPayload, SYSVIEW_EVTID_PRINT_FORMATTED);
 2254              		.loc 1 1185 0 is_stmt 1 discriminator 4
 2255 0358 FA69     		ldr	r2, [r7, #28]
 2256 035a BB69     		ldr	r3, [r7, #24]
 2257 035c 1046     		mov	r0, r2
 2258 035e 1946     		mov	r1, r3
 2259 0360 1A22     		movs	r2, #26
 2260 0362 FFF7FEFF 		bl	_SendPacket
 2261              	.L142:
1186:../../../SystemView/SEGGER/SEGGER_SYSVIEW.c ****   }
1187:../../../SystemView/SEGGER/SEGGER_SYSVIEW.c **** #if SEGGER_SYSVIEW_USE_STATIC_BUFFER == 0
1188:../../../SystemView/SEGGER/SEGGER_SYSVIEW.c ****   SEGGER_SYSVIEW_UNLOCK();
1189:../../../SystemView/SEGGER/SEGGER_SYSVIEW.c ****   RECORD_END();
1190:../../../SystemView/SEGGER/SEGGER_SYSVIEW.c **** #else
1191:../../../SystemView/SEGGER/SEGGER_SYSVIEW.c ****   RECORD_END();
 2262              		.loc 1 1191 0
 2263 0366 3B6B     		ldr	r3, [r7, #48]
 2264              	@ 1191 "../../../SystemView/SEGGER/SEGGER_SYSVIEW.c" 1
 2265 0368 83F31188 		msr   basepri, r3  
 2266              		
 2267              	@ 0 "" 2
 2268              		.thumb
 2269              	.LBE11:
1192:../../../SystemView/SEGGER/SEGGER_SYSVIEW.c **** #endif
1193:../../../SystemView/SEGGER/SEGGER_SYSVIEW.c **** }
 2270              		.loc 1 1193 0
 2271 036c 5837     		adds	r7, r7, #88
ARM GAS  /tmp/ccJhHFds.s 			page 62


 2272              	.LCFI56:
 2273              		.cfi_def_cfa_offset 8
 2274 036e BD46     		mov	sp, r7
 2275              	.LCFI57:
 2276              		.cfi_def_cfa_register 13
 2277              		@ sp needed
 2278 0370 80BD     		pop	{r7, pc}
 2279              		.cfi_endproc
 2280              	.LFE10:
 2282 0372 00BF     		.section	.rodata
 2283              		.align	2
 2284              	.LC0:
 2285 0000 53797356 		.ascii	"SysView\000"
 2285      69657700 
 2286              		.section	.text.SEGGER_SYSVIEW_Init,"ax",%progbits
 2287              		.align	2
 2288              		.global	SEGGER_SYSVIEW_Init
 2289              		.thumb
 2290              		.thumb_func
 2292              	SEGGER_SYSVIEW_Init:
 2293              	.LFB11:
1194:../../../SystemView/SEGGER/SEGGER_SYSVIEW.c **** #endif // SEGGER_SYSVIEW_EXCLUDE_PRINTF
1195:../../../SystemView/SEGGER/SEGGER_SYSVIEW.c **** 
1196:../../../SystemView/SEGGER/SEGGER_SYSVIEW.c **** /*********************************************************************
1197:../../../SystemView/SEGGER/SEGGER_SYSVIEW.c **** *
1198:../../../SystemView/SEGGER/SEGGER_SYSVIEW.c **** *       Public functions
1199:../../../SystemView/SEGGER/SEGGER_SYSVIEW.c **** *
1200:../../../SystemView/SEGGER/SEGGER_SYSVIEW.c **** **********************************************************************
1201:../../../SystemView/SEGGER/SEGGER_SYSVIEW.c **** */
1202:../../../SystemView/SEGGER/SEGGER_SYSVIEW.c **** 
1203:../../../SystemView/SEGGER/SEGGER_SYSVIEW.c **** /*********************************************************************
1204:../../../SystemView/SEGGER/SEGGER_SYSVIEW.c **** *
1205:../../../SystemView/SEGGER/SEGGER_SYSVIEW.c **** *       SEGGER_SYSVIEW_Init()
1206:../../../SystemView/SEGGER/SEGGER_SYSVIEW.c **** *
1207:../../../SystemView/SEGGER/SEGGER_SYSVIEW.c **** *  Function description
1208:../../../SystemView/SEGGER/SEGGER_SYSVIEW.c **** *    Initializes the SYSVIEW module.
1209:../../../SystemView/SEGGER/SEGGER_SYSVIEW.c **** *    Must be called before SystemViewer attaches to the system.
1210:../../../SystemView/SEGGER/SEGGER_SYSVIEW.c **** *
1211:../../../SystemView/SEGGER/SEGGER_SYSVIEW.c **** *  Parameters
1212:../../../SystemView/SEGGER/SEGGER_SYSVIEW.c **** *    SysFreq        - Frequency of timestamp, i.e. CPU core clock frequency.
1213:../../../SystemView/SEGGER/SEGGER_SYSVIEW.c **** *    CPUFreq        - CPU core clock frequency.
1214:../../../SystemView/SEGGER/SEGGER_SYSVIEW.c **** *    pOSAPI         - Pointer to the API structure for OS-specific functions.
1215:../../../SystemView/SEGGER/SEGGER_SYSVIEW.c **** *    pfSendSysDesc  - Pointer to SendSysDesc callback function.
1216:../../../SystemView/SEGGER/SEGGER_SYSVIEW.c **** *
1217:../../../SystemView/SEGGER/SEGGER_SYSVIEW.c **** *  Additional information
1218:../../../SystemView/SEGGER/SEGGER_SYSVIEW.c **** *    This function initializes the RTT channel used to transport 
1219:../../../SystemView/SEGGER/SEGGER_SYSVIEW.c **** *    SEGGER SystemView packets. 
1220:../../../SystemView/SEGGER/SEGGER_SYSVIEW.c **** *    The channel is assigned the label "SysView" for client software 
1221:../../../SystemView/SEGGER/SEGGER_SYSVIEW.c **** *    to identify the SystemView channel.
1222:../../../SystemView/SEGGER/SEGGER_SYSVIEW.c **** *
1223:../../../SystemView/SEGGER/SEGGER_SYSVIEW.c **** *  Notes
1224:../../../SystemView/SEGGER/SEGGER_SYSVIEW.c **** *    The channel is configured by the macro SEGGER_SYSVIEW_RTT_CHANNEL.
1225:../../../SystemView/SEGGER/SEGGER_SYSVIEW.c **** */
1226:../../../SystemView/SEGGER/SEGGER_SYSVIEW.c **** void SEGGER_SYSVIEW_Init(U32 SysFreq, U32 CPUFreq, const SEGGER_SYSVIEW_OS_API *pOSAPI, SEGGER_SYSV
 2294              		.loc 1 1226 0
 2295              		.cfi_startproc
 2296              		@ args = 0, pretend = 0, frame = 16
ARM GAS  /tmp/ccJhHFds.s 			page 63


 2297              		@ frame_needed = 1, uses_anonymous_args = 0
 2298 0000 80B5     		push	{r7, lr}
 2299              	.LCFI58:
 2300              		.cfi_def_cfa_offset 8
 2301              		.cfi_offset 7, -8
 2302              		.cfi_offset 14, -4
 2303 0002 86B0     		sub	sp, sp, #24
 2304              	.LCFI59:
 2305              		.cfi_def_cfa_offset 32
 2306 0004 02AF     		add	r7, sp, #8
 2307              	.LCFI60:
 2308              		.cfi_def_cfa 7, 24
 2309 0006 F860     		str	r0, [r7, #12]
 2310 0008 B960     		str	r1, [r7, #8]
 2311 000a 7A60     		str	r2, [r7, #4]
 2312 000c 3B60     		str	r3, [r7]
1227:../../../SystemView/SEGGER/SEGGER_SYSVIEW.c **** #ifdef SEGGER_RTT_SECTION
1228:../../../SystemView/SEGGER/SEGGER_SYSVIEW.c ****   //
1229:../../../SystemView/SEGGER/SEGGER_SYSVIEW.c ****   // Explicitly initialize the RTT Control Block if it is in its dedicated section.
1230:../../../SystemView/SEGGER/SEGGER_SYSVIEW.c ****   //
1231:../../../SystemView/SEGGER/SEGGER_SYSVIEW.c ****   SEGGER_RTT_Init();
1232:../../../SystemView/SEGGER/SEGGER_SYSVIEW.c **** #endif
1233:../../../SystemView/SEGGER/SEGGER_SYSVIEW.c **** #if (SEGGER_SYSVIEW_POST_MORTEM_MODE == 1)
1234:../../../SystemView/SEGGER/SEGGER_SYSVIEW.c **** #if SEGGER_SYSVIEW_RTT_CHANNEL > 0
1235:../../../SystemView/SEGGER/SEGGER_SYSVIEW.c ****   SEGGER_RTT_ConfigUpBuffer(SEGGER_SYSVIEW_RTT_CHANNEL, "SysView", &_UpBuffer[0],   sizeof(_UpBuffe
1236:../../../SystemView/SEGGER/SEGGER_SYSVIEW.c **** #else
1237:../../../SystemView/SEGGER/SEGGER_SYSVIEW.c ****   _SYSVIEW_Globals.UpChannel = SEGGER_RTT_AllocUpBuffer  ("SysView", &_UpBuffer[0],   sizeof(_UpBuf
1238:../../../SystemView/SEGGER/SEGGER_SYSVIEW.c **** #endif
1239:../../../SystemView/SEGGER/SEGGER_SYSVIEW.c ****   _SYSVIEW_Globals.RAMBaseAddress   = SEGGER_SYSVIEW_ID_BASE;
1240:../../../SystemView/SEGGER/SEGGER_SYSVIEW.c ****   _SYSVIEW_Globals.LastTxTimeStamp  = SEGGER_SYSVIEW_GET_TIMESTAMP();
1241:../../../SystemView/SEGGER/SEGGER_SYSVIEW.c ****   _SYSVIEW_Globals.pOSAPI           = pOSAPI;
1242:../../../SystemView/SEGGER/SEGGER_SYSVIEW.c ****   _SYSVIEW_Globals.SysFreq          = SysFreq;
1243:../../../SystemView/SEGGER/SEGGER_SYSVIEW.c ****   _SYSVIEW_Globals.CPUFreq          = CPUFreq;
1244:../../../SystemView/SEGGER/SEGGER_SYSVIEW.c ****   _SYSVIEW_Globals.pfSendSysDesc    = pfSendSysDesc;
1245:../../../SystemView/SEGGER/SEGGER_SYSVIEW.c ****   _SYSVIEW_Globals.EnableState      = 0;
1246:../../../SystemView/SEGGER/SEGGER_SYSVIEW.c ****   _SYSVIEW_Globals.PacketCount      = 0;
1247:../../../SystemView/SEGGER/SEGGER_SYSVIEW.c **** #else // (SEGGER_SYSVIEW_POST_MORTEM_MODE == 1)
1248:../../../SystemView/SEGGER/SEGGER_SYSVIEW.c **** #if SEGGER_SYSVIEW_RTT_CHANNEL > 0
1249:../../../SystemView/SEGGER/SEGGER_SYSVIEW.c ****   SEGGER_RTT_ConfigUpBuffer   (SEGGER_SYSVIEW_RTT_CHANNEL, "SysView", &_UpBuffer[0],   sizeof(_UpBu
 2313              		.loc 1 1249 0
 2314 000e 0023     		movs	r3, #0
 2315 0010 0093     		str	r3, [sp]
 2316 0012 0120     		movs	r0, #1
 2317 0014 1349     		ldr	r1, .L150
 2318 0016 144A     		ldr	r2, .L150+4
 2319 0018 4FF48063 		mov	r3, #1024
 2320 001c FFF7FEFF 		bl	SEGGER_RTT_ConfigUpBuffer
1250:../../../SystemView/SEGGER/SEGGER_SYSVIEW.c ****   SEGGER_RTT_ConfigDownBuffer (SEGGER_SYSVIEW_RTT_CHANNEL, "SysView", &_DownBuffer[0], sizeof(_Down
 2321              		.loc 1 1250 0
 2322 0020 0023     		movs	r3, #0
 2323 0022 0093     		str	r3, [sp]
 2324 0024 0120     		movs	r0, #1
 2325 0026 0F49     		ldr	r1, .L150
 2326 0028 104A     		ldr	r2, .L150+8
 2327 002a 0823     		movs	r3, #8
 2328 002c FFF7FEFF 		bl	SEGGER_RTT_ConfigDownBuffer
1251:../../../SystemView/SEGGER/SEGGER_SYSVIEW.c **** #else
ARM GAS  /tmp/ccJhHFds.s 			page 64


1252:../../../SystemView/SEGGER/SEGGER_SYSVIEW.c ****   _SYSVIEW_Globals.UpChannel = SEGGER_RTT_AllocUpBuffer  ("SysView", &_UpBuffer[0],   sizeof(_UpBuf
1253:../../../SystemView/SEGGER/SEGGER_SYSVIEW.c ****   //
1254:../../../SystemView/SEGGER/SEGGER_SYSVIEW.c ****   // TODO: Use SEGGER_RTT_AllocDownBuffer when SystemViewer is able to handle another Down Channel 
1255:../../../SystemView/SEGGER/SEGGER_SYSVIEW.c ****   //
1256:../../../SystemView/SEGGER/SEGGER_SYSVIEW.c ****   _SYSVIEW_Globals.DownChannel = _SYSVIEW_Globals.UpChannel;
1257:../../../SystemView/SEGGER/SEGGER_SYSVIEW.c ****   SEGGER_RTT_ConfigDownBuffer (_SYSVIEW_Globals.DownChannel, "SysView", &_DownBuffer[0], sizeof(_Do
1258:../../../SystemView/SEGGER/SEGGER_SYSVIEW.c **** #endif
1259:../../../SystemView/SEGGER/SEGGER_SYSVIEW.c ****   _SYSVIEW_Globals.RAMBaseAddress   = SEGGER_SYSVIEW_ID_BASE;
 2329              		.loc 1 1259 0
 2330 0030 0F4B     		ldr	r3, .L150+12
 2331 0032 4FF08052 		mov	r2, #268435456
 2332 0036 1A61     		str	r2, [r3, #16]
1260:../../../SystemView/SEGGER/SEGGER_SYSVIEW.c ****   _SYSVIEW_Globals.LastTxTimeStamp  = SEGGER_SYSVIEW_GET_TIMESTAMP();
 2333              		.loc 1 1260 0
 2334 0038 0E4B     		ldr	r3, .L150+16
 2335 003a 1B68     		ldr	r3, [r3]
 2336 003c 0C4A     		ldr	r2, .L150+12
 2337 003e D360     		str	r3, [r2, #12]
1261:../../../SystemView/SEGGER/SEGGER_SYSVIEW.c ****   _SYSVIEW_Globals.pOSAPI           = pOSAPI;
 2338              		.loc 1 1261 0
 2339 0040 0B4A     		ldr	r2, .L150+12
 2340 0042 7B68     		ldr	r3, [r7, #4]
 2341 0044 1362     		str	r3, [r2, #32]
1262:../../../SystemView/SEGGER/SEGGER_SYSVIEW.c ****   _SYSVIEW_Globals.SysFreq          = SysFreq;
 2342              		.loc 1 1262 0
 2343 0046 0A4A     		ldr	r2, .L150+12
 2344 0048 FB68     		ldr	r3, [r7, #12]
 2345 004a 5360     		str	r3, [r2, #4]
1263:../../../SystemView/SEGGER/SEGGER_SYSVIEW.c ****   _SYSVIEW_Globals.CPUFreq          = CPUFreq;
 2346              		.loc 1 1263 0
 2347 004c 084A     		ldr	r2, .L150+12
 2348 004e BB68     		ldr	r3, [r7, #8]
 2349 0050 9360     		str	r3, [r2, #8]
1264:../../../SystemView/SEGGER/SEGGER_SYSVIEW.c ****   _SYSVIEW_Globals.pfSendSysDesc    = pfSendSysDesc;
 2350              		.loc 1 1264 0
 2351 0052 074A     		ldr	r2, .L150+12
 2352 0054 3B68     		ldr	r3, [r7]
 2353 0056 5362     		str	r3, [r2, #36]
1265:../../../SystemView/SEGGER/SEGGER_SYSVIEW.c ****   _SYSVIEW_Globals.EnableState      = 0;
 2354              		.loc 1 1265 0
 2355 0058 054B     		ldr	r3, .L150+12
 2356 005a 0022     		movs	r2, #0
 2357 005c 1A70     		strb	r2, [r3]
1266:../../../SystemView/SEGGER/SEGGER_SYSVIEW.c **** #endif  // (SEGGER_SYSVIEW_POST_MORTEM_MODE == 1)
1267:../../../SystemView/SEGGER/SEGGER_SYSVIEW.c **** }
 2358              		.loc 1 1267 0
 2359 005e 1037     		adds	r7, r7, #16
 2360              	.LCFI61:
 2361              		.cfi_def_cfa_offset 8
 2362 0060 BD46     		mov	sp, r7
 2363              	.LCFI62:
 2364              		.cfi_def_cfa_register 13
 2365              		@ sp needed
 2366 0062 80BD     		pop	{r7, pc}
 2367              	.L151:
 2368              		.align	2
 2369              	.L150:
ARM GAS  /tmp/ccJhHFds.s 			page 65


 2370 0064 00000000 		.word	.LC0
 2371 0068 00000000 		.word	_UpBuffer
 2372 006c 00000000 		.word	_DownBuffer
 2373 0070 00000000 		.word	_SYSVIEW_Globals
 2374 0074 041000E0 		.word	-536866812
 2375              		.cfi_endproc
 2376              	.LFE11:
 2378              		.section	.text.SEGGER_SYSVIEW_SetRAMBase,"ax",%progbits
 2379              		.align	2
 2380              		.global	SEGGER_SYSVIEW_SetRAMBase
 2381              		.thumb
 2382              		.thumb_func
 2384              	SEGGER_SYSVIEW_SetRAMBase:
 2385              	.LFB12:
1268:../../../SystemView/SEGGER/SEGGER_SYSVIEW.c **** 
1269:../../../SystemView/SEGGER/SEGGER_SYSVIEW.c **** /*********************************************************************
1270:../../../SystemView/SEGGER/SEGGER_SYSVIEW.c **** *
1271:../../../SystemView/SEGGER/SEGGER_SYSVIEW.c **** *       SEGGER_SYSVIEW_SetRAMBase()
1272:../../../SystemView/SEGGER/SEGGER_SYSVIEW.c **** *
1273:../../../SystemView/SEGGER/SEGGER_SYSVIEW.c **** *  Function description
1274:../../../SystemView/SEGGER/SEGGER_SYSVIEW.c **** *    Sets the RAM base address, which is subtracted from IDs in order
1275:../../../SystemView/SEGGER/SEGGER_SYSVIEW.c **** *     to save bandwidth.
1276:../../../SystemView/SEGGER/SEGGER_SYSVIEW.c **** *
1277:../../../SystemView/SEGGER/SEGGER_SYSVIEW.c **** *  Parameters
1278:../../../SystemView/SEGGER/SEGGER_SYSVIEW.c **** *    RAMBaseAddress - Lowest RAM Address. (i.e. 0x20000000 on most Cortex-M)
1279:../../../SystemView/SEGGER/SEGGER_SYSVIEW.c **** */
1280:../../../SystemView/SEGGER/SEGGER_SYSVIEW.c **** void SEGGER_SYSVIEW_SetRAMBase(U32 RAMBaseAddress) {
 2386              		.loc 1 1280 0
 2387              		.cfi_startproc
 2388              		@ args = 0, pretend = 0, frame = 8
 2389              		@ frame_needed = 1, uses_anonymous_args = 0
 2390              		@ link register save eliminated.
 2391 0000 80B4     		push	{r7}
 2392              	.LCFI63:
 2393              		.cfi_def_cfa_offset 4
 2394              		.cfi_offset 7, -4
 2395 0002 83B0     		sub	sp, sp, #12
 2396              	.LCFI64:
 2397              		.cfi_def_cfa_offset 16
 2398 0004 00AF     		add	r7, sp, #0
 2399              	.LCFI65:
 2400              		.cfi_def_cfa_register 7
 2401 0006 7860     		str	r0, [r7, #4]
1281:../../../SystemView/SEGGER/SEGGER_SYSVIEW.c ****   _SYSVIEW_Globals.RAMBaseAddress = RAMBaseAddress;
 2402              		.loc 1 1281 0
 2403 0008 034A     		ldr	r2, .L153
 2404 000a 7B68     		ldr	r3, [r7, #4]
 2405 000c 1361     		str	r3, [r2, #16]
1282:../../../SystemView/SEGGER/SEGGER_SYSVIEW.c **** }
 2406              		.loc 1 1282 0
 2407 000e 0C37     		adds	r7, r7, #12
 2408              	.LCFI66:
 2409              		.cfi_def_cfa_offset 4
 2410 0010 BD46     		mov	sp, r7
 2411              	.LCFI67:
 2412              		.cfi_def_cfa_register 13
 2413              		@ sp needed
ARM GAS  /tmp/ccJhHFds.s 			page 66


 2414 0012 5DF8047B 		ldr	r7, [sp], #4
 2415              	.LCFI68:
 2416              		.cfi_restore 7
 2417              		.cfi_def_cfa_offset 0
 2418 0016 7047     		bx	lr
 2419              	.L154:
 2420              		.align	2
 2421              	.L153:
 2422 0018 00000000 		.word	_SYSVIEW_Globals
 2423              		.cfi_endproc
 2424              	.LFE12:
 2426              		.section	.text.SEGGER_SYSVIEW_RecordVoid,"ax",%progbits
 2427              		.align	2
 2428              		.global	SEGGER_SYSVIEW_RecordVoid
 2429              		.thumb
 2430              		.thumb_func
 2432              	SEGGER_SYSVIEW_RecordVoid:
 2433              	.LFB13:
1283:../../../SystemView/SEGGER/SEGGER_SYSVIEW.c **** 
1284:../../../SystemView/SEGGER/SEGGER_SYSVIEW.c **** /*********************************************************************
1285:../../../SystemView/SEGGER/SEGGER_SYSVIEW.c **** *
1286:../../../SystemView/SEGGER/SEGGER_SYSVIEW.c **** *       SEGGER_SYSVIEW_RecordVoid()
1287:../../../SystemView/SEGGER/SEGGER_SYSVIEW.c **** *
1288:../../../SystemView/SEGGER/SEGGER_SYSVIEW.c **** *  Function description
1289:../../../SystemView/SEGGER/SEGGER_SYSVIEW.c **** *    Formats and sends a SystemView packet with an empty payload.
1290:../../../SystemView/SEGGER/SEGGER_SYSVIEW.c **** *
1291:../../../SystemView/SEGGER/SEGGER_SYSVIEW.c **** *  Parameters
1292:../../../SystemView/SEGGER/SEGGER_SYSVIEW.c **** *    EventID - SystemView event ID.
1293:../../../SystemView/SEGGER/SEGGER_SYSVIEW.c **** */
1294:../../../SystemView/SEGGER/SEGGER_SYSVIEW.c **** void SEGGER_SYSVIEW_RecordVoid(unsigned int EventID) {
 2434              		.loc 1 1294 0
 2435              		.cfi_startproc
 2436              		@ args = 0, pretend = 0, frame = 16
 2437              		@ frame_needed = 1, uses_anonymous_args = 0
 2438 0000 80B5     		push	{r7, lr}
 2439              	.LCFI69:
 2440              		.cfi_def_cfa_offset 8
 2441              		.cfi_offset 7, -8
 2442              		.cfi_offset 14, -4
 2443 0002 84B0     		sub	sp, sp, #16
 2444              	.LCFI70:
 2445              		.cfi_def_cfa_offset 24
 2446 0004 00AF     		add	r7, sp, #0
 2447              	.LCFI71:
 2448              		.cfi_def_cfa_register 7
 2449 0006 7860     		str	r0, [r7, #4]
 2450              	.LBB15:
1295:../../../SystemView/SEGGER/SEGGER_SYSVIEW.c ****   U8* pPayloadStart;
1296:../../../SystemView/SEGGER/SEGGER_SYSVIEW.c ****   RECORD_START(SEGGER_SYSVIEW_INFO_SIZE);
 2451              		.loc 1 1296 0
 2452              	@ 1296 "../../../SystemView/SEGGER/SEGGER_SYSVIEW.c" 1
 2453 0008 EFF31183 		mrs   r3, basepri  
 2454 000c 4FF02001 		mov   r1, #32       
 2455 0010 81F31188 		msr   basepri, r1  
 2456              		
 2457              	@ 0 "" 2
 2458              		.thumb
ARM GAS  /tmp/ccJhHFds.s 			page 67


 2459 0014 FB60     		str	r3, [r7, #12]
 2460 0016 0748     		ldr	r0, .L156
 2461 0018 FFF7FEFF 		bl	_PreparePacket
 2462 001c B860     		str	r0, [r7, #8]
1297:../../../SystemView/SEGGER/SEGGER_SYSVIEW.c ****   //
1298:../../../SystemView/SEGGER/SEGGER_SYSVIEW.c ****   _SendPacket(pPayloadStart, pPayloadStart, EventID);
 2463              		.loc 1 1298 0
 2464 001e B868     		ldr	r0, [r7, #8]
 2465 0020 B968     		ldr	r1, [r7, #8]
 2466 0022 7A68     		ldr	r2, [r7, #4]
 2467 0024 FFF7FEFF 		bl	_SendPacket
1299:../../../SystemView/SEGGER/SEGGER_SYSVIEW.c ****   RECORD_END();
 2468              		.loc 1 1299 0
 2469 0028 FB68     		ldr	r3, [r7, #12]
 2470              	@ 1299 "../../../SystemView/SEGGER/SEGGER_SYSVIEW.c" 1
 2471 002a 83F31188 		msr   basepri, r3  
 2472              		
 2473              	@ 0 "" 2
 2474              		.thumb
 2475              	.LBE15:
1300:../../../SystemView/SEGGER/SEGGER_SYSVIEW.c **** }
 2476              		.loc 1 1300 0
 2477 002e 1037     		adds	r7, r7, #16
 2478              	.LCFI72:
 2479              		.cfi_def_cfa_offset 8
 2480 0030 BD46     		mov	sp, r7
 2481              	.LCFI73:
 2482              		.cfi_def_cfa_register 13
 2483              		@ sp needed
 2484 0032 80BD     		pop	{r7, pc}
 2485              	.L157:
 2486              		.align	2
 2487              	.L156:
 2488 0034 00000000 		.word	_aPacket
 2489              		.cfi_endproc
 2490              	.LFE13:
 2492              		.section	.text.SEGGER_SYSVIEW_RecordU32,"ax",%progbits
 2493              		.align	2
 2494              		.global	SEGGER_SYSVIEW_RecordU32
 2495              		.thumb
 2496              		.thumb_func
 2498              	SEGGER_SYSVIEW_RecordU32:
 2499              	.LFB14:
1301:../../../SystemView/SEGGER/SEGGER_SYSVIEW.c **** 
1302:../../../SystemView/SEGGER/SEGGER_SYSVIEW.c **** /*********************************************************************
1303:../../../SystemView/SEGGER/SEGGER_SYSVIEW.c **** *
1304:../../../SystemView/SEGGER/SEGGER_SYSVIEW.c **** *       SEGGER_SYSVIEW_RecordU32()
1305:../../../SystemView/SEGGER/SEGGER_SYSVIEW.c **** *
1306:../../../SystemView/SEGGER/SEGGER_SYSVIEW.c **** *  Function description
1307:../../../SystemView/SEGGER/SEGGER_SYSVIEW.c **** *    Formats and sends a SystemView packet containing a single U32
1308:../../../SystemView/SEGGER/SEGGER_SYSVIEW.c **** *    parameter payload.
1309:../../../SystemView/SEGGER/SEGGER_SYSVIEW.c **** *
1310:../../../SystemView/SEGGER/SEGGER_SYSVIEW.c **** *  Parameters
1311:../../../SystemView/SEGGER/SEGGER_SYSVIEW.c **** *    EventID - SystemView event ID.
1312:../../../SystemView/SEGGER/SEGGER_SYSVIEW.c **** *    Value   - The 32-bit parameter encoded to SystemView packet payload.
1313:../../../SystemView/SEGGER/SEGGER_SYSVIEW.c **** */
1314:../../../SystemView/SEGGER/SEGGER_SYSVIEW.c **** void SEGGER_SYSVIEW_RecordU32(unsigned int EventID, U32 Value) {
ARM GAS  /tmp/ccJhHFds.s 			page 68


 2500              		.loc 1 1314 0
 2501              		.cfi_startproc
 2502              		@ args = 0, pretend = 0, frame = 32
 2503              		@ frame_needed = 1, uses_anonymous_args = 0
 2504 0000 80B5     		push	{r7, lr}
 2505              	.LCFI74:
 2506              		.cfi_def_cfa_offset 8
 2507              		.cfi_offset 7, -8
 2508              		.cfi_offset 14, -4
 2509 0002 88B0     		sub	sp, sp, #32
 2510              	.LCFI75:
 2511              		.cfi_def_cfa_offset 40
 2512 0004 00AF     		add	r7, sp, #0
 2513              	.LCFI76:
 2514              		.cfi_def_cfa_register 7
 2515 0006 7860     		str	r0, [r7, #4]
 2516 0008 3960     		str	r1, [r7]
 2517              	.LBB16:
1315:../../../SystemView/SEGGER/SEGGER_SYSVIEW.c ****   U8* pPayload;
1316:../../../SystemView/SEGGER/SEGGER_SYSVIEW.c ****   U8* pPayloadStart;
1317:../../../SystemView/SEGGER/SEGGER_SYSVIEW.c ****   RECORD_START(SEGGER_SYSVIEW_INFO_SIZE + SEGGER_SYSVIEW_QUANTA_U32);
 2518              		.loc 1 1317 0
 2519              	@ 1317 "../../../SystemView/SEGGER/SEGGER_SYSVIEW.c" 1
 2520 000a EFF31183 		mrs   r3, basepri  
 2521 000e 4FF02001 		mov   r1, #32       
 2522 0012 81F31188 		msr   basepri, r1  
 2523              		
 2524              	@ 0 "" 2
 2525              		.thumb
 2526 0016 7B61     		str	r3, [r7, #20]
 2527 0018 1648     		ldr	r0, .L161
 2528 001a FFF7FEFF 		bl	_PreparePacket
 2529 001e 3861     		str	r0, [r7, #16]
1318:../../../SystemView/SEGGER/SEGGER_SYSVIEW.c ****   //
1319:../../../SystemView/SEGGER/SEGGER_SYSVIEW.c ****   pPayload = pPayloadStart;
 2530              		.loc 1 1319 0
 2531 0020 3B69     		ldr	r3, [r7, #16]
 2532 0022 FB60     		str	r3, [r7, #12]
 2533              	.LBB17:
1320:../../../SystemView/SEGGER/SEGGER_SYSVIEW.c ****   ENCODE_U32(pPayload, Value);
 2534              		.loc 1 1320 0
 2535 0024 FB68     		ldr	r3, [r7, #12]
 2536 0026 FB61     		str	r3, [r7, #28]
 2537 0028 3B68     		ldr	r3, [r7]
 2538 002a BB61     		str	r3, [r7, #24]
 2539 002c 0BE0     		b	.L159
 2540              	.L160:
 2541              		.loc 1 1320 0 is_stmt 0 discriminator 3
 2542 002e FB69     		ldr	r3, [r7, #28]
 2543 0030 5A1C     		adds	r2, r3, #1
 2544 0032 FA61     		str	r2, [r7, #28]
 2545 0034 BA69     		ldr	r2, [r7, #24]
 2546 0036 D2B2     		uxtb	r2, r2
 2547 0038 62F07F02 		orn	r2, r2, #127
 2548 003c D2B2     		uxtb	r2, r2
 2549 003e 1A70     		strb	r2, [r3]
 2550 0040 BB69     		ldr	r3, [r7, #24]
ARM GAS  /tmp/ccJhHFds.s 			page 69


 2551 0042 DB09     		lsrs	r3, r3, #7
 2552 0044 BB61     		str	r3, [r7, #24]
 2553              	.L159:
 2554              		.loc 1 1320 0 discriminator 1
 2555 0046 BB69     		ldr	r3, [r7, #24]
 2556 0048 7F2B     		cmp	r3, #127
 2557 004a F0D8     		bhi	.L160
 2558              		.loc 1 1320 0 discriminator 4
 2559 004c FB69     		ldr	r3, [r7, #28]
 2560 004e 5A1C     		adds	r2, r3, #1
 2561 0050 FA61     		str	r2, [r7, #28]
 2562 0052 BA69     		ldr	r2, [r7, #24]
 2563 0054 D2B2     		uxtb	r2, r2
 2564 0056 1A70     		strb	r2, [r3]
 2565 0058 FB69     		ldr	r3, [r7, #28]
 2566 005a FB60     		str	r3, [r7, #12]
 2567              	.LBE17:
1321:../../../SystemView/SEGGER/SEGGER_SYSVIEW.c ****   _SendPacket(pPayloadStart, pPayload, EventID);
 2568              		.loc 1 1321 0 is_stmt 1 discriminator 4
 2569 005c 3869     		ldr	r0, [r7, #16]
 2570 005e F968     		ldr	r1, [r7, #12]
 2571 0060 7A68     		ldr	r2, [r7, #4]
 2572 0062 FFF7FEFF 		bl	_SendPacket
1322:../../../SystemView/SEGGER/SEGGER_SYSVIEW.c ****   RECORD_END();
 2573              		.loc 1 1322 0 discriminator 4
 2574 0066 7B69     		ldr	r3, [r7, #20]
 2575              	@ 1322 "../../../SystemView/SEGGER/SEGGER_SYSVIEW.c" 1
 2576 0068 83F31188 		msr   basepri, r3  
 2577              		
 2578              	@ 0 "" 2
 2579              		.thumb
 2580              	.LBE16:
1323:../../../SystemView/SEGGER/SEGGER_SYSVIEW.c **** }
 2581              		.loc 1 1323 0 discriminator 4
 2582 006c 2037     		adds	r7, r7, #32
 2583              	.LCFI77:
 2584              		.cfi_def_cfa_offset 8
 2585 006e BD46     		mov	sp, r7
 2586              	.LCFI78:
 2587              		.cfi_def_cfa_register 13
 2588              		@ sp needed
 2589 0070 80BD     		pop	{r7, pc}
 2590              	.L162:
 2591 0072 00BF     		.align	2
 2592              	.L161:
 2593 0074 00000000 		.word	_aPacket
 2594              		.cfi_endproc
 2595              	.LFE14:
 2597              		.section	.text.SEGGER_SYSVIEW_RecordU32x2,"ax",%progbits
 2598              		.align	2
 2599              		.global	SEGGER_SYSVIEW_RecordU32x2
 2600              		.thumb
 2601              		.thumb_func
 2603              	SEGGER_SYSVIEW_RecordU32x2:
 2604              	.LFB15:
1324:../../../SystemView/SEGGER/SEGGER_SYSVIEW.c **** 
1325:../../../SystemView/SEGGER/SEGGER_SYSVIEW.c **** /*********************************************************************
ARM GAS  /tmp/ccJhHFds.s 			page 70


1326:../../../SystemView/SEGGER/SEGGER_SYSVIEW.c **** *
1327:../../../SystemView/SEGGER/SEGGER_SYSVIEW.c **** *       SEGGER_SYSVIEW_RecordU32x2()
1328:../../../SystemView/SEGGER/SEGGER_SYSVIEW.c **** *
1329:../../../SystemView/SEGGER/SEGGER_SYSVIEW.c **** *  Function description
1330:../../../SystemView/SEGGER/SEGGER_SYSVIEW.c **** *    Formats and sends a SystemView packet containing 2 U32 parameter payload.
1331:../../../SystemView/SEGGER/SEGGER_SYSVIEW.c **** *
1332:../../../SystemView/SEGGER/SEGGER_SYSVIEW.c **** *  Parameters
1333:../../../SystemView/SEGGER/SEGGER_SYSVIEW.c **** *    EventID - SystemView event ID.
1334:../../../SystemView/SEGGER/SEGGER_SYSVIEW.c **** *    Para0   - The 32-bit parameter encoded to SystemView packet payload.
1335:../../../SystemView/SEGGER/SEGGER_SYSVIEW.c **** *    Para1   - The 32-bit parameter encoded to SystemView packet payload.
1336:../../../SystemView/SEGGER/SEGGER_SYSVIEW.c **** */
1337:../../../SystemView/SEGGER/SEGGER_SYSVIEW.c **** void SEGGER_SYSVIEW_RecordU32x2(unsigned int EventID, U32 Para0, U32 Para1) {
 2605              		.loc 1 1337 0
 2606              		.cfi_startproc
 2607              		@ args = 0, pretend = 0, frame = 48
 2608              		@ frame_needed = 1, uses_anonymous_args = 0
 2609 0000 80B5     		push	{r7, lr}
 2610              	.LCFI79:
 2611              		.cfi_def_cfa_offset 8
 2612              		.cfi_offset 7, -8
 2613              		.cfi_offset 14, -4
 2614 0002 8CB0     		sub	sp, sp, #48
 2615              	.LCFI80:
 2616              		.cfi_def_cfa_offset 56
 2617 0004 00AF     		add	r7, sp, #0
 2618              	.LCFI81:
 2619              		.cfi_def_cfa_register 7
 2620 0006 F860     		str	r0, [r7, #12]
 2621 0008 B960     		str	r1, [r7, #8]
 2622 000a 7A60     		str	r2, [r7, #4]
 2623              	.LBB18:
1338:../../../SystemView/SEGGER/SEGGER_SYSVIEW.c ****   U8* pPayload;
1339:../../../SystemView/SEGGER/SEGGER_SYSVIEW.c ****   U8* pPayloadStart;
1340:../../../SystemView/SEGGER/SEGGER_SYSVIEW.c ****   RECORD_START(SEGGER_SYSVIEW_INFO_SIZE + 2 * SEGGER_SYSVIEW_QUANTA_U32);
 2624              		.loc 1 1340 0
 2625              	@ 1340 "../../../SystemView/SEGGER/SEGGER_SYSVIEW.c" 1
 2626 000c EFF31183 		mrs   r3, basepri  
 2627 0010 4FF02001 		mov   r1, #32       
 2628 0014 81F31188 		msr   basepri, r1  
 2629              		
 2630              	@ 0 "" 2
 2631              		.thumb
 2632 0018 FB61     		str	r3, [r7, #28]
 2633 001a 2448     		ldr	r0, .L168
 2634 001c FFF7FEFF 		bl	_PreparePacket
 2635 0020 B861     		str	r0, [r7, #24]
1341:../../../SystemView/SEGGER/SEGGER_SYSVIEW.c ****   //
1342:../../../SystemView/SEGGER/SEGGER_SYSVIEW.c ****   pPayload = pPayloadStart;
 2636              		.loc 1 1342 0
 2637 0022 BB69     		ldr	r3, [r7, #24]
 2638 0024 7B61     		str	r3, [r7, #20]
 2639              	.LBB19:
1343:../../../SystemView/SEGGER/SEGGER_SYSVIEW.c ****   ENCODE_U32(pPayload, Para0);
 2640              		.loc 1 1343 0
 2641 0026 7B69     		ldr	r3, [r7, #20]
 2642 0028 FB62     		str	r3, [r7, #44]
 2643 002a BB68     		ldr	r3, [r7, #8]
ARM GAS  /tmp/ccJhHFds.s 			page 71


 2644 002c BB62     		str	r3, [r7, #40]
 2645 002e 0BE0     		b	.L164
 2646              	.L165:
 2647              		.loc 1 1343 0 is_stmt 0 discriminator 3
 2648 0030 FB6A     		ldr	r3, [r7, #44]
 2649 0032 5A1C     		adds	r2, r3, #1
 2650 0034 FA62     		str	r2, [r7, #44]
 2651 0036 BA6A     		ldr	r2, [r7, #40]
 2652 0038 D2B2     		uxtb	r2, r2
 2653 003a 62F07F02 		orn	r2, r2, #127
 2654 003e D2B2     		uxtb	r2, r2
 2655 0040 1A70     		strb	r2, [r3]
 2656 0042 BB6A     		ldr	r3, [r7, #40]
 2657 0044 DB09     		lsrs	r3, r3, #7
 2658 0046 BB62     		str	r3, [r7, #40]
 2659              	.L164:
 2660              		.loc 1 1343 0 discriminator 1
 2661 0048 BB6A     		ldr	r3, [r7, #40]
 2662 004a 7F2B     		cmp	r3, #127
 2663 004c F0D8     		bhi	.L165
 2664              		.loc 1 1343 0 discriminator 4
 2665 004e FB6A     		ldr	r3, [r7, #44]
 2666 0050 5A1C     		adds	r2, r3, #1
 2667 0052 FA62     		str	r2, [r7, #44]
 2668 0054 BA6A     		ldr	r2, [r7, #40]
 2669 0056 D2B2     		uxtb	r2, r2
 2670 0058 1A70     		strb	r2, [r3]
 2671 005a FB6A     		ldr	r3, [r7, #44]
 2672 005c 7B61     		str	r3, [r7, #20]
 2673              	.LBE19:
 2674              	.LBB20:
1344:../../../SystemView/SEGGER/SEGGER_SYSVIEW.c ****   ENCODE_U32(pPayload, Para1);
 2675              		.loc 1 1344 0 is_stmt 1 discriminator 4
 2676 005e 7B69     		ldr	r3, [r7, #20]
 2677 0060 7B62     		str	r3, [r7, #36]
 2678 0062 7B68     		ldr	r3, [r7, #4]
 2679 0064 3B62     		str	r3, [r7, #32]
 2680 0066 0BE0     		b	.L166
 2681              	.L167:
 2682              		.loc 1 1344 0 is_stmt 0 discriminator 3
 2683 0068 7B6A     		ldr	r3, [r7, #36]
 2684 006a 5A1C     		adds	r2, r3, #1
 2685 006c 7A62     		str	r2, [r7, #36]
 2686 006e 3A6A     		ldr	r2, [r7, #32]
 2687 0070 D2B2     		uxtb	r2, r2
 2688 0072 62F07F02 		orn	r2, r2, #127
 2689 0076 D2B2     		uxtb	r2, r2
 2690 0078 1A70     		strb	r2, [r3]
 2691 007a 3B6A     		ldr	r3, [r7, #32]
 2692 007c DB09     		lsrs	r3, r3, #7
 2693 007e 3B62     		str	r3, [r7, #32]
 2694              	.L166:
 2695              		.loc 1 1344 0 discriminator 1
 2696 0080 3B6A     		ldr	r3, [r7, #32]
 2697 0082 7F2B     		cmp	r3, #127
 2698 0084 F0D8     		bhi	.L167
 2699              		.loc 1 1344 0 discriminator 4
ARM GAS  /tmp/ccJhHFds.s 			page 72


 2700 0086 7B6A     		ldr	r3, [r7, #36]
 2701 0088 5A1C     		adds	r2, r3, #1
 2702 008a 7A62     		str	r2, [r7, #36]
 2703 008c 3A6A     		ldr	r2, [r7, #32]
 2704 008e D2B2     		uxtb	r2, r2
 2705 0090 1A70     		strb	r2, [r3]
 2706 0092 7B6A     		ldr	r3, [r7, #36]
 2707 0094 7B61     		str	r3, [r7, #20]
 2708              	.LBE20:
1345:../../../SystemView/SEGGER/SEGGER_SYSVIEW.c ****   _SendPacket(pPayloadStart, pPayload, EventID);
 2709              		.loc 1 1345 0 is_stmt 1 discriminator 4
 2710 0096 B869     		ldr	r0, [r7, #24]
 2711 0098 7969     		ldr	r1, [r7, #20]
 2712 009a FA68     		ldr	r2, [r7, #12]
 2713 009c FFF7FEFF 		bl	_SendPacket
1346:../../../SystemView/SEGGER/SEGGER_SYSVIEW.c ****   RECORD_END();
 2714              		.loc 1 1346 0 discriminator 4
 2715 00a0 FB69     		ldr	r3, [r7, #28]
 2716              	@ 1346 "../../../SystemView/SEGGER/SEGGER_SYSVIEW.c" 1
 2717 00a2 83F31188 		msr   basepri, r3  
 2718              		
 2719              	@ 0 "" 2
 2720              		.thumb
 2721              	.LBE18:
1347:../../../SystemView/SEGGER/SEGGER_SYSVIEW.c **** }
 2722              		.loc 1 1347 0 discriminator 4
 2723 00a6 3037     		adds	r7, r7, #48
 2724              	.LCFI82:
 2725              		.cfi_def_cfa_offset 8
 2726 00a8 BD46     		mov	sp, r7
 2727              	.LCFI83:
 2728              		.cfi_def_cfa_register 13
 2729              		@ sp needed
 2730 00aa 80BD     		pop	{r7, pc}
 2731              	.L169:
 2732              		.align	2
 2733              	.L168:
 2734 00ac 00000000 		.word	_aPacket
 2735              		.cfi_endproc
 2736              	.LFE15:
 2738              		.section	.text.SEGGER_SYSVIEW_RecordU32x3,"ax",%progbits
 2739              		.align	2
 2740              		.global	SEGGER_SYSVIEW_RecordU32x3
 2741              		.thumb
 2742              		.thumb_func
 2744              	SEGGER_SYSVIEW_RecordU32x3:
 2745              	.LFB16:
1348:../../../SystemView/SEGGER/SEGGER_SYSVIEW.c **** 
1349:../../../SystemView/SEGGER/SEGGER_SYSVIEW.c **** /*********************************************************************
1350:../../../SystemView/SEGGER/SEGGER_SYSVIEW.c **** *
1351:../../../SystemView/SEGGER/SEGGER_SYSVIEW.c **** *       SEGGER_SYSVIEW_RecordU32x3()
1352:../../../SystemView/SEGGER/SEGGER_SYSVIEW.c **** *
1353:../../../SystemView/SEGGER/SEGGER_SYSVIEW.c **** *  Function description
1354:../../../SystemView/SEGGER/SEGGER_SYSVIEW.c **** *    Formats and sends a SystemView packet containing 3 U32 parameter payload.
1355:../../../SystemView/SEGGER/SEGGER_SYSVIEW.c **** *
1356:../../../SystemView/SEGGER/SEGGER_SYSVIEW.c **** *  Parameters
1357:../../../SystemView/SEGGER/SEGGER_SYSVIEW.c **** *    EventID - SystemView event ID.
ARM GAS  /tmp/ccJhHFds.s 			page 73


1358:../../../SystemView/SEGGER/SEGGER_SYSVIEW.c **** *    Para0   - The 32-bit parameter encoded to SystemView packet payload.
1359:../../../SystemView/SEGGER/SEGGER_SYSVIEW.c **** *    Para1   - The 32-bit parameter encoded to SystemView packet payload.
1360:../../../SystemView/SEGGER/SEGGER_SYSVIEW.c **** *    Para2   - The 32-bit parameter encoded to SystemView packet payload.
1361:../../../SystemView/SEGGER/SEGGER_SYSVIEW.c **** */
1362:../../../SystemView/SEGGER/SEGGER_SYSVIEW.c **** void SEGGER_SYSVIEW_RecordU32x3(unsigned int EventID, U32 Para0, U32 Para1, U32 Para2) {
 2746              		.loc 1 1362 0
 2747              		.cfi_startproc
 2748              		@ args = 0, pretend = 0, frame = 56
 2749              		@ frame_needed = 1, uses_anonymous_args = 0
 2750 0000 80B5     		push	{r7, lr}
 2751              	.LCFI84:
 2752              		.cfi_def_cfa_offset 8
 2753              		.cfi_offset 7, -8
 2754              		.cfi_offset 14, -4
 2755 0002 8EB0     		sub	sp, sp, #56
 2756              	.LCFI85:
 2757              		.cfi_def_cfa_offset 64
 2758 0004 00AF     		add	r7, sp, #0
 2759              	.LCFI86:
 2760              		.cfi_def_cfa_register 7
 2761 0006 F860     		str	r0, [r7, #12]
 2762 0008 B960     		str	r1, [r7, #8]
 2763 000a 7A60     		str	r2, [r7, #4]
 2764 000c 3B60     		str	r3, [r7]
 2765              	.LBB21:
1363:../../../SystemView/SEGGER/SEGGER_SYSVIEW.c ****   U8* pPayload;
1364:../../../SystemView/SEGGER/SEGGER_SYSVIEW.c ****   U8* pPayloadStart;
1365:../../../SystemView/SEGGER/SEGGER_SYSVIEW.c ****   RECORD_START(SEGGER_SYSVIEW_INFO_SIZE + 3 * SEGGER_SYSVIEW_QUANTA_U32);
 2766              		.loc 1 1365 0
 2767              	@ 1365 "../../../SystemView/SEGGER/SEGGER_SYSVIEW.c" 1
 2768 000e EFF31183 		mrs   r3, basepri  
 2769 0012 4FF02001 		mov   r1, #32       
 2770 0016 81F31188 		msr   basepri, r1  
 2771              		
 2772              	@ 0 "" 2
 2773              		.thumb
 2774 001a FB61     		str	r3, [r7, #28]
 2775 001c 3248     		ldr	r0, .L177
 2776 001e FFF7FEFF 		bl	_PreparePacket
 2777 0022 B861     		str	r0, [r7, #24]
1366:../../../SystemView/SEGGER/SEGGER_SYSVIEW.c ****   //
1367:../../../SystemView/SEGGER/SEGGER_SYSVIEW.c ****   pPayload = pPayloadStart;
 2778              		.loc 1 1367 0
 2779 0024 BB69     		ldr	r3, [r7, #24]
 2780 0026 7B61     		str	r3, [r7, #20]
 2781              	.LBB22:
1368:../../../SystemView/SEGGER/SEGGER_SYSVIEW.c ****   ENCODE_U32(pPayload, Para0);
 2782              		.loc 1 1368 0
 2783 0028 7B69     		ldr	r3, [r7, #20]
 2784 002a 7B63     		str	r3, [r7, #52]
 2785 002c BB68     		ldr	r3, [r7, #8]
 2786 002e 3B63     		str	r3, [r7, #48]
 2787 0030 0BE0     		b	.L171
 2788              	.L172:
 2789              		.loc 1 1368 0 is_stmt 0 discriminator 3
 2790 0032 7B6B     		ldr	r3, [r7, #52]
 2791 0034 5A1C     		adds	r2, r3, #1
ARM GAS  /tmp/ccJhHFds.s 			page 74


 2792 0036 7A63     		str	r2, [r7, #52]
 2793 0038 3A6B     		ldr	r2, [r7, #48]
 2794 003a D2B2     		uxtb	r2, r2
 2795 003c 62F07F02 		orn	r2, r2, #127
 2796 0040 D2B2     		uxtb	r2, r2
 2797 0042 1A70     		strb	r2, [r3]
 2798 0044 3B6B     		ldr	r3, [r7, #48]
 2799 0046 DB09     		lsrs	r3, r3, #7
 2800 0048 3B63     		str	r3, [r7, #48]
 2801              	.L171:
 2802              		.loc 1 1368 0 discriminator 1
 2803 004a 3B6B     		ldr	r3, [r7, #48]
 2804 004c 7F2B     		cmp	r3, #127
 2805 004e F0D8     		bhi	.L172
 2806              		.loc 1 1368 0 discriminator 4
 2807 0050 7B6B     		ldr	r3, [r7, #52]
 2808 0052 5A1C     		adds	r2, r3, #1
 2809 0054 7A63     		str	r2, [r7, #52]
 2810 0056 3A6B     		ldr	r2, [r7, #48]
 2811 0058 D2B2     		uxtb	r2, r2
 2812 005a 1A70     		strb	r2, [r3]
 2813 005c 7B6B     		ldr	r3, [r7, #52]
 2814 005e 7B61     		str	r3, [r7, #20]
 2815              	.LBE22:
 2816              	.LBB23:
1369:../../../SystemView/SEGGER/SEGGER_SYSVIEW.c ****   ENCODE_U32(pPayload, Para1);
 2817              		.loc 1 1369 0 is_stmt 1 discriminator 4
 2818 0060 7B69     		ldr	r3, [r7, #20]
 2819 0062 FB62     		str	r3, [r7, #44]
 2820 0064 7B68     		ldr	r3, [r7, #4]
 2821 0066 BB62     		str	r3, [r7, #40]
 2822 0068 0BE0     		b	.L173
 2823              	.L174:
 2824              		.loc 1 1369 0 is_stmt 0 discriminator 3
 2825 006a FB6A     		ldr	r3, [r7, #44]
 2826 006c 5A1C     		adds	r2, r3, #1
 2827 006e FA62     		str	r2, [r7, #44]
 2828 0070 BA6A     		ldr	r2, [r7, #40]
 2829 0072 D2B2     		uxtb	r2, r2
 2830 0074 62F07F02 		orn	r2, r2, #127
 2831 0078 D2B2     		uxtb	r2, r2
 2832 007a 1A70     		strb	r2, [r3]
 2833 007c BB6A     		ldr	r3, [r7, #40]
 2834 007e DB09     		lsrs	r3, r3, #7
 2835 0080 BB62     		str	r3, [r7, #40]
 2836              	.L173:
 2837              		.loc 1 1369 0 discriminator 1
 2838 0082 BB6A     		ldr	r3, [r7, #40]
 2839 0084 7F2B     		cmp	r3, #127
 2840 0086 F0D8     		bhi	.L174
 2841              		.loc 1 1369 0 discriminator 4
 2842 0088 FB6A     		ldr	r3, [r7, #44]
 2843 008a 5A1C     		adds	r2, r3, #1
 2844 008c FA62     		str	r2, [r7, #44]
 2845 008e BA6A     		ldr	r2, [r7, #40]
 2846 0090 D2B2     		uxtb	r2, r2
 2847 0092 1A70     		strb	r2, [r3]
ARM GAS  /tmp/ccJhHFds.s 			page 75


 2848 0094 FB6A     		ldr	r3, [r7, #44]
 2849 0096 7B61     		str	r3, [r7, #20]
 2850              	.LBE23:
 2851              	.LBB24:
1370:../../../SystemView/SEGGER/SEGGER_SYSVIEW.c ****   ENCODE_U32(pPayload, Para2);
 2852              		.loc 1 1370 0 is_stmt 1 discriminator 4
 2853 0098 7B69     		ldr	r3, [r7, #20]
 2854 009a 7B62     		str	r3, [r7, #36]
 2855 009c 3B68     		ldr	r3, [r7]
 2856 009e 3B62     		str	r3, [r7, #32]
 2857 00a0 0BE0     		b	.L175
 2858              	.L176:
 2859              		.loc 1 1370 0 is_stmt 0 discriminator 3
 2860 00a2 7B6A     		ldr	r3, [r7, #36]
 2861 00a4 5A1C     		adds	r2, r3, #1
 2862 00a6 7A62     		str	r2, [r7, #36]
 2863 00a8 3A6A     		ldr	r2, [r7, #32]
 2864 00aa D2B2     		uxtb	r2, r2
 2865 00ac 62F07F02 		orn	r2, r2, #127
 2866 00b0 D2B2     		uxtb	r2, r2
 2867 00b2 1A70     		strb	r2, [r3]
 2868 00b4 3B6A     		ldr	r3, [r7, #32]
 2869 00b6 DB09     		lsrs	r3, r3, #7
 2870 00b8 3B62     		str	r3, [r7, #32]
 2871              	.L175:
 2872              		.loc 1 1370 0 discriminator 1
 2873 00ba 3B6A     		ldr	r3, [r7, #32]
 2874 00bc 7F2B     		cmp	r3, #127
 2875 00be F0D8     		bhi	.L176
 2876              		.loc 1 1370 0 discriminator 4
 2877 00c0 7B6A     		ldr	r3, [r7, #36]
 2878 00c2 5A1C     		adds	r2, r3, #1
 2879 00c4 7A62     		str	r2, [r7, #36]
 2880 00c6 3A6A     		ldr	r2, [r7, #32]
 2881 00c8 D2B2     		uxtb	r2, r2
 2882 00ca 1A70     		strb	r2, [r3]
 2883 00cc 7B6A     		ldr	r3, [r7, #36]
 2884 00ce 7B61     		str	r3, [r7, #20]
 2885              	.LBE24:
1371:../../../SystemView/SEGGER/SEGGER_SYSVIEW.c ****   _SendPacket(pPayloadStart, pPayload, EventID);
 2886              		.loc 1 1371 0 is_stmt 1 discriminator 4
 2887 00d0 B869     		ldr	r0, [r7, #24]
 2888 00d2 7969     		ldr	r1, [r7, #20]
 2889 00d4 FA68     		ldr	r2, [r7, #12]
 2890 00d6 FFF7FEFF 		bl	_SendPacket
1372:../../../SystemView/SEGGER/SEGGER_SYSVIEW.c ****   RECORD_END();
 2891              		.loc 1 1372 0 discriminator 4
 2892 00da FB69     		ldr	r3, [r7, #28]
 2893              	@ 1372 "../../../SystemView/SEGGER/SEGGER_SYSVIEW.c" 1
 2894 00dc 83F31188 		msr   basepri, r3  
 2895              		
 2896              	@ 0 "" 2
 2897              		.thumb
 2898              	.LBE21:
1373:../../../SystemView/SEGGER/SEGGER_SYSVIEW.c **** }
 2899              		.loc 1 1373 0 discriminator 4
 2900 00e0 3837     		adds	r7, r7, #56
ARM GAS  /tmp/ccJhHFds.s 			page 76


 2901              	.LCFI87:
 2902              		.cfi_def_cfa_offset 8
 2903 00e2 BD46     		mov	sp, r7
 2904              	.LCFI88:
 2905              		.cfi_def_cfa_register 13
 2906              		@ sp needed
 2907 00e4 80BD     		pop	{r7, pc}
 2908              	.L178:
 2909 00e6 00BF     		.align	2
 2910              	.L177:
 2911 00e8 00000000 		.word	_aPacket
 2912              		.cfi_endproc
 2913              	.LFE16:
 2915              		.section	.text.SEGGER_SYSVIEW_RecordU32x4,"ax",%progbits
 2916              		.align	2
 2917              		.global	SEGGER_SYSVIEW_RecordU32x4
 2918              		.thumb
 2919              		.thumb_func
 2921              	SEGGER_SYSVIEW_RecordU32x4:
 2922              	.LFB17:
1374:../../../SystemView/SEGGER/SEGGER_SYSVIEW.c **** 
1375:../../../SystemView/SEGGER/SEGGER_SYSVIEW.c **** /*********************************************************************
1376:../../../SystemView/SEGGER/SEGGER_SYSVIEW.c **** *
1377:../../../SystemView/SEGGER/SEGGER_SYSVIEW.c **** *       SEGGER_SYSVIEW_RecordU32x4()
1378:../../../SystemView/SEGGER/SEGGER_SYSVIEW.c **** *
1379:../../../SystemView/SEGGER/SEGGER_SYSVIEW.c **** *  Function description
1380:../../../SystemView/SEGGER/SEGGER_SYSVIEW.c **** *    Formats and sends a SystemView packet containing 4 U32 parameter payload.
1381:../../../SystemView/SEGGER/SEGGER_SYSVIEW.c **** *
1382:../../../SystemView/SEGGER/SEGGER_SYSVIEW.c **** *  Parameters
1383:../../../SystemView/SEGGER/SEGGER_SYSVIEW.c **** *    EventID - SystemView event ID.
1384:../../../SystemView/SEGGER/SEGGER_SYSVIEW.c **** *    Para0   - The 32-bit parameter encoded to SystemView packet payload.
1385:../../../SystemView/SEGGER/SEGGER_SYSVIEW.c **** *    Para1   - The 32-bit parameter encoded to SystemView packet payload.
1386:../../../SystemView/SEGGER/SEGGER_SYSVIEW.c **** *    Para2   - The 32-bit parameter encoded to SystemView packet payload.
1387:../../../SystemView/SEGGER/SEGGER_SYSVIEW.c **** *    Para3   - The 32-bit parameter encoded to SystemView packet payload.
1388:../../../SystemView/SEGGER/SEGGER_SYSVIEW.c **** */
1389:../../../SystemView/SEGGER/SEGGER_SYSVIEW.c **** void SEGGER_SYSVIEW_RecordU32x4(unsigned int EventID, U32 Para0, U32 Para1, U32 Para2, U32 Para3) {
 2923              		.loc 1 1389 0
 2924              		.cfi_startproc
 2925              		@ args = 4, pretend = 0, frame = 64
 2926              		@ frame_needed = 1, uses_anonymous_args = 0
 2927 0000 80B5     		push	{r7, lr}
 2928              	.LCFI89:
 2929              		.cfi_def_cfa_offset 8
 2930              		.cfi_offset 7, -8
 2931              		.cfi_offset 14, -4
 2932 0002 90B0     		sub	sp, sp, #64
 2933              	.LCFI90:
 2934              		.cfi_def_cfa_offset 72
 2935 0004 00AF     		add	r7, sp, #0
 2936              	.LCFI91:
 2937              		.cfi_def_cfa_register 7
 2938 0006 F860     		str	r0, [r7, #12]
 2939 0008 B960     		str	r1, [r7, #8]
 2940 000a 7A60     		str	r2, [r7, #4]
 2941 000c 3B60     		str	r3, [r7]
 2942              	.LBB25:
1390:../../../SystemView/SEGGER/SEGGER_SYSVIEW.c ****   U8* pPayload;
ARM GAS  /tmp/ccJhHFds.s 			page 77


1391:../../../SystemView/SEGGER/SEGGER_SYSVIEW.c ****   U8* pPayloadStart;
1392:../../../SystemView/SEGGER/SEGGER_SYSVIEW.c ****   RECORD_START(SEGGER_SYSVIEW_INFO_SIZE + 4 * SEGGER_SYSVIEW_QUANTA_U32);
 2943              		.loc 1 1392 0
 2944              	@ 1392 "../../../SystemView/SEGGER/SEGGER_SYSVIEW.c" 1
 2945 000e EFF31183 		mrs   r3, basepri  
 2946 0012 4FF02001 		mov   r1, #32       
 2947 0016 81F31188 		msr   basepri, r1  
 2948              		
 2949              	@ 0 "" 2
 2950              		.thumb
 2951 001a FB61     		str	r3, [r7, #28]
 2952 001c 4048     		ldr	r0, .L188
 2953 001e FFF7FEFF 		bl	_PreparePacket
 2954 0022 B861     		str	r0, [r7, #24]
1393:../../../SystemView/SEGGER/SEGGER_SYSVIEW.c ****   //
1394:../../../SystemView/SEGGER/SEGGER_SYSVIEW.c ****   pPayload = pPayloadStart;
 2955              		.loc 1 1394 0
 2956 0024 BB69     		ldr	r3, [r7, #24]
 2957 0026 7B61     		str	r3, [r7, #20]
 2958              	.LBB26:
1395:../../../SystemView/SEGGER/SEGGER_SYSVIEW.c ****   ENCODE_U32(pPayload, Para0);
 2959              		.loc 1 1395 0
 2960 0028 7B69     		ldr	r3, [r7, #20]
 2961 002a FB63     		str	r3, [r7, #60]
 2962 002c BB68     		ldr	r3, [r7, #8]
 2963 002e BB63     		str	r3, [r7, #56]
 2964 0030 0BE0     		b	.L180
 2965              	.L181:
 2966              		.loc 1 1395 0 is_stmt 0 discriminator 3
 2967 0032 FB6B     		ldr	r3, [r7, #60]
 2968 0034 5A1C     		adds	r2, r3, #1
 2969 0036 FA63     		str	r2, [r7, #60]
 2970 0038 BA6B     		ldr	r2, [r7, #56]
 2971 003a D2B2     		uxtb	r2, r2
 2972 003c 62F07F02 		orn	r2, r2, #127
 2973 0040 D2B2     		uxtb	r2, r2
 2974 0042 1A70     		strb	r2, [r3]
 2975 0044 BB6B     		ldr	r3, [r7, #56]
 2976 0046 DB09     		lsrs	r3, r3, #7
 2977 0048 BB63     		str	r3, [r7, #56]
 2978              	.L180:
 2979              		.loc 1 1395 0 discriminator 1
 2980 004a BB6B     		ldr	r3, [r7, #56]
 2981 004c 7F2B     		cmp	r3, #127
 2982 004e F0D8     		bhi	.L181
 2983              		.loc 1 1395 0 discriminator 4
 2984 0050 FB6B     		ldr	r3, [r7, #60]
 2985 0052 5A1C     		adds	r2, r3, #1
 2986 0054 FA63     		str	r2, [r7, #60]
 2987 0056 BA6B     		ldr	r2, [r7, #56]
 2988 0058 D2B2     		uxtb	r2, r2
 2989 005a 1A70     		strb	r2, [r3]
 2990 005c FB6B     		ldr	r3, [r7, #60]
 2991 005e 7B61     		str	r3, [r7, #20]
 2992              	.LBE26:
 2993              	.LBB27:
1396:../../../SystemView/SEGGER/SEGGER_SYSVIEW.c ****   ENCODE_U32(pPayload, Para1);
ARM GAS  /tmp/ccJhHFds.s 			page 78


 2994              		.loc 1 1396 0 is_stmt 1 discriminator 4
 2995 0060 7B69     		ldr	r3, [r7, #20]
 2996 0062 7B63     		str	r3, [r7, #52]
 2997 0064 7B68     		ldr	r3, [r7, #4]
 2998 0066 3B63     		str	r3, [r7, #48]
 2999 0068 0BE0     		b	.L182
 3000              	.L183:
 3001              		.loc 1 1396 0 is_stmt 0 discriminator 3
 3002 006a 7B6B     		ldr	r3, [r7, #52]
 3003 006c 5A1C     		adds	r2, r3, #1
 3004 006e 7A63     		str	r2, [r7, #52]
 3005 0070 3A6B     		ldr	r2, [r7, #48]
 3006 0072 D2B2     		uxtb	r2, r2
 3007 0074 62F07F02 		orn	r2, r2, #127
 3008 0078 D2B2     		uxtb	r2, r2
 3009 007a 1A70     		strb	r2, [r3]
 3010 007c 3B6B     		ldr	r3, [r7, #48]
 3011 007e DB09     		lsrs	r3, r3, #7
 3012 0080 3B63     		str	r3, [r7, #48]
 3013              	.L182:
 3014              		.loc 1 1396 0 discriminator 1
 3015 0082 3B6B     		ldr	r3, [r7, #48]
 3016 0084 7F2B     		cmp	r3, #127
 3017 0086 F0D8     		bhi	.L183
 3018              		.loc 1 1396 0 discriminator 4
 3019 0088 7B6B     		ldr	r3, [r7, #52]
 3020 008a 5A1C     		adds	r2, r3, #1
 3021 008c 7A63     		str	r2, [r7, #52]
 3022 008e 3A6B     		ldr	r2, [r7, #48]
 3023 0090 D2B2     		uxtb	r2, r2
 3024 0092 1A70     		strb	r2, [r3]
 3025 0094 7B6B     		ldr	r3, [r7, #52]
 3026 0096 7B61     		str	r3, [r7, #20]
 3027              	.LBE27:
 3028              	.LBB28:
1397:../../../SystemView/SEGGER/SEGGER_SYSVIEW.c ****   ENCODE_U32(pPayload, Para2);
 3029              		.loc 1 1397 0 is_stmt 1 discriminator 4
 3030 0098 7B69     		ldr	r3, [r7, #20]
 3031 009a FB62     		str	r3, [r7, #44]
 3032 009c 3B68     		ldr	r3, [r7]
 3033 009e BB62     		str	r3, [r7, #40]
 3034 00a0 0BE0     		b	.L184
 3035              	.L185:
 3036              		.loc 1 1397 0 is_stmt 0 discriminator 3
 3037 00a2 FB6A     		ldr	r3, [r7, #44]
 3038 00a4 5A1C     		adds	r2, r3, #1
 3039 00a6 FA62     		str	r2, [r7, #44]
 3040 00a8 BA6A     		ldr	r2, [r7, #40]
 3041 00aa D2B2     		uxtb	r2, r2
 3042 00ac 62F07F02 		orn	r2, r2, #127
 3043 00b0 D2B2     		uxtb	r2, r2
 3044 00b2 1A70     		strb	r2, [r3]
 3045 00b4 BB6A     		ldr	r3, [r7, #40]
 3046 00b6 DB09     		lsrs	r3, r3, #7
 3047 00b8 BB62     		str	r3, [r7, #40]
 3048              	.L184:
 3049              		.loc 1 1397 0 discriminator 1
ARM GAS  /tmp/ccJhHFds.s 			page 79


 3050 00ba BB6A     		ldr	r3, [r7, #40]
 3051 00bc 7F2B     		cmp	r3, #127
 3052 00be F0D8     		bhi	.L185
 3053              		.loc 1 1397 0 discriminator 4
 3054 00c0 FB6A     		ldr	r3, [r7, #44]
 3055 00c2 5A1C     		adds	r2, r3, #1
 3056 00c4 FA62     		str	r2, [r7, #44]
 3057 00c6 BA6A     		ldr	r2, [r7, #40]
 3058 00c8 D2B2     		uxtb	r2, r2
 3059 00ca 1A70     		strb	r2, [r3]
 3060 00cc FB6A     		ldr	r3, [r7, #44]
 3061 00ce 7B61     		str	r3, [r7, #20]
 3062              	.LBE28:
 3063              	.LBB29:
1398:../../../SystemView/SEGGER/SEGGER_SYSVIEW.c ****   ENCODE_U32(pPayload, Para3);
 3064              		.loc 1 1398 0 is_stmt 1 discriminator 4
 3065 00d0 7B69     		ldr	r3, [r7, #20]
 3066 00d2 7B62     		str	r3, [r7, #36]
 3067 00d4 BB6C     		ldr	r3, [r7, #72]
 3068 00d6 3B62     		str	r3, [r7, #32]
 3069 00d8 0BE0     		b	.L186
 3070              	.L187:
 3071              		.loc 1 1398 0 is_stmt 0 discriminator 3
 3072 00da 7B6A     		ldr	r3, [r7, #36]
 3073 00dc 5A1C     		adds	r2, r3, #1
 3074 00de 7A62     		str	r2, [r7, #36]
 3075 00e0 3A6A     		ldr	r2, [r7, #32]
 3076 00e2 D2B2     		uxtb	r2, r2
 3077 00e4 62F07F02 		orn	r2, r2, #127
 3078 00e8 D2B2     		uxtb	r2, r2
 3079 00ea 1A70     		strb	r2, [r3]
 3080 00ec 3B6A     		ldr	r3, [r7, #32]
 3081 00ee DB09     		lsrs	r3, r3, #7
 3082 00f0 3B62     		str	r3, [r7, #32]
 3083              	.L186:
 3084              		.loc 1 1398 0 discriminator 1
 3085 00f2 3B6A     		ldr	r3, [r7, #32]
 3086 00f4 7F2B     		cmp	r3, #127
 3087 00f6 F0D8     		bhi	.L187
 3088              		.loc 1 1398 0 discriminator 4
 3089 00f8 7B6A     		ldr	r3, [r7, #36]
 3090 00fa 5A1C     		adds	r2, r3, #1
 3091 00fc 7A62     		str	r2, [r7, #36]
 3092 00fe 3A6A     		ldr	r2, [r7, #32]
 3093 0100 D2B2     		uxtb	r2, r2
 3094 0102 1A70     		strb	r2, [r3]
 3095 0104 7B6A     		ldr	r3, [r7, #36]
 3096 0106 7B61     		str	r3, [r7, #20]
 3097              	.LBE29:
1399:../../../SystemView/SEGGER/SEGGER_SYSVIEW.c ****   _SendPacket(pPayloadStart, pPayload, EventID);
 3098              		.loc 1 1399 0 is_stmt 1 discriminator 4
 3099 0108 B869     		ldr	r0, [r7, #24]
 3100 010a 7969     		ldr	r1, [r7, #20]
 3101 010c FA68     		ldr	r2, [r7, #12]
 3102 010e FFF7FEFF 		bl	_SendPacket
1400:../../../SystemView/SEGGER/SEGGER_SYSVIEW.c ****   RECORD_END();
 3103              		.loc 1 1400 0 discriminator 4
ARM GAS  /tmp/ccJhHFds.s 			page 80


 3104 0112 FB69     		ldr	r3, [r7, #28]
 3105              	@ 1400 "../../../SystemView/SEGGER/SEGGER_SYSVIEW.c" 1
 3106 0114 83F31188 		msr   basepri, r3  
 3107              		
 3108              	@ 0 "" 2
 3109              		.thumb
 3110              	.LBE25:
1401:../../../SystemView/SEGGER/SEGGER_SYSVIEW.c **** }
 3111              		.loc 1 1401 0 discriminator 4
 3112 0118 4037     		adds	r7, r7, #64
 3113              	.LCFI92:
 3114              		.cfi_def_cfa_offset 8
 3115 011a BD46     		mov	sp, r7
 3116              	.LCFI93:
 3117              		.cfi_def_cfa_register 13
 3118              		@ sp needed
 3119 011c 80BD     		pop	{r7, pc}
 3120              	.L189:
 3121 011e 00BF     		.align	2
 3122              	.L188:
 3123 0120 00000000 		.word	_aPacket
 3124              		.cfi_endproc
 3125              	.LFE17:
 3127              		.section	.text.SEGGER_SYSVIEW_RecordU32x5,"ax",%progbits
 3128              		.align	2
 3129              		.global	SEGGER_SYSVIEW_RecordU32x5
 3130              		.thumb
 3131              		.thumb_func
 3133              	SEGGER_SYSVIEW_RecordU32x5:
 3134              	.LFB18:
1402:../../../SystemView/SEGGER/SEGGER_SYSVIEW.c **** 
1403:../../../SystemView/SEGGER/SEGGER_SYSVIEW.c **** /*********************************************************************
1404:../../../SystemView/SEGGER/SEGGER_SYSVIEW.c **** *
1405:../../../SystemView/SEGGER/SEGGER_SYSVIEW.c **** *       SEGGER_SYSVIEW_RecordU32x5()
1406:../../../SystemView/SEGGER/SEGGER_SYSVIEW.c **** *
1407:../../../SystemView/SEGGER/SEGGER_SYSVIEW.c **** *  Function description
1408:../../../SystemView/SEGGER/SEGGER_SYSVIEW.c **** *    Formats and sends a SystemView packet containing 5 U32 parameter payload.
1409:../../../SystemView/SEGGER/SEGGER_SYSVIEW.c **** *
1410:../../../SystemView/SEGGER/SEGGER_SYSVIEW.c **** *  Parameters
1411:../../../SystemView/SEGGER/SEGGER_SYSVIEW.c **** *    EventID - SystemView event ID.
1412:../../../SystemView/SEGGER/SEGGER_SYSVIEW.c **** *    Para0   - The 32-bit parameter encoded to SystemView packet payload.
1413:../../../SystemView/SEGGER/SEGGER_SYSVIEW.c **** *    Para1   - The 32-bit parameter encoded to SystemView packet payload.
1414:../../../SystemView/SEGGER/SEGGER_SYSVIEW.c **** *    Para2   - The 32-bit parameter encoded to SystemView packet payload.
1415:../../../SystemView/SEGGER/SEGGER_SYSVIEW.c **** *    Para3   - The 32-bit parameter encoded to SystemView packet payload.
1416:../../../SystemView/SEGGER/SEGGER_SYSVIEW.c **** *    Para4   - The 32-bit parameter encoded to SystemView packet payload.
1417:../../../SystemView/SEGGER/SEGGER_SYSVIEW.c **** */
1418:../../../SystemView/SEGGER/SEGGER_SYSVIEW.c **** void SEGGER_SYSVIEW_RecordU32x5(unsigned int EventID, U32 Para0, U32 Para1, U32 Para2, U32 Para3, U
 3135              		.loc 1 1418 0
 3136              		.cfi_startproc
 3137              		@ args = 8, pretend = 0, frame = 72
 3138              		@ frame_needed = 1, uses_anonymous_args = 0
 3139 0000 80B5     		push	{r7, lr}
 3140              	.LCFI94:
 3141              		.cfi_def_cfa_offset 8
 3142              		.cfi_offset 7, -8
 3143              		.cfi_offset 14, -4
 3144 0002 92B0     		sub	sp, sp, #72
ARM GAS  /tmp/ccJhHFds.s 			page 81


 3145              	.LCFI95:
 3146              		.cfi_def_cfa_offset 80
 3147 0004 00AF     		add	r7, sp, #0
 3148              	.LCFI96:
 3149              		.cfi_def_cfa_register 7
 3150 0006 F860     		str	r0, [r7, #12]
 3151 0008 B960     		str	r1, [r7, #8]
 3152 000a 7A60     		str	r2, [r7, #4]
 3153 000c 3B60     		str	r3, [r7]
 3154              	.LBB30:
1419:../../../SystemView/SEGGER/SEGGER_SYSVIEW.c ****   U8* pPayload;
1420:../../../SystemView/SEGGER/SEGGER_SYSVIEW.c ****   U8* pPayloadStart;
1421:../../../SystemView/SEGGER/SEGGER_SYSVIEW.c ****   RECORD_START(SEGGER_SYSVIEW_INFO_SIZE + 5 * SEGGER_SYSVIEW_QUANTA_U32);
 3155              		.loc 1 1421 0
 3156              	@ 1421 "../../../SystemView/SEGGER/SEGGER_SYSVIEW.c" 1
 3157 000e EFF31183 		mrs   r3, basepri  
 3158 0012 4FF02001 		mov   r1, #32       
 3159 0016 81F31188 		msr   basepri, r1  
 3160              		
 3161              	@ 0 "" 2
 3162              		.thumb
 3163 001a FB61     		str	r3, [r7, #28]
 3164 001c 4E48     		ldr	r0, .L201
 3165 001e FFF7FEFF 		bl	_PreparePacket
 3166 0022 B861     		str	r0, [r7, #24]
1422:../../../SystemView/SEGGER/SEGGER_SYSVIEW.c ****   //
1423:../../../SystemView/SEGGER/SEGGER_SYSVIEW.c ****   pPayload = pPayloadStart;
 3167              		.loc 1 1423 0
 3168 0024 BB69     		ldr	r3, [r7, #24]
 3169 0026 7B61     		str	r3, [r7, #20]
 3170              	.LBB31:
1424:../../../SystemView/SEGGER/SEGGER_SYSVIEW.c ****   ENCODE_U32(pPayload, Para0);
 3171              		.loc 1 1424 0
 3172 0028 7B69     		ldr	r3, [r7, #20]
 3173 002a 7B64     		str	r3, [r7, #68]
 3174 002c BB68     		ldr	r3, [r7, #8]
 3175 002e 3B64     		str	r3, [r7, #64]
 3176 0030 0BE0     		b	.L191
 3177              	.L192:
 3178              		.loc 1 1424 0 is_stmt 0 discriminator 3
 3179 0032 7B6C     		ldr	r3, [r7, #68]
 3180 0034 5A1C     		adds	r2, r3, #1
 3181 0036 7A64     		str	r2, [r7, #68]
 3182 0038 3A6C     		ldr	r2, [r7, #64]
 3183 003a D2B2     		uxtb	r2, r2
 3184 003c 62F07F02 		orn	r2, r2, #127
 3185 0040 D2B2     		uxtb	r2, r2
 3186 0042 1A70     		strb	r2, [r3]
 3187 0044 3B6C     		ldr	r3, [r7, #64]
 3188 0046 DB09     		lsrs	r3, r3, #7
 3189 0048 3B64     		str	r3, [r7, #64]
 3190              	.L191:
 3191              		.loc 1 1424 0 discriminator 1
 3192 004a 3B6C     		ldr	r3, [r7, #64]
 3193 004c 7F2B     		cmp	r3, #127
 3194 004e F0D8     		bhi	.L192
 3195              		.loc 1 1424 0 discriminator 4
ARM GAS  /tmp/ccJhHFds.s 			page 82


 3196 0050 7B6C     		ldr	r3, [r7, #68]
 3197 0052 5A1C     		adds	r2, r3, #1
 3198 0054 7A64     		str	r2, [r7, #68]
 3199 0056 3A6C     		ldr	r2, [r7, #64]
 3200 0058 D2B2     		uxtb	r2, r2
 3201 005a 1A70     		strb	r2, [r3]
 3202 005c 7B6C     		ldr	r3, [r7, #68]
 3203 005e 7B61     		str	r3, [r7, #20]
 3204              	.LBE31:
 3205              	.LBB32:
1425:../../../SystemView/SEGGER/SEGGER_SYSVIEW.c ****   ENCODE_U32(pPayload, Para1);
 3206              		.loc 1 1425 0 is_stmt 1 discriminator 4
 3207 0060 7B69     		ldr	r3, [r7, #20]
 3208 0062 FB63     		str	r3, [r7, #60]
 3209 0064 7B68     		ldr	r3, [r7, #4]
 3210 0066 BB63     		str	r3, [r7, #56]
 3211 0068 0BE0     		b	.L193
 3212              	.L194:
 3213              		.loc 1 1425 0 is_stmt 0 discriminator 3
 3214 006a FB6B     		ldr	r3, [r7, #60]
 3215 006c 5A1C     		adds	r2, r3, #1
 3216 006e FA63     		str	r2, [r7, #60]
 3217 0070 BA6B     		ldr	r2, [r7, #56]
 3218 0072 D2B2     		uxtb	r2, r2
 3219 0074 62F07F02 		orn	r2, r2, #127
 3220 0078 D2B2     		uxtb	r2, r2
 3221 007a 1A70     		strb	r2, [r3]
 3222 007c BB6B     		ldr	r3, [r7, #56]
 3223 007e DB09     		lsrs	r3, r3, #7
 3224 0080 BB63     		str	r3, [r7, #56]
 3225              	.L193:
 3226              		.loc 1 1425 0 discriminator 1
 3227 0082 BB6B     		ldr	r3, [r7, #56]
 3228 0084 7F2B     		cmp	r3, #127
 3229 0086 F0D8     		bhi	.L194
 3230              		.loc 1 1425 0 discriminator 4
 3231 0088 FB6B     		ldr	r3, [r7, #60]
 3232 008a 5A1C     		adds	r2, r3, #1
 3233 008c FA63     		str	r2, [r7, #60]
 3234 008e BA6B     		ldr	r2, [r7, #56]
 3235 0090 D2B2     		uxtb	r2, r2
 3236 0092 1A70     		strb	r2, [r3]
 3237 0094 FB6B     		ldr	r3, [r7, #60]
 3238 0096 7B61     		str	r3, [r7, #20]
 3239              	.LBE32:
 3240              	.LBB33:
1426:../../../SystemView/SEGGER/SEGGER_SYSVIEW.c ****   ENCODE_U32(pPayload, Para2);
 3241              		.loc 1 1426 0 is_stmt 1 discriminator 4
 3242 0098 7B69     		ldr	r3, [r7, #20]
 3243 009a 7B63     		str	r3, [r7, #52]
 3244 009c 3B68     		ldr	r3, [r7]
 3245 009e 3B63     		str	r3, [r7, #48]
 3246 00a0 0BE0     		b	.L195
 3247              	.L196:
 3248              		.loc 1 1426 0 is_stmt 0 discriminator 3
 3249 00a2 7B6B     		ldr	r3, [r7, #52]
 3250 00a4 5A1C     		adds	r2, r3, #1
ARM GAS  /tmp/ccJhHFds.s 			page 83


 3251 00a6 7A63     		str	r2, [r7, #52]
 3252 00a8 3A6B     		ldr	r2, [r7, #48]
 3253 00aa D2B2     		uxtb	r2, r2
 3254 00ac 62F07F02 		orn	r2, r2, #127
 3255 00b0 D2B2     		uxtb	r2, r2
 3256 00b2 1A70     		strb	r2, [r3]
 3257 00b4 3B6B     		ldr	r3, [r7, #48]
 3258 00b6 DB09     		lsrs	r3, r3, #7
 3259 00b8 3B63     		str	r3, [r7, #48]
 3260              	.L195:
 3261              		.loc 1 1426 0 discriminator 1
 3262 00ba 3B6B     		ldr	r3, [r7, #48]
 3263 00bc 7F2B     		cmp	r3, #127
 3264 00be F0D8     		bhi	.L196
 3265              		.loc 1 1426 0 discriminator 4
 3266 00c0 7B6B     		ldr	r3, [r7, #52]
 3267 00c2 5A1C     		adds	r2, r3, #1
 3268 00c4 7A63     		str	r2, [r7, #52]
 3269 00c6 3A6B     		ldr	r2, [r7, #48]
 3270 00c8 D2B2     		uxtb	r2, r2
 3271 00ca 1A70     		strb	r2, [r3]
 3272 00cc 7B6B     		ldr	r3, [r7, #52]
 3273 00ce 7B61     		str	r3, [r7, #20]
 3274              	.LBE33:
 3275              	.LBB34:
1427:../../../SystemView/SEGGER/SEGGER_SYSVIEW.c ****   ENCODE_U32(pPayload, Para3);
 3276              		.loc 1 1427 0 is_stmt 1 discriminator 4
 3277 00d0 7B69     		ldr	r3, [r7, #20]
 3278 00d2 FB62     		str	r3, [r7, #44]
