ARM GAS  /tmp/ccLfVfnf.s 			page 1


   1              		.syntax unified
   2              		.cpu cortex-m7
   3              		.eabi_attribute 27, 1
   4              		.eabi_attribute 28, 1
   5              		.fpu fpv5-sp-d16
   6              		.eabi_attribute 20, 1
   7              		.eabi_attribute 21, 1
   8              		.eabi_attribute 23, 3
   9              		.eabi_attribute 24, 1
  10              		.eabi_attribute 25, 1
  11              		.eabi_attribute 26, 1
  12              		.eabi_attribute 30, 6
  13              		.eabi_attribute 34, 1
  14              		.eabi_attribute 18, 4
  15              		.thumb
  16              		.file	"SEGGER_SYSVIEW_FreeRTOS.c"
  17              		.text
  18              	.Ltext0:
  19              		.cfi_sections	.debug_frame
  20              		.section	.bss._aTasks,"aw",%nobits
  21              		.align	2
  24              	_aTasks:
  25 0000 00000000 		.space	160
  25      00000000 
  25      00000000 
  25      00000000 
  25      00000000 
  26              		.section	.bss._NumTasks,"aw",%nobits
  27              		.align	2
  30              	_NumTasks:
  31 0000 00000000 		.space	4
  32              		.section	.text._cbSendTaskList,"ax",%progbits
  33              		.align	2
  34              		.thumb
  35              		.thumb_func
  37              	_cbSendTaskList:
  38              	.LFB5:
  39              		.file 1 "../../../SystemView/Sample/OS/SEGGER_SYSVIEW_FreeRTOS.c"
   1:../../../SystemView/Sample/OS/SEGGER_SYSVIEW_FreeRTOS.c **** /*********************************************************************
   2:../../../SystemView/Sample/OS/SEGGER_SYSVIEW_FreeRTOS.c **** *                SEGGER Microcontroller GmbH & Co. KG                *
   3:../../../SystemView/Sample/OS/SEGGER_SYSVIEW_FreeRTOS.c **** *                        The Embedded Experts                        *
   4:../../../SystemView/Sample/OS/SEGGER_SYSVIEW_FreeRTOS.c **** **********************************************************************
   5:../../../SystemView/Sample/OS/SEGGER_SYSVIEW_FreeRTOS.c **** *                                                                    *
   6:../../../SystemView/Sample/OS/SEGGER_SYSVIEW_FreeRTOS.c **** *       (c) 2015 - 2017  SEGGER Microcontroller GmbH & Co. KG        *
   7:../../../SystemView/Sample/OS/SEGGER_SYSVIEW_FreeRTOS.c **** *                                                                    *
   8:../../../SystemView/Sample/OS/SEGGER_SYSVIEW_FreeRTOS.c **** *       www.segger.com     Support: support@segger.com               *
   9:../../../SystemView/Sample/OS/SEGGER_SYSVIEW_FreeRTOS.c **** *                                                                    *
  10:../../../SystemView/Sample/OS/SEGGER_SYSVIEW_FreeRTOS.c **** **********************************************************************
  11:../../../SystemView/Sample/OS/SEGGER_SYSVIEW_FreeRTOS.c **** *                                                                    *
  12:../../../SystemView/Sample/OS/SEGGER_SYSVIEW_FreeRTOS.c **** *       SEGGER SystemView * Real-time application analysis           *
  13:../../../SystemView/Sample/OS/SEGGER_SYSVIEW_FreeRTOS.c **** *                                                                    *
  14:../../../SystemView/Sample/OS/SEGGER_SYSVIEW_FreeRTOS.c **** **********************************************************************
  15:../../../SystemView/Sample/OS/SEGGER_SYSVIEW_FreeRTOS.c **** *                                                                    *
  16:../../../SystemView/Sample/OS/SEGGER_SYSVIEW_FreeRTOS.c **** * All rights reserved.                                               *
  17:../../../SystemView/Sample/OS/SEGGER_SYSVIEW_FreeRTOS.c **** *                                                                    *
  18:../../../SystemView/Sample/OS/SEGGER_SYSVIEW_FreeRTOS.c **** * SEGGER strongly recommends to not make any changes                 *
  19:../../../SystemView/Sample/OS/SEGGER_SYSVIEW_FreeRTOS.c **** * to or modify the source code of this software in order to stay     *
ARM GAS  /tmp/ccLfVfnf.s 			page 2


  20:../../../SystemView/Sample/OS/SEGGER_SYSVIEW_FreeRTOS.c **** * compatible with the RTT protocol and J-Link.                       *
  21:../../../SystemView/Sample/OS/SEGGER_SYSVIEW_FreeRTOS.c **** *                                                                    *
  22:../../../SystemView/Sample/OS/SEGGER_SYSVIEW_FreeRTOS.c **** * Redistribution and use in source and binary forms, with or         *
  23:../../../SystemView/Sample/OS/SEGGER_SYSVIEW_FreeRTOS.c **** * without modification, are permitted provided that the following    *
  24:../../../SystemView/Sample/OS/SEGGER_SYSVIEW_FreeRTOS.c **** * conditions are met:                                                *
  25:../../../SystemView/Sample/OS/SEGGER_SYSVIEW_FreeRTOS.c **** *                                                                    *
  26:../../../SystemView/Sample/OS/SEGGER_SYSVIEW_FreeRTOS.c **** * o Redistributions of source code must retain the above copyright   *
  27:../../../SystemView/Sample/OS/SEGGER_SYSVIEW_FreeRTOS.c **** *   notice, this list of conditions and the following disclaimer.    *
  28:../../../SystemView/Sample/OS/SEGGER_SYSVIEW_FreeRTOS.c **** *                                                                    *
  29:../../../SystemView/Sample/OS/SEGGER_SYSVIEW_FreeRTOS.c **** * o Redistributions in binary form must reproduce the above          *
  30:../../../SystemView/Sample/OS/SEGGER_SYSVIEW_FreeRTOS.c **** *   copyright notice, this list of conditions and the following      *
  31:../../../SystemView/Sample/OS/SEGGER_SYSVIEW_FreeRTOS.c **** *   disclaimer in the documentation and/or other materials provided  *
  32:../../../SystemView/Sample/OS/SEGGER_SYSVIEW_FreeRTOS.c **** *   with the distribution.                                           *
  33:../../../SystemView/Sample/OS/SEGGER_SYSVIEW_FreeRTOS.c **** *                                                                    *
  34:../../../SystemView/Sample/OS/SEGGER_SYSVIEW_FreeRTOS.c **** * o Neither the name of SEGGER Microcontroller GmbH & Co. KG         *
  35:../../../SystemView/Sample/OS/SEGGER_SYSVIEW_FreeRTOS.c **** *   nor the names of its contributors may be used to endorse or      *
  36:../../../SystemView/Sample/OS/SEGGER_SYSVIEW_FreeRTOS.c **** *   promote products derived from this software without specific     *
  37:../../../SystemView/Sample/OS/SEGGER_SYSVIEW_FreeRTOS.c **** *   prior written permission.                                        *
  38:../../../SystemView/Sample/OS/SEGGER_SYSVIEW_FreeRTOS.c **** *                                                                    *
  39:../../../SystemView/Sample/OS/SEGGER_SYSVIEW_FreeRTOS.c **** * THIS SOFTWARE IS PROVIDED BY THE COPYRIGHT HOLDERS AND             *
  40:../../../SystemView/Sample/OS/SEGGER_SYSVIEW_FreeRTOS.c **** * CONTRIBUTORS "AS IS" AND ANY EXPRESS OR IMPLIED WARRANTIES,        *
  41:../../../SystemView/Sample/OS/SEGGER_SYSVIEW_FreeRTOS.c **** * INCLUDING, BUT NOT LIMITED TO, THE IMPLIED WARRANTIES OF           *
  42:../../../SystemView/Sample/OS/SEGGER_SYSVIEW_FreeRTOS.c **** * MERCHANTABILITY AND FITNESS FOR A PARTICULAR PURPOSE ARE           *
  43:../../../SystemView/Sample/OS/SEGGER_SYSVIEW_FreeRTOS.c **** * DISCLAIMED. IN NO EVENT SHALL SEGGER Microcontroller BE LIABLE FOR *
  44:../../../SystemView/Sample/OS/SEGGER_SYSVIEW_FreeRTOS.c **** * ANY DIRECT, INDIRECT, INCIDENTAL, SPECIAL, EXEMPLARY, OR           *
  45:../../../SystemView/Sample/OS/SEGGER_SYSVIEW_FreeRTOS.c **** * CONSEQUENTIAL DAMAGES (INCLUDING, BUT NOT LIMITED TO, PROCUREMENT  *
  46:../../../SystemView/Sample/OS/SEGGER_SYSVIEW_FreeRTOS.c **** * OF SUBSTITUTE GOODS OR SERVICES; LOSS OF USE, DATA, OR PROFITS;    *
  47:../../../SystemView/Sample/OS/SEGGER_SYSVIEW_FreeRTOS.c **** * OR BUSINESS INTERRUPTION) HOWEVER CAUSED AND ON ANY THEORY OF      *
  48:../../../SystemView/Sample/OS/SEGGER_SYSVIEW_FreeRTOS.c **** * LIABILITY, WHETHER IN CONTRACT, STRICT LIABILITY, OR TORT          *
  49:../../../SystemView/Sample/OS/SEGGER_SYSVIEW_FreeRTOS.c **** * (INCLUDING NEGLIGENCE OR OTHERWISE) ARISING IN ANY WAY OUT OF THE  *
  50:../../../SystemView/Sample/OS/SEGGER_SYSVIEW_FreeRTOS.c **** * USE OF THIS SOFTWARE, EVEN IF ADVISED OF THE POSSIBILITY OF SUCH   *
  51:../../../SystemView/Sample/OS/SEGGER_SYSVIEW_FreeRTOS.c **** * DAMAGE.                                                            *
  52:../../../SystemView/Sample/OS/SEGGER_SYSVIEW_FreeRTOS.c **** *                                                                    *
  53:../../../SystemView/Sample/OS/SEGGER_SYSVIEW_FreeRTOS.c **** **********************************************************************
  54:../../../SystemView/Sample/OS/SEGGER_SYSVIEW_FreeRTOS.c **** *                                                                    *
  55:../../../SystemView/Sample/OS/SEGGER_SYSVIEW_FreeRTOS.c **** *       SystemView version: V2.50                                    *
  56:../../../SystemView/Sample/OS/SEGGER_SYSVIEW_FreeRTOS.c **** *                                                                    *
  57:../../../SystemView/Sample/OS/SEGGER_SYSVIEW_FreeRTOS.c **** **********************************************************************
  58:../../../SystemView/Sample/OS/SEGGER_SYSVIEW_FreeRTOS.c **** -------------------------- END-OF-HEADER -----------------------------
  59:../../../SystemView/Sample/OS/SEGGER_SYSVIEW_FreeRTOS.c **** 
  60:../../../SystemView/Sample/OS/SEGGER_SYSVIEW_FreeRTOS.c **** File    : SEGGER_SYSVIEW_FreeRTOS.c
  61:../../../SystemView/Sample/OS/SEGGER_SYSVIEW_FreeRTOS.c **** Purpose : Interface between FreeRTOS and SystemView.
  62:../../../SystemView/Sample/OS/SEGGER_SYSVIEW_FreeRTOS.c **** Revision: $Rev: 3734 $
  63:../../../SystemView/Sample/OS/SEGGER_SYSVIEW_FreeRTOS.c **** */
  64:../../../SystemView/Sample/OS/SEGGER_SYSVIEW_FreeRTOS.c **** #include "FreeRTOS.h"
  65:../../../SystemView/Sample/OS/SEGGER_SYSVIEW_FreeRTOS.c **** #include "task.h"
  66:../../../SystemView/Sample/OS/SEGGER_SYSVIEW_FreeRTOS.c **** #include "SEGGER_SYSVIEW.h"
  67:../../../SystemView/Sample/OS/SEGGER_SYSVIEW_FreeRTOS.c **** #include "SEGGER_SYSVIEW_FreeRTOS.h"
  68:../../../SystemView/Sample/OS/SEGGER_SYSVIEW_FreeRTOS.c **** #include "string.h" // Required for memset
  69:../../../SystemView/Sample/OS/SEGGER_SYSVIEW_FreeRTOS.c **** 
  70:../../../SystemView/Sample/OS/SEGGER_SYSVIEW_FreeRTOS.c **** 
  71:../../../SystemView/Sample/OS/SEGGER_SYSVIEW_FreeRTOS.c **** 
  72:../../../SystemView/Sample/OS/SEGGER_SYSVIEW_FreeRTOS.c **** typedef struct SYSVIEW_FREERTOS_TASK_STATUS SYSVIEW_FREERTOS_TASK_STATUS;
  73:../../../SystemView/Sample/OS/SEGGER_SYSVIEW_FreeRTOS.c **** 
  74:../../../SystemView/Sample/OS/SEGGER_SYSVIEW_FreeRTOS.c **** struct SYSVIEW_FREERTOS_TASK_STATUS {
  75:../../../SystemView/Sample/OS/SEGGER_SYSVIEW_FreeRTOS.c ****   U32         xHandle;
  76:../../../SystemView/Sample/OS/SEGGER_SYSVIEW_FreeRTOS.c ****   const char* pcTaskName;
ARM GAS  /tmp/ccLfVfnf.s 			page 3


  77:../../../SystemView/Sample/OS/SEGGER_SYSVIEW_FreeRTOS.c ****   unsigned    uxCurrentPriority;
  78:../../../SystemView/Sample/OS/SEGGER_SYSVIEW_FreeRTOS.c ****   U32         pxStack;
  79:../../../SystemView/Sample/OS/SEGGER_SYSVIEW_FreeRTOS.c ****   unsigned    uStackHighWaterMark;
  80:../../../SystemView/Sample/OS/SEGGER_SYSVIEW_FreeRTOS.c **** };
  81:../../../SystemView/Sample/OS/SEGGER_SYSVIEW_FreeRTOS.c **** 
  82:../../../SystemView/Sample/OS/SEGGER_SYSVIEW_FreeRTOS.c **** static SYSVIEW_FREERTOS_TASK_STATUS _aTasks[SYSVIEW_FREERTOS_MAX_NOF_TASKS];
  83:../../../SystemView/Sample/OS/SEGGER_SYSVIEW_FreeRTOS.c **** static unsigned _NumTasks;
  84:../../../SystemView/Sample/OS/SEGGER_SYSVIEW_FreeRTOS.c **** 
  85:../../../SystemView/Sample/OS/SEGGER_SYSVIEW_FreeRTOS.c **** /*********************************************************************
  86:../../../SystemView/Sample/OS/SEGGER_SYSVIEW_FreeRTOS.c **** *
  87:../../../SystemView/Sample/OS/SEGGER_SYSVIEW_FreeRTOS.c **** *       _cbSendTaskList()
  88:../../../SystemView/Sample/OS/SEGGER_SYSVIEW_FreeRTOS.c **** *
  89:../../../SystemView/Sample/OS/SEGGER_SYSVIEW_FreeRTOS.c **** *  Function description
  90:../../../SystemView/Sample/OS/SEGGER_SYSVIEW_FreeRTOS.c **** *    This function is part of the link between FreeRTOS and SYSVIEW.
  91:../../../SystemView/Sample/OS/SEGGER_SYSVIEW_FreeRTOS.c **** *    Called from SystemView when asked by the host, it uses SYSVIEW
  92:../../../SystemView/Sample/OS/SEGGER_SYSVIEW_FreeRTOS.c **** *    functions to send the entire task list to the host.
  93:../../../SystemView/Sample/OS/SEGGER_SYSVIEW_FreeRTOS.c **** */
  94:../../../SystemView/Sample/OS/SEGGER_SYSVIEW_FreeRTOS.c **** static void _cbSendTaskList(void) {
  40              		.loc 1 94 0
  41              		.cfi_startproc
  42              		@ args = 0, pretend = 0, frame = 8
  43              		@ frame_needed = 1, uses_anonymous_args = 0
  44 0000 F0B5     		push	{r4, r5, r6, r7, lr}
  45              	.LCFI0:
  46              		.cfi_def_cfa_offset 20
  47              		.cfi_offset 4, -20
  48              		.cfi_offset 5, -16
  49              		.cfi_offset 6, -12
  50              		.cfi_offset 7, -8
  51              		.cfi_offset 14, -4
  52 0002 85B0     		sub	sp, sp, #20
  53              	.LCFI1:
  54              		.cfi_def_cfa_offset 40
  55 0004 02AF     		add	r7, sp, #8
  56              	.LCFI2:
  57              		.cfi_def_cfa 7, 32
  95:../../../SystemView/Sample/OS/SEGGER_SYSVIEW_FreeRTOS.c ****   unsigned n;
  96:../../../SystemView/Sample/OS/SEGGER_SYSVIEW_FreeRTOS.c **** 
  97:../../../SystemView/Sample/OS/SEGGER_SYSVIEW_FreeRTOS.c ****   for (n = 0; n < _NumTasks; n++) {
  58              		.loc 1 97 0
  59 0006 0023     		movs	r3, #0
  60 0008 7B60     		str	r3, [r7, #4]
  61 000a 33E0     		b	.L2
  62              	.L3:
  98:../../../SystemView/Sample/OS/SEGGER_SYSVIEW_FreeRTOS.c **** #if INCLUDE_uxTaskGetStackHighWaterMark // Report Task Stack High Watermark
  99:../../../SystemView/Sample/OS/SEGGER_SYSVIEW_FreeRTOS.c ****     _aTasks[n].uStackHighWaterMark = uxTaskGetStackHighWaterMark((TaskHandle_t)_aTasks[n].xHandle);
 100:../../../SystemView/Sample/OS/SEGGER_SYSVIEW_FreeRTOS.c **** #endif
 101:../../../SystemView/Sample/OS/SEGGER_SYSVIEW_FreeRTOS.c ****     SYSVIEW_SendTaskInfo((U32)_aTasks[n].xHandle, _aTasks[n].pcTaskName, (unsigned)_aTasks[n].uxCur
  63              		.loc 1 101 0 discriminator 3
  64 000c 1D49     		ldr	r1, .L4
  65 000e 7A68     		ldr	r2, [r7, #4]
  66 0010 1346     		mov	r3, r2
  67 0012 9B00     		lsls	r3, r3, #2
  68 0014 1344     		add	r3, r3, r2
  69 0016 9B00     		lsls	r3, r3, #2
  70 0018 0B44     		add	r3, r3, r1
  71 001a 1868     		ldr	r0, [r3]
ARM GAS  /tmp/ccLfVfnf.s 			page 4


  72 001c 1949     		ldr	r1, .L4
  73 001e 7A68     		ldr	r2, [r7, #4]
  74 0020 1346     		mov	r3, r2
  75 0022 9B00     		lsls	r3, r3, #2
  76 0024 1344     		add	r3, r3, r2
  77 0026 9B00     		lsls	r3, r3, #2
  78 0028 0B44     		add	r3, r3, r1
  79 002a 5E68     		ldr	r6, [r3, #4]
  80 002c 1549     		ldr	r1, .L4
  81 002e 7A68     		ldr	r2, [r7, #4]
  82 0030 1346     		mov	r3, r2
  83 0032 9B00     		lsls	r3, r3, #2
  84 0034 1344     		add	r3, r3, r2
  85 0036 9B00     		lsls	r3, r3, #2
  86 0038 0B44     		add	r3, r3, r1
  87 003a 0833     		adds	r3, r3, #8
  88 003c 1D68     		ldr	r5, [r3]
  89 003e 1149     		ldr	r1, .L4
  90 0040 7A68     		ldr	r2, [r7, #4]
  91 0042 1346     		mov	r3, r2
  92 0044 9B00     		lsls	r3, r3, #2
  93 0046 1344     		add	r3, r3, r2
  94 0048 9B00     		lsls	r3, r3, #2
  95 004a 0B44     		add	r3, r3, r1
  96 004c 0833     		adds	r3, r3, #8
  97 004e 5C68     		ldr	r4, [r3, #4]
  98 0050 0C49     		ldr	r1, .L4
  99 0052 7A68     		ldr	r2, [r7, #4]
 100 0054 1346     		mov	r3, r2
 101 0056 9B00     		lsls	r3, r3, #2
 102 0058 1344     		add	r3, r3, r2
 103 005a 9B00     		lsls	r3, r3, #2
 104 005c 0B44     		add	r3, r3, r1
 105 005e 1033     		adds	r3, r3, #16
 106 0060 1B68     		ldr	r3, [r3]
 107 0062 0093     		str	r3, [sp]
 108 0064 3146     		mov	r1, r6
 109 0066 2A46     		mov	r2, r5
 110 0068 2346     		mov	r3, r4
 111 006a FFF7FEFF 		bl	SYSVIEW_SendTaskInfo
  97:../../../SystemView/Sample/OS/SEGGER_SYSVIEW_FreeRTOS.c **** #if INCLUDE_uxTaskGetStackHighWaterMark // Report Task Stack High Watermark
 112              		.loc 1 97 0 discriminator 3
 113 006e 7B68     		ldr	r3, [r7, #4]
 114 0070 0133     		adds	r3, r3, #1
 115 0072 7B60     		str	r3, [r7, #4]
 116              	.L2:
  97:../../../SystemView/Sample/OS/SEGGER_SYSVIEW_FreeRTOS.c **** #if INCLUDE_uxTaskGetStackHighWaterMark // Report Task Stack High Watermark
 117              		.loc 1 97 0 is_stmt 0 discriminator 1
 118 0074 044B     		ldr	r3, .L4+4
 119 0076 1B68     		ldr	r3, [r3]
 120 0078 7A68     		ldr	r2, [r7, #4]
 121 007a 9A42     		cmp	r2, r3
 122 007c C6D3     		bcc	.L3
 102:../../../SystemView/Sample/OS/SEGGER_SYSVIEW_FreeRTOS.c ****   }
 103:../../../SystemView/Sample/OS/SEGGER_SYSVIEW_FreeRTOS.c **** }
 123              		.loc 1 103 0 is_stmt 1
 124 007e 0C37     		adds	r7, r7, #12
ARM GAS  /tmp/ccLfVfnf.s 			page 5


 125              	.LCFI3:
 126              		.cfi_def_cfa_offset 20
 127 0080 BD46     		mov	sp, r7
 128              	.LCFI4:
 129              		.cfi_def_cfa_register 13
 130              		@ sp needed
 131 0082 F0BD     		pop	{r4, r5, r6, r7, pc}
 132              	.L5:
 133              		.align	2
 134              	.L4:
 135 0084 00000000 		.word	_aTasks
 136 0088 00000000 		.word	_NumTasks
 137              		.cfi_endproc
 138              	.LFE5:
 140              		.section	.text._cbGetTime,"ax",%progbits
 141              		.align	2
 142              		.thumb
 143              		.thumb_func
 145              	_cbGetTime:
 146              	.LFB6:
 104:../../../SystemView/Sample/OS/SEGGER_SYSVIEW_FreeRTOS.c **** 
 105:../../../SystemView/Sample/OS/SEGGER_SYSVIEW_FreeRTOS.c **** /*********************************************************************
 106:../../../SystemView/Sample/OS/SEGGER_SYSVIEW_FreeRTOS.c **** *
 107:../../../SystemView/Sample/OS/SEGGER_SYSVIEW_FreeRTOS.c **** *       _cbGetTime()
 108:../../../SystemView/Sample/OS/SEGGER_SYSVIEW_FreeRTOS.c **** *
 109:../../../SystemView/Sample/OS/SEGGER_SYSVIEW_FreeRTOS.c **** *  Function description
 110:../../../SystemView/Sample/OS/SEGGER_SYSVIEW_FreeRTOS.c **** *    This function is part of the link between FreeRTOS and SYSVIEW.
 111:../../../SystemView/Sample/OS/SEGGER_SYSVIEW_FreeRTOS.c **** *    Called from SystemView when asked by the host, returns the
 112:../../../SystemView/Sample/OS/SEGGER_SYSVIEW_FreeRTOS.c **** *    current system time in micro seconds.
 113:../../../SystemView/Sample/OS/SEGGER_SYSVIEW_FreeRTOS.c **** */
 114:../../../SystemView/Sample/OS/SEGGER_SYSVIEW_FreeRTOS.c **** static U64 _cbGetTime(void) {
 147              		.loc 1 114 0
 148              		.cfi_startproc
 149              		@ args = 0, pretend = 0, frame = 8
 150              		@ frame_needed = 1, uses_anonymous_args = 0
 151 0000 2DE9B04F 		push	{r4, r5, r7, r8, r9, r10, fp, lr}
 152              	.LCFI5:
 153              		.cfi_def_cfa_offset 32
 154              		.cfi_offset 4, -32
 155              		.cfi_offset 5, -28
 156              		.cfi_offset 7, -24
 157              		.cfi_offset 8, -20
 158              		.cfi_offset 9, -16
 159              		.cfi_offset 10, -12
 160              		.cfi_offset 11, -8
 161              		.cfi_offset 14, -4
 162 0004 82B0     		sub	sp, sp, #8
 163              	.LCFI6:
 164              		.cfi_def_cfa_offset 40
 165 0006 00AF     		add	r7, sp, #0
 166              	.LCFI7:
 167              		.cfi_def_cfa_register 7
 115:../../../SystemView/Sample/OS/SEGGER_SYSVIEW_FreeRTOS.c ****   U64 Time;
 116:../../../SystemView/Sample/OS/SEGGER_SYSVIEW_FreeRTOS.c **** 
 117:../../../SystemView/Sample/OS/SEGGER_SYSVIEW_FreeRTOS.c ****   Time = xTaskGetTickCountFromISR();
 168              		.loc 1 117 0
 169 0008 FFF7FEFF 		bl	xTaskGetTickCountFromISR
ARM GAS  /tmp/ccLfVfnf.s 			page 6


 170 000c 0346     		mov	r3, r0
 171 000e 1A46     		mov	r2, r3
 172 0010 4FF00003 		mov	r3, #0
 173 0014 C7E90023 		strd	r2, [r7]
 118:../../../SystemView/Sample/OS/SEGGER_SYSVIEW_FreeRTOS.c ****   Time *= portTICK_PERIOD_MS;
 119:../../../SystemView/Sample/OS/SEGGER_SYSVIEW_FreeRTOS.c ****   Time *= 1000;
 174              		.loc 1 119 0
 175 0018 D7E90001 		ldrd	r0, [r7]
 176 001c 0246     		mov	r2, r0
 177 001e 0B46     		mov	r3, r1
 178 0020 4FEA830B 		lsl	fp, r3, #2
 179 0024 4BEA927B 		orr	fp, fp, r2, lsr #30
 180 0028 4FEA820A 		lsl	r10, r2, #2
 181 002c 5246     		mov	r2, r10
 182 002e 5B46     		mov	r3, fp
 183 0030 5D01     		lsls	r5, r3, #5
 184 0032 45EAD265 		orr	r5, r5, r2, lsr #27
 185 0036 5401     		lsls	r4, r2, #5
 186 0038 A41A     		subs	r4, r4, r2
 187 003a 65EB0305 		sbc	r5, r5, r3
 188 003e 2418     		adds	r4, r4, r0
 189 0040 45EB0105 		adc	r5, r5, r1
 190 0044 4FEAC509 		lsl	r9, r5, #3
 191 0048 49EA5479 		orr	r9, r9, r4, lsr #29
 192 004c 4FEAC408 		lsl	r8, r4, #3
 193 0050 4446     		mov	r4, r8
 194 0052 4D46     		mov	r5, r9
 195 0054 C7E90045 		strd	r4, [r7]
 120:../../../SystemView/Sample/OS/SEGGER_SYSVIEW_FreeRTOS.c ****   return Time;
 196              		.loc 1 120 0
 197 0058 D7E90023 		ldrd	r2, [r7]
 121:../../../SystemView/Sample/OS/SEGGER_SYSVIEW_FreeRTOS.c **** }
 198              		.loc 1 121 0
 199 005c 1046     		mov	r0, r2
 200 005e 1946     		mov	r1, r3
 201 0060 0837     		adds	r7, r7, #8
 202              	.LCFI8:
 203              		.cfi_def_cfa_offset 32
 204 0062 BD46     		mov	sp, r7
 205              	.LCFI9:
 206              		.cfi_def_cfa_register 13
 207              		@ sp needed
 208 0064 BDE8B08F 		pop	{r4, r5, r7, r8, r9, r10, fp, pc}
 209              		.cfi_endproc
 210              	.LFE6:
 212              		.section	.rodata
 213              		.align	2
 214              	.LC0:
 215 0000 49444C45 		.ascii	"IDLE\000"
 215      00
 216 0005 000000   		.align	2
 217              	.LC1:
 218 0008 53595354 		.ascii	"SYSTEMVIEW: Could not record task information. Maxi"
 218      454D5649 
 218      45573A20 
 218      436F756C 
 218      64206E6F 
ARM GAS  /tmp/ccLfVfnf.s 			page 7


 219 003b 6D756D20 		.ascii	"mum number of tasks reached.\000"
 219      6E756D62 
 219      6572206F 
 219      66207461 
 219      736B7320 
 220              		.section	.text.SYSVIEW_AddTask,"ax",%progbits
 221              		.align	2
 222              		.global	SYSVIEW_AddTask
 223              		.thumb
 224              		.thumb_func
 226              	SYSVIEW_AddTask:
 227              	.LFB7:
 122:../../../SystemView/Sample/OS/SEGGER_SYSVIEW_FreeRTOS.c **** 
 123:../../../SystemView/Sample/OS/SEGGER_SYSVIEW_FreeRTOS.c **** /*********************************************************************
 124:../../../SystemView/Sample/OS/SEGGER_SYSVIEW_FreeRTOS.c **** *
 125:../../../SystemView/Sample/OS/SEGGER_SYSVIEW_FreeRTOS.c **** *       Global functions
 126:../../../SystemView/Sample/OS/SEGGER_SYSVIEW_FreeRTOS.c **** *
 127:../../../SystemView/Sample/OS/SEGGER_SYSVIEW_FreeRTOS.c **** **********************************************************************
 128:../../../SystemView/Sample/OS/SEGGER_SYSVIEW_FreeRTOS.c **** */
 129:../../../SystemView/Sample/OS/SEGGER_SYSVIEW_FreeRTOS.c **** /*********************************************************************
 130:../../../SystemView/Sample/OS/SEGGER_SYSVIEW_FreeRTOS.c **** *
 131:../../../SystemView/Sample/OS/SEGGER_SYSVIEW_FreeRTOS.c **** *       SYSVIEW_AddTask()
 132:../../../SystemView/Sample/OS/SEGGER_SYSVIEW_FreeRTOS.c **** *
 133:../../../SystemView/Sample/OS/SEGGER_SYSVIEW_FreeRTOS.c **** *  Function description
 134:../../../SystemView/Sample/OS/SEGGER_SYSVIEW_FreeRTOS.c **** *    Add a task to the internal list and record its information.
 135:../../../SystemView/Sample/OS/SEGGER_SYSVIEW_FreeRTOS.c **** */
 136:../../../SystemView/Sample/OS/SEGGER_SYSVIEW_FreeRTOS.c **** void SYSVIEW_AddTask(U32 xHandle, const char* pcTaskName, unsigned uxCurrentPriority, U32  pxStack,
 228              		.loc 1 136 0
 229              		.cfi_startproc
 230              		@ args = 4, pretend = 0, frame = 16
 231              		@ frame_needed = 1, uses_anonymous_args = 0
 232 0000 80B5     		push	{r7, lr}
 233              	.LCFI10:
 234              		.cfi_def_cfa_offset 8
 235              		.cfi_offset 7, -8
 236              		.cfi_offset 14, -4
 237 0002 86B0     		sub	sp, sp, #24
 238              	.LCFI11:
 239              		.cfi_def_cfa_offset 32
 240 0004 02AF     		add	r7, sp, #8
 241              	.LCFI12:
 242              		.cfi_def_cfa 7, 24
 243 0006 F860     		str	r0, [r7, #12]
 244 0008 B960     		str	r1, [r7, #8]
 245 000a 7A60     		str	r2, [r7, #4]
 246 000c 3B60     		str	r3, [r7]
 137:../../../SystemView/Sample/OS/SEGGER_SYSVIEW_FreeRTOS.c ****   
 138:../../../SystemView/Sample/OS/SEGGER_SYSVIEW_FreeRTOS.c ****   if (memcmp(pcTaskName, "IDLE", 5) == 0) {
 247              		.loc 1 138 0
 248 000e B868     		ldr	r0, [r7, #8]
 249 0010 2A49     		ldr	r1, .L12
 250 0012 0522     		movs	r2, #5
 251 0014 FFF7FEFF 		bl	memcmp
 252 0018 0346     		mov	r3, r0
 253 001a 002B     		cmp	r3, #0
 254 001c 00D1     		bne	.L9
 139:../../../SystemView/Sample/OS/SEGGER_SYSVIEW_FreeRTOS.c ****     return;
ARM GAS  /tmp/ccLfVfnf.s 			page 8


 255              		.loc 1 139 0
 256 001e 49E0     		b	.L8
 257              	.L9:
 140:../../../SystemView/Sample/OS/SEGGER_SYSVIEW_FreeRTOS.c ****   }
 141:../../../SystemView/Sample/OS/SEGGER_SYSVIEW_FreeRTOS.c ****   
 142:../../../SystemView/Sample/OS/SEGGER_SYSVIEW_FreeRTOS.c ****   if (_NumTasks >= SYSVIEW_FREERTOS_MAX_NOF_TASKS) {
 258              		.loc 1 142 0
 259 0020 274B     		ldr	r3, .L12+4
 260 0022 1B68     		ldr	r3, [r3]
 261 0024 072B     		cmp	r3, #7
 262 0026 03D9     		bls	.L11
 143:../../../SystemView/Sample/OS/SEGGER_SYSVIEW_FreeRTOS.c ****     SEGGER_SYSVIEW_Warn("SYSTEMVIEW: Could not record task information. Maximum number of tasks rea
 263              		.loc 1 143 0
 264 0028 2648     		ldr	r0, .L12+8
 265 002a FFF7FEFF 		bl	SEGGER_SYSVIEW_Warn
 144:../../../SystemView/Sample/OS/SEGGER_SYSVIEW_FreeRTOS.c ****     return;
 266              		.loc 1 144 0
 267 002e 41E0     		b	.L8
 268              	.L11:
 145:../../../SystemView/Sample/OS/SEGGER_SYSVIEW_FreeRTOS.c ****   }
 146:../../../SystemView/Sample/OS/SEGGER_SYSVIEW_FreeRTOS.c **** 
 147:../../../SystemView/Sample/OS/SEGGER_SYSVIEW_FreeRTOS.c ****   _aTasks[_NumTasks].xHandle = xHandle;
 269              		.loc 1 147 0
 270 0030 234B     		ldr	r3, .L12+4
 271 0032 1A68     		ldr	r2, [r3]
 272 0034 2449     		ldr	r1, .L12+12
 273 0036 1346     		mov	r3, r2
 274 0038 9B00     		lsls	r3, r3, #2
 275 003a 1344     		add	r3, r3, r2
 276 003c 9B00     		lsls	r3, r3, #2
 277 003e 0B44     		add	r3, r3, r1
 278 0040 FA68     		ldr	r2, [r7, #12]
 279 0042 1A60     		str	r2, [r3]
 148:../../../SystemView/Sample/OS/SEGGER_SYSVIEW_FreeRTOS.c ****   _aTasks[_NumTasks].pcTaskName = pcTaskName;
 280              		.loc 1 148 0
 281 0044 1E4B     		ldr	r3, .L12+4
 282 0046 1A68     		ldr	r2, [r3]
 283 0048 1F49     		ldr	r1, .L12+12
 284 004a 1346     		mov	r3, r2
 285 004c 9B00     		lsls	r3, r3, #2
 286 004e 1344     		add	r3, r3, r2
 287 0050 9B00     		lsls	r3, r3, #2
 288 0052 0B44     		add	r3, r3, r1
 289 0054 BA68     		ldr	r2, [r7, #8]
 290 0056 5A60     		str	r2, [r3, #4]
 149:../../../SystemView/Sample/OS/SEGGER_SYSVIEW_FreeRTOS.c ****   _aTasks[_NumTasks].uxCurrentPriority = uxCurrentPriority;
 291              		.loc 1 149 0
 292 0058 194B     		ldr	r3, .L12+4
 293 005a 1A68     		ldr	r2, [r3]
 294 005c 1A49     		ldr	r1, .L12+12
 295 005e 1346     		mov	r3, r2
 296 0060 9B00     		lsls	r3, r3, #2
 297 0062 1344     		add	r3, r3, r2
 298 0064 9B00     		lsls	r3, r3, #2
 299 0066 0B44     		add	r3, r3, r1
 300 0068 0833     		adds	r3, r3, #8
 301 006a 7A68     		ldr	r2, [r7, #4]
ARM GAS  /tmp/ccLfVfnf.s 			page 9


 302 006c 1A60     		str	r2, [r3]
 150:../../../SystemView/Sample/OS/SEGGER_SYSVIEW_FreeRTOS.c ****   _aTasks[_NumTasks].pxStack = pxStack;
 303              		.loc 1 150 0
 304 006e 144B     		ldr	r3, .L12+4
 305 0070 1A68     		ldr	r2, [r3]
 306 0072 1549     		ldr	r1, .L12+12
 307 0074 1346     		mov	r3, r2
 308 0076 9B00     		lsls	r3, r3, #2
 309 0078 1344     		add	r3, r3, r2
 310 007a 9B00     		lsls	r3, r3, #2
 311 007c 0B44     		add	r3, r3, r1
 312 007e 0833     		adds	r3, r3, #8
 313 0080 3A68     		ldr	r2, [r7]
 314 0082 5A60     		str	r2, [r3, #4]
 151:../../../SystemView/Sample/OS/SEGGER_SYSVIEW_FreeRTOS.c ****   _aTasks[_NumTasks].uStackHighWaterMark = uStackHighWaterMark;
 315              		.loc 1 151 0
 316 0084 0E4B     		ldr	r3, .L12+4
 317 0086 1A68     		ldr	r2, [r3]
 318 0088 0F49     		ldr	r1, .L12+12
 319 008a 1346     		mov	r3, r2
 320 008c 9B00     		lsls	r3, r3, #2
 321 008e 1344     		add	r3, r3, r2
 322 0090 9B00     		lsls	r3, r3, #2
 323 0092 0B44     		add	r3, r3, r1
 324 0094 1033     		adds	r3, r3, #16
 325 0096 BA69     		ldr	r2, [r7, #24]
 326 0098 1A60     		str	r2, [r3]
 152:../../../SystemView/Sample/OS/SEGGER_SYSVIEW_FreeRTOS.c **** 
 153:../../../SystemView/Sample/OS/SEGGER_SYSVIEW_FreeRTOS.c ****   _NumTasks++;
 327              		.loc 1 153 0
 328 009a 094B     		ldr	r3, .L12+4
 329 009c 1B68     		ldr	r3, [r3]
 330 009e 0133     		adds	r3, r3, #1
 331 00a0 074A     		ldr	r2, .L12+4
 332 00a2 1360     		str	r3, [r2]
 154:../../../SystemView/Sample/OS/SEGGER_SYSVIEW_FreeRTOS.c **** 
 155:../../../SystemView/Sample/OS/SEGGER_SYSVIEW_FreeRTOS.c ****   SYSVIEW_SendTaskInfo(xHandle, pcTaskName,uxCurrentPriority, pxStack, uStackHighWaterMark);
 333              		.loc 1 155 0
 334 00a4 BB69     		ldr	r3, [r7, #24]
 335 00a6 0093     		str	r3, [sp]
 336 00a8 F868     		ldr	r0, [r7, #12]
 337 00aa B968     		ldr	r1, [r7, #8]
 338 00ac 7A68     		ldr	r2, [r7, #4]
 339 00ae 3B68     		ldr	r3, [r7]
 340 00b0 FFF7FEFF 		bl	SYSVIEW_SendTaskInfo
 341              	.L8:
 156:../../../SystemView/Sample/OS/SEGGER_SYSVIEW_FreeRTOS.c **** 
 157:../../../SystemView/Sample/OS/SEGGER_SYSVIEW_FreeRTOS.c **** }
 342              		.loc 1 157 0
 343 00b4 1037     		adds	r7, r7, #16
 344              	.LCFI13:
 345              		.cfi_def_cfa_offset 8
 346 00b6 BD46     		mov	sp, r7
 347              	.LCFI14:
 348              		.cfi_def_cfa_register 13
 349              		@ sp needed
 350 00b8 80BD     		pop	{r7, pc}
ARM GAS  /tmp/ccLfVfnf.s 			page 10


 351              	.L13:
 352 00ba 00BF     		.align	2
 353              	.L12:
 354 00bc 00000000 		.word	.LC0
 355 00c0 00000000 		.word	_NumTasks
 356 00c4 08000000 		.word	.LC1
 357 00c8 00000000 		.word	_aTasks
 358              		.cfi_endproc
 359              	.LFE7:
 361              		.section	.text.SYSVIEW_UpdateTask,"ax",%progbits
 362              		.align	2
 363              		.global	SYSVIEW_UpdateTask
 364              		.thumb
 365              		.thumb_func
 367              	SYSVIEW_UpdateTask:
 368              	.LFB8:
 158:../../../SystemView/Sample/OS/SEGGER_SYSVIEW_FreeRTOS.c **** 
 159:../../../SystemView/Sample/OS/SEGGER_SYSVIEW_FreeRTOS.c **** /*********************************************************************
 160:../../../SystemView/Sample/OS/SEGGER_SYSVIEW_FreeRTOS.c **** *
 161:../../../SystemView/Sample/OS/SEGGER_SYSVIEW_FreeRTOS.c **** *       SYSVIEW_UpdateTask()
 162:../../../SystemView/Sample/OS/SEGGER_SYSVIEW_FreeRTOS.c **** *
 163:../../../SystemView/Sample/OS/SEGGER_SYSVIEW_FreeRTOS.c **** *  Function description
 164:../../../SystemView/Sample/OS/SEGGER_SYSVIEW_FreeRTOS.c **** *    Update a task in the internal list and record its information.
 165:../../../SystemView/Sample/OS/SEGGER_SYSVIEW_FreeRTOS.c **** */
 166:../../../SystemView/Sample/OS/SEGGER_SYSVIEW_FreeRTOS.c **** void SYSVIEW_UpdateTask(U32 xHandle, const char* pcTaskName, unsigned uxCurrentPriority, U32 pxStac
 369              		.loc 1 166 0
 370              		.cfi_startproc
 371              		@ args = 4, pretend = 0, frame = 24
 372              		@ frame_needed = 1, uses_anonymous_args = 0
 373 0000 80B5     		push	{r7, lr}
 374              	.LCFI15:
 375              		.cfi_def_cfa_offset 8
 376              		.cfi_offset 7, -8
 377              		.cfi_offset 14, -4
 378 0002 88B0     		sub	sp, sp, #32
 379              	.LCFI16:
 380              		.cfi_def_cfa_offset 40
 381 0004 02AF     		add	r7, sp, #8
 382              	.LCFI17:
 383              		.cfi_def_cfa 7, 32
 384 0006 F860     		str	r0, [r7, #12]
 385 0008 B960     		str	r1, [r7, #8]
 386 000a 7A60     		str	r2, [r7, #4]
 387 000c 3B60     		str	r3, [r7]
 167:../../../SystemView/Sample/OS/SEGGER_SYSVIEW_FreeRTOS.c ****   unsigned n;
 168:../../../SystemView/Sample/OS/SEGGER_SYSVIEW_FreeRTOS.c ****   
 169:../../../SystemView/Sample/OS/SEGGER_SYSVIEW_FreeRTOS.c ****   if (memcmp(pcTaskName, "IDLE", 5) == 0) {
 388              		.loc 1 169 0
 389 000e B868     		ldr	r0, [r7, #8]
 390 0010 2F49     		ldr	r1, .L22
 391 0012 0522     		movs	r2, #5
 392 0014 FFF7FEFF 		bl	memcmp
 393 0018 0346     		mov	r3, r0
 394 001a 002B     		cmp	r3, #0
 395 001c 00D1     		bne	.L15
 170:../../../SystemView/Sample/OS/SEGGER_SYSVIEW_FreeRTOS.c ****     return;
 396              		.loc 1 170 0
ARM GAS  /tmp/ccLfVfnf.s 			page 11


 397 001e 53E0     		b	.L14
 398              	.L15:
 171:../../../SystemView/Sample/OS/SEGGER_SYSVIEW_FreeRTOS.c ****   }
 172:../../../SystemView/Sample/OS/SEGGER_SYSVIEW_FreeRTOS.c **** 
 173:../../../SystemView/Sample/OS/SEGGER_SYSVIEW_FreeRTOS.c ****   for (n = 0; n < _NumTasks; n++) {
 399              		.loc 1 173 0
 400 0020 0023     		movs	r3, #0
 401 0022 7B61     		str	r3, [r7, #20]
 402 0024 0EE0     		b	.L17
 403              	.L20:
 174:../../../SystemView/Sample/OS/SEGGER_SYSVIEW_FreeRTOS.c ****     if (_aTasks[n].xHandle == xHandle) {
 404              		.loc 1 174 0
 405 0026 2B49     		ldr	r1, .L22+4
 406 0028 7A69     		ldr	r2, [r7, #20]
 407 002a 1346     		mov	r3, r2
 408 002c 9B00     		lsls	r3, r3, #2
 409 002e 1344     		add	r3, r3, r2
 410 0030 9B00     		lsls	r3, r3, #2
 411 0032 0B44     		add	r3, r3, r1
 412 0034 1A68     		ldr	r2, [r3]
 413 0036 FB68     		ldr	r3, [r7, #12]
 414 0038 9A42     		cmp	r2, r3
 415 003a 00D1     		bne	.L18
 175:../../../SystemView/Sample/OS/SEGGER_SYSVIEW_FreeRTOS.c ****       break;
 416              		.loc 1 175 0
 417 003c 07E0     		b	.L19
 418              	.L18:
 173:../../../SystemView/Sample/OS/SEGGER_SYSVIEW_FreeRTOS.c ****     if (_aTasks[n].xHandle == xHandle) {
 419              		.loc 1 173 0 discriminator 2
 420 003e 7B69     		ldr	r3, [r7, #20]
 421 0040 0133     		adds	r3, r3, #1
 422 0042 7B61     		str	r3, [r7, #20]
 423              	.L17:
 173:../../../SystemView/Sample/OS/SEGGER_SYSVIEW_FreeRTOS.c ****     if (_aTasks[n].xHandle == xHandle) {
 424              		.loc 1 173 0 is_stmt 0 discriminator 1
 425 0044 244B     		ldr	r3, .L22+8
 426 0046 1B68     		ldr	r3, [r3]
 427 0048 7A69     		ldr	r2, [r7, #20]
 428 004a 9A42     		cmp	r2, r3
 429 004c EBD3     		bcc	.L20
 430              	.L19:
 176:../../../SystemView/Sample/OS/SEGGER_SYSVIEW_FreeRTOS.c ****     }
 177:../../../SystemView/Sample/OS/SEGGER_SYSVIEW_FreeRTOS.c ****   }
 178:../../../SystemView/Sample/OS/SEGGER_SYSVIEW_FreeRTOS.c ****   if (n < _NumTasks) {
 431              		.loc 1 178 0 is_stmt 1
 432 004e 224B     		ldr	r3, .L22+8
 433 0050 1B68     		ldr	r3, [r3]
 434 0052 7A69     		ldr	r2, [r7, #20]
 435 0054 9A42     		cmp	r2, r3
 436 0056 2FD2     		bcs	.L21
 179:../../../SystemView/Sample/OS/SEGGER_SYSVIEW_FreeRTOS.c ****     _aTasks[n].pcTaskName = pcTaskName;
 437              		.loc 1 179 0
 438 0058 1E49     		ldr	r1, .L22+4
 439 005a 7A69     		ldr	r2, [r7, #20]
 440 005c 1346     		mov	r3, r2
 441 005e 9B00     		lsls	r3, r3, #2
 442 0060 1344     		add	r3, r3, r2
ARM GAS  /tmp/ccLfVfnf.s 			page 12


 443 0062 9B00     		lsls	r3, r3, #2
 444 0064 0B44     		add	r3, r3, r1
 445 0066 BA68     		ldr	r2, [r7, #8]
 446 0068 5A60     		str	r2, [r3, #4]
 180:../../../SystemView/Sample/OS/SEGGER_SYSVIEW_FreeRTOS.c ****     _aTasks[n].uxCurrentPriority = uxCurrentPriority;
 447              		.loc 1 180 0
 448 006a 1A49     		ldr	r1, .L22+4
 449 006c 7A69     		ldr	r2, [r7, #20]
 450 006e 1346     		mov	r3, r2
 451 0070 9B00     		lsls	r3, r3, #2
 452 0072 1344     		add	r3, r3, r2
 453 0074 9B00     		lsls	r3, r3, #2
 454 0076 0B44     		add	r3, r3, r1
 455 0078 0833     		adds	r3, r3, #8
 456 007a 7A68     		ldr	r2, [r7, #4]
 457 007c 1A60     		str	r2, [r3]
 181:../../../SystemView/Sample/OS/SEGGER_SYSVIEW_FreeRTOS.c ****     _aTasks[n].pxStack = pxStack;
 458              		.loc 1 181 0
 459 007e 1549     		ldr	r1, .L22+4
 460 0080 7A69     		ldr	r2, [r7, #20]
 461 0082 1346     		mov	r3, r2
 462 0084 9B00     		lsls	r3, r3, #2
 463 0086 1344     		add	r3, r3, r2
 464 0088 9B00     		lsls	r3, r3, #2
 465 008a 0B44     		add	r3, r3, r1
 466 008c 0833     		adds	r3, r3, #8
 467 008e 3A68     		ldr	r2, [r7]
 468 0090 5A60     		str	r2, [r3, #4]
 182:../../../SystemView/Sample/OS/SEGGER_SYSVIEW_FreeRTOS.c ****     _aTasks[n].uStackHighWaterMark = uStackHighWaterMark;
 469              		.loc 1 182 0
 470 0092 1049     		ldr	r1, .L22+4
 471 0094 7A69     		ldr	r2, [r7, #20]
 472 0096 1346     		mov	r3, r2
 473 0098 9B00     		lsls	r3, r3, #2
 474 009a 1344     		add	r3, r3, r2
 475 009c 9B00     		lsls	r3, r3, #2
 476 009e 0B44     		add	r3, r3, r1
 477 00a0 1033     		adds	r3, r3, #16
 478 00a2 3A6A     		ldr	r2, [r7, #32]
 479 00a4 1A60     		str	r2, [r3]
 183:../../../SystemView/Sample/OS/SEGGER_SYSVIEW_FreeRTOS.c **** 
 184:../../../SystemView/Sample/OS/SEGGER_SYSVIEW_FreeRTOS.c ****     SYSVIEW_SendTaskInfo(xHandle, pcTaskName, uxCurrentPriority, pxStack, uStackHighWaterMark);
 480              		.loc 1 184 0
 481 00a6 3B6A     		ldr	r3, [r7, #32]
 482 00a8 0093     		str	r3, [sp]
 483 00aa F868     		ldr	r0, [r7, #12]
 484 00ac B968     		ldr	r1, [r7, #8]
 485 00ae 7A68     		ldr	r2, [r7, #4]
 486 00b0 3B68     		ldr	r3, [r7]
 487 00b2 FFF7FEFF 		bl	SYSVIEW_SendTaskInfo
 488 00b6 07E0     		b	.L14
 489              	.L21:
 185:../../../SystemView/Sample/OS/SEGGER_SYSVIEW_FreeRTOS.c ****   } else {
 186:../../../SystemView/Sample/OS/SEGGER_SYSVIEW_FreeRTOS.c ****     SYSVIEW_AddTask(xHandle, pcTaskName, uxCurrentPriority, pxStack, uStackHighWaterMark);
 490              		.loc 1 186 0
 491 00b8 3B6A     		ldr	r3, [r7, #32]
 492 00ba 0093     		str	r3, [sp]
ARM GAS  /tmp/ccLfVfnf.s 			page 13


 493 00bc F868     		ldr	r0, [r7, #12]
 494 00be B968     		ldr	r1, [r7, #8]
 495 00c0 7A68     		ldr	r2, [r7, #4]
 496 00c2 3B68     		ldr	r3, [r7]
 497 00c4 FFF7FEFF 		bl	SYSVIEW_AddTask
 498              	.L14:
 187:../../../SystemView/Sample/OS/SEGGER_SYSVIEW_FreeRTOS.c ****   }
 188:../../../SystemView/Sample/OS/SEGGER_SYSVIEW_FreeRTOS.c **** }
 499              		.loc 1 188 0
 500 00c8 1837     		adds	r7, r7, #24
 501              	.LCFI18:
 502              		.cfi_def_cfa_offset 8
 503 00ca BD46     		mov	sp, r7
 504              	.LCFI19:
 505              		.cfi_def_cfa_register 13
 506              		@ sp needed
 507 00cc 80BD     		pop	{r7, pc}
 508              	.L23:
 509 00ce 00BF     		.align	2
 510              	.L22:
 511 00d0 00000000 		.word	.LC0
 512 00d4 00000000 		.word	_aTasks
 513 00d8 00000000 		.word	_NumTasks
 514              		.cfi_endproc
 515              	.LFE8:
 517              		.section	.text.SYSVIEW_SendTaskInfo,"ax",%progbits
 518              		.align	2
 519              		.global	SYSVIEW_SendTaskInfo
 520              		.thumb
 521              		.thumb_func
 523              	SYSVIEW_SendTaskInfo:
 524              	.LFB9:
 189:../../../SystemView/Sample/OS/SEGGER_SYSVIEW_FreeRTOS.c **** 
 190:../../../SystemView/Sample/OS/SEGGER_SYSVIEW_FreeRTOS.c **** /*********************************************************************
 191:../../../SystemView/Sample/OS/SEGGER_SYSVIEW_FreeRTOS.c **** *
 192:../../../SystemView/Sample/OS/SEGGER_SYSVIEW_FreeRTOS.c **** *       SYSVIEW_SendTaskInfo()
 193:../../../SystemView/Sample/OS/SEGGER_SYSVIEW_FreeRTOS.c **** *
 194:../../../SystemView/Sample/OS/SEGGER_SYSVIEW_FreeRTOS.c **** *  Function description
 195:../../../SystemView/Sample/OS/SEGGER_SYSVIEW_FreeRTOS.c **** *    Record task information.
 196:../../../SystemView/Sample/OS/SEGGER_SYSVIEW_FreeRTOS.c **** */
 197:../../../SystemView/Sample/OS/SEGGER_SYSVIEW_FreeRTOS.c **** void SYSVIEW_SendTaskInfo(U32 TaskID, const char* sName, unsigned Prio, U32 StackBase, unsigned Sta
 525              		.loc 1 197 0
 526              		.cfi_startproc
 527              		@ args = 4, pretend = 0, frame = 40
 528              		@ frame_needed = 1, uses_anonymous_args = 0
 529 0000 80B5     		push	{r7, lr}
 530              	.LCFI20:
 531              		.cfi_def_cfa_offset 8
 532              		.cfi_offset 7, -8
 533              		.cfi_offset 14, -4
 534 0002 8AB0     		sub	sp, sp, #40
 535              	.LCFI21:
 536              		.cfi_def_cfa_offset 48
 537 0004 00AF     		add	r7, sp, #0
 538              	.LCFI22:
 539              		.cfi_def_cfa_register 7
 540 0006 F860     		str	r0, [r7, #12]
ARM GAS  /tmp/ccLfVfnf.s 			page 14


 541 0008 B960     		str	r1, [r7, #8]
 542 000a 7A60     		str	r2, [r7, #4]
 543 000c 3B60     		str	r3, [r7]
 198:../../../SystemView/Sample/OS/SEGGER_SYSVIEW_FreeRTOS.c ****   SEGGER_SYSVIEW_TASKINFO TaskInfo;
 199:../../../SystemView/Sample/OS/SEGGER_SYSVIEW_FreeRTOS.c **** 
 200:../../../SystemView/Sample/OS/SEGGER_SYSVIEW_FreeRTOS.c ****   memset(&TaskInfo, 0, sizeof(TaskInfo)); // Fill all elements with 0 to allow extending the struct
 544              		.loc 1 200 0
 545 000e 07F11403 		add	r3, r7, #20
 546 0012 1846     		mov	r0, r3
 547 0014 0021     		movs	r1, #0
 548 0016 1422     		movs	r2, #20
 549 0018 FFF7FEFF 		bl	memset
 201:../../../SystemView/Sample/OS/SEGGER_SYSVIEW_FreeRTOS.c ****   TaskInfo.TaskID     = TaskID;
 550              		.loc 1 201 0
 551 001c FB68     		ldr	r3, [r7, #12]
 552 001e 7B61     		str	r3, [r7, #20]
 202:../../../SystemView/Sample/OS/SEGGER_SYSVIEW_FreeRTOS.c ****   TaskInfo.sName      = sName;
 553              		.loc 1 202 0
 554 0020 BB68     		ldr	r3, [r7, #8]
 555 0022 BB61     		str	r3, [r7, #24]
 203:../../../SystemView/Sample/OS/SEGGER_SYSVIEW_FreeRTOS.c ****   TaskInfo.Prio       = Prio;
 556              		.loc 1 203 0
 557 0024 7B68     		ldr	r3, [r7, #4]
 558 0026 FB61     		str	r3, [r7, #28]
 204:../../../SystemView/Sample/OS/SEGGER_SYSVIEW_FreeRTOS.c ****   TaskInfo.StackBase  = StackBase;
 559              		.loc 1 204 0
 560 0028 3B68     		ldr	r3, [r7]
 561 002a 3B62     		str	r3, [r7, #32]
 205:../../../SystemView/Sample/OS/SEGGER_SYSVIEW_FreeRTOS.c ****   TaskInfo.StackSize  = StackSize;
 562              		.loc 1 205 0
 563 002c 3B6B     		ldr	r3, [r7, #48]
 564 002e 7B62     		str	r3, [r7, #36]
 206:../../../SystemView/Sample/OS/SEGGER_SYSVIEW_FreeRTOS.c ****   SEGGER_SYSVIEW_SendTaskInfo(&TaskInfo);
 565              		.loc 1 206 0
 566 0030 07F11403 		add	r3, r7, #20
 567 0034 1846     		mov	r0, r3
 568 0036 FFF7FEFF 		bl	SEGGER_SYSVIEW_SendTaskInfo
 207:../../../SystemView/Sample/OS/SEGGER_SYSVIEW_FreeRTOS.c **** }
 569              		.loc 1 207 0
 570 003a 2837     		adds	r7, r7, #40
 571              	.LCFI23:
 572              		.cfi_def_cfa_offset 8
 573 003c BD46     		mov	sp, r7
 574              	.LCFI24:
 575              		.cfi_def_cfa_register 13
 576              		@ sp needed
 577 003e 80BD     		pop	{r7, pc}
 578              		.cfi_endproc
 579              	.LFE9:
 581              		.section	.text.SYSVIEW_RecordU32x4,"ax",%progbits
 582              		.align	2
 583              		.global	SYSVIEW_RecordU32x4
 584              		.thumb
 585              		.thumb_func
 587              	SYSVIEW_RecordU32x4:
 588              	.LFB10:
 208:../../../SystemView/Sample/OS/SEGGER_SYSVIEW_FreeRTOS.c **** 
ARM GAS  /tmp/ccLfVfnf.s 			page 15


 209:../../../SystemView/Sample/OS/SEGGER_SYSVIEW_FreeRTOS.c **** /*********************************************************************
 210:../../../SystemView/Sample/OS/SEGGER_SYSVIEW_FreeRTOS.c **** *
 211:../../../SystemView/Sample/OS/SEGGER_SYSVIEW_FreeRTOS.c **** *       SYSVIEW_RecordU32x4()
 212:../../../SystemView/Sample/OS/SEGGER_SYSVIEW_FreeRTOS.c **** *
 213:../../../SystemView/Sample/OS/SEGGER_SYSVIEW_FreeRTOS.c **** *  Function description
 214:../../../SystemView/Sample/OS/SEGGER_SYSVIEW_FreeRTOS.c **** *    Record an event with 4 parameters
 215:../../../SystemView/Sample/OS/SEGGER_SYSVIEW_FreeRTOS.c **** */
 216:../../../SystemView/Sample/OS/SEGGER_SYSVIEW_FreeRTOS.c **** void SYSVIEW_RecordU32x4(unsigned Id, U32 Para0, U32 Para1, U32 Para2, U32 Para3) {
 589              		.loc 1 216 0
 590              		.cfi_startproc
 591              		@ args = 4, pretend = 0, frame = 56
 592              		@ frame_needed = 1, uses_anonymous_args = 0
 593 0000 80B5     		push	{r7, lr}
 594              	.LCFI25:
 595              		.cfi_def_cfa_offset 8
 596              		.cfi_offset 7, -8
 597              		.cfi_offset 14, -4
 598 0002 8EB0     		sub	sp, sp, #56
 599              	.LCFI26:
 600              		.cfi_def_cfa_offset 64
 601 0004 00AF     		add	r7, sp, #0
 602              	.LCFI27:
 603              		.cfi_def_cfa_register 7
 604 0006 F860     		str	r0, [r7, #12]
 605 0008 B960     		str	r1, [r7, #8]
 606 000a 7A60     		str	r2, [r7, #4]
 607 000c 3B60     		str	r3, [r7]
 217:../../../SystemView/Sample/OS/SEGGER_SYSVIEW_FreeRTOS.c ****       U8  aPacket[SEGGER_SYSVIEW_INFO_SIZE + 4 * SEGGER_SYSVIEW_QUANTA_U32];
 218:../../../SystemView/Sample/OS/SEGGER_SYSVIEW_FreeRTOS.c ****       U8* pPayload;
 219:../../../SystemView/Sample/OS/SEGGER_SYSVIEW_FreeRTOS.c ****       //
 220:../../../SystemView/Sample/OS/SEGGER_SYSVIEW_FreeRTOS.c ****       pPayload = SEGGER_SYSVIEW_PREPARE_PACKET(aPacket);                // Prepare the packet for S
 608              		.loc 1 220 0
 609 000e 07F11403 		add	r3, r7, #20
 610 0012 0433     		adds	r3, r3, #4
 611 0014 7B63     		str	r3, [r7, #52]
 221:../../../SystemView/Sample/OS/SEGGER_SYSVIEW_FreeRTOS.c ****       pPayload = SEGGER_SYSVIEW_EncodeU32(pPayload, Para0);             // Add the first parameter 
 612              		.loc 1 221 0
 613 0016 786B     		ldr	r0, [r7, #52]
 614 0018 B968     		ldr	r1, [r7, #8]
 615 001a FFF7FEFF 		bl	SEGGER_SYSVIEW_EncodeU32
 616 001e 7863     		str	r0, [r7, #52]
 222:../../../SystemView/Sample/OS/SEGGER_SYSVIEW_FreeRTOS.c ****       pPayload = SEGGER_SYSVIEW_EncodeU32(pPayload, Para1);             // Add the second parameter
 617              		.loc 1 222 0
 618 0020 786B     		ldr	r0, [r7, #52]
 619 0022 7968     		ldr	r1, [r7, #4]
 620 0024 FFF7FEFF 		bl	SEGGER_SYSVIEW_EncodeU32
 621 0028 7863     		str	r0, [r7, #52]
 223:../../../SystemView/Sample/OS/SEGGER_SYSVIEW_FreeRTOS.c ****       pPayload = SEGGER_SYSVIEW_EncodeU32(pPayload, Para2);             // Add the third parameter 
 622              		.loc 1 223 0
 623 002a 786B     		ldr	r0, [r7, #52]
 624 002c 3968     		ldr	r1, [r7]
 625 002e FFF7FEFF 		bl	SEGGER_SYSVIEW_EncodeU32
 626 0032 7863     		str	r0, [r7, #52]
 224:../../../SystemView/Sample/OS/SEGGER_SYSVIEW_FreeRTOS.c ****       pPayload = SEGGER_SYSVIEW_EncodeU32(pPayload, Para3);             // Add the fourth parameter
 627              		.loc 1 224 0
 628 0034 786B     		ldr	r0, [r7, #52]
 629 0036 396C     		ldr	r1, [r7, #64]
ARM GAS  /tmp/ccLfVfnf.s 			page 16


 630 0038 FFF7FEFF 		bl	SEGGER_SYSVIEW_EncodeU32
 631 003c 7863     		str	r0, [r7, #52]
 225:../../../SystemView/Sample/OS/SEGGER_SYSVIEW_FreeRTOS.c ****       //
 226:../../../SystemView/Sample/OS/SEGGER_SYSVIEW_FreeRTOS.c ****       SEGGER_SYSVIEW_SendPacket(&aPacket[0], pPayload, Id);             // Send the packet
 632              		.loc 1 226 0
 633 003e 07F11403 		add	r3, r7, #20
 634 0042 1846     		mov	r0, r3
 635 0044 796B     		ldr	r1, [r7, #52]
 636 0046 FA68     		ldr	r2, [r7, #12]
 637 0048 FFF7FEFF 		bl	SEGGER_SYSVIEW_SendPacket
 227:../../../SystemView/Sample/OS/SEGGER_SYSVIEW_FreeRTOS.c **** }
 638              		.loc 1 227 0
 639 004c 3837     		adds	r7, r7, #56
 640              	.LCFI28:
 641              		.cfi_def_cfa_offset 8
 642 004e BD46     		mov	sp, r7
 643              	.LCFI29:
 644              		.cfi_def_cfa_register 13
 645              		@ sp needed
 646 0050 80BD     		pop	{r7, pc}
 647              		.cfi_endproc
 648              	.LFE10:
 650 0052 00BF     		.section	.text.SYSVIEW_RecordU32x5,"ax",%progbits
 651              		.align	2
 652              		.global	SYSVIEW_RecordU32x5
 653              		.thumb
 654              		.thumb_func
 656              	SYSVIEW_RecordU32x5:
 657              	.LFB11:
 228:../../../SystemView/Sample/OS/SEGGER_SYSVIEW_FreeRTOS.c **** 
 229:../../../SystemView/Sample/OS/SEGGER_SYSVIEW_FreeRTOS.c **** /*********************************************************************
 230:../../../SystemView/Sample/OS/SEGGER_SYSVIEW_FreeRTOS.c **** *
 231:../../../SystemView/Sample/OS/SEGGER_SYSVIEW_FreeRTOS.c **** *       SYSVIEW_RecordU32x5()
 232:../../../SystemView/Sample/OS/SEGGER_SYSVIEW_FreeRTOS.c **** *
 233:../../../SystemView/Sample/OS/SEGGER_SYSVIEW_FreeRTOS.c **** *  Function description
 234:../../../SystemView/Sample/OS/SEGGER_SYSVIEW_FreeRTOS.c **** *    Record an event with 5 parameters
 235:../../../SystemView/Sample/OS/SEGGER_SYSVIEW_FreeRTOS.c **** */
 236:../../../SystemView/Sample/OS/SEGGER_SYSVIEW_FreeRTOS.c **** void SYSVIEW_RecordU32x5(unsigned Id, U32 Para0, U32 Para1, U32 Para2, U32 Para3, U32 Para4) {
 658              		.loc 1 236 0
 659              		.cfi_startproc
 660              		@ args = 8, pretend = 0, frame = 56
 661              		@ frame_needed = 1, uses_anonymous_args = 0
 662 0000 80B5     		push	{r7, lr}
 663              	.LCFI30:
 664              		.cfi_def_cfa_offset 8
 665              		.cfi_offset 7, -8
 666              		.cfi_offset 14, -4
 667 0002 8EB0     		sub	sp, sp, #56
 668              	.LCFI31:
 669              		.cfi_def_cfa_offset 64
 670 0004 00AF     		add	r7, sp, #0
 671              	.LCFI32:
 672              		.cfi_def_cfa_register 7
 673 0006 F860     		str	r0, [r7, #12]
 674 0008 B960     		str	r1, [r7, #8]
 675 000a 7A60     		str	r2, [r7, #4]
 676 000c 3B60     		str	r3, [r7]
ARM GAS  /tmp/ccLfVfnf.s 			page 17


 237:../../../SystemView/Sample/OS/SEGGER_SYSVIEW_FreeRTOS.c ****       U8  aPacket[SEGGER_SYSVIEW_INFO_SIZE + 5 * SEGGER_SYSVIEW_QUANTA_U32];
 238:../../../SystemView/Sample/OS/SEGGER_SYSVIEW_FreeRTOS.c ****       U8* pPayload;
 239:../../../SystemView/Sample/OS/SEGGER_SYSVIEW_FreeRTOS.c ****       //
 240:../../../SystemView/Sample/OS/SEGGER_SYSVIEW_FreeRTOS.c ****       pPayload = SEGGER_SYSVIEW_PREPARE_PACKET(aPacket);                // Prepare the packet for S
 677              		.loc 1 240 0
 678 000e 07F11003 		add	r3, r7, #16
 679 0012 0433     		adds	r3, r3, #4
 680 0014 7B63     		str	r3, [r7, #52]
 241:../../../SystemView/Sample/OS/SEGGER_SYSVIEW_FreeRTOS.c ****       pPayload = SEGGER_SYSVIEW_EncodeU32(pPayload, Para0);             // Add the first parameter 
 681              		.loc 1 241 0
 682 0016 786B     		ldr	r0, [r7, #52]
 683 0018 B968     		ldr	r1, [r7, #8]
 684 001a FFF7FEFF 		bl	SEGGER_SYSVIEW_EncodeU32
 685 001e 7863     		str	r0, [r7, #52]
 242:../../../SystemView/Sample/OS/SEGGER_SYSVIEW_FreeRTOS.c ****       pPayload = SEGGER_SYSVIEW_EncodeU32(pPayload, Para1);             // Add the second parameter
 686              		.loc 1 242 0
 687 0020 786B     		ldr	r0, [r7, #52]
 688 0022 7968     		ldr	r1, [r7, #4]
 689 0024 FFF7FEFF 		bl	SEGGER_SYSVIEW_EncodeU32
 690 0028 7863     		str	r0, [r7, #52]
 243:../../../SystemView/Sample/OS/SEGGER_SYSVIEW_FreeRTOS.c ****       pPayload = SEGGER_SYSVIEW_EncodeU32(pPayload, Para2);             // Add the third parameter 
 691              		.loc 1 243 0
 692 002a 786B     		ldr	r0, [r7, #52]
 693 002c 3968     		ldr	r1, [r7]
 694 002e FFF7FEFF 		bl	SEGGER_SYSVIEW_EncodeU32
 695 0032 7863     		str	r0, [r7, #52]
 244:../../../SystemView/Sample/OS/SEGGER_SYSVIEW_FreeRTOS.c ****       pPayload = SEGGER_SYSVIEW_EncodeU32(pPayload, Para3);             // Add the fourth parameter
 696              		.loc 1 244 0
 697 0034 786B     		ldr	r0, [r7, #52]
 698 0036 396C     		ldr	r1, [r7, #64]
 699 0038 FFF7FEFF 		bl	SEGGER_SYSVIEW_EncodeU32
 700 003c 7863     		str	r0, [r7, #52]
 245:../../../SystemView/Sample/OS/SEGGER_SYSVIEW_FreeRTOS.c ****       pPayload = SEGGER_SYSVIEW_EncodeU32(pPayload, Para4);             // Add the fifth parameter 
 701              		.loc 1 245 0
 702 003e 786B     		ldr	r0, [r7, #52]
 703 0040 796C     		ldr	r1, [r7, #68]
 704 0042 FFF7FEFF 		bl	SEGGER_SYSVIEW_EncodeU32
 705 0046 7863     		str	r0, [r7, #52]
 246:../../../SystemView/Sample/OS/SEGGER_SYSVIEW_FreeRTOS.c ****       //
 247:../../../SystemView/Sample/OS/SEGGER_SYSVIEW_FreeRTOS.c ****       SEGGER_SYSVIEW_SendPacket(&aPacket[0], pPayload, Id);             // Send the packet
 706              		.loc 1 247 0
 707 0048 07F11003 		add	r3, r7, #16
 708 004c 1846     		mov	r0, r3
 709 004e 796B     		ldr	r1, [r7, #52]
 710 0050 FA68     		ldr	r2, [r7, #12]
 711 0052 FFF7FEFF 		bl	SEGGER_SYSVIEW_SendPacket
 248:../../../SystemView/Sample/OS/SEGGER_SYSVIEW_FreeRTOS.c **** }
 712              		.loc 1 248 0
 713 0056 3837     		adds	r7, r7, #56
 714              	.LCFI33:
 715              		.cfi_def_cfa_offset 8
 716 0058 BD46     		mov	sp, r7
 717              	.LCFI34:
 718              		.cfi_def_cfa_register 13
 719              		@ sp needed
 720 005a 80BD     		pop	{r7, pc}
 721              		.cfi_endproc
ARM GAS  /tmp/ccLfVfnf.s 			page 18


 722              	.LFE11:
 724              		.global	SYSVIEW_X_OS_TraceAPI
 725              		.section	.rodata.SYSVIEW_X_OS_TraceAPI,"a",%progbits
 726              		.align	2
 729              	SYSVIEW_X_OS_TraceAPI:
 730 0000 00000000 		.word	_cbGetTime
 731 0004 00000000 		.word	_cbSendTaskList
 732              		.text
 733              	.Letext0:
 734              		.file 2 "/usr/arm-none-eabi/include/machine/_default_types.h"
 735              		.file 3 "/usr/arm-none-eabi/include/sys/_stdint.h"
 736              		.file 4 "../../../SystemView/SEGGER/SEGGER_SYSVIEW.h"
 737              		.file 5 "../../../FreeRTOS_9_0/Source/portable/GCC/ARM_CM4F/portmacro.h"
ARM GAS  /tmp/ccLfVfnf.s 			page 19

