ARM GAS  /tmp/ccJhHFds.s 			page 1


   1              		.syntax unified
   2              		.cpu cortex-m7
   3              		.eabi_attribute 27, 1
   4              		.eabi_attribute 28, 1
   5              		.fpu fpv5-sp-d16
   6              		.eabi_attribute 20, 1
   7              		.eabi_attribute 21, 1
   8              		.eabi_attribute 23, 3
   9              		.eabi_attribute 24, 1
  10              		.eabi_attribute 25, 1
  11              		.eabi_attribute 26, 1
  12              		.eabi_attribute 30, 6
  13              		.eabi_attribute 34, 1
  14              		.eabi_attribute 18, 4
  15              		.thumb
  16              		.file	"SEGGER_SYSVIEW.c"
  17              		.text
  18              	.Ltext0:
  19              		.cfi_sections	.debug_frame
  20              		.section	.rodata._abSync,"a",%progbits
  21              		.align	2
  24              	_abSync:
  25 0000 00000000 		.space	10
  25      00000000 
  25      0000
  26              		.section	.bss._UpBuffer,"aw",%nobits
  27              		.align	2
  30              	_UpBuffer:
  31 0000 00000000 		.space	1024
  31      00000000 
  31      00000000 
  31      00000000 
  31      00000000 
  32              		.section	.bss._DownBuffer,"aw",%nobits
  33              		.align	2
  36              	_DownBuffer:
  37 0000 00000000 		.space	8
  37      00000000 
  38              		.section	.bss._SYSVIEW_Globals,"aw",%nobits
  39              		.align	2
  42              	_SYSVIEW_Globals:
  43 0000 00000000 		.space	40
  43      00000000 
  43      00000000 
  43      00000000 
  43      00000000 
  44              		.section	.bss._pFirstModule,"aw",%nobits
  45              		.align	2
  48              	_pFirstModule:
  49 0000 00000000 		.space	4
  50              		.section	.bss._NumModules,"aw",%nobits
  53              	_NumModules:
  54 0000 00       		.space	1
  55              		.section	.bss._aPacket,"aw",%nobits
  56              		.align	2
  59              	_aPacket:
  60 0000 00000000 		.space	227
ARM GAS  /tmp/ccJhHFds.s 			page 2


  60      00000000 
  60      00000000 
  60      00000000 
  60      00000000 
  61              		.section	.text._EncodeData,"ax",%progbits
  62              		.align	2
  63              		.thumb
  64              		.thumb_func
  66              	_EncodeData:
  67              	.LFB0:
  68              		.file 1 "../../../SystemView/SEGGER/SEGGER_SYSVIEW.c"
   1:../../../SystemView/SEGGER/SEGGER_SYSVIEW.c **** /*********************************************************************
   2:../../../SystemView/SEGGER/SEGGER_SYSVIEW.c **** *                SEGGER Microcontroller GmbH & Co. KG                *
   3:../../../SystemView/SEGGER/SEGGER_SYSVIEW.c **** *                        The Embedded Experts                        *
   4:../../../SystemView/SEGGER/SEGGER_SYSVIEW.c **** **********************************************************************
   5:../../../SystemView/SEGGER/SEGGER_SYSVIEW.c **** *                                                                    *
   6:../../../SystemView/SEGGER/SEGGER_SYSVIEW.c **** *       (c) 2015 - 2017  SEGGER Microcontroller GmbH & Co. KG        *
   7:../../../SystemView/SEGGER/SEGGER_SYSVIEW.c **** *                                                                    *
   8:../../../SystemView/SEGGER/SEGGER_SYSVIEW.c **** *       www.segger.com     Support: support@segger.com               *
   9:../../../SystemView/SEGGER/SEGGER_SYSVIEW.c **** *                                                                    *
  10:../../../SystemView/SEGGER/SEGGER_SYSVIEW.c **** **********************************************************************
  11:../../../SystemView/SEGGER/SEGGER_SYSVIEW.c **** *                                                                    *
  12:../../../SystemView/SEGGER/SEGGER_SYSVIEW.c **** *       SEGGER SystemView * Real-time application analysis           *
  13:../../../SystemView/SEGGER/SEGGER_SYSVIEW.c **** *                                                                    *
  14:../../../SystemView/SEGGER/SEGGER_SYSVIEW.c **** **********************************************************************
  15:../../../SystemView/SEGGER/SEGGER_SYSVIEW.c **** *                                                                    *
  16:../../../SystemView/SEGGER/SEGGER_SYSVIEW.c **** * All rights reserved.                                               *
  17:../../../SystemView/SEGGER/SEGGER_SYSVIEW.c **** *                                                                    *
  18:../../../SystemView/SEGGER/SEGGER_SYSVIEW.c **** * SEGGER strongly recommends to not make any changes                 *
  19:../../../SystemView/SEGGER/SEGGER_SYSVIEW.c **** * to or modify the source code of this software in order to stay     *
  20:../../../SystemView/SEGGER/SEGGER_SYSVIEW.c **** * compatible with the RTT protocol and J-Link.                       *
  21:../../../SystemView/SEGGER/SEGGER_SYSVIEW.c **** *                                                                    *
  22:../../../SystemView/SEGGER/SEGGER_SYSVIEW.c **** * Redistribution and use in source and binary forms, with or         *
  23:../../../SystemView/SEGGER/SEGGER_SYSVIEW.c **** * without modification, are permitted provided that the following    *
  24:../../../SystemView/SEGGER/SEGGER_SYSVIEW.c **** * conditions are met:                                                *
  25:../../../SystemView/SEGGER/SEGGER_SYSVIEW.c **** *                                                                    *
  26:../../../SystemView/SEGGER/SEGGER_SYSVIEW.c **** * o Redistributions of source code must retain the above copyright   *
  27:../../../SystemView/SEGGER/SEGGER_SYSVIEW.c **** *   notice, this list of conditions and the following disclaimer.    *
  28:../../../SystemView/SEGGER/SEGGER_SYSVIEW.c **** *                                                                    *
  29:../../../SystemView/SEGGER/SEGGER_SYSVIEW.c **** * o Redistributions in binary form must reproduce the above          *
  30:../../../SystemView/SEGGER/SEGGER_SYSVIEW.c **** *   copyright notice, this list of conditions and the following      *
  31:../../../SystemView/SEGGER/SEGGER_SYSVIEW.c **** *   disclaimer in the documentation and/or other materials provided  *
  32:../../../SystemView/SEGGER/SEGGER_SYSVIEW.c **** *   with the distribution.                                           *
  33:../../../SystemView/SEGGER/SEGGER_SYSVIEW.c **** *                                                                    *
  34:../../../SystemView/SEGGER/SEGGER_SYSVIEW.c **** * o Neither the name of SEGGER Microcontroller GmbH & Co. KG         *
  35:../../../SystemView/SEGGER/SEGGER_SYSVIEW.c **** *   nor the names of its contributors may be used to endorse or      *
  36:../../../SystemView/SEGGER/SEGGER_SYSVIEW.c **** *   promote products derived from this software without specific     *
  37:../../../SystemView/SEGGER/SEGGER_SYSVIEW.c **** *   prior written permission.                                        *
  38:../../../SystemView/SEGGER/SEGGER_SYSVIEW.c **** *                                                                    *
  39:../../../SystemView/SEGGER/SEGGER_SYSVIEW.c **** * THIS SOFTWARE IS PROVIDED BY THE COPYRIGHT HOLDERS AND             *
  40:../../../SystemView/SEGGER/SEGGER_SYSVIEW.c **** * CONTRIBUTORS "AS IS" AND ANY EXPRESS OR IMPLIED WARRANTIES,        *
  41:../../../SystemView/SEGGER/SEGGER_SYSVIEW.c **** * INCLUDING, BUT NOT LIMITED TO, THE IMPLIED WARRANTIES OF           *
  42:../../../SystemView/SEGGER/SEGGER_SYSVIEW.c **** * MERCHANTABILITY AND FITNESS FOR A PARTICULAR PURPOSE ARE           *
  43:../../../SystemView/SEGGER/SEGGER_SYSVIEW.c **** * DISCLAIMED. IN NO EVENT SHALL SEGGER Microcontroller BE LIABLE FOR *
  44:../../../SystemView/SEGGER/SEGGER_SYSVIEW.c **** * ANY DIRECT, INDIRECT, INCIDENTAL, SPECIAL, EXEMPLARY, OR           *
  45:../../../SystemView/SEGGER/SEGGER_SYSVIEW.c **** * CONSEQUENTIAL DAMAGES (INCLUDING, BUT NOT LIMITED TO, PROCUREMENT  *
  46:../../../SystemView/SEGGER/SEGGER_SYSVIEW.c **** * OF SUBSTITUTE GOODS OR SERVICES; LOSS OF USE, DATA, OR PROFITS;    *
ARM GAS  /tmp/ccJhHFds.s 			page 3


  47:../../../SystemView/SEGGER/SEGGER_SYSVIEW.c **** * OR BUSINESS INTERRUPTION) HOWEVER CAUSED AND ON ANY THEORY OF      *
  48:../../../SystemView/SEGGER/SEGGER_SYSVIEW.c **** * LIABILITY, WHETHER IN CONTRACT, STRICT LIABILITY, OR TORT          *
  49:../../../SystemView/SEGGER/SEGGER_SYSVIEW.c **** * (INCLUDING NEGLIGENCE OR OTHERWISE) ARISING IN ANY WAY OUT OF THE  *
  50:../../../SystemView/SEGGER/SEGGER_SYSVIEW.c **** * USE OF THIS SOFTWARE, EVEN IF ADVISED OF THE POSSIBILITY OF SUCH   *
  51:../../../SystemView/SEGGER/SEGGER_SYSVIEW.c **** * DAMAGE.                                                            *
  52:../../../SystemView/SEGGER/SEGGER_SYSVIEW.c **** *                                                                    *
  53:../../../SystemView/SEGGER/SEGGER_SYSVIEW.c **** **********************************************************************
  54:../../../SystemView/SEGGER/SEGGER_SYSVIEW.c **** *                                                                    *
  55:../../../SystemView/SEGGER/SEGGER_SYSVIEW.c **** *       SystemView version: V2.50                                    *
  56:../../../SystemView/SEGGER/SEGGER_SYSVIEW.c **** *                                                                    *
  57:../../../SystemView/SEGGER/SEGGER_SYSVIEW.c **** **********************************************************************
  58:../../../SystemView/SEGGER/SEGGER_SYSVIEW.c **** -------------------------- END-OF-HEADER -----------------------------
  59:../../../SystemView/SEGGER/SEGGER_SYSVIEW.c **** 
  60:../../../SystemView/SEGGER/SEGGER_SYSVIEW.c **** File    : SEGGER_SYSVIEW.c
  61:../../../SystemView/SEGGER/SEGGER_SYSVIEW.c **** Purpose : System visualization API implementation.
  62:../../../SystemView/SEGGER/SEGGER_SYSVIEW.c **** Revision: $Rev: 6414 $
  63:../../../SystemView/SEGGER/SEGGER_SYSVIEW.c **** 
  64:../../../SystemView/SEGGER/SEGGER_SYSVIEW.c **** Additional information:
  65:../../../SystemView/SEGGER/SEGGER_SYSVIEW.c ****   Packet format:
  66:../../../SystemView/SEGGER/SEGGER_SYSVIEW.c ****     Packets with IDs 0..23 are standard packets with known structure.
  67:../../../SystemView/SEGGER/SEGGER_SYSVIEW.c ****     For efficiency, they do *NOT* contain a length field.
  68:../../../SystemView/SEGGER/SEGGER_SYSVIEW.c ****     <ID><Data><TimeStampDelta>
  69:../../../SystemView/SEGGER/SEGGER_SYSVIEW.c **** 
  70:../../../SystemView/SEGGER/SEGGER_SYSVIEW.c ****     Packets with IDs 24..31 are standard packets with extendible
  71:../../../SystemView/SEGGER/SEGGER_SYSVIEW.c ****     structure and contain a length field.
  72:../../../SystemView/SEGGER/SEGGER_SYSVIEW.c ****     <ID><Lenght><Data><TimeStampDelta>
  73:../../../SystemView/SEGGER/SEGGER_SYSVIEW.c **** 
  74:../../../SystemView/SEGGER/SEGGER_SYSVIEW.c ****     Packets with IDs >= 32 always contain a length field.
  75:../../../SystemView/SEGGER/SEGGER_SYSVIEW.c ****     <ID><Length><Data><TimeStampDelta>
  76:../../../SystemView/SEGGER/SEGGER_SYSVIEW.c **** 
  77:../../../SystemView/SEGGER/SEGGER_SYSVIEW.c ****   Packet IDs:
  78:../../../SystemView/SEGGER/SEGGER_SYSVIEW.c ****        0..  31 : Standard packets, known by SystemViewer.
  79:../../../SystemView/SEGGER/SEGGER_SYSVIEW.c ****       32..1023 : OS-definable packets, described in a SystemView description file.
  80:../../../SystemView/SEGGER/SEGGER_SYSVIEW.c ****     1024..2047 : User-definable packets, described in a SystemView description file.
  81:../../../SystemView/SEGGER/SEGGER_SYSVIEW.c ****     2048..32767: Undefined.
  82:../../../SystemView/SEGGER/SEGGER_SYSVIEW.c **** 
  83:../../../SystemView/SEGGER/SEGGER_SYSVIEW.c ****   Data encoding:
  84:../../../SystemView/SEGGER/SEGGER_SYSVIEW.c ****     Basic types (int, short, char, ...):
  85:../../../SystemView/SEGGER/SEGGER_SYSVIEW.c ****       Basic types are encoded little endian with most-significant bit variant
  86:../../../SystemView/SEGGER/SEGGER_SYSVIEW.c ****       encoding.
  87:../../../SystemView/SEGGER/SEGGER_SYSVIEW.c ****       Each encoded byte contains 7 data bits [6:0] and the MSB continuation bit.
  88:../../../SystemView/SEGGER/SEGGER_SYSVIEW.c ****       The continuation bit indicates whether the next byte belongs to the data
  89:../../../SystemView/SEGGER/SEGGER_SYSVIEW.c ****       (bit set) or this is the last byte (bit clear).
  90:../../../SystemView/SEGGER/SEGGER_SYSVIEW.c ****       The most significant bits of data are encoded first, proceeding to the
  91:../../../SystemView/SEGGER/SEGGER_SYSVIEW.c ****       least significant bits in the final byte (little endian).
  92:../../../SystemView/SEGGER/SEGGER_SYSVIEW.c **** 
  93:../../../SystemView/SEGGER/SEGGER_SYSVIEW.c ****       Example encoding:
  94:../../../SystemView/SEGGER/SEGGER_SYSVIEW.c ****         Data: 0x1F4 (500)
  95:../../../SystemView/SEGGER/SEGGER_SYSVIEW.c ****         Encoded: 0xF4 (First 7 data bits 74 | Continuation bit)
  96:../../../SystemView/SEGGER/SEGGER_SYSVIEW.c ****                  0x03 (Second 7 data bits 03, no continuation)
  97:../../../SystemView/SEGGER/SEGGER_SYSVIEW.c **** 
  98:../../../SystemView/SEGGER/SEGGER_SYSVIEW.c ****         Data: 0xFFFFFFFF
  99:../../../SystemView/SEGGER/SEGGER_SYSVIEW.c ****         Encoded: 0xFF 0xFF 0xFF 0xFF 0x0F
 100:../../../SystemView/SEGGER/SEGGER_SYSVIEW.c **** 
 101:../../../SystemView/SEGGER/SEGGER_SYSVIEW.c ****         Data: 0xA2 (162),   0x03 (3), 0x7000
 102:../../../SystemView/SEGGER/SEGGER_SYSVIEW.c ****         Encoded: 0xA2 0x01  0x03      0x80 0xE0 0x01
 103:../../../SystemView/SEGGER/SEGGER_SYSVIEW.c **** 
ARM GAS  /tmp/ccJhHFds.s 			page 4


 104:../../../SystemView/SEGGER/SEGGER_SYSVIEW.c ****     Byte arrays and strings:
 105:../../../SystemView/SEGGER/SEGGER_SYSVIEW.c ****       Byte arrays and strings are encoded as <NumBytes> followed by the raw data.
 106:../../../SystemView/SEGGER/SEGGER_SYSVIEW.c ****       NumBytes is encoded as a basic type with a theoretical maximum of 4G.
 107:../../../SystemView/SEGGER/SEGGER_SYSVIEW.c **** 
 108:../../../SystemView/SEGGER/SEGGER_SYSVIEW.c ****       Example encoding:
 109:../../../SystemView/SEGGER/SEGGER_SYSVIEW.c ****         Data: "Hello World\0" (0x48 0x65 0x6C 0x6C 0x6F 0x20 0x57 0x6F 0x72 0x6C 0x64 0x00)
 110:../../../SystemView/SEGGER/SEGGER_SYSVIEW.c ****         Encoded: 0x0B 0x48 0x65 0x6C 0x6C 0x6F 0x20 0x57 0x6F 0x72 0x6C 0x64
 111:../../../SystemView/SEGGER/SEGGER_SYSVIEW.c **** 
 112:../../../SystemView/SEGGER/SEGGER_SYSVIEW.c ****   Examples packets:
 113:../../../SystemView/SEGGER/SEGGER_SYSVIEW.c ****   01 F4 03 80 80 10 // Overflow packet. Data is a single U32.
 114:../../../SystemView/SEGGER/SEGGER_SYSVIEW.c ****                        This packet means: 500 packets lost, Timestamp is 0x40000
 115:../../../SystemView/SEGGER/SEGGER_SYSVIEW.c **** 
 116:../../../SystemView/SEGGER/SEGGER_SYSVIEW.c ****   02 0F 50          // ISR(15) Enter. Timestamp 80 (0x50)
 117:../../../SystemView/SEGGER/SEGGER_SYSVIEW.c **** 
 118:../../../SystemView/SEGGER/SEGGER_SYSVIEW.c ****   03 20             // ISR Exit. Timestamp 32 (0x20) (Shortest possible packet.)
 119:../../../SystemView/SEGGER/SEGGER_SYSVIEW.c **** 
 120:../../../SystemView/SEGGER/SEGGER_SYSVIEW.c ****   Sample code for user defined Packets:
 121:../../../SystemView/SEGGER/SEGGER_SYSVIEW.c ****     #define MY_ID   0x400                // Any value between 0x400 and 0x7FF
 122:../../../SystemView/SEGGER/SEGGER_SYSVIEW.c ****     void SendMyPacket(unsigned Para0, unsigned Para1, const char* s) {
 123:../../../SystemView/SEGGER/SEGGER_SYSVIEW.c ****       U8  aPacket[SEGGER_SYSVIEW_INFO_SIZE + 2 * SEGGER_SYSVIEW_QUANTA_U32 + MAX_STR_LEN + 1];
 124:../../../SystemView/SEGGER/SEGGER_SYSVIEW.c ****       U8* pPayload;
 125:../../../SystemView/SEGGER/SEGGER_SYSVIEW.c ****       //
 126:../../../SystemView/SEGGER/SEGGER_SYSVIEW.c ****       pPayload = SEGGER_SYSVIEW_PPREPARE_PACKET(aPacket);               // Prepare the packet for S
 127:../../../SystemView/SEGGER/SEGGER_SYSVIEW.c ****       pPayload = SEGGER_SYSVIEW_EncodeU32(pPayload, Para0);             // Add the first parameter 
 128:../../../SystemView/SEGGER/SEGGER_SYSVIEW.c ****       pPayload = SEGGER_SYSVIEW_EncodeU32(pPayload, Para1);             // Add the second parameter
 129:../../../SystemView/SEGGER/SEGGER_SYSVIEW.c ****       pPayload = SEGGER_SYSVIEW_EncodeString(pPayload, s, MAX_STR_LEN); // Add the string to the pa
 130:../../../SystemView/SEGGER/SEGGER_SYSVIEW.c ****       //
 131:../../../SystemView/SEGGER/SEGGER_SYSVIEW.c ****       SEGGER_SYSVIEW_SendPacket(&aPacket[0], pPayload, MY_ID);          // Send the packet with Eve
 132:../../../SystemView/SEGGER/SEGGER_SYSVIEW.c ****     }
 133:../../../SystemView/SEGGER/SEGGER_SYSVIEW.c **** 
 134:../../../SystemView/SEGGER/SEGGER_SYSVIEW.c ****     #define MY_ID_1 0x401
 135:../../../SystemView/SEGGER/SEGGER_SYSVIEW.c ****     void SendOnePara(unsigned Para0) {
 136:../../../SystemView/SEGGER/SEGGER_SYSVIEW.c ****       SEGGER_SYSVIEW_RecordU32(MY_ID_1, Para0);
 137:../../../SystemView/SEGGER/SEGGER_SYSVIEW.c ****     }
 138:../../../SystemView/SEGGER/SEGGER_SYSVIEW.c **** 
 139:../../../SystemView/SEGGER/SEGGER_SYSVIEW.c **** */
 140:../../../SystemView/SEGGER/SEGGER_SYSVIEW.c **** 
 141:../../../SystemView/SEGGER/SEGGER_SYSVIEW.c **** /*********************************************************************
 142:../../../SystemView/SEGGER/SEGGER_SYSVIEW.c **** *
 143:../../../SystemView/SEGGER/SEGGER_SYSVIEW.c **** *       #include section
 144:../../../SystemView/SEGGER/SEGGER_SYSVIEW.c **** *
 145:../../../SystemView/SEGGER/SEGGER_SYSVIEW.c **** **********************************************************************
 146:../../../SystemView/SEGGER/SEGGER_SYSVIEW.c **** */
 147:../../../SystemView/SEGGER/SEGGER_SYSVIEW.c **** 
 148:../../../SystemView/SEGGER/SEGGER_SYSVIEW.c **** #include "SEGGER_SYSVIEW_Int.h"
 149:../../../SystemView/SEGGER/SEGGER_SYSVIEW.c **** #include "SEGGER_RTT.h"
 150:../../../SystemView/SEGGER/SEGGER_SYSVIEW.c **** #include <string.h>
 151:../../../SystemView/SEGGER/SEGGER_SYSVIEW.c **** #include <stdlib.h>
 152:../../../SystemView/SEGGER/SEGGER_SYSVIEW.c **** #include <stdarg.h>
 153:../../../SystemView/SEGGER/SEGGER_SYSVIEW.c **** 
 154:../../../SystemView/SEGGER/SEGGER_SYSVIEW.c **** /*********************************************************************
 155:../../../SystemView/SEGGER/SEGGER_SYSVIEW.c **** *
 156:../../../SystemView/SEGGER/SEGGER_SYSVIEW.c **** *       Defines, fixed
 157:../../../SystemView/SEGGER/SEGGER_SYSVIEW.c **** *
 158:../../../SystemView/SEGGER/SEGGER_SYSVIEW.c **** **********************************************************************
 159:../../../SystemView/SEGGER/SEGGER_SYSVIEW.c **** */
 160:../../../SystemView/SEGGER/SEGGER_SYSVIEW.c **** #if SEGGER_SYSVIEW_ID_SHIFT
ARM GAS  /tmp/ccJhHFds.s 			page 5


 161:../../../SystemView/SEGGER/SEGGER_SYSVIEW.c ****   #define SHRINK_ID(Id)   (((Id) - _SYSVIEW_Globals.RAMBaseAddress) >> SEGGER_SYSVIEW_ID_SHIFT)
 162:../../../SystemView/SEGGER/SEGGER_SYSVIEW.c **** #else
 163:../../../SystemView/SEGGER/SEGGER_SYSVIEW.c ****   #define SHRINK_ID(Id)   ((Id) - _SYSVIEW_Globals.RAMBaseAddress)
 164:../../../SystemView/SEGGER/SEGGER_SYSVIEW.c **** #endif
 165:../../../SystemView/SEGGER/SEGGER_SYSVIEW.c **** 
 166:../../../SystemView/SEGGER/SEGGER_SYSVIEW.c **** #if SEGGER_SYSVIEW_RTT_CHANNEL > 0
 167:../../../SystemView/SEGGER/SEGGER_SYSVIEW.c ****   #define CHANNEL_ID_UP   SEGGER_SYSVIEW_RTT_CHANNEL
 168:../../../SystemView/SEGGER/SEGGER_SYSVIEW.c ****   #define CHANNEL_ID_DOWN SEGGER_SYSVIEW_RTT_CHANNEL
 169:../../../SystemView/SEGGER/SEGGER_SYSVIEW.c **** #else
 170:../../../SystemView/SEGGER/SEGGER_SYSVIEW.c ****   #define CHANNEL_ID_UP   _SYSVIEW_Globals.UpChannel
 171:../../../SystemView/SEGGER/SEGGER_SYSVIEW.c ****   #define CHANNEL_ID_DOWN _SYSVIEW_Globals.DownChannel
 172:../../../SystemView/SEGGER/SEGGER_SYSVIEW.c **** #endif
 173:../../../SystemView/SEGGER/SEGGER_SYSVIEW.c **** 
 174:../../../SystemView/SEGGER/SEGGER_SYSVIEW.c **** /*********************************************************************
 175:../../../SystemView/SEGGER/SEGGER_SYSVIEW.c **** *
 176:../../../SystemView/SEGGER/SEGGER_SYSVIEW.c **** *       Defines, configurable
 177:../../../SystemView/SEGGER/SEGGER_SYSVIEW.c **** *
 178:../../../SystemView/SEGGER/SEGGER_SYSVIEW.c **** **********************************************************************
 179:../../../SystemView/SEGGER/SEGGER_SYSVIEW.c **** */
 180:../../../SystemView/SEGGER/SEGGER_SYSVIEW.c **** // Timestamps may be less than full 32-bits, in which case we need to zero
 181:../../../SystemView/SEGGER/SEGGER_SYSVIEW.c **** // the unused bits to properly handle overflows.
 182:../../../SystemView/SEGGER/SEGGER_SYSVIEW.c **** // Note that this is a quite common scenario, as a 32-bit time such as
 183:../../../SystemView/SEGGER/SEGGER_SYSVIEW.c **** // SysTick might be scaled down to reduce bandwith
 184:../../../SystemView/SEGGER/SEGGER_SYSVIEW.c **** // or a 16-bit hardware time might be used.
 185:../../../SystemView/SEGGER/SEGGER_SYSVIEW.c **** #if SEGGER_SYSVIEW_TIMESTAMP_BITS < 32  // Eliminate unused bits in case hardware timestamps are le
 186:../../../SystemView/SEGGER/SEGGER_SYSVIEW.c ****   #define MAKE_DELTA_32BIT(Delta) Delta <<= 32 - SEGGER_SYSVIEW_TIMESTAMP_BITS; \
 187:../../../SystemView/SEGGER/SEGGER_SYSVIEW.c ****                                   Delta >>= 32 - SEGGER_SYSVIEW_TIMESTAMP_BITS;
 188:../../../SystemView/SEGGER/SEGGER_SYSVIEW.c **** #else
 189:../../../SystemView/SEGGER/SEGGER_SYSVIEW.c ****   #define MAKE_DELTA_32BIT(Delta)
 190:../../../SystemView/SEGGER/SEGGER_SYSVIEW.c **** #endif
 191:../../../SystemView/SEGGER/SEGGER_SYSVIEW.c **** 
 192:../../../SystemView/SEGGER/SEGGER_SYSVIEW.c **** 
 193:../../../SystemView/SEGGER/SEGGER_SYSVIEW.c **** /*********************************************************************
 194:../../../SystemView/SEGGER/SEGGER_SYSVIEW.c **** *
 195:../../../SystemView/SEGGER/SEGGER_SYSVIEW.c **** *       Defines, fixed
 196:../../../SystemView/SEGGER/SEGGER_SYSVIEW.c **** *
 197:../../../SystemView/SEGGER/SEGGER_SYSVIEW.c **** **********************************************************************
 198:../../../SystemView/SEGGER/SEGGER_SYSVIEW.c **** */
 199:../../../SystemView/SEGGER/SEGGER_SYSVIEW.c **** #define ENABLE_STATE_OFF        0
 200:../../../SystemView/SEGGER/SEGGER_SYSVIEW.c **** #define ENABLE_STATE_ON         1
 201:../../../SystemView/SEGGER/SEGGER_SYSVIEW.c **** #define ENABLE_STATE_DROPPING   2
 202:../../../SystemView/SEGGER/SEGGER_SYSVIEW.c **** 
 203:../../../SystemView/SEGGER/SEGGER_SYSVIEW.c **** #define FORMAT_FLAG_LEFT_JUSTIFY   (1u << 0)
 204:../../../SystemView/SEGGER/SEGGER_SYSVIEW.c **** #define FORMAT_FLAG_PAD_ZERO       (1u << 1)
 205:../../../SystemView/SEGGER/SEGGER_SYSVIEW.c **** #define FORMAT_FLAG_PRINT_SIGN     (1u << 2)
 206:../../../SystemView/SEGGER/SEGGER_SYSVIEW.c **** #define FORMAT_FLAG_ALTERNATE      (1u << 3)
 207:../../../SystemView/SEGGER/SEGGER_SYSVIEW.c **** 
 208:../../../SystemView/SEGGER/SEGGER_SYSVIEW.c **** #define MODULE_EVENT_OFFSET        (512)
 209:../../../SystemView/SEGGER/SEGGER_SYSVIEW.c **** 
 210:../../../SystemView/SEGGER/SEGGER_SYSVIEW.c **** /*********************************************************************
 211:../../../SystemView/SEGGER/SEGGER_SYSVIEW.c **** *
 212:../../../SystemView/SEGGER/SEGGER_SYSVIEW.c **** *       Types, local
 213:../../../SystemView/SEGGER/SEGGER_SYSVIEW.c **** *
 214:../../../SystemView/SEGGER/SEGGER_SYSVIEW.c **** **********************************************************************
 215:../../../SystemView/SEGGER/SEGGER_SYSVIEW.c **** */
 216:../../../SystemView/SEGGER/SEGGER_SYSVIEW.c **** typedef struct {
 217:../../../SystemView/SEGGER/SEGGER_SYSVIEW.c ****   U8*       pBuffer;
ARM GAS  /tmp/ccJhHFds.s 			page 6


 218:../../../SystemView/SEGGER/SEGGER_SYSVIEW.c ****   U8*       pPayload;
 219:../../../SystemView/SEGGER/SEGGER_SYSVIEW.c ****   U8*       pPayloadStart;
 220:../../../SystemView/SEGGER/SEGGER_SYSVIEW.c ****   U32       Options;
 221:../../../SystemView/SEGGER/SEGGER_SYSVIEW.c ****   unsigned  Cnt;
 222:../../../SystemView/SEGGER/SEGGER_SYSVIEW.c **** } SEGGER_SYSVIEW_PRINTF_DESC;
 223:../../../SystemView/SEGGER/SEGGER_SYSVIEW.c **** 
 224:../../../SystemView/SEGGER/SEGGER_SYSVIEW.c **** typedef struct {
 225:../../../SystemView/SEGGER/SEGGER_SYSVIEW.c ****         U8                      EnableState;   // 0: Disabled, 1: Enabled, (2: Dropping)
 226:../../../SystemView/SEGGER/SEGGER_SYSVIEW.c ****         U8                      UpChannel;
 227:../../../SystemView/SEGGER/SEGGER_SYSVIEW.c ****         U8                      RecursionCnt;
 228:../../../SystemView/SEGGER/SEGGER_SYSVIEW.c ****         U32                     SysFreq;
 229:../../../SystemView/SEGGER/SEGGER_SYSVIEW.c ****         U32                     CPUFreq;
 230:../../../SystemView/SEGGER/SEGGER_SYSVIEW.c ****         U32                     LastTxTimeStamp;
 231:../../../SystemView/SEGGER/SEGGER_SYSVIEW.c ****         U32                     RAMBaseAddress;
 232:../../../SystemView/SEGGER/SEGGER_SYSVIEW.c **** #if (SEGGER_SYSVIEW_POST_MORTEM_MODE == 1)
 233:../../../SystemView/SEGGER/SEGGER_SYSVIEW.c ****         U32                     PacketCount;
 234:../../../SystemView/SEGGER/SEGGER_SYSVIEW.c **** #else
 235:../../../SystemView/SEGGER/SEGGER_SYSVIEW.c ****         U32                     DropCount;
 236:../../../SystemView/SEGGER/SEGGER_SYSVIEW.c ****         U8                      DownChannel;
 237:../../../SystemView/SEGGER/SEGGER_SYSVIEW.c **** #endif
 238:../../../SystemView/SEGGER/SEGGER_SYSVIEW.c ****         U32                     DisabledEvents;
 239:../../../SystemView/SEGGER/SEGGER_SYSVIEW.c ****   const SEGGER_SYSVIEW_OS_API*  pOSAPI;
 240:../../../SystemView/SEGGER/SEGGER_SYSVIEW.c ****         SEGGER_SYSVIEW_SEND_SYS_DESC_FUNC*   pfSendSysDesc;
 241:../../../SystemView/SEGGER/SEGGER_SYSVIEW.c **** } SEGGER_SYSVIEW_GLOBALS;
 242:../../../SystemView/SEGGER/SEGGER_SYSVIEW.c **** 
 243:../../../SystemView/SEGGER/SEGGER_SYSVIEW.c **** /*********************************************************************
 244:../../../SystemView/SEGGER/SEGGER_SYSVIEW.c **** *
 245:../../../SystemView/SEGGER/SEGGER_SYSVIEW.c **** *       Function prototypes, required
 246:../../../SystemView/SEGGER/SEGGER_SYSVIEW.c **** *
 247:../../../SystemView/SEGGER/SEGGER_SYSVIEW.c **** **********************************************************************
 248:../../../SystemView/SEGGER/SEGGER_SYSVIEW.c **** */
 249:../../../SystemView/SEGGER/SEGGER_SYSVIEW.c **** static void _SendPacket(U8* pStartPacket, U8* pEndPacket, unsigned int EventId);
 250:../../../SystemView/SEGGER/SEGGER_SYSVIEW.c **** 
 251:../../../SystemView/SEGGER/SEGGER_SYSVIEW.c **** /*********************************************************************
 252:../../../SystemView/SEGGER/SEGGER_SYSVIEW.c **** *
 253:../../../SystemView/SEGGER/SEGGER_SYSVIEW.c **** *       Static data
 254:../../../SystemView/SEGGER/SEGGER_SYSVIEW.c **** *
 255:../../../SystemView/SEGGER/SEGGER_SYSVIEW.c **** **********************************************************************
 256:../../../SystemView/SEGGER/SEGGER_SYSVIEW.c **** */
 257:../../../SystemView/SEGGER/SEGGER_SYSVIEW.c **** static const U8 _abSync[10] = { 0x00, 0x00, 0x00, 0x00, 0x00, 0x00, 0x00, 0x00, 0x00, 0x00};
 258:../../../SystemView/SEGGER/SEGGER_SYSVIEW.c **** 
 259:../../../SystemView/SEGGER/SEGGER_SYSVIEW.c **** #ifdef SEGGER_SYSVIEW_SECTION
 260:../../../SystemView/SEGGER/SEGGER_SYSVIEW.c ****   #if (defined __GNUC__)
 261:../../../SystemView/SEGGER/SEGGER_SYSVIEW.c ****     __attribute__ ((section (SEGGER_SYSVIEW_SECTION))) static char _UpBuffer  [SEGGER_SYSVIEW_RTT_B
 262:../../../SystemView/SEGGER/SEGGER_SYSVIEW.c ****     #if (SEGGER_SYSVIEW_POST_MORTEM_MODE != 1)
 263:../../../SystemView/SEGGER/SEGGER_SYSVIEW.c ****     __attribute__ ((section (SEGGER_SYSVIEW_SECTION))) static char _DownBuffer[8];  // Small, fixed
 264:../../../SystemView/SEGGER/SEGGER_SYSVIEW.c ****     #endif
 265:../../../SystemView/SEGGER/SEGGER_SYSVIEW.c ****   #elif (defined __ICCARM__) || (defined __ICCRX__)
 266:../../../SystemView/SEGGER/SEGGER_SYSVIEW.c ****     #pragma location=SEGGER_SYSVIEW_SECTION
 267:../../../SystemView/SEGGER/SEGGER_SYSVIEW.c ****     static char _UpBuffer  [SEGGER_SYSVIEW_RTT_BUFFER_SIZE];
 268:../../../SystemView/SEGGER/SEGGER_SYSVIEW.c ****     #pragma location=SEGGER_SYSVIEW_SECTION
 269:../../../SystemView/SEGGER/SEGGER_SYSVIEW.c ****     static char _DownBuffer[8];  // Small, fixed-size buffer, for back-channel comms
 270:../../../SystemView/SEGGER/SEGGER_SYSVIEW.c ****   #elif (defined __CC_ARM)
 271:../../../SystemView/SEGGER/SEGGER_SYSVIEW.c ****     __attribute__ ((section (SEGGER_SYSVIEW_SECTION), zero_init)) static char _UpBuffer  [SEGGER_SY
 272:../../../SystemView/SEGGER/SEGGER_SYSVIEW.c ****     #if (SEGGER_SYSVIEW_POST_MORTEM_MODE != 1)
 273:../../../SystemView/SEGGER/SEGGER_SYSVIEW.c ****     __attribute__ ((section (SEGGER_SYSVIEW_SECTION), zero_init)) static char _DownBuffer[8];  // S
 274:../../../SystemView/SEGGER/SEGGER_SYSVIEW.c ****     #endif
ARM GAS  /tmp/ccJhHFds.s 			page 7


 275:../../../SystemView/SEGGER/SEGGER_SYSVIEW.c ****   #else
 276:../../../SystemView/SEGGER/SEGGER_SYSVIEW.c ****     static char _UpBuffer  [SEGGER_SYSVIEW_RTT_BUFFER_SIZE];
 277:../../../SystemView/SEGGER/SEGGER_SYSVIEW.c ****     #if (SEGGER_SYSVIEW_POST_MORTEM_MODE != 1)
 278:../../../SystemView/SEGGER/SEGGER_SYSVIEW.c ****     static char _DownBuffer[8];  // Small, fixed-size buffer, for back-channel comms
 279:../../../SystemView/SEGGER/SEGGER_SYSVIEW.c ****     #endif
 280:../../../SystemView/SEGGER/SEGGER_SYSVIEW.c ****   #endif
 281:../../../SystemView/SEGGER/SEGGER_SYSVIEW.c **** #else
 282:../../../SystemView/SEGGER/SEGGER_SYSVIEW.c ****     static char _UpBuffer  [SEGGER_SYSVIEW_RTT_BUFFER_SIZE];
 283:../../../SystemView/SEGGER/SEGGER_SYSVIEW.c ****     #if (SEGGER_SYSVIEW_POST_MORTEM_MODE != 1)
 284:../../../SystemView/SEGGER/SEGGER_SYSVIEW.c ****     static char _DownBuffer[8];  // Small, fixed-size buffer, for back-channel comms
 285:../../../SystemView/SEGGER/SEGGER_SYSVIEW.c ****     #endif
 286:../../../SystemView/SEGGER/SEGGER_SYSVIEW.c **** #endif
 287:../../../SystemView/SEGGER/SEGGER_SYSVIEW.c **** 
 288:../../../SystemView/SEGGER/SEGGER_SYSVIEW.c **** static SEGGER_SYSVIEW_GLOBALS _SYSVIEW_Globals;
 289:../../../SystemView/SEGGER/SEGGER_SYSVIEW.c **** 
 290:../../../SystemView/SEGGER/SEGGER_SYSVIEW.c **** static SEGGER_SYSVIEW_MODULE* _pFirstModule;
 291:../../../SystemView/SEGGER/SEGGER_SYSVIEW.c **** static U8                     _NumModules;
 292:../../../SystemView/SEGGER/SEGGER_SYSVIEW.c **** 
 293:../../../SystemView/SEGGER/SEGGER_SYSVIEW.c **** /*********************************************************************
 294:../../../SystemView/SEGGER/SEGGER_SYSVIEW.c **** *
 295:../../../SystemView/SEGGER/SEGGER_SYSVIEW.c **** *       Static code
 296:../../../SystemView/SEGGER/SEGGER_SYSVIEW.c **** *
 297:../../../SystemView/SEGGER/SEGGER_SYSVIEW.c **** **********************************************************************
 298:../../../SystemView/SEGGER/SEGGER_SYSVIEW.c **** */
 299:../../../SystemView/SEGGER/SEGGER_SYSVIEW.c **** 
 300:../../../SystemView/SEGGER/SEGGER_SYSVIEW.c **** #define ENCODE_U32(pDest, Value) {                                                  \
 301:../../../SystemView/SEGGER/SEGGER_SYSVIEW.c ****                                    U8* pSysviewPointer;                             \
 302:../../../SystemView/SEGGER/SEGGER_SYSVIEW.c ****                                    U32 SysViewData;                                 \
 303:../../../SystemView/SEGGER/SEGGER_SYSVIEW.c ****                                    pSysviewPointer = pDest;                         \
 304:../../../SystemView/SEGGER/SEGGER_SYSVIEW.c ****                                    SysViewData = Value;                             \
 305:../../../SystemView/SEGGER/SEGGER_SYSVIEW.c ****                                    while(SysViewData > 0x7F) {                      \
 306:../../../SystemView/SEGGER/SEGGER_SYSVIEW.c ****                                      *pSysviewPointer++ = (U8)(SysViewData | 0x80); \
 307:../../../SystemView/SEGGER/SEGGER_SYSVIEW.c ****                                      SysViewData >>= 7;                             \
 308:../../../SystemView/SEGGER/SEGGER_SYSVIEW.c ****                                    };                                               \
 309:../../../SystemView/SEGGER/SEGGER_SYSVIEW.c ****                                    *pSysviewPointer++ = (U8)SysViewData;            \
 310:../../../SystemView/SEGGER/SEGGER_SYSVIEW.c ****                                    pDest = pSysviewPointer;                         \
 311:../../../SystemView/SEGGER/SEGGER_SYSVIEW.c ****                                  };
 312:../../../SystemView/SEGGER/SEGGER_SYSVIEW.c **** 
 313:../../../SystemView/SEGGER/SEGGER_SYSVIEW.c **** 
 314:../../../SystemView/SEGGER/SEGGER_SYSVIEW.c **** 
 315:../../../SystemView/SEGGER/SEGGER_SYSVIEW.c **** #if (SEGGER_SYSVIEW_USE_STATIC_BUFFER == 1)
 316:../../../SystemView/SEGGER/SEGGER_SYSVIEW.c **** static U8 _aPacket[SEGGER_SYSVIEW_MAX_PACKET_SIZE];
 317:../../../SystemView/SEGGER/SEGGER_SYSVIEW.c **** 
 318:../../../SystemView/SEGGER/SEGGER_SYSVIEW.c **** #define RECORD_START(PacketSize)  SEGGER_SYSVIEW_LOCK();                            \
 319:../../../SystemView/SEGGER/SEGGER_SYSVIEW.c ****                                   pPayloadStart = _PreparePacket(_aPacket);
 320:../../../SystemView/SEGGER/SEGGER_SYSVIEW.c **** 
 321:../../../SystemView/SEGGER/SEGGER_SYSVIEW.c **** #define RECORD_END()              SEGGER_SYSVIEW_UNLOCK()
 322:../../../SystemView/SEGGER/SEGGER_SYSVIEW.c **** 
 323:../../../SystemView/SEGGER/SEGGER_SYSVIEW.c **** #else
 324:../../../SystemView/SEGGER/SEGGER_SYSVIEW.c **** 
 325:../../../SystemView/SEGGER/SEGGER_SYSVIEW.c **** #define RECORD_START(PacketSize)  U8 aPacket[(PacketSize)];                         \
 326:../../../SystemView/SEGGER/SEGGER_SYSVIEW.c ****                                   pPayloadStart = _PreparePacket(aPacket);          \
 327:../../../SystemView/SEGGER/SEGGER_SYSVIEW.c **** 
 328:../../../SystemView/SEGGER/SEGGER_SYSVIEW.c **** #define RECORD_END()
 329:../../../SystemView/SEGGER/SEGGER_SYSVIEW.c **** 
 330:../../../SystemView/SEGGER/SEGGER_SYSVIEW.c **** #endif
 331:../../../SystemView/SEGGER/SEGGER_SYSVIEW.c **** 
ARM GAS  /tmp/ccJhHFds.s 			page 8


 332:../../../SystemView/SEGGER/SEGGER_SYSVIEW.c **** /*********************************************************************
 333:../../../SystemView/SEGGER/SEGGER_SYSVIEW.c **** *
 334:../../../SystemView/SEGGER/SEGGER_SYSVIEW.c **** *       _EncodeData()
 335:../../../SystemView/SEGGER/SEGGER_SYSVIEW.c **** *
 336:../../../SystemView/SEGGER/SEGGER_SYSVIEW.c **** *  Function description
 337:../../../SystemView/SEGGER/SEGGER_SYSVIEW.c **** *    Encode a byte buffer in variable-length format.
 338:../../../SystemView/SEGGER/SEGGER_SYSVIEW.c **** *
 339:../../../SystemView/SEGGER/SEGGER_SYSVIEW.c **** *  Parameters
 340:../../../SystemView/SEGGER/SEGGER_SYSVIEW.c **** *    pPayload - Pointer to where string will be encoded.
 341:../../../SystemView/SEGGER/SEGGER_SYSVIEW.c **** *    pSrc     - Pointer to data buffer to be encoded.
 342:../../../SystemView/SEGGER/SEGGER_SYSVIEW.c **** *    NumBytes - Number of bytes in the buffer to be encoded.
 343:../../../SystemView/SEGGER/SEGGER_SYSVIEW.c **** *
 344:../../../SystemView/SEGGER/SEGGER_SYSVIEW.c **** *  Return value
 345:../../../SystemView/SEGGER/SEGGER_SYSVIEW.c **** *    Pointer to the byte following the value, i.e. the first free
 346:../../../SystemView/SEGGER/SEGGER_SYSVIEW.c **** *    byte in the payload and the next position to store payload
 347:../../../SystemView/SEGGER/SEGGER_SYSVIEW.c **** *    content.
 348:../../../SystemView/SEGGER/SEGGER_SYSVIEW.c **** *
 349:../../../SystemView/SEGGER/SEGGER_SYSVIEW.c **** *  Additional information
 350:../../../SystemView/SEGGER/SEGGER_SYSVIEW.c **** *    The data is encoded as a count byte followed by the contents
 351:../../../SystemView/SEGGER/SEGGER_SYSVIEW.c **** *    of the data buffer.
 352:../../../SystemView/SEGGER/SEGGER_SYSVIEW.c **** *    Make sure NumBytes + 1 bytes are free for the payload.
 353:../../../SystemView/SEGGER/SEGGER_SYSVIEW.c **** */
 354:../../../SystemView/SEGGER/SEGGER_SYSVIEW.c **** static U8* _EncodeData(U8* pPayload, const char* pSrc, unsigned int NumBytes) {
  69              		.loc 1 354 0
  70              		.cfi_startproc
  71              		@ args = 0, pretend = 0, frame = 24
  72              		@ frame_needed = 1, uses_anonymous_args = 0
  73              		@ link register save eliminated.
  74 0000 80B4     		push	{r7}
  75              	.LCFI0:
  76              		.cfi_def_cfa_offset 4
  77              		.cfi_offset 7, -4
  78 0002 87B0     		sub	sp, sp, #28
  79              	.LCFI1:
  80              		.cfi_def_cfa_offset 32
  81 0004 00AF     		add	r7, sp, #0
  82              	.LCFI2:
  83              		.cfi_def_cfa_register 7
  84 0006 F860     		str	r0, [r7, #12]
  85 0008 B960     		str	r1, [r7, #8]
  86 000a 7A60     		str	r2, [r7, #4]
 355:../../../SystemView/SEGGER/SEGGER_SYSVIEW.c ****   unsigned int n;
 356:../../../SystemView/SEGGER/SEGGER_SYSVIEW.c ****   //
 357:../../../SystemView/SEGGER/SEGGER_SYSVIEW.c ****   n = 0;
  87              		.loc 1 357 0
  88 000c 0023     		movs	r3, #0
  89 000e 7B61     		str	r3, [r7, #20]
 358:../../../SystemView/SEGGER/SEGGER_SYSVIEW.c ****   *pPayload++ = NumBytes;
  90              		.loc 1 358 0
  91 0010 FB68     		ldr	r3, [r7, #12]
  92 0012 5A1C     		adds	r2, r3, #1
  93 0014 FA60     		str	r2, [r7, #12]
  94 0016 7A68     		ldr	r2, [r7, #4]
  95 0018 D2B2     		uxtb	r2, r2
  96 001a 1A70     		strb	r2, [r3]
 359:../../../SystemView/SEGGER/SEGGER_SYSVIEW.c ****   while (n < NumBytes) {
  97              		.loc 1 359 0
ARM GAS  /tmp/ccJhHFds.s 			page 9


  98 001c 0AE0     		b	.L2
  99              	.L3:
 360:../../../SystemView/SEGGER/SEGGER_SYSVIEW.c ****     *pPayload++ = *pSrc++;
 100              		.loc 1 360 0
 101 001e FB68     		ldr	r3, [r7, #12]
 102 0020 5A1C     		adds	r2, r3, #1
 103 0022 FA60     		str	r2, [r7, #12]
 104 0024 BA68     		ldr	r2, [r7, #8]
 105 0026 511C     		adds	r1, r2, #1
 106 0028 B960     		str	r1, [r7, #8]
 107 002a 1278     		ldrb	r2, [r2]	@ zero_extendqisi2
 108 002c 1A70     		strb	r2, [r3]
 361:../../../SystemView/SEGGER/SEGGER_SYSVIEW.c ****     n++;
 109              		.loc 1 361 0
 110 002e 7B69     		ldr	r3, [r7, #20]
 111 0030 0133     		adds	r3, r3, #1
 112 0032 7B61     		str	r3, [r7, #20]
 113              	.L2:
 359:../../../SystemView/SEGGER/SEGGER_SYSVIEW.c ****   while (n < NumBytes) {
 114              		.loc 1 359 0
 115 0034 7A69     		ldr	r2, [r7, #20]
 116 0036 7B68     		ldr	r3, [r7, #4]
 117 0038 9A42     		cmp	r2, r3
 118 003a F0D3     		bcc	.L3
 362:../../../SystemView/SEGGER/SEGGER_SYSVIEW.c ****   }
 363:../../../SystemView/SEGGER/SEGGER_SYSVIEW.c ****   return pPayload;
 119              		.loc 1 363 0
 120 003c FB68     		ldr	r3, [r7, #12]
 364:../../../SystemView/SEGGER/SEGGER_SYSVIEW.c **** }
 121              		.loc 1 364 0
 122 003e 1846     		mov	r0, r3
 123 0040 1C37     		adds	r7, r7, #28
 124              	.LCFI3:
 125              		.cfi_def_cfa_offset 4
 126 0042 BD46     		mov	sp, r7
 127              	.LCFI4:
 128              		.cfi_def_cfa_register 13
 129              		@ sp needed
 130 0044 5DF8047B 		ldr	r7, [sp], #4
 131              	.LCFI5:
 132              		.cfi_restore 7
 133              		.cfi_def_cfa_offset 0
 134 0048 7047     		bx	lr
 135              		.cfi_endproc
 136              	.LFE0:
 138 004a 00BF     		.section	.text._EncodeStr,"ax",%progbits
 139              		.align	2
 140              		.thumb
 141              		.thumb_func
 143              	_EncodeStr:
 144              	.LFB1:
 365:../../../SystemView/SEGGER/SEGGER_SYSVIEW.c **** 
 366:../../../SystemView/SEGGER/SEGGER_SYSVIEW.c **** /*********************************************************************
 367:../../../SystemView/SEGGER/SEGGER_SYSVIEW.c **** *
 368:../../../SystemView/SEGGER/SEGGER_SYSVIEW.c **** *       _EncodeStr()
 369:../../../SystemView/SEGGER/SEGGER_SYSVIEW.c **** *
 370:../../../SystemView/SEGGER/SEGGER_SYSVIEW.c **** *  Function description
ARM GAS  /tmp/ccJhHFds.s 			page 10


 371:../../../SystemView/SEGGER/SEGGER_SYSVIEW.c **** *    Encode a string in variable-length format.
 372:../../../SystemView/SEGGER/SEGGER_SYSVIEW.c **** *
 373:../../../SystemView/SEGGER/SEGGER_SYSVIEW.c **** *  Parameters
 374:../../../SystemView/SEGGER/SEGGER_SYSVIEW.c **** *    pPayload - Pointer to where string will be encoded.
 375:../../../SystemView/SEGGER/SEGGER_SYSVIEW.c **** *    pText    - String to encode.
 376:../../../SystemView/SEGGER/SEGGER_SYSVIEW.c **** *    Limit    - Maximum number of characters to encode from string.
 377:../../../SystemView/SEGGER/SEGGER_SYSVIEW.c **** *
 378:../../../SystemView/SEGGER/SEGGER_SYSVIEW.c **** *  Return value
 379:../../../SystemView/SEGGER/SEGGER_SYSVIEW.c **** *    Pointer to the byte following the value, i.e. the first free
 380:../../../SystemView/SEGGER/SEGGER_SYSVIEW.c **** *    byte in the payload and the next position to store payload
 381:../../../SystemView/SEGGER/SEGGER_SYSVIEW.c **** *    content.
 382:../../../SystemView/SEGGER/SEGGER_SYSVIEW.c **** *
 383:../../../SystemView/SEGGER/SEGGER_SYSVIEW.c **** *  Additional information
 384:../../../SystemView/SEGGER/SEGGER_SYSVIEW.c **** *    The string is encoded as a count byte followed by the contents
 385:../../../SystemView/SEGGER/SEGGER_SYSVIEW.c **** *    of the string.
 386:../../../SystemView/SEGGER/SEGGER_SYSVIEW.c **** *    No more than 1 + Limit bytes will be encoded to the payload.
 387:../../../SystemView/SEGGER/SEGGER_SYSVIEW.c **** */
 388:../../../SystemView/SEGGER/SEGGER_SYSVIEW.c **** static U8 *_EncodeStr(U8 *pPayload, const char *pText, unsigned int Limit) {
 145              		.loc 1 388 0
 146              		.cfi_startproc
 147              		@ args = 0, pretend = 0, frame = 24
 148              		@ frame_needed = 1, uses_anonymous_args = 0
 149              		@ link register save eliminated.
 150 0000 80B4     		push	{r7}
 151              	.LCFI6:
 152              		.cfi_def_cfa_offset 4
 153              		.cfi_offset 7, -4
 154 0002 87B0     		sub	sp, sp, #28
 155              	.LCFI7:
 156              		.cfi_def_cfa_offset 32
 157 0004 00AF     		add	r7, sp, #0
 158              	.LCFI8:
 159              		.cfi_def_cfa_register 7
 160 0006 F860     		str	r0, [r7, #12]
 161 0008 B960     		str	r1, [r7, #8]
 162 000a 7A60     		str	r2, [r7, #4]
 389:../../../SystemView/SEGGER/SEGGER_SYSVIEW.c ****   unsigned int n;
 390:../../../SystemView/SEGGER/SEGGER_SYSVIEW.c ****   unsigned int Len;
 391:../../../SystemView/SEGGER/SEGGER_SYSVIEW.c ****   //
 392:../../../SystemView/SEGGER/SEGGER_SYSVIEW.c ****   // Compute string len
 393:../../../SystemView/SEGGER/SEGGER_SYSVIEW.c ****   //
 394:../../../SystemView/SEGGER/SEGGER_SYSVIEW.c ****   Len = 0;
 163              		.loc 1 394 0
 164 000c 0023     		movs	r3, #0
 165 000e 3B61     		str	r3, [r7, #16]
 395:../../../SystemView/SEGGER/SEGGER_SYSVIEW.c ****   while(*(pText + Len) != 0) {
 166              		.loc 1 395 0
 167 0010 02E0     		b	.L6
 168              	.L7:
 396:../../../SystemView/SEGGER/SEGGER_SYSVIEW.c ****     Len++;
 169              		.loc 1 396 0
 170 0012 3B69     		ldr	r3, [r7, #16]
 171 0014 0133     		adds	r3, r3, #1
 172 0016 3B61     		str	r3, [r7, #16]
 173              	.L6:
 395:../../../SystemView/SEGGER/SEGGER_SYSVIEW.c ****   while(*(pText + Len) != 0) {
 174              		.loc 1 395 0
ARM GAS  /tmp/ccJhHFds.s 			page 11


 175 0018 BA68     		ldr	r2, [r7, #8]
 176 001a 3B69     		ldr	r3, [r7, #16]
 177 001c 1344     		add	r3, r3, r2
 178 001e 1B78     		ldrb	r3, [r3]	@ zero_extendqisi2
 179 0020 002B     		cmp	r3, #0
 180 0022 F6D1     		bne	.L7
 397:../../../SystemView/SEGGER/SEGGER_SYSVIEW.c ****   }
 398:../../../SystemView/SEGGER/SEGGER_SYSVIEW.c ****   if (Len > Limit) {
 181              		.loc 1 398 0
 182 0024 3A69     		ldr	r2, [r7, #16]
 183 0026 7B68     		ldr	r3, [r7, #4]
 184 0028 9A42     		cmp	r2, r3
 185 002a 01D9     		bls	.L8
 399:../../../SystemView/SEGGER/SEGGER_SYSVIEW.c ****     Len = Limit;
 186              		.loc 1 399 0
 187 002c 7B68     		ldr	r3, [r7, #4]
 188 002e 3B61     		str	r3, [r7, #16]
 189              	.L8:
 400:../../../SystemView/SEGGER/SEGGER_SYSVIEW.c ****   }
 401:../../../SystemView/SEGGER/SEGGER_SYSVIEW.c ****   //
 402:../../../SystemView/SEGGER/SEGGER_SYSVIEW.c ****   // Write Len
 403:../../../SystemView/SEGGER/SEGGER_SYSVIEW.c ****   //
 404:../../../SystemView/SEGGER/SEGGER_SYSVIEW.c ****   if (Len < 255)  {
 190              		.loc 1 404 0
 191 0030 3B69     		ldr	r3, [r7, #16]
 192 0032 FE2B     		cmp	r3, #254
 193 0034 06D8     		bhi	.L9
 405:../../../SystemView/SEGGER/SEGGER_SYSVIEW.c ****     *pPayload++ = Len; 
 194              		.loc 1 405 0
 195 0036 FB68     		ldr	r3, [r7, #12]
 196 0038 5A1C     		adds	r2, r3, #1
 197 003a FA60     		str	r2, [r7, #12]
 198 003c 3A69     		ldr	r2, [r7, #16]
 199 003e D2B2     		uxtb	r2, r2
 200 0040 1A70     		strb	r2, [r3]
 201 0042 11E0     		b	.L10
 202              	.L9:
 406:../../../SystemView/SEGGER/SEGGER_SYSVIEW.c ****   } else {
 407:../../../SystemView/SEGGER/SEGGER_SYSVIEW.c ****     *pPayload++ = 255;
 203              		.loc 1 407 0
 204 0044 FB68     		ldr	r3, [r7, #12]
 205 0046 5A1C     		adds	r2, r3, #1
 206 0048 FA60     		str	r2, [r7, #12]
 207 004a FF22     		movs	r2, #255
 208 004c 1A70     		strb	r2, [r3]
 408:../../../SystemView/SEGGER/SEGGER_SYSVIEW.c ****     *pPayload++ = (Len & 255);
 209              		.loc 1 408 0
 210 004e FB68     		ldr	r3, [r7, #12]
 211 0050 5A1C     		adds	r2, r3, #1
 212 0052 FA60     		str	r2, [r7, #12]
 213 0054 3A69     		ldr	r2, [r7, #16]
 214 0056 D2B2     		uxtb	r2, r2
 215 0058 1A70     		strb	r2, [r3]
 409:../../../SystemView/SEGGER/SEGGER_SYSVIEW.c ****     *pPayload++ = ((Len >> 8) & 255);
 216              		.loc 1 409 0
 217 005a FB68     		ldr	r3, [r7, #12]
 218 005c 5A1C     		adds	r2, r3, #1
ARM GAS  /tmp/ccJhHFds.s 			page 12


 219 005e FA60     		str	r2, [r7, #12]
 220 0060 3A69     		ldr	r2, [r7, #16]
 221 0062 120A     		lsrs	r2, r2, #8
 222 0064 D2B2     		uxtb	r2, r2
 223 0066 1A70     		strb	r2, [r3]
 224              	.L10:
 410:../../../SystemView/SEGGER/SEGGER_SYSVIEW.c ****   }
 411:../../../SystemView/SEGGER/SEGGER_SYSVIEW.c ****   //
 412:../../../SystemView/SEGGER/SEGGER_SYSVIEW.c ****   // copy string
 413:../../../SystemView/SEGGER/SEGGER_SYSVIEW.c ****   //
 414:../../../SystemView/SEGGER/SEGGER_SYSVIEW.c ****   n = 0;
 225              		.loc 1 414 0
 226 0068 0023     		movs	r3, #0
 227 006a 7B61     		str	r3, [r7, #20]
 415:../../../SystemView/SEGGER/SEGGER_SYSVIEW.c ****   while (n < Len) {
 228              		.loc 1 415 0
 229 006c 0AE0     		b	.L11
 230              	.L12:
 416:../../../SystemView/SEGGER/SEGGER_SYSVIEW.c ****     *pPayload++ = *pText++;
 231              		.loc 1 416 0
 232 006e FB68     		ldr	r3, [r7, #12]
 233 0070 5A1C     		adds	r2, r3, #1
 234 0072 FA60     		str	r2, [r7, #12]
 235 0074 BA68     		ldr	r2, [r7, #8]
 236 0076 511C     		adds	r1, r2, #1
 237 0078 B960     		str	r1, [r7, #8]
 238 007a 1278     		ldrb	r2, [r2]	@ zero_extendqisi2
 239 007c 1A70     		strb	r2, [r3]
 417:../../../SystemView/SEGGER/SEGGER_SYSVIEW.c ****     n++;
 240              		.loc 1 417 0
 241 007e 7B69     		ldr	r3, [r7, #20]
 242 0080 0133     		adds	r3, r3, #1
 243 0082 7B61     		str	r3, [r7, #20]
 244              	.L11:
 415:../../../SystemView/SEGGER/SEGGER_SYSVIEW.c ****   while (n < Len) {
 245              		.loc 1 415 0
 246 0084 7A69     		ldr	r2, [r7, #20]
 247 0086 3B69     		ldr	r3, [r7, #16]
 248 0088 9A42     		cmp	r2, r3
 249 008a F0D3     		bcc	.L12
 418:../../../SystemView/SEGGER/SEGGER_SYSVIEW.c ****   }
 419:../../../SystemView/SEGGER/SEGGER_SYSVIEW.c ****   return pPayload;
 250              		.loc 1 419 0
 251 008c FB68     		ldr	r3, [r7, #12]
 420:../../../SystemView/SEGGER/SEGGER_SYSVIEW.c **** }
 252              		.loc 1 420 0
 253 008e 1846     		mov	r0, r3
 254 0090 1C37     		adds	r7, r7, #28
 255              	.LCFI9:
 256              		.cfi_def_cfa_offset 4
 257 0092 BD46     		mov	sp, r7
 258              	.LCFI10:
 259              		.cfi_def_cfa_register 13
 260              		@ sp needed
 261 0094 5DF8047B 		ldr	r7, [sp], #4
 262              	.LCFI11:
 263              		.cfi_restore 7
ARM GAS  /tmp/ccJhHFds.s 			page 13


 264              		.cfi_def_cfa_offset 0
 265 0098 7047     		bx	lr
 266              		.cfi_endproc
 267              	.LFE1:
 269 009a 00BF     		.section	.text._PreparePacket,"ax",%progbits
 270              		.align	2
 271              		.thumb
 272              		.thumb_func
 274              	_PreparePacket:
 275              	.LFB2:
 421:../../../SystemView/SEGGER/SEGGER_SYSVIEW.c **** 
 422:../../../SystemView/SEGGER/SEGGER_SYSVIEW.c **** /*********************************************************************
 423:../../../SystemView/SEGGER/SEGGER_SYSVIEW.c **** *
 424:../../../SystemView/SEGGER/SEGGER_SYSVIEW.c **** *       _PreparePacket()
 425:../../../SystemView/SEGGER/SEGGER_SYSVIEW.c **** *
 426:../../../SystemView/SEGGER/SEGGER_SYSVIEW.c **** *  Function description
 427:../../../SystemView/SEGGER/SEGGER_SYSVIEW.c **** *    Prepare a SystemView event packet header.
 428:../../../SystemView/SEGGER/SEGGER_SYSVIEW.c **** *
 429:../../../SystemView/SEGGER/SEGGER_SYSVIEW.c **** *  Parameters
 430:../../../SystemView/SEGGER/SEGGER_SYSVIEW.c **** *    pPacket - Pointer to start of packet to initialize.
 431:../../../SystemView/SEGGER/SEGGER_SYSVIEW.c **** *
 432:../../../SystemView/SEGGER/SEGGER_SYSVIEW.c **** *  Return value
 433:../../../SystemView/SEGGER/SEGGER_SYSVIEW.c **** *    Pointer to first byte of packet payload.
 434:../../../SystemView/SEGGER/SEGGER_SYSVIEW.c **** *
 435:../../../SystemView/SEGGER/SEGGER_SYSVIEW.c **** *  Additional information
 436:../../../SystemView/SEGGER/SEGGER_SYSVIEW.c **** *    The payload length and evnetId are not initialized.
 437:../../../SystemView/SEGGER/SEGGER_SYSVIEW.c **** *    PreparePacket only reserves space for them and they are
 438:../../../SystemView/SEGGER/SEGGER_SYSVIEW.c **** *    computed and filled in by the sending function.
 439:../../../SystemView/SEGGER/SEGGER_SYSVIEW.c **** */
 440:../../../SystemView/SEGGER/SEGGER_SYSVIEW.c **** static U8* _PreparePacket(U8* pPacket) {
 276              		.loc 1 440 0
 277              		.cfi_startproc
 278              		@ args = 0, pretend = 0, frame = 8
 279              		@ frame_needed = 1, uses_anonymous_args = 0
 280              		@ link register save eliminated.
 281 0000 80B4     		push	{r7}
 282              	.LCFI12:
 283              		.cfi_def_cfa_offset 4
 284              		.cfi_offset 7, -4
 285 0002 83B0     		sub	sp, sp, #12
 286              	.LCFI13:
 287              		.cfi_def_cfa_offset 16
 288 0004 00AF     		add	r7, sp, #0
 289              	.LCFI14:
 290              		.cfi_def_cfa_register 7
 291 0006 7860     		str	r0, [r7, #4]
 441:../../../SystemView/SEGGER/SEGGER_SYSVIEW.c ****   return pPacket + 4;
 292              		.loc 1 441 0
 293 0008 7B68     		ldr	r3, [r7, #4]
 294 000a 0433     		adds	r3, r3, #4
 442:../../../SystemView/SEGGER/SEGGER_SYSVIEW.c **** }
 295              		.loc 1 442 0
 296 000c 1846     		mov	r0, r3
 297 000e 0C37     		adds	r7, r7, #12
 298              	.LCFI15:
 299              		.cfi_def_cfa_offset 4
 300 0010 BD46     		mov	sp, r7
ARM GAS  /tmp/ccJhHFds.s 			page 14


 301              	.LCFI16:
 302              		.cfi_def_cfa_register 13
 303              		@ sp needed
 304 0012 5DF8047B 		ldr	r7, [sp], #4
 305              	.LCFI17:
 306              		.cfi_restore 7
 307              		.cfi_def_cfa_offset 0
 308 0016 7047     		bx	lr
 309              		.cfi_endproc
 310              	.LFE2:
 312              		.section	.text._HandleIncomingPacket,"ax",%progbits
 313              		.align	2
 314              		.thumb
 315              		.thumb_func
 317              	_HandleIncomingPacket:
 318              	.LFB3:
 443:../../../SystemView/SEGGER/SEGGER_SYSVIEW.c **** 
 444:../../../SystemView/SEGGER/SEGGER_SYSVIEW.c **** /*********************************************************************
 445:../../../SystemView/SEGGER/SEGGER_SYSVIEW.c **** *
 446:../../../SystemView/SEGGER/SEGGER_SYSVIEW.c **** *       _HandleIncomingPacket()
 447:../../../SystemView/SEGGER/SEGGER_SYSVIEW.c **** *
 448:../../../SystemView/SEGGER/SEGGER_SYSVIEW.c **** *  Function description
 449:../../../SystemView/SEGGER/SEGGER_SYSVIEW.c **** *    Read an incoming command from the down channel and process it.
 450:../../../SystemView/SEGGER/SEGGER_SYSVIEW.c **** *
 451:../../../SystemView/SEGGER/SEGGER_SYSVIEW.c **** *  Additional information
 452:../../../SystemView/SEGGER/SEGGER_SYSVIEW.c **** *    This function is called each time after sending a packet.
 453:../../../SystemView/SEGGER/SEGGER_SYSVIEW.c **** *    Processing incoming packets is done asynchronous. SystemView might
 454:../../../SystemView/SEGGER/SEGGER_SYSVIEW.c **** *    already have sent event packets after the host has sent a command.
 455:../../../SystemView/SEGGER/SEGGER_SYSVIEW.c **** */
 456:../../../SystemView/SEGGER/SEGGER_SYSVIEW.c **** #if (SEGGER_SYSVIEW_POST_MORTEM_MODE != 1)
 457:../../../SystemView/SEGGER/SEGGER_SYSVIEW.c **** static void _HandleIncomingPacket(void) {
 319              		.loc 1 457 0
 320              		.cfi_startproc
 321              		@ args = 0, pretend = 0, frame = 8
 322              		@ frame_needed = 1, uses_anonymous_args = 0
 323 0000 80B5     		push	{r7, lr}
 324              	.LCFI18:
 325              		.cfi_def_cfa_offset 8
 326              		.cfi_offset 7, -8
 327              		.cfi_offset 14, -4
 328 0002 82B0     		sub	sp, sp, #8
 329              	.LCFI19:
 330              		.cfi_def_cfa_offset 16
 331 0004 00AF     		add	r7, sp, #0
 332              	.LCFI20:
 333              		.cfi_def_cfa_register 7
 458:../../../SystemView/SEGGER/SEGGER_SYSVIEW.c ****   U8  Cmd;
 459:../../../SystemView/SEGGER/SEGGER_SYSVIEW.c ****   int Status;
 460:../../../SystemView/SEGGER/SEGGER_SYSVIEW.c ****   //
 461:../../../SystemView/SEGGER/SEGGER_SYSVIEW.c ****   Status = SEGGER_RTT_ReadNoLock(CHANNEL_ID_DOWN, &Cmd, 1);
 334              		.loc 1 461 0
 335 0006 FB1C     		adds	r3, r7, #3
 336 0008 0120     		movs	r0, #1
 337 000a 1946     		mov	r1, r3
 338 000c 0122     		movs	r2, #1
 339 000e FFF7FEFF 		bl	SEGGER_RTT_ReadNoLock
 340 0012 0346     		mov	r3, r0
ARM GAS  /tmp/ccJhHFds.s 			page 15


 341 0014 7B60     		str	r3, [r7, #4]
 462:../../../SystemView/SEGGER/SEGGER_SYSVIEW.c ****   if (Status > 0) {
 342              		.loc 1 462 0
 343 0016 7B68     		ldr	r3, [r7, #4]
 344 0018 002B     		cmp	r3, #0
 345 001a 46DD     		ble	.L16
 463:../../../SystemView/SEGGER/SEGGER_SYSVIEW.c ****     switch (Cmd) {
 346              		.loc 1 463 0
 347 001c FB78     		ldrb	r3, [r7, #3]	@ zero_extendqisi2
 348 001e 042B     		cmp	r3, #4
 349 0020 1AD0     		beq	.L19
 350 0022 042B     		cmp	r3, #4
 351 0024 06DC     		bgt	.L20
 352 0026 022B     		cmp	r3, #2
 353 0028 10D0     		beq	.L21
 354 002a 022B     		cmp	r3, #2
 355 002c 11DC     		bgt	.L22
 356 002e 012B     		cmp	r3, #1
 357 0030 09D0     		beq	.L23
 358 0032 2EE0     		b	.L18
 359              	.L20:
 360 0034 062B     		cmp	r3, #6
 361 0036 15D0     		beq	.L24
 362 0038 062B     		cmp	r3, #6
 363 003a 10DB     		blt	.L25
 364 003c 072B     		cmp	r3, #7
 365 003e 14D0     		beq	.L26
 366 0040 802B     		cmp	r3, #128
 367 0042 15D0     		beq	.L27
 368 0044 25E0     		b	.L18
 369              	.L23:
 464:../../../SystemView/SEGGER/SEGGER_SYSVIEW.c ****     case SEGGER_SYSVIEW_COMMAND_ID_START:
 465:../../../SystemView/SEGGER/SEGGER_SYSVIEW.c ****       SEGGER_SYSVIEW_Start();
 370              		.loc 1 465 0
 371 0046 FFF7FEFF 		bl	SEGGER_SYSVIEW_Start
 466:../../../SystemView/SEGGER/SEGGER_SYSVIEW.c ****       break;
 372              		.loc 1 466 0
 373 004a 2EE0     		b	.L16
 374              	.L21:
 467:../../../SystemView/SEGGER/SEGGER_SYSVIEW.c ****     case SEGGER_SYSVIEW_COMMAND_ID_STOP:
 468:../../../SystemView/SEGGER/SEGGER_SYSVIEW.c ****       SEGGER_SYSVIEW_Stop();
 375              		.loc 1 468 0
 376 004c FFF7FEFF 		bl	SEGGER_SYSVIEW_Stop
 469:../../../SystemView/SEGGER/SEGGER_SYSVIEW.c ****       break;
 377              		.loc 1 469 0
 378 0050 2BE0     		b	.L16
 379              	.L22:
 470:../../../SystemView/SEGGER/SEGGER_SYSVIEW.c ****     case SEGGER_SYSVIEW_COMMAND_ID_GET_SYSTIME:
 471:../../../SystemView/SEGGER/SEGGER_SYSVIEW.c ****       SEGGER_SYSVIEW_RecordSystime();
 380              		.loc 1 471 0
 381 0052 FFF7FEFF 		bl	SEGGER_SYSVIEW_RecordSystime
 472:../../../SystemView/SEGGER/SEGGER_SYSVIEW.c ****       break;
 382              		.loc 1 472 0
 383 0056 28E0     		b	.L16
 384              	.L19:
 473:../../../SystemView/SEGGER/SEGGER_SYSVIEW.c ****     case SEGGER_SYSVIEW_COMMAND_ID_GET_TASKLIST:
 474:../../../SystemView/SEGGER/SEGGER_SYSVIEW.c ****       SEGGER_SYSVIEW_SendTaskList();
ARM GAS  /tmp/ccJhHFds.s 			page 16


 385              		.loc 1 474 0
 386 0058 FFF7FEFF 		bl	SEGGER_SYSVIEW_SendTaskList
 475:../../../SystemView/SEGGER/SEGGER_SYSVIEW.c ****       break;
 387              		.loc 1 475 0
 388 005c 25E0     		b	.L16
 389              	.L25:
 476:../../../SystemView/SEGGER/SEGGER_SYSVIEW.c ****     case SEGGER_SYSVIEW_COMMAND_ID_GET_SYSDESC:
 477:../../../SystemView/SEGGER/SEGGER_SYSVIEW.c ****       SEGGER_SYSVIEW_GetSysDesc();
 390              		.loc 1 477 0
 391 005e FFF7FEFF 		bl	SEGGER_SYSVIEW_GetSysDesc
 478:../../../SystemView/SEGGER/SEGGER_SYSVIEW.c ****       break;
 392              		.loc 1 478 0
 393 0062 22E0     		b	.L16
 394              	.L24:
 479:../../../SystemView/SEGGER/SEGGER_SYSVIEW.c ****     case SEGGER_SYSVIEW_COMMAND_ID_GET_NUMMODULES:
 480:../../../SystemView/SEGGER/SEGGER_SYSVIEW.c ****       SEGGER_SYSVIEW_SendNumModules();
 395              		.loc 1 480 0
 396 0064 FFF7FEFF 		bl	SEGGER_SYSVIEW_SendNumModules
 481:../../../SystemView/SEGGER/SEGGER_SYSVIEW.c ****       break;
 397              		.loc 1 481 0
 398 0068 1FE0     		b	.L16
 399              	.L26:
 482:../../../SystemView/SEGGER/SEGGER_SYSVIEW.c ****     case SEGGER_SYSVIEW_COMMAND_ID_GET_MODULEDESC:
 483:../../../SystemView/SEGGER/SEGGER_SYSVIEW.c ****       SEGGER_SYSVIEW_SendModuleDescription();
 400              		.loc 1 483 0
 401 006a FFF7FEFF 		bl	SEGGER_SYSVIEW_SendModuleDescription
 484:../../../SystemView/SEGGER/SEGGER_SYSVIEW.c ****       break;
 402              		.loc 1 484 0
 403 006e 1CE0     		b	.L16
 404              	.L27:
 485:../../../SystemView/SEGGER/SEGGER_SYSVIEW.c ****     case SEGGER_SYSVIEW_COMMAND_ID_GET_MODULE:
 486:../../../SystemView/SEGGER/SEGGER_SYSVIEW.c ****       Status = SEGGER_RTT_ReadNoLock(CHANNEL_ID_DOWN, &Cmd, 1);
 405              		.loc 1 486 0
 406 0070 FB1C     		adds	r3, r7, #3
 407 0072 0120     		movs	r0, #1
 408 0074 1946     		mov	r1, r3
 409 0076 0122     		movs	r2, #1
 410 0078 FFF7FEFF 		bl	SEGGER_RTT_ReadNoLock
 411 007c 0346     		mov	r3, r0
 412 007e 7B60     		str	r3, [r7, #4]
 487:../../../SystemView/SEGGER/SEGGER_SYSVIEW.c ****       if (Status > 0) {
 413              		.loc 1 487 0
 414 0080 7B68     		ldr	r3, [r7, #4]
 415 0082 002B     		cmp	r3, #0
 416 0084 04DD     		ble	.L28
 488:../../../SystemView/SEGGER/SEGGER_SYSVIEW.c ****         SEGGER_SYSVIEW_SendModule(Cmd);
 417              		.loc 1 488 0
 418 0086 FB78     		ldrb	r3, [r7, #3]	@ zero_extendqisi2
 419 0088 1846     		mov	r0, r3
 420 008a FFF7FEFF 		bl	SEGGER_SYSVIEW_SendModule
 489:../../../SystemView/SEGGER/SEGGER_SYSVIEW.c ****       }
 490:../../../SystemView/SEGGER/SEGGER_SYSVIEW.c ****       break;
 421              		.loc 1 490 0
 422 008e 0CE0     		b	.L16
 423              	.L28:
 424 0090 0BE0     		b	.L16
 425              	.L18:
ARM GAS  /tmp/ccJhHFds.s 			page 17


 491:../../../SystemView/SEGGER/SEGGER_SYSVIEW.c ****     default:
 492:../../../SystemView/SEGGER/SEGGER_SYSVIEW.c ****       if (Cmd >= 128) { // Unknown extended command. Dummy read its parameter.
 426              		.loc 1 492 0
 427 0092 FB78     		ldrb	r3, [r7, #3]	@ zero_extendqisi2
 428 0094 DBB2     		uxtb	r3, r3
 429 0096 5BB2     		sxtb	r3, r3
 430 0098 002B     		cmp	r3, #0
 431 009a 05DA     		bge	.L29
 493:../../../SystemView/SEGGER/SEGGER_SYSVIEW.c ****         SEGGER_RTT_ReadNoLock(CHANNEL_ID_DOWN, &Cmd, 1);
 432              		.loc 1 493 0
 433 009c FB1C     		adds	r3, r7, #3
 434 009e 0120     		movs	r0, #1
 435 00a0 1946     		mov	r1, r3
 436 00a2 0122     		movs	r2, #1
 437 00a4 FFF7FEFF 		bl	SEGGER_RTT_ReadNoLock
 438              	.L29:
 494:../../../SystemView/SEGGER/SEGGER_SYSVIEW.c ****       }
 495:../../../SystemView/SEGGER/SEGGER_SYSVIEW.c ****       break;
 439              		.loc 1 495 0 discriminator 2
 440 00a8 00BF     		nop
 441              	.L16:
 496:../../../SystemView/SEGGER/SEGGER_SYSVIEW.c ****     }
 497:../../../SystemView/SEGGER/SEGGER_SYSVIEW.c ****   }
 498:../../../SystemView/SEGGER/SEGGER_SYSVIEW.c **** }
 442              		.loc 1 498 0
 443 00aa 0837     		adds	r7, r7, #8
 444              	.LCFI21:
 445              		.cfi_def_cfa_offset 8
 446 00ac BD46     		mov	sp, r7
 447              	.LCFI22:
 448              		.cfi_def_cfa_register 13
 449              		@ sp needed
 450 00ae 80BD     		pop	{r7, pc}
 451              		.cfi_endproc
 452              	.LFE3:
 454              		.section	.text._TrySendOverflowPacket,"ax",%progbits
 455              		.align	2
 456              		.thumb
 457              		.thumb_func
 459              	_TrySendOverflowPacket:
 460              	.LFB4:
 499:../../../SystemView/SEGGER/SEGGER_SYSVIEW.c **** #endif // (SEGGER_SYSVIEW_POST_MORTEM_MODE != 1)
 500:../../../SystemView/SEGGER/SEGGER_SYSVIEW.c **** 
 501:../../../SystemView/SEGGER/SEGGER_SYSVIEW.c **** /*********************************************************************
 502:../../../SystemView/SEGGER/SEGGER_SYSVIEW.c **** *
 503:../../../SystemView/SEGGER/SEGGER_SYSVIEW.c **** *       _TrySendOverflowPacket()
 504:../../../SystemView/SEGGER/SEGGER_SYSVIEW.c **** *
 505:../../../SystemView/SEGGER/SEGGER_SYSVIEW.c **** *  Function description
 506:../../../SystemView/SEGGER/SEGGER_SYSVIEW.c **** *    Try to transmit an SystemView Overflow packet containing the
 507:../../../SystemView/SEGGER/SEGGER_SYSVIEW.c **** *    number of dropped packets.
 508:../../../SystemView/SEGGER/SEGGER_SYSVIEW.c **** *
 509:../../../SystemView/SEGGER/SEGGER_SYSVIEW.c **** *  Additional information
 510:../../../SystemView/SEGGER/SEGGER_SYSVIEW.c **** *    Format as follows:
 511:../../../SystemView/SEGGER/SEGGER_SYSVIEW.c **** *      01 <DropCnt><TimeStamp>  Max. packet len is 1 + 5 + 5 = 11
 512:../../../SystemView/SEGGER/SEGGER_SYSVIEW.c **** *
 513:../../../SystemView/SEGGER/SEGGER_SYSVIEW.c **** *    Example packets sent
 514:../../../SystemView/SEGGER/SEGGER_SYSVIEW.c **** *      01 20 40
ARM GAS  /tmp/ccJhHFds.s 			page 18


 515:../../../SystemView/SEGGER/SEGGER_SYSVIEW.c **** *
 516:../../../SystemView/SEGGER/SEGGER_SYSVIEW.c **** *  Return value
 517:../../../SystemView/SEGGER/SEGGER_SYSVIEW.c **** *    !=0:  Success, Message sent (stored in RTT-Buffer)
 518:../../../SystemView/SEGGER/SEGGER_SYSVIEW.c **** *    ==0:  Buffer full, Message *NOT* stored
 519:../../../SystemView/SEGGER/SEGGER_SYSVIEW.c **** *
 520:../../../SystemView/SEGGER/SEGGER_SYSVIEW.c **** */
 521:../../../SystemView/SEGGER/SEGGER_SYSVIEW.c **** #if (SEGGER_SYSVIEW_POST_MORTEM_MODE != 1)
 522:../../../SystemView/SEGGER/SEGGER_SYSVIEW.c **** static int _TrySendOverflowPacket(void) {
 461              		.loc 1 522 0
 462              		.cfi_startproc
 463              		@ args = 0, pretend = 0, frame = 48
 464              		@ frame_needed = 1, uses_anonymous_args = 0
 465 0000 80B5     		push	{r7, lr}
 466              	.LCFI23:
 467              		.cfi_def_cfa_offset 8
 468              		.cfi_offset 7, -8
 469              		.cfi_offset 14, -4
 470 0002 8CB0     		sub	sp, sp, #48
 471              	.LCFI24:
 472              		.cfi_def_cfa_offset 56
 473 0004 00AF     		add	r7, sp, #0
 474              	.LCFI25:
 475              		.cfi_def_cfa_register 7
 523:../../../SystemView/SEGGER/SEGGER_SYSVIEW.c ****   U32 TimeStamp;
 524:../../../SystemView/SEGGER/SEGGER_SYSVIEW.c ****   I32 Delta;
 525:../../../SystemView/SEGGER/SEGGER_SYSVIEW.c ****   int Status;
 526:../../../SystemView/SEGGER/SEGGER_SYSVIEW.c ****   U8  aPacket[11];
 527:../../../SystemView/SEGGER/SEGGER_SYSVIEW.c ****   U8* pPayload;
 528:../../../SystemView/SEGGER/SEGGER_SYSVIEW.c **** 
 529:../../../SystemView/SEGGER/SEGGER_SYSVIEW.c ****   aPacket[0] = SYSVIEW_EVTID_OVERFLOW;      // 1
 476              		.loc 1 529 0
 477 0006 0123     		movs	r3, #1
 478 0008 3B71     		strb	r3, [r7, #4]
 530:../../../SystemView/SEGGER/SEGGER_SYSVIEW.c ****   pPayload   = &aPacket[1];
 479              		.loc 1 530 0
 480 000a 3B1D     		adds	r3, r7, #4
 481 000c 0133     		adds	r3, r3, #1
 482 000e FB61     		str	r3, [r7, #28]
 483              	.LBB2:
 531:../../../SystemView/SEGGER/SEGGER_SYSVIEW.c ****   ENCODE_U32(pPayload, _SYSVIEW_Globals.DropCount);
 484              		.loc 1 531 0
 485 0010 FB69     		ldr	r3, [r7, #28]
 486 0012 FB62     		str	r3, [r7, #44]
 487 0014 304B     		ldr	r3, .L38
 488 0016 5B69     		ldr	r3, [r3, #20]
 489 0018 BB62     		str	r3, [r7, #40]
 490 001a 0BE0     		b	.L31
 491              	.L32:
 492              		.loc 1 531 0 is_stmt 0 discriminator 3
 493 001c FB6A     		ldr	r3, [r7, #44]
 494 001e 5A1C     		adds	r2, r3, #1
 495 0020 FA62     		str	r2, [r7, #44]
 496 0022 BA6A     		ldr	r2, [r7, #40]
 497 0024 D2B2     		uxtb	r2, r2
 498 0026 62F07F02 		orn	r2, r2, #127
 499 002a D2B2     		uxtb	r2, r2
 500 002c 1A70     		strb	r2, [r3]
ARM GAS  /tmp/ccJhHFds.s 			page 19


 501 002e BB6A     		ldr	r3, [r7, #40]
 502 0030 DB09     		lsrs	r3, r3, #7
 503 0032 BB62     		str	r3, [r7, #40]
 504              	.L31:
 505              		.loc 1 531 0 discriminator 1
 506 0034 BB6A     		ldr	r3, [r7, #40]
 507 0036 7F2B     		cmp	r3, #127
 508 0038 F0D8     		bhi	.L32
 509              		.loc 1 531 0 discriminator 4
 510 003a FB6A     		ldr	r3, [r7, #44]
 511 003c 5A1C     		adds	r2, r3, #1
 512 003e FA62     		str	r2, [r7, #44]
 513 0040 BA6A     		ldr	r2, [r7, #40]
 514 0042 D2B2     		uxtb	r2, r2
 515 0044 1A70     		strb	r2, [r3]
 516 0046 FB6A     		ldr	r3, [r7, #44]
 517 0048 FB61     		str	r3, [r7, #28]
 518              	.LBE2:
 532:../../../SystemView/SEGGER/SEGGER_SYSVIEW.c ****   //
 533:../../../SystemView/SEGGER/SEGGER_SYSVIEW.c ****   // Compute time stamp delta and append it to packet.
 534:../../../SystemView/SEGGER/SEGGER_SYSVIEW.c ****   //
 535:../../../SystemView/SEGGER/SEGGER_SYSVIEW.c ****   TimeStamp  = SEGGER_SYSVIEW_GET_TIMESTAMP();
 519              		.loc 1 535 0 is_stmt 1 discriminator 4
 520 004a 244B     		ldr	r3, .L38+4
 521 004c 1B68     		ldr	r3, [r3]
 522 004e BB61     		str	r3, [r7, #24]
 536:../../../SystemView/SEGGER/SEGGER_SYSVIEW.c ****   Delta = TimeStamp - _SYSVIEW_Globals.LastTxTimeStamp;
 523              		.loc 1 536 0 discriminator 4
 524 0050 214B     		ldr	r3, .L38
 525 0052 DB68     		ldr	r3, [r3, #12]
 526 0054 BA69     		ldr	r2, [r7, #24]
 527 0056 D31A     		subs	r3, r2, r3
 528 0058 7B61     		str	r3, [r7, #20]
 529              	.LBB3:
 537:../../../SystemView/SEGGER/SEGGER_SYSVIEW.c ****   MAKE_DELTA_32BIT(Delta);
 538:../../../SystemView/SEGGER/SEGGER_SYSVIEW.c ****   ENCODE_U32(pPayload, Delta);
 530              		.loc 1 538 0 discriminator 4
 531 005a FB69     		ldr	r3, [r7, #28]
 532 005c 7B62     		str	r3, [r7, #36]
 533 005e 7B69     		ldr	r3, [r7, #20]
 534 0060 3B62     		str	r3, [r7, #32]
 535 0062 0BE0     		b	.L33
 536              	.L34:
 537              		.loc 1 538 0 is_stmt 0 discriminator 3
 538 0064 7B6A     		ldr	r3, [r7, #36]
 539 0066 5A1C     		adds	r2, r3, #1
 540 0068 7A62     		str	r2, [r7, #36]
 541 006a 3A6A     		ldr	r2, [r7, #32]
 542 006c D2B2     		uxtb	r2, r2
 543 006e 62F07F02 		orn	r2, r2, #127
 544 0072 D2B2     		uxtb	r2, r2
 545 0074 1A70     		strb	r2, [r3]
 546 0076 3B6A     		ldr	r3, [r7, #32]
 547 0078 DB09     		lsrs	r3, r3, #7
 548 007a 3B62     		str	r3, [r7, #32]
 549              	.L33:
 550              		.loc 1 538 0 discriminator 1
ARM GAS  /tmp/ccJhHFds.s 			page 20


 551 007c 3B6A     		ldr	r3, [r7, #32]
 552 007e 7F2B     		cmp	r3, #127
 553 0080 F0D8     		bhi	.L34
 554              		.loc 1 538 0 discriminator 4
 555 0082 7B6A     		ldr	r3, [r7, #36]
 556 0084 5A1C     		adds	r2, r3, #1
 557 0086 7A62     		str	r2, [r7, #36]
 558 0088 3A6A     		ldr	r2, [r7, #32]
 559 008a D2B2     		uxtb	r2, r2
 560 008c 1A70     		strb	r2, [r3]
 561 008e 7B6A     		ldr	r3, [r7, #36]
 562 0090 FB61     		str	r3, [r7, #28]
 563              	.LBE3:
 539:../../../SystemView/SEGGER/SEGGER_SYSVIEW.c ****   //
 540:../../../SystemView/SEGGER/SEGGER_SYSVIEW.c ****   // Try to store packet in RTT buffer and update time stamp when this was successful
 541:../../../SystemView/SEGGER/SEGGER_SYSVIEW.c ****   //
 542:../../../SystemView/SEGGER/SEGGER_SYSVIEW.c ****   Status = SEGGER_RTT_WriteSkipNoLock(CHANNEL_ID_UP, aPacket, pPayload - aPacket);
 564              		.loc 1 542 0 is_stmt 1 discriminator 4
 565 0092 FA69     		ldr	r2, [r7, #28]
 566 0094 3B1D     		adds	r3, r7, #4
 567 0096 D31A     		subs	r3, r2, r3
 568 0098 1A46     		mov	r2, r3
 569 009a 3B1D     		adds	r3, r7, #4
 570 009c 0120     		movs	r0, #1
 571 009e 1946     		mov	r1, r3
 572 00a0 FFF7FEFF 		bl	SEGGER_RTT_WriteSkipNoLock
 573 00a4 0346     		mov	r3, r0
 574 00a6 3B61     		str	r3, [r7, #16]
 543:../../../SystemView/SEGGER/SEGGER_SYSVIEW.c ****   if (Status) {
 575              		.loc 1 543 0 discriminator 4
 576 00a8 3B69     		ldr	r3, [r7, #16]
 577 00aa 002B     		cmp	r3, #0
 578 00ac 09D0     		beq	.L35
 544:../../../SystemView/SEGGER/SEGGER_SYSVIEW.c ****     _SYSVIEW_Globals.LastTxTimeStamp = TimeStamp;
 579              		.loc 1 544 0
 580 00ae 0A4A     		ldr	r2, .L38
 581 00b0 BB69     		ldr	r3, [r7, #24]
 582 00b2 D360     		str	r3, [r2, #12]
 545:../../../SystemView/SEGGER/SEGGER_SYSVIEW.c ****     _SYSVIEW_Globals.EnableState--; // EnableState has been 2, will be 1. Always.
 583              		.loc 1 545 0
 584 00b4 084B     		ldr	r3, .L38
 585 00b6 1B78     		ldrb	r3, [r3]	@ zero_extendqisi2
 586 00b8 013B     		subs	r3, r3, #1
 587 00ba DAB2     		uxtb	r2, r3
 588 00bc 064B     		ldr	r3, .L38
 589 00be 1A70     		strb	r2, [r3]
 590 00c0 04E0     		b	.L36
 591              	.L35:
 546:../../../SystemView/SEGGER/SEGGER_SYSVIEW.c ****   } else {
 547:../../../SystemView/SEGGER/SEGGER_SYSVIEW.c ****     _SYSVIEW_Globals.DropCount++;
 592              		.loc 1 547 0
 593 00c2 054B     		ldr	r3, .L38
 594 00c4 5B69     		ldr	r3, [r3, #20]
 595 00c6 0133     		adds	r3, r3, #1
 596 00c8 034A     		ldr	r2, .L38
 597 00ca 5361     		str	r3, [r2, #20]
 598              	.L36:
ARM GAS  /tmp/ccJhHFds.s 			page 21


 548:../../../SystemView/SEGGER/SEGGER_SYSVIEW.c ****   }
 549:../../../SystemView/SEGGER/SEGGER_SYSVIEW.c ****   //
 550:../../../SystemView/SEGGER/SEGGER_SYSVIEW.c ****   return Status;
 599              		.loc 1 550 0
 600 00cc 3B69     		ldr	r3, [r7, #16]
 551:../../../SystemView/SEGGER/SEGGER_SYSVIEW.c **** }
 601              		.loc 1 551 0
 602 00ce 1846     		mov	r0, r3
 603 00d0 3037     		adds	r7, r7, #48
 604              	.LCFI26:
 605              		.cfi_def_cfa_offset 8
 606 00d2 BD46     		mov	sp, r7
 607              	.LCFI27:
 608              		.cfi_def_cfa_register 13
 609              		@ sp needed
 610 00d4 80BD     		pop	{r7, pc}
 611              	.L39:
 612 00d6 00BF     		.align	2
 613              	.L38:
 614 00d8 00000000 		.word	_SYSVIEW_Globals
 615 00dc 041000E0 		.word	-536866812
 616              		.cfi_endproc
 617              	.LFE4:
 619              		.section	.text._SendPacket,"ax",%progbits
 620              		.align	2
 621              		.thumb
 622              		.thumb_func
 624              	_SendPacket:
 625              	.LFB5:
 552:../../../SystemView/SEGGER/SEGGER_SYSVIEW.c **** #endif  // (SEGGER_SYSVIEW_POST_MORTEM_MODE != 1)
 553:../../../SystemView/SEGGER/SEGGER_SYSVIEW.c **** 
 554:../../../SystemView/SEGGER/SEGGER_SYSVIEW.c **** /*********************************************************************
 555:../../../SystemView/SEGGER/SEGGER_SYSVIEW.c **** *
 556:../../../SystemView/SEGGER/SEGGER_SYSVIEW.c **** *       _SendSyncInfo()
 557:../../../SystemView/SEGGER/SEGGER_SYSVIEW.c **** *
 558:../../../SystemView/SEGGER/SEGGER_SYSVIEW.c **** *  Function description
 559:../../../SystemView/SEGGER/SEGGER_SYSVIEW.c **** *    Send SystemView sync packet and system information in 
 560:../../../SystemView/SEGGER/SEGGER_SYSVIEW.c **** *    post mortem mode.
 561:../../../SystemView/SEGGER/SEGGER_SYSVIEW.c **** *
 562:../../../SystemView/SEGGER/SEGGER_SYSVIEW.c **** *  Additional information
 563:../../../SystemView/SEGGER/SEGGER_SYSVIEW.c **** *    Sync is 10 * 0x00 without timestamp
 564:../../../SystemView/SEGGER/SEGGER_SYSVIEW.c **** */
 565:../../../SystemView/SEGGER/SEGGER_SYSVIEW.c **** #if (SEGGER_SYSVIEW_POST_MORTEM_MODE == 1)
 566:../../../SystemView/SEGGER/SEGGER_SYSVIEW.c **** static void _SendSyncInfo(void) {
 567:../../../SystemView/SEGGER/SEGGER_SYSVIEW.c ****   //
 568:../../../SystemView/SEGGER/SEGGER_SYSVIEW.c ****   // Add sync packet ( 10 * 0x00)
 569:../../../SystemView/SEGGER/SEGGER_SYSVIEW.c ****   // Send system description
 570:../../../SystemView/SEGGER/SEGGER_SYSVIEW.c ****   // Send system time
 571:../../../SystemView/SEGGER/SEGGER_SYSVIEW.c ****   // Send task list
 572:../../../SystemView/SEGGER/SEGGER_SYSVIEW.c ****   // Send module description
 573:../../../SystemView/SEGGER/SEGGER_SYSVIEW.c ****   // Send module information
 574:../../../SystemView/SEGGER/SEGGER_SYSVIEW.c ****   //
 575:../../../SystemView/SEGGER/SEGGER_SYSVIEW.c ****   SEGGER_RTT_WriteWithOverwriteNoLock(CHANNEL_ID_UP, _abSync, 10);
 576:../../../SystemView/SEGGER/SEGGER_SYSVIEW.c ****   SEGGER_SYSVIEW_RecordVoid(SYSVIEW_EVTID_TRACE_START);
 577:../../../SystemView/SEGGER/SEGGER_SYSVIEW.c ****   {
 578:../../../SystemView/SEGGER/SEGGER_SYSVIEW.c ****     U8* pPayload;
 579:../../../SystemView/SEGGER/SEGGER_SYSVIEW.c ****     U8* pPayloadStart;
ARM GAS  /tmp/ccJhHFds.s 			page 22


 580:../../../SystemView/SEGGER/SEGGER_SYSVIEW.c ****     RECORD_START(SEGGER_SYSVIEW_INFO_SIZE + 4 * SEGGER_SYSVIEW_QUANTA_U32);
 581:../../../SystemView/SEGGER/SEGGER_SYSVIEW.c ****     //
 582:../../../SystemView/SEGGER/SEGGER_SYSVIEW.c ****     pPayload = pPayloadStart;
 583:../../../SystemView/SEGGER/SEGGER_SYSVIEW.c ****     ENCODE_U32(pPayload, _SYSVIEW_Globals.SysFreq);
 584:../../../SystemView/SEGGER/SEGGER_SYSVIEW.c ****     ENCODE_U32(pPayload, _SYSVIEW_Globals.CPUFreq);
 585:../../../SystemView/SEGGER/SEGGER_SYSVIEW.c ****     ENCODE_U32(pPayload, _SYSVIEW_Globals.RAMBaseAddress);
 586:../../../SystemView/SEGGER/SEGGER_SYSVIEW.c ****     ENCODE_U32(pPayload, SEGGER_SYSVIEW_ID_SHIFT);
 587:../../../SystemView/SEGGER/SEGGER_SYSVIEW.c ****     _SendPacket(pPayloadStart, pPayload, SYSVIEW_EVTID_INIT);
 588:../../../SystemView/SEGGER/SEGGER_SYSVIEW.c ****     RECORD_END();
 589:../../../SystemView/SEGGER/SEGGER_SYSVIEW.c ****   }
 590:../../../SystemView/SEGGER/SEGGER_SYSVIEW.c ****   if (_SYSVIEW_Globals.pfSendSysDesc) {
 591:../../../SystemView/SEGGER/SEGGER_SYSVIEW.c ****     _SYSVIEW_Globals.pfSendSysDesc();
 592:../../../SystemView/SEGGER/SEGGER_SYSVIEW.c ****   }
 593:../../../SystemView/SEGGER/SEGGER_SYSVIEW.c ****   SEGGER_SYSVIEW_RecordSystime();
 594:../../../SystemView/SEGGER/SEGGER_SYSVIEW.c ****   SEGGER_SYSVIEW_SendTaskList();
 595:../../../SystemView/SEGGER/SEGGER_SYSVIEW.c ****   if (_NumModules > 0) {
 596:../../../SystemView/SEGGER/SEGGER_SYSVIEW.c ****     SEGGER_SYSVIEW_SendNumModules();
 597:../../../SystemView/SEGGER/SEGGER_SYSVIEW.c ****     for (int n = 0; n < _NumModules; n++) {
 598:../../../SystemView/SEGGER/SEGGER_SYSVIEW.c ****       SEGGER_SYSVIEW_SendModule(n);
 599:../../../SystemView/SEGGER/SEGGER_SYSVIEW.c ****     }
 600:../../../SystemView/SEGGER/SEGGER_SYSVIEW.c ****     SEGGER_SYSVIEW_SendModuleDescription();
 601:../../../SystemView/SEGGER/SEGGER_SYSVIEW.c ****   }
 602:../../../SystemView/SEGGER/SEGGER_SYSVIEW.c **** }
 603:../../../SystemView/SEGGER/SEGGER_SYSVIEW.c **** #endif  // (SEGGER_SYSVIEW_POST_MORTEM_MODE == 1)
 604:../../../SystemView/SEGGER/SEGGER_SYSVIEW.c **** 
 605:../../../SystemView/SEGGER/SEGGER_SYSVIEW.c **** /*********************************************************************
 606:../../../SystemView/SEGGER/SEGGER_SYSVIEW.c **** *
 607:../../../SystemView/SEGGER/SEGGER_SYSVIEW.c **** *       _SendPacket()
 608:../../../SystemView/SEGGER/SEGGER_SYSVIEW.c **** *
 609:../../../SystemView/SEGGER/SEGGER_SYSVIEW.c **** *  Function description
 610:../../../SystemView/SEGGER/SEGGER_SYSVIEW.c **** *    Send a SystemView packet over RTT. RTT channel and mode are
 611:../../../SystemView/SEGGER/SEGGER_SYSVIEW.c **** *    configured by macros when the SystemView component is initialized.
 612:../../../SystemView/SEGGER/SEGGER_SYSVIEW.c **** *    This function takes care of maintaining the packet drop count
 613:../../../SystemView/SEGGER/SEGGER_SYSVIEW.c **** *    and sending overflow packets when necessary.
 614:../../../SystemView/SEGGER/SEGGER_SYSVIEW.c **** *    The packet must be passed without Id and Length because this
 615:../../../SystemView/SEGGER/SEGGER_SYSVIEW.c **** *    function prepends it to the packet before transmission.
 616:../../../SystemView/SEGGER/SEGGER_SYSVIEW.c **** *
 617:../../../SystemView/SEGGER/SEGGER_SYSVIEW.c **** *  Parameters
 618:../../../SystemView/SEGGER/SEGGER_SYSVIEW.c **** *    pStartPacket - Pointer to start of packet payload.
 619:../../../SystemView/SEGGER/SEGGER_SYSVIEW.c **** *                   There must be at least 4 bytes free to prepend Id and Length.
 620:../../../SystemView/SEGGER/SEGGER_SYSVIEW.c **** *    pEndPacket   - Pointer to end of packet payload.
 621:../../../SystemView/SEGGER/SEGGER_SYSVIEW.c **** *    EventId      - Id of the event to send.
 622:../../../SystemView/SEGGER/SEGGER_SYSVIEW.c **** *
 623:../../../SystemView/SEGGER/SEGGER_SYSVIEW.c **** */
 624:../../../SystemView/SEGGER/SEGGER_SYSVIEW.c **** static void _SendPacket(U8* pStartPacket, U8* pEndPacket, unsigned int EventId) {
 626              		.loc 1 624 0
 627              		.cfi_startproc
 628              		@ args = 0, pretend = 0, frame = 40
 629              		@ frame_needed = 1, uses_anonymous_args = 0
 630 0000 80B5     		push	{r7, lr}
 631              	.LCFI28:
 632              		.cfi_def_cfa_offset 8
 633              		.cfi_offset 7, -8
 634              		.cfi_offset 14, -4
 635 0002 8AB0     		sub	sp, sp, #40
 636              	.LCFI29:
 637              		.cfi_def_cfa_offset 48
ARM GAS  /tmp/ccJhHFds.s 			page 23


 638 0004 00AF     		add	r7, sp, #0
 639              	.LCFI30:
 640              		.cfi_def_cfa_register 7
 641 0006 F860     		str	r0, [r7, #12]
 642 0008 B960     		str	r1, [r7, #8]
 643 000a 7A60     		str	r2, [r7, #4]
 625:../../../SystemView/SEGGER/SEGGER_SYSVIEW.c ****   unsigned int  NumBytes;
 626:../../../SystemView/SEGGER/SEGGER_SYSVIEW.c ****   U32           TimeStamp;
 627:../../../SystemView/SEGGER/SEGGER_SYSVIEW.c ****   U32           Delta;
 628:../../../SystemView/SEGGER/SEGGER_SYSVIEW.c **** #if (SEGGER_SYSVIEW_POST_MORTEM_MODE != 1)
 629:../../../SystemView/SEGGER/SEGGER_SYSVIEW.c ****   int           Status;
 630:../../../SystemView/SEGGER/SEGGER_SYSVIEW.c **** #endif
 631:../../../SystemView/SEGGER/SEGGER_SYSVIEW.c **** 
 632:../../../SystemView/SEGGER/SEGGER_SYSVIEW.c **** #if (SEGGER_SYSVIEW_USE_STATIC_BUFFER == 0)
 633:../../../SystemView/SEGGER/SEGGER_SYSVIEW.c ****   SEGGER_SYSVIEW_LOCK();
 634:../../../SystemView/SEGGER/SEGGER_SYSVIEW.c **** #endif
 635:../../../SystemView/SEGGER/SEGGER_SYSVIEW.c **** 
 636:../../../SystemView/SEGGER/SEGGER_SYSVIEW.c **** #if (SEGGER_SYSVIEW_POST_MORTEM_MODE == 1)
 637:../../../SystemView/SEGGER/SEGGER_SYSVIEW.c ****   if (_SYSVIEW_Globals.EnableState == 0) {
 638:../../../SystemView/SEGGER/SEGGER_SYSVIEW.c ****     goto SendDone;
 639:../../../SystemView/SEGGER/SEGGER_SYSVIEW.c ****   }
 640:../../../SystemView/SEGGER/SEGGER_SYSVIEW.c **** #else
 641:../../../SystemView/SEGGER/SEGGER_SYSVIEW.c ****   if (_SYSVIEW_Globals.EnableState == 1) {  // Enabled, no dropped packets remaining
 644              		.loc 1 641 0
 645 000c 5E4B     		ldr	r3, .L55
 646 000e 1B78     		ldrb	r3, [r3]	@ zero_extendqisi2
 647 0010 012B     		cmp	r3, #1
 648 0012 00D1     		bne	.L41
 642:../../../SystemView/SEGGER/SEGGER_SYSVIEW.c ****     goto Send;
 649              		.loc 1 642 0
 650 0014 0FE0     		b	.L42
 651              	.L41:
 643:../../../SystemView/SEGGER/SEGGER_SYSVIEW.c ****   }
 644:../../../SystemView/SEGGER/SEGGER_SYSVIEW.c ****   if (_SYSVIEW_Globals.EnableState == 0) {
 652              		.loc 1 644 0
 653 0016 5C4B     		ldr	r3, .L55
 654 0018 1B78     		ldrb	r3, [r3]	@ zero_extendqisi2
 655 001a 002B     		cmp	r3, #0
 656 001c 00D1     		bne	.L43
 645:../../../SystemView/SEGGER/SEGGER_SYSVIEW.c ****     goto SendDone;
 657              		.loc 1 645 0
 658 001e 9BE0     		b	.L44
 659              	.L43:
 646:../../../SystemView/SEGGER/SEGGER_SYSVIEW.c ****   }
 647:../../../SystemView/SEGGER/SEGGER_SYSVIEW.c ****   //
 648:../../../SystemView/SEGGER/SEGGER_SYSVIEW.c ****   // Handle buffer full situations:
 649:../../../SystemView/SEGGER/SEGGER_SYSVIEW.c ****   // Have packets been dropped before because buffer was full?
 650:../../../SystemView/SEGGER/SEGGER_SYSVIEW.c ****   // In this case try to send and overflow packet.
 651:../../../SystemView/SEGGER/SEGGER_SYSVIEW.c ****   //
 652:../../../SystemView/SEGGER/SEGGER_SYSVIEW.c ****   if (_SYSVIEW_Globals.EnableState == 2) {
 660              		.loc 1 652 0
 661 0020 594B     		ldr	r3, .L55
 662 0022 1B78     		ldrb	r3, [r3]	@ zero_extendqisi2
 663 0024 022B     		cmp	r3, #2
 664 0026 06D1     		bne	.L42
 653:../../../SystemView/SEGGER/SEGGER_SYSVIEW.c ****     _TrySendOverflowPacket();
 665              		.loc 1 653 0
ARM GAS  /tmp/ccJhHFds.s 			page 24


 666 0028 FFF7FEFF 		bl	_TrySendOverflowPacket
 654:../../../SystemView/SEGGER/SEGGER_SYSVIEW.c ****     if (_SYSVIEW_Globals.EnableState != 1) {
 667              		.loc 1 654 0
 668 002c 564B     		ldr	r3, .L55
 669 002e 1B78     		ldrb	r3, [r3]	@ zero_extendqisi2
 670 0030 012B     		cmp	r3, #1
 671 0032 00D0     		beq	.L42
 655:../../../SystemView/SEGGER/SEGGER_SYSVIEW.c ****       goto SendDone;
 672              		.loc 1 655 0
 673 0034 90E0     		b	.L44
 674              	.L42:
 656:../../../SystemView/SEGGER/SEGGER_SYSVIEW.c ****     }
 657:../../../SystemView/SEGGER/SEGGER_SYSVIEW.c ****   }
 658:../../../SystemView/SEGGER/SEGGER_SYSVIEW.c **** Send:
 659:../../../SystemView/SEGGER/SEGGER_SYSVIEW.c **** #endif
 660:../../../SystemView/SEGGER/SEGGER_SYSVIEW.c ****   //
 661:../../../SystemView/SEGGER/SEGGER_SYSVIEW.c ****   // Check if event is disabled from being recorded.
 662:../../../SystemView/SEGGER/SEGGER_SYSVIEW.c ****   //
 663:../../../SystemView/SEGGER/SEGGER_SYSVIEW.c ****   if (EventId < 32) {
 675              		.loc 1 663 0
 676 0036 7B68     		ldr	r3, [r7, #4]
 677 0038 1F2B     		cmp	r3, #31
 678 003a 09D8     		bhi	.L45
 664:../../../SystemView/SEGGER/SEGGER_SYSVIEW.c ****     if (_SYSVIEW_Globals.DisabledEvents & ((U32)1u << EventId)) {
 679              		.loc 1 664 0
 680 003c 524B     		ldr	r3, .L55
 681 003e DA69     		ldr	r2, [r3, #28]
 682 0040 7B68     		ldr	r3, [r7, #4]
 683 0042 22FA03F3 		lsr	r3, r2, r3
 684 0046 03F00103 		and	r3, r3, #1
 685 004a 002B     		cmp	r3, #0
 686 004c 00D0     		beq	.L45
 665:../../../SystemView/SEGGER/SEGGER_SYSVIEW.c ****       goto SendDone;
 687              		.loc 1 665 0
 688 004e 83E0     		b	.L44
 689              	.L45:
 666:../../../SystemView/SEGGER/SEGGER_SYSVIEW.c ****     }
 667:../../../SystemView/SEGGER/SEGGER_SYSVIEW.c ****   }
 668:../../../SystemView/SEGGER/SEGGER_SYSVIEW.c ****   //
 669:../../../SystemView/SEGGER/SEGGER_SYSVIEW.c ****   // Prepare actual packet.
 670:../../../SystemView/SEGGER/SEGGER_SYSVIEW.c ****   // If it is a known packet, prepend eventId only,
 671:../../../SystemView/SEGGER/SEGGER_SYSVIEW.c ****   // otherwise prepend packet length and eventId.
 672:../../../SystemView/SEGGER/SEGGER_SYSVIEW.c ****   //
 673:../../../SystemView/SEGGER/SEGGER_SYSVIEW.c ****   if (EventId < 24) {
 690              		.loc 1 673 0
 691 0050 7B68     		ldr	r3, [r7, #4]
 692 0052 172B     		cmp	r3, #23
 693 0054 07D8     		bhi	.L46
 674:../../../SystemView/SEGGER/SEGGER_SYSVIEW.c ****     *--pStartPacket = EventId;
 694              		.loc 1 674 0
 695 0056 FB68     		ldr	r3, [r7, #12]
 696 0058 013B     		subs	r3, r3, #1
 697 005a FB60     		str	r3, [r7, #12]
 698 005c 7B68     		ldr	r3, [r7, #4]
 699 005e DAB2     		uxtb	r2, r3
 700 0060 FB68     		ldr	r3, [r7, #12]
 701 0062 1A70     		strb	r2, [r3]
ARM GAS  /tmp/ccJhHFds.s 			page 25


 702 0064 3DE0     		b	.L47
 703              	.L46:
 675:../../../SystemView/SEGGER/SEGGER_SYSVIEW.c ****   } else {
 676:../../../SystemView/SEGGER/SEGGER_SYSVIEW.c ****     NumBytes = pEndPacket - pStartPacket;
 704              		.loc 1 676 0
 705 0066 BA68     		ldr	r2, [r7, #8]
 706 0068 FB68     		ldr	r3, [r7, #12]
 707 006a D31A     		subs	r3, r2, r3
 708 006c FB61     		str	r3, [r7, #28]
 677:../../../SystemView/SEGGER/SEGGER_SYSVIEW.c ****     if (NumBytes > 127) {
 709              		.loc 1 677 0
 710 006e FB69     		ldr	r3, [r7, #28]
 711 0070 7F2B     		cmp	r3, #127
 712 0072 12D9     		bls	.L48
 678:../../../SystemView/SEGGER/SEGGER_SYSVIEW.c ****       *--pStartPacket = (NumBytes >> 7);
 713              		.loc 1 678 0
 714 0074 FB68     		ldr	r3, [r7, #12]
 715 0076 013B     		subs	r3, r3, #1
 716 0078 FB60     		str	r3, [r7, #12]
 717 007a FB69     		ldr	r3, [r7, #28]
 718 007c DB09     		lsrs	r3, r3, #7
 719 007e DAB2     		uxtb	r2, r3
 720 0080 FB68     		ldr	r3, [r7, #12]
 721 0082 1A70     		strb	r2, [r3]
 679:../../../SystemView/SEGGER/SEGGER_SYSVIEW.c ****       *--pStartPacket = NumBytes | 0x80;
 722              		.loc 1 679 0
 723 0084 FB68     		ldr	r3, [r7, #12]
 724 0086 013B     		subs	r3, r3, #1
 725 0088 FB60     		str	r3, [r7, #12]
 726 008a FB69     		ldr	r3, [r7, #28]
 727 008c DBB2     		uxtb	r3, r3
 728 008e 63F07F03 		orn	r3, r3, #127
 729 0092 DAB2     		uxtb	r2, r3
 730 0094 FB68     		ldr	r3, [r7, #12]
 731 0096 1A70     		strb	r2, [r3]
 732 0098 06E0     		b	.L49
 733              	.L48:
 680:../../../SystemView/SEGGER/SEGGER_SYSVIEW.c ****     } else {
 681:../../../SystemView/SEGGER/SEGGER_SYSVIEW.c ****       *--pStartPacket = NumBytes;
 734              		.loc 1 681 0
 735 009a FB68     		ldr	r3, [r7, #12]
 736 009c 013B     		subs	r3, r3, #1
 737 009e FB60     		str	r3, [r7, #12]
 738 00a0 FB69     		ldr	r3, [r7, #28]
 739 00a2 DAB2     		uxtb	r2, r3
 740 00a4 FB68     		ldr	r3, [r7, #12]
 741 00a6 1A70     		strb	r2, [r3]
 742              	.L49:
 682:../../../SystemView/SEGGER/SEGGER_SYSVIEW.c ****     }
 683:../../../SystemView/SEGGER/SEGGER_SYSVIEW.c ****     if (EventId > 127) {
 743              		.loc 1 683 0
 744 00a8 7B68     		ldr	r3, [r7, #4]
 745 00aa 7F2B     		cmp	r3, #127
 746 00ac 12D9     		bls	.L50
 684:../../../SystemView/SEGGER/SEGGER_SYSVIEW.c ****       *--pStartPacket = (EventId >> 7);
 747              		.loc 1 684 0
 748 00ae FB68     		ldr	r3, [r7, #12]
ARM GAS  /tmp/ccJhHFds.s 			page 26


 749 00b0 013B     		subs	r3, r3, #1
 750 00b2 FB60     		str	r3, [r7, #12]
 751 00b4 7B68     		ldr	r3, [r7, #4]
 752 00b6 DB09     		lsrs	r3, r3, #7
 753 00b8 DAB2     		uxtb	r2, r3
 754 00ba FB68     		ldr	r3, [r7, #12]
 755 00bc 1A70     		strb	r2, [r3]
 685:../../../SystemView/SEGGER/SEGGER_SYSVIEW.c ****       *--pStartPacket = EventId | 0x80;
 756              		.loc 1 685 0
 757 00be FB68     		ldr	r3, [r7, #12]
 758 00c0 013B     		subs	r3, r3, #1
 759 00c2 FB60     		str	r3, [r7, #12]
 760 00c4 7B68     		ldr	r3, [r7, #4]
 761 00c6 DBB2     		uxtb	r3, r3
 762 00c8 63F07F03 		orn	r3, r3, #127
 763 00cc DAB2     		uxtb	r2, r3
 764 00ce FB68     		ldr	r3, [r7, #12]
 765 00d0 1A70     		strb	r2, [r3]
 766 00d2 06E0     		b	.L47
 767              	.L50:
 686:../../../SystemView/SEGGER/SEGGER_SYSVIEW.c ****     } else {
 687:../../../SystemView/SEGGER/SEGGER_SYSVIEW.c ****       *--pStartPacket = EventId;
 768              		.loc 1 687 0
 769 00d4 FB68     		ldr	r3, [r7, #12]
 770 00d6 013B     		subs	r3, r3, #1
 771 00d8 FB60     		str	r3, [r7, #12]
 772 00da 7B68     		ldr	r3, [r7, #4]
 773 00dc DAB2     		uxtb	r2, r3
 774 00de FB68     		ldr	r3, [r7, #12]
 775 00e0 1A70     		strb	r2, [r3]
 776              	.L47:
 688:../../../SystemView/SEGGER/SEGGER_SYSVIEW.c ****     }
 689:../../../SystemView/SEGGER/SEGGER_SYSVIEW.c ****   }
 690:../../../SystemView/SEGGER/SEGGER_SYSVIEW.c ****   //
 691:../../../SystemView/SEGGER/SEGGER_SYSVIEW.c ****   // Compute time stamp delta and append it to packet.
 692:../../../SystemView/SEGGER/SEGGER_SYSVIEW.c ****   //
 693:../../../SystemView/SEGGER/SEGGER_SYSVIEW.c ****   TimeStamp  = SEGGER_SYSVIEW_GET_TIMESTAMP();
 777              		.loc 1 693 0
 778 00e2 2A4B     		ldr	r3, .L55+4
 779 00e4 1B68     		ldr	r3, [r3]
 780 00e6 BB61     		str	r3, [r7, #24]
 694:../../../SystemView/SEGGER/SEGGER_SYSVIEW.c ****   Delta = TimeStamp - _SYSVIEW_Globals.LastTxTimeStamp;
 781              		.loc 1 694 0
 782 00e8 274B     		ldr	r3, .L55
 783 00ea DB68     		ldr	r3, [r3, #12]
 784 00ec BA69     		ldr	r2, [r7, #24]
 785 00ee D31A     		subs	r3, r2, r3
 786 00f0 7B61     		str	r3, [r7, #20]
 787              	.LBB4:
 695:../../../SystemView/SEGGER/SEGGER_SYSVIEW.c ****   MAKE_DELTA_32BIT(Delta);
 696:../../../SystemView/SEGGER/SEGGER_SYSVIEW.c ****   ENCODE_U32(pEndPacket, Delta);
 788              		.loc 1 696 0
 789 00f2 BB68     		ldr	r3, [r7, #8]
 790 00f4 7B62     		str	r3, [r7, #36]
 791 00f6 7B69     		ldr	r3, [r7, #20]
 792 00f8 3B62     		str	r3, [r7, #32]
 793 00fa 0BE0     		b	.L51
ARM GAS  /tmp/ccJhHFds.s 			page 27


 794              	.L52:
 795              		.loc 1 696 0 is_stmt 0 discriminator 3
 796 00fc 7B6A     		ldr	r3, [r7, #36]
 797 00fe 5A1C     		adds	r2, r3, #1
 798 0100 7A62     		str	r2, [r7, #36]
 799 0102 3A6A     		ldr	r2, [r7, #32]
 800 0104 D2B2     		uxtb	r2, r2
 801 0106 62F07F02 		orn	r2, r2, #127
 802 010a D2B2     		uxtb	r2, r2
 803 010c 1A70     		strb	r2, [r3]
 804 010e 3B6A     		ldr	r3, [r7, #32]
 805 0110 DB09     		lsrs	r3, r3, #7
 806 0112 3B62     		str	r3, [r7, #32]
 807              	.L51:
 808              		.loc 1 696 0 discriminator 1
 809 0114 3B6A     		ldr	r3, [r7, #32]
 810 0116 7F2B     		cmp	r3, #127
 811 0118 F0D8     		bhi	.L52
 812              		.loc 1 696 0 discriminator 4
 813 011a 7B6A     		ldr	r3, [r7, #36]
 814 011c 5A1C     		adds	r2, r3, #1
 815 011e 7A62     		str	r2, [r7, #36]
 816 0120 3A6A     		ldr	r2, [r7, #32]
 817 0122 D2B2     		uxtb	r2, r2
 818 0124 1A70     		strb	r2, [r3]
 819 0126 7B6A     		ldr	r3, [r7, #36]
 820 0128 BB60     		str	r3, [r7, #8]
 821              	.LBE4:
 697:../../../SystemView/SEGGER/SEGGER_SYSVIEW.c **** #if (SEGGER_SYSVIEW_POST_MORTEM_MODE == 1)
 698:../../../SystemView/SEGGER/SEGGER_SYSVIEW.c ****   //
 699:../../../SystemView/SEGGER/SEGGER_SYSVIEW.c ****   // Store packet in RTT buffer by overwriting old data and update time stamp
 700:../../../SystemView/SEGGER/SEGGER_SYSVIEW.c ****   //
 701:../../../SystemView/SEGGER/SEGGER_SYSVIEW.c ****   SEGGER_RTT_WriteWithOverwriteNoLock(CHANNEL_ID_UP, pStartPacket, pEndPacket - pStartPacket);
 702:../../../SystemView/SEGGER/SEGGER_SYSVIEW.c ****   _SYSVIEW_Globals.LastTxTimeStamp = TimeStamp;
 703:../../../SystemView/SEGGER/SEGGER_SYSVIEW.c **** #else
 704:../../../SystemView/SEGGER/SEGGER_SYSVIEW.c ****   //
 705:../../../SystemView/SEGGER/SEGGER_SYSVIEW.c ****   // Try to store packet in RTT buffer and update time stamp when this was successful
 706:../../../SystemView/SEGGER/SEGGER_SYSVIEW.c ****   //
 707:../../../SystemView/SEGGER/SEGGER_SYSVIEW.c ****   Status = SEGGER_RTT_WriteSkipNoLock(CHANNEL_ID_UP, pStartPacket, pEndPacket - pStartPacket);
 822              		.loc 1 707 0 is_stmt 1 discriminator 4
 823 012a BA68     		ldr	r2, [r7, #8]
 824 012c FB68     		ldr	r3, [r7, #12]
 825 012e D31A     		subs	r3, r2, r3
 826 0130 0120     		movs	r0, #1
 827 0132 F968     		ldr	r1, [r7, #12]
 828 0134 1A46     		mov	r2, r3
 829 0136 FFF7FEFF 		bl	SEGGER_RTT_WriteSkipNoLock
 830 013a 0346     		mov	r3, r0
 831 013c 3B61     		str	r3, [r7, #16]
 708:../../../SystemView/SEGGER/SEGGER_SYSVIEW.c ****   if (Status) {
 832              		.loc 1 708 0 discriminator 4
 833 013e 3B69     		ldr	r3, [r7, #16]
 834 0140 002B     		cmp	r3, #0
 835 0142 03D0     		beq	.L53
 709:../../../SystemView/SEGGER/SEGGER_SYSVIEW.c ****     _SYSVIEW_Globals.LastTxTimeStamp = TimeStamp;
 836              		.loc 1 709 0
 837 0144 104A     		ldr	r2, .L55
ARM GAS  /tmp/ccJhHFds.s 			page 28


 838 0146 BB69     		ldr	r3, [r7, #24]
 839 0148 D360     		str	r3, [r2, #12]
 840 014a 05E0     		b	.L44
 841              	.L53:
 710:../../../SystemView/SEGGER/SEGGER_SYSVIEW.c ****   } else {
 711:../../../SystemView/SEGGER/SEGGER_SYSVIEW.c ****     _SYSVIEW_Globals.EnableState++; // EnableState has been 1, will be 2. Always.
 842              		.loc 1 711 0
 843 014c 0E4B     		ldr	r3, .L55
 844 014e 1B78     		ldrb	r3, [r3]	@ zero_extendqisi2
 845 0150 0133     		adds	r3, r3, #1
 846 0152 DAB2     		uxtb	r2, r3
 847 0154 0C4B     		ldr	r3, .L55
 848 0156 1A70     		strb	r2, [r3]
 849              	.L44:
 712:../../../SystemView/SEGGER/SEGGER_SYSVIEW.c ****   }
 713:../../../SystemView/SEGGER/SEGGER_SYSVIEW.c **** #endif
 714:../../../SystemView/SEGGER/SEGGER_SYSVIEW.c **** 
 715:../../../SystemView/SEGGER/SEGGER_SYSVIEW.c **** #if (SEGGER_SYSVIEW_POST_MORTEM_MODE == 1)
 716:../../../SystemView/SEGGER/SEGGER_SYSVIEW.c ****   //
 717:../../../SystemView/SEGGER/SEGGER_SYSVIEW.c ****   // Add sync and system information periodically if we are in post mortem mode
 718:../../../SystemView/SEGGER/SEGGER_SYSVIEW.c ****   //
 719:../../../SystemView/SEGGER/SEGGER_SYSVIEW.c ****   if (_SYSVIEW_Globals.RecursionCnt == 0) {   // Avoid uncontrolled nesting. This way, this routine
 720:../../../SystemView/SEGGER/SEGGER_SYSVIEW.c ****     _SYSVIEW_Globals.RecursionCnt = 1;
 721:../../../SystemView/SEGGER/SEGGER_SYSVIEW.c ****     if (_SYSVIEW_Globals.PacketCount++ & (1 << SEGGER_SYSVIEW_SYNC_PERIOD_SHIFT)) {
 722:../../../SystemView/SEGGER/SEGGER_SYSVIEW.c ****       _SendSyncInfo();
 723:../../../SystemView/SEGGER/SEGGER_SYSVIEW.c ****       _SYSVIEW_Globals.PacketCount = 0;
 724:../../../SystemView/SEGGER/SEGGER_SYSVIEW.c ****     }
 725:../../../SystemView/SEGGER/SEGGER_SYSVIEW.c ****     _SYSVIEW_Globals.RecursionCnt = 0;
 726:../../../SystemView/SEGGER/SEGGER_SYSVIEW.c ****   }
 727:../../../SystemView/SEGGER/SEGGER_SYSVIEW.c **** SendDone:
 728:../../../SystemView/SEGGER/SEGGER_SYSVIEW.c ****   ; // Avoid "label at end of compound statement" error when using static buffer
 729:../../../SystemView/SEGGER/SEGGER_SYSVIEW.c **** #else
 730:../../../SystemView/SEGGER/SEGGER_SYSVIEW.c **** SendDone:
 731:../../../SystemView/SEGGER/SEGGER_SYSVIEW.c ****   //
 732:../../../SystemView/SEGGER/SEGGER_SYSVIEW.c ****   // Check if host is sending data which needs to be processed.
 733:../../../SystemView/SEGGER/SEGGER_SYSVIEW.c ****   // Note that since this code is called for every packet, it is very time critical, so we do
 734:../../../SystemView/SEGGER/SEGGER_SYSVIEW.c ****   // only what is really needed here, which is checking if there is any data
 735:../../../SystemView/SEGGER/SEGGER_SYSVIEW.c ****   //
 736:../../../SystemView/SEGGER/SEGGER_SYSVIEW.c ****   if (SEGGER_RTT_HASDATA(CHANNEL_ID_DOWN)) {
 850              		.loc 1 736 0
 851 0158 0D4B     		ldr	r3, .L55+8
 852 015a D3F88420 		ldr	r2, [r3, #132]
 853 015e 0C4B     		ldr	r3, .L55+8
 854 0160 D3F88830 		ldr	r3, [r3, #136]
 855 0164 9A42     		cmp	r2, r3
 856 0166 0BD0     		beq	.L40
 737:../../../SystemView/SEGGER/SEGGER_SYSVIEW.c ****     if (_SYSVIEW_Globals.RecursionCnt == 0) {   // Avoid uncontrolled nesting. This way, this routi
 857              		.loc 1 737 0
 858 0168 074B     		ldr	r3, .L55
 859 016a 9B78     		ldrb	r3, [r3, #2]	@ zero_extendqisi2
 860 016c 002B     		cmp	r3, #0
 861 016e 07D1     		bne	.L40
 738:../../../SystemView/SEGGER/SEGGER_SYSVIEW.c ****       _SYSVIEW_Globals.RecursionCnt = 1;
 862              		.loc 1 738 0
 863 0170 054B     		ldr	r3, .L55
 864 0172 0122     		movs	r2, #1
 865 0174 9A70     		strb	r2, [r3, #2]
ARM GAS  /tmp/ccJhHFds.s 			page 29


 739:../../../SystemView/SEGGER/SEGGER_SYSVIEW.c ****       _HandleIncomingPacket();
 866              		.loc 1 739 0
 867 0176 FFF7FEFF 		bl	_HandleIncomingPacket
 740:../../../SystemView/SEGGER/SEGGER_SYSVIEW.c ****       _SYSVIEW_Globals.RecursionCnt = 0;
 868              		.loc 1 740 0
 869 017a 034B     		ldr	r3, .L55
 870 017c 0022     		movs	r2, #0
 871 017e 9A70     		strb	r2, [r3, #2]
 872              	.L40:
 741:../../../SystemView/SEGGER/SEGGER_SYSVIEW.c ****     }
 742:../../../SystemView/SEGGER/SEGGER_SYSVIEW.c ****   }
 743:../../../SystemView/SEGGER/SEGGER_SYSVIEW.c **** #endif
 744:../../../SystemView/SEGGER/SEGGER_SYSVIEW.c ****   //
 745:../../../SystemView/SEGGER/SEGGER_SYSVIEW.c **** #if (SEGGER_SYSVIEW_USE_STATIC_BUFFER == 0)
 746:../../../SystemView/SEGGER/SEGGER_SYSVIEW.c ****   SEGGER_SYSVIEW_UNLOCK();  // We are done. Unlock and return
 747:../../../SystemView/SEGGER/SEGGER_SYSVIEW.c **** #endif
 748:../../../SystemView/SEGGER/SEGGER_SYSVIEW.c **** }
 873              		.loc 1 748 0
 874 0180 2837     		adds	r7, r7, #40
 875              	.LCFI31:
 876              		.cfi_def_cfa_offset 8
 877 0182 BD46     		mov	sp, r7
 878              	.LCFI32:
 879              		.cfi_def_cfa_register 13
 880              		@ sp needed
 881 0184 80BD     		pop	{r7, pc}
 882              	.L56:
 883 0186 00BF     		.align	2
 884              	.L55:
 885 0188 00000000 		.word	_SYSVIEW_Globals
 886 018c 041000E0 		.word	-536866812
 887 0190 00000000 		.word	_SEGGER_RTT
 888              		.cfi_endproc
 889              	.LFE5:
 891              		.section	.text._VPrintHost,"ax",%progbits
 892              		.align	2
 893              		.thumb
 894              		.thumb_func
 896              	_VPrintHost:
 897              	.LFB6:
 749:../../../SystemView/SEGGER/SEGGER_SYSVIEW.c **** 
 750:../../../SystemView/SEGGER/SEGGER_SYSVIEW.c **** #ifndef SEGGER_SYSVIEW_EXCLUDE_PRINTF // Define in project to avoid warnings about variable paramet
 751:../../../SystemView/SEGGER/SEGGER_SYSVIEW.c **** /*********************************************************************
 752:../../../SystemView/SEGGER/SEGGER_SYSVIEW.c **** *
 753:../../../SystemView/SEGGER/SEGGER_SYSVIEW.c **** *       _VPrintHost()
 754:../../../SystemView/SEGGER/SEGGER_SYSVIEW.c **** *
 755:../../../SystemView/SEGGER/SEGGER_SYSVIEW.c **** *  Function description
 756:../../../SystemView/SEGGER/SEGGER_SYSVIEW.c **** *    Send a format string and its parameters to the host.
 757:../../../SystemView/SEGGER/SEGGER_SYSVIEW.c **** *
 758:../../../SystemView/SEGGER/SEGGER_SYSVIEW.c **** *  Parameters
 759:../../../SystemView/SEGGER/SEGGER_SYSVIEW.c **** *    s            Pointer to format string.
 760:../../../SystemView/SEGGER/SEGGER_SYSVIEW.c **** *    Options      Options to be sent to the host.
 761:../../../SystemView/SEGGER/SEGGER_SYSVIEW.c **** *    pParamList   Pointer to the list of arguments for the format string.
 762:../../../SystemView/SEGGER/SEGGER_SYSVIEW.c **** */
 763:../../../SystemView/SEGGER/SEGGER_SYSVIEW.c **** static int _VPrintHost(const char* s, U32 Options, va_list* pParamList) {
 898              		.loc 1 763 0
 899              		.cfi_startproc
ARM GAS  /tmp/ccJhHFds.s 			page 30


 900              		@ args = 0, pretend = 0, frame = 136
 901              		@ frame_needed = 1, uses_anonymous_args = 0
 902 0000 80B5     		push	{r7, lr}
 903              	.LCFI33:
 904              		.cfi_def_cfa_offset 8
 905              		.cfi_offset 7, -8
 906              		.cfi_offset 14, -4
 907 0002 A2B0     		sub	sp, sp, #136
 908              	.LCFI34:
 909              		.cfi_def_cfa_offset 144
 910 0004 00AF     		add	r7, sp, #0
 911              	.LCFI35:
 912              		.cfi_def_cfa_register 7
 913 0006 F860     		str	r0, [r7, #12]
 914 0008 B960     		str	r1, [r7, #8]
 915 000a 7A60     		str	r2, [r7, #4]
 764:../../../SystemView/SEGGER/SEGGER_SYSVIEW.c ****   U32         aParas[SEGGER_SYSVIEW_MAX_ARGUMENTS];
 765:../../../SystemView/SEGGER/SEGGER_SYSVIEW.c ****   U32*        pParas;
 766:../../../SystemView/SEGGER/SEGGER_SYSVIEW.c ****   U32         NumArguments;
 767:../../../SystemView/SEGGER/SEGGER_SYSVIEW.c ****   const char* p;
 768:../../../SystemView/SEGGER/SEGGER_SYSVIEW.c ****   char        c;
 769:../../../SystemView/SEGGER/SEGGER_SYSVIEW.c ****   U8*         pPayload;
 770:../../../SystemView/SEGGER/SEGGER_SYSVIEW.c ****   U8*         pPayloadStart;
 771:../../../SystemView/SEGGER/SEGGER_SYSVIEW.c **** #if SEGGER_SYSVIEW_PRINTF_IMPLICIT_FORMAT
 772:../../../SystemView/SEGGER/SEGGER_SYSVIEW.c ****   U8 HasNonScalar;
 773:../../../SystemView/SEGGER/SEGGER_SYSVIEW.c ****   
 774:../../../SystemView/SEGGER/SEGGER_SYSVIEW.c ****   HasNonScalar = 0;
 775:../../../SystemView/SEGGER/SEGGER_SYSVIEW.c **** #endif  
 776:../../../SystemView/SEGGER/SEGGER_SYSVIEW.c ****   //
 777:../../../SystemView/SEGGER/SEGGER_SYSVIEW.c ****   // Count number of arguments by counting '%' characters in string.
 778:../../../SystemView/SEGGER/SEGGER_SYSVIEW.c ****   // If enabled, check for non-scalar modifier flags to format string on the target.
 779:../../../SystemView/SEGGER/SEGGER_SYSVIEW.c ****   //
 780:../../../SystemView/SEGGER/SEGGER_SYSVIEW.c ****   p = s;
 916              		.loc 1 780 0
 917 000c FB68     		ldr	r3, [r7, #12]
 918 000e FB67     		str	r3, [r7, #124]
 781:../../../SystemView/SEGGER/SEGGER_SYSVIEW.c ****   NumArguments = 0;
 919              		.loc 1 781 0
 920 0010 0023     		movs	r3, #0
 921 0012 C7F88030 		str	r3, [r7, #128]
 922              	.L61:
 782:../../../SystemView/SEGGER/SEGGER_SYSVIEW.c ****   for (;;) {
 783:../../../SystemView/SEGGER/SEGGER_SYSVIEW.c ****     c = *p++;
 923              		.loc 1 783 0
 924 0016 FB6F     		ldr	r3, [r7, #124]
 925 0018 5A1C     		adds	r2, r3, #1
 926 001a FA67     		str	r2, [r7, #124]
 927 001c 1B78     		ldrb	r3, [r3]
 928 001e 87F85F30 		strb	r3, [r7, #95]
 784:../../../SystemView/SEGGER/SEGGER_SYSVIEW.c ****     if (c == 0) {
 929              		.loc 1 784 0
 930 0022 97F85F30 		ldrb	r3, [r7, #95]	@ zero_extendqisi2
 931 0026 002B     		cmp	r3, #0
 932 0028 00D1     		bne	.L58
 785:../../../SystemView/SEGGER/SEGGER_SYSVIEW.c ****       break;
 933              		.loc 1 785 0
 934 002a 1EE0     		b	.L59
ARM GAS  /tmp/ccJhHFds.s 			page 31


 935              	.L58:
 786:../../../SystemView/SEGGER/SEGGER_SYSVIEW.c ****     }
 787:../../../SystemView/SEGGER/SEGGER_SYSVIEW.c ****     if (c == '%') {
 936              		.loc 1 787 0
 937 002c 97F85F30 		ldrb	r3, [r7, #95]	@ zero_extendqisi2
 938 0030 252B     		cmp	r3, #37
 939 0032 19D1     		bne	.L60
 788:../../../SystemView/SEGGER/SEGGER_SYSVIEW.c ****       c = *p;
 940              		.loc 1 788 0
 941 0034 FB6F     		ldr	r3, [r7, #124]
 942 0036 1B78     		ldrb	r3, [r3]
 943 0038 87F85F30 		strb	r3, [r7, #95]
 789:../../../SystemView/SEGGER/SEGGER_SYSVIEW.c **** #if SEGGER_SYSVIEW_PRINTF_IMPLICIT_FORMAT == 0
 790:../../../SystemView/SEGGER/SEGGER_SYSVIEW.c ****       aParas[NumArguments++] = va_arg(*pParamList, int);
 944              		.loc 1 790 0
 945 003c D7F88030 		ldr	r3, [r7, #128]
 946 0040 5A1C     		adds	r2, r3, #1
 947 0042 C7F88020 		str	r2, [r7, #128]
 948 0046 7A68     		ldr	r2, [r7, #4]
 949 0048 1268     		ldr	r2, [r2]
 950 004a 101D     		adds	r0, r2, #4
 951 004c 7968     		ldr	r1, [r7, #4]
 952 004e 0860     		str	r0, [r1]
 953 0050 1268     		ldr	r2, [r2]
 954 0052 9B00     		lsls	r3, r3, #2
 955 0054 07F18801 		add	r1, r7, #136
 956 0058 0B44     		add	r3, r3, r1
 957 005a 43F8742C 		str	r2, [r3, #-116]
 791:../../../SystemView/SEGGER/SEGGER_SYSVIEW.c ****       if (NumArguments == SEGGER_SYSVIEW_MAX_ARGUMENTS) {
 958              		.loc 1 791 0
 959 005e D7F88030 		ldr	r3, [r7, #128]
 960 0062 102B     		cmp	r3, #16
 961 0064 00D1     		bne	.L60
 792:../../../SystemView/SEGGER/SEGGER_SYSVIEW.c ****         break;
 962              		.loc 1 792 0
 963 0066 00E0     		b	.L59
 964              	.L60:
 793:../../../SystemView/SEGGER/SEGGER_SYSVIEW.c ****       }
 794:../../../SystemView/SEGGER/SEGGER_SYSVIEW.c **** #else
 795:../../../SystemView/SEGGER/SEGGER_SYSVIEW.c ****       if (c == 's') {
 796:../../../SystemView/SEGGER/SEGGER_SYSVIEW.c ****         HasNonScalar = 1;
 797:../../../SystemView/SEGGER/SEGGER_SYSVIEW.c ****         break;
 798:../../../SystemView/SEGGER/SEGGER_SYSVIEW.c ****       } else {
 799:../../../SystemView/SEGGER/SEGGER_SYSVIEW.c ****         aParas[NumArguments++] = va_arg(*pParamList, int);
 800:../../../SystemView/SEGGER/SEGGER_SYSVIEW.c ****         if (NumArguments == SEGGER_SYSVIEW_MAX_ARGUMENTS) {
 801:../../../SystemView/SEGGER/SEGGER_SYSVIEW.c ****           break;
 802:../../../SystemView/SEGGER/SEGGER_SYSVIEW.c ****         }
 803:../../../SystemView/SEGGER/SEGGER_SYSVIEW.c ****       }
 804:../../../SystemView/SEGGER/SEGGER_SYSVIEW.c **** #endif
 805:../../../SystemView/SEGGER/SEGGER_SYSVIEW.c ****     }
 806:../../../SystemView/SEGGER/SEGGER_SYSVIEW.c ****   }
 965              		.loc 1 806 0
 966 0068 D5E7     		b	.L61
 967              	.L59:
 968              	.LBB5:
 807:../../../SystemView/SEGGER/SEGGER_SYSVIEW.c **** 
 808:../../../SystemView/SEGGER/SEGGER_SYSVIEW.c **** #if SEGGER_SYSVIEW_PRINTF_IMPLICIT_FORMAT
ARM GAS  /tmp/ccJhHFds.s 			page 32


 809:../../../SystemView/SEGGER/SEGGER_SYSVIEW.c ****   if (HasNonScalar) {
 810:../../../SystemView/SEGGER/SEGGER_SYSVIEW.c ****     return -1;
 811:../../../SystemView/SEGGER/SEGGER_SYSVIEW.c ****   }
 812:../../../SystemView/SEGGER/SEGGER_SYSVIEW.c **** #endif
 813:../../../SystemView/SEGGER/SEGGER_SYSVIEW.c ****   //
 814:../../../SystemView/SEGGER/SEGGER_SYSVIEW.c ****   // Send string and parameters to host
 815:../../../SystemView/SEGGER/SEGGER_SYSVIEW.c ****   //
 816:../../../SystemView/SEGGER/SEGGER_SYSVIEW.c ****   {
 817:../../../SystemView/SEGGER/SEGGER_SYSVIEW.c ****     RECORD_START(SEGGER_SYSVIEW_INFO_SIZE + SEGGER_SYSVIEW_MAX_STRING_LEN + 2 * SEGGER_SYSVIEW_QUAN
 969              		.loc 1 817 0
 970              	@ 817 "../../../SystemView/SEGGER/SEGGER_SYSVIEW.c" 1
 971 006a EFF31183 		mrs   r3, basepri  
 972 006e 4FF02001 		mov   r1, #32       
 973 0072 81F31188 		msr   basepri, r1  
 974              		
 975              	@ 0 "" 2
 976              		.thumb
 977 0076 BB65     		str	r3, [r7, #88]
 978 0078 3F48     		ldr	r0, .L71
 979 007a FFF7FEFF 		bl	_PreparePacket
 980 007e 7865     		str	r0, [r7, #84]
 818:../../../SystemView/SEGGER/SEGGER_SYSVIEW.c ****     pPayload = _EncodeStr(pPayloadStart, s, SEGGER_SYSVIEW_MAX_STRING_LEN);
 981              		.loc 1 818 0
 982 0080 786D     		ldr	r0, [r7, #84]
 983 0082 F968     		ldr	r1, [r7, #12]
 984 0084 8022     		movs	r2, #128
 985 0086 FFF7FEFF 		bl	_EncodeStr
 986 008a B867     		str	r0, [r7, #120]
 987              	.LBB6:
 819:../../../SystemView/SEGGER/SEGGER_SYSVIEW.c ****     ENCODE_U32(pPayload, Options);
 988              		.loc 1 819 0
 989 008c BB6F     		ldr	r3, [r7, #120]
 990 008e 7B67     		str	r3, [r7, #116]
 991 0090 BB68     		ldr	r3, [r7, #8]
 992 0092 3B67     		str	r3, [r7, #112]
 993 0094 0BE0     		b	.L62
 994              	.L63:
 995              		.loc 1 819 0 is_stmt 0 discriminator 3
 996 0096 7B6F     		ldr	r3, [r7, #116]
 997 0098 5A1C     		adds	r2, r3, #1
 998 009a 7A67     		str	r2, [r7, #116]
 999 009c 3A6F     		ldr	r2, [r7, #112]
 1000 009e D2B2     		uxtb	r2, r2
 1001 00a0 62F07F02 		orn	r2, r2, #127
 1002 00a4 D2B2     		uxtb	r2, r2
 1003 00a6 1A70     		strb	r2, [r3]
 1004 00a8 3B6F     		ldr	r3, [r7, #112]
 1005 00aa DB09     		lsrs	r3, r3, #7
 1006 00ac 3B67     		str	r3, [r7, #112]
 1007              	.L62:
 1008              		.loc 1 819 0 discriminator 1
 1009 00ae 3B6F     		ldr	r3, [r7, #112]
 1010 00b0 7F2B     		cmp	r3, #127
 1011 00b2 F0D8     		bhi	.L63
 1012              		.loc 1 819 0 discriminator 4
 1013 00b4 7B6F     		ldr	r3, [r7, #116]
 1014 00b6 5A1C     		adds	r2, r3, #1
ARM GAS  /tmp/ccJhHFds.s 			page 33


 1015 00b8 7A67     		str	r2, [r7, #116]
 1016 00ba 3A6F     		ldr	r2, [r7, #112]
 1017 00bc D2B2     		uxtb	r2, r2
 1018 00be 1A70     		strb	r2, [r3]
 1019 00c0 7B6F     		ldr	r3, [r7, #116]
 1020 00c2 BB67     		str	r3, [r7, #120]
 1021              	.LBE6:
 1022              	.LBB7:
 820:../../../SystemView/SEGGER/SEGGER_SYSVIEW.c ****     ENCODE_U32(pPayload, NumArguments);
 1023              		.loc 1 820 0 is_stmt 1 discriminator 4
 1024 00c4 BB6F     		ldr	r3, [r7, #120]
 1025 00c6 FB66     		str	r3, [r7, #108]
 1026 00c8 D7F88030 		ldr	r3, [r7, #128]
 1027 00cc BB66     		str	r3, [r7, #104]
 1028 00ce 0BE0     		b	.L64
 1029              	.L65:
 1030              		.loc 1 820 0 is_stmt 0 discriminator 3
 1031 00d0 FB6E     		ldr	r3, [r7, #108]
 1032 00d2 5A1C     		adds	r2, r3, #1
 1033 00d4 FA66     		str	r2, [r7, #108]
 1034 00d6 BA6E     		ldr	r2, [r7, #104]
 1035 00d8 D2B2     		uxtb	r2, r2
 1036 00da 62F07F02 		orn	r2, r2, #127
 1037 00de D2B2     		uxtb	r2, r2
 1038 00e0 1A70     		strb	r2, [r3]
 1039 00e2 BB6E     		ldr	r3, [r7, #104]
 1040 00e4 DB09     		lsrs	r3, r3, #7
 1041 00e6 BB66     		str	r3, [r7, #104]
 1042              	.L64:
 1043              		.loc 1 820 0 discriminator 1
 1044 00e8 BB6E     		ldr	r3, [r7, #104]
 1045 00ea 7F2B     		cmp	r3, #127
 1046 00ec F0D8     		bhi	.L65
 1047              		.loc 1 820 0 discriminator 4
 1048 00ee FB6E     		ldr	r3, [r7, #108]
 1049 00f0 5A1C     		adds	r2, r3, #1
 1050 00f2 FA66     		str	r2, [r7, #108]
 1051 00f4 BA6E     		ldr	r2, [r7, #104]
 1052 00f6 D2B2     		uxtb	r2, r2
 1053 00f8 1A70     		strb	r2, [r3]
 1054 00fa FB6E     		ldr	r3, [r7, #108]
 1055 00fc BB67     		str	r3, [r7, #120]
 1056              	.LBE7:
 821:../../../SystemView/SEGGER/SEGGER_SYSVIEW.c ****     pParas = aParas;
 1057              		.loc 1 821 0 is_stmt 1 discriminator 4
 1058 00fe 07F11403 		add	r3, r7, #20
 1059 0102 C7F88430 		str	r3, [r7, #132]
 822:../../../SystemView/SEGGER/SEGGER_SYSVIEW.c ****     while (NumArguments--) {
 1060              		.loc 1 822 0 discriminator 4
 1061 0106 22E0     		b	.L66
 1062              	.L69:
 1063              	.LBB8:
 823:../../../SystemView/SEGGER/SEGGER_SYSVIEW.c ****       ENCODE_U32(pPayload, (*pParas));
 1064              		.loc 1 823 0
 1065 0108 BB6F     		ldr	r3, [r7, #120]
 1066 010a 7B66     		str	r3, [r7, #100]
 1067 010c D7F88430 		ldr	r3, [r7, #132]
ARM GAS  /tmp/ccJhHFds.s 			page 34


 1068 0110 1B68     		ldr	r3, [r3]
 1069 0112 3B66     		str	r3, [r7, #96]
 1070 0114 0BE0     		b	.L67
 1071              	.L68:
 1072              		.loc 1 823 0 is_stmt 0 discriminator 3
 1073 0116 7B6E     		ldr	r3, [r7, #100]
 1074 0118 5A1C     		adds	r2, r3, #1
 1075 011a 7A66     		str	r2, [r7, #100]
 1076 011c 3A6E     		ldr	r2, [r7, #96]
 1077 011e D2B2     		uxtb	r2, r2
 1078 0120 62F07F02 		orn	r2, r2, #127
 1079 0124 D2B2     		uxtb	r2, r2
 1080 0126 1A70     		strb	r2, [r3]
 1081 0128 3B6E     		ldr	r3, [r7, #96]
 1082 012a DB09     		lsrs	r3, r3, #7
 1083 012c 3B66     		str	r3, [r7, #96]
 1084              	.L67:
 1085              		.loc 1 823 0 discriminator 1
 1086 012e 3B6E     		ldr	r3, [r7, #96]
 1087 0130 7F2B     		cmp	r3, #127
 1088 0132 F0D8     		bhi	.L68
 1089              		.loc 1 823 0 discriminator 4
 1090 0134 7B6E     		ldr	r3, [r7, #100]
 1091 0136 5A1C     		adds	r2, r3, #1
 1092 0138 7A66     		str	r2, [r7, #100]
 1093 013a 3A6E     		ldr	r2, [r7, #96]
 1094 013c D2B2     		uxtb	r2, r2
 1095 013e 1A70     		strb	r2, [r3]
 1096 0140 7B6E     		ldr	r3, [r7, #100]
 1097 0142 BB67     		str	r3, [r7, #120]
 1098              	.LBE8:
 824:../../../SystemView/SEGGER/SEGGER_SYSVIEW.c ****       pParas++;
 1099              		.loc 1 824 0 is_stmt 1 discriminator 4
 1100 0144 D7F88430 		ldr	r3, [r7, #132]
 1101 0148 0433     		adds	r3, r3, #4
 1102 014a C7F88430 		str	r3, [r7, #132]
 1103              	.L66:
 822:../../../SystemView/SEGGER/SEGGER_SYSVIEW.c ****     while (NumArguments--) {
 1104              		.loc 1 822 0
 1105 014e D7F88030 		ldr	r3, [r7, #128]
 1106 0152 5A1E     		subs	r2, r3, #1
 1107 0154 C7F88020 		str	r2, [r7, #128]
 1108 0158 002B     		cmp	r3, #0
 1109 015a D5D1     		bne	.L69
 825:../../../SystemView/SEGGER/SEGGER_SYSVIEW.c ****     }
 826:../../../SystemView/SEGGER/SEGGER_SYSVIEW.c ****     _SendPacket(pPayloadStart, pPayload, SYSVIEW_EVTID_PRINT_FORMATTED);
 1110              		.loc 1 826 0
 1111 015c 786D     		ldr	r0, [r7, #84]
 1112 015e B96F     		ldr	r1, [r7, #120]
 1113 0160 1A22     		movs	r2, #26
 1114 0162 FFF7FEFF 		bl	_SendPacket
 827:../../../SystemView/SEGGER/SEGGER_SYSVIEW.c ****     RECORD_END();
 1115              		.loc 1 827 0
 1116 0166 BB6D     		ldr	r3, [r7, #88]
 1117              	@ 827 "../../../SystemView/SEGGER/SEGGER_SYSVIEW.c" 1
 1118 0168 83F31188 		msr   basepri, r3  
 1119              		
ARM GAS  /tmp/ccJhHFds.s 			page 35


 1120              	@ 0 "" 2
 1121              		.thumb
 1122              	.LBE5:
 828:../../../SystemView/SEGGER/SEGGER_SYSVIEW.c ****   }
 829:../../../SystemView/SEGGER/SEGGER_SYSVIEW.c ****   return 0;
 1123              		.loc 1 829 0
 1124 016c 0023     		movs	r3, #0
 830:../../../SystemView/SEGGER/SEGGER_SYSVIEW.c **** }
 1125              		.loc 1 830 0
 1126 016e 1846     		mov	r0, r3
 1127 0170 8837     		adds	r7, r7, #136
 1128              	.LCFI36:
 1129              		.cfi_def_cfa_offset 8
 1130 0172 BD46     		mov	sp, r7
 1131              	.LCFI37:
 1132              		.cfi_def_cfa_register 13
 1133              		@ sp needed
 1134 0174 80BD     		pop	{r7, pc}
 1135              	.L72:
 1136 0176 00BF     		.align	2
 1137              	.L71:
 1138 0178 00000000 		.word	_aPacket
 1139              		.cfi_endproc
 1140              	.LFE6:
 1142              		.section	.text._StoreChar,"ax",%progbits
 1143              		.align	2
 1144              		.thumb
 1145              		.thumb_func
 1147              	_StoreChar:
 1148              	.LFB7:
 831:../../../SystemView/SEGGER/SEGGER_SYSVIEW.c **** 
 832:../../../SystemView/SEGGER/SEGGER_SYSVIEW.c **** /*********************************************************************
 833:../../../SystemView/SEGGER/SEGGER_SYSVIEW.c **** *
 834:../../../SystemView/SEGGER/SEGGER_SYSVIEW.c **** *       _StoreChar()
 835:../../../SystemView/SEGGER/SEGGER_SYSVIEW.c **** *
 836:../../../SystemView/SEGGER/SEGGER_SYSVIEW.c **** *  Function description
 837:../../../SystemView/SEGGER/SEGGER_SYSVIEW.c **** *    Stores a character in the printf-buffer and sends the buffer when
 838:../../../SystemView/SEGGER/SEGGER_SYSVIEW.c **** *     it is filled.
 839:../../../SystemView/SEGGER/SEGGER_SYSVIEW.c **** *
 840:../../../SystemView/SEGGER/SEGGER_SYSVIEW.c **** *  Parameters
 841:../../../SystemView/SEGGER/SEGGER_SYSVIEW.c **** *    p            Pointer to the buffer description.
 842:../../../SystemView/SEGGER/SEGGER_SYSVIEW.c **** *    c            Character to be printed.
 843:../../../SystemView/SEGGER/SEGGER_SYSVIEW.c **** */
 844:../../../SystemView/SEGGER/SEGGER_SYSVIEW.c **** static void _StoreChar(SEGGER_SYSVIEW_PRINTF_DESC * p, char c) {
 1149              		.loc 1 844 0
 1150              		.cfi_startproc
 1151              		@ args = 0, pretend = 0, frame = 40
 1152              		@ frame_needed = 1, uses_anonymous_args = 0
 1153 0000 80B5     		push	{r7, lr}
 1154              	.LCFI38:
 1155              		.cfi_def_cfa_offset 8
 1156              		.cfi_offset 7, -8
 1157              		.cfi_offset 14, -4
 1158 0002 8AB0     		sub	sp, sp, #40
 1159              	.LCFI39:
 1160              		.cfi_def_cfa_offset 48
 1161 0004 00AF     		add	r7, sp, #0
ARM GAS  /tmp/ccJhHFds.s 			page 36


 1162              	.LCFI40:
 1163              		.cfi_def_cfa_register 7
 1164 0006 7860     		str	r0, [r7, #4]
 1165 0008 0B46     		mov	r3, r1
 1166 000a FB70     		strb	r3, [r7, #3]
 845:../../../SystemView/SEGGER/SEGGER_SYSVIEW.c ****   unsigned int  Cnt;
 846:../../../SystemView/SEGGER/SEGGER_SYSVIEW.c ****   U8*           pPayload;
 847:../../../SystemView/SEGGER/SEGGER_SYSVIEW.c ****   U32           Options;
 848:../../../SystemView/SEGGER/SEGGER_SYSVIEW.c **** 
 849:../../../SystemView/SEGGER/SEGGER_SYSVIEW.c ****   Cnt = p->Cnt;
 1167              		.loc 1 849 0
 1168 000c 7B68     		ldr	r3, [r7, #4]
 1169 000e 1B69     		ldr	r3, [r3, #16]
 1170 0010 7B61     		str	r3, [r7, #20]
 850:../../../SystemView/SEGGER/SEGGER_SYSVIEW.c ****   if ((Cnt + 1u) <= SEGGER_SYSVIEW_MAX_STRING_LEN) {
 1171              		.loc 1 850 0
 1172 0012 7B69     		ldr	r3, [r7, #20]
 1173 0014 0133     		adds	r3, r3, #1
 1174 0016 802B     		cmp	r3, #128
 1175 0018 0AD8     		bhi	.L74
 851:../../../SystemView/SEGGER/SEGGER_SYSVIEW.c ****     *(p->pPayload++) = c;
 1176              		.loc 1 851 0
 1177 001a 7B68     		ldr	r3, [r7, #4]
 1178 001c 5B68     		ldr	r3, [r3, #4]
 1179 001e 591C     		adds	r1, r3, #1
 1180 0020 7A68     		ldr	r2, [r7, #4]
 1181 0022 5160     		str	r1, [r2, #4]
 1182 0024 FA78     		ldrb	r2, [r7, #3]
 1183 0026 1A70     		strb	r2, [r3]
 852:../../../SystemView/SEGGER/SEGGER_SYSVIEW.c ****     p->Cnt = Cnt + 1u;
 1184              		.loc 1 852 0
 1185 0028 7B69     		ldr	r3, [r7, #20]
 1186 002a 5A1C     		adds	r2, r3, #1
 1187 002c 7B68     		ldr	r3, [r7, #4]
 1188 002e 1A61     		str	r2, [r3, #16]
 1189              	.L74:
 853:../../../SystemView/SEGGER/SEGGER_SYSVIEW.c ****   }
 854:../../../SystemView/SEGGER/SEGGER_SYSVIEW.c ****   //
 855:../../../SystemView/SEGGER/SEGGER_SYSVIEW.c ****   // Write part of string, when the buffer is full
 856:../../../SystemView/SEGGER/SEGGER_SYSVIEW.c ****   //
 857:../../../SystemView/SEGGER/SEGGER_SYSVIEW.c ****   if (p->Cnt == SEGGER_SYSVIEW_MAX_STRING_LEN) {
 1190              		.loc 1 857 0
 1191 0030 7B68     		ldr	r3, [r7, #4]
 1192 0032 1B69     		ldr	r3, [r3, #16]
 1193 0034 802B     		cmp	r3, #128
 1194 0036 5AD1     		bne	.L73
 858:../../../SystemView/SEGGER/SEGGER_SYSVIEW.c ****     *(p->pPayloadStart) = p->Cnt;
 1195              		.loc 1 858 0
 1196 0038 7B68     		ldr	r3, [r7, #4]
 1197 003a 9B68     		ldr	r3, [r3, #8]
 1198 003c 7A68     		ldr	r2, [r7, #4]
 1199 003e 1269     		ldr	r2, [r2, #16]
 1200 0040 D2B2     		uxtb	r2, r2
 1201 0042 1A70     		strb	r2, [r3]
 859:../../../SystemView/SEGGER/SEGGER_SYSVIEW.c ****     pPayload = p->pPayload;
 1202              		.loc 1 859 0
 1203 0044 7B68     		ldr	r3, [r7, #4]
ARM GAS  /tmp/ccJhHFds.s 			page 37


 1204 0046 5B68     		ldr	r3, [r3, #4]
 1205 0048 3B61     		str	r3, [r7, #16]
 860:../../../SystemView/SEGGER/SEGGER_SYSVIEW.c ****     Options = p->Options;
 1206              		.loc 1 860 0
 1207 004a 7B68     		ldr	r3, [r7, #4]
 1208 004c DB68     		ldr	r3, [r3, #12]
 1209 004e FB60     		str	r3, [r7, #12]
 1210              	.LBB9:
 861:../../../SystemView/SEGGER/SEGGER_SYSVIEW.c ****     ENCODE_U32(pPayload, Options);
 1211              		.loc 1 861 0
 1212 0050 3B69     		ldr	r3, [r7, #16]
 1213 0052 7B62     		str	r3, [r7, #36]
 1214 0054 FB68     		ldr	r3, [r7, #12]
 1215 0056 3B62     		str	r3, [r7, #32]
 1216 0058 0BE0     		b	.L76
 1217              	.L77:
 1218              		.loc 1 861 0 is_stmt 0 discriminator 3
 1219 005a 7B6A     		ldr	r3, [r7, #36]
 1220 005c 5A1C     		adds	r2, r3, #1
 1221 005e 7A62     		str	r2, [r7, #36]
 1222 0060 3A6A     		ldr	r2, [r7, #32]
 1223 0062 D2B2     		uxtb	r2, r2
 1224 0064 62F07F02 		orn	r2, r2, #127
 1225 0068 D2B2     		uxtb	r2, r2
 1226 006a 1A70     		strb	r2, [r3]
 1227 006c 3B6A     		ldr	r3, [r7, #32]
 1228 006e DB09     		lsrs	r3, r3, #7
 1229 0070 3B62     		str	r3, [r7, #32]
 1230              	.L76:
 1231              		.loc 1 861 0 discriminator 1
 1232 0072 3B6A     		ldr	r3, [r7, #32]
 1233 0074 7F2B     		cmp	r3, #127
 1234 0076 F0D8     		bhi	.L77
 1235              		.loc 1 861 0 discriminator 4
 1236 0078 7B6A     		ldr	r3, [r7, #36]
 1237 007a 5A1C     		adds	r2, r3, #1
 1238 007c 7A62     		str	r2, [r7, #36]
 1239 007e 3A6A     		ldr	r2, [r7, #32]
 1240 0080 D2B2     		uxtb	r2, r2
 1241 0082 1A70     		strb	r2, [r3]
 1242 0084 7B6A     		ldr	r3, [r7, #36]
 1243 0086 3B61     		str	r3, [r7, #16]
 1244              	.LBE9:
 1245              	.LBB10:
 862:../../../SystemView/SEGGER/SEGGER_SYSVIEW.c ****     ENCODE_U32(pPayload, 0);
 1246              		.loc 1 862 0 is_stmt 1 discriminator 4
 1247 0088 3B69     		ldr	r3, [r7, #16]
 1248 008a FB61     		str	r3, [r7, #28]
 1249 008c 0023     		movs	r3, #0
 1250 008e BB61     		str	r3, [r7, #24]
 1251 0090 0BE0     		b	.L78
 1252              	.L79:
 1253              		.loc 1 862 0 is_stmt 0 discriminator 3
 1254 0092 FB69     		ldr	r3, [r7, #28]
 1255 0094 5A1C     		adds	r2, r3, #1
 1256 0096 FA61     		str	r2, [r7, #28]
 1257 0098 BA69     		ldr	r2, [r7, #24]
ARM GAS  /tmp/ccJhHFds.s 			page 38


 1258 009a D2B2     		uxtb	r2, r2
 1259 009c 62F07F02 		orn	r2, r2, #127
 1260 00a0 D2B2     		uxtb	r2, r2
 1261 00a2 1A70     		strb	r2, [r3]
 1262 00a4 BB69     		ldr	r3, [r7, #24]
 1263 00a6 DB09     		lsrs	r3, r3, #7
 1264 00a8 BB61     		str	r3, [r7, #24]
 1265              	.L78:
 1266              		.loc 1 862 0 discriminator 1
 1267 00aa BB69     		ldr	r3, [r7, #24]
 1268 00ac 7F2B     		cmp	r3, #127
 1269 00ae F0D8     		bhi	.L79
 1270              		.loc 1 862 0 discriminator 4
 1271 00b0 FB69     		ldr	r3, [r7, #28]
 1272 00b2 5A1C     		adds	r2, r3, #1
 1273 00b4 FA61     		str	r2, [r7, #28]
 1274 00b6 BA69     		ldr	r2, [r7, #24]
 1275 00b8 D2B2     		uxtb	r2, r2
 1276 00ba 1A70     		strb	r2, [r3]
 1277 00bc FB69     		ldr	r3, [r7, #28]
 1278 00be 3B61     		str	r3, [r7, #16]
 1279              	.LBE10:
 863:../../../SystemView/SEGGER/SEGGER_SYSVIEW.c ****     _SendPacket(p->pPayloadStart, pPayload, SYSVIEW_EVTID_PRINT_FORMATTED);
 1280              		.loc 1 863 0 is_stmt 1 discriminator 4
 1281 00c0 7B68     		ldr	r3, [r7, #4]
 1282 00c2 9B68     		ldr	r3, [r3, #8]
 1283 00c4 1846     		mov	r0, r3
 1284 00c6 3969     		ldr	r1, [r7, #16]
 1285 00c8 1A22     		movs	r2, #26
 1286 00ca FFF7FEFF 		bl	_SendPacket
 864:../../../SystemView/SEGGER/SEGGER_SYSVIEW.c ****     p->pPayloadStart = _PreparePacket(p->pBuffer);
 1287              		.loc 1 864 0 discriminator 4
 1288 00ce 7B68     		ldr	r3, [r7, #4]
 1289 00d0 1B68     		ldr	r3, [r3]
 1290 00d2 1846     		mov	r0, r3
 1291 00d4 FFF7FEFF 		bl	_PreparePacket
 1292 00d8 0246     		mov	r2, r0
 1293 00da 7B68     		ldr	r3, [r7, #4]
 1294 00dc 9A60     		str	r2, [r3, #8]
 865:../../../SystemView/SEGGER/SEGGER_SYSVIEW.c ****     p->pPayload = p->pPayloadStart + 1u;
 1295              		.loc 1 865 0 discriminator 4
 1296 00de 7B68     		ldr	r3, [r7, #4]
 1297 00e0 9B68     		ldr	r3, [r3, #8]
 1298 00e2 5A1C     		adds	r2, r3, #1
 1299 00e4 7B68     		ldr	r3, [r7, #4]
 1300 00e6 5A60     		str	r2, [r3, #4]
 866:../../../SystemView/SEGGER/SEGGER_SYSVIEW.c ****     p->Cnt = 0u;
 1301              		.loc 1 866 0 discriminator 4
 1302 00e8 7B68     		ldr	r3, [r7, #4]
 1303 00ea 0022     		movs	r2, #0
 1304 00ec 1A61     		str	r2, [r3, #16]
 1305              	.L73:
 867:../../../SystemView/SEGGER/SEGGER_SYSVIEW.c ****   }
 868:../../../SystemView/SEGGER/SEGGER_SYSVIEW.c **** }
 1306              		.loc 1 868 0
 1307 00ee 2837     		adds	r7, r7, #40
 1308              	.LCFI41:
ARM GAS  /tmp/ccJhHFds.s 			page 39


 1309              		.cfi_def_cfa_offset 8
 1310 00f0 BD46     		mov	sp, r7
 1311              	.LCFI42:
 1312              		.cfi_def_cfa_register 13
 1313              		@ sp needed
 1314 00f2 80BD     		pop	{r7, pc}
 1315              		.cfi_endproc
 1316              	.LFE7:
 1318              		.section	.text._PrintUnsigned,"ax",%progbits
 1319              		.align	2
 1320              		.thumb
 1321              		.thumb_func
 1323              	_PrintUnsigned:
 1324              	.LFB8:
 869:../../../SystemView/SEGGER/SEGGER_SYSVIEW.c **** 
 870:../../../SystemView/SEGGER/SEGGER_SYSVIEW.c **** /*********************************************************************
 871:../../../SystemView/SEGGER/SEGGER_SYSVIEW.c **** *
 872:../../../SystemView/SEGGER/SEGGER_SYSVIEW.c **** *       _PrintUnsigned()
 873:../../../SystemView/SEGGER/SEGGER_SYSVIEW.c **** *
 874:../../../SystemView/SEGGER/SEGGER_SYSVIEW.c **** *  Function description
 875:../../../SystemView/SEGGER/SEGGER_SYSVIEW.c **** *    Print an unsigned integer with the given formatting into the 
 876:../../../SystemView/SEGGER/SEGGER_SYSVIEW.c **** *     formatted string.
 877:../../../SystemView/SEGGER/SEGGER_SYSVIEW.c **** *
 878:../../../SystemView/SEGGER/SEGGER_SYSVIEW.c **** *  Parameters
 879:../../../SystemView/SEGGER/SEGGER_SYSVIEW.c **** *    pBufferDesc  Pointer to the buffer description.
 880:../../../SystemView/SEGGER/SEGGER_SYSVIEW.c **** *    v            Value to be printed.
 881:../../../SystemView/SEGGER/SEGGER_SYSVIEW.c **** *    Base         Base of the value.
 882:../../../SystemView/SEGGER/SEGGER_SYSVIEW.c **** *    NumDigits    Number of digits to be printed.
 883:../../../SystemView/SEGGER/SEGGER_SYSVIEW.c **** *    FieldWidth   Width of the printed field.
 884:../../../SystemView/SEGGER/SEGGER_SYSVIEW.c **** *    FormatFlags  Flags for formatting the value.
 885:../../../SystemView/SEGGER/SEGGER_SYSVIEW.c **** */
 886:../../../SystemView/SEGGER/SEGGER_SYSVIEW.c **** static void _PrintUnsigned(SEGGER_SYSVIEW_PRINTF_DESC * pBufferDesc, unsigned int v, unsigned int B
 1325              		.loc 1 886 0
 1326              		.cfi_startproc
 1327              		@ args = 8, pretend = 0, frame = 40
 1328              		@ frame_needed = 1, uses_anonymous_args = 0
 1329 0000 80B5     		push	{r7, lr}
 1330              	.LCFI43:
 1331              		.cfi_def_cfa_offset 8
 1332              		.cfi_offset 7, -8
 1333              		.cfi_offset 14, -4
 1334 0002 8AB0     		sub	sp, sp, #40
 1335              	.LCFI44:
 1336              		.cfi_def_cfa_offset 48
 1337 0004 00AF     		add	r7, sp, #0
 1338              	.LCFI45:
 1339              		.cfi_def_cfa_register 7
 1340 0006 F860     		str	r0, [r7, #12]
 1341 0008 B960     		str	r1, [r7, #8]
 1342 000a 7A60     		str	r2, [r7, #4]
 1343 000c 3B60     		str	r3, [r7]
 887:../../../SystemView/SEGGER/SEGGER_SYSVIEW.c ****   static const char _aV2C[16] = {'0', '1', '2', '3', '4', '5', '6', '7', '8', '9', 'A', 'B', 'C', '
 888:../../../SystemView/SEGGER/SEGGER_SYSVIEW.c ****   unsigned int      Div;
 889:../../../SystemView/SEGGER/SEGGER_SYSVIEW.c ****   unsigned int      Digit;
 890:../../../SystemView/SEGGER/SEGGER_SYSVIEW.c ****   unsigned int      Number;
 891:../../../SystemView/SEGGER/SEGGER_SYSVIEW.c ****   unsigned int      Width;
 892:../../../SystemView/SEGGER/SEGGER_SYSVIEW.c ****   char              c;
ARM GAS  /tmp/ccJhHFds.s 			page 40


 893:../../../SystemView/SEGGER/SEGGER_SYSVIEW.c **** 
 894:../../../SystemView/SEGGER/SEGGER_SYSVIEW.c ****   Number = v;
 1344              		.loc 1 894 0
 1345 000e BB68     		ldr	r3, [r7, #8]
 1346 0010 3B62     		str	r3, [r7, #32]
 895:../../../SystemView/SEGGER/SEGGER_SYSVIEW.c ****   Digit = 1u;
 1347              		.loc 1 895 0
 1348 0012 0123     		movs	r3, #1
 1349 0014 7B62     		str	r3, [r7, #36]
 896:../../../SystemView/SEGGER/SEGGER_SYSVIEW.c ****   //
 897:../../../SystemView/SEGGER/SEGGER_SYSVIEW.c ****   // Get actual field width
 898:../../../SystemView/SEGGER/SEGGER_SYSVIEW.c ****   //
 899:../../../SystemView/SEGGER/SEGGER_SYSVIEW.c ****   Width = 1u;
 1350              		.loc 1 899 0
 1351 0016 0123     		movs	r3, #1
 1352 0018 FB61     		str	r3, [r7, #28]
 900:../../../SystemView/SEGGER/SEGGER_SYSVIEW.c ****   while (Number >= Base) {
 1353              		.loc 1 900 0
 1354 001a 07E0     		b	.L81
 1355              	.L82:
 901:../../../SystemView/SEGGER/SEGGER_SYSVIEW.c ****     Number = (Number / Base);
 1356              		.loc 1 901 0
 1357 001c 3A6A     		ldr	r2, [r7, #32]
 1358 001e 7B68     		ldr	r3, [r7, #4]
 1359 0020 B2FBF3F3 		udiv	r3, r2, r3
 1360 0024 3B62     		str	r3, [r7, #32]
 902:../../../SystemView/SEGGER/SEGGER_SYSVIEW.c ****     Width++;
 1361              		.loc 1 902 0
 1362 0026 FB69     		ldr	r3, [r7, #28]
 1363 0028 0133     		adds	r3, r3, #1
 1364 002a FB61     		str	r3, [r7, #28]
 1365              	.L81:
 900:../../../SystemView/SEGGER/SEGGER_SYSVIEW.c ****   while (Number >= Base) {
 1366              		.loc 1 900 0
 1367 002c 3A6A     		ldr	r2, [r7, #32]
 1368 002e 7B68     		ldr	r3, [r7, #4]
 1369 0030 9A42     		cmp	r2, r3
 1370 0032 F3D2     		bcs	.L82
 903:../../../SystemView/SEGGER/SEGGER_SYSVIEW.c ****   }
 904:../../../SystemView/SEGGER/SEGGER_SYSVIEW.c ****   if (NumDigits > Width) {
 1371              		.loc 1 904 0
 1372 0034 3A68     		ldr	r2, [r7]
 1373 0036 FB69     		ldr	r3, [r7, #28]
 1374 0038 9A42     		cmp	r2, r3
 1375 003a 01D9     		bls	.L83
 905:../../../SystemView/SEGGER/SEGGER_SYSVIEW.c ****     Width = NumDigits;
 1376              		.loc 1 905 0
 1377 003c 3B68     		ldr	r3, [r7]
 1378 003e FB61     		str	r3, [r7, #28]
 1379              	.L83:
 906:../../../SystemView/SEGGER/SEGGER_SYSVIEW.c ****   }
 907:../../../SystemView/SEGGER/SEGGER_SYSVIEW.c ****   //
 908:../../../SystemView/SEGGER/SEGGER_SYSVIEW.c ****   // Print leading chars if necessary
 909:../../../SystemView/SEGGER/SEGGER_SYSVIEW.c ****   //
 910:../../../SystemView/SEGGER/SEGGER_SYSVIEW.c ****   if ((FormatFlags & FORMAT_FLAG_LEFT_JUSTIFY) == 0u) {
 1380              		.loc 1 910 0
 1381 0040 7B6B     		ldr	r3, [r7, #52]
ARM GAS  /tmp/ccJhHFds.s 			page 41


 1382 0042 03F00103 		and	r3, r3, #1
 1383 0046 002B     		cmp	r3, #0
 1384 0048 1FD1     		bne	.L84
 911:../../../SystemView/SEGGER/SEGGER_SYSVIEW.c ****     if (FieldWidth != 0u) {
 1385              		.loc 1 911 0
 1386 004a 3B6B     		ldr	r3, [r7, #48]
 1387 004c 002B     		cmp	r3, #0
 1388 004e 1CD0     		beq	.L84
 912:../../../SystemView/SEGGER/SEGGER_SYSVIEW.c ****       if (((FormatFlags & FORMAT_FLAG_PAD_ZERO) == FORMAT_FLAG_PAD_ZERO) && (NumDigits == 0u)) {
 1389              		.loc 1 912 0
 1390 0050 7B6B     		ldr	r3, [r7, #52]
 1391 0052 03F00203 		and	r3, r3, #2
 1392 0056 002B     		cmp	r3, #0
 1393 0058 05D0     		beq	.L85
 1394              		.loc 1 912 0 is_stmt 0 discriminator 1
 1395 005a 3B68     		ldr	r3, [r7]
 1396 005c 002B     		cmp	r3, #0
 1397 005e 02D1     		bne	.L85
 913:../../../SystemView/SEGGER/SEGGER_SYSVIEW.c ****         c = '0';
 1398              		.loc 1 913 0 is_stmt 1
 1399 0060 3023     		movs	r3, #48
 1400 0062 FB76     		strb	r3, [r7, #27]
 1401 0064 01E0     		b	.L86
 1402              	.L85:
 914:../../../SystemView/SEGGER/SEGGER_SYSVIEW.c ****       } else {
 915:../../../SystemView/SEGGER/SEGGER_SYSVIEW.c ****         c = ' ';
 1403              		.loc 1 915 0
 1404 0066 2023     		movs	r3, #32
 1405 0068 FB76     		strb	r3, [r7, #27]
 1406              	.L86:
 916:../../../SystemView/SEGGER/SEGGER_SYSVIEW.c ****       }
 917:../../../SystemView/SEGGER/SEGGER_SYSVIEW.c ****       while ((FieldWidth != 0u) && (Width < FieldWidth)) {
 1407              		.loc 1 917 0
 1408 006a 07E0     		b	.L87
 1409              	.L88:
 918:../../../SystemView/SEGGER/SEGGER_SYSVIEW.c ****         FieldWidth--;
 1410              		.loc 1 918 0
 1411 006c 3B6B     		ldr	r3, [r7, #48]
 1412 006e 013B     		subs	r3, r3, #1
 1413 0070 3B63     		str	r3, [r7, #48]
 919:../../../SystemView/SEGGER/SEGGER_SYSVIEW.c ****         _StoreChar(pBufferDesc, c);
 1414              		.loc 1 919 0
 1415 0072 FB7E     		ldrb	r3, [r7, #27]	@ zero_extendqisi2
 1416 0074 F868     		ldr	r0, [r7, #12]
 1417 0076 1946     		mov	r1, r3
 1418 0078 FFF7FEFF 		bl	_StoreChar
 1419              	.L87:
 917:../../../SystemView/SEGGER/SEGGER_SYSVIEW.c ****         FieldWidth--;
 1420              		.loc 1 917 0
 1421 007c 3B6B     		ldr	r3, [r7, #48]
 1422 007e 002B     		cmp	r3, #0
 1423 0080 03D0     		beq	.L84
 917:../../../SystemView/SEGGER/SEGGER_SYSVIEW.c ****         FieldWidth--;
 1424              		.loc 1 917 0 is_stmt 0 discriminator 1
 1425 0082 FA69     		ldr	r2, [r7, #28]
 1426 0084 3B6B     		ldr	r3, [r7, #48]
 1427 0086 9A42     		cmp	r2, r3
ARM GAS  /tmp/ccJhHFds.s 			page 42


 1428 0088 F0D3     		bcc	.L88
 1429              	.L84:
 920:../../../SystemView/SEGGER/SEGGER_SYSVIEW.c ****       }
 921:../../../SystemView/SEGGER/SEGGER_SYSVIEW.c ****     }
 922:../../../SystemView/SEGGER/SEGGER_SYSVIEW.c ****   }
 923:../../../SystemView/SEGGER/SEGGER_SYSVIEW.c ****   //
 924:../../../SystemView/SEGGER/SEGGER_SYSVIEW.c ****   // Compute Digit.
 925:../../../SystemView/SEGGER/SEGGER_SYSVIEW.c ****   // Loop until Digit has the value of the highest digit required.
 926:../../../SystemView/SEGGER/SEGGER_SYSVIEW.c ****   // Example: If the output is 345 (Base 10), loop 2 times until Digit is 100.
 927:../../../SystemView/SEGGER/SEGGER_SYSVIEW.c ****   //
 928:../../../SystemView/SEGGER/SEGGER_SYSVIEW.c ****   while (1) {
 929:../../../SystemView/SEGGER/SEGGER_SYSVIEW.c ****     if (NumDigits > 1u) {       // User specified a min number of digits to print? => Make sure we 
 1430              		.loc 1 929 0 is_stmt 1
 1431 008a 3B68     		ldr	r3, [r7]
 1432 008c 012B     		cmp	r3, #1
 1433 008e 03D9     		bls	.L89
 930:../../../SystemView/SEGGER/SEGGER_SYSVIEW.c ****       NumDigits--;
 1434              		.loc 1 930 0
 1435 0090 3B68     		ldr	r3, [r7]
 1436 0092 013B     		subs	r3, r3, #1
 1437 0094 3B60     		str	r3, [r7]
 1438 0096 09E0     		b	.L90
 1439              	.L89:
 931:../../../SystemView/SEGGER/SEGGER_SYSVIEW.c ****     } else {
 932:../../../SystemView/SEGGER/SEGGER_SYSVIEW.c ****       Div = v / Digit;
 1440              		.loc 1 932 0
 1441 0098 BA68     		ldr	r2, [r7, #8]
 1442 009a 7B6A     		ldr	r3, [r7, #36]
 1443 009c B2FBF3F3 		udiv	r3, r2, r3
 1444 00a0 7B61     		str	r3, [r7, #20]
 933:../../../SystemView/SEGGER/SEGGER_SYSVIEW.c ****       if (Div < Base) {        // Is our divider big enough to extract the highest digit from value
 1445              		.loc 1 933 0
 1446 00a2 7A69     		ldr	r2, [r7, #20]
 1447 00a4 7B68     		ldr	r3, [r7, #4]
 1448 00a6 9A42     		cmp	r2, r3
 1449 00a8 00D2     		bcs	.L90
 934:../../../SystemView/SEGGER/SEGGER_SYSVIEW.c ****         break;
 1450              		.loc 1 934 0
 1451 00aa 05E0     		b	.L91
 1452              	.L90:
 935:../../../SystemView/SEGGER/SEGGER_SYSVIEW.c ****       }
 936:../../../SystemView/SEGGER/SEGGER_SYSVIEW.c ****     }
 937:../../../SystemView/SEGGER/SEGGER_SYSVIEW.c ****     Digit *= Base;
 1453              		.loc 1 937 0
 1454 00ac 7B6A     		ldr	r3, [r7, #36]
 1455 00ae 7A68     		ldr	r2, [r7, #4]
 1456 00b0 02FB03F3 		mul	r3, r2, r3
 1457 00b4 7B62     		str	r3, [r7, #36]
 938:../../../SystemView/SEGGER/SEGGER_SYSVIEW.c ****   }
 1458              		.loc 1 938 0
 1459 00b6 E8E7     		b	.L84
 1460              	.L91:
 939:../../../SystemView/SEGGER/SEGGER_SYSVIEW.c ****   //
 940:../../../SystemView/SEGGER/SEGGER_SYSVIEW.c ****   // Output digits
 941:../../../SystemView/SEGGER/SEGGER_SYSVIEW.c ****   //
 942:../../../SystemView/SEGGER/SEGGER_SYSVIEW.c ****   do {
 943:../../../SystemView/SEGGER/SEGGER_SYSVIEW.c ****     Div = v / Digit;
ARM GAS  /tmp/ccJhHFds.s 			page 43


 1461              		.loc 1 943 0 discriminator 1
 1462 00b8 BA68     		ldr	r2, [r7, #8]
 1463 00ba 7B6A     		ldr	r3, [r7, #36]
 1464 00bc B2FBF3F3 		udiv	r3, r2, r3
 1465 00c0 7B61     		str	r3, [r7, #20]
 944:../../../SystemView/SEGGER/SEGGER_SYSVIEW.c ****     v -= Div * Digit;
 1466              		.loc 1 944 0 discriminator 1
 1467 00c2 7B69     		ldr	r3, [r7, #20]
 1468 00c4 7A6A     		ldr	r2, [r7, #36]
 1469 00c6 02FB03F3 		mul	r3, r2, r3
 1470 00ca BA68     		ldr	r2, [r7, #8]
 1471 00cc D31A     		subs	r3, r2, r3
 1472 00ce BB60     		str	r3, [r7, #8]
 945:../../../SystemView/SEGGER/SEGGER_SYSVIEW.c ****     _StoreChar(pBufferDesc, _aV2C[Div]);
 1473              		.loc 1 945 0 discriminator 1
 1474 00d0 144A     		ldr	r2, .L95
 1475 00d2 7B69     		ldr	r3, [r7, #20]
 1476 00d4 1344     		add	r3, r3, r2
 1477 00d6 1B78     		ldrb	r3, [r3]	@ zero_extendqisi2
 1478 00d8 F868     		ldr	r0, [r7, #12]
 1479 00da 1946     		mov	r1, r3
 1480 00dc FFF7FEFF 		bl	_StoreChar
 946:../../../SystemView/SEGGER/SEGGER_SYSVIEW.c ****     Digit /= Base;
 1481              		.loc 1 946 0 discriminator 1
 1482 00e0 7A6A     		ldr	r2, [r7, #36]
 1483 00e2 7B68     		ldr	r3, [r7, #4]
 1484 00e4 B2FBF3F3 		udiv	r3, r2, r3
 1485 00e8 7B62     		str	r3, [r7, #36]
 947:../../../SystemView/SEGGER/SEGGER_SYSVIEW.c ****   } while (Digit);
 1486              		.loc 1 947 0 discriminator 1
 1487 00ea 7B6A     		ldr	r3, [r7, #36]
 1488 00ec 002B     		cmp	r3, #0
 1489 00ee E3D1     		bne	.L91
 948:../../../SystemView/SEGGER/SEGGER_SYSVIEW.c ****   //
 949:../../../SystemView/SEGGER/SEGGER_SYSVIEW.c ****   // Print trailing spaces if necessary
 950:../../../SystemView/SEGGER/SEGGER_SYSVIEW.c ****   //
 951:../../../SystemView/SEGGER/SEGGER_SYSVIEW.c ****   if ((FormatFlags & FORMAT_FLAG_LEFT_JUSTIFY) == FORMAT_FLAG_LEFT_JUSTIFY) {
 1490              		.loc 1 951 0
 1491 00f0 7B6B     		ldr	r3, [r7, #52]
 1492 00f2 03F00103 		and	r3, r3, #1
 1493 00f6 002B     		cmp	r3, #0
 1494 00f8 11D0     		beq	.L80
 952:../../../SystemView/SEGGER/SEGGER_SYSVIEW.c ****     if (FieldWidth != 0u) {
 1495              		.loc 1 952 0
 1496 00fa 3B6B     		ldr	r3, [r7, #48]
 1497 00fc 002B     		cmp	r3, #0
 1498 00fe 0ED0     		beq	.L80
 953:../../../SystemView/SEGGER/SEGGER_SYSVIEW.c ****       while ((FieldWidth != 0u) && (Width < FieldWidth)) {
 1499              		.loc 1 953 0
 1500 0100 06E0     		b	.L93
 1501              	.L94:
 954:../../../SystemView/SEGGER/SEGGER_SYSVIEW.c ****         FieldWidth--;
 1502              		.loc 1 954 0
 1503 0102 3B6B     		ldr	r3, [r7, #48]
 1504 0104 013B     		subs	r3, r3, #1
 1505 0106 3B63     		str	r3, [r7, #48]
 955:../../../SystemView/SEGGER/SEGGER_SYSVIEW.c ****         _StoreChar(pBufferDesc, ' ');
ARM GAS  /tmp/ccJhHFds.s 			page 44


 1506              		.loc 1 955 0
 1507 0108 F868     		ldr	r0, [r7, #12]
 1508 010a 2021     		movs	r1, #32
 1509 010c FFF7FEFF 		bl	_StoreChar
 1510              	.L93:
 953:../../../SystemView/SEGGER/SEGGER_SYSVIEW.c ****       while ((FieldWidth != 0u) && (Width < FieldWidth)) {
 1511              		.loc 1 953 0
 1512 0110 3B6B     		ldr	r3, [r7, #48]
 1513 0112 002B     		cmp	r3, #0
 1514 0114 03D0     		beq	.L80
 953:../../../SystemView/SEGGER/SEGGER_SYSVIEW.c ****       while ((FieldWidth != 0u) && (Width < FieldWidth)) {
 1515              		.loc 1 953 0 is_stmt 0 discriminator 1
 1516 0116 FA69     		ldr	r2, [r7, #28]
 1517 0118 3B6B     		ldr	r3, [r7, #48]
 1518 011a 9A42     		cmp	r2, r3
 1519 011c F1D3     		bcc	.L94
 1520              	.L80:
 956:../../../SystemView/SEGGER/SEGGER_SYSVIEW.c ****       }
 957:../../../SystemView/SEGGER/SEGGER_SYSVIEW.c ****     }
 958:../../../SystemView/SEGGER/SEGGER_SYSVIEW.c ****   }
 959:../../../SystemView/SEGGER/SEGGER_SYSVIEW.c **** }
 1521              		.loc 1 959 0 is_stmt 1
 1522 011e 2837     		adds	r7, r7, #40
 1523              	.LCFI46:
 1524              		.cfi_def_cfa_offset 8
 1525 0120 BD46     		mov	sp, r7
 1526              	.LCFI47:
 1527              		.cfi_def_cfa_register 13
 1528              		@ sp needed
 1529 0122 80BD     		pop	{r7, pc}
 1530              	.L96:
 1531              		.align	2
 1532              	.L95:
 1533 0124 00000000 		.word	_aV2C.5453
 1534              		.cfi_endproc
 1535              	.LFE8:
 1537              		.section	.text._PrintInt,"ax",%progbits
 1538              		.align	2
 1539              		.thumb
 1540              		.thumb_func
 1542              	_PrintInt:
 1543              	.LFB9:
 960:../../../SystemView/SEGGER/SEGGER_SYSVIEW.c **** 
 961:../../../SystemView/SEGGER/SEGGER_SYSVIEW.c **** /*********************************************************************
 962:../../../SystemView/SEGGER/SEGGER_SYSVIEW.c **** *
 963:../../../SystemView/SEGGER/SEGGER_SYSVIEW.c **** *       _PrintInt()
 964:../../../SystemView/SEGGER/SEGGER_SYSVIEW.c **** *
 965:../../../SystemView/SEGGER/SEGGER_SYSVIEW.c **** *  Function description
 966:../../../SystemView/SEGGER/SEGGER_SYSVIEW.c **** *    Print a signed integer with the given formatting into the 
 967:../../../SystemView/SEGGER/SEGGER_SYSVIEW.c **** *     formatted string.
 968:../../../SystemView/SEGGER/SEGGER_SYSVIEW.c **** *
 969:../../../SystemView/SEGGER/SEGGER_SYSVIEW.c **** *  Parameters
 970:../../../SystemView/SEGGER/SEGGER_SYSVIEW.c **** *    pBufferDesc  Pointer to the buffer description.
 971:../../../SystemView/SEGGER/SEGGER_SYSVIEW.c **** *    v            Value to be printed.
 972:../../../SystemView/SEGGER/SEGGER_SYSVIEW.c **** *    Base         Base of the value.
 973:../../../SystemView/SEGGER/SEGGER_SYSVIEW.c **** *    NumDigits    Number of digits to be printed.
 974:../../../SystemView/SEGGER/SEGGER_SYSVIEW.c **** *    FieldWidth   Width of the printed field.
ARM GAS  /tmp/ccJhHFds.s 			page 45


 975:../../../SystemView/SEGGER/SEGGER_SYSVIEW.c **** *    FormatFlags  Flags for formatting the value.
 976:../../../SystemView/SEGGER/SEGGER_SYSVIEW.c **** */
 977:../../../SystemView/SEGGER/SEGGER_SYSVIEW.c **** static void _PrintInt(SEGGER_SYSVIEW_PRINTF_DESC * pBufferDesc, int v, unsigned int Base, unsigned 
 1544              		.loc 1 977 0
 1545              		.cfi_startproc
 1546              		@ args = 8, pretend = 0, frame = 24
 1547              		@ frame_needed = 1, uses_anonymous_args = 0
 1548 0000 80B5     		push	{r7, lr}
 1549              	.LCFI48:
 1550              		.cfi_def_cfa_offset 8
 1551              		.cfi_offset 7, -8
 1552              		.cfi_offset 14, -4
 1553 0002 88B0     		sub	sp, sp, #32
 1554              	.LCFI49:
 1555              		.cfi_def_cfa_offset 40
 1556 0004 02AF     		add	r7, sp, #8
 1557              	.LCFI50:
 1558              		.cfi_def_cfa 7, 32
 1559 0006 F860     		str	r0, [r7, #12]
 1560 0008 B960     		str	r1, [r7, #8]
 1561 000a 7A60     		str	r2, [r7, #4]
 1562 000c 3B60     		str	r3, [r7]
 978:../../../SystemView/SEGGER/SEGGER_SYSVIEW.c ****   unsigned int  Width;
 979:../../../SystemView/SEGGER/SEGGER_SYSVIEW.c ****   int           Number;
 980:../../../SystemView/SEGGER/SEGGER_SYSVIEW.c **** 
 981:../../../SystemView/SEGGER/SEGGER_SYSVIEW.c ****   Number = (v < 0) ? -v : v;
 1563              		.loc 1 981 0
 1564 000e BB68     		ldr	r3, [r7, #8]
 1565 0010 002B     		cmp	r3, #0
 1566 0012 B8BF     		it	lt
 1567 0014 5B42     		rsblt	r3, r3, #0
 1568 0016 3B61     		str	r3, [r7, #16]
 982:../../../SystemView/SEGGER/SEGGER_SYSVIEW.c **** 
 983:../../../SystemView/SEGGER/SEGGER_SYSVIEW.c ****   //
 984:../../../SystemView/SEGGER/SEGGER_SYSVIEW.c ****   // Get actual field width
 985:../../../SystemView/SEGGER/SEGGER_SYSVIEW.c ****   //
 986:../../../SystemView/SEGGER/SEGGER_SYSVIEW.c ****   Width = 1u;
 1569              		.loc 1 986 0
 1570 0018 0123     		movs	r3, #1
 1571 001a 7B61     		str	r3, [r7, #20]
 987:../../../SystemView/SEGGER/SEGGER_SYSVIEW.c ****   while (Number >= (int)Base) {
 1572              		.loc 1 987 0
 1573 001c 07E0     		b	.L98
 1574              	.L99:
 988:../../../SystemView/SEGGER/SEGGER_SYSVIEW.c ****     Number = (Number / (int)Base);
 1575              		.loc 1 988 0
 1576 001e 7B68     		ldr	r3, [r7, #4]
 1577 0020 3A69     		ldr	r2, [r7, #16]
 1578 0022 92FBF3F3 		sdiv	r3, r2, r3
 1579 0026 3B61     		str	r3, [r7, #16]
 989:../../../SystemView/SEGGER/SEGGER_SYSVIEW.c ****     Width++;
 1580              		.loc 1 989 0
 1581 0028 7B69     		ldr	r3, [r7, #20]
 1582 002a 0133     		adds	r3, r3, #1
 1583 002c 7B61     		str	r3, [r7, #20]
 1584              	.L98:
 987:../../../SystemView/SEGGER/SEGGER_SYSVIEW.c ****   while (Number >= (int)Base) {
ARM GAS  /tmp/ccJhHFds.s 			page 46


 1585              		.loc 1 987 0
 1586 002e 7A68     		ldr	r2, [r7, #4]
 1587 0030 3B69     		ldr	r3, [r7, #16]
 1588 0032 9A42     		cmp	r2, r3
 1589 0034 F3DD     		ble	.L99
 990:../../../SystemView/SEGGER/SEGGER_SYSVIEW.c ****   }
 991:../../../SystemView/SEGGER/SEGGER_SYSVIEW.c ****   if (NumDigits > Width) {
 1590              		.loc 1 991 0
 1591 0036 3A68     		ldr	r2, [r7]
 1592 0038 7B69     		ldr	r3, [r7, #20]
 1593 003a 9A42     		cmp	r2, r3
 1594 003c 01D9     		bls	.L100
 992:../../../SystemView/SEGGER/SEGGER_SYSVIEW.c ****     Width = NumDigits;
 1595              		.loc 1 992 0
 1596 003e 3B68     		ldr	r3, [r7]
 1597 0040 7B61     		str	r3, [r7, #20]
 1598              	.L100:
 993:../../../SystemView/SEGGER/SEGGER_SYSVIEW.c ****   }
 994:../../../SystemView/SEGGER/SEGGER_SYSVIEW.c ****   if ((FieldWidth > 0u) && ((v < 0) || ((FormatFlags & FORMAT_FLAG_PRINT_SIGN) == FORMAT_FLAG_PRINT
 1599              		.loc 1 994 0
 1600 0042 3B6A     		ldr	r3, [r7, #32]
 1601 0044 002B     		cmp	r3, #0
 1602 0046 0AD0     		beq	.L101
 1603              		.loc 1 994 0 is_stmt 0 discriminator 1
 1604 0048 BB68     		ldr	r3, [r7, #8]
 1605 004a 002B     		cmp	r3, #0
 1606 004c 04DB     		blt	.L102
 1607              		.loc 1 994 0 discriminator 2
 1608 004e 7B6A     		ldr	r3, [r7, #36]
 1609 0050 03F00403 		and	r3, r3, #4
 1610 0054 002B     		cmp	r3, #0
 1611 0056 02D0     		beq	.L101
 1612              	.L102:
 995:../../../SystemView/SEGGER/SEGGER_SYSVIEW.c ****     FieldWidth--;
 1613              		.loc 1 995 0 is_stmt 1
 1614 0058 3B6A     		ldr	r3, [r7, #32]
 1615 005a 013B     		subs	r3, r3, #1
 1616 005c 3B62     		str	r3, [r7, #32]
 1617              	.L101:
 996:../../../SystemView/SEGGER/SEGGER_SYSVIEW.c ****   }
 997:../../../SystemView/SEGGER/SEGGER_SYSVIEW.c **** 
 998:../../../SystemView/SEGGER/SEGGER_SYSVIEW.c ****   //
 999:../../../SystemView/SEGGER/SEGGER_SYSVIEW.c ****   // Print leading spaces if necessary
1000:../../../SystemView/SEGGER/SEGGER_SYSVIEW.c ****   //
1001:../../../SystemView/SEGGER/SEGGER_SYSVIEW.c ****   if ((((FormatFlags & FORMAT_FLAG_PAD_ZERO) == 0u) || (NumDigits != 0u)) && ((FormatFlags & FORMAT
 1618              		.loc 1 1001 0
 1619 005e 7B6A     		ldr	r3, [r7, #36]
 1620 0060 03F00203 		and	r3, r3, #2
 1621 0064 002B     		cmp	r3, #0
 1622 0066 02D0     		beq	.L103
 1623              		.loc 1 1001 0 is_stmt 0 discriminator 2
 1624 0068 3B68     		ldr	r3, [r7]
 1625 006a 002B     		cmp	r3, #0
 1626 006c 16D0     		beq	.L104
 1627              	.L103:
 1628              		.loc 1 1001 0 discriminator 3
 1629 006e 7B6A     		ldr	r3, [r7, #36]
ARM GAS  /tmp/ccJhHFds.s 			page 47


 1630 0070 03F00103 		and	r3, r3, #1
 1631 0074 002B     		cmp	r3, #0
 1632 0076 11D1     		bne	.L104
1002:../../../SystemView/SEGGER/SEGGER_SYSVIEW.c ****     if (FieldWidth != 0u) {
 1633              		.loc 1 1002 0 is_stmt 1
 1634 0078 3B6A     		ldr	r3, [r7, #32]
 1635 007a 002B     		cmp	r3, #0
 1636 007c 0ED0     		beq	.L104
1003:../../../SystemView/SEGGER/SEGGER_SYSVIEW.c ****       while ((FieldWidth != 0u) && (Width < FieldWidth)) {
 1637              		.loc 1 1003 0
 1638 007e 06E0     		b	.L105
 1639              	.L106:
1004:../../../SystemView/SEGGER/SEGGER_SYSVIEW.c ****         FieldWidth--;
 1640              		.loc 1 1004 0
 1641 0080 3B6A     		ldr	r3, [r7, #32]
 1642 0082 013B     		subs	r3, r3, #1
 1643 0084 3B62     		str	r3, [r7, #32]
1005:../../../SystemView/SEGGER/SEGGER_SYSVIEW.c ****         _StoreChar(pBufferDesc, ' ');
 1644              		.loc 1 1005 0
 1645 0086 F868     		ldr	r0, [r7, #12]
 1646 0088 2021     		movs	r1, #32
 1647 008a FFF7FEFF 		bl	_StoreChar
 1648              	.L105:
1003:../../../SystemView/SEGGER/SEGGER_SYSVIEW.c ****       while ((FieldWidth != 0u) && (Width < FieldWidth)) {
 1649              		.loc 1 1003 0
 1650 008e 3B6A     		ldr	r3, [r7, #32]
 1651 0090 002B     		cmp	r3, #0
 1652 0092 03D0     		beq	.L104
1003:../../../SystemView/SEGGER/SEGGER_SYSVIEW.c ****       while ((FieldWidth != 0u) && (Width < FieldWidth)) {
 1653              		.loc 1 1003 0 is_stmt 0 discriminator 1
 1654 0094 7A69     		ldr	r2, [r7, #20]
 1655 0096 3B6A     		ldr	r3, [r7, #32]
 1656 0098 9A42     		cmp	r2, r3
 1657 009a F1D3     		bcc	.L106
 1658              	.L104:
1006:../../../SystemView/SEGGER/SEGGER_SYSVIEW.c ****       }
1007:../../../SystemView/SEGGER/SEGGER_SYSVIEW.c ****     }
1008:../../../SystemView/SEGGER/SEGGER_SYSVIEW.c ****   }
1009:../../../SystemView/SEGGER/SEGGER_SYSVIEW.c ****   //
1010:../../../SystemView/SEGGER/SEGGER_SYSVIEW.c ****   // Print sign if necessary
1011:../../../SystemView/SEGGER/SEGGER_SYSVIEW.c ****   //
1012:../../../SystemView/SEGGER/SEGGER_SYSVIEW.c ****   if (v < 0) {
 1659              		.loc 1 1012 0 is_stmt 1
 1660 009c BB68     		ldr	r3, [r7, #8]
 1661 009e 002B     		cmp	r3, #0
 1662 00a0 07DA     		bge	.L107
1013:../../../SystemView/SEGGER/SEGGER_SYSVIEW.c ****     v = -v;
 1663              		.loc 1 1013 0
 1664 00a2 BB68     		ldr	r3, [r7, #8]
 1665 00a4 5B42     		negs	r3, r3
 1666 00a6 BB60     		str	r3, [r7, #8]
1014:../../../SystemView/SEGGER/SEGGER_SYSVIEW.c ****     _StoreChar(pBufferDesc, '-');
 1667              		.loc 1 1014 0
 1668 00a8 F868     		ldr	r0, [r7, #12]
 1669 00aa 2D21     		movs	r1, #45
 1670 00ac FFF7FEFF 		bl	_StoreChar
 1671 00b0 08E0     		b	.L108
ARM GAS  /tmp/ccJhHFds.s 			page 48


 1672              	.L107:
1015:../../../SystemView/SEGGER/SEGGER_SYSVIEW.c ****   } else if ((FormatFlags & FORMAT_FLAG_PRINT_SIGN) == FORMAT_FLAG_PRINT_SIGN) {
 1673              		.loc 1 1015 0
 1674 00b2 7B6A     		ldr	r3, [r7, #36]
 1675 00b4 03F00403 		and	r3, r3, #4
 1676 00b8 002B     		cmp	r3, #0
 1677 00ba 03D0     		beq	.L108
1016:../../../SystemView/SEGGER/SEGGER_SYSVIEW.c ****     _StoreChar(pBufferDesc, '+');
 1678              		.loc 1 1016 0
 1679 00bc F868     		ldr	r0, [r7, #12]
 1680 00be 2B21     		movs	r1, #43
 1681 00c0 FFF7FEFF 		bl	_StoreChar
 1682              	.L108:
1017:../../../SystemView/SEGGER/SEGGER_SYSVIEW.c ****   } else {
1018:../../../SystemView/SEGGER/SEGGER_SYSVIEW.c **** 
1019:../../../SystemView/SEGGER/SEGGER_SYSVIEW.c ****   }
1020:../../../SystemView/SEGGER/SEGGER_SYSVIEW.c ****   //
1021:../../../SystemView/SEGGER/SEGGER_SYSVIEW.c ****   // Print leading zeros if necessary
1022:../../../SystemView/SEGGER/SEGGER_SYSVIEW.c ****   //
1023:../../../SystemView/SEGGER/SEGGER_SYSVIEW.c ****   if (((FormatFlags & FORMAT_FLAG_PAD_ZERO) == FORMAT_FLAG_PAD_ZERO) && ((FormatFlags & FORMAT_FLAG
 1683              		.loc 1 1023 0
 1684 00c4 7B6A     		ldr	r3, [r7, #36]
 1685 00c6 03F00203 		and	r3, r3, #2
 1686 00ca 002B     		cmp	r3, #0
 1687 00cc 19D0     		beq	.L109
 1688              		.loc 1 1023 0 is_stmt 0 discriminator 1
 1689 00ce 7B6A     		ldr	r3, [r7, #36]
 1690 00d0 03F00103 		and	r3, r3, #1
 1691 00d4 002B     		cmp	r3, #0
 1692 00d6 14D1     		bne	.L109
 1693              		.loc 1 1023 0 discriminator 2
 1694 00d8 3B68     		ldr	r3, [r7]
 1695 00da 002B     		cmp	r3, #0
 1696 00dc 11D1     		bne	.L109
1024:../../../SystemView/SEGGER/SEGGER_SYSVIEW.c ****     if (FieldWidth != 0u) {
 1697              		.loc 1 1024 0 is_stmt 1
 1698 00de 3B6A     		ldr	r3, [r7, #32]
 1699 00e0 002B     		cmp	r3, #0
 1700 00e2 0ED0     		beq	.L109
1025:../../../SystemView/SEGGER/SEGGER_SYSVIEW.c ****       while ((FieldWidth != 0u) && (Width < FieldWidth)) {
 1701              		.loc 1 1025 0
 1702 00e4 06E0     		b	.L110
 1703              	.L111:
1026:../../../SystemView/SEGGER/SEGGER_SYSVIEW.c ****         FieldWidth--;
 1704              		.loc 1 1026 0
 1705 00e6 3B6A     		ldr	r3, [r7, #32]
 1706 00e8 013B     		subs	r3, r3, #1
 1707 00ea 3B62     		str	r3, [r7, #32]
1027:../../../SystemView/SEGGER/SEGGER_SYSVIEW.c ****         _StoreChar(pBufferDesc, '0');
 1708              		.loc 1 1027 0
 1709 00ec F868     		ldr	r0, [r7, #12]
 1710 00ee 3021     		movs	r1, #48
 1711 00f0 FFF7FEFF 		bl	_StoreChar
 1712              	.L110:
1025:../../../SystemView/SEGGER/SEGGER_SYSVIEW.c ****       while ((FieldWidth != 0u) && (Width < FieldWidth)) {
 1713              		.loc 1 1025 0
 1714 00f4 3B6A     		ldr	r3, [r7, #32]
ARM GAS  /tmp/ccJhHFds.s 			page 49


 1715 00f6 002B     		cmp	r3, #0
 1716 00f8 03D0     		beq	.L109
1025:../../../SystemView/SEGGER/SEGGER_SYSVIEW.c ****       while ((FieldWidth != 0u) && (Width < FieldWidth)) {
 1717              		.loc 1 1025 0 is_stmt 0 discriminator 1
 1718 00fa 7A69     		ldr	r2, [r7, #20]
 1719 00fc 3B6A     		ldr	r3, [r7, #32]
 1720 00fe 9A42     		cmp	r2, r3
 1721 0100 F1D3     		bcc	.L111
 1722              	.L109:
1028:../../../SystemView/SEGGER/SEGGER_SYSVIEW.c ****       }
1029:../../../SystemView/SEGGER/SEGGER_SYSVIEW.c ****     }
1030:../../../SystemView/SEGGER/SEGGER_SYSVIEW.c ****   }
1031:../../../SystemView/SEGGER/SEGGER_SYSVIEW.c ****   //
1032:../../../SystemView/SEGGER/SEGGER_SYSVIEW.c ****   // Print number without sign
1033:../../../SystemView/SEGGER/SEGGER_SYSVIEW.c ****   //
1034:../../../SystemView/SEGGER/SEGGER_SYSVIEW.c ****   _PrintUnsigned(pBufferDesc, (unsigned int)v, Base, NumDigits, FieldWidth, FormatFlags);
 1723              		.loc 1 1034 0 is_stmt 1
 1724 0102 BA68     		ldr	r2, [r7, #8]
 1725 0104 3B6A     		ldr	r3, [r7, #32]
 1726 0106 0093     		str	r3, [sp]
 1727 0108 7B6A     		ldr	r3, [r7, #36]
 1728 010a 0193     		str	r3, [sp, #4]
 1729 010c F868     		ldr	r0, [r7, #12]
 1730 010e 1146     		mov	r1, r2
 1731 0110 7A68     		ldr	r2, [r7, #4]
 1732 0112 3B68     		ldr	r3, [r7]
 1733 0114 FFF7FEFF 		bl	_PrintUnsigned
1035:../../../SystemView/SEGGER/SEGGER_SYSVIEW.c **** }
 1734              		.loc 1 1035 0
 1735 0118 1837     		adds	r7, r7, #24
 1736              	.LCFI51:
 1737              		.cfi_def_cfa_offset 8
 1738 011a BD46     		mov	sp, r7
 1739              	.LCFI52:
 1740              		.cfi_def_cfa_register 13
 1741              		@ sp needed
 1742 011c 80BD     		pop	{r7, pc}
 1743              		.cfi_endproc
 1744              	.LFE9:
 1746 011e 00BF     		.section	.text._VPrintTarget,"ax",%progbits
 1747              		.align	2
 1748              		.thumb
 1749              		.thumb_func
 1751              	_VPrintTarget:
 1752              	.LFB10:
1036:../../../SystemView/SEGGER/SEGGER_SYSVIEW.c **** 
1037:../../../SystemView/SEGGER/SEGGER_SYSVIEW.c **** /*********************************************************************
1038:../../../SystemView/SEGGER/SEGGER_SYSVIEW.c **** *
1039:../../../SystemView/SEGGER/SEGGER_SYSVIEW.c **** *       _VPrintTarget()
1040:../../../SystemView/SEGGER/SEGGER_SYSVIEW.c **** *
1041:../../../SystemView/SEGGER/SEGGER_SYSVIEW.c **** *  Function description
1042:../../../SystemView/SEGGER/SEGGER_SYSVIEW.c **** *    Stores a formatted string.
1043:../../../SystemView/SEGGER/SEGGER_SYSVIEW.c **** *    This data is read by the host.
1044:../../../SystemView/SEGGER/SEGGER_SYSVIEW.c **** *
1045:../../../SystemView/SEGGER/SEGGER_SYSVIEW.c **** *  Parameters
1046:../../../SystemView/SEGGER/SEGGER_SYSVIEW.c **** *    sFormat      Pointer to format string.
1047:../../../SystemView/SEGGER/SEGGER_SYSVIEW.c **** *    Options      Options to be sent to the host.
ARM GAS  /tmp/ccJhHFds.s 			page 50


1048:../../../SystemView/SEGGER/SEGGER_SYSVIEW.c **** *    pParamList   Pointer to the list of arguments for the format string.
1049:../../../SystemView/SEGGER/SEGGER_SYSVIEW.c **** */
1050:../../../SystemView/SEGGER/SEGGER_SYSVIEW.c **** static void _VPrintTarget(const char* sFormat, U32 Options, va_list* pParamList) {
 1753              		.loc 1 1050 0
 1754              		.cfi_startproc
 1755              		@ args = 0, pretend = 0, frame = 88
 1756              		@ frame_needed = 1, uses_anonymous_args = 0
 1757 0000 80B5     		push	{r7, lr}
 1758              	.LCFI53:
 1759              		.cfi_def_cfa_offset 8
 1760              		.cfi_offset 7, -8
 1761              		.cfi_offset 14, -4
 1762 0002 98B0     		sub	sp, sp, #96
 1763              	.LCFI54:
 1764              		.cfi_def_cfa_offset 104
 1765 0004 02AF     		add	r7, sp, #8
 1766              	.LCFI55:
 1767              		.cfi_def_cfa 7, 96
 1768 0006 F860     		str	r0, [r7, #12]
 1769 0008 B960     		str	r1, [r7, #8]
 1770 000a 7A60     		str	r2, [r7, #4]
 1771              	.LBB11:
1051:../../../SystemView/SEGGER/SEGGER_SYSVIEW.c ****   SEGGER_SYSVIEW_PRINTF_DESC BufferDesc;
1052:../../../SystemView/SEGGER/SEGGER_SYSVIEW.c ****   char          c;
1053:../../../SystemView/SEGGER/SEGGER_SYSVIEW.c ****   int           v;
1054:../../../SystemView/SEGGER/SEGGER_SYSVIEW.c ****   unsigned int  NumDigits;
1055:../../../SystemView/SEGGER/SEGGER_SYSVIEW.c ****   unsigned int  FormatFlags;
1056:../../../SystemView/SEGGER/SEGGER_SYSVIEW.c ****   unsigned int  FieldWidth;
1057:../../../SystemView/SEGGER/SEGGER_SYSVIEW.c ****   U8*           pPayloadStart;
1058:../../../SystemView/SEGGER/SEGGER_SYSVIEW.c **** #if SEGGER_SYSVIEW_USE_STATIC_BUFFER == 0
1059:../../../SystemView/SEGGER/SEGGER_SYSVIEW.c ****   RECORD_START(SEGGER_SYSVIEW_INFO_SIZE + SEGGER_SYSVIEW_MAX_STRING_LEN + 1 + 2 * SEGGER_SYSVIEW_QU
1060:../../../SystemView/SEGGER/SEGGER_SYSVIEW.c ****   SEGGER_SYSVIEW_LOCK();
1061:../../../SystemView/SEGGER/SEGGER_SYSVIEW.c **** #else
1062:../../../SystemView/SEGGER/SEGGER_SYSVIEW.c ****   RECORD_START(SEGGER_SYSVIEW_INFO_SIZE + SEGGER_SYSVIEW_MAX_STRING_LEN + 1 + 2 * SEGGER_SYSVIEW_QU
 1772              		.loc 1 1062 0
 1773              	@ 1062 "../../../SystemView/SEGGER/SEGGER_SYSVIEW.c" 1
 1774 000c EFF31183 		mrs   r3, basepri  
 1775 0010 4FF02001 		mov   r1, #32       
 1776 0014 81F31188 		msr   basepri, r1  
 1777              		
 1778              	@ 0 "" 2
 1779              		.thumb
 1780 0018 3B63     		str	r3, [r7, #48]
 1781 001a A848     		ldr	r0, .L147
 1782 001c FFF7FEFF 		bl	_PreparePacket
 1783 0020 F862     		str	r0, [r7, #44]
1063:../../../SystemView/SEGGER/SEGGER_SYSVIEW.c **** #endif
1064:../../../SystemView/SEGGER/SEGGER_SYSVIEW.c **** 
1065:../../../SystemView/SEGGER/SEGGER_SYSVIEW.c **** #if SEGGER_SYSVIEW_USE_STATIC_BUFFER == 0
1066:../../../SystemView/SEGGER/SEGGER_SYSVIEW.c ****   BufferDesc.pBuffer        = aPacket;
1067:../../../SystemView/SEGGER/SEGGER_SYSVIEW.c **** #else
1068:../../../SystemView/SEGGER/SEGGER_SYSVIEW.c ****   BufferDesc.pBuffer        = _aPacket;
 1784              		.loc 1 1068 0
 1785 0022 A64B     		ldr	r3, .L147
 1786 0024 7B61     		str	r3, [r7, #20]
1069:../../../SystemView/SEGGER/SEGGER_SYSVIEW.c **** #endif
1070:../../../SystemView/SEGGER/SEGGER_SYSVIEW.c ****   BufferDesc.Cnt            = 0u;
ARM GAS  /tmp/ccJhHFds.s 			page 51


 1787              		.loc 1 1070 0
 1788 0026 0023     		movs	r3, #0
 1789 0028 7B62     		str	r3, [r7, #36]
1071:../../../SystemView/SEGGER/SEGGER_SYSVIEW.c ****   BufferDesc.pPayloadStart  = pPayloadStart;
 1790              		.loc 1 1071 0
 1791 002a FB6A     		ldr	r3, [r7, #44]
 1792 002c FB61     		str	r3, [r7, #28]
1072:../../../SystemView/SEGGER/SEGGER_SYSVIEW.c ****   BufferDesc.pPayload       = BufferDesc.pPayloadStart + 1u;
 1793              		.loc 1 1072 0
 1794 002e FB69     		ldr	r3, [r7, #28]
 1795 0030 0133     		adds	r3, r3, #1
 1796 0032 BB61     		str	r3, [r7, #24]
1073:../../../SystemView/SEGGER/SEGGER_SYSVIEW.c ****   BufferDesc.Options        =  Options;
 1797              		.loc 1 1073 0
 1798 0034 BB68     		ldr	r3, [r7, #8]
 1799 0036 3B62     		str	r3, [r7, #32]
 1800              	.L141:
1074:../../../SystemView/SEGGER/SEGGER_SYSVIEW.c **** 
1075:../../../SystemView/SEGGER/SEGGER_SYSVIEW.c ****   do {
1076:../../../SystemView/SEGGER/SEGGER_SYSVIEW.c ****     c = *sFormat;
 1801              		.loc 1 1076 0
 1802 0038 FB68     		ldr	r3, [r7, #12]
 1803 003a 1B78     		ldrb	r3, [r3]
 1804 003c 87F85730 		strb	r3, [r7, #87]
1077:../../../SystemView/SEGGER/SEGGER_SYSVIEW.c ****     sFormat++;
 1805              		.loc 1 1077 0
 1806 0040 FB68     		ldr	r3, [r7, #12]
 1807 0042 0133     		adds	r3, r3, #1
 1808 0044 FB60     		str	r3, [r7, #12]
1078:../../../SystemView/SEGGER/SEGGER_SYSVIEW.c ****     if (c == 0u) {
 1809              		.loc 1 1078 0
 1810 0046 97F85730 		ldrb	r3, [r7, #87]	@ zero_extendqisi2
 1811 004a 002B     		cmp	r3, #0
 1812 004c 00D1     		bne	.L113
1079:../../../SystemView/SEGGER/SEGGER_SYSVIEW.c ****       break;
 1813              		.loc 1 1079 0
 1814 004e 44E1     		b	.L114
 1815              	.L113:
1080:../../../SystemView/SEGGER/SEGGER_SYSVIEW.c ****     }
1081:../../../SystemView/SEGGER/SEGGER_SYSVIEW.c ****     if (c == '%') {
 1816              		.loc 1 1081 0
 1817 0050 97F85730 		ldrb	r3, [r7, #87]	@ zero_extendqisi2
 1818 0054 252B     		cmp	r3, #37
 1819 0056 40F03381 		bne	.L115
1082:../../../SystemView/SEGGER/SEGGER_SYSVIEW.c ****       //
1083:../../../SystemView/SEGGER/SEGGER_SYSVIEW.c ****       // Filter out flags
1084:../../../SystemView/SEGGER/SEGGER_SYSVIEW.c ****       //
1085:../../../SystemView/SEGGER/SEGGER_SYSVIEW.c ****       FormatFlags = 0u;
 1820              		.loc 1 1085 0
 1821 005a 0023     		movs	r3, #0
 1822 005c BB64     		str	r3, [r7, #72]
1086:../../../SystemView/SEGGER/SEGGER_SYSVIEW.c ****       v = 1;
 1823              		.loc 1 1086 0
 1824 005e 0123     		movs	r3, #1
 1825 0060 3B65     		str	r3, [r7, #80]
 1826              	.L123:
1087:../../../SystemView/SEGGER/SEGGER_SYSVIEW.c ****       do {
ARM GAS  /tmp/ccJhHFds.s 			page 52


1088:../../../SystemView/SEGGER/SEGGER_SYSVIEW.c ****         c = *sFormat;
 1827              		.loc 1 1088 0
 1828 0062 FB68     		ldr	r3, [r7, #12]
 1829 0064 1B78     		ldrb	r3, [r3]
 1830 0066 87F85730 		strb	r3, [r7, #87]
1089:../../../SystemView/SEGGER/SEGGER_SYSVIEW.c ****         switch (c) {
 1831              		.loc 1 1089 0
 1832 006a 97F85730 		ldrb	r3, [r7, #87]	@ zero_extendqisi2
 1833 006e 233B     		subs	r3, r3, #35
 1834 0070 0D2B     		cmp	r3, #13
 1835 0072 3FD8     		bhi	.L116
 1836 0074 01A2     		adr	r2, .L118
 1837 0076 52F823F0 		ldr	pc, [r2, r3, lsl #2]
 1838 007a 00BF     		.p2align 2
 1839              	.L118:
 1840 007c E5000000 		.word	.L117+1
 1841 0080 F5000000 		.word	.L116+1
 1842 0084 F5000000 		.word	.L116+1
 1843 0088 F5000000 		.word	.L116+1
 1844 008c F5000000 		.word	.L116+1
 1845 0090 F5000000 		.word	.L116+1
 1846 0094 F5000000 		.word	.L116+1
 1847 0098 F5000000 		.word	.L116+1
 1848 009c D5000000 		.word	.L119+1
 1849 00a0 F5000000 		.word	.L116+1
 1850 00a4 B5000000 		.word	.L120+1
 1851 00a8 F5000000 		.word	.L116+1
 1852 00ac F5000000 		.word	.L116+1
 1853 00b0 C5000000 		.word	.L121+1
 1854              		.p2align 1
 1855              	.L120:
1090:../../../SystemView/SEGGER/SEGGER_SYSVIEW.c ****         case '-': FormatFlags |= FORMAT_FLAG_LEFT_JUSTIFY; sFormat++; break;
 1856              		.loc 1 1090 0
 1857 00b4 BB6C     		ldr	r3, [r7, #72]
 1858 00b6 43F00103 		orr	r3, r3, #1
 1859 00ba BB64     		str	r3, [r7, #72]
 1860 00bc FB68     		ldr	r3, [r7, #12]
 1861 00be 0133     		adds	r3, r3, #1
 1862 00c0 FB60     		str	r3, [r7, #12]
 1863 00c2 1AE0     		b	.L122
 1864              	.L121:
1091:../../../SystemView/SEGGER/SEGGER_SYSVIEW.c ****         case '0': FormatFlags |= FORMAT_FLAG_PAD_ZERO;     sFormat++; break;
 1865              		.loc 1 1091 0
 1866 00c4 BB6C     		ldr	r3, [r7, #72]
 1867 00c6 43F00203 		orr	r3, r3, #2
 1868 00ca BB64     		str	r3, [r7, #72]
 1869 00cc FB68     		ldr	r3, [r7, #12]
 1870 00ce 0133     		adds	r3, r3, #1
 1871 00d0 FB60     		str	r3, [r7, #12]
 1872 00d2 12E0     		b	.L122
 1873              	.L119:
1092:../../../SystemView/SEGGER/SEGGER_SYSVIEW.c ****         case '+': FormatFlags |= FORMAT_FLAG_PRINT_SIGN;   sFormat++; break;
 1874              		.loc 1 1092 0
 1875 00d4 BB6C     		ldr	r3, [r7, #72]
 1876 00d6 43F00403 		orr	r3, r3, #4
 1877 00da BB64     		str	r3, [r7, #72]
 1878 00dc FB68     		ldr	r3, [r7, #12]
ARM GAS  /tmp/ccJhHFds.s 			page 53


 1879 00de 0133     		adds	r3, r3, #1
 1880 00e0 FB60     		str	r3, [r7, #12]
 1881 00e2 0AE0     		b	.L122
 1882              	.L117:
1093:../../../SystemView/SEGGER/SEGGER_SYSVIEW.c ****         case '#': FormatFlags |= FORMAT_FLAG_ALTERNATE;    sFormat++; break;
 1883              		.loc 1 1093 0
 1884 00e4 BB6C     		ldr	r3, [r7, #72]
 1885 00e6 43F00803 		orr	r3, r3, #8
 1886 00ea BB64     		str	r3, [r7, #72]
 1887 00ec FB68     		ldr	r3, [r7, #12]
 1888 00ee 0133     		adds	r3, r3, #1
 1889 00f0 FB60     		str	r3, [r7, #12]
 1890 00f2 02E0     		b	.L122
 1891              	.L116:
1094:../../../SystemView/SEGGER/SEGGER_SYSVIEW.c ****         default:  v = 0; break;
 1892              		.loc 1 1094 0
 1893 00f4 0023     		movs	r3, #0
 1894 00f6 3B65     		str	r3, [r7, #80]
 1895 00f8 00BF     		nop
 1896              	.L122:
1095:../../../SystemView/SEGGER/SEGGER_SYSVIEW.c ****         }
1096:../../../SystemView/SEGGER/SEGGER_SYSVIEW.c ****       } while (v);
 1897              		.loc 1 1096 0
 1898 00fa 3B6D     		ldr	r3, [r7, #80]
 1899 00fc 002B     		cmp	r3, #0
 1900 00fe B0D1     		bne	.L123
1097:../../../SystemView/SEGGER/SEGGER_SYSVIEW.c ****       //
1098:../../../SystemView/SEGGER/SEGGER_SYSVIEW.c ****       // filter out field with
1099:../../../SystemView/SEGGER/SEGGER_SYSVIEW.c ****       //
1100:../../../SystemView/SEGGER/SEGGER_SYSVIEW.c ****       FieldWidth = 0u;
 1901              		.loc 1 1100 0
 1902 0100 0023     		movs	r3, #0
 1903 0102 7B64     		str	r3, [r7, #68]
 1904              	.L125:
1101:../../../SystemView/SEGGER/SEGGER_SYSVIEW.c ****       do {
1102:../../../SystemView/SEGGER/SEGGER_SYSVIEW.c ****         c = *sFormat;
 1905              		.loc 1 1102 0
 1906 0104 FB68     		ldr	r3, [r7, #12]
 1907 0106 1B78     		ldrb	r3, [r3]
 1908 0108 87F85730 		strb	r3, [r7, #87]
1103:../../../SystemView/SEGGER/SEGGER_SYSVIEW.c ****         if ((c < '0') || (c > '9')) {
 1909              		.loc 1 1103 0
 1910 010c 97F85730 		ldrb	r3, [r7, #87]	@ zero_extendqisi2
 1911 0110 2F2B     		cmp	r3, #47
 1912 0112 12D9     		bls	.L124
 1913              		.loc 1 1103 0 is_stmt 0 discriminator 1
 1914 0114 97F85730 		ldrb	r3, [r7, #87]	@ zero_extendqisi2
 1915 0118 392B     		cmp	r3, #57
 1916 011a 0ED8     		bhi	.L124
1104:../../../SystemView/SEGGER/SEGGER_SYSVIEW.c ****           break;
1105:../../../SystemView/SEGGER/SEGGER_SYSVIEW.c ****         }
1106:../../../SystemView/SEGGER/SEGGER_SYSVIEW.c ****         sFormat++;
 1917              		.loc 1 1106 0 is_stmt 1
 1918 011c FB68     		ldr	r3, [r7, #12]
 1919 011e 0133     		adds	r3, r3, #1
 1920 0120 FB60     		str	r3, [r7, #12]
1107:../../../SystemView/SEGGER/SEGGER_SYSVIEW.c ****         FieldWidth = (FieldWidth * 10u) + ((unsigned int)c - '0');
ARM GAS  /tmp/ccJhHFds.s 			page 54


 1921              		.loc 1 1107 0
 1922 0122 7A6C     		ldr	r2, [r7, #68]
 1923 0124 1346     		mov	r3, r2
 1924 0126 9B00     		lsls	r3, r3, #2
 1925 0128 1344     		add	r3, r3, r2
 1926 012a 5B00     		lsls	r3, r3, #1
 1927 012c 1A46     		mov	r2, r3
 1928 012e 97F85730 		ldrb	r3, [r7, #87]	@ zero_extendqisi2
 1929 0132 1344     		add	r3, r3, r2
 1930 0134 303B     		subs	r3, r3, #48
 1931 0136 7B64     		str	r3, [r7, #68]
1108:../../../SystemView/SEGGER/SEGGER_SYSVIEW.c ****       } while (1);
 1932              		.loc 1 1108 0
 1933 0138 E4E7     		b	.L125
 1934              	.L124:
1109:../../../SystemView/SEGGER/SEGGER_SYSVIEW.c **** 
1110:../../../SystemView/SEGGER/SEGGER_SYSVIEW.c ****       //
1111:../../../SystemView/SEGGER/SEGGER_SYSVIEW.c ****       // Filter out precision (number of digits to display)
1112:../../../SystemView/SEGGER/SEGGER_SYSVIEW.c ****       //
1113:../../../SystemView/SEGGER/SEGGER_SYSVIEW.c ****       NumDigits = 0u;
 1935              		.loc 1 1113 0
 1936 013a 0023     		movs	r3, #0
 1937 013c FB64     		str	r3, [r7, #76]
1114:../../../SystemView/SEGGER/SEGGER_SYSVIEW.c ****       c = *sFormat;
 1938              		.loc 1 1114 0
 1939 013e FB68     		ldr	r3, [r7, #12]
 1940 0140 1B78     		ldrb	r3, [r3]
 1941 0142 87F85730 		strb	r3, [r7, #87]
1115:../../../SystemView/SEGGER/SEGGER_SYSVIEW.c ****       if (c == '.') {
 1942              		.loc 1 1115 0
 1943 0146 97F85730 		ldrb	r3, [r7, #87]	@ zero_extendqisi2
 1944 014a 2E2B     		cmp	r3, #46
 1945 014c 1DD1     		bne	.L126
1116:../../../SystemView/SEGGER/SEGGER_SYSVIEW.c ****         sFormat++;
 1946              		.loc 1 1116 0
 1947 014e FB68     		ldr	r3, [r7, #12]
 1948 0150 0133     		adds	r3, r3, #1
 1949 0152 FB60     		str	r3, [r7, #12]
 1950              	.L127:
1117:../../../SystemView/SEGGER/SEGGER_SYSVIEW.c ****         do {
1118:../../../SystemView/SEGGER/SEGGER_SYSVIEW.c ****           c = *sFormat;
 1951              		.loc 1 1118 0
 1952 0154 FB68     		ldr	r3, [r7, #12]
 1953 0156 1B78     		ldrb	r3, [r3]
 1954 0158 87F85730 		strb	r3, [r7, #87]
1119:../../../SystemView/SEGGER/SEGGER_SYSVIEW.c ****           if ((c < '0') || (c > '9')) {
 1955              		.loc 1 1119 0
 1956 015c 97F85730 		ldrb	r3, [r7, #87]	@ zero_extendqisi2
 1957 0160 2F2B     		cmp	r3, #47
 1958 0162 12D9     		bls	.L126
 1959              		.loc 1 1119 0 is_stmt 0 discriminator 1
 1960 0164 97F85730 		ldrb	r3, [r7, #87]	@ zero_extendqisi2
 1961 0168 392B     		cmp	r3, #57
 1962 016a 0ED8     		bhi	.L126
1120:../../../SystemView/SEGGER/SEGGER_SYSVIEW.c ****             break;
1121:../../../SystemView/SEGGER/SEGGER_SYSVIEW.c ****           }
1122:../../../SystemView/SEGGER/SEGGER_SYSVIEW.c ****           sFormat++;
ARM GAS  /tmp/ccJhHFds.s 			page 55


 1963              		.loc 1 1122 0 is_stmt 1
 1964 016c FB68     		ldr	r3, [r7, #12]
 1965 016e 0133     		adds	r3, r3, #1
 1966 0170 FB60     		str	r3, [r7, #12]
1123:../../../SystemView/SEGGER/SEGGER_SYSVIEW.c ****           NumDigits = NumDigits * 10u + ((unsigned int)c - '0');
 1967              		.loc 1 1123 0
 1968 0172 FA6C     		ldr	r2, [r7, #76]
 1969 0174 1346     		mov	r3, r2
 1970 0176 9B00     		lsls	r3, r3, #2
 1971 0178 1344     		add	r3, r3, r2
 1972 017a 5B00     		lsls	r3, r3, #1
 1973 017c 1A46     		mov	r2, r3
 1974 017e 97F85730 		ldrb	r3, [r7, #87]	@ zero_extendqisi2
 1975 0182 1344     		add	r3, r3, r2
 1976 0184 303B     		subs	r3, r3, #48
 1977 0186 FB64     		str	r3, [r7, #76]
1124:../../../SystemView/SEGGER/SEGGER_SYSVIEW.c ****         } while (1);
 1978              		.loc 1 1124 0
 1979 0188 E4E7     		b	.L127
 1980              	.L126:
1125:../../../SystemView/SEGGER/SEGGER_SYSVIEW.c ****       }
1126:../../../SystemView/SEGGER/SEGGER_SYSVIEW.c ****       //
1127:../../../SystemView/SEGGER/SEGGER_SYSVIEW.c ****       // Filter out length modifier
1128:../../../SystemView/SEGGER/SEGGER_SYSVIEW.c ****       //
1129:../../../SystemView/SEGGER/SEGGER_SYSVIEW.c ****       c = *sFormat;
 1981              		.loc 1 1129 0
 1982 018a FB68     		ldr	r3, [r7, #12]
 1983 018c 1B78     		ldrb	r3, [r3]
 1984 018e 87F85730 		strb	r3, [r7, #87]
 1985              	.L130:
1130:../../../SystemView/SEGGER/SEGGER_SYSVIEW.c ****       do {
1131:../../../SystemView/SEGGER/SEGGER_SYSVIEW.c ****         if ((c == 'l') || (c == 'h')) {
 1986              		.loc 1 1131 0
 1987 0192 97F85730 		ldrb	r3, [r7, #87]	@ zero_extendqisi2
 1988 0196 6C2B     		cmp	r3, #108
 1989 0198 03D0     		beq	.L128
 1990              		.loc 1 1131 0 is_stmt 0 discriminator 1
 1991 019a 97F85730 		ldrb	r3, [r7, #87]	@ zero_extendqisi2
 1992 019e 682B     		cmp	r3, #104
 1993 01a0 07D1     		bne	.L129
 1994              	.L128:
1132:../../../SystemView/SEGGER/SEGGER_SYSVIEW.c ****           c = *sFormat;
 1995              		.loc 1 1132 0 is_stmt 1
 1996 01a2 FB68     		ldr	r3, [r7, #12]
 1997 01a4 1B78     		ldrb	r3, [r3]
 1998 01a6 87F85730 		strb	r3, [r7, #87]
1133:../../../SystemView/SEGGER/SEGGER_SYSVIEW.c ****           sFormat++;
 1999              		.loc 1 1133 0
 2000 01aa FB68     		ldr	r3, [r7, #12]
 2001 01ac 0133     		adds	r3, r3, #1
 2002 01ae FB60     		str	r3, [r7, #12]
1134:../../../SystemView/SEGGER/SEGGER_SYSVIEW.c ****         } else {
1135:../../../SystemView/SEGGER/SEGGER_SYSVIEW.c ****           break;
1136:../../../SystemView/SEGGER/SEGGER_SYSVIEW.c ****         }
1137:../../../SystemView/SEGGER/SEGGER_SYSVIEW.c ****       } while (1);
 2003              		.loc 1 1137 0
 2004 01b0 EFE7     		b	.L130
ARM GAS  /tmp/ccJhHFds.s 			page 56


 2005              	.L129:
1138:../../../SystemView/SEGGER/SEGGER_SYSVIEW.c ****       //
1139:../../../SystemView/SEGGER/SEGGER_SYSVIEW.c ****       // Handle specifiers
1140:../../../SystemView/SEGGER/SEGGER_SYSVIEW.c ****       //
1141:../../../SystemView/SEGGER/SEGGER_SYSVIEW.c ****       switch (c) {
 2006              		.loc 1 1141 0
 2007 01b2 97F85730 		ldrb	r3, [r7, #87]	@ zero_extendqisi2
 2008 01b6 642B     		cmp	r3, #100
 2009 01b8 22D0     		beq	.L132
 2010 01ba 642B     		cmp	r3, #100
 2011 01bc 06DC     		bgt	.L133
 2012 01be 582B     		cmp	r3, #88
 2013 01c0 47D0     		beq	.L134
 2014 01c2 632B     		cmp	r3, #99
 2015 01c4 09D0     		beq	.L135
 2016 01c6 252B     		cmp	r3, #37
 2017 01c8 6DD0     		beq	.L136
1142:../../../SystemView/SEGGER/SEGGER_SYSVIEW.c ****       case 'c': {
1143:../../../SystemView/SEGGER/SEGGER_SYSVIEW.c ****         char c0;
1144:../../../SystemView/SEGGER/SEGGER_SYSVIEW.c ****         v = va_arg(*pParamList, int);
1145:../../../SystemView/SEGGER/SEGGER_SYSVIEW.c ****         c0 = (char)v;
1146:../../../SystemView/SEGGER/SEGGER_SYSVIEW.c ****         _StoreChar(&BufferDesc, c0);
1147:../../../SystemView/SEGGER/SEGGER_SYSVIEW.c ****         break;
1148:../../../SystemView/SEGGER/SEGGER_SYSVIEW.c ****       }
1149:../../../SystemView/SEGGER/SEGGER_SYSVIEW.c ****       case 'd':
1150:../../../SystemView/SEGGER/SEGGER_SYSVIEW.c ****         v = va_arg(*pParamList, int);
1151:../../../SystemView/SEGGER/SEGGER_SYSVIEW.c ****         _PrintInt(&BufferDesc, v, 10u, NumDigits, FieldWidth, FormatFlags);
1152:../../../SystemView/SEGGER/SEGGER_SYSVIEW.c ****         break;
1153:../../../SystemView/SEGGER/SEGGER_SYSVIEW.c ****       case 'u':
1154:../../../SystemView/SEGGER/SEGGER_SYSVIEW.c ****         v = va_arg(*pParamList, int);
1155:../../../SystemView/SEGGER/SEGGER_SYSVIEW.c ****         _PrintUnsigned(&BufferDesc, (unsigned int)v, 10u, NumDigits, FieldWidth, FormatFlags);
1156:../../../SystemView/SEGGER/SEGGER_SYSVIEW.c ****         break;
1157:../../../SystemView/SEGGER/SEGGER_SYSVIEW.c ****       case 'x':
1158:../../../SystemView/SEGGER/SEGGER_SYSVIEW.c ****       case 'X':
1159:../../../SystemView/SEGGER/SEGGER_SYSVIEW.c ****         v = va_arg(*pParamList, int);
1160:../../../SystemView/SEGGER/SEGGER_SYSVIEW.c ****         _PrintUnsigned(&BufferDesc, (unsigned int)v, 16u, NumDigits, FieldWidth, FormatFlags);
1161:../../../SystemView/SEGGER/SEGGER_SYSVIEW.c ****         break;
1162:../../../SystemView/SEGGER/SEGGER_SYSVIEW.c ****       case 'p':
1163:../../../SystemView/SEGGER/SEGGER_SYSVIEW.c ****         v = va_arg(*pParamList, int);
1164:../../../SystemView/SEGGER/SEGGER_SYSVIEW.c ****         _PrintUnsigned(&BufferDesc, (unsigned int)v, 16u, 8u, 8u, 0u);
1165:../../../SystemView/SEGGER/SEGGER_SYSVIEW.c ****         break;
1166:../../../SystemView/SEGGER/SEGGER_SYSVIEW.c ****       case '%':
1167:../../../SystemView/SEGGER/SEGGER_SYSVIEW.c ****         _StoreChar(&BufferDesc, '%');
1168:../../../SystemView/SEGGER/SEGGER_SYSVIEW.c ****         break;
1169:../../../SystemView/SEGGER/SEGGER_SYSVIEW.c ****       default:
1170:../../../SystemView/SEGGER/SEGGER_SYSVIEW.c ****         break;
 2018              		.loc 1 1170 0
 2019 01ca 73E0     		b	.L139
 2020              	.L133:
1141:../../../SystemView/SEGGER/SEGGER_SYSVIEW.c ****       case 'c': {
 2021              		.loc 1 1141 0
 2022 01cc 752B     		cmp	r3, #117
 2023 01ce 2BD0     		beq	.L137
 2024 01d0 782B     		cmp	r3, #120
 2025 01d2 3ED0     		beq	.L134
 2026 01d4 702B     		cmp	r3, #112
 2027 01d6 51D0     		beq	.L138
ARM GAS  /tmp/ccJhHFds.s 			page 57


 2028              		.loc 1 1170 0
 2029 01d8 6CE0     		b	.L139
 2030              	.L135:
 2031              	.LBB12:
1144:../../../SystemView/SEGGER/SEGGER_SYSVIEW.c ****         c0 = (char)v;
 2032              		.loc 1 1144 0
 2033 01da 7B68     		ldr	r3, [r7, #4]
 2034 01dc 1B68     		ldr	r3, [r3]
 2035 01de 191D     		adds	r1, r3, #4
 2036 01e0 7A68     		ldr	r2, [r7, #4]
 2037 01e2 1160     		str	r1, [r2]
 2038 01e4 1B68     		ldr	r3, [r3]
 2039 01e6 3B65     		str	r3, [r7, #80]
1145:../../../SystemView/SEGGER/SEGGER_SYSVIEW.c ****         _StoreChar(&BufferDesc, c0);
 2040              		.loc 1 1145 0
 2041 01e8 3B6D     		ldr	r3, [r7, #80]
 2042 01ea 87F82B30 		strb	r3, [r7, #43]
1146:../../../SystemView/SEGGER/SEGGER_SYSVIEW.c ****         break;
 2043              		.loc 1 1146 0
 2044 01ee 07F11402 		add	r2, r7, #20
 2045 01f2 97F82B30 		ldrb	r3, [r7, #43]	@ zero_extendqisi2
 2046 01f6 1046     		mov	r0, r2
 2047 01f8 1946     		mov	r1, r3
 2048 01fa FFF7FEFF 		bl	_StoreChar
1147:../../../SystemView/SEGGER/SEGGER_SYSVIEW.c ****       }
 2049              		.loc 1 1147 0
 2050 01fe 59E0     		b	.L139
 2051              	.L132:
 2052              	.LBE12:
1150:../../../SystemView/SEGGER/SEGGER_SYSVIEW.c ****         _PrintInt(&BufferDesc, v, 10u, NumDigits, FieldWidth, FormatFlags);
 2053              		.loc 1 1150 0
 2054 0200 7B68     		ldr	r3, [r7, #4]
 2055 0202 1B68     		ldr	r3, [r3]
 2056 0204 191D     		adds	r1, r3, #4
 2057 0206 7A68     		ldr	r2, [r7, #4]
 2058 0208 1160     		str	r1, [r2]
 2059 020a 1B68     		ldr	r3, [r3]
 2060 020c 3B65     		str	r3, [r7, #80]
1151:../../../SystemView/SEGGER/SEGGER_SYSVIEW.c ****         break;
 2061              		.loc 1 1151 0
 2062 020e 07F11402 		add	r2, r7, #20
 2063 0212 7B6C     		ldr	r3, [r7, #68]
 2064 0214 0093     		str	r3, [sp]
 2065 0216 BB6C     		ldr	r3, [r7, #72]
 2066 0218 0193     		str	r3, [sp, #4]
 2067 021a 1046     		mov	r0, r2
 2068 021c 396D     		ldr	r1, [r7, #80]
 2069 021e 0A22     		movs	r2, #10
 2070 0220 FB6C     		ldr	r3, [r7, #76]
 2071 0222 FFF7FEFF 		bl	_PrintInt
1152:../../../SystemView/SEGGER/SEGGER_SYSVIEW.c ****       case 'u':
 2072              		.loc 1 1152 0
 2073 0226 45E0     		b	.L139
 2074              	.L137:
1154:../../../SystemView/SEGGER/SEGGER_SYSVIEW.c ****         _PrintUnsigned(&BufferDesc, (unsigned int)v, 10u, NumDigits, FieldWidth, FormatFlags);
 2075              		.loc 1 1154 0
 2076 0228 7B68     		ldr	r3, [r7, #4]
ARM GAS  /tmp/ccJhHFds.s 			page 58


 2077 022a 1B68     		ldr	r3, [r3]
 2078 022c 191D     		adds	r1, r3, #4
 2079 022e 7A68     		ldr	r2, [r7, #4]
 2080 0230 1160     		str	r1, [r2]
 2081 0232 1B68     		ldr	r3, [r3]
 2082 0234 3B65     		str	r3, [r7, #80]
1155:../../../SystemView/SEGGER/SEGGER_SYSVIEW.c ****         break;
 2083              		.loc 1 1155 0
 2084 0236 3A6D     		ldr	r2, [r7, #80]
 2085 0238 07F11401 		add	r1, r7, #20
 2086 023c 7B6C     		ldr	r3, [r7, #68]
 2087 023e 0093     		str	r3, [sp]
 2088 0240 BB6C     		ldr	r3, [r7, #72]
 2089 0242 0193     		str	r3, [sp, #4]
 2090 0244 0846     		mov	r0, r1
 2091 0246 1146     		mov	r1, r2
 2092 0248 0A22     		movs	r2, #10
 2093 024a FB6C     		ldr	r3, [r7, #76]
 2094 024c FFF7FEFF 		bl	_PrintUnsigned
1156:../../../SystemView/SEGGER/SEGGER_SYSVIEW.c ****       case 'x':
 2095              		.loc 1 1156 0
 2096 0250 30E0     		b	.L139
 2097              	.L134:
1159:../../../SystemView/SEGGER/SEGGER_SYSVIEW.c ****         _PrintUnsigned(&BufferDesc, (unsigned int)v, 16u, NumDigits, FieldWidth, FormatFlags);
 2098              		.loc 1 1159 0
 2099 0252 7B68     		ldr	r3, [r7, #4]
 2100 0254 1B68     		ldr	r3, [r3]
 2101 0256 191D     		adds	r1, r3, #4
 2102 0258 7A68     		ldr	r2, [r7, #4]
 2103 025a 1160     		str	r1, [r2]
 2104 025c 1B68     		ldr	r3, [r3]
 2105 025e 3B65     		str	r3, [r7, #80]
1160:../../../SystemView/SEGGER/SEGGER_SYSVIEW.c ****         break;
 2106              		.loc 1 1160 0
 2107 0260 3A6D     		ldr	r2, [r7, #80]
 2108 0262 07F11401 		add	r1, r7, #20
 2109 0266 7B6C     		ldr	r3, [r7, #68]
 2110 0268 0093     		str	r3, [sp]
 2111 026a BB6C     		ldr	r3, [r7, #72]
 2112 026c 0193     		str	r3, [sp, #4]
 2113 026e 0846     		mov	r0, r1
 2114 0270 1146     		mov	r1, r2
 2115 0272 1022     		movs	r2, #16
 2116 0274 FB6C     		ldr	r3, [r7, #76]
 2117 0276 FFF7FEFF 		bl	_PrintUnsigned
1161:../../../SystemView/SEGGER/SEGGER_SYSVIEW.c ****       case 'p':
 2118              		.loc 1 1161 0
 2119 027a 1BE0     		b	.L139
 2120              	.L138:
1163:../../../SystemView/SEGGER/SEGGER_SYSVIEW.c ****         _PrintUnsigned(&BufferDesc, (unsigned int)v, 16u, 8u, 8u, 0u);
 2121              		.loc 1 1163 0
 2122 027c 7B68     		ldr	r3, [r7, #4]
 2123 027e 1B68     		ldr	r3, [r3]
 2124 0280 191D     		adds	r1, r3, #4
 2125 0282 7A68     		ldr	r2, [r7, #4]
 2126 0284 1160     		str	r1, [r2]
 2127 0286 1B68     		ldr	r3, [r3]
ARM GAS  /tmp/ccJhHFds.s 			page 59


 2128 0288 3B65     		str	r3, [r7, #80]
1164:../../../SystemView/SEGGER/SEGGER_SYSVIEW.c ****         break;
 2129              		.loc 1 1164 0
 2130 028a 3A6D     		ldr	r2, [r7, #80]
 2131 028c 07F11401 		add	r1, r7, #20
 2132 0290 0823     		movs	r3, #8
 2133 0292 0093     		str	r3, [sp]
 2134 0294 0023     		movs	r3, #0
 2135 0296 0193     		str	r3, [sp, #4]
 2136 0298 0846     		mov	r0, r1
 2137 029a 1146     		mov	r1, r2
 2138 029c 1022     		movs	r2, #16
 2139 029e 0823     		movs	r3, #8
 2140 02a0 FFF7FEFF 		bl	_PrintUnsigned
1165:../../../SystemView/SEGGER/SEGGER_SYSVIEW.c ****       case '%':
 2141              		.loc 1 1165 0
 2142 02a4 06E0     		b	.L139
 2143              	.L136:
1167:../../../SystemView/SEGGER/SEGGER_SYSVIEW.c ****         break;
 2144              		.loc 1 1167 0
 2145 02a6 07F11403 		add	r3, r7, #20
 2146 02aa 1846     		mov	r0, r3
 2147 02ac 2521     		movs	r1, #37
 2148 02ae FFF7FEFF 		bl	_StoreChar
1168:../../../SystemView/SEGGER/SEGGER_SYSVIEW.c ****       default:
 2149              		.loc 1 1168 0
 2150 02b2 00BF     		nop
 2151              	.L139:
1171:../../../SystemView/SEGGER/SEGGER_SYSVIEW.c ****       }
1172:../../../SystemView/SEGGER/SEGGER_SYSVIEW.c ****       sFormat++;
 2152              		.loc 1 1172 0
 2153 02b4 FB68     		ldr	r3, [r7, #12]
 2154 02b6 0133     		adds	r3, r3, #1
 2155 02b8 FB60     		str	r3, [r7, #12]
 2156 02ba 09E0     		b	.L140
 2157              	.L148:
 2158              		.align	2
 2159              	.L147:
 2160 02bc 00000000 		.word	_aPacket
 2161              	.L115:
1173:../../../SystemView/SEGGER/SEGGER_SYSVIEW.c ****     } else {
1174:../../../SystemView/SEGGER/SEGGER_SYSVIEW.c ****       _StoreChar(&BufferDesc, c);
 2162              		.loc 1 1174 0
 2163 02c0 07F11402 		add	r2, r7, #20
 2164 02c4 97F85730 		ldrb	r3, [r7, #87]	@ zero_extendqisi2
 2165 02c8 1046     		mov	r0, r2
 2166 02ca 1946     		mov	r1, r3
 2167 02cc FFF7FEFF 		bl	_StoreChar
 2168              	.L140:
1175:../../../SystemView/SEGGER/SEGGER_SYSVIEW.c ****     }
1176:../../../SystemView/SEGGER/SEGGER_SYSVIEW.c ****   } while (*sFormat);
 2169              		.loc 1 1176 0
 2170 02d0 FB68     		ldr	r3, [r7, #12]
 2171 02d2 1B78     		ldrb	r3, [r3]	@ zero_extendqisi2
 2172 02d4 002B     		cmp	r3, #0
 2173 02d6 7FF4AFAE 		bne	.L141
 2174              	.L114:
ARM GAS  /tmp/ccJhHFds.s 			page 60


1177:../../../SystemView/SEGGER/SEGGER_SYSVIEW.c **** 
1178:../../../SystemView/SEGGER/SEGGER_SYSVIEW.c ****   //
1179:../../../SystemView/SEGGER/SEGGER_SYSVIEW.c ****   // Write remaining data, if any
1180:../../../SystemView/SEGGER/SEGGER_SYSVIEW.c ****   //
1181:../../../SystemView/SEGGER/SEGGER_SYSVIEW.c ****   if (BufferDesc.Cnt != 0u) {
 2175              		.loc 1 1181 0
 2176 02da 7B6A     		ldr	r3, [r7, #36]
 2177 02dc 002B     		cmp	r3, #0
 2178 02de 42D0     		beq	.L142
1182:../../../SystemView/SEGGER/SEGGER_SYSVIEW.c ****     *(BufferDesc.pPayloadStart) = BufferDesc.Cnt;
 2179              		.loc 1 1182 0
 2180 02e0 FB69     		ldr	r3, [r7, #28]
 2181 02e2 7A6A     		ldr	r2, [r7, #36]
 2182 02e4 D2B2     		uxtb	r2, r2
 2183 02e6 1A70     		strb	r2, [r3]
 2184              	.LBB13:
1183:../../../SystemView/SEGGER/SEGGER_SYSVIEW.c ****     ENCODE_U32(BufferDesc.pPayload, BufferDesc.Options);
 2185              		.loc 1 1183 0
 2186 02e8 BB69     		ldr	r3, [r7, #24]
 2187 02ea 3B64     		str	r3, [r7, #64]
 2188 02ec 3B6A     		ldr	r3, [r7, #32]
 2189 02ee FB63     		str	r3, [r7, #60]
 2190 02f0 0BE0     		b	.L143
 2191              	.L144:
 2192              		.loc 1 1183 0 is_stmt 0 discriminator 3
 2193 02f2 3B6C     		ldr	r3, [r7, #64]
 2194 02f4 5A1C     		adds	r2, r3, #1
 2195 02f6 3A64     		str	r2, [r7, #64]
 2196 02f8 FA6B     		ldr	r2, [r7, #60]
 2197 02fa D2B2     		uxtb	r2, r2
 2198 02fc 62F07F02 		orn	r2, r2, #127
 2199 0300 D2B2     		uxtb	r2, r2
 2200 0302 1A70     		strb	r2, [r3]
 2201 0304 FB6B     		ldr	r3, [r7, #60]
 2202 0306 DB09     		lsrs	r3, r3, #7
 2203 0308 FB63     		str	r3, [r7, #60]
 2204              	.L143:
 2205              		.loc 1 1183 0 discriminator 1
 2206 030a FB6B     		ldr	r3, [r7, #60]
 2207 030c 7F2B     		cmp	r3, #127
 2208 030e F0D8     		bhi	.L144
 2209              		.loc 1 1183 0 discriminator 4
 2210 0310 3B6C     		ldr	r3, [r7, #64]
 2211 0312 5A1C     		adds	r2, r3, #1
 2212 0314 3A64     		str	r2, [r7, #64]
 2213 0316 FA6B     		ldr	r2, [r7, #60]
 2214 0318 D2B2     		uxtb	r2, r2
 2215 031a 1A70     		strb	r2, [r3]
 2216 031c 3B6C     		ldr	r3, [r7, #64]
 2217 031e BB61     		str	r3, [r7, #24]
 2218              	.LBE13:
 2219              	.LBB14:
1184:../../../SystemView/SEGGER/SEGGER_SYSVIEW.c ****     ENCODE_U32(BufferDesc.pPayload, 0);
 2220              		.loc 1 1184 0 is_stmt 1 discriminator 4
 2221 0320 BB69     		ldr	r3, [r7, #24]
 2222 0322 BB63     		str	r3, [r7, #56]
 2223 0324 0023     		movs	r3, #0
ARM GAS  /tmp/ccJhHFds.s 			page 61


 2224 0326 7B63     		str	r3, [r7, #52]
 2225 0328 0BE0     		b	.L145
 2226              	.L146:
 2227              		.loc 1 1184 0 is_stmt 0 discriminator 3
 2228 032a BB6B     		ldr	r3, [r7, #56]
 2229 032c 5A1C     		adds	r2, r3, #1
 2230 032e BA63     		str	r2, [r7, #56]
 2231 0330 7A6B     		ldr	r2, [r7, #52]
 2232 0332 D2B2     		uxtb	r2, r2
 2233 0334 62F07F02 		orn	r2, r2, #127
 2234 0338 D2B2     		uxtb	r2, r2
 2235 033a 1A70     		strb	r2, [r3]
 2236 033c 7B6B     		ldr	r3, [r7, #52]
 2237 033e DB09     		lsrs	r3, r3, #7
 2238 0340 7B63     		str	r3, [r7, #52]
 2239              	.L145:
 2240              		.loc 1 1184 0 discriminator 1
 2241 0342 7B6B     		ldr	r3, [r7, #52]
 2242 0344 7F2B     		cmp	r3, #127
 2243 0346 F0D8     		bhi	.L146
 2244              		.loc 1 1184 0 discriminator 4
 2245 0348 BB6B     		ldr	r3, [r7, #56]
 2246 034a 5A1C     		adds	r2, r3, #1
 2247 034c BA63     		str	r2, [r7, #56]
 2248 034e 7A6B     		ldr	r2, [r7, #52]
 2249 0350 D2B2     		uxtb	r2, r2
 2250 0352 1A70     		strb	r2, [r3]
 2251 0354 BB6B     		ldr	r3, [r7, #56]
 2252 0356 BB61     		str	r3, [r7, #24]
 2253              	.LBE14:
1185:../../../SystemView/SEGGER/SEGGER_SYSVIEW.c ****     _SendPacket(BufferDesc.pPayloadStart, BufferDesc.pPayload, SYSVIEW_EVTID_PRINT_FORMATTED);
 2254              		.loc 1 1185 0 is_stmt 1 discriminator 4
 2255 0358 FA69     		ldr	r2, [r7, #28]
 2256 035a BB69     		ldr	r3, [r7, #24]
 2257 035c 1046     		mov	r0, r2
 2258 035e 1946     		mov	r1, r3
 2259 0360 1A22     		movs	r2, #26
 2260 0362 FFF7FEFF 		bl	_SendPacket
 2261              	.L142:
1186:../../../SystemView/SEGGER/SEGGER_SYSVIEW.c ****   }
1187:../../../SystemView/SEGGER/SEGGER_SYSVIEW.c **** #if SEGGER_SYSVIEW_USE_STATIC_BUFFER == 0
1188:../../../SystemView/SEGGER/SEGGER_SYSVIEW.c ****   SEGGER_SYSVIEW_UNLOCK();
1189:../../../SystemView/SEGGER/SEGGER_SYSVIEW.c ****   RECORD_END();
1190:../../../SystemView/SEGGER/SEGGER_SYSVIEW.c **** #else
1191:../../../SystemView/SEGGER/SEGGER_SYSVIEW.c ****   RECORD_END();
 2262              		.loc 1 1191 0
 2263 0366 3B6B     		ldr	r3, [r7, #48]
 2264              	@ 1191 "../../../SystemView/SEGGER/SEGGER_SYSVIEW.c" 1
 2265 0368 83F31188 		msr   basepri, r3  
 2266              		
 2267              	@ 0 "" 2
 2268              		.thumb
 2269              	.LBE11:
1192:../../../SystemView/SEGGER/SEGGER_SYSVIEW.c **** #endif
1193:../../../SystemView/SEGGER/SEGGER_SYSVIEW.c **** }
 2270              		.loc 1 1193 0
 2271 036c 5837     		adds	r7, r7, #88
ARM GAS  /tmp/ccJhHFds.s 			page 62


 2272              	.LCFI56:
 2273              		.cfi_def_cfa_offset 8
 2274 036e BD46     		mov	sp, r7
 2275              	.LCFI57:
 2276              		.cfi_def_cfa_register 13
 2277              		@ sp needed
 2278 0370 80BD     		pop	{r7, pc}
 2279              		.cfi_endproc
 2280              	.LFE10:
 2282 0372 00BF     		.section	.rodata
 2283              		.align	2
 2284              	.LC0:
 2285 0000 53797356 		.ascii	"SysView\000"
 2285      69657700 
 2286              		.section	.text.SEGGER_SYSVIEW_Init,"ax",%progbits
 2287              		.align	2
 2288              		.global	SEGGER_SYSVIEW_Init
 2289              		.thumb
 2290              		.thumb_func
 2292              	SEGGER_SYSVIEW_Init:
 2293              	.LFB11:
1194:../../../SystemView/SEGGER/SEGGER_SYSVIEW.c **** #endif // SEGGER_SYSVIEW_EXCLUDE_PRINTF
1195:../../../SystemView/SEGGER/SEGGER_SYSVIEW.c **** 
1196:../../../SystemView/SEGGER/SEGGER_SYSVIEW.c **** /*********************************************************************
1197:../../../SystemView/SEGGER/SEGGER_SYSVIEW.c **** *
1198:../../../SystemView/SEGGER/SEGGER_SYSVIEW.c **** *       Public functions
1199:../../../SystemView/SEGGER/SEGGER_SYSVIEW.c **** *
1200:../../../SystemView/SEGGER/SEGGER_SYSVIEW.c **** **********************************************************************
1201:../../../SystemView/SEGGER/SEGGER_SYSVIEW.c **** */
1202:../../../SystemView/SEGGER/SEGGER_SYSVIEW.c **** 
1203:../../../SystemView/SEGGER/SEGGER_SYSVIEW.c **** /*********************************************************************
1204:../../../SystemView/SEGGER/SEGGER_SYSVIEW.c **** *
1205:../../../SystemView/SEGGER/SEGGER_SYSVIEW.c **** *       SEGGER_SYSVIEW_Init()
1206:../../../SystemView/SEGGER/SEGGER_SYSVIEW.c **** *
1207:../../../SystemView/SEGGER/SEGGER_SYSVIEW.c **** *  Function description
1208:../../../SystemView/SEGGER/SEGGER_SYSVIEW.c **** *    Initializes the SYSVIEW module.
1209:../../../SystemView/SEGGER/SEGGER_SYSVIEW.c **** *    Must be called before SystemViewer attaches to the system.
1210:../../../SystemView/SEGGER/SEGGER_SYSVIEW.c **** *
1211:../../../SystemView/SEGGER/SEGGER_SYSVIEW.c **** *  Parameters
1212:../../../SystemView/SEGGER/SEGGER_SYSVIEW.c **** *    SysFreq        - Frequency of timestamp, i.e. CPU core clock frequency.
1213:../../../SystemView/SEGGER/SEGGER_SYSVIEW.c **** *    CPUFreq        - CPU core clock frequency.
1214:../../../SystemView/SEGGER/SEGGER_SYSVIEW.c **** *    pOSAPI         - Pointer to the API structure for OS-specific functions.
1215:../../../SystemView/SEGGER/SEGGER_SYSVIEW.c **** *    pfSendSysDesc  - Pointer to SendSysDesc callback function.
1216:../../../SystemView/SEGGER/SEGGER_SYSVIEW.c **** *
1217:../../../SystemView/SEGGER/SEGGER_SYSVIEW.c **** *  Additional information
1218:../../../SystemView/SEGGER/SEGGER_SYSVIEW.c **** *    This function initializes the RTT channel used to transport 
1219:../../../SystemView/SEGGER/SEGGER_SYSVIEW.c **** *    SEGGER SystemView packets. 
1220:../../../SystemView/SEGGER/SEGGER_SYSVIEW.c **** *    The channel is assigned the label "SysView" for client software 
1221:../../../SystemView/SEGGER/SEGGER_SYSVIEW.c **** *    to identify the SystemView channel.
1222:../../../SystemView/SEGGER/SEGGER_SYSVIEW.c **** *
1223:../../../SystemView/SEGGER/SEGGER_SYSVIEW.c **** *  Notes
1224:../../../SystemView/SEGGER/SEGGER_SYSVIEW.c **** *    The channel is configured by the macro SEGGER_SYSVIEW_RTT_CHANNEL.
1225:../../../SystemView/SEGGER/SEGGER_SYSVIEW.c **** */
1226:../../../SystemView/SEGGER/SEGGER_SYSVIEW.c **** void SEGGER_SYSVIEW_Init(U32 SysFreq, U32 CPUFreq, const SEGGER_SYSVIEW_OS_API *pOSAPI, SEGGER_SYSV
 2294              		.loc 1 1226 0
 2295              		.cfi_startproc
 2296              		@ args = 0, pretend = 0, frame = 16
ARM GAS  /tmp/ccJhHFds.s 			page 63


 2297              		@ frame_needed = 1, uses_anonymous_args = 0
 2298 0000 80B5     		push	{r7, lr}
 2299              	.LCFI58:
 2300              		.cfi_def_cfa_offset 8
 2301              		.cfi_offset 7, -8
 2302              		.cfi_offset 14, -4
 2303 0002 86B0     		sub	sp, sp, #24
 2304              	.LCFI59:
 2305              		.cfi_def_cfa_offset 32
 2306 0004 02AF     		add	r7, sp, #8
 2307              	.LCFI60:
 2308              		.cfi_def_cfa 7, 24
 2309 0006 F860     		str	r0, [r7, #12]
 2310 0008 B960     		str	r1, [r7, #8]
 2311 000a 7A60     		str	r2, [r7, #4]
 2312 000c 3B60     		str	r3, [r7]
1227:../../../SystemView/SEGGER/SEGGER_SYSVIEW.c **** #ifdef SEGGER_RTT_SECTION
1228:../../../SystemView/SEGGER/SEGGER_SYSVIEW.c ****   //
1229:../../../SystemView/SEGGER/SEGGER_SYSVIEW.c ****   // Explicitly initialize the RTT Control Block if it is in its dedicated section.
1230:../../../SystemView/SEGGER/SEGGER_SYSVIEW.c ****   //
1231:../../../SystemView/SEGGER/SEGGER_SYSVIEW.c ****   SEGGER_RTT_Init();
1232:../../../SystemView/SEGGER/SEGGER_SYSVIEW.c **** #endif
1233:../../../SystemView/SEGGER/SEGGER_SYSVIEW.c **** #if (SEGGER_SYSVIEW_POST_MORTEM_MODE == 1)
1234:../../../SystemView/SEGGER/SEGGER_SYSVIEW.c **** #if SEGGER_SYSVIEW_RTT_CHANNEL > 0
1235:../../../SystemView/SEGGER/SEGGER_SYSVIEW.c ****   SEGGER_RTT_ConfigUpBuffer(SEGGER_SYSVIEW_RTT_CHANNEL, "SysView", &_UpBuffer[0],   sizeof(_UpBuffe
1236:../../../SystemView/SEGGER/SEGGER_SYSVIEW.c **** #else
1237:../../../SystemView/SEGGER/SEGGER_SYSVIEW.c ****   _SYSVIEW_Globals.UpChannel = SEGGER_RTT_AllocUpBuffer  ("SysView", &_UpBuffer[0],   sizeof(_UpBuf
1238:../../../SystemView/SEGGER/SEGGER_SYSVIEW.c **** #endif
1239:../../../SystemView/SEGGER/SEGGER_SYSVIEW.c ****   _SYSVIEW_Globals.RAMBaseAddress   = SEGGER_SYSVIEW_ID_BASE;
1240:../../../SystemView/SEGGER/SEGGER_SYSVIEW.c ****   _SYSVIEW_Globals.LastTxTimeStamp  = SEGGER_SYSVIEW_GET_TIMESTAMP();
1241:../../../SystemView/SEGGER/SEGGER_SYSVIEW.c ****   _SYSVIEW_Globals.pOSAPI           = pOSAPI;
1242:../../../SystemView/SEGGER/SEGGER_SYSVIEW.c ****   _SYSVIEW_Globals.SysFreq          = SysFreq;
1243:../../../SystemView/SEGGER/SEGGER_SYSVIEW.c ****   _SYSVIEW_Globals.CPUFreq          = CPUFreq;
1244:../../../SystemView/SEGGER/SEGGER_SYSVIEW.c ****   _SYSVIEW_Globals.pfSendSysDesc    = pfSendSysDesc;
1245:../../../SystemView/SEGGER/SEGGER_SYSVIEW.c ****   _SYSVIEW_Globals.EnableState      = 0;
1246:../../../SystemView/SEGGER/SEGGER_SYSVIEW.c ****   _SYSVIEW_Globals.PacketCount      = 0;
1247:../../../SystemView/SEGGER/SEGGER_SYSVIEW.c **** #else // (SEGGER_SYSVIEW_POST_MORTEM_MODE == 1)
1248:../../../SystemView/SEGGER/SEGGER_SYSVIEW.c **** #if SEGGER_SYSVIEW_RTT_CHANNEL > 0
1249:../../../SystemView/SEGGER/SEGGER_SYSVIEW.c ****   SEGGER_RTT_ConfigUpBuffer   (SEGGER_SYSVIEW_RTT_CHANNEL, "SysView", &_UpBuffer[0],   sizeof(_UpBu
 2313              		.loc 1 1249 0
 2314 000e 0023     		movs	r3, #0
 2315 0010 0093     		str	r3, [sp]
 2316 0012 0120     		movs	r0, #1
 2317 0014 1349     		ldr	r1, .L150
 2318 0016 144A     		ldr	r2, .L150+4
 2319 0018 4FF48063 		mov	r3, #1024
 2320 001c FFF7FEFF 		bl	SEGGER_RTT_ConfigUpBuffer
1250:../../../SystemView/SEGGER/SEGGER_SYSVIEW.c ****   SEGGER_RTT_ConfigDownBuffer (SEGGER_SYSVIEW_RTT_CHANNEL, "SysView", &_DownBuffer[0], sizeof(_Down
 2321              		.loc 1 1250 0
 2322 0020 0023     		movs	r3, #0
 2323 0022 0093     		str	r3, [sp]
 2324 0024 0120     		movs	r0, #1
 2325 0026 0F49     		ldr	r1, .L150
 2326 0028 104A     		ldr	r2, .L150+8
 2327 002a 0823     		movs	r3, #8
 2328 002c FFF7FEFF 		bl	SEGGER_RTT_ConfigDownBuffer
1251:../../../SystemView/SEGGER/SEGGER_SYSVIEW.c **** #else
ARM GAS  /tmp/ccJhHFds.s 			page 64


1252:../../../SystemView/SEGGER/SEGGER_SYSVIEW.c ****   _SYSVIEW_Globals.UpChannel = SEGGER_RTT_AllocUpBuffer  ("SysView", &_UpBuffer[0],   sizeof(_UpBuf
1253:../../../SystemView/SEGGER/SEGGER_SYSVIEW.c ****   //
1254:../../../SystemView/SEGGER/SEGGER_SYSVIEW.c ****   // TODO: Use SEGGER_RTT_AllocDownBuffer when SystemViewer is able to handle another Down Channel 
1255:../../../SystemView/SEGGER/SEGGER_SYSVIEW.c ****   //
1256:../../../SystemView/SEGGER/SEGGER_SYSVIEW.c ****   _SYSVIEW_Globals.DownChannel = _SYSVIEW_Globals.UpChannel;
1257:../../../SystemView/SEGGER/SEGGER_SYSVIEW.c ****   SEGGER_RTT_ConfigDownBuffer (_SYSVIEW_Globals.DownChannel, "SysView", &_DownBuffer[0], sizeof(_Do
1258:../../../SystemView/SEGGER/SEGGER_SYSVIEW.c **** #endif
1259:../../../SystemView/SEGGER/SEGGER_SYSVIEW.c ****   _SYSVIEW_Globals.RAMBaseAddress   = SEGGER_SYSVIEW_ID_BASE;
 2329              		.loc 1 1259 0
 2330 0030 0F4B     		ldr	r3, .L150+12
 2331 0032 4FF08052 		mov	r2, #268435456
 2332 0036 1A61     		str	r2, [r3, #16]
1260:../../../SystemView/SEGGER/SEGGER_SYSVIEW.c ****   _SYSVIEW_Globals.LastTxTimeStamp  = SEGGER_SYSVIEW_GET_TIMESTAMP();
 2333              		.loc 1 1260 0
 2334 0038 0E4B     		ldr	r3, .L150+16
 2335 003a 1B68     		ldr	r3, [r3]
 2336 003c 0C4A     		ldr	r2, .L150+12
 2337 003e D360     		str	r3, [r2, #12]
1261:../../../SystemView/SEGGER/SEGGER_SYSVIEW.c ****   _SYSVIEW_Globals.pOSAPI           = pOSAPI;
 2338              		.loc 1 1261 0
 2339 0040 0B4A     		ldr	r2, .L150+12
 2340 0042 7B68     		ldr	r3, [r7, #4]
 2341 0044 1362     		str	r3, [r2, #32]
1262:../../../SystemView/SEGGER/SEGGER_SYSVIEW.c ****   _SYSVIEW_Globals.SysFreq          = SysFreq;
 2342              		.loc 1 1262 0
 2343 0046 0A4A     		ldr	r2, .L150+12
 2344 0048 FB68     		ldr	r3, [r7, #12]
 2345 004a 5360     		str	r3, [r2, #4]
1263:../../../SystemView/SEGGER/SEGGER_SYSVIEW.c ****   _SYSVIEW_Globals.CPUFreq          = CPUFreq;
 2346              		.loc 1 1263 0
 2347 004c 084A     		ldr	r2, .L150+12
 2348 004e BB68     		ldr	r3, [r7, #8]
 2349 0050 9360     		str	r3, [r2, #8]
1264:../../../SystemView/SEGGER/SEGGER_SYSVIEW.c ****   _SYSVIEW_Globals.pfSendSysDesc    = pfSendSysDesc;
 2350              		.loc 1 1264 0
 2351 0052 074A     		ldr	r2, .L150+12
 2352 0054 3B68     		ldr	r3, [r7]
 2353 0056 5362     		str	r3, [r2, #36]
1265:../../../SystemView/SEGGER/SEGGER_SYSVIEW.c ****   _SYSVIEW_Globals.EnableState      = 0;
 2354              		.loc 1 1265 0
 2355 0058 054B     		ldr	r3, .L150+12
 2356 005a 0022     		movs	r2, #0
 2357 005c 1A70     		strb	r2, [r3]
1266:../../../SystemView/SEGGER/SEGGER_SYSVIEW.c **** #endif  // (SEGGER_SYSVIEW_POST_MORTEM_MODE == 1)
1267:../../../SystemView/SEGGER/SEGGER_SYSVIEW.c **** }
 2358              		.loc 1 1267 0
 2359 005e 1037     		adds	r7, r7, #16
 2360              	.LCFI61:
 2361              		.cfi_def_cfa_offset 8
 2362 0060 BD46     		mov	sp, r7
 2363              	.LCFI62:
 2364              		.cfi_def_cfa_register 13
 2365              		@ sp needed
 2366 0062 80BD     		pop	{r7, pc}
 2367              	.L151:
 2368              		.align	2
 2369              	.L150:
ARM GAS  /tmp/ccJhHFds.s 			page 65


 2370 0064 00000000 		.word	.LC0
 2371 0068 00000000 		.word	_UpBuffer
 2372 006c 00000000 		.word	_DownBuffer
 2373 0070 00000000 		.word	_SYSVIEW_Globals
 2374 0074 041000E0 		.word	-536866812
 2375              		.cfi_endproc
 2376              	.LFE11:
 2378              		.section	.text.SEGGER_SYSVIEW_SetRAMBase,"ax",%progbits
 2379              		.align	2
 2380              		.global	SEGGER_SYSVIEW_SetRAMBase
 2381              		.thumb
 2382              		.thumb_func
 2384              	SEGGER_SYSVIEW_SetRAMBase:
 2385              	.LFB12:
1268:../../../SystemView/SEGGER/SEGGER_SYSVIEW.c **** 
1269:../../../SystemView/SEGGER/SEGGER_SYSVIEW.c **** /*********************************************************************
1270:../../../SystemView/SEGGER/SEGGER_SYSVIEW.c **** *
1271:../../../SystemView/SEGGER/SEGGER_SYSVIEW.c **** *       SEGGER_SYSVIEW_SetRAMBase()
1272:../../../SystemView/SEGGER/SEGGER_SYSVIEW.c **** *
1273:../../../SystemView/SEGGER/SEGGER_SYSVIEW.c **** *  Function description
1274:../../../SystemView/SEGGER/SEGGER_SYSVIEW.c **** *    Sets the RAM base address, which is subtracted from IDs in order
1275:../../../SystemView/SEGGER/SEGGER_SYSVIEW.c **** *     to save bandwidth.
1276:../../../SystemView/SEGGER/SEGGER_SYSVIEW.c **** *
1277:../../../SystemView/SEGGER/SEGGER_SYSVIEW.c **** *  Parameters
1278:../../../SystemView/SEGGER/SEGGER_SYSVIEW.c **** *    RAMBaseAddress - Lowest RAM Address. (i.e. 0x20000000 on most Cortex-M)
1279:../../../SystemView/SEGGER/SEGGER_SYSVIEW.c **** */
1280:../../../SystemView/SEGGER/SEGGER_SYSVIEW.c **** void SEGGER_SYSVIEW_SetRAMBase(U32 RAMBaseAddress) {
 2386              		.loc 1 1280 0
 2387              		.cfi_startproc
 2388              		@ args = 0, pretend = 0, frame = 8
 2389              		@ frame_needed = 1, uses_anonymous_args = 0
 2390              		@ link register save eliminated.
 2391 0000 80B4     		push	{r7}
 2392              	.LCFI63:
 2393              		.cfi_def_cfa_offset 4
 2394              		.cfi_offset 7, -4
 2395 0002 83B0     		sub	sp, sp, #12
 2396              	.LCFI64:
 2397              		.cfi_def_cfa_offset 16
 2398 0004 00AF     		add	r7, sp, #0
 2399              	.LCFI65:
 2400              		.cfi_def_cfa_register 7
 2401 0006 7860     		str	r0, [r7, #4]
1281:../../../SystemView/SEGGER/SEGGER_SYSVIEW.c ****   _SYSVIEW_Globals.RAMBaseAddress = RAMBaseAddress;
 2402              		.loc 1 1281 0
 2403 0008 034A     		ldr	r2, .L153
 2404 000a 7B68     		ldr	r3, [r7, #4]
 2405 000c 1361     		str	r3, [r2, #16]
1282:../../../SystemView/SEGGER/SEGGER_SYSVIEW.c **** }
 2406              		.loc 1 1282 0
 2407 000e 0C37     		adds	r7, r7, #12
 2408              	.LCFI66:
 2409              		.cfi_def_cfa_offset 4
 2410 0010 BD46     		mov	sp, r7
 2411              	.LCFI67:
 2412              		.cfi_def_cfa_register 13
 2413              		@ sp needed
ARM GAS  /tmp/ccJhHFds.s 			page 66


 2414 0012 5DF8047B 		ldr	r7, [sp], #4
 2415              	.LCFI68:
 2416              		.cfi_restore 7
 2417              		.cfi_def_cfa_offset 0
 2418 0016 7047     		bx	lr
 2419              	.L154:
 2420              		.align	2
 2421              	.L153:
 2422 0018 00000000 		.word	_SYSVIEW_Globals
 2423              		.cfi_endproc
 2424              	.LFE12:
 2426              		.section	.text.SEGGER_SYSVIEW_RecordVoid,"ax",%progbits
 2427              		.align	2
 2428              		.global	SEGGER_SYSVIEW_RecordVoid
 2429              		.thumb
 2430              		.thumb_func
 2432              	SEGGER_SYSVIEW_RecordVoid:
 2433              	.LFB13:
1283:../../../SystemView/SEGGER/SEGGER_SYSVIEW.c **** 
1284:../../../SystemView/SEGGER/SEGGER_SYSVIEW.c **** /*********************************************************************
1285:../../../SystemView/SEGGER/SEGGER_SYSVIEW.c **** *
1286:../../../SystemView/SEGGER/SEGGER_SYSVIEW.c **** *       SEGGER_SYSVIEW_RecordVoid()
1287:../../../SystemView/SEGGER/SEGGER_SYSVIEW.c **** *
1288:../../../SystemView/SEGGER/SEGGER_SYSVIEW.c **** *  Function description
1289:../../../SystemView/SEGGER/SEGGER_SYSVIEW.c **** *    Formats and sends a SystemView packet with an empty payload.
1290:../../../SystemView/SEGGER/SEGGER_SYSVIEW.c **** *
1291:../../../SystemView/SEGGER/SEGGER_SYSVIEW.c **** *  Parameters
1292:../../../SystemView/SEGGER/SEGGER_SYSVIEW.c **** *    EventID - SystemView event ID.
1293:../../../SystemView/SEGGER/SEGGER_SYSVIEW.c **** */
1294:../../../SystemView/SEGGER/SEGGER_SYSVIEW.c **** void SEGGER_SYSVIEW_RecordVoid(unsigned int EventID) {
 2434              		.loc 1 1294 0
 2435              		.cfi_startproc
 2436              		@ args = 0, pretend = 0, frame = 16
 2437              		@ frame_needed = 1, uses_anonymous_args = 0
 2438 0000 80B5     		push	{r7, lr}
 2439              	.LCFI69:
 2440              		.cfi_def_cfa_offset 8
 2441              		.cfi_offset 7, -8
 2442              		.cfi_offset 14, -4
 2443 0002 84B0     		sub	sp, sp, #16
 2444              	.LCFI70:
 2445              		.cfi_def_cfa_offset 24
 2446 0004 00AF     		add	r7, sp, #0
 2447              	.LCFI71:
 2448              		.cfi_def_cfa_register 7
 2449 0006 7860     		str	r0, [r7, #4]
 2450              	.LBB15:
1295:../../../SystemView/SEGGER/SEGGER_SYSVIEW.c ****   U8* pPayloadStart;
1296:../../../SystemView/SEGGER/SEGGER_SYSVIEW.c ****   RECORD_START(SEGGER_SYSVIEW_INFO_SIZE);
 2451              		.loc 1 1296 0
 2452              	@ 1296 "../../../SystemView/SEGGER/SEGGER_SYSVIEW.c" 1
 2453 0008 EFF31183 		mrs   r3, basepri  
 2454 000c 4FF02001 		mov   r1, #32       
 2455 0010 81F31188 		msr   basepri, r1  
 2456              		
 2457              	@ 0 "" 2
 2458              		.thumb
ARM GAS  /tmp/ccJhHFds.s 			page 67


 2459 0014 FB60     		str	r3, [r7, #12]
 2460 0016 0748     		ldr	r0, .L156
 2461 0018 FFF7FEFF 		bl	_PreparePacket
 2462 001c B860     		str	r0, [r7, #8]
1297:../../../SystemView/SEGGER/SEGGER_SYSVIEW.c ****   //
1298:../../../SystemView/SEGGER/SEGGER_SYSVIEW.c ****   _SendPacket(pPayloadStart, pPayloadStart, EventID);
 2463              		.loc 1 1298 0
 2464 001e B868     		ldr	r0, [r7, #8]
 2465 0020 B968     		ldr	r1, [r7, #8]
 2466 0022 7A68     		ldr	r2, [r7, #4]
 2467 0024 FFF7FEFF 		bl	_SendPacket
1299:../../../SystemView/SEGGER/SEGGER_SYSVIEW.c ****   RECORD_END();
 2468              		.loc 1 1299 0
 2469 0028 FB68     		ldr	r3, [r7, #12]
 2470              	@ 1299 "../../../SystemView/SEGGER/SEGGER_SYSVIEW.c" 1
 2471 002a 83F31188 		msr   basepri, r3  
 2472              		
 2473              	@ 0 "" 2
 2474              		.thumb
 2475              	.LBE15:
1300:../../../SystemView/SEGGER/SEGGER_SYSVIEW.c **** }
 2476              		.loc 1 1300 0
 2477 002e 1037     		adds	r7, r7, #16
 2478              	.LCFI72:
 2479              		.cfi_def_cfa_offset 8
 2480 0030 BD46     		mov	sp, r7
 2481              	.LCFI73:
 2482              		.cfi_def_cfa_register 13
 2483              		@ sp needed
 2484 0032 80BD     		pop	{r7, pc}
 2485              	.L157:
 2486              		.align	2
 2487              	.L156:
 2488 0034 00000000 		.word	_aPacket
 2489              		.cfi_endproc
 2490              	.LFE13:
 2492              		.section	.text.SEGGER_SYSVIEW_RecordU32,"ax",%progbits
 2493              		.align	2
 2494              		.global	SEGGER_SYSVIEW_RecordU32
 2495              		.thumb
 2496              		.thumb_func
 2498              	SEGGER_SYSVIEW_RecordU32:
 2499              	.LFB14:
1301:../../../SystemView/SEGGER/SEGGER_SYSVIEW.c **** 
1302:../../../SystemView/SEGGER/SEGGER_SYSVIEW.c **** /*********************************************************************
1303:../../../SystemView/SEGGER/SEGGER_SYSVIEW.c **** *
1304:../../../SystemView/SEGGER/SEGGER_SYSVIEW.c **** *       SEGGER_SYSVIEW_RecordU32()
1305:../../../SystemView/SEGGER/SEGGER_SYSVIEW.c **** *
1306:../../../SystemView/SEGGER/SEGGER_SYSVIEW.c **** *  Function description
1307:../../../SystemView/SEGGER/SEGGER_SYSVIEW.c **** *    Formats and sends a SystemView packet containing a single U32
1308:../../../SystemView/SEGGER/SEGGER_SYSVIEW.c **** *    parameter payload.
1309:../../../SystemView/SEGGER/SEGGER_SYSVIEW.c **** *
1310:../../../SystemView/SEGGER/SEGGER_SYSVIEW.c **** *  Parameters
1311:../../../SystemView/SEGGER/SEGGER_SYSVIEW.c **** *    EventID - SystemView event ID.
1312:../../../SystemView/SEGGER/SEGGER_SYSVIEW.c **** *    Value   - The 32-bit parameter encoded to SystemView packet payload.
1313:../../../SystemView/SEGGER/SEGGER_SYSVIEW.c **** */
1314:../../../SystemView/SEGGER/SEGGER_SYSVIEW.c **** void SEGGER_SYSVIEW_RecordU32(unsigned int EventID, U32 Value) {
ARM GAS  /tmp/ccJhHFds.s 			page 68


 2500              		.loc 1 1314 0
 2501              		.cfi_startproc
 2502              		@ args = 0, pretend = 0, frame = 32
 2503              		@ frame_needed = 1, uses_anonymous_args = 0
 2504 0000 80B5     		push	{r7, lr}
 2505              	.LCFI74:
 2506              		.cfi_def_cfa_offset 8
 2507              		.cfi_offset 7, -8
 2508              		.cfi_offset 14, -4
 2509 0002 88B0     		sub	sp, sp, #32
 2510              	.LCFI75:
 2511              		.cfi_def_cfa_offset 40
 2512 0004 00AF     		add	r7, sp, #0
 2513              	.LCFI76:
 2514              		.cfi_def_cfa_register 7
 2515 0006 7860     		str	r0, [r7, #4]
 2516 0008 3960     		str	r1, [r7]
 2517              	.LBB16:
1315:../../../SystemView/SEGGER/SEGGER_SYSVIEW.c ****   U8* pPayload;
1316:../../../SystemView/SEGGER/SEGGER_SYSVIEW.c ****   U8* pPayloadStart;
1317:../../../SystemView/SEGGER/SEGGER_SYSVIEW.c ****   RECORD_START(SEGGER_SYSVIEW_INFO_SIZE + SEGGER_SYSVIEW_QUANTA_U32);
 2518              		.loc 1 1317 0
 2519              	@ 1317 "../../../SystemView/SEGGER/SEGGER_SYSVIEW.c" 1
 2520 000a EFF31183 		mrs   r3, basepri  
 2521 000e 4FF02001 		mov   r1, #32       
 2522 0012 81F31188 		msr   basepri, r1  
 2523              		
 2524              	@ 0 "" 2
 2525              		.thumb
 2526 0016 7B61     		str	r3, [r7, #20]
 2527 0018 1648     		ldr	r0, .L161
 2528 001a FFF7FEFF 		bl	_PreparePacket
 2529 001e 3861     		str	r0, [r7, #16]
1318:../../../SystemView/SEGGER/SEGGER_SYSVIEW.c ****   //
1319:../../../SystemView/SEGGER/SEGGER_SYSVIEW.c ****   pPayload = pPayloadStart;
 2530              		.loc 1 1319 0
 2531 0020 3B69     		ldr	r3, [r7, #16]
 2532 0022 FB60     		str	r3, [r7, #12]
 2533              	.LBB17:
1320:../../../SystemView/SEGGER/SEGGER_SYSVIEW.c ****   ENCODE_U32(pPayload, Value);
 2534              		.loc 1 1320 0
 2535 0024 FB68     		ldr	r3, [r7, #12]
 2536 0026 FB61     		str	r3, [r7, #28]
 2537 0028 3B68     		ldr	r3, [r7]
 2538 002a BB61     		str	r3, [r7, #24]
 2539 002c 0BE0     		b	.L159
 2540              	.L160:
 2541              		.loc 1 1320 0 is_stmt 0 discriminator 3
 2542 002e FB69     		ldr	r3, [r7, #28]
 2543 0030 5A1C     		adds	r2, r3, #1
 2544 0032 FA61     		str	r2, [r7, #28]
 2545 0034 BA69     		ldr	r2, [r7, #24]
 2546 0036 D2B2     		uxtb	r2, r2
 2547 0038 62F07F02 		orn	r2, r2, #127
 2548 003c D2B2     		uxtb	r2, r2
 2549 003e 1A70     		strb	r2, [r3]
 2550 0040 BB69     		ldr	r3, [r7, #24]
ARM GAS  /tmp/ccJhHFds.s 			page 69


 2551 0042 DB09     		lsrs	r3, r3, #7
 2552 0044 BB61     		str	r3, [r7, #24]
 2553              	.L159:
 2554              		.loc 1 1320 0 discriminator 1
 2555 0046 BB69     		ldr	r3, [r7, #24]
 2556 0048 7F2B     		cmp	r3, #127
 2557 004a F0D8     		bhi	.L160
 2558              		.loc 1 1320 0 discriminator 4
 2559 004c FB69     		ldr	r3, [r7, #28]
 2560 004e 5A1C     		adds	r2, r3, #1
 2561 0050 FA61     		str	r2, [r7, #28]
 2562 0052 BA69     		ldr	r2, [r7, #24]
 2563 0054 D2B2     		uxtb	r2, r2
 2564 0056 1A70     		strb	r2, [r3]
 2565 0058 FB69     		ldr	r3, [r7, #28]
 2566 005a FB60     		str	r3, [r7, #12]
 2567              	.LBE17:
1321:../../../SystemView/SEGGER/SEGGER_SYSVIEW.c ****   _SendPacket(pPayloadStart, pPayload, EventID);
 2568              		.loc 1 1321 0 is_stmt 1 discriminator 4
 2569 005c 3869     		ldr	r0, [r7, #16]
 2570 005e F968     		ldr	r1, [r7, #12]
 2571 0060 7A68     		ldr	r2, [r7, #4]
 2572 0062 FFF7FEFF 		bl	_SendPacket
1322:../../../SystemView/SEGGER/SEGGER_SYSVIEW.c ****   RECORD_END();
 2573              		.loc 1 1322 0 discriminator 4
 2574 0066 7B69     		ldr	r3, [r7, #20]
 2575              	@ 1322 "../../../SystemView/SEGGER/SEGGER_SYSVIEW.c" 1
 2576 0068 83F31188 		msr   basepri, r3  
 2577              		
 2578              	@ 0 "" 2
 2579              		.thumb
 2580              	.LBE16:
1323:../../../SystemView/SEGGER/SEGGER_SYSVIEW.c **** }
 2581              		.loc 1 1323 0 discriminator 4
 2582 006c 2037     		adds	r7, r7, #32
 2583              	.LCFI77:
 2584              		.cfi_def_cfa_offset 8
 2585 006e BD46     		mov	sp, r7
 2586              	.LCFI78:
 2587              		.cfi_def_cfa_register 13
 2588              		@ sp needed
 2589 0070 80BD     		pop	{r7, pc}
 2590              	.L162:
 2591 0072 00BF     		.align	2
 2592              	.L161:
 2593 0074 00000000 		.word	_aPacket
 2594              		.cfi_endproc
 2595              	.LFE14:
 2597              		.section	.text.SEGGER_SYSVIEW_RecordU32x2,"ax",%progbits
 2598              		.align	2
 2599              		.global	SEGGER_SYSVIEW_RecordU32x2
 2600              		.thumb
 2601              		.thumb_func
 2603              	SEGGER_SYSVIEW_RecordU32x2:
 2604              	.LFB15:
1324:../../../SystemView/SEGGER/SEGGER_SYSVIEW.c **** 
1325:../../../SystemView/SEGGER/SEGGER_SYSVIEW.c **** /*********************************************************************
ARM GAS  /tmp/ccJhHFds.s 			page 70


1326:../../../SystemView/SEGGER/SEGGER_SYSVIEW.c **** *
1327:../../../SystemView/SEGGER/SEGGER_SYSVIEW.c **** *       SEGGER_SYSVIEW_RecordU32x2()
1328:../../../SystemView/SEGGER/SEGGER_SYSVIEW.c **** *
1329:../../../SystemView/SEGGER/SEGGER_SYSVIEW.c **** *  Function description
1330:../../../SystemView/SEGGER/SEGGER_SYSVIEW.c **** *    Formats and sends a SystemView packet containing 2 U32 parameter payload.
1331:../../../SystemView/SEGGER/SEGGER_SYSVIEW.c **** *
1332:../../../SystemView/SEGGER/SEGGER_SYSVIEW.c **** *  Parameters
1333:../../../SystemView/SEGGER/SEGGER_SYSVIEW.c **** *    EventID - SystemView event ID.
1334:../../../SystemView/SEGGER/SEGGER_SYSVIEW.c **** *    Para0   - The 32-bit parameter encoded to SystemView packet payload.
1335:../../../SystemView/SEGGER/SEGGER_SYSVIEW.c **** *    Para1   - The 32-bit parameter encoded to SystemView packet payload.
1336:../../../SystemView/SEGGER/SEGGER_SYSVIEW.c **** */
1337:../../../SystemView/SEGGER/SEGGER_SYSVIEW.c **** void SEGGER_SYSVIEW_RecordU32x2(unsigned int EventID, U32 Para0, U32 Para1) {
 2605              		.loc 1 1337 0
 2606              		.cfi_startproc
 2607              		@ args = 0, pretend = 0, frame = 48
 2608              		@ frame_needed = 1, uses_anonymous_args = 0
 2609 0000 80B5     		push	{r7, lr}
 2610              	.LCFI79:
 2611              		.cfi_def_cfa_offset 8
 2612              		.cfi_offset 7, -8
 2613              		.cfi_offset 14, -4
 2614 0002 8CB0     		sub	sp, sp, #48
 2615              	.LCFI80:
 2616              		.cfi_def_cfa_offset 56
 2617 0004 00AF     		add	r7, sp, #0
 2618              	.LCFI81:
 2619              		.cfi_def_cfa_register 7
 2620 0006 F860     		str	r0, [r7, #12]
 2621 0008 B960     		str	r1, [r7, #8]
 2622 000a 7A60     		str	r2, [r7, #4]
 2623              	.LBB18:
1338:../../../SystemView/SEGGER/SEGGER_SYSVIEW.c ****   U8* pPayload;
1339:../../../SystemView/SEGGER/SEGGER_SYSVIEW.c ****   U8* pPayloadStart;
1340:../../../SystemView/SEGGER/SEGGER_SYSVIEW.c ****   RECORD_START(SEGGER_SYSVIEW_INFO_SIZE + 2 * SEGGER_SYSVIEW_QUANTA_U32);
 2624              		.loc 1 1340 0
 2625              	@ 1340 "../../../SystemView/SEGGER/SEGGER_SYSVIEW.c" 1
 2626 000c EFF31183 		mrs   r3, basepri  
 2627 0010 4FF02001 		mov   r1, #32       
 2628 0014 81F31188 		msr   basepri, r1  
 2629              		
 2630              	@ 0 "" 2
 2631              		.thumb
 2632 0018 FB61     		str	r3, [r7, #28]
 2633 001a 2448     		ldr	r0, .L168
 2634 001c FFF7FEFF 		bl	_PreparePacket
 2635 0020 B861     		str	r0, [r7, #24]
1341:../../../SystemView/SEGGER/SEGGER_SYSVIEW.c ****   //
1342:../../../SystemView/SEGGER/SEGGER_SYSVIEW.c ****   pPayload = pPayloadStart;
 2636              		.loc 1 1342 0
 2637 0022 BB69     		ldr	r3, [r7, #24]
 2638 0024 7B61     		str	r3, [r7, #20]
 2639              	.LBB19:
1343:../../../SystemView/SEGGER/SEGGER_SYSVIEW.c ****   ENCODE_U32(pPayload, Para0);
 2640              		.loc 1 1343 0
 2641 0026 7B69     		ldr	r3, [r7, #20]
 2642 0028 FB62     		str	r3, [r7, #44]
 2643 002a BB68     		ldr	r3, [r7, #8]
ARM GAS  /tmp/ccJhHFds.s 			page 71


 2644 002c BB62     		str	r3, [r7, #40]
 2645 002e 0BE0     		b	.L164
 2646              	.L165:
 2647              		.loc 1 1343 0 is_stmt 0 discriminator 3
 2648 0030 FB6A     		ldr	r3, [r7, #44]
 2649 0032 5A1C     		adds	r2, r3, #1
 2650 0034 FA62     		str	r2, [r7, #44]
 2651 0036 BA6A     		ldr	r2, [r7, #40]
 2652 0038 D2B2     		uxtb	r2, r2
 2653 003a 62F07F02 		orn	r2, r2, #127
 2654 003e D2B2     		uxtb	r2, r2
 2655 0040 1A70     		strb	r2, [r3]
 2656 0042 BB6A     		ldr	r3, [r7, #40]
 2657 0044 DB09     		lsrs	r3, r3, #7
 2658 0046 BB62     		str	r3, [r7, #40]
 2659              	.L164:
 2660              		.loc 1 1343 0 discriminator 1
 2661 0048 BB6A     		ldr	r3, [r7, #40]
 2662 004a 7F2B     		cmp	r3, #127
 2663 004c F0D8     		bhi	.L165
 2664              		.loc 1 1343 0 discriminator 4
 2665 004e FB6A     		ldr	r3, [r7, #44]
 2666 0050 5A1C     		adds	r2, r3, #1
 2667 0052 FA62     		str	r2, [r7, #44]
 2668 0054 BA6A     		ldr	r2, [r7, #40]
 2669 0056 D2B2     		uxtb	r2, r2
 2670 0058 1A70     		strb	r2, [r3]
 2671 005a FB6A     		ldr	r3, [r7, #44]
 2672 005c 7B61     		str	r3, [r7, #20]
 2673              	.LBE19:
 2674              	.LBB20:
1344:../../../SystemView/SEGGER/SEGGER_SYSVIEW.c ****   ENCODE_U32(pPayload, Para1);
 2675              		.loc 1 1344 0 is_stmt 1 discriminator 4
 2676 005e 7B69     		ldr	r3, [r7, #20]
 2677 0060 7B62     		str	r3, [r7, #36]
 2678 0062 7B68     		ldr	r3, [r7, #4]
 2679 0064 3B62     		str	r3, [r7, #32]
 2680 0066 0BE0     		b	.L166
 2681              	.L167:
 2682              		.loc 1 1344 0 is_stmt 0 discriminator 3
 2683 0068 7B6A     		ldr	r3, [r7, #36]
 2684 006a 5A1C     		adds	r2, r3, #1
 2685 006c 7A62     		str	r2, [r7, #36]
 2686 006e 3A6A     		ldr	r2, [r7, #32]
 2687 0070 D2B2     		uxtb	r2, r2
 2688 0072 62F07F02 		orn	r2, r2, #127
 2689 0076 D2B2     		uxtb	r2, r2
 2690 0078 1A70     		strb	r2, [r3]
 2691 007a 3B6A     		ldr	r3, [r7, #32]
 2692 007c DB09     		lsrs	r3, r3, #7
 2693 007e 3B62     		str	r3, [r7, #32]
 2694              	.L166:
 2695              		.loc 1 1344 0 discriminator 1
 2696 0080 3B6A     		ldr	r3, [r7, #32]
 2697 0082 7F2B     		cmp	r3, #127
 2698 0084 F0D8     		bhi	.L167
 2699              		.loc 1 1344 0 discriminator 4
ARM GAS  /tmp/ccJhHFds.s 			page 72


 2700 0086 7B6A     		ldr	r3, [r7, #36]
 2701 0088 5A1C     		adds	r2, r3, #1
 2702 008a 7A62     		str	r2, [r7, #36]
 2703 008c 3A6A     		ldr	r2, [r7, #32]
 2704 008e D2B2     		uxtb	r2, r2
 2705 0090 1A70     		strb	r2, [r3]
 2706 0092 7B6A     		ldr	r3, [r7, #36]
 2707 0094 7B61     		str	r3, [r7, #20]
 2708              	.LBE20:
1345:../../../SystemView/SEGGER/SEGGER_SYSVIEW.c ****   _SendPacket(pPayloadStart, pPayload, EventID);
 2709              		.loc 1 1345 0 is_stmt 1 discriminator 4
 2710 0096 B869     		ldr	r0, [r7, #24]
 2711 0098 7969     		ldr	r1, [r7, #20]
 2712 009a FA68     		ldr	r2, [r7, #12]
 2713 009c FFF7FEFF 		bl	_SendPacket
1346:../../../SystemView/SEGGER/SEGGER_SYSVIEW.c ****   RECORD_END();
 2714              		.loc 1 1346 0 discriminator 4
 2715 00a0 FB69     		ldr	r3, [r7, #28]
 2716              	@ 1346 "../../../SystemView/SEGGER/SEGGER_SYSVIEW.c" 1
 2717 00a2 83F31188 		msr   basepri, r3  
 2718              		
 2719              	@ 0 "" 2
 2720              		.thumb
 2721              	.LBE18:
1347:../../../SystemView/SEGGER/SEGGER_SYSVIEW.c **** }
 2722              		.loc 1 1347 0 discriminator 4
 2723 00a6 3037     		adds	r7, r7, #48
 2724              	.LCFI82:
 2725              		.cfi_def_cfa_offset 8
 2726 00a8 BD46     		mov	sp, r7
 2727              	.LCFI83:
 2728              		.cfi_def_cfa_register 13
 2729              		@ sp needed
 2730 00aa 80BD     		pop	{r7, pc}
 2731              	.L169:
 2732              		.align	2
 2733              	.L168:
 2734 00ac 00000000 		.word	_aPacket
 2735              		.cfi_endproc
 2736              	.LFE15:
 2738              		.section	.text.SEGGER_SYSVIEW_RecordU32x3,"ax",%progbits
 2739              		.align	2
 2740              		.global	SEGGER_SYSVIEW_RecordU32x3
 2741              		.thumb
 2742              		.thumb_func
 2744              	SEGGER_SYSVIEW_RecordU32x3:
 2745              	.LFB16:
1348:../../../SystemView/SEGGER/SEGGER_SYSVIEW.c **** 
1349:../../../SystemView/SEGGER/SEGGER_SYSVIEW.c **** /*********************************************************************
1350:../../../SystemView/SEGGER/SEGGER_SYSVIEW.c **** *
1351:../../../SystemView/SEGGER/SEGGER_SYSVIEW.c **** *       SEGGER_SYSVIEW_RecordU32x3()
1352:../../../SystemView/SEGGER/SEGGER_SYSVIEW.c **** *
1353:../../../SystemView/SEGGER/SEGGER_SYSVIEW.c **** *  Function description
1354:../../../SystemView/SEGGER/SEGGER_SYSVIEW.c **** *    Formats and sends a SystemView packet containing 3 U32 parameter payload.
1355:../../../SystemView/SEGGER/SEGGER_SYSVIEW.c **** *
1356:../../../SystemView/SEGGER/SEGGER_SYSVIEW.c **** *  Parameters
1357:../../../SystemView/SEGGER/SEGGER_SYSVIEW.c **** *    EventID - SystemView event ID.
ARM GAS  /tmp/ccJhHFds.s 			page 73


1358:../../../SystemView/SEGGER/SEGGER_SYSVIEW.c **** *    Para0   - The 32-bit parameter encoded to SystemView packet payload.
1359:../../../SystemView/SEGGER/SEGGER_SYSVIEW.c **** *    Para1   - The 32-bit parameter encoded to SystemView packet payload.
1360:../../../SystemView/SEGGER/SEGGER_SYSVIEW.c **** *    Para2   - The 32-bit parameter encoded to SystemView packet payload.
1361:../../../SystemView/SEGGER/SEGGER_SYSVIEW.c **** */
1362:../../../SystemView/SEGGER/SEGGER_SYSVIEW.c **** void SEGGER_SYSVIEW_RecordU32x3(unsigned int EventID, U32 Para0, U32 Para1, U32 Para2) {
 2746              		.loc 1 1362 0
 2747              		.cfi_startproc
 2748              		@ args = 0, pretend = 0, frame = 56
 2749              		@ frame_needed = 1, uses_anonymous_args = 0
 2750 0000 80B5     		push	{r7, lr}
 2751              	.LCFI84:
 2752              		.cfi_def_cfa_offset 8
 2753              		.cfi_offset 7, -8
 2754              		.cfi_offset 14, -4
 2755 0002 8EB0     		sub	sp, sp, #56
 2756              	.LCFI85:
 2757              		.cfi_def_cfa_offset 64
 2758 0004 00AF     		add	r7, sp, #0
 2759              	.LCFI86:
 2760              		.cfi_def_cfa_register 7
 2761 0006 F860     		str	r0, [r7, #12]
 2762 0008 B960     		str	r1, [r7, #8]
 2763 000a 7A60     		str	r2, [r7, #4]
 2764 000c 3B60     		str	r3, [r7]
 2765              	.LBB21:
1363:../../../SystemView/SEGGER/SEGGER_SYSVIEW.c ****   U8* pPayload;
1364:../../../SystemView/SEGGER/SEGGER_SYSVIEW.c ****   U8* pPayloadStart;
1365:../../../SystemView/SEGGER/SEGGER_SYSVIEW.c ****   RECORD_START(SEGGER_SYSVIEW_INFO_SIZE + 3 * SEGGER_SYSVIEW_QUANTA_U32);
 2766              		.loc 1 1365 0
 2767              	@ 1365 "../../../SystemView/SEGGER/SEGGER_SYSVIEW.c" 1
 2768 000e EFF31183 		mrs   r3, basepri  
 2769 0012 4FF02001 		mov   r1, #32       
 2770 0016 81F31188 		msr   basepri, r1  
 2771              		
 2772              	@ 0 "" 2
 2773              		.thumb
 2774 001a FB61     		str	r3, [r7, #28]
 2775 001c 3248     		ldr	r0, .L177
 2776 001e FFF7FEFF 		bl	_PreparePacket
 2777 0022 B861     		str	r0, [r7, #24]
1366:../../../SystemView/SEGGER/SEGGER_SYSVIEW.c ****   //
1367:../../../SystemView/SEGGER/SEGGER_SYSVIEW.c ****   pPayload = pPayloadStart;
 2778              		.loc 1 1367 0
 2779 0024 BB69     		ldr	r3, [r7, #24]
 2780 0026 7B61     		str	r3, [r7, #20]
 2781              	.LBB22:
1368:../../../SystemView/SEGGER/SEGGER_SYSVIEW.c ****   ENCODE_U32(pPayload, Para0);
 2782              		.loc 1 1368 0
 2783 0028 7B69     		ldr	r3, [r7, #20]
 2784 002a 7B63     		str	r3, [r7, #52]
 2785 002c BB68     		ldr	r3, [r7, #8]
 2786 002e 3B63     		str	r3, [r7, #48]
 2787 0030 0BE0     		b	.L171
 2788              	.L172:
 2789              		.loc 1 1368 0 is_stmt 0 discriminator 3
 2790 0032 7B6B     		ldr	r3, [r7, #52]
 2791 0034 5A1C     		adds	r2, r3, #1
ARM GAS  /tmp/ccJhHFds.s 			page 74


 2792 0036 7A63     		str	r2, [r7, #52]
 2793 0038 3A6B     		ldr	r2, [r7, #48]
 2794 003a D2B2     		uxtb	r2, r2
 2795 003c 62F07F02 		orn	r2, r2, #127
 2796 0040 D2B2     		uxtb	r2, r2
 2797 0042 1A70     		strb	r2, [r3]
 2798 0044 3B6B     		ldr	r3, [r7, #48]
 2799 0046 DB09     		lsrs	r3, r3, #7
 2800 0048 3B63     		str	r3, [r7, #48]
 2801              	.L171:
 2802              		.loc 1 1368 0 discriminator 1
 2803 004a 3B6B     		ldr	r3, [r7, #48]
 2804 004c 7F2B     		cmp	r3, #127
 2805 004e F0D8     		bhi	.L172
 2806              		.loc 1 1368 0 discriminator 4
 2807 0050 7B6B     		ldr	r3, [r7, #52]
 2808 0052 5A1C     		adds	r2, r3, #1
 2809 0054 7A63     		str	r2, [r7, #52]
 2810 0056 3A6B     		ldr	r2, [r7, #48]
 2811 0058 D2B2     		uxtb	r2, r2
 2812 005a 1A70     		strb	r2, [r3]
 2813 005c 7B6B     		ldr	r3, [r7, #52]
 2814 005e 7B61     		str	r3, [r7, #20]
 2815              	.LBE22:
 2816              	.LBB23:
1369:../../../SystemView/SEGGER/SEGGER_SYSVIEW.c ****   ENCODE_U32(pPayload, Para1);
 2817              		.loc 1 1369 0 is_stmt 1 discriminator 4
 2818 0060 7B69     		ldr	r3, [r7, #20]
 2819 0062 FB62     		str	r3, [r7, #44]
 2820 0064 7B68     		ldr	r3, [r7, #4]
 2821 0066 BB62     		str	r3, [r7, #40]
 2822 0068 0BE0     		b	.L173
 2823              	.L174:
 2824              		.loc 1 1369 0 is_stmt 0 discriminator 3
 2825 006a FB6A     		ldr	r3, [r7, #44]
 2826 006c 5A1C     		adds	r2, r3, #1
 2827 006e FA62     		str	r2, [r7, #44]
 2828 0070 BA6A     		ldr	r2, [r7, #40]
 2829 0072 D2B2     		uxtb	r2, r2
 2830 0074 62F07F02 		orn	r2, r2, #127
 2831 0078 D2B2     		uxtb	r2, r2
 2832 007a 1A70     		strb	r2, [r3]
 2833 007c BB6A     		ldr	r3, [r7, #40]
 2834 007e DB09     		lsrs	r3, r3, #7
 2835 0080 BB62     		str	r3, [r7, #40]
 2836              	.L173:
 2837              		.loc 1 1369 0 discriminator 1
 2838 0082 BB6A     		ldr	r3, [r7, #40]
 2839 0084 7F2B     		cmp	r3, #127
 2840 0086 F0D8     		bhi	.L174
 2841              		.loc 1 1369 0 discriminator 4
 2842 0088 FB6A     		ldr	r3, [r7, #44]
 2843 008a 5A1C     		adds	r2, r3, #1
 2844 008c FA62     		str	r2, [r7, #44]
 2845 008e BA6A     		ldr	r2, [r7, #40]
 2846 0090 D2B2     		uxtb	r2, r2
 2847 0092 1A70     		strb	r2, [r3]
ARM GAS  /tmp/ccJhHFds.s 			page 75


 2848 0094 FB6A     		ldr	r3, [r7, #44]
 2849 0096 7B61     		str	r3, [r7, #20]
 2850              	.LBE23:
 2851              	.LBB24:
1370:../../../SystemView/SEGGER/SEGGER_SYSVIEW.c ****   ENCODE_U32(pPayload, Para2);
 2852              		.loc 1 1370 0 is_stmt 1 discriminator 4
 2853 0098 7B69     		ldr	r3, [r7, #20]
 2854 009a 7B62     		str	r3, [r7, #36]
 2855 009c 3B68     		ldr	r3, [r7]
 2856 009e 3B62     		str	r3, [r7, #32]
 2857 00a0 0BE0     		b	.L175
 2858              	.L176:
 2859              		.loc 1 1370 0 is_stmt 0 discriminator 3
 2860 00a2 7B6A     		ldr	r3, [r7, #36]
 2861 00a4 5A1C     		adds	r2, r3, #1
 2862 00a6 7A62     		str	r2, [r7, #36]
 2863 00a8 3A6A     		ldr	r2, [r7, #32]
 2864 00aa D2B2     		uxtb	r2, r2
 2865 00ac 62F07F02 		orn	r2, r2, #127
 2866 00b0 D2B2     		uxtb	r2, r2
 2867 00b2 1A70     		strb	r2, [r3]
 2868 00b4 3B6A     		ldr	r3, [r7, #32]
 2869 00b6 DB09     		lsrs	r3, r3, #7
 2870 00b8 3B62     		str	r3, [r7, #32]
 2871              	.L175:
 2872              		.loc 1 1370 0 discriminator 1
 2873 00ba 3B6A     		ldr	r3, [r7, #32]
 2874 00bc 7F2B     		cmp	r3, #127
 2875 00be F0D8     		bhi	.L176
 2876              		.loc 1 1370 0 discriminator 4
 2877 00c0 7B6A     		ldr	r3, [r7, #36]
 2878 00c2 5A1C     		adds	r2, r3, #1
 2879 00c4 7A62     		str	r2, [r7, #36]
 2880 00c6 3A6A     		ldr	r2, [r7, #32]
 2881 00c8 D2B2     		uxtb	r2, r2
 2882 00ca 1A70     		strb	r2, [r3]
 2883 00cc 7B6A     		ldr	r3, [r7, #36]
 2884 00ce 7B61     		str	r3, [r7, #20]
 2885              	.LBE24:
1371:../../../SystemView/SEGGER/SEGGER_SYSVIEW.c ****   _SendPacket(pPayloadStart, pPayload, EventID);
 2886              		.loc 1 1371 0 is_stmt 1 discriminator 4
 2887 00d0 B869     		ldr	r0, [r7, #24]
 2888 00d2 7969     		ldr	r1, [r7, #20]
 2889 00d4 FA68     		ldr	r2, [r7, #12]
 2890 00d6 FFF7FEFF 		bl	_SendPacket
1372:../../../SystemView/SEGGER/SEGGER_SYSVIEW.c ****   RECORD_END();
 2891              		.loc 1 1372 0 discriminator 4
 2892 00da FB69     		ldr	r3, [r7, #28]
 2893              	@ 1372 "../../../SystemView/SEGGER/SEGGER_SYSVIEW.c" 1
 2894 00dc 83F31188 		msr   basepri, r3  
 2895              		
 2896              	@ 0 "" 2
 2897              		.thumb
 2898              	.LBE21:
1373:../../../SystemView/SEGGER/SEGGER_SYSVIEW.c **** }
 2899              		.loc 1 1373 0 discriminator 4
 2900 00e0 3837     		adds	r7, r7, #56
ARM GAS  /tmp/ccJhHFds.s 			page 76


 2901              	.LCFI87:
 2902              		.cfi_def_cfa_offset 8
 2903 00e2 BD46     		mov	sp, r7
 2904              	.LCFI88:
 2905              		.cfi_def_cfa_register 13
 2906              		@ sp needed
 2907 00e4 80BD     		pop	{r7, pc}
 2908              	.L178:
 2909 00e6 00BF     		.align	2
 2910              	.L177:
 2911 00e8 00000000 		.word	_aPacket
 2912              		.cfi_endproc
 2913              	.LFE16:
 2915              		.section	.text.SEGGER_SYSVIEW_RecordU32x4,"ax",%progbits
 2916              		.align	2
 2917              		.global	SEGGER_SYSVIEW_RecordU32x4
 2918              		.thumb
 2919              		.thumb_func
 2921              	SEGGER_SYSVIEW_RecordU32x4:
 2922              	.LFB17:
1374:../../../SystemView/SEGGER/SEGGER_SYSVIEW.c **** 
1375:../../../SystemView/SEGGER/SEGGER_SYSVIEW.c **** /*********************************************************************
1376:../../../SystemView/SEGGER/SEGGER_SYSVIEW.c **** *
1377:../../../SystemView/SEGGER/SEGGER_SYSVIEW.c **** *       SEGGER_SYSVIEW_RecordU32x4()
1378:../../../SystemView/SEGGER/SEGGER_SYSVIEW.c **** *
1379:../../../SystemView/SEGGER/SEGGER_SYSVIEW.c **** *  Function description
1380:../../../SystemView/SEGGER/SEGGER_SYSVIEW.c **** *    Formats and sends a SystemView packet containing 4 U32 parameter payload.
1381:../../../SystemView/SEGGER/SEGGER_SYSVIEW.c **** *
1382:../../../SystemView/SEGGER/SEGGER_SYSVIEW.c **** *  Parameters
1383:../../../SystemView/SEGGER/SEGGER_SYSVIEW.c **** *    EventID - SystemView event ID.
1384:../../../SystemView/SEGGER/SEGGER_SYSVIEW.c **** *    Para0   - The 32-bit parameter encoded to SystemView packet payload.
1385:../../../SystemView/SEGGER/SEGGER_SYSVIEW.c **** *    Para1   - The 32-bit parameter encoded to SystemView packet payload.
1386:../../../SystemView/SEGGER/SEGGER_SYSVIEW.c **** *    Para2   - The 32-bit parameter encoded to SystemView packet payload.
1387:../../../SystemView/SEGGER/SEGGER_SYSVIEW.c **** *    Para3   - The 32-bit parameter encoded to SystemView packet payload.
1388:../../../SystemView/SEGGER/SEGGER_SYSVIEW.c **** */
1389:../../../SystemView/SEGGER/SEGGER_SYSVIEW.c **** void SEGGER_SYSVIEW_RecordU32x4(unsigned int EventID, U32 Para0, U32 Para1, U32 Para2, U32 Para3) {
 2923              		.loc 1 1389 0
 2924              		.cfi_startproc
 2925              		@ args = 4, pretend = 0, frame = 64
 2926              		@ frame_needed = 1, uses_anonymous_args = 0
 2927 0000 80B5     		push	{r7, lr}
 2928              	.LCFI89:
 2929              		.cfi_def_cfa_offset 8
 2930              		.cfi_offset 7, -8
 2931              		.cfi_offset 14, -4
 2932 0002 90B0     		sub	sp, sp, #64
 2933              	.LCFI90:
 2934              		.cfi_def_cfa_offset 72
 2935 0004 00AF     		add	r7, sp, #0
 2936              	.LCFI91:
 2937              		.cfi_def_cfa_register 7
 2938 0006 F860     		str	r0, [r7, #12]
 2939 0008 B960     		str	r1, [r7, #8]
 2940 000a 7A60     		str	r2, [r7, #4]
 2941 000c 3B60     		str	r3, [r7]
 2942              	.LBB25:
1390:../../../SystemView/SEGGER/SEGGER_SYSVIEW.c ****   U8* pPayload;
ARM GAS  /tmp/ccJhHFds.s 			page 77


1391:../../../SystemView/SEGGER/SEGGER_SYSVIEW.c ****   U8* pPayloadStart;
1392:../../../SystemView/SEGGER/SEGGER_SYSVIEW.c ****   RECORD_START(SEGGER_SYSVIEW_INFO_SIZE + 4 * SEGGER_SYSVIEW_QUANTA_U32);
 2943              		.loc 1 1392 0
 2944              	@ 1392 "../../../SystemView/SEGGER/SEGGER_SYSVIEW.c" 1
 2945 000e EFF31183 		mrs   r3, basepri  
 2946 0012 4FF02001 		mov   r1, #32       
 2947 0016 81F31188 		msr   basepri, r1  
 2948              		
 2949              	@ 0 "" 2
 2950              		.thumb
 2951 001a FB61     		str	r3, [r7, #28]
 2952 001c 4048     		ldr	r0, .L188
 2953 001e FFF7FEFF 		bl	_PreparePacket
 2954 0022 B861     		str	r0, [r7, #24]
1393:../../../SystemView/SEGGER/SEGGER_SYSVIEW.c ****   //
1394:../../../SystemView/SEGGER/SEGGER_SYSVIEW.c ****   pPayload = pPayloadStart;
 2955              		.loc 1 1394 0
 2956 0024 BB69     		ldr	r3, [r7, #24]
 2957 0026 7B61     		str	r3, [r7, #20]
 2958              	.LBB26:
1395:../../../SystemView/SEGGER/SEGGER_SYSVIEW.c ****   ENCODE_U32(pPayload, Para0);
 2959              		.loc 1 1395 0
 2960 0028 7B69     		ldr	r3, [r7, #20]
 2961 002a FB63     		str	r3, [r7, #60]
 2962 002c BB68     		ldr	r3, [r7, #8]
 2963 002e BB63     		str	r3, [r7, #56]
 2964 0030 0BE0     		b	.L180
 2965              	.L181:
 2966              		.loc 1 1395 0 is_stmt 0 discriminator 3
 2967 0032 FB6B     		ldr	r3, [r7, #60]
 2968 0034 5A1C     		adds	r2, r3, #1
 2969 0036 FA63     		str	r2, [r7, #60]
 2970 0038 BA6B     		ldr	r2, [r7, #56]
 2971 003a D2B2     		uxtb	r2, r2
 2972 003c 62F07F02 		orn	r2, r2, #127
 2973 0040 D2B2     		uxtb	r2, r2
 2974 0042 1A70     		strb	r2, [r3]
 2975 0044 BB6B     		ldr	r3, [r7, #56]
 2976 0046 DB09     		lsrs	r3, r3, #7
 2977 0048 BB63     		str	r3, [r7, #56]
 2978              	.L180:
 2979              		.loc 1 1395 0 discriminator 1
 2980 004a BB6B     		ldr	r3, [r7, #56]
 2981 004c 7F2B     		cmp	r3, #127
 2982 004e F0D8     		bhi	.L181
 2983              		.loc 1 1395 0 discriminator 4
 2984 0050 FB6B     		ldr	r3, [r7, #60]
 2985 0052 5A1C     		adds	r2, r3, #1
 2986 0054 FA63     		str	r2, [r7, #60]
 2987 0056 BA6B     		ldr	r2, [r7, #56]
 2988 0058 D2B2     		uxtb	r2, r2
 2989 005a 1A70     		strb	r2, [r3]
 2990 005c FB6B     		ldr	r3, [r7, #60]
 2991 005e 7B61     		str	r3, [r7, #20]
 2992              	.LBE26:
 2993              	.LBB27:
1396:../../../SystemView/SEGGER/SEGGER_SYSVIEW.c ****   ENCODE_U32(pPayload, Para1);
ARM GAS  /tmp/ccJhHFds.s 			page 78


 2994              		.loc 1 1396 0 is_stmt 1 discriminator 4
 2995 0060 7B69     		ldr	r3, [r7, #20]
 2996 0062 7B63     		str	r3, [r7, #52]
 2997 0064 7B68     		ldr	r3, [r7, #4]
 2998 0066 3B63     		str	r3, [r7, #48]
 2999 0068 0BE0     		b	.L182
 3000              	.L183:
 3001              		.loc 1 1396 0 is_stmt 0 discriminator 3
 3002 006a 7B6B     		ldr	r3, [r7, #52]
 3003 006c 5A1C     		adds	r2, r3, #1
 3004 006e 7A63     		str	r2, [r7, #52]
 3005 0070 3A6B     		ldr	r2, [r7, #48]
 3006 0072 D2B2     		uxtb	r2, r2
 3007 0074 62F07F02 		orn	r2, r2, #127
 3008 0078 D2B2     		uxtb	r2, r2
 3009 007a 1A70     		strb	r2, [r3]
 3010 007c 3B6B     		ldr	r3, [r7, #48]
 3011 007e DB09     		lsrs	r3, r3, #7
 3012 0080 3B63     		str	r3, [r7, #48]
 3013              	.L182:
 3014              		.loc 1 1396 0 discriminator 1
 3015 0082 3B6B     		ldr	r3, [r7, #48]
 3016 0084 7F2B     		cmp	r3, #127
 3017 0086 F0D8     		bhi	.L183
 3018              		.loc 1 1396 0 discriminator 4
 3019 0088 7B6B     		ldr	r3, [r7, #52]
 3020 008a 5A1C     		adds	r2, r3, #1
 3021 008c 7A63     		str	r2, [r7, #52]
 3022 008e 3A6B     		ldr	r2, [r7, #48]
 3023 0090 D2B2     		uxtb	r2, r2
 3024 0092 1A70     		strb	r2, [r3]
 3025 0094 7B6B     		ldr	r3, [r7, #52]
 3026 0096 7B61     		str	r3, [r7, #20]
 3027              	.LBE27:
 3028              	.LBB28:
1397:../../../SystemView/SEGGER/SEGGER_SYSVIEW.c ****   ENCODE_U32(pPayload, Para2);
 3029              		.loc 1 1397 0 is_stmt 1 discriminator 4
 3030 0098 7B69     		ldr	r3, [r7, #20]
 3031 009a FB62     		str	r3, [r7, #44]
 3032 009c 3B68     		ldr	r3, [r7]
 3033 009e BB62     		str	r3, [r7, #40]
 3034 00a0 0BE0     		b	.L184
 3035              	.L185:
 3036              		.loc 1 1397 0 is_stmt 0 discriminator 3
 3037 00a2 FB6A     		ldr	r3, [r7, #44]
 3038 00a4 5A1C     		adds	r2, r3, #1
 3039 00a6 FA62     		str	r2, [r7, #44]
 3040 00a8 BA6A     		ldr	r2, [r7, #40]
 3041 00aa D2B2     		uxtb	r2, r2
 3042 00ac 62F07F02 		orn	r2, r2, #127
 3043 00b0 D2B2     		uxtb	r2, r2
 3044 00b2 1A70     		strb	r2, [r3]
 3045 00b4 BB6A     		ldr	r3, [r7, #40]
 3046 00b6 DB09     		lsrs	r3, r3, #7
 3047 00b8 BB62     		str	r3, [r7, #40]
 3048              	.L184:
 3049              		.loc 1 1397 0 discriminator 1
ARM GAS  /tmp/ccJhHFds.s 			page 79


 3050 00ba BB6A     		ldr	r3, [r7, #40]
 3051 00bc 7F2B     		cmp	r3, #127
 3052 00be F0D8     		bhi	.L185
 3053              		.loc 1 1397 0 discriminator 4
 3054 00c0 FB6A     		ldr	r3, [r7, #44]
 3055 00c2 5A1C     		adds	r2, r3, #1
 3056 00c4 FA62     		str	r2, [r7, #44]
 3057 00c6 BA6A     		ldr	r2, [r7, #40]
 3058 00c8 D2B2     		uxtb	r2, r2
 3059 00ca 1A70     		strb	r2, [r3]
 3060 00cc FB6A     		ldr	r3, [r7, #44]
 3061 00ce 7B61     		str	r3, [r7, #20]
 3062              	.LBE28:
 3063              	.LBB29:
1398:../../../SystemView/SEGGER/SEGGER_SYSVIEW.c ****   ENCODE_U32(pPayload, Para3);
 3064              		.loc 1 1398 0 is_stmt 1 discriminator 4
 3065 00d0 7B69     		ldr	r3, [r7, #20]
 3066 00d2 7B62     		str	r3, [r7, #36]
 3067 00d4 BB6C     		ldr	r3, [r7, #72]
 3068 00d6 3B62     		str	r3, [r7, #32]
 3069 00d8 0BE0     		b	.L186
 3070              	.L187:
 3071              		.loc 1 1398 0 is_stmt 0 discriminator 3
 3072 00da 7B6A     		ldr	r3, [r7, #36]
 3073 00dc 5A1C     		adds	r2, r3, #1
 3074 00de 7A62     		str	r2, [r7, #36]
 3075 00e0 3A6A     		ldr	r2, [r7, #32]
 3076 00e2 D2B2     		uxtb	r2, r2
 3077 00e4 62F07F02 		orn	r2, r2, #127
 3078 00e8 D2B2     		uxtb	r2, r2
 3079 00ea 1A70     		strb	r2, [r3]
 3080 00ec 3B6A     		ldr	r3, [r7, #32]
 3081 00ee DB09     		lsrs	r3, r3, #7
 3082 00f0 3B62     		str	r3, [r7, #32]
 3083              	.L186:
 3084              		.loc 1 1398 0 discriminator 1
 3085 00f2 3B6A     		ldr	r3, [r7, #32]
 3086 00f4 7F2B     		cmp	r3, #127
 3087 00f6 F0D8     		bhi	.L187
 3088              		.loc 1 1398 0 discriminator 4
 3089 00f8 7B6A     		ldr	r3, [r7, #36]
 3090 00fa 5A1C     		adds	r2, r3, #1
 3091 00fc 7A62     		str	r2, [r7, #36]
 3092 00fe 3A6A     		ldr	r2, [r7, #32]
 3093 0100 D2B2     		uxtb	r2, r2
 3094 0102 1A70     		strb	r2, [r3]
 3095 0104 7B6A     		ldr	r3, [r7, #36]
 3096 0106 7B61     		str	r3, [r7, #20]
 3097              	.LBE29:
1399:../../../SystemView/SEGGER/SEGGER_SYSVIEW.c ****   _SendPacket(pPayloadStart, pPayload, EventID);
 3098              		.loc 1 1399 0 is_stmt 1 discriminator 4
 3099 0108 B869     		ldr	r0, [r7, #24]
 3100 010a 7969     		ldr	r1, [r7, #20]
 3101 010c FA68     		ldr	r2, [r7, #12]
 3102 010e FFF7FEFF 		bl	_SendPacket
1400:../../../SystemView/SEGGER/SEGGER_SYSVIEW.c ****   RECORD_END();
 3103              		.loc 1 1400 0 discriminator 4
ARM GAS  /tmp/ccJhHFds.s 			page 80


 3104 0112 FB69     		ldr	r3, [r7, #28]
 3105              	@ 1400 "../../../SystemView/SEGGER/SEGGER_SYSVIEW.c" 1
 3106 0114 83F31188 		msr   basepri, r3  
 3107              		
 3108              	@ 0 "" 2
 3109              		.thumb
 3110              	.LBE25:
1401:../../../SystemView/SEGGER/SEGGER_SYSVIEW.c **** }
 3111              		.loc 1 1401 0 discriminator 4
 3112 0118 4037     		adds	r7, r7, #64
 3113              	.LCFI92:
 3114              		.cfi_def_cfa_offset 8
 3115 011a BD46     		mov	sp, r7
 3116              	.LCFI93:
 3117              		.cfi_def_cfa_register 13
 3118              		@ sp needed
 3119 011c 80BD     		pop	{r7, pc}
 3120              	.L189:
 3121 011e 00BF     		.align	2
 3122              	.L188:
 3123 0120 00000000 		.word	_aPacket
 3124              		.cfi_endproc
 3125              	.LFE17:
 3127              		.section	.text.SEGGER_SYSVIEW_RecordU32x5,"ax",%progbits
 3128              		.align	2
 3129              		.global	SEGGER_SYSVIEW_RecordU32x5
 3130              		.thumb
 3131              		.thumb_func
 3133              	SEGGER_SYSVIEW_RecordU32x5:
 3134              	.LFB18:
1402:../../../SystemView/SEGGER/SEGGER_SYSVIEW.c **** 
1403:../../../SystemView/SEGGER/SEGGER_SYSVIEW.c **** /*********************************************************************
1404:../../../SystemView/SEGGER/SEGGER_SYSVIEW.c **** *
1405:../../../SystemView/SEGGER/SEGGER_SYSVIEW.c **** *       SEGGER_SYSVIEW_RecordU32x5()
1406:../../../SystemView/SEGGER/SEGGER_SYSVIEW.c **** *
1407:../../../SystemView/SEGGER/SEGGER_SYSVIEW.c **** *  Function description
1408:../../../SystemView/SEGGER/SEGGER_SYSVIEW.c **** *    Formats and sends a SystemView packet containing 5 U32 parameter payload.
1409:../../../SystemView/SEGGER/SEGGER_SYSVIEW.c **** *
1410:../../../SystemView/SEGGER/SEGGER_SYSVIEW.c **** *  Parameters
1411:../../../SystemView/SEGGER/SEGGER_SYSVIEW.c **** *    EventID - SystemView event ID.
1412:../../../SystemView/SEGGER/SEGGER_SYSVIEW.c **** *    Para0   - The 32-bit parameter encoded to SystemView packet payload.
1413:../../../SystemView/SEGGER/SEGGER_SYSVIEW.c **** *    Para1   - The 32-bit parameter encoded to SystemView packet payload.
1414:../../../SystemView/SEGGER/SEGGER_SYSVIEW.c **** *    Para2   - The 32-bit parameter encoded to SystemView packet payload.
1415:../../../SystemView/SEGGER/SEGGER_SYSVIEW.c **** *    Para3   - The 32-bit parameter encoded to SystemView packet payload.
1416:../../../SystemView/SEGGER/SEGGER_SYSVIEW.c **** *    Para4   - The 32-bit parameter encoded to SystemView packet payload.
1417:../../../SystemView/SEGGER/SEGGER_SYSVIEW.c **** */
1418:../../../SystemView/SEGGER/SEGGER_SYSVIEW.c **** void SEGGER_SYSVIEW_RecordU32x5(unsigned int EventID, U32 Para0, U32 Para1, U32 Para2, U32 Para3, U
 3135              		.loc 1 1418 0
 3136              		.cfi_startproc
 3137              		@ args = 8, pretend = 0, frame = 72
 3138              		@ frame_needed = 1, uses_anonymous_args = 0
 3139 0000 80B5     		push	{r7, lr}
 3140              	.LCFI94:
 3141              		.cfi_def_cfa_offset 8
 3142              		.cfi_offset 7, -8
 3143              		.cfi_offset 14, -4
 3144 0002 92B0     		sub	sp, sp, #72
ARM GAS  /tmp/ccJhHFds.s 			page 81


 3145              	.LCFI95:
 3146              		.cfi_def_cfa_offset 80
 3147 0004 00AF     		add	r7, sp, #0
 3148              	.LCFI96:
 3149              		.cfi_def_cfa_register 7
 3150 0006 F860     		str	r0, [r7, #12]
 3151 0008 B960     		str	r1, [r7, #8]
 3152 000a 7A60     		str	r2, [r7, #4]
 3153 000c 3B60     		str	r3, [r7]
 3154              	.LBB30:
1419:../../../SystemView/SEGGER/SEGGER_SYSVIEW.c ****   U8* pPayload;
1420:../../../SystemView/SEGGER/SEGGER_SYSVIEW.c ****   U8* pPayloadStart;
1421:../../../SystemView/SEGGER/SEGGER_SYSVIEW.c ****   RECORD_START(SEGGER_SYSVIEW_INFO_SIZE + 5 * SEGGER_SYSVIEW_QUANTA_U32);
 3155              		.loc 1 1421 0
 3156              	@ 1421 "../../../SystemView/SEGGER/SEGGER_SYSVIEW.c" 1
 3157 000e EFF31183 		mrs   r3, basepri  
 3158 0012 4FF02001 		mov   r1, #32       
 3159 0016 81F31188 		msr   basepri, r1  
 3160              		
 3161              	@ 0 "" 2
 3162              		.thumb
 3163 001a FB61     		str	r3, [r7, #28]
 3164 001c 4E48     		ldr	r0, .L201
 3165 001e FFF7FEFF 		bl	_PreparePacket
 3166 0022 B861     		str	r0, [r7, #24]
1422:../../../SystemView/SEGGER/SEGGER_SYSVIEW.c ****   //
1423:../../../SystemView/SEGGER/SEGGER_SYSVIEW.c ****   pPayload = pPayloadStart;
 3167              		.loc 1 1423 0
 3168 0024 BB69     		ldr	r3, [r7, #24]
 3169 0026 7B61     		str	r3, [r7, #20]
 3170              	.LBB31:
1424:../../../SystemView/SEGGER/SEGGER_SYSVIEW.c ****   ENCODE_U32(pPayload, Para0);
 3171              		.loc 1 1424 0
 3172 0028 7B69     		ldr	r3, [r7, #20]
 3173 002a 7B64     		str	r3, [r7, #68]
 3174 002c BB68     		ldr	r3, [r7, #8]
 3175 002e 3B64     		str	r3, [r7, #64]
 3176 0030 0BE0     		b	.L191
 3177              	.L192:
 3178              		.loc 1 1424 0 is_stmt 0 discriminator 3
 3179 0032 7B6C     		ldr	r3, [r7, #68]
 3180 0034 5A1C     		adds	r2, r3, #1
 3181 0036 7A64     		str	r2, [r7, #68]
 3182 0038 3A6C     		ldr	r2, [r7, #64]
 3183 003a D2B2     		uxtb	r2, r2
 3184 003c 62F07F02 		orn	r2, r2, #127
 3185 0040 D2B2     		uxtb	r2, r2
 3186 0042 1A70     		strb	r2, [r3]
 3187 0044 3B6C     		ldr	r3, [r7, #64]
 3188 0046 DB09     		lsrs	r3, r3, #7
 3189 0048 3B64     		str	r3, [r7, #64]
 3190              	.L191:
 3191              		.loc 1 1424 0 discriminator 1
 3192 004a 3B6C     		ldr	r3, [r7, #64]
 3193 004c 7F2B     		cmp	r3, #127
 3194 004e F0D8     		bhi	.L192
 3195              		.loc 1 1424 0 discriminator 4
ARM GAS  /tmp/ccJhHFds.s 			page 82


 3196 0050 7B6C     		ldr	r3, [r7, #68]
 3197 0052 5A1C     		adds	r2, r3, #1
 3198 0054 7A64     		str	r2, [r7, #68]
 3199 0056 3A6C     		ldr	r2, [r7, #64]
 3200 0058 D2B2     		uxtb	r2, r2
 3201 005a 1A70     		strb	r2, [r3]
 3202 005c 7B6C     		ldr	r3, [r7, #68]
 3203 005e 7B61     		str	r3, [r7, #20]
 3204              	.LBE31:
 3205              	.LBB32:
1425:../../../SystemView/SEGGER/SEGGER_SYSVIEW.c ****   ENCODE_U32(pPayload, Para1);
 3206              		.loc 1 1425 0 is_stmt 1 discriminator 4
 3207 0060 7B69     		ldr	r3, [r7, #20]
 3208 0062 FB63     		str	r3, [r7, #60]
 3209 0064 7B68     		ldr	r3, [r7, #4]
 3210 0066 BB63     		str	r3, [r7, #56]
 3211 0068 0BE0     		b	.L193
 3212              	.L194:
 3213              		.loc 1 1425 0 is_stmt 0 discriminator 3
 3214 006a FB6B     		ldr	r3, [r7, #60]
 3215 006c 5A1C     		adds	r2, r3, #1
 3216 006e FA63     		str	r2, [r7, #60]
 3217 0070 BA6B     		ldr	r2, [r7, #56]
 3218 0072 D2B2     		uxtb	r2, r2
 3219 0074 62F07F02 		orn	r2, r2, #127
 3220 0078 D2B2     		uxtb	r2, r2
 3221 007a 1A70     		strb	r2, [r3]
 3222 007c BB6B     		ldr	r3, [r7, #56]
 3223 007e DB09     		lsrs	r3, r3, #7
 3224 0080 BB63     		str	r3, [r7, #56]
 3225              	.L193:
 3226              		.loc 1 1425 0 discriminator 1
 3227 0082 BB6B     		ldr	r3, [r7, #56]
 3228 0084 7F2B     		cmp	r3, #127
 3229 0086 F0D8     		bhi	.L194
 3230              		.loc 1 1425 0 discriminator 4
 3231 0088 FB6B     		ldr	r3, [r7, #60]
 3232 008a 5A1C     		adds	r2, r3, #1
 3233 008c FA63     		str	r2, [r7, #60]
 3234 008e BA6B     		ldr	r2, [r7, #56]
 3235 0090 D2B2     		uxtb	r2, r2
 3236 0092 1A70     		strb	r2, [r3]
 3237 0094 FB6B     		ldr	r3, [r7, #60]
 3238 0096 7B61     		str	r3, [r7, #20]
 3239              	.LBE32:
 3240              	.LBB33:
1426:../../../SystemView/SEGGER/SEGGER_SYSVIEW.c ****   ENCODE_U32(pPayload, Para2);
 3241              		.loc 1 1426 0 is_stmt 1 discriminator 4
 3242 0098 7B69     		ldr	r3, [r7, #20]
 3243 009a 7B63     		str	r3, [r7, #52]
 3244 009c 3B68     		ldr	r3, [r7]
 3245 009e 3B63     		str	r3, [r7, #48]
 3246 00a0 0BE0     		b	.L195
 3247              	.L196:
 3248              		.loc 1 1426 0 is_stmt 0 discriminator 3
 3249 00a2 7B6B     		ldr	r3, [r7, #52]
 3250 00a4 5A1C     		adds	r2, r3, #1
ARM GAS  /tmp/ccJhHFds.s 			page 83


 3251 00a6 7A63     		str	r2, [r7, #52]
 3252 00a8 3A6B     		ldr	r2, [r7, #48]
 3253 00aa D2B2     		uxtb	r2, r2
 3254 00ac 62F07F02 		orn	r2, r2, #127
 3255 00b0 D2B2     		uxtb	r2, r2
 3256 00b2 1A70     		strb	r2, [r3]
 3257 00b4 3B6B     		ldr	r3, [r7, #48]
 3258 00b6 DB09     		lsrs	r3, r3, #7
 3259 00b8 3B63     		str	r3, [r7, #48]
 3260              	.L195:
 3261              		.loc 1 1426 0 discriminator 1
 3262 00ba 3B6B     		ldr	r3, [r7, #48]
 3263 00bc 7F2B     		cmp	r3, #127
 3264 00be F0D8     		bhi	.L196
 3265              		.loc 1 1426 0 discriminator 4
 3266 00c0 7B6B     		ldr	r3, [r7, #52]
 3267 00c2 5A1C     		adds	r2, r3, #1
 3268 00c4 7A63     		str	r2, [r7, #52]
 3269 00c6 3A6B     		ldr	r2, [r7, #48]
 3270 00c8 D2B2     		uxtb	r2, r2
 3271 00ca 1A70     		strb	r2, [r3]
 3272 00cc 7B6B     		ldr	r3, [r7, #52]
 3273 00ce 7B61     		str	r3, [r7, #20]
 3274              	.LBE33:
 3275              	.LBB34:
1427:../../../SystemView/SEGGER/SEGGER_SYSVIEW.c ****   ENCODE_U32(pPayload, Para3);
 3276              		.loc 1 1427 0 is_stmt 1 discriminator 4
 3277 00d0 7B69     		ldr	r3, [r7, #20]
 3278 00d2 FB62     		str	r3, [r7, #44]
 3279 00d4 3B6D     		ldr	r3, [r7, #80]
 3280 00d6 BB62     		str	r3, [r7, #40]
 3281 00d8 0BE0     		b	.L197
 3282              	.L198:
 3283              		.loc 1 1427 0 is_stmt 0 discriminator 3
 3284 00da FB6A     		ldr	r3, [r7, #44]
 3285 00dc 5A1C     		adds	r2, r3, #1
 3286 00de FA62     		str	r2, [r7, #44]
 3287 00e0 BA6A     		ldr	r2, [r7, #40]
 3288 00e2 D2B2     		uxtb	r2, r2
 3289 00e4 62F07F02 		orn	r2, r2, #127
 3290 00e8 D2B2     		uxtb	r2, r2
 3291 00ea 1A70     		strb	r2, [r3]
 3292 00ec BB6A     		ldr	r3, [r7, #40]
 3293 00ee DB09     		lsrs	r3, r3, #7
 3294 00f0 BB62     		str	r3, [r7, #40]
 3295              	.L197:
 3296              		.loc 1 1427 0 discriminator 1
 3297 00f2 BB6A     		ldr	r3, [r7, #40]
 3298 00f4 7F2B     		cmp	r3, #127
 3299 00f6 F0D8     		bhi	.L198
 3300              		.loc 1 1427 0 discriminator 4
 3301 00f8 FB6A     		ldr	r3, [r7, #44]
 3302 00fa 5A1C     		adds	r2, r3, #1
 3303 00fc FA62     		str	r2, [r7, #44]
 3304 00fe BA6A     		ldr	r2, [r7, #40]
 3305 0100 D2B2     		uxtb	r2, r2
 3306 0102 1A70     		strb	r2, [r3]
ARM GAS  /tmp/ccJhHFds.s 			page 84


 3307 0104 FB6A     		ldr	r3, [r7, #44]
 3308 0106 7B61     		str	r3, [r7, #20]
 3309              	.LBE34:
 3310              	.LBB35:
1428:../../../SystemView/SEGGER/SEGGER_SYSVIEW.c ****   ENCODE_U32(pPayload, Para4);
 3311              		.loc 1 1428 0 is_stmt 1 discriminator 4
 3312 0108 7B69     		ldr	r3, [r7, #20]
 3313 010a 7B62     		str	r3, [r7, #36]
 3314 010c 7B6D     		ldr	r3, [r7, #84]
 3315 010e 3B62     		str	r3, [r7, #32]
 3316 0110 0BE0     		b	.L199
 3317              	.L200:
 3318              		.loc 1 1428 0 is_stmt 0 discriminator 3
 3319 0112 7B6A     		ldr	r3, [r7, #36]
 3320 0114 5A1C     		adds	r2, r3, #1
 3321 0116 7A62     		str	r2, [r7, #36]
 3322 0118 3A6A     		ldr	r2, [r7, #32]
 3323 011a D2B2     		uxtb	r2, r2
 3324 011c 62F07F02 		orn	r2, r2, #127
 3325 0120 D2B2     		uxtb	r2, r2
 3326 0122 1A70     		strb	r2, [r3]
 3327 0124 3B6A     		ldr	r3, [r7, #32]
 3328 0126 DB09     		lsrs	r3, r3, #7
 3329 0128 3B62     		str	r3, [r7, #32]
 3330              	.L199:
 3331              		.loc 1 1428 0 discriminator 1
 3332 012a 3B6A     		ldr	r3, [r7, #32]
 3333 012c 7F2B     		cmp	r3, #127
 3334 012e F0D8     		bhi	.L200
 3335              		.loc 1 1428 0 discriminator 4
 3336 0130 7B6A     		ldr	r3, [r7, #36]
 3337 0132 5A1C     		adds	r2, r3, #1
 3338 0134 7A62     		str	r2, [r7, #36]
 3339 0136 3A6A     		ldr	r2, [r7, #32]
 3340 0138 D2B2     		uxtb	r2, r2
 3341 013a 1A70     		strb	r2, [r3]
 3342 013c 7B6A     		ldr	r3, [r7, #36]
 3343 013e 7B61     		str	r3, [r7, #20]
 3344              	.LBE35:
1429:../../../SystemView/SEGGER/SEGGER_SYSVIEW.c ****   _SendPacket(pPayloadStart, pPayload, EventID);
 3345              		.loc 1 1429 0 is_stmt 1 discriminator 4
 3346 0140 B869     		ldr	r0, [r7, #24]
 3347 0142 7969     		ldr	r1, [r7, #20]
 3348 0144 FA68     		ldr	r2, [r7, #12]
 3349 0146 FFF7FEFF 		bl	_SendPacket
1430:../../../SystemView/SEGGER/SEGGER_SYSVIEW.c ****   RECORD_END();
 3350              		.loc 1 1430 0 discriminator 4
 3351 014a FB69     		ldr	r3, [r7, #28]
 3352              	@ 1430 "../../../SystemView/SEGGER/SEGGER_SYSVIEW.c" 1
 3353 014c 83F31188 		msr   basepri, r3  
 3354              		
 3355              	@ 0 "" 2
 3356              		.thumb
 3357              	.LBE30:
1431:../../../SystemView/SEGGER/SEGGER_SYSVIEW.c **** }
 3358              		.loc 1 1431 0 discriminator 4
 3359 0150 4837     		adds	r7, r7, #72
ARM GAS  /tmp/ccJhHFds.s 			page 85


 3360              	.LCFI97:
 3361              		.cfi_def_cfa_offset 8
 3362 0152 BD46     		mov	sp, r7
 3363              	.LCFI98:
 3364              		.cfi_def_cfa_register 13
 3365              		@ sp needed
 3366 0154 80BD     		pop	{r7, pc}
 3367              	.L202:
 3368 0156 00BF     		.align	2
 3369              	.L201:
 3370 0158 00000000 		.word	_aPacket
 3371              		.cfi_endproc
 3372              	.LFE18:
 3374              		.section	.text.SEGGER_SYSVIEW_RecordU32x6,"ax",%progbits
 3375              		.align	2
 3376              		.global	SEGGER_SYSVIEW_RecordU32x6
 3377              		.thumb
 3378              		.thumb_func
 3380              	SEGGER_SYSVIEW_RecordU32x6:
 3381              	.LFB19:
1432:../../../SystemView/SEGGER/SEGGER_SYSVIEW.c **** 
1433:../../../SystemView/SEGGER/SEGGER_SYSVIEW.c **** /*********************************************************************
1434:../../../SystemView/SEGGER/SEGGER_SYSVIEW.c **** *
1435:../../../SystemView/SEGGER/SEGGER_SYSVIEW.c **** *       SEGGER_SYSVIEW_RecordU32x6()
1436:../../../SystemView/SEGGER/SEGGER_SYSVIEW.c **** *
1437:../../../SystemView/SEGGER/SEGGER_SYSVIEW.c **** *  Function description
1438:../../../SystemView/SEGGER/SEGGER_SYSVIEW.c **** *    Formats and sends a SystemView packet containing 6 U32 parameter payload.
1439:../../../SystemView/SEGGER/SEGGER_SYSVIEW.c **** *
1440:../../../SystemView/SEGGER/SEGGER_SYSVIEW.c **** *  Parameters
1441:../../../SystemView/SEGGER/SEGGER_SYSVIEW.c **** *    EventID - SystemView event ID.
1442:../../../SystemView/SEGGER/SEGGER_SYSVIEW.c **** *    Para0   - The 32-bit parameter encoded to SystemView packet payload.
1443:../../../SystemView/SEGGER/SEGGER_SYSVIEW.c **** *    Para1   - The 32-bit parameter encoded to SystemView packet payload.
1444:../../../SystemView/SEGGER/SEGGER_SYSVIEW.c **** *    Para2   - The 32-bit parameter encoded to SystemView packet payload.
1445:../../../SystemView/SEGGER/SEGGER_SYSVIEW.c **** *    Para3   - The 32-bit parameter encoded to SystemView packet payload.
1446:../../../SystemView/SEGGER/SEGGER_SYSVIEW.c **** *    Para4   - The 32-bit parameter encoded to SystemView packet payload.
1447:../../../SystemView/SEGGER/SEGGER_SYSVIEW.c **** *    Para5   - The 32-bit parameter encoded to SystemView packet payload.
1448:../../../SystemView/SEGGER/SEGGER_SYSVIEW.c **** */
1449:../../../SystemView/SEGGER/SEGGER_SYSVIEW.c **** void SEGGER_SYSVIEW_RecordU32x6(unsigned int EventID, U32 Para0, U32 Para1, U32 Para2, U32 Para3, U
 3382              		.loc 1 1449 0
 3383              		.cfi_startproc
 3384              		@ args = 12, pretend = 0, frame = 80
 3385              		@ frame_needed = 1, uses_anonymous_args = 0
 3386 0000 80B5     		push	{r7, lr}
 3387              	.LCFI99:
 3388              		.cfi_def_cfa_offset 8
 3389              		.cfi_offset 7, -8
 3390              		.cfi_offset 14, -4
 3391 0002 94B0     		sub	sp, sp, #80
 3392              	.LCFI100:
 3393              		.cfi_def_cfa_offset 88
 3394 0004 00AF     		add	r7, sp, #0
 3395              	.LCFI101:
 3396              		.cfi_def_cfa_register 7
 3397 0006 F860     		str	r0, [r7, #12]
 3398 0008 B960     		str	r1, [r7, #8]
 3399 000a 7A60     		str	r2, [r7, #4]
 3400 000c 3B60     		str	r3, [r7]
ARM GAS  /tmp/ccJhHFds.s 			page 86


 3401              	.LBB36:
1450:../../../SystemView/SEGGER/SEGGER_SYSVIEW.c ****   U8* pPayload;
1451:../../../SystemView/SEGGER/SEGGER_SYSVIEW.c ****   U8* pPayloadStart;
1452:../../../SystemView/SEGGER/SEGGER_SYSVIEW.c ****   RECORD_START(SEGGER_SYSVIEW_INFO_SIZE + 6 * SEGGER_SYSVIEW_QUANTA_U32);
 3402              		.loc 1 1452 0
 3403              	@ 1452 "../../../SystemView/SEGGER/SEGGER_SYSVIEW.c" 1
 3404 000e EFF31183 		mrs   r3, basepri  
 3405 0012 4FF02001 		mov   r1, #32       
 3406 0016 81F31188 		msr   basepri, r1  
 3407              		
 3408              	@ 0 "" 2
 3409              		.thumb
 3410 001a FB61     		str	r3, [r7, #28]
 3411 001c 5C48     		ldr	r0, .L216
 3412 001e FFF7FEFF 		bl	_PreparePacket
 3413 0022 B861     		str	r0, [r7, #24]
1453:../../../SystemView/SEGGER/SEGGER_SYSVIEW.c ****   //
1454:../../../SystemView/SEGGER/SEGGER_SYSVIEW.c ****   pPayload = pPayloadStart;
 3414              		.loc 1 1454 0
 3415 0024 BB69     		ldr	r3, [r7, #24]
 3416 0026 7B61     		str	r3, [r7, #20]
 3417              	.LBB37:
1455:../../../SystemView/SEGGER/SEGGER_SYSVIEW.c ****   ENCODE_U32(pPayload, Para0);
 3418              		.loc 1 1455 0
 3419 0028 7B69     		ldr	r3, [r7, #20]
 3420 002a FB64     		str	r3, [r7, #76]
 3421 002c BB68     		ldr	r3, [r7, #8]
 3422 002e BB64     		str	r3, [r7, #72]
 3423 0030 0BE0     		b	.L204
 3424              	.L205:
 3425              		.loc 1 1455 0 is_stmt 0 discriminator 3
 3426 0032 FB6C     		ldr	r3, [r7, #76]
 3427 0034 5A1C     		adds	r2, r3, #1
 3428 0036 FA64     		str	r2, [r7, #76]
 3429 0038 BA6C     		ldr	r2, [r7, #72]
 3430 003a D2B2     		uxtb	r2, r2
 3431 003c 62F07F02 		orn	r2, r2, #127
 3432 0040 D2B2     		uxtb	r2, r2
 3433 0042 1A70     		strb	r2, [r3]
 3434 0044 BB6C     		ldr	r3, [r7, #72]
 3435 0046 DB09     		lsrs	r3, r3, #7
 3436 0048 BB64     		str	r3, [r7, #72]
 3437              	.L204:
 3438              		.loc 1 1455 0 discriminator 1
 3439 004a BB6C     		ldr	r3, [r7, #72]
 3440 004c 7F2B     		cmp	r3, #127
 3441 004e F0D8     		bhi	.L205
 3442              		.loc 1 1455 0 discriminator 4
 3443 0050 FB6C     		ldr	r3, [r7, #76]
 3444 0052 5A1C     		adds	r2, r3, #1
 3445 0054 FA64     		str	r2, [r7, #76]
 3446 0056 BA6C     		ldr	r2, [r7, #72]
 3447 0058 D2B2     		uxtb	r2, r2
 3448 005a 1A70     		strb	r2, [r3]
 3449 005c FB6C     		ldr	r3, [r7, #76]
 3450 005e 7B61     		str	r3, [r7, #20]
 3451              	.LBE37:
ARM GAS  /tmp/ccJhHFds.s 			page 87


 3452              	.LBB38:
1456:../../../SystemView/SEGGER/SEGGER_SYSVIEW.c ****   ENCODE_U32(pPayload, Para1);
 3453              		.loc 1 1456 0 is_stmt 1 discriminator 4
 3454 0060 7B69     		ldr	r3, [r7, #20]
 3455 0062 7B64     		str	r3, [r7, #68]
 3456 0064 7B68     		ldr	r3, [r7, #4]
 3457 0066 3B64     		str	r3, [r7, #64]
 3458 0068 0BE0     		b	.L206
 3459              	.L207:
 3460              		.loc 1 1456 0 is_stmt 0 discriminator 3
 3461 006a 7B6C     		ldr	r3, [r7, #68]
 3462 006c 5A1C     		adds	r2, r3, #1
 3463 006e 7A64     		str	r2, [r7, #68]
 3464 0070 3A6C     		ldr	r2, [r7, #64]
 3465 0072 D2B2     		uxtb	r2, r2
 3466 0074 62F07F02 		orn	r2, r2, #127
 3467 0078 D2B2     		uxtb	r2, r2
 3468 007a 1A70     		strb	r2, [r3]
 3469 007c 3B6C     		ldr	r3, [r7, #64]
 3470 007e DB09     		lsrs	r3, r3, #7
 3471 0080 3B64     		str	r3, [r7, #64]
 3472              	.L206:
 3473              		.loc 1 1456 0 discriminator 1
 3474 0082 3B6C     		ldr	r3, [r7, #64]
 3475 0084 7F2B     		cmp	r3, #127
 3476 0086 F0D8     		bhi	.L207
 3477              		.loc 1 1456 0 discriminator 4
 3478 0088 7B6C     		ldr	r3, [r7, #68]
 3479 008a 5A1C     		adds	r2, r3, #1
 3480 008c 7A64     		str	r2, [r7, #68]
 3481 008e 3A6C     		ldr	r2, [r7, #64]
 3482 0090 D2B2     		uxtb	r2, r2
 3483 0092 1A70     		strb	r2, [r3]
 3484 0094 7B6C     		ldr	r3, [r7, #68]
 3485 0096 7B61     		str	r3, [r7, #20]
 3486              	.LBE38:
 3487              	.LBB39:
1457:../../../SystemView/SEGGER/SEGGER_SYSVIEW.c ****   ENCODE_U32(pPayload, Para2);
 3488              		.loc 1 1457 0 is_stmt 1 discriminator 4
 3489 0098 7B69     		ldr	r3, [r7, #20]
 3490 009a FB63     		str	r3, [r7, #60]
 3491 009c 3B68     		ldr	r3, [r7]
 3492 009e BB63     		str	r3, [r7, #56]
 3493 00a0 0BE0     		b	.L208
 3494              	.L209:
 3495              		.loc 1 1457 0 is_stmt 0 discriminator 3
 3496 00a2 FB6B     		ldr	r3, [r7, #60]
 3497 00a4 5A1C     		adds	r2, r3, #1
 3498 00a6 FA63     		str	r2, [r7, #60]
 3499 00a8 BA6B     		ldr	r2, [r7, #56]
 3500 00aa D2B2     		uxtb	r2, r2
 3501 00ac 62F07F02 		orn	r2, r2, #127
 3502 00b0 D2B2     		uxtb	r2, r2
 3503 00b2 1A70     		strb	r2, [r3]
 3504 00b4 BB6B     		ldr	r3, [r7, #56]
 3505 00b6 DB09     		lsrs	r3, r3, #7
 3506 00b8 BB63     		str	r3, [r7, #56]
ARM GAS  /tmp/ccJhHFds.s 			page 88


 3507              	.L208:
 3508              		.loc 1 1457 0 discriminator 1
 3509 00ba BB6B     		ldr	r3, [r7, #56]
 3510 00bc 7F2B     		cmp	r3, #127
 3511 00be F0D8     		bhi	.L209
 3512              		.loc 1 1457 0 discriminator 4
 3513 00c0 FB6B     		ldr	r3, [r7, #60]
 3514 00c2 5A1C     		adds	r2, r3, #1
 3515 00c4 FA63     		str	r2, [r7, #60]
 3516 00c6 BA6B     		ldr	r2, [r7, #56]
 3517 00c8 D2B2     		uxtb	r2, r2
 3518 00ca 1A70     		strb	r2, [r3]
 3519 00cc FB6B     		ldr	r3, [r7, #60]
 3520 00ce 7B61     		str	r3, [r7, #20]
 3521              	.LBE39:
 3522              	.LBB40:
1458:../../../SystemView/SEGGER/SEGGER_SYSVIEW.c ****   ENCODE_U32(pPayload, Para3);
 3523              		.loc 1 1458 0 is_stmt 1 discriminator 4
 3524 00d0 7B69     		ldr	r3, [r7, #20]
 3525 00d2 7B63     		str	r3, [r7, #52]
 3526 00d4 BB6D     		ldr	r3, [r7, #88]
 3527 00d6 3B63     		str	r3, [r7, #48]
 3528 00d8 0BE0     		b	.L210
 3529              	.L211:
 3530              		.loc 1 1458 0 is_stmt 0 discriminator 3
 3531 00da 7B6B     		ldr	r3, [r7, #52]
 3532 00dc 5A1C     		adds	r2, r3, #1
 3533 00de 7A63     		str	r2, [r7, #52]
 3534 00e0 3A6B     		ldr	r2, [r7, #48]
 3535 00e2 D2B2     		uxtb	r2, r2
 3536 00e4 62F07F02 		orn	r2, r2, #127
 3537 00e8 D2B2     		uxtb	r2, r2
 3538 00ea 1A70     		strb	r2, [r3]
 3539 00ec 3B6B     		ldr	r3, [r7, #48]
 3540 00ee DB09     		lsrs	r3, r3, #7
 3541 00f0 3B63     		str	r3, [r7, #48]
 3542              	.L210:
 3543              		.loc 1 1458 0 discriminator 1
 3544 00f2 3B6B     		ldr	r3, [r7, #48]
 3545 00f4 7F2B     		cmp	r3, #127
 3546 00f6 F0D8     		bhi	.L211
 3547              		.loc 1 1458 0 discriminator 4
 3548 00f8 7B6B     		ldr	r3, [r7, #52]
 3549 00fa 5A1C     		adds	r2, r3, #1
 3550 00fc 7A63     		str	r2, [r7, #52]
 3551 00fe 3A6B     		ldr	r2, [r7, #48]
 3552 0100 D2B2     		uxtb	r2, r2
 3553 0102 1A70     		strb	r2, [r3]
 3554 0104 7B6B     		ldr	r3, [r7, #52]
 3555 0106 7B61     		str	r3, [r7, #20]
 3556              	.LBE40:
 3557              	.LBB41:
1459:../../../SystemView/SEGGER/SEGGER_SYSVIEW.c ****   ENCODE_U32(pPayload, Para4);
 3558              		.loc 1 1459 0 is_stmt 1 discriminator 4
 3559 0108 7B69     		ldr	r3, [r7, #20]
 3560 010a FB62     		str	r3, [r7, #44]
 3561 010c FB6D     		ldr	r3, [r7, #92]
ARM GAS  /tmp/ccJhHFds.s 			page 89


 3562 010e BB62     		str	r3, [r7, #40]
 3563 0110 0BE0     		b	.L212
 3564              	.L213:
 3565              		.loc 1 1459 0 is_stmt 0 discriminator 3
 3566 0112 FB6A     		ldr	r3, [r7, #44]
 3567 0114 5A1C     		adds	r2, r3, #1
 3568 0116 FA62     		str	r2, [r7, #44]
 3569 0118 BA6A     		ldr	r2, [r7, #40]
 3570 011a D2B2     		uxtb	r2, r2
 3571 011c 62F07F02 		orn	r2, r2, #127
 3572 0120 D2B2     		uxtb	r2, r2
 3573 0122 1A70     		strb	r2, [r3]
 3574 0124 BB6A     		ldr	r3, [r7, #40]
 3575 0126 DB09     		lsrs	r3, r3, #7
 3576 0128 BB62     		str	r3, [r7, #40]
 3577              	.L212:
 3578              		.loc 1 1459 0 discriminator 1
 3579 012a BB6A     		ldr	r3, [r7, #40]
 3580 012c 7F2B     		cmp	r3, #127
 3581 012e F0D8     		bhi	.L213
 3582              		.loc 1 1459 0 discriminator 4
 3583 0130 FB6A     		ldr	r3, [r7, #44]
 3584 0132 5A1C     		adds	r2, r3, #1
 3585 0134 FA62     		str	r2, [r7, #44]
 3586 0136 BA6A     		ldr	r2, [r7, #40]
 3587 0138 D2B2     		uxtb	r2, r2
 3588 013a 1A70     		strb	r2, [r3]
 3589 013c FB6A     		ldr	r3, [r7, #44]
 3590 013e 7B61     		str	r3, [r7, #20]
 3591              	.LBE41:
 3592              	.LBB42:
1460:../../../SystemView/SEGGER/SEGGER_SYSVIEW.c ****   ENCODE_U32(pPayload, Para5);
 3593              		.loc 1 1460 0 is_stmt 1 discriminator 4
 3594 0140 7B69     		ldr	r3, [r7, #20]
 3595 0142 7B62     		str	r3, [r7, #36]
 3596 0144 3B6E     		ldr	r3, [r7, #96]
 3597 0146 3B62     		str	r3, [r7, #32]
 3598 0148 0BE0     		b	.L214
 3599              	.L215:
 3600              		.loc 1 1460 0 is_stmt 0 discriminator 3
 3601 014a 7B6A     		ldr	r3, [r7, #36]
 3602 014c 5A1C     		adds	r2, r3, #1
 3603 014e 7A62     		str	r2, [r7, #36]
 3604 0150 3A6A     		ldr	r2, [r7, #32]
 3605 0152 D2B2     		uxtb	r2, r2
 3606 0154 62F07F02 		orn	r2, r2, #127
 3607 0158 D2B2     		uxtb	r2, r2
 3608 015a 1A70     		strb	r2, [r3]
 3609 015c 3B6A     		ldr	r3, [r7, #32]
 3610 015e DB09     		lsrs	r3, r3, #7
 3611 0160 3B62     		str	r3, [r7, #32]
 3612              	.L214:
 3613              		.loc 1 1460 0 discriminator 1
 3614 0162 3B6A     		ldr	r3, [r7, #32]
 3615 0164 7F2B     		cmp	r3, #127
 3616 0166 F0D8     		bhi	.L215
 3617              		.loc 1 1460 0 discriminator 4
ARM GAS  /tmp/ccJhHFds.s 			page 90


 3618 0168 7B6A     		ldr	r3, [r7, #36]
 3619 016a 5A1C     		adds	r2, r3, #1
 3620 016c 7A62     		str	r2, [r7, #36]
 3621 016e 3A6A     		ldr	r2, [r7, #32]
 3622 0170 D2B2     		uxtb	r2, r2
 3623 0172 1A70     		strb	r2, [r3]
 3624 0174 7B6A     		ldr	r3, [r7, #36]
 3625 0176 7B61     		str	r3, [r7, #20]
 3626              	.LBE42:
1461:../../../SystemView/SEGGER/SEGGER_SYSVIEW.c ****   _SendPacket(pPayloadStart, pPayload, EventID);
 3627              		.loc 1 1461 0 is_stmt 1 discriminator 4
 3628 0178 B869     		ldr	r0, [r7, #24]
 3629 017a 7969     		ldr	r1, [r7, #20]
 3630 017c FA68     		ldr	r2, [r7, #12]
 3631 017e FFF7FEFF 		bl	_SendPacket
1462:../../../SystemView/SEGGER/SEGGER_SYSVIEW.c ****   RECORD_END();
 3632              		.loc 1 1462 0 discriminator 4
 3633 0182 FB69     		ldr	r3, [r7, #28]
 3634              	@ 1462 "../../../SystemView/SEGGER/SEGGER_SYSVIEW.c" 1
 3635 0184 83F31188 		msr   basepri, r3  
 3636              		
 3637              	@ 0 "" 2
 3638              		.thumb
 3639              	.LBE36:
1463:../../../SystemView/SEGGER/SEGGER_SYSVIEW.c **** }
 3640              		.loc 1 1463 0 discriminator 4
 3641 0188 5037     		adds	r7, r7, #80
 3642              	.LCFI102:
 3643              		.cfi_def_cfa_offset 8
 3644 018a BD46     		mov	sp, r7
 3645              	.LCFI103:
 3646              		.cfi_def_cfa_register 13
 3647              		@ sp needed
 3648 018c 80BD     		pop	{r7, pc}
 3649              	.L217:
 3650 018e 00BF     		.align	2
 3651              	.L216:
 3652 0190 00000000 		.word	_aPacket
 3653              		.cfi_endproc
 3654              	.LFE19:
 3656              		.section	.text.SEGGER_SYSVIEW_RecordU32x7,"ax",%progbits
 3657              		.align	2
 3658              		.global	SEGGER_SYSVIEW_RecordU32x7
 3659              		.thumb
 3660              		.thumb_func
 3662              	SEGGER_SYSVIEW_RecordU32x7:
 3663              	.LFB20:
1464:../../../SystemView/SEGGER/SEGGER_SYSVIEW.c **** 
1465:../../../SystemView/SEGGER/SEGGER_SYSVIEW.c **** /*********************************************************************
1466:../../../SystemView/SEGGER/SEGGER_SYSVIEW.c **** *
1467:../../../SystemView/SEGGER/SEGGER_SYSVIEW.c **** *       SEGGER_SYSVIEW_RecordU32x7()
1468:../../../SystemView/SEGGER/SEGGER_SYSVIEW.c **** *
1469:../../../SystemView/SEGGER/SEGGER_SYSVIEW.c **** *  Function description
1470:../../../SystemView/SEGGER/SEGGER_SYSVIEW.c **** *    Formats and sends a SystemView packet containing 7 U32 parameter payload.
1471:../../../SystemView/SEGGER/SEGGER_SYSVIEW.c **** *
1472:../../../SystemView/SEGGER/SEGGER_SYSVIEW.c **** *  Parameters
1473:../../../SystemView/SEGGER/SEGGER_SYSVIEW.c **** *    EventID - SystemView event ID.
ARM GAS  /tmp/ccJhHFds.s 			page 91


1474:../../../SystemView/SEGGER/SEGGER_SYSVIEW.c **** *    Para0   - The 32-bit parameter encoded to SystemView packet payload.
1475:../../../SystemView/SEGGER/SEGGER_SYSVIEW.c **** *    Para1   - The 32-bit parameter encoded to SystemView packet payload.
1476:../../../SystemView/SEGGER/SEGGER_SYSVIEW.c **** *    Para2   - The 32-bit parameter encoded to SystemView packet payload.
1477:../../../SystemView/SEGGER/SEGGER_SYSVIEW.c **** *    Para3   - The 32-bit parameter encoded to SystemView packet payload.
1478:../../../SystemView/SEGGER/SEGGER_SYSVIEW.c **** *    Para4   - The 32-bit parameter encoded to SystemView packet payload.
1479:../../../SystemView/SEGGER/SEGGER_SYSVIEW.c **** *    Para5   - The 32-bit parameter encoded to SystemView packet payload.
1480:../../../SystemView/SEGGER/SEGGER_SYSVIEW.c **** *    Para6   - The 32-bit parameter encoded to SystemView packet payload.
1481:../../../SystemView/SEGGER/SEGGER_SYSVIEW.c **** */
1482:../../../SystemView/SEGGER/SEGGER_SYSVIEW.c **** void SEGGER_SYSVIEW_RecordU32x7(unsigned int EventID, U32 Para0, U32 Para1, U32 Para2, U32 Para3, U
 3664              		.loc 1 1482 0
 3665              		.cfi_startproc
 3666              		@ args = 16, pretend = 0, frame = 88
 3667              		@ frame_needed = 1, uses_anonymous_args = 0
 3668 0000 80B5     		push	{r7, lr}
 3669              	.LCFI104:
 3670              		.cfi_def_cfa_offset 8
 3671              		.cfi_offset 7, -8
 3672              		.cfi_offset 14, -4
 3673 0002 96B0     		sub	sp, sp, #88
 3674              	.LCFI105:
 3675              		.cfi_def_cfa_offset 96
 3676 0004 00AF     		add	r7, sp, #0
 3677              	.LCFI106:
 3678              		.cfi_def_cfa_register 7
 3679 0006 F860     		str	r0, [r7, #12]
 3680 0008 B960     		str	r1, [r7, #8]
 3681 000a 7A60     		str	r2, [r7, #4]
 3682 000c 3B60     		str	r3, [r7]
 3683              	.LBB43:
1483:../../../SystemView/SEGGER/SEGGER_SYSVIEW.c ****   U8* pPayload;
1484:../../../SystemView/SEGGER/SEGGER_SYSVIEW.c ****   U8* pPayloadStart;
1485:../../../SystemView/SEGGER/SEGGER_SYSVIEW.c ****   RECORD_START(SEGGER_SYSVIEW_INFO_SIZE + 7 * SEGGER_SYSVIEW_QUANTA_U32);
 3684              		.loc 1 1485 0
 3685              	@ 1485 "../../../SystemView/SEGGER/SEGGER_SYSVIEW.c" 1
 3686 000e EFF31183 		mrs   r3, basepri  
 3687 0012 4FF02001 		mov   r1, #32       
 3688 0016 81F31188 		msr   basepri, r1  
 3689              		
 3690              	@ 0 "" 2
 3691              		.thumb
 3692 001a FB61     		str	r3, [r7, #28]
 3693 001c 6A48     		ldr	r0, .L233
 3694 001e FFF7FEFF 		bl	_PreparePacket
 3695 0022 B861     		str	r0, [r7, #24]
1486:../../../SystemView/SEGGER/SEGGER_SYSVIEW.c ****   //
1487:../../../SystemView/SEGGER/SEGGER_SYSVIEW.c ****   pPayload = pPayloadStart;
 3696              		.loc 1 1487 0
 3697 0024 BB69     		ldr	r3, [r7, #24]
 3698 0026 7B61     		str	r3, [r7, #20]
 3699              	.LBB44:
1488:../../../SystemView/SEGGER/SEGGER_SYSVIEW.c ****   ENCODE_U32(pPayload, Para0);
 3700              		.loc 1 1488 0
 3701 0028 7B69     		ldr	r3, [r7, #20]
 3702 002a 7B65     		str	r3, [r7, #84]
 3703 002c BB68     		ldr	r3, [r7, #8]
 3704 002e 3B65     		str	r3, [r7, #80]
 3705 0030 0BE0     		b	.L219
ARM GAS  /tmp/ccJhHFds.s 			page 92


 3706              	.L220:
 3707              		.loc 1 1488 0 is_stmt 0 discriminator 3
 3708 0032 7B6D     		ldr	r3, [r7, #84]
 3709 0034 5A1C     		adds	r2, r3, #1
 3710 0036 7A65     		str	r2, [r7, #84]
 3711 0038 3A6D     		ldr	r2, [r7, #80]
 3712 003a D2B2     		uxtb	r2, r2
 3713 003c 62F07F02 		orn	r2, r2, #127
 3714 0040 D2B2     		uxtb	r2, r2
 3715 0042 1A70     		strb	r2, [r3]
 3716 0044 3B6D     		ldr	r3, [r7, #80]
 3717 0046 DB09     		lsrs	r3, r3, #7
 3718 0048 3B65     		str	r3, [r7, #80]
 3719              	.L219:
 3720              		.loc 1 1488 0 discriminator 1
 3721 004a 3B6D     		ldr	r3, [r7, #80]
 3722 004c 7F2B     		cmp	r3, #127
 3723 004e F0D8     		bhi	.L220
 3724              		.loc 1 1488 0 discriminator 4
 3725 0050 7B6D     		ldr	r3, [r7, #84]
 3726 0052 5A1C     		adds	r2, r3, #1
 3727 0054 7A65     		str	r2, [r7, #84]
 3728 0056 3A6D     		ldr	r2, [r7, #80]
 3729 0058 D2B2     		uxtb	r2, r2
 3730 005a 1A70     		strb	r2, [r3]
 3731 005c 7B6D     		ldr	r3, [r7, #84]
 3732 005e 7B61     		str	r3, [r7, #20]
 3733              	.LBE44:
 3734              	.LBB45:
1489:../../../SystemView/SEGGER/SEGGER_SYSVIEW.c ****   ENCODE_U32(pPayload, Para1);
 3735              		.loc 1 1489 0 is_stmt 1 discriminator 4
 3736 0060 7B69     		ldr	r3, [r7, #20]
 3737 0062 FB64     		str	r3, [r7, #76]
 3738 0064 7B68     		ldr	r3, [r7, #4]
 3739 0066 BB64     		str	r3, [r7, #72]
 3740 0068 0BE0     		b	.L221
 3741              	.L222:
 3742              		.loc 1 1489 0 is_stmt 0 discriminator 3
 3743 006a FB6C     		ldr	r3, [r7, #76]
 3744 006c 5A1C     		adds	r2, r3, #1
 3745 006e FA64     		str	r2, [r7, #76]
 3746 0070 BA6C     		ldr	r2, [r7, #72]
 3747 0072 D2B2     		uxtb	r2, r2
 3748 0074 62F07F02 		orn	r2, r2, #127
 3749 0078 D2B2     		uxtb	r2, r2
 3750 007a 1A70     		strb	r2, [r3]
 3751 007c BB6C     		ldr	r3, [r7, #72]
 3752 007e DB09     		lsrs	r3, r3, #7
 3753 0080 BB64     		str	r3, [r7, #72]
 3754              	.L221:
 3755              		.loc 1 1489 0 discriminator 1
 3756 0082 BB6C     		ldr	r3, [r7, #72]
 3757 0084 7F2B     		cmp	r3, #127
 3758 0086 F0D8     		bhi	.L222
 3759              		.loc 1 1489 0 discriminator 4
 3760 0088 FB6C     		ldr	r3, [r7, #76]
 3761 008a 5A1C     		adds	r2, r3, #1
ARM GAS  /tmp/ccJhHFds.s 			page 93


 3762 008c FA64     		str	r2, [r7, #76]
 3763 008e BA6C     		ldr	r2, [r7, #72]
 3764 0090 D2B2     		uxtb	r2, r2
 3765 0092 1A70     		strb	r2, [r3]
 3766 0094 FB6C     		ldr	r3, [r7, #76]
 3767 0096 7B61     		str	r3, [r7, #20]
 3768              	.LBE45:
 3769              	.LBB46:
1490:../../../SystemView/SEGGER/SEGGER_SYSVIEW.c ****   ENCODE_U32(pPayload, Para2);
 3770              		.loc 1 1490 0 is_stmt 1 discriminator 4
 3771 0098 7B69     		ldr	r3, [r7, #20]
 3772 009a 7B64     		str	r3, [r7, #68]
 3773 009c 3B68     		ldr	r3, [r7]
 3774 009e 3B64     		str	r3, [r7, #64]
 3775 00a0 0BE0     		b	.L223
 3776              	.L224:
 3777              		.loc 1 1490 0 is_stmt 0 discriminator 3
 3778 00a2 7B6C     		ldr	r3, [r7, #68]
 3779 00a4 5A1C     		adds	r2, r3, #1
 3780 00a6 7A64     		str	r2, [r7, #68]
 3781 00a8 3A6C     		ldr	r2, [r7, #64]
 3782 00aa D2B2     		uxtb	r2, r2
 3783 00ac 62F07F02 		orn	r2, r2, #127
 3784 00b0 D2B2     		uxtb	r2, r2
 3785 00b2 1A70     		strb	r2, [r3]
 3786 00b4 3B6C     		ldr	r3, [r7, #64]
 3787 00b6 DB09     		lsrs	r3, r3, #7
 3788 00b8 3B64     		str	r3, [r7, #64]
 3789              	.L223:
 3790              		.loc 1 1490 0 discriminator 1
 3791 00ba 3B6C     		ldr	r3, [r7, #64]
 3792 00bc 7F2B     		cmp	r3, #127
 3793 00be F0D8     		bhi	.L224
 3794              		.loc 1 1490 0 discriminator 4
 3795 00c0 7B6C     		ldr	r3, [r7, #68]
 3796 00c2 5A1C     		adds	r2, r3, #1
 3797 00c4 7A64     		str	r2, [r7, #68]
 3798 00c6 3A6C     		ldr	r2, [r7, #64]
 3799 00c8 D2B2     		uxtb	r2, r2
 3800 00ca 1A70     		strb	r2, [r3]
 3801 00cc 7B6C     		ldr	r3, [r7, #68]
 3802 00ce 7B61     		str	r3, [r7, #20]
 3803              	.LBE46:
 3804              	.LBB47:
1491:../../../SystemView/SEGGER/SEGGER_SYSVIEW.c ****   ENCODE_U32(pPayload, Para3);
 3805              		.loc 1 1491 0 is_stmt 1 discriminator 4
 3806 00d0 7B69     		ldr	r3, [r7, #20]
 3807 00d2 FB63     		str	r3, [r7, #60]
 3808 00d4 3B6E     		ldr	r3, [r7, #96]
 3809 00d6 BB63     		str	r3, [r7, #56]
 3810 00d8 0BE0     		b	.L225
 3811              	.L226:
 3812              		.loc 1 1491 0 is_stmt 0 discriminator 3
 3813 00da FB6B     		ldr	r3, [r7, #60]
 3814 00dc 5A1C     		adds	r2, r3, #1
 3815 00de FA63     		str	r2, [r7, #60]
 3816 00e0 BA6B     		ldr	r2, [r7, #56]
ARM GAS  /tmp/ccJhHFds.s 			page 94


 3817 00e2 D2B2     		uxtb	r2, r2
 3818 00e4 62F07F02 		orn	r2, r2, #127
 3819 00e8 D2B2     		uxtb	r2, r2
 3820 00ea 1A70     		strb	r2, [r3]
 3821 00ec BB6B     		ldr	r3, [r7, #56]
 3822 00ee DB09     		lsrs	r3, r3, #7
 3823 00f0 BB63     		str	r3, [r7, #56]
 3824              	.L225:
 3825              		.loc 1 1491 0 discriminator 1
 3826 00f2 BB6B     		ldr	r3, [r7, #56]
 3827 00f4 7F2B     		cmp	r3, #127
 3828 00f6 F0D8     		bhi	.L226
 3829              		.loc 1 1491 0 discriminator 4
 3830 00f8 FB6B     		ldr	r3, [r7, #60]
 3831 00fa 5A1C     		adds	r2, r3, #1
 3832 00fc FA63     		str	r2, [r7, #60]
 3833 00fe BA6B     		ldr	r2, [r7, #56]
 3834 0100 D2B2     		uxtb	r2, r2
 3835 0102 1A70     		strb	r2, [r3]
 3836 0104 FB6B     		ldr	r3, [r7, #60]
 3837 0106 7B61     		str	r3, [r7, #20]
 3838              	.LBE47:
 3839              	.LBB48:
1492:../../../SystemView/SEGGER/SEGGER_SYSVIEW.c ****   ENCODE_U32(pPayload, Para4);
 3840              		.loc 1 1492 0 is_stmt 1 discriminator 4
 3841 0108 7B69     		ldr	r3, [r7, #20]
 3842 010a 7B63     		str	r3, [r7, #52]
 3843 010c 7B6E     		ldr	r3, [r7, #100]
 3844 010e 3B63     		str	r3, [r7, #48]
 3845 0110 0BE0     		b	.L227
 3846              	.L228:
 3847              		.loc 1 1492 0 is_stmt 0 discriminator 3
 3848 0112 7B6B     		ldr	r3, [r7, #52]
 3849 0114 5A1C     		adds	r2, r3, #1
 3850 0116 7A63     		str	r2, [r7, #52]
 3851 0118 3A6B     		ldr	r2, [r7, #48]
 3852 011a D2B2     		uxtb	r2, r2
 3853 011c 62F07F02 		orn	r2, r2, #127
 3854 0120 D2B2     		uxtb	r2, r2
 3855 0122 1A70     		strb	r2, [r3]
 3856 0124 3B6B     		ldr	r3, [r7, #48]
 3857 0126 DB09     		lsrs	r3, r3, #7
 3858 0128 3B63     		str	r3, [r7, #48]
 3859              	.L227:
 3860              		.loc 1 1492 0 discriminator 1
 3861 012a 3B6B     		ldr	r3, [r7, #48]
 3862 012c 7F2B     		cmp	r3, #127
 3863 012e F0D8     		bhi	.L228
 3864              		.loc 1 1492 0 discriminator 4
 3865 0130 7B6B     		ldr	r3, [r7, #52]
 3866 0132 5A1C     		adds	r2, r3, #1
 3867 0134 7A63     		str	r2, [r7, #52]
 3868 0136 3A6B     		ldr	r2, [r7, #48]
 3869 0138 D2B2     		uxtb	r2, r2
 3870 013a 1A70     		strb	r2, [r3]
 3871 013c 7B6B     		ldr	r3, [r7, #52]
 3872 013e 7B61     		str	r3, [r7, #20]
ARM GAS  /tmp/ccJhHFds.s 			page 95


 3873              	.LBE48:
 3874              	.LBB49:
1493:../../../SystemView/SEGGER/SEGGER_SYSVIEW.c ****   ENCODE_U32(pPayload, Para5);
 3875              		.loc 1 1493 0 is_stmt 1 discriminator 4
 3876 0140 7B69     		ldr	r3, [r7, #20]
 3877 0142 FB62     		str	r3, [r7, #44]
 3878 0144 BB6E     		ldr	r3, [r7, #104]
 3879 0146 BB62     		str	r3, [r7, #40]
 3880 0148 0BE0     		b	.L229
 3881              	.L230:
 3882              		.loc 1 1493 0 is_stmt 0 discriminator 3
 3883 014a FB6A     		ldr	r3, [r7, #44]
 3884 014c 5A1C     		adds	r2, r3, #1
 3885 014e FA62     		str	r2, [r7, #44]
 3886 0150 BA6A     		ldr	r2, [r7, #40]
 3887 0152 D2B2     		uxtb	r2, r2
 3888 0154 62F07F02 		orn	r2, r2, #127
 3889 0158 D2B2     		uxtb	r2, r2
 3890 015a 1A70     		strb	r2, [r3]
 3891 015c BB6A     		ldr	r3, [r7, #40]
 3892 015e DB09     		lsrs	r3, r3, #7
 3893 0160 BB62     		str	r3, [r7, #40]
 3894              	.L229:
 3895              		.loc 1 1493 0 discriminator 1
 3896 0162 BB6A     		ldr	r3, [r7, #40]
 3897 0164 7F2B     		cmp	r3, #127
 3898 0166 F0D8     		bhi	.L230
 3899              		.loc 1 1493 0 discriminator 4
 3900 0168 FB6A     		ldr	r3, [r7, #44]
 3901 016a 5A1C     		adds	r2, r3, #1
 3902 016c FA62     		str	r2, [r7, #44]
 3903 016e BA6A     		ldr	r2, [r7, #40]
 3904 0170 D2B2     		uxtb	r2, r2
 3905 0172 1A70     		strb	r2, [r3]
 3906 0174 FB6A     		ldr	r3, [r7, #44]
 3907 0176 7B61     		str	r3, [r7, #20]
 3908              	.LBE49:
 3909              	.LBB50:
1494:../../../SystemView/SEGGER/SEGGER_SYSVIEW.c ****   ENCODE_U32(pPayload, Para6);
 3910              		.loc 1 1494 0 is_stmt 1 discriminator 4
 3911 0178 7B69     		ldr	r3, [r7, #20]
 3912 017a 7B62     		str	r3, [r7, #36]
 3913 017c FB6E     		ldr	r3, [r7, #108]
 3914 017e 3B62     		str	r3, [r7, #32]
 3915 0180 0BE0     		b	.L231
 3916              	.L232:
 3917              		.loc 1 1494 0 is_stmt 0 discriminator 3
 3918 0182 7B6A     		ldr	r3, [r7, #36]
 3919 0184 5A1C     		adds	r2, r3, #1
 3920 0186 7A62     		str	r2, [r7, #36]
 3921 0188 3A6A     		ldr	r2, [r7, #32]
 3922 018a D2B2     		uxtb	r2, r2
 3923 018c 62F07F02 		orn	r2, r2, #127
 3924 0190 D2B2     		uxtb	r2, r2
 3925 0192 1A70     		strb	r2, [r3]
 3926 0194 3B6A     		ldr	r3, [r7, #32]
 3927 0196 DB09     		lsrs	r3, r3, #7
ARM GAS  /tmp/ccJhHFds.s 			page 96


 3928 0198 3B62     		str	r3, [r7, #32]
 3929              	.L231:
 3930              		.loc 1 1494 0 discriminator 1
 3931 019a 3B6A     		ldr	r3, [r7, #32]
 3932 019c 7F2B     		cmp	r3, #127
 3933 019e F0D8     		bhi	.L232
 3934              		.loc 1 1494 0 discriminator 4
 3935 01a0 7B6A     		ldr	r3, [r7, #36]
 3936 01a2 5A1C     		adds	r2, r3, #1
 3937 01a4 7A62     		str	r2, [r7, #36]
 3938 01a6 3A6A     		ldr	r2, [r7, #32]
 3939 01a8 D2B2     		uxtb	r2, r2
 3940 01aa 1A70     		strb	r2, [r3]
 3941 01ac 7B6A     		ldr	r3, [r7, #36]
 3942 01ae 7B61     		str	r3, [r7, #20]
 3943              	.LBE50:
1495:../../../SystemView/SEGGER/SEGGER_SYSVIEW.c ****   _SendPacket(pPayloadStart, pPayload, EventID);
 3944              		.loc 1 1495 0 is_stmt 1 discriminator 4
 3945 01b0 B869     		ldr	r0, [r7, #24]
 3946 01b2 7969     		ldr	r1, [r7, #20]
 3947 01b4 FA68     		ldr	r2, [r7, #12]
 3948 01b6 FFF7FEFF 		bl	_SendPacket
1496:../../../SystemView/SEGGER/SEGGER_SYSVIEW.c ****   RECORD_END();
 3949              		.loc 1 1496 0 discriminator 4
 3950 01ba FB69     		ldr	r3, [r7, #28]
 3951              	@ 1496 "../../../SystemView/SEGGER/SEGGER_SYSVIEW.c" 1
 3952 01bc 83F31188 		msr   basepri, r3  
 3953              		
 3954              	@ 0 "" 2
 3955              		.thumb
 3956              	.LBE43:
1497:../../../SystemView/SEGGER/SEGGER_SYSVIEW.c **** }
 3957              		.loc 1 1497 0 discriminator 4
 3958 01c0 5837     		adds	r7, r7, #88
 3959              	.LCFI107:
 3960              		.cfi_def_cfa_offset 8
 3961 01c2 BD46     		mov	sp, r7
 3962              	.LCFI108:
 3963              		.cfi_def_cfa_register 13
 3964              		@ sp needed
 3965 01c4 80BD     		pop	{r7, pc}
 3966              	.L234:
 3967 01c6 00BF     		.align	2
 3968              	.L233:
 3969 01c8 00000000 		.word	_aPacket
 3970              		.cfi_endproc
 3971              	.LFE20:
 3973              		.section	.text.SEGGER_SYSVIEW_RecordU32x8,"ax",%progbits
 3974              		.align	2
 3975              		.global	SEGGER_SYSVIEW_RecordU32x8
 3976              		.thumb
 3977              		.thumb_func
 3979              	SEGGER_SYSVIEW_RecordU32x8:
 3980              	.LFB21:
1498:../../../SystemView/SEGGER/SEGGER_SYSVIEW.c **** 
1499:../../../SystemView/SEGGER/SEGGER_SYSVIEW.c **** /*********************************************************************
1500:../../../SystemView/SEGGER/SEGGER_SYSVIEW.c **** *
ARM GAS  /tmp/ccJhHFds.s 			page 97


1501:../../../SystemView/SEGGER/SEGGER_SYSVIEW.c **** *       SEGGER_SYSVIEW_RecordU32x8()
1502:../../../SystemView/SEGGER/SEGGER_SYSVIEW.c **** *
1503:../../../SystemView/SEGGER/SEGGER_SYSVIEW.c **** *  Function description
1504:../../../SystemView/SEGGER/SEGGER_SYSVIEW.c **** *    Formats and sends a SystemView packet containing 8 U32 parameter payload.
1505:../../../SystemView/SEGGER/SEGGER_SYSVIEW.c **** *
1506:../../../SystemView/SEGGER/SEGGER_SYSVIEW.c **** *  Parameters
1507:../../../SystemView/SEGGER/SEGGER_SYSVIEW.c **** *    EventID - SystemView event ID.
1508:../../../SystemView/SEGGER/SEGGER_SYSVIEW.c **** *    Para0   - The 32-bit parameter encoded to SystemView packet payload.
1509:../../../SystemView/SEGGER/SEGGER_SYSVIEW.c **** *    Para1   - The 32-bit parameter encoded to SystemView packet payload.
1510:../../../SystemView/SEGGER/SEGGER_SYSVIEW.c **** *    Para2   - The 32-bit parameter encoded to SystemView packet payload.
1511:../../../SystemView/SEGGER/SEGGER_SYSVIEW.c **** *    Para3   - The 32-bit parameter encoded to SystemView packet payload.
1512:../../../SystemView/SEGGER/SEGGER_SYSVIEW.c **** *    Para4   - The 32-bit parameter encoded to SystemView packet payload.
1513:../../../SystemView/SEGGER/SEGGER_SYSVIEW.c **** *    Para5   - The 32-bit parameter encoded to SystemView packet payload.
1514:../../../SystemView/SEGGER/SEGGER_SYSVIEW.c **** *    Para6   - The 32-bit parameter encoded to SystemView packet payload.
1515:../../../SystemView/SEGGER/SEGGER_SYSVIEW.c **** *    Para7   - The 32-bit parameter encoded to SystemView packet payload.
1516:../../../SystemView/SEGGER/SEGGER_SYSVIEW.c **** */
1517:../../../SystemView/SEGGER/SEGGER_SYSVIEW.c **** void SEGGER_SYSVIEW_RecordU32x8(unsigned int EventID, U32 Para0, U32 Para1, U32 Para2, U32 Para3, U
 3981              		.loc 1 1517 0
 3982              		.cfi_startproc
 3983              		@ args = 20, pretend = 0, frame = 96
 3984              		@ frame_needed = 1, uses_anonymous_args = 0
 3985 0000 80B5     		push	{r7, lr}
 3986              	.LCFI109:
 3987              		.cfi_def_cfa_offset 8
 3988              		.cfi_offset 7, -8
 3989              		.cfi_offset 14, -4
 3990 0002 98B0     		sub	sp, sp, #96
 3991              	.LCFI110:
 3992              		.cfi_def_cfa_offset 104
 3993 0004 00AF     		add	r7, sp, #0
 3994              	.LCFI111:
 3995              		.cfi_def_cfa_register 7
 3996 0006 F860     		str	r0, [r7, #12]
 3997 0008 B960     		str	r1, [r7, #8]
 3998 000a 7A60     		str	r2, [r7, #4]
 3999 000c 3B60     		str	r3, [r7]
 4000              	.LBB51:
1518:../../../SystemView/SEGGER/SEGGER_SYSVIEW.c ****   U8* pPayload;
1519:../../../SystemView/SEGGER/SEGGER_SYSVIEW.c ****   U8* pPayloadStart;
1520:../../../SystemView/SEGGER/SEGGER_SYSVIEW.c ****   RECORD_START(SEGGER_SYSVIEW_INFO_SIZE + 8 * SEGGER_SYSVIEW_QUANTA_U32);
 4001              		.loc 1 1520 0
 4002              	@ 1520 "../../../SystemView/SEGGER/SEGGER_SYSVIEW.c" 1
 4003 000e EFF31183 		mrs   r3, basepri  
 4004 0012 4FF02001 		mov   r1, #32       
 4005 0016 81F31188 		msr   basepri, r1  
 4006              		
 4007              	@ 0 "" 2
 4008              		.thumb
 4009 001a FB61     		str	r3, [r7, #28]
 4010 001c 7848     		ldr	r0, .L252
 4011 001e FFF7FEFF 		bl	_PreparePacket
 4012 0022 B861     		str	r0, [r7, #24]
1521:../../../SystemView/SEGGER/SEGGER_SYSVIEW.c ****   //
1522:../../../SystemView/SEGGER/SEGGER_SYSVIEW.c ****   pPayload = pPayloadStart;
 4013              		.loc 1 1522 0
 4014 0024 BB69     		ldr	r3, [r7, #24]
 4015 0026 7B61     		str	r3, [r7, #20]
ARM GAS  /tmp/ccJhHFds.s 			page 98


 4016              	.LBB52:
1523:../../../SystemView/SEGGER/SEGGER_SYSVIEW.c ****   ENCODE_U32(pPayload, Para0);
 4017              		.loc 1 1523 0
 4018 0028 7B69     		ldr	r3, [r7, #20]
 4019 002a FB65     		str	r3, [r7, #92]
 4020 002c BB68     		ldr	r3, [r7, #8]
 4021 002e BB65     		str	r3, [r7, #88]
 4022 0030 0BE0     		b	.L236
 4023              	.L237:
 4024              		.loc 1 1523 0 is_stmt 0 discriminator 3
 4025 0032 FB6D     		ldr	r3, [r7, #92]
 4026 0034 5A1C     		adds	r2, r3, #1
 4027 0036 FA65     		str	r2, [r7, #92]
 4028 0038 BA6D     		ldr	r2, [r7, #88]
 4029 003a D2B2     		uxtb	r2, r2
 4030 003c 62F07F02 		orn	r2, r2, #127
 4031 0040 D2B2     		uxtb	r2, r2
 4032 0042 1A70     		strb	r2, [r3]
 4033 0044 BB6D     		ldr	r3, [r7, #88]
 4034 0046 DB09     		lsrs	r3, r3, #7
 4035 0048 BB65     		str	r3, [r7, #88]
 4036              	.L236:
 4037              		.loc 1 1523 0 discriminator 1
 4038 004a BB6D     		ldr	r3, [r7, #88]
 4039 004c 7F2B     		cmp	r3, #127
 4040 004e F0D8     		bhi	.L237
 4041              		.loc 1 1523 0 discriminator 4
 4042 0050 FB6D     		ldr	r3, [r7, #92]
 4043 0052 5A1C     		adds	r2, r3, #1
 4044 0054 FA65     		str	r2, [r7, #92]
 4045 0056 BA6D     		ldr	r2, [r7, #88]
 4046 0058 D2B2     		uxtb	r2, r2
 4047 005a 1A70     		strb	r2, [r3]
 4048 005c FB6D     		ldr	r3, [r7, #92]
 4049 005e 7B61     		str	r3, [r7, #20]
 4050              	.LBE52:
 4051              	.LBB53:
1524:../../../SystemView/SEGGER/SEGGER_SYSVIEW.c ****   ENCODE_U32(pPayload, Para1);
 4052              		.loc 1 1524 0 is_stmt 1 discriminator 4
 4053 0060 7B69     		ldr	r3, [r7, #20]
 4054 0062 7B65     		str	r3, [r7, #84]
 4055 0064 7B68     		ldr	r3, [r7, #4]
 4056 0066 3B65     		str	r3, [r7, #80]
 4057 0068 0BE0     		b	.L238
 4058              	.L239:
 4059              		.loc 1 1524 0 is_stmt 0 discriminator 3
 4060 006a 7B6D     		ldr	r3, [r7, #84]
 4061 006c 5A1C     		adds	r2, r3, #1
 4062 006e 7A65     		str	r2, [r7, #84]
 4063 0070 3A6D     		ldr	r2, [r7, #80]
 4064 0072 D2B2     		uxtb	r2, r2
 4065 0074 62F07F02 		orn	r2, r2, #127
 4066 0078 D2B2     		uxtb	r2, r2
 4067 007a 1A70     		strb	r2, [r3]
 4068 007c 3B6D     		ldr	r3, [r7, #80]
 4069 007e DB09     		lsrs	r3, r3, #7
 4070 0080 3B65     		str	r3, [r7, #80]
ARM GAS  /tmp/ccJhHFds.s 			page 99


 4071              	.L238:
 4072              		.loc 1 1524 0 discriminator 1
 4073 0082 3B6D     		ldr	r3, [r7, #80]
 4074 0084 7F2B     		cmp	r3, #127
 4075 0086 F0D8     		bhi	.L239
 4076              		.loc 1 1524 0 discriminator 4
 4077 0088 7B6D     		ldr	r3, [r7, #84]
 4078 008a 5A1C     		adds	r2, r3, #1
 4079 008c 7A65     		str	r2, [r7, #84]
 4080 008e 3A6D     		ldr	r2, [r7, #80]
 4081 0090 D2B2     		uxtb	r2, r2
 4082 0092 1A70     		strb	r2, [r3]
 4083 0094 7B6D     		ldr	r3, [r7, #84]
 4084 0096 7B61     		str	r3, [r7, #20]
 4085              	.LBE53:
 4086              	.LBB54:
1525:../../../SystemView/SEGGER/SEGGER_SYSVIEW.c ****   ENCODE_U32(pPayload, Para2);
 4087              		.loc 1 1525 0 is_stmt 1 discriminator 4
 4088 0098 7B69     		ldr	r3, [r7, #20]
 4089 009a FB64     		str	r3, [r7, #76]
 4090 009c 3B68     		ldr	r3, [r7]
 4091 009e BB64     		str	r3, [r7, #72]
 4092 00a0 0BE0     		b	.L240
 4093              	.L241:
 4094              		.loc 1 1525 0 is_stmt 0 discriminator 3
 4095 00a2 FB6C     		ldr	r3, [r7, #76]
 4096 00a4 5A1C     		adds	r2, r3, #1
 4097 00a6 FA64     		str	r2, [r7, #76]
 4098 00a8 BA6C     		ldr	r2, [r7, #72]
 4099 00aa D2B2     		uxtb	r2, r2
 4100 00ac 62F07F02 		orn	r2, r2, #127
 4101 00b0 D2B2     		uxtb	r2, r2
 4102 00b2 1A70     		strb	r2, [r3]
 4103 00b4 BB6C     		ldr	r3, [r7, #72]
 4104 00b6 DB09     		lsrs	r3, r3, #7
 4105 00b8 BB64     		str	r3, [r7, #72]
 4106              	.L240:
 4107              		.loc 1 1525 0 discriminator 1
 4108 00ba BB6C     		ldr	r3, [r7, #72]
 4109 00bc 7F2B     		cmp	r3, #127
 4110 00be F0D8     		bhi	.L241
 4111              		.loc 1 1525 0 discriminator 4
 4112 00c0 FB6C     		ldr	r3, [r7, #76]
 4113 00c2 5A1C     		adds	r2, r3, #1
 4114 00c4 FA64     		str	r2, [r7, #76]
 4115 00c6 BA6C     		ldr	r2, [r7, #72]
 4116 00c8 D2B2     		uxtb	r2, r2
 4117 00ca 1A70     		strb	r2, [r3]
 4118 00cc FB6C     		ldr	r3, [r7, #76]
 4119 00ce 7B61     		str	r3, [r7, #20]
 4120              	.LBE54:
 4121              	.LBB55:
1526:../../../SystemView/SEGGER/SEGGER_SYSVIEW.c ****   ENCODE_U32(pPayload, Para3);
 4122              		.loc 1 1526 0 is_stmt 1 discriminator 4
 4123 00d0 7B69     		ldr	r3, [r7, #20]
 4124 00d2 7B64     		str	r3, [r7, #68]
 4125 00d4 BB6E     		ldr	r3, [r7, #104]
ARM GAS  /tmp/ccJhHFds.s 			page 100


 4126 00d6 3B64     		str	r3, [r7, #64]
 4127 00d8 0BE0     		b	.L242
 4128              	.L243:
 4129              		.loc 1 1526 0 is_stmt 0 discriminator 3
 4130 00da 7B6C     		ldr	r3, [r7, #68]
 4131 00dc 5A1C     		adds	r2, r3, #1
 4132 00de 7A64     		str	r2, [r7, #68]
 4133 00e0 3A6C     		ldr	r2, [r7, #64]
 4134 00e2 D2B2     		uxtb	r2, r2
 4135 00e4 62F07F02 		orn	r2, r2, #127
 4136 00e8 D2B2     		uxtb	r2, r2
 4137 00ea 1A70     		strb	r2, [r3]
 4138 00ec 3B6C     		ldr	r3, [r7, #64]
 4139 00ee DB09     		lsrs	r3, r3, #7
 4140 00f0 3B64     		str	r3, [r7, #64]
 4141              	.L242:
 4142              		.loc 1 1526 0 discriminator 1
 4143 00f2 3B6C     		ldr	r3, [r7, #64]
 4144 00f4 7F2B     		cmp	r3, #127
 4145 00f6 F0D8     		bhi	.L243
 4146              		.loc 1 1526 0 discriminator 4
 4147 00f8 7B6C     		ldr	r3, [r7, #68]
 4148 00fa 5A1C     		adds	r2, r3, #1
 4149 00fc 7A64     		str	r2, [r7, #68]
 4150 00fe 3A6C     		ldr	r2, [r7, #64]
 4151 0100 D2B2     		uxtb	r2, r2
 4152 0102 1A70     		strb	r2, [r3]
 4153 0104 7B6C     		ldr	r3, [r7, #68]
 4154 0106 7B61     		str	r3, [r7, #20]
 4155              	.LBE55:
 4156              	.LBB56:
1527:../../../SystemView/SEGGER/SEGGER_SYSVIEW.c ****   ENCODE_U32(pPayload, Para4);
 4157              		.loc 1 1527 0 is_stmt 1 discriminator 4
 4158 0108 7B69     		ldr	r3, [r7, #20]
 4159 010a FB63     		str	r3, [r7, #60]
 4160 010c FB6E     		ldr	r3, [r7, #108]
 4161 010e BB63     		str	r3, [r7, #56]
 4162 0110 0BE0     		b	.L244
 4163              	.L245:
 4164              		.loc 1 1527 0 is_stmt 0 discriminator 3
 4165 0112 FB6B     		ldr	r3, [r7, #60]
 4166 0114 5A1C     		adds	r2, r3, #1
 4167 0116 FA63     		str	r2, [r7, #60]
 4168 0118 BA6B     		ldr	r2, [r7, #56]
 4169 011a D2B2     		uxtb	r2, r2
 4170 011c 62F07F02 		orn	r2, r2, #127
 4171 0120 D2B2     		uxtb	r2, r2
 4172 0122 1A70     		strb	r2, [r3]
 4173 0124 BB6B     		ldr	r3, [r7, #56]
 4174 0126 DB09     		lsrs	r3, r3, #7
 4175 0128 BB63     		str	r3, [r7, #56]
 4176              	.L244:
 4177              		.loc 1 1527 0 discriminator 1
 4178 012a BB6B     		ldr	r3, [r7, #56]
 4179 012c 7F2B     		cmp	r3, #127
 4180 012e F0D8     		bhi	.L245
 4181              		.loc 1 1527 0 discriminator 4
ARM GAS  /tmp/ccJhHFds.s 			page 101


 4182 0130 FB6B     		ldr	r3, [r7, #60]
 4183 0132 5A1C     		adds	r2, r3, #1
 4184 0134 FA63     		str	r2, [r7, #60]
 4185 0136 BA6B     		ldr	r2, [r7, #56]
 4186 0138 D2B2     		uxtb	r2, r2
 4187 013a 1A70     		strb	r2, [r3]
 4188 013c FB6B     		ldr	r3, [r7, #60]
 4189 013e 7B61     		str	r3, [r7, #20]
 4190              	.LBE56:
 4191              	.LBB57:
1528:../../../SystemView/SEGGER/SEGGER_SYSVIEW.c ****   ENCODE_U32(pPayload, Para5);
 4192              		.loc 1 1528 0 is_stmt 1 discriminator 4
 4193 0140 7B69     		ldr	r3, [r7, #20]
 4194 0142 7B63     		str	r3, [r7, #52]
 4195 0144 3B6F     		ldr	r3, [r7, #112]
 4196 0146 3B63     		str	r3, [r7, #48]
 4197 0148 0BE0     		b	.L246
 4198              	.L247:
 4199              		.loc 1 1528 0 is_stmt 0 discriminator 3
 4200 014a 7B6B     		ldr	r3, [r7, #52]
 4201 014c 5A1C     		adds	r2, r3, #1
 4202 014e 7A63     		str	r2, [r7, #52]
 4203 0150 3A6B     		ldr	r2, [r7, #48]
 4204 0152 D2B2     		uxtb	r2, r2
 4205 0154 62F07F02 		orn	r2, r2, #127
 4206 0158 D2B2     		uxtb	r2, r2
 4207 015a 1A70     		strb	r2, [r3]
 4208 015c 3B6B     		ldr	r3, [r7, #48]
 4209 015e DB09     		lsrs	r3, r3, #7
 4210 0160 3B63     		str	r3, [r7, #48]
 4211              	.L246:
 4212              		.loc 1 1528 0 discriminator 1
 4213 0162 3B6B     		ldr	r3, [r7, #48]
 4214 0164 7F2B     		cmp	r3, #127
 4215 0166 F0D8     		bhi	.L247
 4216              		.loc 1 1528 0 discriminator 4
 4217 0168 7B6B     		ldr	r3, [r7, #52]
 4218 016a 5A1C     		adds	r2, r3, #1
 4219 016c 7A63     		str	r2, [r7, #52]
 4220 016e 3A6B     		ldr	r2, [r7, #48]
 4221 0170 D2B2     		uxtb	r2, r2
 4222 0172 1A70     		strb	r2, [r3]
 4223 0174 7B6B     		ldr	r3, [r7, #52]
 4224 0176 7B61     		str	r3, [r7, #20]
 4225              	.LBE57:
 4226              	.LBB58:
1529:../../../SystemView/SEGGER/SEGGER_SYSVIEW.c ****   ENCODE_U32(pPayload, Para6);
 4227              		.loc 1 1529 0 is_stmt 1 discriminator 4
 4228 0178 7B69     		ldr	r3, [r7, #20]
 4229 017a FB62     		str	r3, [r7, #44]
 4230 017c 7B6F     		ldr	r3, [r7, #116]
 4231 017e BB62     		str	r3, [r7, #40]
 4232 0180 0BE0     		b	.L248
 4233              	.L249:
 4234              		.loc 1 1529 0 is_stmt 0 discriminator 3
 4235 0182 FB6A     		ldr	r3, [r7, #44]
 4236 0184 5A1C     		adds	r2, r3, #1
ARM GAS  /tmp/ccJhHFds.s 			page 102


 4237 0186 FA62     		str	r2, [r7, #44]
 4238 0188 BA6A     		ldr	r2, [r7, #40]
 4239 018a D2B2     		uxtb	r2, r2
 4240 018c 62F07F02 		orn	r2, r2, #127
 4241 0190 D2B2     		uxtb	r2, r2
 4242 0192 1A70     		strb	r2, [r3]
 4243 0194 BB6A     		ldr	r3, [r7, #40]
 4244 0196 DB09     		lsrs	r3, r3, #7
 4245 0198 BB62     		str	r3, [r7, #40]
 4246              	.L248:
 4247              		.loc 1 1529 0 discriminator 1
 4248 019a BB6A     		ldr	r3, [r7, #40]
 4249 019c 7F2B     		cmp	r3, #127
 4250 019e F0D8     		bhi	.L249
 4251              		.loc 1 1529 0 discriminator 4
 4252 01a0 FB6A     		ldr	r3, [r7, #44]
 4253 01a2 5A1C     		adds	r2, r3, #1
 4254 01a4 FA62     		str	r2, [r7, #44]
 4255 01a6 BA6A     		ldr	r2, [r7, #40]
 4256 01a8 D2B2     		uxtb	r2, r2
 4257 01aa 1A70     		strb	r2, [r3]
 4258 01ac FB6A     		ldr	r3, [r7, #44]
 4259 01ae 7B61     		str	r3, [r7, #20]
 4260              	.LBE58:
 4261              	.LBB59:
1530:../../../SystemView/SEGGER/SEGGER_SYSVIEW.c ****   ENCODE_U32(pPayload, Para7);
 4262              		.loc 1 1530 0 is_stmt 1 discriminator 4
 4263 01b0 7B69     		ldr	r3, [r7, #20]
 4264 01b2 7B62     		str	r3, [r7, #36]
 4265 01b4 BB6F     		ldr	r3, [r7, #120]
 4266 01b6 3B62     		str	r3, [r7, #32]
 4267 01b8 0BE0     		b	.L250
 4268              	.L251:
 4269              		.loc 1 1530 0 is_stmt 0 discriminator 3
 4270 01ba 7B6A     		ldr	r3, [r7, #36]
 4271 01bc 5A1C     		adds	r2, r3, #1
 4272 01be 7A62     		str	r2, [r7, #36]
 4273 01c0 3A6A     		ldr	r2, [r7, #32]
 4274 01c2 D2B2     		uxtb	r2, r2
 4275 01c4 62F07F02 		orn	r2, r2, #127
 4276 01c8 D2B2     		uxtb	r2, r2
 4277 01ca 1A70     		strb	r2, [r3]
 4278 01cc 3B6A     		ldr	r3, [r7, #32]
 4279 01ce DB09     		lsrs	r3, r3, #7
 4280 01d0 3B62     		str	r3, [r7, #32]
 4281              	.L250:
 4282              		.loc 1 1530 0 discriminator 1
 4283 01d2 3B6A     		ldr	r3, [r7, #32]
 4284 01d4 7F2B     		cmp	r3, #127
 4285 01d6 F0D8     		bhi	.L251
 4286              		.loc 1 1530 0 discriminator 4
 4287 01d8 7B6A     		ldr	r3, [r7, #36]
 4288 01da 5A1C     		adds	r2, r3, #1
 4289 01dc 7A62     		str	r2, [r7, #36]
 4290 01de 3A6A     		ldr	r2, [r7, #32]
 4291 01e0 D2B2     		uxtb	r2, r2
 4292 01e2 1A70     		strb	r2, [r3]
ARM GAS  /tmp/ccJhHFds.s 			page 103


 4293 01e4 7B6A     		ldr	r3, [r7, #36]
 4294 01e6 7B61     		str	r3, [r7, #20]
 4295              	.LBE59:
1531:../../../SystemView/SEGGER/SEGGER_SYSVIEW.c ****   _SendPacket(pPayloadStart, pPayload, EventID);
 4296              		.loc 1 1531 0 is_stmt 1 discriminator 4
 4297 01e8 B869     		ldr	r0, [r7, #24]
 4298 01ea 7969     		ldr	r1, [r7, #20]
 4299 01ec FA68     		ldr	r2, [r7, #12]
 4300 01ee FFF7FEFF 		bl	_SendPacket
1532:../../../SystemView/SEGGER/SEGGER_SYSVIEW.c ****   RECORD_END();
 4301              		.loc 1 1532 0 discriminator 4
 4302 01f2 FB69     		ldr	r3, [r7, #28]
 4303              	@ 1532 "../../../SystemView/SEGGER/SEGGER_SYSVIEW.c" 1
 4304 01f4 83F31188 		msr   basepri, r3  
 4305              		
 4306              	@ 0 "" 2
 4307              		.thumb
 4308              	.LBE51:
1533:../../../SystemView/SEGGER/SEGGER_SYSVIEW.c **** }
 4309              		.loc 1 1533 0 discriminator 4
 4310 01f8 6037     		adds	r7, r7, #96
 4311              	.LCFI112:
 4312              		.cfi_def_cfa_offset 8
 4313 01fa BD46     		mov	sp, r7
 4314              	.LCFI113:
 4315              		.cfi_def_cfa_register 13
 4316              		@ sp needed
 4317 01fc 80BD     		pop	{r7, pc}
 4318              	.L253:
 4319 01fe 00BF     		.align	2
 4320              	.L252:
 4321 0200 00000000 		.word	_aPacket
 4322              		.cfi_endproc
 4323              	.LFE21:
 4325              		.section	.text.SEGGER_SYSVIEW_RecordU32x9,"ax",%progbits
 4326              		.align	2
 4327              		.global	SEGGER_SYSVIEW_RecordU32x9
 4328              		.thumb
 4329              		.thumb_func
 4331              	SEGGER_SYSVIEW_RecordU32x9:
 4332              	.LFB22:
1534:../../../SystemView/SEGGER/SEGGER_SYSVIEW.c **** 
1535:../../../SystemView/SEGGER/SEGGER_SYSVIEW.c **** /*********************************************************************
1536:../../../SystemView/SEGGER/SEGGER_SYSVIEW.c **** *
1537:../../../SystemView/SEGGER/SEGGER_SYSVIEW.c **** *       SEGGER_SYSVIEW_RecordU32x9()
1538:../../../SystemView/SEGGER/SEGGER_SYSVIEW.c **** *
1539:../../../SystemView/SEGGER/SEGGER_SYSVIEW.c **** *  Function description
1540:../../../SystemView/SEGGER/SEGGER_SYSVIEW.c **** *    Formats and sends a SystemView packet containing 9 U32 parameter payload.
1541:../../../SystemView/SEGGER/SEGGER_SYSVIEW.c **** *
1542:../../../SystemView/SEGGER/SEGGER_SYSVIEW.c **** *  Parameters
1543:../../../SystemView/SEGGER/SEGGER_SYSVIEW.c **** *    EventID - SystemView event ID.
1544:../../../SystemView/SEGGER/SEGGER_SYSVIEW.c **** *    Para0   - The 32-bit parameter encoded to SystemView packet payload.
1545:../../../SystemView/SEGGER/SEGGER_SYSVIEW.c **** *    Para1   - The 32-bit parameter encoded to SystemView packet payload.
1546:../../../SystemView/SEGGER/SEGGER_SYSVIEW.c **** *    Para2   - The 32-bit parameter encoded to SystemView packet payload.
1547:../../../SystemView/SEGGER/SEGGER_SYSVIEW.c **** *    Para3   - The 32-bit parameter encoded to SystemView packet payload.
1548:../../../SystemView/SEGGER/SEGGER_SYSVIEW.c **** *    Para4   - The 32-bit parameter encoded to SystemView packet payload.
1549:../../../SystemView/SEGGER/SEGGER_SYSVIEW.c **** *    Para5   - The 32-bit parameter encoded to SystemView packet payload.
ARM GAS  /tmp/ccJhHFds.s 			page 104


1550:../../../SystemView/SEGGER/SEGGER_SYSVIEW.c **** *    Para6   - The 32-bit parameter encoded to SystemView packet payload.
1551:../../../SystemView/SEGGER/SEGGER_SYSVIEW.c **** *    Para7   - The 32-bit parameter encoded to SystemView packet payload.
1552:../../../SystemView/SEGGER/SEGGER_SYSVIEW.c **** *    Para8   - The 32-bit parameter encoded to SystemView packet payload.
1553:../../../SystemView/SEGGER/SEGGER_SYSVIEW.c **** */
1554:../../../SystemView/SEGGER/SEGGER_SYSVIEW.c **** void SEGGER_SYSVIEW_RecordU32x9(unsigned int EventID, U32 Para0, U32 Para1, U32 Para2, U32 Para3, U
 4333              		.loc 1 1554 0
 4334              		.cfi_startproc
 4335              		@ args = 24, pretend = 0, frame = 104
 4336              		@ frame_needed = 1, uses_anonymous_args = 0
 4337 0000 80B5     		push	{r7, lr}
 4338              	.LCFI114:
 4339              		.cfi_def_cfa_offset 8
 4340              		.cfi_offset 7, -8
 4341              		.cfi_offset 14, -4
 4342 0002 9AB0     		sub	sp, sp, #104
 4343              	.LCFI115:
 4344              		.cfi_def_cfa_offset 112
 4345 0004 00AF     		add	r7, sp, #0
 4346              	.LCFI116:
 4347              		.cfi_def_cfa_register 7
 4348 0006 F860     		str	r0, [r7, #12]
 4349 0008 B960     		str	r1, [r7, #8]
 4350 000a 7A60     		str	r2, [r7, #4]
 4351 000c 3B60     		str	r3, [r7]
 4352              	.LBB60:
1555:../../../SystemView/SEGGER/SEGGER_SYSVIEW.c ****   U8* pPayload;
1556:../../../SystemView/SEGGER/SEGGER_SYSVIEW.c ****   U8* pPayloadStart;
1557:../../../SystemView/SEGGER/SEGGER_SYSVIEW.c ****   RECORD_START(SEGGER_SYSVIEW_INFO_SIZE + 9 * SEGGER_SYSVIEW_QUANTA_U32);
 4353              		.loc 1 1557 0
 4354              	@ 1557 "../../../SystemView/SEGGER/SEGGER_SYSVIEW.c" 1
 4355 000e EFF31183 		mrs   r3, basepri  
 4356 0012 4FF02001 		mov   r1, #32       
 4357 0016 81F31188 		msr   basepri, r1  
 4358              		
 4359              	@ 0 "" 2
 4360              		.thumb
 4361 001a FB61     		str	r3, [r7, #28]
 4362 001c 8748     		ldr	r0, .L273
 4363 001e FFF7FEFF 		bl	_PreparePacket
 4364 0022 B861     		str	r0, [r7, #24]
1558:../../../SystemView/SEGGER/SEGGER_SYSVIEW.c ****   //
1559:../../../SystemView/SEGGER/SEGGER_SYSVIEW.c ****   pPayload = pPayloadStart;
 4365              		.loc 1 1559 0
 4366 0024 BB69     		ldr	r3, [r7, #24]
 4367 0026 7B61     		str	r3, [r7, #20]
 4368              	.LBB61:
1560:../../../SystemView/SEGGER/SEGGER_SYSVIEW.c ****   ENCODE_U32(pPayload, Para0);
 4369              		.loc 1 1560 0
 4370 0028 7B69     		ldr	r3, [r7, #20]
 4371 002a 7B66     		str	r3, [r7, #100]
 4372 002c BB68     		ldr	r3, [r7, #8]
 4373 002e 3B66     		str	r3, [r7, #96]
 4374 0030 0BE0     		b	.L255
 4375              	.L256:
 4376              		.loc 1 1560 0 is_stmt 0 discriminator 3
 4377 0032 7B6E     		ldr	r3, [r7, #100]
 4378 0034 5A1C     		adds	r2, r3, #1
ARM GAS  /tmp/ccJhHFds.s 			page 105


 4379 0036 7A66     		str	r2, [r7, #100]
 4380 0038 3A6E     		ldr	r2, [r7, #96]
 4381 003a D2B2     		uxtb	r2, r2
 4382 003c 62F07F02 		orn	r2, r2, #127
 4383 0040 D2B2     		uxtb	r2, r2
 4384 0042 1A70     		strb	r2, [r3]
 4385 0044 3B6E     		ldr	r3, [r7, #96]
 4386 0046 DB09     		lsrs	r3, r3, #7
 4387 0048 3B66     		str	r3, [r7, #96]
 4388              	.L255:
 4389              		.loc 1 1560 0 discriminator 1
 4390 004a 3B6E     		ldr	r3, [r7, #96]
 4391 004c 7F2B     		cmp	r3, #127
 4392 004e F0D8     		bhi	.L256
 4393              		.loc 1 1560 0 discriminator 4
 4394 0050 7B6E     		ldr	r3, [r7, #100]
 4395 0052 5A1C     		adds	r2, r3, #1
 4396 0054 7A66     		str	r2, [r7, #100]
 4397 0056 3A6E     		ldr	r2, [r7, #96]
 4398 0058 D2B2     		uxtb	r2, r2
 4399 005a 1A70     		strb	r2, [r3]
 4400 005c 7B6E     		ldr	r3, [r7, #100]
 4401 005e 7B61     		str	r3, [r7, #20]
 4402              	.LBE61:
 4403              	.LBB62:
1561:../../../SystemView/SEGGER/SEGGER_SYSVIEW.c ****   ENCODE_U32(pPayload, Para1);
 4404              		.loc 1 1561 0 is_stmt 1 discriminator 4
 4405 0060 7B69     		ldr	r3, [r7, #20]
 4406 0062 FB65     		str	r3, [r7, #92]
 4407 0064 7B68     		ldr	r3, [r7, #4]
 4408 0066 BB65     		str	r3, [r7, #88]
 4409 0068 0BE0     		b	.L257
 4410              	.L258:
 4411              		.loc 1 1561 0 is_stmt 0 discriminator 3
 4412 006a FB6D     		ldr	r3, [r7, #92]
 4413 006c 5A1C     		adds	r2, r3, #1
 4414 006e FA65     		str	r2, [r7, #92]
 4415 0070 BA6D     		ldr	r2, [r7, #88]
 4416 0072 D2B2     		uxtb	r2, r2
 4417 0074 62F07F02 		orn	r2, r2, #127
 4418 0078 D2B2     		uxtb	r2, r2
 4419 007a 1A70     		strb	r2, [r3]
 4420 007c BB6D     		ldr	r3, [r7, #88]
 4421 007e DB09     		lsrs	r3, r3, #7
 4422 0080 BB65     		str	r3, [r7, #88]
 4423              	.L257:
 4424              		.loc 1 1561 0 discriminator 1
 4425 0082 BB6D     		ldr	r3, [r7, #88]
 4426 0084 7F2B     		cmp	r3, #127
 4427 0086 F0D8     		bhi	.L258
 4428              		.loc 1 1561 0 discriminator 4
 4429 0088 FB6D     		ldr	r3, [r7, #92]
 4430 008a 5A1C     		adds	r2, r3, #1
 4431 008c FA65     		str	r2, [r7, #92]
 4432 008e BA6D     		ldr	r2, [r7, #88]
 4433 0090 D2B2     		uxtb	r2, r2
 4434 0092 1A70     		strb	r2, [r3]
ARM GAS  /tmp/ccJhHFds.s 			page 106


 4435 0094 FB6D     		ldr	r3, [r7, #92]
 4436 0096 7B61     		str	r3, [r7, #20]
 4437              	.LBE62:
 4438              	.LBB63:
1562:../../../SystemView/SEGGER/SEGGER_SYSVIEW.c ****   ENCODE_U32(pPayload, Para2);
 4439              		.loc 1 1562 0 is_stmt 1 discriminator 4
 4440 0098 7B69     		ldr	r3, [r7, #20]
 4441 009a 7B65     		str	r3, [r7, #84]
 4442 009c 3B68     		ldr	r3, [r7]
 4443 009e 3B65     		str	r3, [r7, #80]
 4444 00a0 0BE0     		b	.L259
 4445              	.L260:
 4446              		.loc 1 1562 0 is_stmt 0 discriminator 3
 4447 00a2 7B6D     		ldr	r3, [r7, #84]
 4448 00a4 5A1C     		adds	r2, r3, #1
 4449 00a6 7A65     		str	r2, [r7, #84]
 4450 00a8 3A6D     		ldr	r2, [r7, #80]
 4451 00aa D2B2     		uxtb	r2, r2
 4452 00ac 62F07F02 		orn	r2, r2, #127
 4453 00b0 D2B2     		uxtb	r2, r2
 4454 00b2 1A70     		strb	r2, [r3]
 4455 00b4 3B6D     		ldr	r3, [r7, #80]
 4456 00b6 DB09     		lsrs	r3, r3, #7
 4457 00b8 3B65     		str	r3, [r7, #80]
 4458              	.L259:
 4459              		.loc 1 1562 0 discriminator 1
 4460 00ba 3B6D     		ldr	r3, [r7, #80]
 4461 00bc 7F2B     		cmp	r3, #127
 4462 00be F0D8     		bhi	.L260
 4463              		.loc 1 1562 0 discriminator 4
 4464 00c0 7B6D     		ldr	r3, [r7, #84]
 4465 00c2 5A1C     		adds	r2, r3, #1
 4466 00c4 7A65     		str	r2, [r7, #84]
 4467 00c6 3A6D     		ldr	r2, [r7, #80]
 4468 00c8 D2B2     		uxtb	r2, r2
 4469 00ca 1A70     		strb	r2, [r3]
 4470 00cc 7B6D     		ldr	r3, [r7, #84]
 4471 00ce 7B61     		str	r3, [r7, #20]
 4472              	.LBE63:
 4473              	.LBB64:
1563:../../../SystemView/SEGGER/SEGGER_SYSVIEW.c ****   ENCODE_U32(pPayload, Para3);
 4474              		.loc 1 1563 0 is_stmt 1 discriminator 4
 4475 00d0 7B69     		ldr	r3, [r7, #20]
 4476 00d2 FB64     		str	r3, [r7, #76]
 4477 00d4 3B6F     		ldr	r3, [r7, #112]
 4478 00d6 BB64     		str	r3, [r7, #72]
 4479 00d8 0BE0     		b	.L261
 4480              	.L262:
 4481              		.loc 1 1563 0 is_stmt 0 discriminator 3
 4482 00da FB6C     		ldr	r3, [r7, #76]
 4483 00dc 5A1C     		adds	r2, r3, #1
 4484 00de FA64     		str	r2, [r7, #76]
 4485 00e0 BA6C     		ldr	r2, [r7, #72]
 4486 00e2 D2B2     		uxtb	r2, r2
 4487 00e4 62F07F02 		orn	r2, r2, #127
 4488 00e8 D2B2     		uxtb	r2, r2
 4489 00ea 1A70     		strb	r2, [r3]
ARM GAS  /tmp/ccJhHFds.s 			page 107


 4490 00ec BB6C     		ldr	r3, [r7, #72]
 4491 00ee DB09     		lsrs	r3, r3, #7
 4492 00f0 BB64     		str	r3, [r7, #72]
 4493              	.L261:
 4494              		.loc 1 1563 0 discriminator 1
 4495 00f2 BB6C     		ldr	r3, [r7, #72]
 4496 00f4 7F2B     		cmp	r3, #127
 4497 00f6 F0D8     		bhi	.L262
 4498              		.loc 1 1563 0 discriminator 4
 4499 00f8 FB6C     		ldr	r3, [r7, #76]
 4500 00fa 5A1C     		adds	r2, r3, #1
 4501 00fc FA64     		str	r2, [r7, #76]
 4502 00fe BA6C     		ldr	r2, [r7, #72]
 4503 0100 D2B2     		uxtb	r2, r2
 4504 0102 1A70     		strb	r2, [r3]
 4505 0104 FB6C     		ldr	r3, [r7, #76]
 4506 0106 7B61     		str	r3, [r7, #20]
 4507              	.LBE64:
 4508              	.LBB65:
1564:../../../SystemView/SEGGER/SEGGER_SYSVIEW.c ****   ENCODE_U32(pPayload, Para4);
 4509              		.loc 1 1564 0 is_stmt 1 discriminator 4
 4510 0108 7B69     		ldr	r3, [r7, #20]
 4511 010a 7B64     		str	r3, [r7, #68]
 4512 010c 7B6F     		ldr	r3, [r7, #116]
 4513 010e 3B64     		str	r3, [r7, #64]
 4514 0110 0BE0     		b	.L263
 4515              	.L264:
 4516              		.loc 1 1564 0 is_stmt 0 discriminator 3
 4517 0112 7B6C     		ldr	r3, [r7, #68]
 4518 0114 5A1C     		adds	r2, r3, #1
 4519 0116 7A64     		str	r2, [r7, #68]
 4520 0118 3A6C     		ldr	r2, [r7, #64]
 4521 011a D2B2     		uxtb	r2, r2
 4522 011c 62F07F02 		orn	r2, r2, #127
 4523 0120 D2B2     		uxtb	r2, r2
 4524 0122 1A70     		strb	r2, [r3]
 4525 0124 3B6C     		ldr	r3, [r7, #64]
 4526 0126 DB09     		lsrs	r3, r3, #7
 4527 0128 3B64     		str	r3, [r7, #64]
 4528              	.L263:
 4529              		.loc 1 1564 0 discriminator 1
 4530 012a 3B6C     		ldr	r3, [r7, #64]
 4531 012c 7F2B     		cmp	r3, #127
 4532 012e F0D8     		bhi	.L264
 4533              		.loc 1 1564 0 discriminator 4
 4534 0130 7B6C     		ldr	r3, [r7, #68]
 4535 0132 5A1C     		adds	r2, r3, #1
 4536 0134 7A64     		str	r2, [r7, #68]
 4537 0136 3A6C     		ldr	r2, [r7, #64]
 4538 0138 D2B2     		uxtb	r2, r2
 4539 013a 1A70     		strb	r2, [r3]
 4540 013c 7B6C     		ldr	r3, [r7, #68]
 4541 013e 7B61     		str	r3, [r7, #20]
 4542              	.LBE65:
 4543              	.LBB66:
1565:../../../SystemView/SEGGER/SEGGER_SYSVIEW.c ****   ENCODE_U32(pPayload, Para5);
 4544              		.loc 1 1565 0 is_stmt 1 discriminator 4
ARM GAS  /tmp/ccJhHFds.s 			page 108


 4545 0140 7B69     		ldr	r3, [r7, #20]
 4546 0142 FB63     		str	r3, [r7, #60]
 4547 0144 BB6F     		ldr	r3, [r7, #120]
 4548 0146 BB63     		str	r3, [r7, #56]
 4549 0148 0BE0     		b	.L265
 4550              	.L266:
 4551              		.loc 1 1565 0 is_stmt 0 discriminator 3
 4552 014a FB6B     		ldr	r3, [r7, #60]
 4553 014c 5A1C     		adds	r2, r3, #1
 4554 014e FA63     		str	r2, [r7, #60]
 4555 0150 BA6B     		ldr	r2, [r7, #56]
 4556 0152 D2B2     		uxtb	r2, r2
 4557 0154 62F07F02 		orn	r2, r2, #127
 4558 0158 D2B2     		uxtb	r2, r2
 4559 015a 1A70     		strb	r2, [r3]
 4560 015c BB6B     		ldr	r3, [r7, #56]
 4561 015e DB09     		lsrs	r3, r3, #7
 4562 0160 BB63     		str	r3, [r7, #56]
 4563              	.L265:
 4564              		.loc 1 1565 0 discriminator 1
 4565 0162 BB6B     		ldr	r3, [r7, #56]
 4566 0164 7F2B     		cmp	r3, #127
 4567 0166 F0D8     		bhi	.L266
 4568              		.loc 1 1565 0 discriminator 4
 4569 0168 FB6B     		ldr	r3, [r7, #60]
 4570 016a 5A1C     		adds	r2, r3, #1
 4571 016c FA63     		str	r2, [r7, #60]
 4572 016e BA6B     		ldr	r2, [r7, #56]
 4573 0170 D2B2     		uxtb	r2, r2
 4574 0172 1A70     		strb	r2, [r3]
 4575 0174 FB6B     		ldr	r3, [r7, #60]
 4576 0176 7B61     		str	r3, [r7, #20]
 4577              	.LBE66:
 4578              	.LBB67:
1566:../../../SystemView/SEGGER/SEGGER_SYSVIEW.c ****   ENCODE_U32(pPayload, Para6);
 4579              		.loc 1 1566 0 is_stmt 1 discriminator 4
 4580 0178 7B69     		ldr	r3, [r7, #20]
 4581 017a 7B63     		str	r3, [r7, #52]
 4582 017c FB6F     		ldr	r3, [r7, #124]
 4583 017e 3B63     		str	r3, [r7, #48]
 4584 0180 0BE0     		b	.L267
 4585              	.L268:
 4586              		.loc 1 1566 0 is_stmt 0 discriminator 3
 4587 0182 7B6B     		ldr	r3, [r7, #52]
 4588 0184 5A1C     		adds	r2, r3, #1
 4589 0186 7A63     		str	r2, [r7, #52]
 4590 0188 3A6B     		ldr	r2, [r7, #48]
 4591 018a D2B2     		uxtb	r2, r2
 4592 018c 62F07F02 		orn	r2, r2, #127
 4593 0190 D2B2     		uxtb	r2, r2
 4594 0192 1A70     		strb	r2, [r3]
 4595 0194 3B6B     		ldr	r3, [r7, #48]
 4596 0196 DB09     		lsrs	r3, r3, #7
 4597 0198 3B63     		str	r3, [r7, #48]
 4598              	.L267:
 4599              		.loc 1 1566 0 discriminator 1
 4600 019a 3B6B     		ldr	r3, [r7, #48]
ARM GAS  /tmp/ccJhHFds.s 			page 109


 4601 019c 7F2B     		cmp	r3, #127
 4602 019e F0D8     		bhi	.L268
 4603              		.loc 1 1566 0 discriminator 4
 4604 01a0 7B6B     		ldr	r3, [r7, #52]
 4605 01a2 5A1C     		adds	r2, r3, #1
 4606 01a4 7A63     		str	r2, [r7, #52]
 4607 01a6 3A6B     		ldr	r2, [r7, #48]
 4608 01a8 D2B2     		uxtb	r2, r2
 4609 01aa 1A70     		strb	r2, [r3]
 4610 01ac 7B6B     		ldr	r3, [r7, #52]
 4611 01ae 7B61     		str	r3, [r7, #20]
 4612              	.LBE67:
 4613              	.LBB68:
1567:../../../SystemView/SEGGER/SEGGER_SYSVIEW.c ****   ENCODE_U32(pPayload, Para7);
 4614              		.loc 1 1567 0 is_stmt 1 discriminator 4
 4615 01b0 7B69     		ldr	r3, [r7, #20]
 4616 01b2 FB62     		str	r3, [r7, #44]
 4617 01b4 D7F88030 		ldr	r3, [r7, #128]
 4618 01b8 BB62     		str	r3, [r7, #40]
 4619 01ba 0BE0     		b	.L269
 4620              	.L270:
 4621              		.loc 1 1567 0 is_stmt 0 discriminator 3
 4622 01bc FB6A     		ldr	r3, [r7, #44]
 4623 01be 5A1C     		adds	r2, r3, #1
 4624 01c0 FA62     		str	r2, [r7, #44]
 4625 01c2 BA6A     		ldr	r2, [r7, #40]
 4626 01c4 D2B2     		uxtb	r2, r2
 4627 01c6 62F07F02 		orn	r2, r2, #127
 4628 01ca D2B2     		uxtb	r2, r2
 4629 01cc 1A70     		strb	r2, [r3]
 4630 01ce BB6A     		ldr	r3, [r7, #40]
 4631 01d0 DB09     		lsrs	r3, r3, #7
 4632 01d2 BB62     		str	r3, [r7, #40]
 4633              	.L269:
 4634              		.loc 1 1567 0 discriminator 1
 4635 01d4 BB6A     		ldr	r3, [r7, #40]
 4636 01d6 7F2B     		cmp	r3, #127
 4637 01d8 F0D8     		bhi	.L270
 4638              		.loc 1 1567 0 discriminator 4
 4639 01da FB6A     		ldr	r3, [r7, #44]
 4640 01dc 5A1C     		adds	r2, r3, #1
 4641 01de FA62     		str	r2, [r7, #44]
 4642 01e0 BA6A     		ldr	r2, [r7, #40]
 4643 01e2 D2B2     		uxtb	r2, r2
 4644 01e4 1A70     		strb	r2, [r3]
 4645 01e6 FB6A     		ldr	r3, [r7, #44]
 4646 01e8 7B61     		str	r3, [r7, #20]
 4647              	.LBE68:
 4648              	.LBB69:
1568:../../../SystemView/SEGGER/SEGGER_SYSVIEW.c ****   ENCODE_U32(pPayload, Para8);
 4649              		.loc 1 1568 0 is_stmt 1 discriminator 4
 4650 01ea 7B69     		ldr	r3, [r7, #20]
 4651 01ec 7B62     		str	r3, [r7, #36]
 4652 01ee D7F88430 		ldr	r3, [r7, #132]
 4653 01f2 3B62     		str	r3, [r7, #32]
 4654 01f4 0BE0     		b	.L271
 4655              	.L272:
ARM GAS  /tmp/ccJhHFds.s 			page 110


 4656              		.loc 1 1568 0 is_stmt 0 discriminator 3
 4657 01f6 7B6A     		ldr	r3, [r7, #36]
 4658 01f8 5A1C     		adds	r2, r3, #1
 4659 01fa 7A62     		str	r2, [r7, #36]
 4660 01fc 3A6A     		ldr	r2, [r7, #32]
 4661 01fe D2B2     		uxtb	r2, r2
 4662 0200 62F07F02 		orn	r2, r2, #127
 4663 0204 D2B2     		uxtb	r2, r2
 4664 0206 1A70     		strb	r2, [r3]
 4665 0208 3B6A     		ldr	r3, [r7, #32]
 4666 020a DB09     		lsrs	r3, r3, #7
 4667 020c 3B62     		str	r3, [r7, #32]
 4668              	.L271:
 4669              		.loc 1 1568 0 discriminator 1
 4670 020e 3B6A     		ldr	r3, [r7, #32]
 4671 0210 7F2B     		cmp	r3, #127
 4672 0212 F0D8     		bhi	.L272
 4673              		.loc 1 1568 0 discriminator 4
 4674 0214 7B6A     		ldr	r3, [r7, #36]
 4675 0216 5A1C     		adds	r2, r3, #1
 4676 0218 7A62     		str	r2, [r7, #36]
 4677 021a 3A6A     		ldr	r2, [r7, #32]
 4678 021c D2B2     		uxtb	r2, r2
 4679 021e 1A70     		strb	r2, [r3]
 4680 0220 7B6A     		ldr	r3, [r7, #36]
 4681 0222 7B61     		str	r3, [r7, #20]
 4682              	.LBE69:
1569:../../../SystemView/SEGGER/SEGGER_SYSVIEW.c ****   _SendPacket(pPayloadStart, pPayload, EventID);
 4683              		.loc 1 1569 0 is_stmt 1 discriminator 4
 4684 0224 B869     		ldr	r0, [r7, #24]
 4685 0226 7969     		ldr	r1, [r7, #20]
 4686 0228 FA68     		ldr	r2, [r7, #12]
 4687 022a FFF7FEFF 		bl	_SendPacket
1570:../../../SystemView/SEGGER/SEGGER_SYSVIEW.c ****   RECORD_END();
 4688              		.loc 1 1570 0 discriminator 4
 4689 022e FB69     		ldr	r3, [r7, #28]
 4690              	@ 1570 "../../../SystemView/SEGGER/SEGGER_SYSVIEW.c" 1
 4691 0230 83F31188 		msr   basepri, r3  
 4692              		
 4693              	@ 0 "" 2
 4694              		.thumb
 4695              	.LBE60:
1571:../../../SystemView/SEGGER/SEGGER_SYSVIEW.c **** }
 4696              		.loc 1 1571 0 discriminator 4
 4697 0234 6837     		adds	r7, r7, #104
 4698              	.LCFI117:
 4699              		.cfi_def_cfa_offset 8
 4700 0236 BD46     		mov	sp, r7
 4701              	.LCFI118:
 4702              		.cfi_def_cfa_register 13
 4703              		@ sp needed
 4704 0238 80BD     		pop	{r7, pc}
 4705              	.L274:
 4706 023a 00BF     		.align	2
 4707              	.L273:
 4708 023c 00000000 		.word	_aPacket
 4709              		.cfi_endproc
ARM GAS  /tmp/ccJhHFds.s 			page 111


 4710              	.LFE22:
 4712              		.section	.text.SEGGER_SYSVIEW_RecordU32x10,"ax",%progbits
 4713              		.align	2
 4714              		.global	SEGGER_SYSVIEW_RecordU32x10
 4715              		.thumb
 4716              		.thumb_func
 4718              	SEGGER_SYSVIEW_RecordU32x10:
 4719              	.LFB23:
1572:../../../SystemView/SEGGER/SEGGER_SYSVIEW.c **** 
1573:../../../SystemView/SEGGER/SEGGER_SYSVIEW.c **** /*********************************************************************
1574:../../../SystemView/SEGGER/SEGGER_SYSVIEW.c **** *
1575:../../../SystemView/SEGGER/SEGGER_SYSVIEW.c **** *       SEGGER_SYSVIEW_RecordU32x10()
1576:../../../SystemView/SEGGER/SEGGER_SYSVIEW.c **** *
1577:../../../SystemView/SEGGER/SEGGER_SYSVIEW.c **** *  Function description
1578:../../../SystemView/SEGGER/SEGGER_SYSVIEW.c **** *    Formats and sends a SystemView packet containing 10 U32 parameter payload.
1579:../../../SystemView/SEGGER/SEGGER_SYSVIEW.c **** *
1580:../../../SystemView/SEGGER/SEGGER_SYSVIEW.c **** *  Parameters
1581:../../../SystemView/SEGGER/SEGGER_SYSVIEW.c **** *    EventID - SystemView event ID.
1582:../../../SystemView/SEGGER/SEGGER_SYSVIEW.c **** *    Para0   - The 32-bit parameter encoded to SystemView packet payload.
1583:../../../SystemView/SEGGER/SEGGER_SYSVIEW.c **** *    Para1   - The 32-bit parameter encoded to SystemView packet payload.
1584:../../../SystemView/SEGGER/SEGGER_SYSVIEW.c **** *    Para2   - The 32-bit parameter encoded to SystemView packet payload.
1585:../../../SystemView/SEGGER/SEGGER_SYSVIEW.c **** *    Para3   - The 32-bit parameter encoded to SystemView packet payload.
1586:../../../SystemView/SEGGER/SEGGER_SYSVIEW.c **** *    Para4   - The 32-bit parameter encoded to SystemView packet payload.
1587:../../../SystemView/SEGGER/SEGGER_SYSVIEW.c **** *    Para5   - The 32-bit parameter encoded to SystemView packet payload.
1588:../../../SystemView/SEGGER/SEGGER_SYSVIEW.c **** *    Para6   - The 32-bit parameter encoded to SystemView packet payload.
1589:../../../SystemView/SEGGER/SEGGER_SYSVIEW.c **** *    Para7   - The 32-bit parameter encoded to SystemView packet payload.
1590:../../../SystemView/SEGGER/SEGGER_SYSVIEW.c **** *    Para8   - The 32-bit parameter encoded to SystemView packet payload.
1591:../../../SystemView/SEGGER/SEGGER_SYSVIEW.c **** *    Para9   - The 32-bit parameter encoded to SystemView packet payload.
1592:../../../SystemView/SEGGER/SEGGER_SYSVIEW.c **** */
1593:../../../SystemView/SEGGER/SEGGER_SYSVIEW.c **** void SEGGER_SYSVIEW_RecordU32x10(unsigned int EventID, U32 Para0, U32 Para1, U32 Para2, U32 Para3, 
 4720              		.loc 1 1593 0
 4721              		.cfi_startproc
 4722              		@ args = 28, pretend = 0, frame = 112
 4723              		@ frame_needed = 1, uses_anonymous_args = 0
 4724 0000 80B5     		push	{r7, lr}
 4725              	.LCFI119:
 4726              		.cfi_def_cfa_offset 8
 4727              		.cfi_offset 7, -8
 4728              		.cfi_offset 14, -4
 4729 0002 9CB0     		sub	sp, sp, #112
 4730              	.LCFI120:
 4731              		.cfi_def_cfa_offset 120
 4732 0004 00AF     		add	r7, sp, #0
 4733              	.LCFI121:
 4734              		.cfi_def_cfa_register 7
 4735 0006 F860     		str	r0, [r7, #12]
 4736 0008 B960     		str	r1, [r7, #8]
 4737 000a 7A60     		str	r2, [r7, #4]
 4738 000c 3B60     		str	r3, [r7]
 4739              	.LBB70:
1594:../../../SystemView/SEGGER/SEGGER_SYSVIEW.c ****   U8* pPayload;
1595:../../../SystemView/SEGGER/SEGGER_SYSVIEW.c ****   U8* pPayloadStart;
1596:../../../SystemView/SEGGER/SEGGER_SYSVIEW.c ****   RECORD_START(SEGGER_SYSVIEW_INFO_SIZE + 10 * SEGGER_SYSVIEW_QUANTA_U32);
 4740              		.loc 1 1596 0
 4741              	@ 1596 "../../../SystemView/SEGGER/SEGGER_SYSVIEW.c" 1
 4742 000e EFF31183 		mrs   r3, basepri  
 4743 0012 4FF02001 		mov   r1, #32       
ARM GAS  /tmp/ccJhHFds.s 			page 112


 4744 0016 81F31188 		msr   basepri, r1  
 4745              		
 4746              	@ 0 "" 2
 4747              		.thumb
 4748 001a FB61     		str	r3, [r7, #28]
 4749 001c 9648     		ldr	r0, .L296
 4750 001e FFF7FEFF 		bl	_PreparePacket
 4751 0022 B861     		str	r0, [r7, #24]
1597:../../../SystemView/SEGGER/SEGGER_SYSVIEW.c ****   //
1598:../../../SystemView/SEGGER/SEGGER_SYSVIEW.c ****   pPayload = pPayloadStart;
 4752              		.loc 1 1598 0
 4753 0024 BB69     		ldr	r3, [r7, #24]
 4754 0026 7B61     		str	r3, [r7, #20]
 4755              	.LBB71:
1599:../../../SystemView/SEGGER/SEGGER_SYSVIEW.c ****   ENCODE_U32(pPayload, Para0);
 4756              		.loc 1 1599 0
 4757 0028 7B69     		ldr	r3, [r7, #20]
 4758 002a FB66     		str	r3, [r7, #108]
 4759 002c BB68     		ldr	r3, [r7, #8]
 4760 002e BB66     		str	r3, [r7, #104]
 4761 0030 0BE0     		b	.L276
 4762              	.L277:
 4763              		.loc 1 1599 0 is_stmt 0 discriminator 3
 4764 0032 FB6E     		ldr	r3, [r7, #108]
 4765 0034 5A1C     		adds	r2, r3, #1
 4766 0036 FA66     		str	r2, [r7, #108]
 4767 0038 BA6E     		ldr	r2, [r7, #104]
 4768 003a D2B2     		uxtb	r2, r2
 4769 003c 62F07F02 		orn	r2, r2, #127
 4770 0040 D2B2     		uxtb	r2, r2
 4771 0042 1A70     		strb	r2, [r3]
 4772 0044 BB6E     		ldr	r3, [r7, #104]
 4773 0046 DB09     		lsrs	r3, r3, #7
 4774 0048 BB66     		str	r3, [r7, #104]
 4775              	.L276:
 4776              		.loc 1 1599 0 discriminator 1
 4777 004a BB6E     		ldr	r3, [r7, #104]
 4778 004c 7F2B     		cmp	r3, #127
 4779 004e F0D8     		bhi	.L277
 4780              		.loc 1 1599 0 discriminator 4
 4781 0050 FB6E     		ldr	r3, [r7, #108]
 4782 0052 5A1C     		adds	r2, r3, #1
 4783 0054 FA66     		str	r2, [r7, #108]
 4784 0056 BA6E     		ldr	r2, [r7, #104]
 4785 0058 D2B2     		uxtb	r2, r2
 4786 005a 1A70     		strb	r2, [r3]
 4787 005c FB6E     		ldr	r3, [r7, #108]
 4788 005e 7B61     		str	r3, [r7, #20]
 4789              	.LBE71:
 4790              	.LBB72:
1600:../../../SystemView/SEGGER/SEGGER_SYSVIEW.c ****   ENCODE_U32(pPayload, Para1);
 4791              		.loc 1 1600 0 is_stmt 1 discriminator 4
 4792 0060 7B69     		ldr	r3, [r7, #20]
 4793 0062 7B66     		str	r3, [r7, #100]
 4794 0064 7B68     		ldr	r3, [r7, #4]
 4795 0066 3B66     		str	r3, [r7, #96]
 4796 0068 0BE0     		b	.L278
ARM GAS  /tmp/ccJhHFds.s 			page 113


 4797              	.L279:
 4798              		.loc 1 1600 0 is_stmt 0 discriminator 3
 4799 006a 7B6E     		ldr	r3, [r7, #100]
 4800 006c 5A1C     		adds	r2, r3, #1
 4801 006e 7A66     		str	r2, [r7, #100]
 4802 0070 3A6E     		ldr	r2, [r7, #96]
 4803 0072 D2B2     		uxtb	r2, r2
 4804 0074 62F07F02 		orn	r2, r2, #127
 4805 0078 D2B2     		uxtb	r2, r2
 4806 007a 1A70     		strb	r2, [r3]
 4807 007c 3B6E     		ldr	r3, [r7, #96]
 4808 007e DB09     		lsrs	r3, r3, #7
 4809 0080 3B66     		str	r3, [r7, #96]
 4810              	.L278:
 4811              		.loc 1 1600 0 discriminator 1
 4812 0082 3B6E     		ldr	r3, [r7, #96]
 4813 0084 7F2B     		cmp	r3, #127
 4814 0086 F0D8     		bhi	.L279
 4815              		.loc 1 1600 0 discriminator 4
 4816 0088 7B6E     		ldr	r3, [r7, #100]
 4817 008a 5A1C     		adds	r2, r3, #1
 4818 008c 7A66     		str	r2, [r7, #100]
 4819 008e 3A6E     		ldr	r2, [r7, #96]
 4820 0090 D2B2     		uxtb	r2, r2
 4821 0092 1A70     		strb	r2, [r3]
 4822 0094 7B6E     		ldr	r3, [r7, #100]
 4823 0096 7B61     		str	r3, [r7, #20]
 4824              	.LBE72:
 4825              	.LBB73:
1601:../../../SystemView/SEGGER/SEGGER_SYSVIEW.c ****   ENCODE_U32(pPayload, Para2);
 4826              		.loc 1 1601 0 is_stmt 1 discriminator 4
 4827 0098 7B69     		ldr	r3, [r7, #20]
 4828 009a FB65     		str	r3, [r7, #92]
 4829 009c 3B68     		ldr	r3, [r7]
 4830 009e BB65     		str	r3, [r7, #88]
 4831 00a0 0BE0     		b	.L280
 4832              	.L281:
 4833              		.loc 1 1601 0 is_stmt 0 discriminator 3
 4834 00a2 FB6D     		ldr	r3, [r7, #92]
 4835 00a4 5A1C     		adds	r2, r3, #1
 4836 00a6 FA65     		str	r2, [r7, #92]
 4837 00a8 BA6D     		ldr	r2, [r7, #88]
 4838 00aa D2B2     		uxtb	r2, r2
 4839 00ac 62F07F02 		orn	r2, r2, #127
 4840 00b0 D2B2     		uxtb	r2, r2
 4841 00b2 1A70     		strb	r2, [r3]
 4842 00b4 BB6D     		ldr	r3, [r7, #88]
 4843 00b6 DB09     		lsrs	r3, r3, #7
 4844 00b8 BB65     		str	r3, [r7, #88]
 4845              	.L280:
 4846              		.loc 1 1601 0 discriminator 1
 4847 00ba BB6D     		ldr	r3, [r7, #88]
 4848 00bc 7F2B     		cmp	r3, #127
 4849 00be F0D8     		bhi	.L281
 4850              		.loc 1 1601 0 discriminator 4
 4851 00c0 FB6D     		ldr	r3, [r7, #92]
 4852 00c2 5A1C     		adds	r2, r3, #1
ARM GAS  /tmp/ccJhHFds.s 			page 114


 4853 00c4 FA65     		str	r2, [r7, #92]
 4854 00c6 BA6D     		ldr	r2, [r7, #88]
 4855 00c8 D2B2     		uxtb	r2, r2
 4856 00ca 1A70     		strb	r2, [r3]
 4857 00cc FB6D     		ldr	r3, [r7, #92]
 4858 00ce 7B61     		str	r3, [r7, #20]
 4859              	.LBE73:
 4860              	.LBB74:
1602:../../../SystemView/SEGGER/SEGGER_SYSVIEW.c ****   ENCODE_U32(pPayload, Para3);
 4861              		.loc 1 1602 0 is_stmt 1 discriminator 4
 4862 00d0 7B69     		ldr	r3, [r7, #20]
 4863 00d2 7B65     		str	r3, [r7, #84]
 4864 00d4 BB6F     		ldr	r3, [r7, #120]
 4865 00d6 3B65     		str	r3, [r7, #80]
 4866 00d8 0BE0     		b	.L282
 4867              	.L283:
 4868              		.loc 1 1602 0 is_stmt 0 discriminator 3
 4869 00da 7B6D     		ldr	r3, [r7, #84]
 4870 00dc 5A1C     		adds	r2, r3, #1
 4871 00de 7A65     		str	r2, [r7, #84]
 4872 00e0 3A6D     		ldr	r2, [r7, #80]
 4873 00e2 D2B2     		uxtb	r2, r2
 4874 00e4 62F07F02 		orn	r2, r2, #127
 4875 00e8 D2B2     		uxtb	r2, r2
 4876 00ea 1A70     		strb	r2, [r3]
 4877 00ec 3B6D     		ldr	r3, [r7, #80]
 4878 00ee DB09     		lsrs	r3, r3, #7
 4879 00f0 3B65     		str	r3, [r7, #80]
 4880              	.L282:
 4881              		.loc 1 1602 0 discriminator 1
 4882 00f2 3B6D     		ldr	r3, [r7, #80]
 4883 00f4 7F2B     		cmp	r3, #127
 4884 00f6 F0D8     		bhi	.L283
 4885              		.loc 1 1602 0 discriminator 4
 4886 00f8 7B6D     		ldr	r3, [r7, #84]
 4887 00fa 5A1C     		adds	r2, r3, #1
 4888 00fc 7A65     		str	r2, [r7, #84]
 4889 00fe 3A6D     		ldr	r2, [r7, #80]
 4890 0100 D2B2     		uxtb	r2, r2
 4891 0102 1A70     		strb	r2, [r3]
 4892 0104 7B6D     		ldr	r3, [r7, #84]
 4893 0106 7B61     		str	r3, [r7, #20]
 4894              	.LBE74:
 4895              	.LBB75:
1603:../../../SystemView/SEGGER/SEGGER_SYSVIEW.c ****   ENCODE_U32(pPayload, Para4);
 4896              		.loc 1 1603 0 is_stmt 1 discriminator 4
 4897 0108 7B69     		ldr	r3, [r7, #20]
 4898 010a FB64     		str	r3, [r7, #76]
 4899 010c FB6F     		ldr	r3, [r7, #124]
 4900 010e BB64     		str	r3, [r7, #72]
 4901 0110 0BE0     		b	.L284
 4902              	.L285:
 4903              		.loc 1 1603 0 is_stmt 0 discriminator 3
 4904 0112 FB6C     		ldr	r3, [r7, #76]
 4905 0114 5A1C     		adds	r2, r3, #1
 4906 0116 FA64     		str	r2, [r7, #76]
 4907 0118 BA6C     		ldr	r2, [r7, #72]
ARM GAS  /tmp/ccJhHFds.s 			page 115


 4908 011a D2B2     		uxtb	r2, r2
 4909 011c 62F07F02 		orn	r2, r2, #127
 4910 0120 D2B2     		uxtb	r2, r2
 4911 0122 1A70     		strb	r2, [r3]
 4912 0124 BB6C     		ldr	r3, [r7, #72]
 4913 0126 DB09     		lsrs	r3, r3, #7
 4914 0128 BB64     		str	r3, [r7, #72]
 4915              	.L284:
 4916              		.loc 1 1603 0 discriminator 1
 4917 012a BB6C     		ldr	r3, [r7, #72]
 4918 012c 7F2B     		cmp	r3, #127
 4919 012e F0D8     		bhi	.L285
 4920              		.loc 1 1603 0 discriminator 4
 4921 0130 FB6C     		ldr	r3, [r7, #76]
 4922 0132 5A1C     		adds	r2, r3, #1
 4923 0134 FA64     		str	r2, [r7, #76]
 4924 0136 BA6C     		ldr	r2, [r7, #72]
 4925 0138 D2B2     		uxtb	r2, r2
 4926 013a 1A70     		strb	r2, [r3]
 4927 013c FB6C     		ldr	r3, [r7, #76]
 4928 013e 7B61     		str	r3, [r7, #20]
 4929              	.LBE75:
 4930              	.LBB76:
1604:../../../SystemView/SEGGER/SEGGER_SYSVIEW.c ****   ENCODE_U32(pPayload, Para5);
 4931              		.loc 1 1604 0 is_stmt 1 discriminator 4
 4932 0140 7B69     		ldr	r3, [r7, #20]
 4933 0142 7B64     		str	r3, [r7, #68]
 4934 0144 D7F88030 		ldr	r3, [r7, #128]
 4935 0148 3B64     		str	r3, [r7, #64]
 4936 014a 0BE0     		b	.L286
 4937              	.L287:
 4938              		.loc 1 1604 0 is_stmt 0 discriminator 3
 4939 014c 7B6C     		ldr	r3, [r7, #68]
 4940 014e 5A1C     		adds	r2, r3, #1
 4941 0150 7A64     		str	r2, [r7, #68]
 4942 0152 3A6C     		ldr	r2, [r7, #64]
 4943 0154 D2B2     		uxtb	r2, r2
 4944 0156 62F07F02 		orn	r2, r2, #127
 4945 015a D2B2     		uxtb	r2, r2
 4946 015c 1A70     		strb	r2, [r3]
 4947 015e 3B6C     		ldr	r3, [r7, #64]
 4948 0160 DB09     		lsrs	r3, r3, #7
 4949 0162 3B64     		str	r3, [r7, #64]
 4950              	.L286:
 4951              		.loc 1 1604 0 discriminator 1
 4952 0164 3B6C     		ldr	r3, [r7, #64]
 4953 0166 7F2B     		cmp	r3, #127
 4954 0168 F0D8     		bhi	.L287
 4955              		.loc 1 1604 0 discriminator 4
 4956 016a 7B6C     		ldr	r3, [r7, #68]
 4957 016c 5A1C     		adds	r2, r3, #1
 4958 016e 7A64     		str	r2, [r7, #68]
 4959 0170 3A6C     		ldr	r2, [r7, #64]
 4960 0172 D2B2     		uxtb	r2, r2
 4961 0174 1A70     		strb	r2, [r3]
 4962 0176 7B6C     		ldr	r3, [r7, #68]
 4963 0178 7B61     		str	r3, [r7, #20]
ARM GAS  /tmp/ccJhHFds.s 			page 116


 4964              	.LBE76:
 4965              	.LBB77:
1605:../../../SystemView/SEGGER/SEGGER_SYSVIEW.c ****   ENCODE_U32(pPayload, Para6);
 4966              		.loc 1 1605 0 is_stmt 1 discriminator 4
 4967 017a 7B69     		ldr	r3, [r7, #20]
 4968 017c FB63     		str	r3, [r7, #60]
 4969 017e D7F88430 		ldr	r3, [r7, #132]
 4970 0182 BB63     		str	r3, [r7, #56]
 4971 0184 0BE0     		b	.L288
 4972              	.L289:
 4973              		.loc 1 1605 0 is_stmt 0 discriminator 3
 4974 0186 FB6B     		ldr	r3, [r7, #60]
 4975 0188 5A1C     		adds	r2, r3, #1
 4976 018a FA63     		str	r2, [r7, #60]
 4977 018c BA6B     		ldr	r2, [r7, #56]
 4978 018e D2B2     		uxtb	r2, r2
 4979 0190 62F07F02 		orn	r2, r2, #127
 4980 0194 D2B2     		uxtb	r2, r2
 4981 0196 1A70     		strb	r2, [r3]
 4982 0198 BB6B     		ldr	r3, [r7, #56]
 4983 019a DB09     		lsrs	r3, r3, #7
 4984 019c BB63     		str	r3, [r7, #56]
 4985              	.L288:
 4986              		.loc 1 1605 0 discriminator 1
 4987 019e BB6B     		ldr	r3, [r7, #56]
 4988 01a0 7F2B     		cmp	r3, #127
 4989 01a2 F0D8     		bhi	.L289
 4990              		.loc 1 1605 0 discriminator 4
 4991 01a4 FB6B     		ldr	r3, [r7, #60]
 4992 01a6 5A1C     		adds	r2, r3, #1
 4993 01a8 FA63     		str	r2, [r7, #60]
 4994 01aa BA6B     		ldr	r2, [r7, #56]
 4995 01ac D2B2     		uxtb	r2, r2
 4996 01ae 1A70     		strb	r2, [r3]
 4997 01b0 FB6B     		ldr	r3, [r7, #60]
 4998 01b2 7B61     		str	r3, [r7, #20]
 4999              	.LBE77:
 5000              	.LBB78:
1606:../../../SystemView/SEGGER/SEGGER_SYSVIEW.c ****   ENCODE_U32(pPayload, Para7);
 5001              		.loc 1 1606 0 is_stmt 1 discriminator 4
 5002 01b4 7B69     		ldr	r3, [r7, #20]
 5003 01b6 7B63     		str	r3, [r7, #52]
 5004 01b8 D7F88830 		ldr	r3, [r7, #136]
 5005 01bc 3B63     		str	r3, [r7, #48]
 5006 01be 0BE0     		b	.L290
 5007              	.L291:
 5008              		.loc 1 1606 0 is_stmt 0 discriminator 3
 5009 01c0 7B6B     		ldr	r3, [r7, #52]
 5010 01c2 5A1C     		adds	r2, r3, #1
 5011 01c4 7A63     		str	r2, [r7, #52]
 5012 01c6 3A6B     		ldr	r2, [r7, #48]
 5013 01c8 D2B2     		uxtb	r2, r2
 5014 01ca 62F07F02 		orn	r2, r2, #127
 5015 01ce D2B2     		uxtb	r2, r2
 5016 01d0 1A70     		strb	r2, [r3]
 5017 01d2 3B6B     		ldr	r3, [r7, #48]
 5018 01d4 DB09     		lsrs	r3, r3, #7
ARM GAS  /tmp/ccJhHFds.s 			page 117


 5019 01d6 3B63     		str	r3, [r7, #48]
 5020              	.L290:
 5021              		.loc 1 1606 0 discriminator 1
 5022 01d8 3B6B     		ldr	r3, [r7, #48]
 5023 01da 7F2B     		cmp	r3, #127
 5024 01dc F0D8     		bhi	.L291
 5025              		.loc 1 1606 0 discriminator 4
 5026 01de 7B6B     		ldr	r3, [r7, #52]
 5027 01e0 5A1C     		adds	r2, r3, #1
 5028 01e2 7A63     		str	r2, [r7, #52]
 5029 01e4 3A6B     		ldr	r2, [r7, #48]
 5030 01e6 D2B2     		uxtb	r2, r2
 5031 01e8 1A70     		strb	r2, [r3]
 5032 01ea 7B6B     		ldr	r3, [r7, #52]
 5033 01ec 7B61     		str	r3, [r7, #20]
 5034              	.LBE78:
 5035              	.LBB79:
1607:../../../SystemView/SEGGER/SEGGER_SYSVIEW.c ****   ENCODE_U32(pPayload, Para8);
 5036              		.loc 1 1607 0 is_stmt 1 discriminator 4
 5037 01ee 7B69     		ldr	r3, [r7, #20]
 5038 01f0 FB62     		str	r3, [r7, #44]
 5039 01f2 D7F88C30 		ldr	r3, [r7, #140]
 5040 01f6 BB62     		str	r3, [r7, #40]
 5041 01f8 0BE0     		b	.L292
 5042              	.L293:
 5043              		.loc 1 1607 0 is_stmt 0 discriminator 3
 5044 01fa FB6A     		ldr	r3, [r7, #44]
 5045 01fc 5A1C     		adds	r2, r3, #1
 5046 01fe FA62     		str	r2, [r7, #44]
 5047 0200 BA6A     		ldr	r2, [r7, #40]
 5048 0202 D2B2     		uxtb	r2, r2
 5049 0204 62F07F02 		orn	r2, r2, #127
 5050 0208 D2B2     		uxtb	r2, r2
 5051 020a 1A70     		strb	r2, [r3]
 5052 020c BB6A     		ldr	r3, [r7, #40]
 5053 020e DB09     		lsrs	r3, r3, #7
 5054 0210 BB62     		str	r3, [r7, #40]
 5055              	.L292:
 5056              		.loc 1 1607 0 discriminator 1
 5057 0212 BB6A     		ldr	r3, [r7, #40]
 5058 0214 7F2B     		cmp	r3, #127
 5059 0216 F0D8     		bhi	.L293
 5060              		.loc 1 1607 0 discriminator 4
 5061 0218 FB6A     		ldr	r3, [r7, #44]
 5062 021a 5A1C     		adds	r2, r3, #1
 5063 021c FA62     		str	r2, [r7, #44]
 5064 021e BA6A     		ldr	r2, [r7, #40]
 5065 0220 D2B2     		uxtb	r2, r2
 5066 0222 1A70     		strb	r2, [r3]
 5067 0224 FB6A     		ldr	r3, [r7, #44]
 5068 0226 7B61     		str	r3, [r7, #20]
 5069              	.LBE79:
 5070              	.LBB80:
1608:../../../SystemView/SEGGER/SEGGER_SYSVIEW.c ****   ENCODE_U32(pPayload, Para9);
 5071              		.loc 1 1608 0 is_stmt 1 discriminator 4
 5072 0228 7B69     		ldr	r3, [r7, #20]
 5073 022a 7B62     		str	r3, [r7, #36]
ARM GAS  /tmp/ccJhHFds.s 			page 118


 5074 022c D7F89030 		ldr	r3, [r7, #144]
 5075 0230 3B62     		str	r3, [r7, #32]
 5076 0232 0BE0     		b	.L294
 5077              	.L295:
 5078              		.loc 1 1608 0 is_stmt 0 discriminator 3
 5079 0234 7B6A     		ldr	r3, [r7, #36]
 5080 0236 5A1C     		adds	r2, r3, #1
 5081 0238 7A62     		str	r2, [r7, #36]
 5082 023a 3A6A     		ldr	r2, [r7, #32]
 5083 023c D2B2     		uxtb	r2, r2
 5084 023e 62F07F02 		orn	r2, r2, #127
 5085 0242 D2B2     		uxtb	r2, r2
 5086 0244 1A70     		strb	r2, [r3]
 5087 0246 3B6A     		ldr	r3, [r7, #32]
 5088 0248 DB09     		lsrs	r3, r3, #7
 5089 024a 3B62     		str	r3, [r7, #32]
 5090              	.L294:
 5091              		.loc 1 1608 0 discriminator 1
 5092 024c 3B6A     		ldr	r3, [r7, #32]
 5093 024e 7F2B     		cmp	r3, #127
 5094 0250 F0D8     		bhi	.L295
 5095              		.loc 1 1608 0 discriminator 4
 5096 0252 7B6A     		ldr	r3, [r7, #36]
 5097 0254 5A1C     		adds	r2, r3, #1
 5098 0256 7A62     		str	r2, [r7, #36]
 5099 0258 3A6A     		ldr	r2, [r7, #32]
 5100 025a D2B2     		uxtb	r2, r2
 5101 025c 1A70     		strb	r2, [r3]
 5102 025e 7B6A     		ldr	r3, [r7, #36]
 5103 0260 7B61     		str	r3, [r7, #20]
 5104              	.LBE80:
1609:../../../SystemView/SEGGER/SEGGER_SYSVIEW.c ****   _SendPacket(pPayloadStart, pPayload, EventID);
 5105              		.loc 1 1609 0 is_stmt 1 discriminator 4
 5106 0262 B869     		ldr	r0, [r7, #24]
 5107 0264 7969     		ldr	r1, [r7, #20]
 5108 0266 FA68     		ldr	r2, [r7, #12]
 5109 0268 FFF7FEFF 		bl	_SendPacket
1610:../../../SystemView/SEGGER/SEGGER_SYSVIEW.c ****   RECORD_END();
 5110              		.loc 1 1610 0 discriminator 4
 5111 026c FB69     		ldr	r3, [r7, #28]
 5112              	@ 1610 "../../../SystemView/SEGGER/SEGGER_SYSVIEW.c" 1
 5113 026e 83F31188 		msr   basepri, r3  
 5114              		
 5115              	@ 0 "" 2
 5116              		.thumb
 5117              	.LBE70:
1611:../../../SystemView/SEGGER/SEGGER_SYSVIEW.c **** }
 5118              		.loc 1 1611 0 discriminator 4
 5119 0272 7037     		adds	r7, r7, #112
 5120              	.LCFI122:
 5121              		.cfi_def_cfa_offset 8
 5122 0274 BD46     		mov	sp, r7
 5123              	.LCFI123:
 5124              		.cfi_def_cfa_register 13
 5125              		@ sp needed
 5126 0276 80BD     		pop	{r7, pc}
 5127              	.L297:
ARM GAS  /tmp/ccJhHFds.s 			page 119


 5128              		.align	2
 5129              	.L296:
 5130 0278 00000000 		.word	_aPacket
 5131              		.cfi_endproc
 5132              	.LFE23:
 5134              		.section	.text.SEGGER_SYSVIEW_RecordString,"ax",%progbits
 5135              		.align	2
 5136              		.global	SEGGER_SYSVIEW_RecordString
 5137              		.thumb
 5138              		.thumb_func
 5140              	SEGGER_SYSVIEW_RecordString:
 5141              	.LFB24:
1612:../../../SystemView/SEGGER/SEGGER_SYSVIEW.c **** /*********************************************************************
1613:../../../SystemView/SEGGER/SEGGER_SYSVIEW.c **** *
1614:../../../SystemView/SEGGER/SEGGER_SYSVIEW.c **** *       SEGGER_SYSVIEW_RecordString()
1615:../../../SystemView/SEGGER/SEGGER_SYSVIEW.c **** *
1616:../../../SystemView/SEGGER/SEGGER_SYSVIEW.c **** *  Function description
1617:../../../SystemView/SEGGER/SEGGER_SYSVIEW.c **** *    Formats and sends a SystemView packet containing a string.
1618:../../../SystemView/SEGGER/SEGGER_SYSVIEW.c **** *
1619:../../../SystemView/SEGGER/SEGGER_SYSVIEW.c **** *  Parameters
1620:../../../SystemView/SEGGER/SEGGER_SYSVIEW.c **** *    EventID - SystemView event ID.
1621:../../../SystemView/SEGGER/SEGGER_SYSVIEW.c **** *    pString - The string to be sent in the SystemView packet payload.
1622:../../../SystemView/SEGGER/SEGGER_SYSVIEW.c **** *
1623:../../../SystemView/SEGGER/SEGGER_SYSVIEW.c **** *  Additional information
1624:../../../SystemView/SEGGER/SEGGER_SYSVIEW.c **** *    The string is encoded as a count byte followed by the contents
1625:../../../SystemView/SEGGER/SEGGER_SYSVIEW.c **** *    of the string.
1626:../../../SystemView/SEGGER/SEGGER_SYSVIEW.c **** *    No more than SEGGER_SYSVIEW_MAX_STRING_LEN bytes will be encoded to the payload.
1627:../../../SystemView/SEGGER/SEGGER_SYSVIEW.c **** */
1628:../../../SystemView/SEGGER/SEGGER_SYSVIEW.c **** void SEGGER_SYSVIEW_RecordString(unsigned int EventID, const char* pString) {
 5142              		.loc 1 1628 0
 5143              		.cfi_startproc
 5144              		@ args = 0, pretend = 0, frame = 24
 5145              		@ frame_needed = 1, uses_anonymous_args = 0
 5146 0000 80B5     		push	{r7, lr}
 5147              	.LCFI124:
 5148              		.cfi_def_cfa_offset 8
 5149              		.cfi_offset 7, -8
 5150              		.cfi_offset 14, -4
 5151 0002 86B0     		sub	sp, sp, #24
 5152              	.LCFI125:
 5153              		.cfi_def_cfa_offset 32
 5154 0004 00AF     		add	r7, sp, #0
 5155              	.LCFI126:
 5156              		.cfi_def_cfa_register 7
 5157 0006 7860     		str	r0, [r7, #4]
 5158 0008 3960     		str	r1, [r7]
 5159              	.LBB81:
1629:../../../SystemView/SEGGER/SEGGER_SYSVIEW.c ****   U8* pPayload;
1630:../../../SystemView/SEGGER/SEGGER_SYSVIEW.c ****   U8* pPayloadStart;
1631:../../../SystemView/SEGGER/SEGGER_SYSVIEW.c ****   RECORD_START(SEGGER_SYSVIEW_INFO_SIZE + 1 + SEGGER_SYSVIEW_MAX_STRING_LEN);
 5160              		.loc 1 1631 0
 5161              	@ 1631 "../../../SystemView/SEGGER/SEGGER_SYSVIEW.c" 1
 5162 000a EFF31183 		mrs   r3, basepri  
 5163 000e 4FF02001 		mov   r1, #32       
 5164 0012 81F31188 		msr   basepri, r1  
 5165              		
 5166              	@ 0 "" 2
ARM GAS  /tmp/ccJhHFds.s 			page 120


 5167              		.thumb
 5168 0016 7B61     		str	r3, [r7, #20]
 5169 0018 0A48     		ldr	r0, .L299
 5170 001a FFF7FEFF 		bl	_PreparePacket
 5171 001e 3861     		str	r0, [r7, #16]
1632:../../../SystemView/SEGGER/SEGGER_SYSVIEW.c ****   //
1633:../../../SystemView/SEGGER/SEGGER_SYSVIEW.c ****   pPayload = _EncodeStr(pPayloadStart, pString, SEGGER_SYSVIEW_MAX_STRING_LEN);
 5172              		.loc 1 1633 0
 5173 0020 3869     		ldr	r0, [r7, #16]
 5174 0022 3968     		ldr	r1, [r7]
 5175 0024 8022     		movs	r2, #128
 5176 0026 FFF7FEFF 		bl	_EncodeStr
 5177 002a F860     		str	r0, [r7, #12]
1634:../../../SystemView/SEGGER/SEGGER_SYSVIEW.c ****   _SendPacket(pPayloadStart, pPayload, EventID);
 5178              		.loc 1 1634 0
 5179 002c 3869     		ldr	r0, [r7, #16]
 5180 002e F968     		ldr	r1, [r7, #12]
 5181 0030 7A68     		ldr	r2, [r7, #4]
 5182 0032 FFF7FEFF 		bl	_SendPacket
1635:../../../SystemView/SEGGER/SEGGER_SYSVIEW.c ****   RECORD_END();
 5183              		.loc 1 1635 0
 5184 0036 7B69     		ldr	r3, [r7, #20]
 5185              	@ 1635 "../../../SystemView/SEGGER/SEGGER_SYSVIEW.c" 1
 5186 0038 83F31188 		msr   basepri, r3  
 5187              		
 5188              	@ 0 "" 2
 5189              		.thumb
 5190              	.LBE81:
1636:../../../SystemView/SEGGER/SEGGER_SYSVIEW.c **** }
 5191              		.loc 1 1636 0
 5192 003c 1837     		adds	r7, r7, #24
 5193              	.LCFI127:
 5194              		.cfi_def_cfa_offset 8
 5195 003e BD46     		mov	sp, r7
 5196              	.LCFI128:
 5197              		.cfi_def_cfa_register 13
 5198              		@ sp needed
 5199 0040 80BD     		pop	{r7, pc}
 5200              	.L300:
 5201 0042 00BF     		.align	2
 5202              	.L299:
 5203 0044 00000000 		.word	_aPacket
 5204              		.cfi_endproc
 5205              	.LFE24:
 5207              		.section	.text.SEGGER_SYSVIEW_Start,"ax",%progbits
 5208              		.align	2
 5209              		.global	SEGGER_SYSVIEW_Start
 5210              		.thumb
 5211              		.thumb_func
 5213              	SEGGER_SYSVIEW_Start:
 5214              	.LFB25:
1637:../../../SystemView/SEGGER/SEGGER_SYSVIEW.c **** 
1638:../../../SystemView/SEGGER/SEGGER_SYSVIEW.c **** /*********************************************************************
1639:../../../SystemView/SEGGER/SEGGER_SYSVIEW.c **** *
1640:../../../SystemView/SEGGER/SEGGER_SYSVIEW.c **** *       SEGGER_SYSVIEW_Start()
1641:../../../SystemView/SEGGER/SEGGER_SYSVIEW.c **** *
1642:../../../SystemView/SEGGER/SEGGER_SYSVIEW.c **** *  Function description
ARM GAS  /tmp/ccJhHFds.s 			page 121


1643:../../../SystemView/SEGGER/SEGGER_SYSVIEW.c **** *    Start recording SystemView events.
1644:../../../SystemView/SEGGER/SEGGER_SYSVIEW.c **** *    This function is triggered by the host application.
1645:../../../SystemView/SEGGER/SEGGER_SYSVIEW.c **** *
1646:../../../SystemView/SEGGER/SEGGER_SYSVIEW.c **** *  Additional information
1647:../../../SystemView/SEGGER/SEGGER_SYSVIEW.c **** *    This function enables transmission of SystemView packets recorded
1648:../../../SystemView/SEGGER/SEGGER_SYSVIEW.c **** *    by subsequent trace calls and records a SystemView Start event.
1649:../../../SystemView/SEGGER/SEGGER_SYSVIEW.c **** *
1650:../../../SystemView/SEGGER/SEGGER_SYSVIEW.c **** *    As part of start, a SystemView Init packet is sent, containing the system
1651:../../../SystemView/SEGGER/SEGGER_SYSVIEW.c **** *    frequency. The list of current tasks, the current system time and the
1652:../../../SystemView/SEGGER/SEGGER_SYSVIEW.c **** *    system description string is sent, too.
1653:../../../SystemView/SEGGER/SEGGER_SYSVIEW.c **** *
1654:../../../SystemView/SEGGER/SEGGER_SYSVIEW.c **** *  Notes
1655:../../../SystemView/SEGGER/SEGGER_SYSVIEW.c **** *    SEGGER_SYSVIEW_Start and SEGGER_SYSVIEW_Stop do not nest.
1656:../../../SystemView/SEGGER/SEGGER_SYSVIEW.c **** */
1657:../../../SystemView/SEGGER/SEGGER_SYSVIEW.c **** void SEGGER_SYSVIEW_Start(void) {
 5215              		.loc 1 1657 0
 5216              		.cfi_startproc
 5217              		@ args = 0, pretend = 0, frame = 48
 5218              		@ frame_needed = 1, uses_anonymous_args = 0
 5219 0000 80B5     		push	{r7, lr}
 5220              	.LCFI129:
 5221              		.cfi_def_cfa_offset 8
 5222              		.cfi_offset 7, -8
 5223              		.cfi_offset 14, -4
 5224 0002 8CB0     		sub	sp, sp, #48
 5225              	.LCFI130:
 5226              		.cfi_def_cfa_offset 56
 5227 0004 00AF     		add	r7, sp, #0
 5228              	.LCFI131:
 5229              		.cfi_def_cfa_register 7
1658:../../../SystemView/SEGGER/SEGGER_SYSVIEW.c ****   if (_SYSVIEW_Globals.EnableState == 0) {
 5230              		.loc 1 1658 0
 5231 0006 594B     		ldr	r3, .L312
 5232 0008 1B78     		ldrb	r3, [r3]	@ zero_extendqisi2
 5233 000a 002B     		cmp	r3, #0
 5234 000c 40F0AA80 		bne	.L301
1659:../../../SystemView/SEGGER/SEGGER_SYSVIEW.c ****     _SYSVIEW_Globals.EnableState = 1;
 5235              		.loc 1 1659 0
 5236 0010 564B     		ldr	r3, .L312
 5237 0012 0122     		movs	r2, #1
 5238 0014 1A70     		strb	r2, [r3]
 5239              	.LBB82:
1660:../../../SystemView/SEGGER/SEGGER_SYSVIEW.c **** #if (SEGGER_SYSVIEW_POST_MORTEM_MODE == 1)
1661:../../../SystemView/SEGGER/SEGGER_SYSVIEW.c ****     _SendSyncInfo();
1662:../../../SystemView/SEGGER/SEGGER_SYSVIEW.c **** #else
1663:../../../SystemView/SEGGER/SEGGER_SYSVIEW.c ****     SEGGER_SYSVIEW_LOCK();
 5240              		.loc 1 1663 0
 5241              	@ 1663 "../../../SystemView/SEGGER/SEGGER_SYSVIEW.c" 1
 5242 0016 EFF31183 		mrs   r3, basepri  
 5243 001a 4FF02001 		mov   r1, #32       
 5244 001e 81F31188 		msr   basepri, r1  
 5245              		
 5246              	@ 0 "" 2
 5247              		.thumb
 5248 0022 FB60     		str	r3, [r7, #12]
1664:../../../SystemView/SEGGER/SEGGER_SYSVIEW.c ****     SEGGER_RTT_WriteSkipNoLock(CHANNEL_ID_UP, _abSync, 10);
 5249              		.loc 1 1664 0
ARM GAS  /tmp/ccJhHFds.s 			page 122


 5250 0024 0120     		movs	r0, #1
 5251 0026 5249     		ldr	r1, .L312+4
 5252 0028 0A22     		movs	r2, #10
 5253 002a FFF7FEFF 		bl	SEGGER_RTT_WriteSkipNoLock
1665:../../../SystemView/SEGGER/SEGGER_SYSVIEW.c ****     SEGGER_SYSVIEW_UNLOCK();
 5254              		.loc 1 1665 0
 5255 002e FB68     		ldr	r3, [r7, #12]
 5256              	@ 1665 "../../../SystemView/SEGGER/SEGGER_SYSVIEW.c" 1
 5257 0030 83F31188 		msr   basepri, r3  
 5258              		
 5259              	@ 0 "" 2
 5260              		.thumb
 5261              	.LBE82:
1666:../../../SystemView/SEGGER/SEGGER_SYSVIEW.c ****     SEGGER_SYSVIEW_RecordVoid(SYSVIEW_EVTID_TRACE_START);
 5262              		.loc 1 1666 0
 5263 0034 0A20     		movs	r0, #10
 5264 0036 FFF7FEFF 		bl	SEGGER_SYSVIEW_RecordVoid
 5265              	.LBB83:
 5266              	.LBB84:
1667:../../../SystemView/SEGGER/SEGGER_SYSVIEW.c ****     {
1668:../../../SystemView/SEGGER/SEGGER_SYSVIEW.c ****       U8* pPayload;
1669:../../../SystemView/SEGGER/SEGGER_SYSVIEW.c ****       U8* pPayloadStart;
1670:../../../SystemView/SEGGER/SEGGER_SYSVIEW.c ****       RECORD_START(SEGGER_SYSVIEW_INFO_SIZE + 4 * SEGGER_SYSVIEW_QUANTA_U32);
 5267              		.loc 1 1670 0
 5268              	@ 1670 "../../../SystemView/SEGGER/SEGGER_SYSVIEW.c" 1
 5269 003a EFF31183 		mrs   r3, basepri  
 5270 003e 4FF02001 		mov   r1, #32       
 5271 0042 81F31188 		msr   basepri, r1  
 5272              		
 5273              	@ 0 "" 2
 5274              		.thumb
 5275 0046 BB60     		str	r3, [r7, #8]
 5276 0048 4A48     		ldr	r0, .L312+8
 5277 004a FFF7FEFF 		bl	_PreparePacket
 5278 004e 7860     		str	r0, [r7, #4]
1671:../../../SystemView/SEGGER/SEGGER_SYSVIEW.c ****       //
1672:../../../SystemView/SEGGER/SEGGER_SYSVIEW.c ****       pPayload = pPayloadStart;
 5279              		.loc 1 1672 0
 5280 0050 7B68     		ldr	r3, [r7, #4]
 5281 0052 3B60     		str	r3, [r7]
 5282              	.LBB85:
1673:../../../SystemView/SEGGER/SEGGER_SYSVIEW.c ****       ENCODE_U32(pPayload, _SYSVIEW_Globals.SysFreq);
 5283              		.loc 1 1673 0
 5284 0054 3B68     		ldr	r3, [r7]
 5285 0056 FB62     		str	r3, [r7, #44]
 5286 0058 444B     		ldr	r3, .L312
 5287 005a 5B68     		ldr	r3, [r3, #4]
 5288 005c BB62     		str	r3, [r7, #40]
 5289 005e 0BE0     		b	.L303
 5290              	.L304:
 5291              		.loc 1 1673 0 is_stmt 0 discriminator 3
 5292 0060 FB6A     		ldr	r3, [r7, #44]
 5293 0062 5A1C     		adds	r2, r3, #1
 5294 0064 FA62     		str	r2, [r7, #44]
 5295 0066 BA6A     		ldr	r2, [r7, #40]
 5296 0068 D2B2     		uxtb	r2, r2
 5297 006a 62F07F02 		orn	r2, r2, #127
ARM GAS  /tmp/ccJhHFds.s 			page 123


 5298 006e D2B2     		uxtb	r2, r2
 5299 0070 1A70     		strb	r2, [r3]
 5300 0072 BB6A     		ldr	r3, [r7, #40]
 5301 0074 DB09     		lsrs	r3, r3, #7
 5302 0076 BB62     		str	r3, [r7, #40]
 5303              	.L303:
 5304              		.loc 1 1673 0 discriminator 1
 5305 0078 BB6A     		ldr	r3, [r7, #40]
 5306 007a 7F2B     		cmp	r3, #127
 5307 007c F0D8     		bhi	.L304
 5308              		.loc 1 1673 0 discriminator 4
 5309 007e FB6A     		ldr	r3, [r7, #44]
 5310 0080 5A1C     		adds	r2, r3, #1
 5311 0082 FA62     		str	r2, [r7, #44]
 5312 0084 BA6A     		ldr	r2, [r7, #40]
 5313 0086 D2B2     		uxtb	r2, r2
 5314 0088 1A70     		strb	r2, [r3]
 5315 008a FB6A     		ldr	r3, [r7, #44]
 5316 008c 3B60     		str	r3, [r7]
 5317              	.LBE85:
 5318              	.LBB86:
1674:../../../SystemView/SEGGER/SEGGER_SYSVIEW.c ****       ENCODE_U32(pPayload, _SYSVIEW_Globals.CPUFreq);
 5319              		.loc 1 1674 0 is_stmt 1 discriminator 4
 5320 008e 3B68     		ldr	r3, [r7]
 5321 0090 7B62     		str	r3, [r7, #36]
 5322 0092 364B     		ldr	r3, .L312
 5323 0094 9B68     		ldr	r3, [r3, #8]
 5324 0096 3B62     		str	r3, [r7, #32]
 5325 0098 0BE0     		b	.L305
 5326              	.L306:
 5327              		.loc 1 1674 0 is_stmt 0 discriminator 3
 5328 009a 7B6A     		ldr	r3, [r7, #36]
 5329 009c 5A1C     		adds	r2, r3, #1
 5330 009e 7A62     		str	r2, [r7, #36]
 5331 00a0 3A6A     		ldr	r2, [r7, #32]
 5332 00a2 D2B2     		uxtb	r2, r2
 5333 00a4 62F07F02 		orn	r2, r2, #127
 5334 00a8 D2B2     		uxtb	r2, r2
 5335 00aa 1A70     		strb	r2, [r3]
 5336 00ac 3B6A     		ldr	r3, [r7, #32]
 5337 00ae DB09     		lsrs	r3, r3, #7
 5338 00b0 3B62     		str	r3, [r7, #32]
 5339              	.L305:
 5340              		.loc 1 1674 0 discriminator 1
 5341 00b2 3B6A     		ldr	r3, [r7, #32]
 5342 00b4 7F2B     		cmp	r3, #127
 5343 00b6 F0D8     		bhi	.L306
 5344              		.loc 1 1674 0 discriminator 4
 5345 00b8 7B6A     		ldr	r3, [r7, #36]
 5346 00ba 5A1C     		adds	r2, r3, #1
 5347 00bc 7A62     		str	r2, [r7, #36]
 5348 00be 3A6A     		ldr	r2, [r7, #32]
 5349 00c0 D2B2     		uxtb	r2, r2
 5350 00c2 1A70     		strb	r2, [r3]
 5351 00c4 7B6A     		ldr	r3, [r7, #36]
 5352 00c6 3B60     		str	r3, [r7]
 5353              	.LBE86:
ARM GAS  /tmp/ccJhHFds.s 			page 124


 5354              	.LBB87:
1675:../../../SystemView/SEGGER/SEGGER_SYSVIEW.c ****       ENCODE_U32(pPayload, _SYSVIEW_Globals.RAMBaseAddress);
 5355              		.loc 1 1675 0 is_stmt 1 discriminator 4
 5356 00c8 3B68     		ldr	r3, [r7]
 5357 00ca FB61     		str	r3, [r7, #28]
 5358 00cc 274B     		ldr	r3, .L312
 5359 00ce 1B69     		ldr	r3, [r3, #16]
 5360 00d0 BB61     		str	r3, [r7, #24]
 5361 00d2 0BE0     		b	.L307
 5362              	.L308:
 5363              		.loc 1 1675 0 is_stmt 0 discriminator 3
 5364 00d4 FB69     		ldr	r3, [r7, #28]
 5365 00d6 5A1C     		adds	r2, r3, #1
 5366 00d8 FA61     		str	r2, [r7, #28]
 5367 00da BA69     		ldr	r2, [r7, #24]
 5368 00dc D2B2     		uxtb	r2, r2
 5369 00de 62F07F02 		orn	r2, r2, #127
 5370 00e2 D2B2     		uxtb	r2, r2
 5371 00e4 1A70     		strb	r2, [r3]
 5372 00e6 BB69     		ldr	r3, [r7, #24]
 5373 00e8 DB09     		lsrs	r3, r3, #7
 5374 00ea BB61     		str	r3, [r7, #24]
 5375              	.L307:
 5376              		.loc 1 1675 0 discriminator 1
 5377 00ec BB69     		ldr	r3, [r7, #24]
 5378 00ee 7F2B     		cmp	r3, #127
 5379 00f0 F0D8     		bhi	.L308
 5380              		.loc 1 1675 0 discriminator 4
 5381 00f2 FB69     		ldr	r3, [r7, #28]
 5382 00f4 5A1C     		adds	r2, r3, #1
 5383 00f6 FA61     		str	r2, [r7, #28]
 5384 00f8 BA69     		ldr	r2, [r7, #24]
 5385 00fa D2B2     		uxtb	r2, r2
 5386 00fc 1A70     		strb	r2, [r3]
 5387 00fe FB69     		ldr	r3, [r7, #28]
 5388 0100 3B60     		str	r3, [r7]
 5389              	.LBE87:
 5390              	.LBB88:
1676:../../../SystemView/SEGGER/SEGGER_SYSVIEW.c ****       ENCODE_U32(pPayload, SEGGER_SYSVIEW_ID_SHIFT);
 5391              		.loc 1 1676 0 is_stmt 1 discriminator 4
 5392 0102 3B68     		ldr	r3, [r7]
 5393 0104 7B61     		str	r3, [r7, #20]
 5394 0106 0223     		movs	r3, #2
 5395 0108 3B61     		str	r3, [r7, #16]
 5396 010a 0BE0     		b	.L309
 5397              	.L310:
 5398              		.loc 1 1676 0 is_stmt 0 discriminator 3
 5399 010c 7B69     		ldr	r3, [r7, #20]
 5400 010e 5A1C     		adds	r2, r3, #1
 5401 0110 7A61     		str	r2, [r7, #20]
 5402 0112 3A69     		ldr	r2, [r7, #16]
 5403 0114 D2B2     		uxtb	r2, r2
 5404 0116 62F07F02 		orn	r2, r2, #127
 5405 011a D2B2     		uxtb	r2, r2
 5406 011c 1A70     		strb	r2, [r3]
 5407 011e 3B69     		ldr	r3, [r7, #16]
 5408 0120 DB09     		lsrs	r3, r3, #7
ARM GAS  /tmp/ccJhHFds.s 			page 125


 5409 0122 3B61     		str	r3, [r7, #16]
 5410              	.L309:
 5411              		.loc 1 1676 0 discriminator 1
 5412 0124 3B69     		ldr	r3, [r7, #16]
 5413 0126 7F2B     		cmp	r3, #127
 5414 0128 F0D8     		bhi	.L310
 5415              		.loc 1 1676 0 discriminator 4
 5416 012a 7B69     		ldr	r3, [r7, #20]
 5417 012c 5A1C     		adds	r2, r3, #1
 5418 012e 7A61     		str	r2, [r7, #20]
 5419 0130 3A69     		ldr	r2, [r7, #16]
 5420 0132 D2B2     		uxtb	r2, r2
 5421 0134 1A70     		strb	r2, [r3]
 5422 0136 7B69     		ldr	r3, [r7, #20]
 5423 0138 3B60     		str	r3, [r7]
 5424              	.LBE88:
1677:../../../SystemView/SEGGER/SEGGER_SYSVIEW.c ****       _SendPacket(pPayloadStart, pPayload, SYSVIEW_EVTID_INIT);
 5425              		.loc 1 1677 0 is_stmt 1 discriminator 4
 5426 013a 7868     		ldr	r0, [r7, #4]
 5427 013c 3968     		ldr	r1, [r7]
 5428 013e 1822     		movs	r2, #24
 5429 0140 FFF7FEFF 		bl	_SendPacket
1678:../../../SystemView/SEGGER/SEGGER_SYSVIEW.c ****       RECORD_END();
 5430              		.loc 1 1678 0 discriminator 4
 5431 0144 BB68     		ldr	r3, [r7, #8]
 5432              	@ 1678 "../../../SystemView/SEGGER/SEGGER_SYSVIEW.c" 1
 5433 0146 83F31188 		msr   basepri, r3  
 5434              		
 5435              	@ 0 "" 2
 5436              		.thumb
 5437              	.LBE84:
 5438              	.LBE83:
1679:../../../SystemView/SEGGER/SEGGER_SYSVIEW.c ****     }
1680:../../../SystemView/SEGGER/SEGGER_SYSVIEW.c ****     if (_SYSVIEW_Globals.pfSendSysDesc) {
 5439              		.loc 1 1680 0 discriminator 4
 5440 014a 084B     		ldr	r3, .L312
 5441 014c 5B6A     		ldr	r3, [r3, #36]
 5442 014e 002B     		cmp	r3, #0
 5443 0150 02D0     		beq	.L311
1681:../../../SystemView/SEGGER/SEGGER_SYSVIEW.c ****       _SYSVIEW_Globals.pfSendSysDesc();
 5444              		.loc 1 1681 0
 5445 0152 064B     		ldr	r3, .L312
 5446 0154 5B6A     		ldr	r3, [r3, #36]
 5447 0156 9847     		blx	r3
 5448              	.L311:
1682:../../../SystemView/SEGGER/SEGGER_SYSVIEW.c ****     }
1683:../../../SystemView/SEGGER/SEGGER_SYSVIEW.c ****     SEGGER_SYSVIEW_RecordSystime();
 5449              		.loc 1 1683 0
 5450 0158 FFF7FEFF 		bl	SEGGER_SYSVIEW_RecordSystime
1684:../../../SystemView/SEGGER/SEGGER_SYSVIEW.c ****     SEGGER_SYSVIEW_SendTaskList();
 5451              		.loc 1 1684 0
 5452 015c FFF7FEFF 		bl	SEGGER_SYSVIEW_SendTaskList
1685:../../../SystemView/SEGGER/SEGGER_SYSVIEW.c ****     SEGGER_SYSVIEW_SendNumModules();
 5453              		.loc 1 1685 0
 5454 0160 FFF7FEFF 		bl	SEGGER_SYSVIEW_SendNumModules
 5455              	.L301:
1686:../../../SystemView/SEGGER/SEGGER_SYSVIEW.c **** #endif
ARM GAS  /tmp/ccJhHFds.s 			page 126


1687:../../../SystemView/SEGGER/SEGGER_SYSVIEW.c ****   }
1688:../../../SystemView/SEGGER/SEGGER_SYSVIEW.c **** }
 5456              		.loc 1 1688 0
 5457 0164 3037     		adds	r7, r7, #48
 5458              	.LCFI132:
 5459              		.cfi_def_cfa_offset 8
 5460 0166 BD46     		mov	sp, r7
 5461              	.LCFI133:
 5462              		.cfi_def_cfa_register 13
 5463              		@ sp needed
 5464 0168 80BD     		pop	{r7, pc}
 5465              	.L313:
 5466 016a 00BF     		.align	2
 5467              	.L312:
 5468 016c 00000000 		.word	_SYSVIEW_Globals
 5469 0170 00000000 		.word	_abSync
 5470 0174 00000000 		.word	_aPacket
 5471              		.cfi_endproc
 5472              	.LFE25:
 5474              		.section	.text.SEGGER_SYSVIEW_Stop,"ax",%progbits
 5475              		.align	2
 5476              		.global	SEGGER_SYSVIEW_Stop
 5477              		.thumb
 5478              		.thumb_func
 5480              	SEGGER_SYSVIEW_Stop:
 5481              	.LFB26:
1689:../../../SystemView/SEGGER/SEGGER_SYSVIEW.c **** 
1690:../../../SystemView/SEGGER/SEGGER_SYSVIEW.c **** /*********************************************************************
1691:../../../SystemView/SEGGER/SEGGER_SYSVIEW.c **** *
1692:../../../SystemView/SEGGER/SEGGER_SYSVIEW.c **** *       SEGGER_SYSVIEW_Stop()
1693:../../../SystemView/SEGGER/SEGGER_SYSVIEW.c **** *
1694:../../../SystemView/SEGGER/SEGGER_SYSVIEW.c **** *  Function description
1695:../../../SystemView/SEGGER/SEGGER_SYSVIEW.c **** *    Stop recording SystemView events.
1696:../../../SystemView/SEGGER/SEGGER_SYSVIEW.c **** *
1697:../../../SystemView/SEGGER/SEGGER_SYSVIEW.c **** *  Additional information
1698:../../../SystemView/SEGGER/SEGGER_SYSVIEW.c **** *    This function disables transmission of SystemView packets recorded
1699:../../../SystemView/SEGGER/SEGGER_SYSVIEW.c **** *    by subsequent trace calls.  If transmission is enabled when
1700:../../../SystemView/SEGGER/SEGGER_SYSVIEW.c **** *    this function is called, a single SystemView Stop event is recorded
1701:../../../SystemView/SEGGER/SEGGER_SYSVIEW.c **** *    to the trace, send, and then trace transmission is halted.
1702:../../../SystemView/SEGGER/SEGGER_SYSVIEW.c **** */
1703:../../../SystemView/SEGGER/SEGGER_SYSVIEW.c **** void SEGGER_SYSVIEW_Stop(void) {
 5482              		.loc 1 1703 0
 5483              		.cfi_startproc
 5484              		@ args = 0, pretend = 0, frame = 8
 5485              		@ frame_needed = 1, uses_anonymous_args = 0
 5486 0000 80B5     		push	{r7, lr}
 5487              	.LCFI134:
 5488              		.cfi_def_cfa_offset 8
 5489              		.cfi_offset 7, -8
 5490              		.cfi_offset 14, -4
 5491 0002 82B0     		sub	sp, sp, #8
 5492              	.LCFI135:
 5493              		.cfi_def_cfa_offset 16
 5494 0004 00AF     		add	r7, sp, #0
 5495              	.LCFI136:
 5496              		.cfi_def_cfa_register 7
 5497              	.LBB89:
ARM GAS  /tmp/ccJhHFds.s 			page 127


1704:../../../SystemView/SEGGER/SEGGER_SYSVIEW.c ****   U8* pPayloadStart;
1705:../../../SystemView/SEGGER/SEGGER_SYSVIEW.c ****   RECORD_START(SEGGER_SYSVIEW_INFO_SIZE);
 5498              		.loc 1 1705 0
 5499              	@ 1705 "../../../SystemView/SEGGER/SEGGER_SYSVIEW.c" 1
 5500 0006 EFF31183 		mrs   r3, basepri  
 5501 000a 4FF02001 		mov   r1, #32       
 5502 000e 81F31188 		msr   basepri, r1  
 5503              		
 5504              	@ 0 "" 2
 5505              		.thumb
 5506 0012 7B60     		str	r3, [r7, #4]
 5507 0014 0A48     		ldr	r0, .L316
 5508 0016 FFF7FEFF 		bl	_PreparePacket
 5509 001a 3860     		str	r0, [r7]
1706:../../../SystemView/SEGGER/SEGGER_SYSVIEW.c ****   //
1707:../../../SystemView/SEGGER/SEGGER_SYSVIEW.c ****   if (_SYSVIEW_Globals.EnableState) {
 5510              		.loc 1 1707 0
 5511 001c 094B     		ldr	r3, .L316+4
 5512 001e 1B78     		ldrb	r3, [r3]	@ zero_extendqisi2
 5513 0020 002B     		cmp	r3, #0
 5514 0022 07D0     		beq	.L315
1708:../../../SystemView/SEGGER/SEGGER_SYSVIEW.c ****     _SendPacket(pPayloadStart, pPayloadStart, SYSVIEW_EVTID_TRACE_STOP);
 5515              		.loc 1 1708 0
 5516 0024 3868     		ldr	r0, [r7]
 5517 0026 3968     		ldr	r1, [r7]
 5518 0028 0B22     		movs	r2, #11
 5519 002a FFF7FEFF 		bl	_SendPacket
1709:../../../SystemView/SEGGER/SEGGER_SYSVIEW.c ****     _SYSVIEW_Globals.EnableState = 0;
 5520              		.loc 1 1709 0
 5521 002e 054B     		ldr	r3, .L316+4
 5522 0030 0022     		movs	r2, #0
 5523 0032 1A70     		strb	r2, [r3]
 5524              	.L315:
1710:../../../SystemView/SEGGER/SEGGER_SYSVIEW.c ****   }
1711:../../../SystemView/SEGGER/SEGGER_SYSVIEW.c ****   RECORD_END();
 5525              		.loc 1 1711 0
 5526 0034 7B68     		ldr	r3, [r7, #4]
 5527              	@ 1711 "../../../SystemView/SEGGER/SEGGER_SYSVIEW.c" 1
 5528 0036 83F31188 		msr   basepri, r3  
 5529              		
 5530              	@ 0 "" 2
 5531              		.thumb
 5532              	.LBE89:
1712:../../../SystemView/SEGGER/SEGGER_SYSVIEW.c **** }
 5533              		.loc 1 1712 0
 5534 003a 0837     		adds	r7, r7, #8
 5535              	.LCFI137:
 5536              		.cfi_def_cfa_offset 8
 5537 003c BD46     		mov	sp, r7
 5538              	.LCFI138:
 5539              		.cfi_def_cfa_register 13
 5540              		@ sp needed
 5541 003e 80BD     		pop	{r7, pc}
 5542              	.L317:
 5543              		.align	2
 5544              	.L316:
 5545 0040 00000000 		.word	_aPacket
ARM GAS  /tmp/ccJhHFds.s 			page 128


 5546 0044 00000000 		.word	_SYSVIEW_Globals
 5547              		.cfi_endproc
 5548              	.LFE26:
 5550              		.section	.text.SEGGER_SYSVIEW_GetSysDesc,"ax",%progbits
 5551              		.align	2
 5552              		.global	SEGGER_SYSVIEW_GetSysDesc
 5553              		.thumb
 5554              		.thumb_func
 5556              	SEGGER_SYSVIEW_GetSysDesc:
 5557              	.LFB27:
1713:../../../SystemView/SEGGER/SEGGER_SYSVIEW.c **** 
1714:../../../SystemView/SEGGER/SEGGER_SYSVIEW.c **** /*********************************************************************
1715:../../../SystemView/SEGGER/SEGGER_SYSVIEW.c **** *
1716:../../../SystemView/SEGGER/SEGGER_SYSVIEW.c **** *       SEGGER_SYSVIEW_GetSysDesc()
1717:../../../SystemView/SEGGER/SEGGER_SYSVIEW.c **** *
1718:../../../SystemView/SEGGER/SEGGER_SYSVIEW.c **** *  Function description
1719:../../../SystemView/SEGGER/SEGGER_SYSVIEW.c **** *    Triggers a send of the system information and description.
1720:../../../SystemView/SEGGER/SEGGER_SYSVIEW.c **** *
1721:../../../SystemView/SEGGER/SEGGER_SYSVIEW.c **** */
1722:../../../SystemView/SEGGER/SEGGER_SYSVIEW.c **** void SEGGER_SYSVIEW_GetSysDesc(void) {
 5558              		.loc 1 1722 0
 5559              		.cfi_startproc
 5560              		@ args = 0, pretend = 0, frame = 48
 5561              		@ frame_needed = 1, uses_anonymous_args = 0
 5562 0000 80B5     		push	{r7, lr}
 5563              	.LCFI139:
 5564              		.cfi_def_cfa_offset 8
 5565              		.cfi_offset 7, -8
 5566              		.cfi_offset 14, -4
 5567 0002 8CB0     		sub	sp, sp, #48
 5568              	.LCFI140:
 5569              		.cfi_def_cfa_offset 56
 5570 0004 00AF     		add	r7, sp, #0
 5571              	.LCFI141:
 5572              		.cfi_def_cfa_register 7
 5573              	.LBB90:
1723:../../../SystemView/SEGGER/SEGGER_SYSVIEW.c ****   U8* pPayload;
1724:../../../SystemView/SEGGER/SEGGER_SYSVIEW.c ****   U8* pPayloadStart;
1725:../../../SystemView/SEGGER/SEGGER_SYSVIEW.c ****   RECORD_START(SEGGER_SYSVIEW_INFO_SIZE + 4 * SEGGER_SYSVIEW_QUANTA_U32);
 5574              		.loc 1 1725 0
 5575              	@ 1725 "../../../SystemView/SEGGER/SEGGER_SYSVIEW.c" 1
 5576 0006 EFF31183 		mrs   r3, basepri  
 5577 000a 4FF02001 		mov   r1, #32       
 5578 000e 81F31188 		msr   basepri, r1  
 5579              		
 5580              	@ 0 "" 2
 5581              		.thumb
 5582 0012 FB60     		str	r3, [r7, #12]
 5583 0014 4548     		ldr	r0, .L328
 5584 0016 FFF7FEFF 		bl	_PreparePacket
 5585 001a B860     		str	r0, [r7, #8]
1726:../../../SystemView/SEGGER/SEGGER_SYSVIEW.c ****   //
1727:../../../SystemView/SEGGER/SEGGER_SYSVIEW.c ****   pPayload = pPayloadStart;
 5586              		.loc 1 1727 0
 5587 001c BB68     		ldr	r3, [r7, #8]
 5588 001e 7B60     		str	r3, [r7, #4]
 5589              	.LBB91:
ARM GAS  /tmp/ccJhHFds.s 			page 129


1728:../../../SystemView/SEGGER/SEGGER_SYSVIEW.c ****   ENCODE_U32(pPayload, _SYSVIEW_Globals.SysFreq);
 5590              		.loc 1 1728 0
 5591 0020 7B68     		ldr	r3, [r7, #4]
 5592 0022 FB62     		str	r3, [r7, #44]
 5593 0024 424B     		ldr	r3, .L328+4
 5594 0026 5B68     		ldr	r3, [r3, #4]
 5595 0028 BB62     		str	r3, [r7, #40]
 5596 002a 0BE0     		b	.L319
 5597              	.L320:
 5598              		.loc 1 1728 0 is_stmt 0 discriminator 3
 5599 002c FB6A     		ldr	r3, [r7, #44]
 5600 002e 5A1C     		adds	r2, r3, #1
 5601 0030 FA62     		str	r2, [r7, #44]
 5602 0032 BA6A     		ldr	r2, [r7, #40]
 5603 0034 D2B2     		uxtb	r2, r2
 5604 0036 62F07F02 		orn	r2, r2, #127
 5605 003a D2B2     		uxtb	r2, r2
 5606 003c 1A70     		strb	r2, [r3]
 5607 003e BB6A     		ldr	r3, [r7, #40]
 5608 0040 DB09     		lsrs	r3, r3, #7
 5609 0042 BB62     		str	r3, [r7, #40]
 5610              	.L319:
 5611              		.loc 1 1728 0 discriminator 1
 5612 0044 BB6A     		ldr	r3, [r7, #40]
 5613 0046 7F2B     		cmp	r3, #127
 5614 0048 F0D8     		bhi	.L320
 5615              		.loc 1 1728 0 discriminator 4
 5616 004a FB6A     		ldr	r3, [r7, #44]
 5617 004c 5A1C     		adds	r2, r3, #1
 5618 004e FA62     		str	r2, [r7, #44]
 5619 0050 BA6A     		ldr	r2, [r7, #40]
 5620 0052 D2B2     		uxtb	r2, r2
 5621 0054 1A70     		strb	r2, [r3]
 5622 0056 FB6A     		ldr	r3, [r7, #44]
 5623 0058 7B60     		str	r3, [r7, #4]
 5624              	.LBE91:
 5625              	.LBB92:
1729:../../../SystemView/SEGGER/SEGGER_SYSVIEW.c ****   ENCODE_U32(pPayload, _SYSVIEW_Globals.CPUFreq);
 5626              		.loc 1 1729 0 is_stmt 1 discriminator 4
 5627 005a 7B68     		ldr	r3, [r7, #4]
 5628 005c 7B62     		str	r3, [r7, #36]
 5629 005e 344B     		ldr	r3, .L328+4
 5630 0060 9B68     		ldr	r3, [r3, #8]
 5631 0062 3B62     		str	r3, [r7, #32]
 5632 0064 0BE0     		b	.L321
 5633              	.L322:
 5634              		.loc 1 1729 0 is_stmt 0 discriminator 3
 5635 0066 7B6A     		ldr	r3, [r7, #36]
 5636 0068 5A1C     		adds	r2, r3, #1
 5637 006a 7A62     		str	r2, [r7, #36]
 5638 006c 3A6A     		ldr	r2, [r7, #32]
 5639 006e D2B2     		uxtb	r2, r2
 5640 0070 62F07F02 		orn	r2, r2, #127
 5641 0074 D2B2     		uxtb	r2, r2
 5642 0076 1A70     		strb	r2, [r3]
 5643 0078 3B6A     		ldr	r3, [r7, #32]
 5644 007a DB09     		lsrs	r3, r3, #7
ARM GAS  /tmp/ccJhHFds.s 			page 130


 5645 007c 3B62     		str	r3, [r7, #32]
 5646              	.L321:
 5647              		.loc 1 1729 0 discriminator 1
 5648 007e 3B6A     		ldr	r3, [r7, #32]
 5649 0080 7F2B     		cmp	r3, #127
 5650 0082 F0D8     		bhi	.L322
 5651              		.loc 1 1729 0 discriminator 4
 5652 0084 7B6A     		ldr	r3, [r7, #36]
 5653 0086 5A1C     		adds	r2, r3, #1
 5654 0088 7A62     		str	r2, [r7, #36]
 5655 008a 3A6A     		ldr	r2, [r7, #32]
 5656 008c D2B2     		uxtb	r2, r2
 5657 008e 1A70     		strb	r2, [r3]
 5658 0090 7B6A     		ldr	r3, [r7, #36]
 5659 0092 7B60     		str	r3, [r7, #4]
 5660              	.LBE92:
 5661              	.LBB93:
1730:../../../SystemView/SEGGER/SEGGER_SYSVIEW.c ****   ENCODE_U32(pPayload, _SYSVIEW_Globals.RAMBaseAddress);
 5662              		.loc 1 1730 0 is_stmt 1 discriminator 4
 5663 0094 7B68     		ldr	r3, [r7, #4]
 5664 0096 FB61     		str	r3, [r7, #28]
 5665 0098 254B     		ldr	r3, .L328+4
 5666 009a 1B69     		ldr	r3, [r3, #16]
 5667 009c BB61     		str	r3, [r7, #24]
 5668 009e 0BE0     		b	.L323
 5669              	.L324:
 5670              		.loc 1 1730 0 is_stmt 0 discriminator 3
 5671 00a0 FB69     		ldr	r3, [r7, #28]
 5672 00a2 5A1C     		adds	r2, r3, #1
 5673 00a4 FA61     		str	r2, [r7, #28]
 5674 00a6 BA69     		ldr	r2, [r7, #24]
 5675 00a8 D2B2     		uxtb	r2, r2
 5676 00aa 62F07F02 		orn	r2, r2, #127
 5677 00ae D2B2     		uxtb	r2, r2
 5678 00b0 1A70     		strb	r2, [r3]
 5679 00b2 BB69     		ldr	r3, [r7, #24]
 5680 00b4 DB09     		lsrs	r3, r3, #7
 5681 00b6 BB61     		str	r3, [r7, #24]
 5682              	.L323:
 5683              		.loc 1 1730 0 discriminator 1
 5684 00b8 BB69     		ldr	r3, [r7, #24]
 5685 00ba 7F2B     		cmp	r3, #127
 5686 00bc F0D8     		bhi	.L324
 5687              		.loc 1 1730 0 discriminator 4
 5688 00be FB69     		ldr	r3, [r7, #28]
 5689 00c0 5A1C     		adds	r2, r3, #1
 5690 00c2 FA61     		str	r2, [r7, #28]
 5691 00c4 BA69     		ldr	r2, [r7, #24]
 5692 00c6 D2B2     		uxtb	r2, r2
 5693 00c8 1A70     		strb	r2, [r3]
 5694 00ca FB69     		ldr	r3, [r7, #28]
 5695 00cc 7B60     		str	r3, [r7, #4]
 5696              	.LBE93:
 5697              	.LBB94:
1731:../../../SystemView/SEGGER/SEGGER_SYSVIEW.c ****   ENCODE_U32(pPayload, SEGGER_SYSVIEW_ID_SHIFT);
 5698              		.loc 1 1731 0 is_stmt 1 discriminator 4
 5699 00ce 7B68     		ldr	r3, [r7, #4]
ARM GAS  /tmp/ccJhHFds.s 			page 131


 5700 00d0 7B61     		str	r3, [r7, #20]
 5701 00d2 0223     		movs	r3, #2
 5702 00d4 3B61     		str	r3, [r7, #16]
 5703 00d6 0BE0     		b	.L325
 5704              	.L326:
 5705              		.loc 1 1731 0 is_stmt 0 discriminator 3
 5706 00d8 7B69     		ldr	r3, [r7, #20]
 5707 00da 5A1C     		adds	r2, r3, #1
 5708 00dc 7A61     		str	r2, [r7, #20]
 5709 00de 3A69     		ldr	r2, [r7, #16]
 5710 00e0 D2B2     		uxtb	r2, r2
 5711 00e2 62F07F02 		orn	r2, r2, #127
 5712 00e6 D2B2     		uxtb	r2, r2
 5713 00e8 1A70     		strb	r2, [r3]
 5714 00ea 3B69     		ldr	r3, [r7, #16]
 5715 00ec DB09     		lsrs	r3, r3, #7
 5716 00ee 3B61     		str	r3, [r7, #16]
 5717              	.L325:
 5718              		.loc 1 1731 0 discriminator 1
 5719 00f0 3B69     		ldr	r3, [r7, #16]
 5720 00f2 7F2B     		cmp	r3, #127
 5721 00f4 F0D8     		bhi	.L326
 5722              		.loc 1 1731 0 discriminator 4
 5723 00f6 7B69     		ldr	r3, [r7, #20]
 5724 00f8 5A1C     		adds	r2, r3, #1
 5725 00fa 7A61     		str	r2, [r7, #20]
 5726 00fc 3A69     		ldr	r2, [r7, #16]
 5727 00fe D2B2     		uxtb	r2, r2
 5728 0100 1A70     		strb	r2, [r3]
 5729 0102 7B69     		ldr	r3, [r7, #20]
 5730 0104 7B60     		str	r3, [r7, #4]
 5731              	.LBE94:
1732:../../../SystemView/SEGGER/SEGGER_SYSVIEW.c ****   _SendPacket(pPayloadStart, pPayload, SYSVIEW_EVTID_INIT);
 5732              		.loc 1 1732 0 is_stmt 1 discriminator 4
 5733 0106 B868     		ldr	r0, [r7, #8]
 5734 0108 7968     		ldr	r1, [r7, #4]
 5735 010a 1822     		movs	r2, #24
 5736 010c FFF7FEFF 		bl	_SendPacket
1733:../../../SystemView/SEGGER/SEGGER_SYSVIEW.c ****   RECORD_END();
 5737              		.loc 1 1733 0 discriminator 4
 5738 0110 FB68     		ldr	r3, [r7, #12]
 5739              	@ 1733 "../../../SystemView/SEGGER/SEGGER_SYSVIEW.c" 1
 5740 0112 83F31188 		msr   basepri, r3  
 5741              		
 5742              	@ 0 "" 2
 5743              		.thumb
 5744              	.LBE90:
1734:../../../SystemView/SEGGER/SEGGER_SYSVIEW.c ****   if (_SYSVIEW_Globals.pfSendSysDesc) {
 5745              		.loc 1 1734 0 discriminator 4
 5746 0116 064B     		ldr	r3, .L328+4
 5747 0118 5B6A     		ldr	r3, [r3, #36]
 5748 011a 002B     		cmp	r3, #0
 5749 011c 02D0     		beq	.L318
1735:../../../SystemView/SEGGER/SEGGER_SYSVIEW.c ****     _SYSVIEW_Globals.pfSendSysDesc();
 5750              		.loc 1 1735 0
 5751 011e 044B     		ldr	r3, .L328+4
 5752 0120 5B6A     		ldr	r3, [r3, #36]
ARM GAS  /tmp/ccJhHFds.s 			page 132


 5753 0122 9847     		blx	r3
 5754              	.L318:
1736:../../../SystemView/SEGGER/SEGGER_SYSVIEW.c ****   }
1737:../../../SystemView/SEGGER/SEGGER_SYSVIEW.c **** }
 5755              		.loc 1 1737 0
 5756 0124 3037     		adds	r7, r7, #48
 5757              	.LCFI142:
 5758              		.cfi_def_cfa_offset 8
 5759 0126 BD46     		mov	sp, r7
 5760              	.LCFI143:
 5761              		.cfi_def_cfa_register 13
 5762              		@ sp needed
 5763 0128 80BD     		pop	{r7, pc}
 5764              	.L329:
 5765 012a 00BF     		.align	2
 5766              	.L328:
 5767 012c 00000000 		.word	_aPacket
 5768 0130 00000000 		.word	_SYSVIEW_Globals
 5769              		.cfi_endproc
 5770              	.LFE27:
 5772              		.section	.text.SEGGER_SYSVIEW_SendTaskInfo,"ax",%progbits
 5773              		.align	2
 5774              		.global	SEGGER_SYSVIEW_SendTaskInfo
 5775              		.thumb
 5776              		.thumb_func
 5778              	SEGGER_SYSVIEW_SendTaskInfo:
 5779              	.LFB28:
1738:../../../SystemView/SEGGER/SEGGER_SYSVIEW.c **** 
1739:../../../SystemView/SEGGER/SEGGER_SYSVIEW.c **** /*********************************************************************
1740:../../../SystemView/SEGGER/SEGGER_SYSVIEW.c **** *
1741:../../../SystemView/SEGGER/SEGGER_SYSVIEW.c **** *       SEGGER_SYSVIEW_SendTaskInfo()
1742:../../../SystemView/SEGGER/SEGGER_SYSVIEW.c **** *
1743:../../../SystemView/SEGGER/SEGGER_SYSVIEW.c **** *  Function description
1744:../../../SystemView/SEGGER/SEGGER_SYSVIEW.c **** *    Send a Task Info Packet, containing TaskId for identification,
1745:../../../SystemView/SEGGER/SEGGER_SYSVIEW.c **** *    task priority and task name.
1746:../../../SystemView/SEGGER/SEGGER_SYSVIEW.c **** *
1747:../../../SystemView/SEGGER/SEGGER_SYSVIEW.c **** *  Parameters
1748:../../../SystemView/SEGGER/SEGGER_SYSVIEW.c **** *    pInfo - Pointer to task information to send.
1749:../../../SystemView/SEGGER/SEGGER_SYSVIEW.c **** */
1750:../../../SystemView/SEGGER/SEGGER_SYSVIEW.c **** void SEGGER_SYSVIEW_SendTaskInfo(const SEGGER_SYSVIEW_TASKINFO *pInfo) {
 5780              		.loc 1 1750 0
 5781              		.cfi_startproc
 5782              		@ args = 0, pretend = 0, frame = 72
 5783              		@ frame_needed = 1, uses_anonymous_args = 0
 5784 0000 80B5     		push	{r7, lr}
 5785              	.LCFI144:
 5786              		.cfi_def_cfa_offset 8
 5787              		.cfi_offset 7, -8
 5788              		.cfi_offset 14, -4
 5789 0002 92B0     		sub	sp, sp, #72
 5790              	.LCFI145:
 5791              		.cfi_def_cfa_offset 80
 5792 0004 00AF     		add	r7, sp, #0
 5793              	.LCFI146:
 5794              		.cfi_def_cfa_register 7
 5795 0006 7860     		str	r0, [r7, #4]
 5796              	.LBB95:
ARM GAS  /tmp/ccJhHFds.s 			page 133


1751:../../../SystemView/SEGGER/SEGGER_SYSVIEW.c ****   U8* pPayload;
1752:../../../SystemView/SEGGER/SEGGER_SYSVIEW.c ****   U8* pPayloadStart;
1753:../../../SystemView/SEGGER/SEGGER_SYSVIEW.c ****   RECORD_START(SEGGER_SYSVIEW_INFO_SIZE + SEGGER_SYSVIEW_QUANTA_U32 + 1 + 32);
 5797              		.loc 1 1753 0
 5798              	@ 1753 "../../../SystemView/SEGGER/SEGGER_SYSVIEW.c" 1
 5799 0008 EFF31183 		mrs   r3, basepri  
 5800 000c 4FF02001 		mov   r1, #32       
 5801 0010 81F31188 		msr   basepri, r1  
 5802              		
 5803              	@ 0 "" 2
 5804              		.thumb
 5805 0014 7B61     		str	r3, [r7, #20]
 5806 0016 6A48     		ldr	r0, .L343
 5807 0018 FFF7FEFF 		bl	_PreparePacket
 5808 001c 3861     		str	r0, [r7, #16]
1754:../../../SystemView/SEGGER/SEGGER_SYSVIEW.c ****   //
1755:../../../SystemView/SEGGER/SEGGER_SYSVIEW.c ****   pPayload = pPayloadStart;
 5809              		.loc 1 1755 0
 5810 001e 3B69     		ldr	r3, [r7, #16]
 5811 0020 FB60     		str	r3, [r7, #12]
 5812              	.LBB96:
1756:../../../SystemView/SEGGER/SEGGER_SYSVIEW.c ****   ENCODE_U32(pPayload, SHRINK_ID(pInfo->TaskID));
 5813              		.loc 1 1756 0
 5814 0022 FB68     		ldr	r3, [r7, #12]
 5815 0024 7B64     		str	r3, [r7, #68]
 5816 0026 7B68     		ldr	r3, [r7, #4]
 5817 0028 1A68     		ldr	r2, [r3]
 5818 002a 664B     		ldr	r3, .L343+4
 5819 002c 1B69     		ldr	r3, [r3, #16]
 5820 002e D31A     		subs	r3, r2, r3
 5821 0030 9B08     		lsrs	r3, r3, #2
 5822 0032 3B64     		str	r3, [r7, #64]
 5823 0034 0BE0     		b	.L331
 5824              	.L332:
 5825              		.loc 1 1756 0 is_stmt 0 discriminator 3
 5826 0036 7B6C     		ldr	r3, [r7, #68]
 5827 0038 5A1C     		adds	r2, r3, #1
 5828 003a 7A64     		str	r2, [r7, #68]
 5829 003c 3A6C     		ldr	r2, [r7, #64]
 5830 003e D2B2     		uxtb	r2, r2
 5831 0040 62F07F02 		orn	r2, r2, #127
 5832 0044 D2B2     		uxtb	r2, r2
 5833 0046 1A70     		strb	r2, [r3]
 5834 0048 3B6C     		ldr	r3, [r7, #64]
 5835 004a DB09     		lsrs	r3, r3, #7
 5836 004c 3B64     		str	r3, [r7, #64]
 5837              	.L331:
 5838              		.loc 1 1756 0 discriminator 1
 5839 004e 3B6C     		ldr	r3, [r7, #64]
 5840 0050 7F2B     		cmp	r3, #127
 5841 0052 F0D8     		bhi	.L332
 5842              		.loc 1 1756 0 discriminator 4
 5843 0054 7B6C     		ldr	r3, [r7, #68]
 5844 0056 5A1C     		adds	r2, r3, #1
 5845 0058 7A64     		str	r2, [r7, #68]
 5846 005a 3A6C     		ldr	r2, [r7, #64]
 5847 005c D2B2     		uxtb	r2, r2
ARM GAS  /tmp/ccJhHFds.s 			page 134


 5848 005e 1A70     		strb	r2, [r3]
 5849 0060 7B6C     		ldr	r3, [r7, #68]
 5850 0062 FB60     		str	r3, [r7, #12]
 5851              	.LBE96:
 5852              	.LBB97:
1757:../../../SystemView/SEGGER/SEGGER_SYSVIEW.c ****   ENCODE_U32(pPayload, pInfo->Prio);
 5853              		.loc 1 1757 0 is_stmt 1 discriminator 4
 5854 0064 FB68     		ldr	r3, [r7, #12]
 5855 0066 FB63     		str	r3, [r7, #60]
 5856 0068 7B68     		ldr	r3, [r7, #4]
 5857 006a 9B68     		ldr	r3, [r3, #8]
 5858 006c BB63     		str	r3, [r7, #56]
 5859 006e 0BE0     		b	.L333
 5860              	.L334:
 5861              		.loc 1 1757 0 is_stmt 0 discriminator 3
 5862 0070 FB6B     		ldr	r3, [r7, #60]
 5863 0072 5A1C     		adds	r2, r3, #1
 5864 0074 FA63     		str	r2, [r7, #60]
 5865 0076 BA6B     		ldr	r2, [r7, #56]
 5866 0078 D2B2     		uxtb	r2, r2
 5867 007a 62F07F02 		orn	r2, r2, #127
 5868 007e D2B2     		uxtb	r2, r2
 5869 0080 1A70     		strb	r2, [r3]
 5870 0082 BB6B     		ldr	r3, [r7, #56]
 5871 0084 DB09     		lsrs	r3, r3, #7
 5872 0086 BB63     		str	r3, [r7, #56]
 5873              	.L333:
 5874              		.loc 1 1757 0 discriminator 1
 5875 0088 BB6B     		ldr	r3, [r7, #56]
 5876 008a 7F2B     		cmp	r3, #127
 5877 008c F0D8     		bhi	.L334
 5878              		.loc 1 1757 0 discriminator 4
 5879 008e FB6B     		ldr	r3, [r7, #60]
 5880 0090 5A1C     		adds	r2, r3, #1
 5881 0092 FA63     		str	r2, [r7, #60]
 5882 0094 BA6B     		ldr	r2, [r7, #56]
 5883 0096 D2B2     		uxtb	r2, r2
 5884 0098 1A70     		strb	r2, [r3]
 5885 009a FB6B     		ldr	r3, [r7, #60]
 5886 009c FB60     		str	r3, [r7, #12]
 5887              	.LBE97:
1758:../../../SystemView/SEGGER/SEGGER_SYSVIEW.c ****   pPayload = _EncodeStr(pPayload, pInfo->sName, 32);
 5888              		.loc 1 1758 0 is_stmt 1 discriminator 4
 5889 009e 7B68     		ldr	r3, [r7, #4]
 5890 00a0 5B68     		ldr	r3, [r3, #4]
 5891 00a2 F868     		ldr	r0, [r7, #12]
 5892 00a4 1946     		mov	r1, r3
 5893 00a6 2022     		movs	r2, #32
 5894 00a8 FFF7FEFF 		bl	_EncodeStr
 5895 00ac F860     		str	r0, [r7, #12]
1759:../../../SystemView/SEGGER/SEGGER_SYSVIEW.c ****   _SendPacket(pPayloadStart, pPayload, SYSVIEW_EVTID_TASK_INFO);
 5896              		.loc 1 1759 0 discriminator 4
 5897 00ae 3869     		ldr	r0, [r7, #16]
 5898 00b0 F968     		ldr	r1, [r7, #12]
 5899 00b2 0922     		movs	r2, #9
 5900 00b4 FFF7FEFF 		bl	_SendPacket
1760:../../../SystemView/SEGGER/SEGGER_SYSVIEW.c ****   //
ARM GAS  /tmp/ccJhHFds.s 			page 135


1761:../../../SystemView/SEGGER/SEGGER_SYSVIEW.c ****   pPayload = pPayloadStart;
 5901              		.loc 1 1761 0 discriminator 4
 5902 00b8 3B69     		ldr	r3, [r7, #16]
 5903 00ba FB60     		str	r3, [r7, #12]
 5904              	.LBB98:
1762:../../../SystemView/SEGGER/SEGGER_SYSVIEW.c ****   ENCODE_U32(pPayload, SHRINK_ID(pInfo->TaskID));
 5905              		.loc 1 1762 0 discriminator 4
 5906 00bc FB68     		ldr	r3, [r7, #12]
 5907 00be 7B63     		str	r3, [r7, #52]
 5908 00c0 7B68     		ldr	r3, [r7, #4]
 5909 00c2 1A68     		ldr	r2, [r3]
 5910 00c4 3F4B     		ldr	r3, .L343+4
 5911 00c6 1B69     		ldr	r3, [r3, #16]
 5912 00c8 D31A     		subs	r3, r2, r3
 5913 00ca 9B08     		lsrs	r3, r3, #2
 5914 00cc 3B63     		str	r3, [r7, #48]
 5915 00ce 0BE0     		b	.L335
 5916              	.L336:
 5917              		.loc 1 1762 0 is_stmt 0 discriminator 3
 5918 00d0 7B6B     		ldr	r3, [r7, #52]
 5919 00d2 5A1C     		adds	r2, r3, #1
 5920 00d4 7A63     		str	r2, [r7, #52]
 5921 00d6 3A6B     		ldr	r2, [r7, #48]
 5922 00d8 D2B2     		uxtb	r2, r2
 5923 00da 62F07F02 		orn	r2, r2, #127
 5924 00de D2B2     		uxtb	r2, r2
 5925 00e0 1A70     		strb	r2, [r3]
 5926 00e2 3B6B     		ldr	r3, [r7, #48]
 5927 00e4 DB09     		lsrs	r3, r3, #7
 5928 00e6 3B63     		str	r3, [r7, #48]
 5929              	.L335:
 5930              		.loc 1 1762 0 discriminator 1
 5931 00e8 3B6B     		ldr	r3, [r7, #48]
 5932 00ea 7F2B     		cmp	r3, #127
 5933 00ec F0D8     		bhi	.L336
 5934              		.loc 1 1762 0 discriminator 4
 5935 00ee 7B6B     		ldr	r3, [r7, #52]
 5936 00f0 5A1C     		adds	r2, r3, #1
 5937 00f2 7A63     		str	r2, [r7, #52]
 5938 00f4 3A6B     		ldr	r2, [r7, #48]
 5939 00f6 D2B2     		uxtb	r2, r2
 5940 00f8 1A70     		strb	r2, [r3]
 5941 00fa 7B6B     		ldr	r3, [r7, #52]
 5942 00fc FB60     		str	r3, [r7, #12]
 5943              	.LBE98:
 5944              	.LBB99:
1763:../../../SystemView/SEGGER/SEGGER_SYSVIEW.c ****   ENCODE_U32(pPayload, pInfo->StackBase);
 5945              		.loc 1 1763 0 is_stmt 1 discriminator 4
 5946 00fe FB68     		ldr	r3, [r7, #12]
 5947 0100 FB62     		str	r3, [r7, #44]
 5948 0102 7B68     		ldr	r3, [r7, #4]
 5949 0104 DB68     		ldr	r3, [r3, #12]
 5950 0106 BB62     		str	r3, [r7, #40]
 5951 0108 0BE0     		b	.L337
 5952              	.L338:
 5953              		.loc 1 1763 0 is_stmt 0 discriminator 3
 5954 010a FB6A     		ldr	r3, [r7, #44]
ARM GAS  /tmp/ccJhHFds.s 			page 136


 5955 010c 5A1C     		adds	r2, r3, #1
 5956 010e FA62     		str	r2, [r7, #44]
 5957 0110 BA6A     		ldr	r2, [r7, #40]
 5958 0112 D2B2     		uxtb	r2, r2
 5959 0114 62F07F02 		orn	r2, r2, #127
 5960 0118 D2B2     		uxtb	r2, r2
 5961 011a 1A70     		strb	r2, [r3]
 5962 011c BB6A     		ldr	r3, [r7, #40]
 5963 011e DB09     		lsrs	r3, r3, #7
 5964 0120 BB62     		str	r3, [r7, #40]
 5965              	.L337:
 5966              		.loc 1 1763 0 discriminator 1
 5967 0122 BB6A     		ldr	r3, [r7, #40]
 5968 0124 7F2B     		cmp	r3, #127
 5969 0126 F0D8     		bhi	.L338
 5970              		.loc 1 1763 0 discriminator 4
 5971 0128 FB6A     		ldr	r3, [r7, #44]
 5972 012a 5A1C     		adds	r2, r3, #1
 5973 012c FA62     		str	r2, [r7, #44]
 5974 012e BA6A     		ldr	r2, [r7, #40]
 5975 0130 D2B2     		uxtb	r2, r2
 5976 0132 1A70     		strb	r2, [r3]
 5977 0134 FB6A     		ldr	r3, [r7, #44]
 5978 0136 FB60     		str	r3, [r7, #12]
 5979              	.LBE99:
 5980              	.LBB100:
1764:../../../SystemView/SEGGER/SEGGER_SYSVIEW.c ****   ENCODE_U32(pPayload, pInfo->StackSize);
 5981              		.loc 1 1764 0 is_stmt 1 discriminator 4
 5982 0138 FB68     		ldr	r3, [r7, #12]
 5983 013a 7B62     		str	r3, [r7, #36]
 5984 013c 7B68     		ldr	r3, [r7, #4]
 5985 013e 1B69     		ldr	r3, [r3, #16]
 5986 0140 3B62     		str	r3, [r7, #32]
 5987 0142 0BE0     		b	.L339
 5988              	.L340:
 5989              		.loc 1 1764 0 is_stmt 0 discriminator 3
 5990 0144 7B6A     		ldr	r3, [r7, #36]
 5991 0146 5A1C     		adds	r2, r3, #1
 5992 0148 7A62     		str	r2, [r7, #36]
 5993 014a 3A6A     		ldr	r2, [r7, #32]
 5994 014c D2B2     		uxtb	r2, r2
 5995 014e 62F07F02 		orn	r2, r2, #127
 5996 0152 D2B2     		uxtb	r2, r2
 5997 0154 1A70     		strb	r2, [r3]
 5998 0156 3B6A     		ldr	r3, [r7, #32]
 5999 0158 DB09     		lsrs	r3, r3, #7
 6000 015a 3B62     		str	r3, [r7, #32]
 6001              	.L339:
 6002              		.loc 1 1764 0 discriminator 1
 6003 015c 3B6A     		ldr	r3, [r7, #32]
 6004 015e 7F2B     		cmp	r3, #127
 6005 0160 F0D8     		bhi	.L340
 6006              		.loc 1 1764 0 discriminator 4
 6007 0162 7B6A     		ldr	r3, [r7, #36]
 6008 0164 5A1C     		adds	r2, r3, #1
 6009 0166 7A62     		str	r2, [r7, #36]
 6010 0168 3A6A     		ldr	r2, [r7, #32]
ARM GAS  /tmp/ccJhHFds.s 			page 137


 6011 016a D2B2     		uxtb	r2, r2
 6012 016c 1A70     		strb	r2, [r3]
 6013 016e 7B6A     		ldr	r3, [r7, #36]
 6014 0170 FB60     		str	r3, [r7, #12]
 6015              	.LBE100:
 6016              	.LBB101:
1765:../../../SystemView/SEGGER/SEGGER_SYSVIEW.c ****   ENCODE_U32(pPayload, 0); // Stack End, future use
 6017              		.loc 1 1765 0 is_stmt 1 discriminator 4
 6018 0172 FB68     		ldr	r3, [r7, #12]
 6019 0174 FB61     		str	r3, [r7, #28]
 6020 0176 0023     		movs	r3, #0
 6021 0178 BB61     		str	r3, [r7, #24]
 6022 017a 0BE0     		b	.L341
 6023              	.L342:
 6024              		.loc 1 1765 0 is_stmt 0 discriminator 3
 6025 017c FB69     		ldr	r3, [r7, #28]
 6026 017e 5A1C     		adds	r2, r3, #1
 6027 0180 FA61     		str	r2, [r7, #28]
 6028 0182 BA69     		ldr	r2, [r7, #24]
 6029 0184 D2B2     		uxtb	r2, r2
 6030 0186 62F07F02 		orn	r2, r2, #127
 6031 018a D2B2     		uxtb	r2, r2
 6032 018c 1A70     		strb	r2, [r3]
 6033 018e BB69     		ldr	r3, [r7, #24]
 6034 0190 DB09     		lsrs	r3, r3, #7
 6035 0192 BB61     		str	r3, [r7, #24]
 6036              	.L341:
 6037              		.loc 1 1765 0 discriminator 1
 6038 0194 BB69     		ldr	r3, [r7, #24]
 6039 0196 7F2B     		cmp	r3, #127
 6040 0198 F0D8     		bhi	.L342
 6041              		.loc 1 1765 0 discriminator 4
 6042 019a FB69     		ldr	r3, [r7, #28]
 6043 019c 5A1C     		adds	r2, r3, #1
 6044 019e FA61     		str	r2, [r7, #28]
 6045 01a0 BA69     		ldr	r2, [r7, #24]
 6046 01a2 D2B2     		uxtb	r2, r2
 6047 01a4 1A70     		strb	r2, [r3]
 6048 01a6 FB69     		ldr	r3, [r7, #28]
 6049 01a8 FB60     		str	r3, [r7, #12]
 6050              	.LBE101:
1766:../../../SystemView/SEGGER/SEGGER_SYSVIEW.c ****   _SendPacket(pPayloadStart, pPayload, SYSVIEW_EVTID_STACK_INFO);
 6051              		.loc 1 1766 0 is_stmt 1 discriminator 4
 6052 01aa 3869     		ldr	r0, [r7, #16]
 6053 01ac F968     		ldr	r1, [r7, #12]
 6054 01ae 1522     		movs	r2, #21
 6055 01b0 FFF7FEFF 		bl	_SendPacket
1767:../../../SystemView/SEGGER/SEGGER_SYSVIEW.c ****   RECORD_END();
 6056              		.loc 1 1767 0 discriminator 4
 6057 01b4 7B69     		ldr	r3, [r7, #20]
 6058              	@ 1767 "../../../SystemView/SEGGER/SEGGER_SYSVIEW.c" 1
 6059 01b6 83F31188 		msr   basepri, r3  
 6060              		
 6061              	@ 0 "" 2
 6062              		.thumb
 6063              	.LBE95:
1768:../../../SystemView/SEGGER/SEGGER_SYSVIEW.c **** }
ARM GAS  /tmp/ccJhHFds.s 			page 138


 6064              		.loc 1 1768 0 discriminator 4
 6065 01ba 4837     		adds	r7, r7, #72
 6066              	.LCFI147:
 6067              		.cfi_def_cfa_offset 8
 6068 01bc BD46     		mov	sp, r7
 6069              	.LCFI148:
 6070              		.cfi_def_cfa_register 13
 6071              		@ sp needed
 6072 01be 80BD     		pop	{r7, pc}
 6073              	.L344:
 6074              		.align	2
 6075              	.L343:
 6076 01c0 00000000 		.word	_aPacket
 6077 01c4 00000000 		.word	_SYSVIEW_Globals
 6078              		.cfi_endproc
 6079              	.LFE28:
 6081              		.section	.text.SEGGER_SYSVIEW_SendTaskList,"ax",%progbits
 6082              		.align	2
 6083              		.global	SEGGER_SYSVIEW_SendTaskList
 6084              		.thumb
 6085              		.thumb_func
 6087              	SEGGER_SYSVIEW_SendTaskList:
 6088              	.LFB29:
1769:../../../SystemView/SEGGER/SEGGER_SYSVIEW.c **** 
1770:../../../SystemView/SEGGER/SEGGER_SYSVIEW.c **** /*********************************************************************
1771:../../../SystemView/SEGGER/SEGGER_SYSVIEW.c **** *
1772:../../../SystemView/SEGGER/SEGGER_SYSVIEW.c **** *       SEGGER_SYSVIEW_SendTaskList()
1773:../../../SystemView/SEGGER/SEGGER_SYSVIEW.c **** *
1774:../../../SystemView/SEGGER/SEGGER_SYSVIEW.c **** *  Function description
1775:../../../SystemView/SEGGER/SEGGER_SYSVIEW.c **** *    Send all tasks descriptors to the host.
1776:../../../SystemView/SEGGER/SEGGER_SYSVIEW.c **** */
1777:../../../SystemView/SEGGER/SEGGER_SYSVIEW.c **** void SEGGER_SYSVIEW_SendTaskList(void) {
 6089              		.loc 1 1777 0
 6090              		.cfi_startproc
 6091              		@ args = 0, pretend = 0, frame = 0
 6092              		@ frame_needed = 1, uses_anonymous_args = 0
 6093 0000 80B5     		push	{r7, lr}
 6094              	.LCFI149:
 6095              		.cfi_def_cfa_offset 8
 6096              		.cfi_offset 7, -8
 6097              		.cfi_offset 14, -4
 6098 0002 00AF     		add	r7, sp, #0
 6099              	.LCFI150:
 6100              		.cfi_def_cfa_register 7
1778:../../../SystemView/SEGGER/SEGGER_SYSVIEW.c ****   if (_SYSVIEW_Globals.pOSAPI && _SYSVIEW_Globals.pOSAPI->pfSendTaskList) {
 6101              		.loc 1 1778 0
 6102 0004 064B     		ldr	r3, .L347
 6103 0006 1B6A     		ldr	r3, [r3, #32]
 6104 0008 002B     		cmp	r3, #0
 6105 000a 08D0     		beq	.L345
 6106              		.loc 1 1778 0 is_stmt 0 discriminator 1
 6107 000c 044B     		ldr	r3, .L347
 6108 000e 1B6A     		ldr	r3, [r3, #32]
 6109 0010 5B68     		ldr	r3, [r3, #4]
 6110 0012 002B     		cmp	r3, #0
 6111 0014 03D0     		beq	.L345
1779:../../../SystemView/SEGGER/SEGGER_SYSVIEW.c ****     _SYSVIEW_Globals.pOSAPI->pfSendTaskList();
ARM GAS  /tmp/ccJhHFds.s 			page 139


 6112              		.loc 1 1779 0 is_stmt 1
 6113 0016 024B     		ldr	r3, .L347
 6114 0018 1B6A     		ldr	r3, [r3, #32]
 6115 001a 5B68     		ldr	r3, [r3, #4]
 6116 001c 9847     		blx	r3
 6117              	.L345:
1780:../../../SystemView/SEGGER/SEGGER_SYSVIEW.c ****   }
1781:../../../SystemView/SEGGER/SEGGER_SYSVIEW.c **** }
 6118              		.loc 1 1781 0
 6119 001e 80BD     		pop	{r7, pc}
 6120              	.L348:
 6121              		.align	2
 6122              	.L347:
 6123 0020 00000000 		.word	_SYSVIEW_Globals
 6124              		.cfi_endproc
 6125              	.LFE29:
 6127              		.section	.text.SEGGER_SYSVIEW_SendSysDesc,"ax",%progbits
 6128              		.align	2
 6129              		.global	SEGGER_SYSVIEW_SendSysDesc
 6130              		.thumb
 6131              		.thumb_func
 6133              	SEGGER_SYSVIEW_SendSysDesc:
 6134              	.LFB30:
1782:../../../SystemView/SEGGER/SEGGER_SYSVIEW.c **** 
1783:../../../SystemView/SEGGER/SEGGER_SYSVIEW.c **** /*********************************************************************
1784:../../../SystemView/SEGGER/SEGGER_SYSVIEW.c **** *
1785:../../../SystemView/SEGGER/SEGGER_SYSVIEW.c **** *       SEGGER_SYSVIEW_SendSysDesc()
1786:../../../SystemView/SEGGER/SEGGER_SYSVIEW.c **** *
1787:../../../SystemView/SEGGER/SEGGER_SYSVIEW.c **** *  Function description
1788:../../../SystemView/SEGGER/SEGGER_SYSVIEW.c **** *    Send the system description string to the host.
1789:../../../SystemView/SEGGER/SEGGER_SYSVIEW.c **** *    The system description is used by SystemViewer to identify the
1790:../../../SystemView/SEGGER/SEGGER_SYSVIEW.c **** *    current application and handle events accordingly.
1791:../../../SystemView/SEGGER/SEGGER_SYSVIEW.c **** *
1792:../../../SystemView/SEGGER/SEGGER_SYSVIEW.c **** *  Parameters
1793:../../../SystemView/SEGGER/SEGGER_SYSVIEW.c **** *    sSysDesc - Pointer to the 0-terminated system description string.
1794:../../../SystemView/SEGGER/SEGGER_SYSVIEW.c **** *
1795:../../../SystemView/SEGGER/SEGGER_SYSVIEW.c **** *  Additional information
1796:../../../SystemView/SEGGER/SEGGER_SYSVIEW.c **** *    One system description string may not exceed SEGGER_SYSVIEW_MAX_STRING_LEN characters.
1797:../../../SystemView/SEGGER/SEGGER_SYSVIEW.c **** *
1798:../../../SystemView/SEGGER/SEGGER_SYSVIEW.c **** *    The Following items can be described in a system description string.
1799:../../../SystemView/SEGGER/SEGGER_SYSVIEW.c **** *    Each item is identified by its identifier, followed by '=' and the value.
1800:../../../SystemView/SEGGER/SEGGER_SYSVIEW.c **** *    Items are separated by ','.
1801:../../../SystemView/SEGGER/SEGGER_SYSVIEW.c **** */
1802:../../../SystemView/SEGGER/SEGGER_SYSVIEW.c **** void SEGGER_SYSVIEW_SendSysDesc(const char *sSysDesc) {
 6135              		.loc 1 1802 0
 6136              		.cfi_startproc
 6137              		@ args = 0, pretend = 0, frame = 24
 6138              		@ frame_needed = 1, uses_anonymous_args = 0
 6139 0000 80B5     		push	{r7, lr}
 6140              	.LCFI151:
 6141              		.cfi_def_cfa_offset 8
 6142              		.cfi_offset 7, -8
 6143              		.cfi_offset 14, -4
 6144 0002 86B0     		sub	sp, sp, #24
 6145              	.LCFI152:
 6146              		.cfi_def_cfa_offset 32
 6147 0004 00AF     		add	r7, sp, #0
ARM GAS  /tmp/ccJhHFds.s 			page 140


 6148              	.LCFI153:
 6149              		.cfi_def_cfa_register 7
 6150 0006 7860     		str	r0, [r7, #4]
 6151              	.LBB102:
1803:../../../SystemView/SEGGER/SEGGER_SYSVIEW.c ****   U8* pPayload;
1804:../../../SystemView/SEGGER/SEGGER_SYSVIEW.c ****   U8* pPayloadStart;
1805:../../../SystemView/SEGGER/SEGGER_SYSVIEW.c ****   RECORD_START(SEGGER_SYSVIEW_INFO_SIZE + 1 + SEGGER_SYSVIEW_MAX_STRING_LEN);
 6152              		.loc 1 1805 0
 6153              	@ 1805 "../../../SystemView/SEGGER/SEGGER_SYSVIEW.c" 1
 6154 0008 EFF31183 		mrs   r3, basepri  
 6155 000c 4FF02001 		mov   r1, #32       
 6156 0010 81F31188 		msr   basepri, r1  
 6157              		
 6158              	@ 0 "" 2
 6159              		.thumb
 6160 0014 7B61     		str	r3, [r7, #20]
 6161 0016 0A48     		ldr	r0, .L350
 6162 0018 FFF7FEFF 		bl	_PreparePacket
 6163 001c 3861     		str	r0, [r7, #16]
1806:../../../SystemView/SEGGER/SEGGER_SYSVIEW.c ****   //
1807:../../../SystemView/SEGGER/SEGGER_SYSVIEW.c ****   pPayload = _EncodeStr(pPayloadStart, sSysDesc, SEGGER_SYSVIEW_MAX_STRING_LEN);
 6164              		.loc 1 1807 0
 6165 001e 3869     		ldr	r0, [r7, #16]
 6166 0020 7968     		ldr	r1, [r7, #4]
 6167 0022 8022     		movs	r2, #128
 6168 0024 FFF7FEFF 		bl	_EncodeStr
 6169 0028 F860     		str	r0, [r7, #12]
1808:../../../SystemView/SEGGER/SEGGER_SYSVIEW.c ****   _SendPacket(pPayloadStart, pPayload, SYSVIEW_EVTID_SYSDESC);
 6170              		.loc 1 1808 0
 6171 002a 3869     		ldr	r0, [r7, #16]
 6172 002c F968     		ldr	r1, [r7, #12]
 6173 002e 0E22     		movs	r2, #14
 6174 0030 FFF7FEFF 		bl	_SendPacket
1809:../../../SystemView/SEGGER/SEGGER_SYSVIEW.c ****   RECORD_END();
 6175              		.loc 1 1809 0
 6176 0034 7B69     		ldr	r3, [r7, #20]
 6177              	@ 1809 "../../../SystemView/SEGGER/SEGGER_SYSVIEW.c" 1
 6178 0036 83F31188 		msr   basepri, r3  
 6179              		
 6180              	@ 0 "" 2
 6181              		.thumb
 6182              	.LBE102:
1810:../../../SystemView/SEGGER/SEGGER_SYSVIEW.c **** }
 6183              		.loc 1 1810 0
 6184 003a 1837     		adds	r7, r7, #24
 6185              	.LCFI154:
 6186              		.cfi_def_cfa_offset 8
 6187 003c BD46     		mov	sp, r7
 6188              	.LCFI155:
 6189              		.cfi_def_cfa_register 13
 6190              		@ sp needed
 6191 003e 80BD     		pop	{r7, pc}
 6192              	.L351:
 6193              		.align	2
 6194              	.L350:
 6195 0040 00000000 		.word	_aPacket
 6196              		.cfi_endproc
ARM GAS  /tmp/ccJhHFds.s 			page 141


 6197              	.LFE30:
 6199              		.section	.text.SEGGER_SYSVIEW_RecordSystime,"ax",%progbits
 6200              		.align	2
 6201              		.global	SEGGER_SYSVIEW_RecordSystime
 6202              		.thumb
 6203              		.thumb_func
 6205              	SEGGER_SYSVIEW_RecordSystime:
 6206              	.LFB31:
1811:../../../SystemView/SEGGER/SEGGER_SYSVIEW.c **** 
1812:../../../SystemView/SEGGER/SEGGER_SYSVIEW.c **** /*********************************************************************
1813:../../../SystemView/SEGGER/SEGGER_SYSVIEW.c **** *
1814:../../../SystemView/SEGGER/SEGGER_SYSVIEW.c **** *       SEGGER_SYSVIEW_RecordSystime()
1815:../../../SystemView/SEGGER/SEGGER_SYSVIEW.c **** *
1816:../../../SystemView/SEGGER/SEGGER_SYSVIEW.c **** *  Function description
1817:../../../SystemView/SEGGER/SEGGER_SYSVIEW.c **** *    Formats and sends a SystemView Systime containing a single U64 or U32
1818:../../../SystemView/SEGGER/SEGGER_SYSVIEW.c **** *    parameter payload.
1819:../../../SystemView/SEGGER/SEGGER_SYSVIEW.c **** */
1820:../../../SystemView/SEGGER/SEGGER_SYSVIEW.c **** void SEGGER_SYSVIEW_RecordSystime(void) {
 6207              		.loc 1 1820 0
 6208              		.cfi_startproc
 6209              		@ args = 0, pretend = 0, frame = 8
 6210              		@ frame_needed = 1, uses_anonymous_args = 0
 6211 0000 B0B5     		push	{r4, r5, r7, lr}
 6212              	.LCFI156:
 6213              		.cfi_def_cfa_offset 16
 6214              		.cfi_offset 4, -16
 6215              		.cfi_offset 5, -12
 6216              		.cfi_offset 7, -8
 6217              		.cfi_offset 14, -4
 6218 0002 82B0     		sub	sp, sp, #8
 6219              	.LCFI157:
 6220              		.cfi_def_cfa_offset 24
 6221 0004 00AF     		add	r7, sp, #0
 6222              	.LCFI158:
 6223              		.cfi_def_cfa_register 7
1821:../../../SystemView/SEGGER/SEGGER_SYSVIEW.c ****   U64 Systime;
1822:../../../SystemView/SEGGER/SEGGER_SYSVIEW.c **** 
1823:../../../SystemView/SEGGER/SEGGER_SYSVIEW.c ****   if (_SYSVIEW_Globals.pOSAPI && _SYSVIEW_Globals.pOSAPI->pfGetTime) {
 6224              		.loc 1 1823 0
 6225 0006 114B     		ldr	r3, .L355
 6226 0008 1B6A     		ldr	r3, [r3, #32]
 6227 000a 002B     		cmp	r3, #0
 6228 000c 15D0     		beq	.L353
 6229              		.loc 1 1823 0 is_stmt 0 discriminator 1
 6230 000e 0F4B     		ldr	r3, .L355
 6231 0010 1B6A     		ldr	r3, [r3, #32]
 6232 0012 1B68     		ldr	r3, [r3]
 6233 0014 002B     		cmp	r3, #0
 6234 0016 10D0     		beq	.L353
1824:../../../SystemView/SEGGER/SEGGER_SYSVIEW.c ****     Systime = _SYSVIEW_Globals.pOSAPI->pfGetTime();
 6235              		.loc 1 1824 0 is_stmt 1
 6236 0018 0C4B     		ldr	r3, .L355
 6237 001a 1B6A     		ldr	r3, [r3, #32]
 6238 001c 1B68     		ldr	r3, [r3]
 6239 001e 9847     		blx	r3
 6240 0020 C7E90001 		strd	r0, [r7]
1825:../../../SystemView/SEGGER/SEGGER_SYSVIEW.c ****     SEGGER_SYSVIEW_RecordU32x2(SYSVIEW_EVTID_SYSTIME_US,
ARM GAS  /tmp/ccJhHFds.s 			page 142


 6241              		.loc 1 1825 0
 6242 0024 3968     		ldr	r1, [r7]
1826:../../../SystemView/SEGGER/SEGGER_SYSVIEW.c ****                                (U32)(Systime),
1827:../../../SystemView/SEGGER/SEGGER_SYSVIEW.c ****                                (U32)(Systime >> 32));
 6243              		.loc 1 1827 0
 6244 0026 D7E90023 		ldrd	r2, [r7]
 6245 002a 1C00     		movs	r4, r3
 6246 002c 0025     		movs	r5, #0
1825:../../../SystemView/SEGGER/SEGGER_SYSVIEW.c ****     SEGGER_SYSVIEW_RecordU32x2(SYSVIEW_EVTID_SYSTIME_US,
 6247              		.loc 1 1825 0
 6248 002e 2346     		mov	r3, r4
 6249 0030 0D20     		movs	r0, #13
 6250 0032 1A46     		mov	r2, r3
 6251 0034 FFF7FEFF 		bl	SEGGER_SYSVIEW_RecordU32x2
 6252 0038 05E0     		b	.L352
 6253              	.L353:
1828:../../../SystemView/SEGGER/SEGGER_SYSVIEW.c ****   } else {
1829:../../../SystemView/SEGGER/SEGGER_SYSVIEW.c ****     SEGGER_SYSVIEW_RecordU32(SYSVIEW_EVTID_SYSTIME_CYCLES, SEGGER_SYSVIEW_GET_TIMESTAMP());
 6254              		.loc 1 1829 0
 6255 003a 054B     		ldr	r3, .L355+4
 6256 003c 1B68     		ldr	r3, [r3]
 6257 003e 0C20     		movs	r0, #12
 6258 0040 1946     		mov	r1, r3
 6259 0042 FFF7FEFF 		bl	SEGGER_SYSVIEW_RecordU32
 6260              	.L352:
1830:../../../SystemView/SEGGER/SEGGER_SYSVIEW.c ****   }
1831:../../../SystemView/SEGGER/SEGGER_SYSVIEW.c **** }
 6261              		.loc 1 1831 0
 6262 0046 0837     		adds	r7, r7, #8
 6263              	.LCFI159:
 6264              		.cfi_def_cfa_offset 16
 6265 0048 BD46     		mov	sp, r7
 6266              	.LCFI160:
 6267              		.cfi_def_cfa_register 13
 6268              		@ sp needed
 6269 004a B0BD     		pop	{r4, r5, r7, pc}
 6270              	.L356:
 6271              		.align	2
 6272              	.L355:
 6273 004c 00000000 		.word	_SYSVIEW_Globals
 6274 0050 041000E0 		.word	-536866812
 6275              		.cfi_endproc
 6276              	.LFE31:
 6278              		.section	.text.SEGGER_SYSVIEW_RecordEnterISR,"ax",%progbits
 6279              		.align	2
 6280              		.global	SEGGER_SYSVIEW_RecordEnterISR
 6281              		.thumb
 6282              		.thumb_func
 6284              	SEGGER_SYSVIEW_RecordEnterISR:
 6285              	.LFB32:
1832:../../../SystemView/SEGGER/SEGGER_SYSVIEW.c **** 
1833:../../../SystemView/SEGGER/SEGGER_SYSVIEW.c **** /*********************************************************************
1834:../../../SystemView/SEGGER/SEGGER_SYSVIEW.c **** *
1835:../../../SystemView/SEGGER/SEGGER_SYSVIEW.c **** *       SEGGER_SYSVIEW_RecordEnterISR()
1836:../../../SystemView/SEGGER/SEGGER_SYSVIEW.c **** *
1837:../../../SystemView/SEGGER/SEGGER_SYSVIEW.c **** *  Function description
1838:../../../SystemView/SEGGER/SEGGER_SYSVIEW.c **** *    Format and send an ISR entry event.
ARM GAS  /tmp/ccJhHFds.s 			page 143


1839:../../../SystemView/SEGGER/SEGGER_SYSVIEW.c **** *
1840:../../../SystemView/SEGGER/SEGGER_SYSVIEW.c **** *  Additional information
1841:../../../SystemView/SEGGER/SEGGER_SYSVIEW.c **** *    Example packets sent
1842:../../../SystemView/SEGGER/SEGGER_SYSVIEW.c **** *      02 0F 50              // ISR(15) Enter. Timestamp is 80 (0x50)
1843:../../../SystemView/SEGGER/SEGGER_SYSVIEW.c **** */
1844:../../../SystemView/SEGGER/SEGGER_SYSVIEW.c **** void SEGGER_SYSVIEW_RecordEnterISR(void) {
 6286              		.loc 1 1844 0
 6287              		.cfi_startproc
 6288              		@ args = 0, pretend = 0, frame = 24
 6289              		@ frame_needed = 1, uses_anonymous_args = 0
 6290 0000 80B5     		push	{r7, lr}
 6291              	.LCFI161:
 6292              		.cfi_def_cfa_offset 8
 6293              		.cfi_offset 7, -8
 6294              		.cfi_offset 14, -4
 6295 0002 86B0     		sub	sp, sp, #24
 6296              	.LCFI162:
 6297              		.cfi_def_cfa_offset 32
 6298 0004 00AF     		add	r7, sp, #0
 6299              	.LCFI163:
 6300              		.cfi_def_cfa_register 7
 6301              	.LBB103:
1845:../../../SystemView/SEGGER/SEGGER_SYSVIEW.c ****   unsigned v;
1846:../../../SystemView/SEGGER/SEGGER_SYSVIEW.c ****   U8* pPayload;
1847:../../../SystemView/SEGGER/SEGGER_SYSVIEW.c ****   U8* pPayloadStart;
1848:../../../SystemView/SEGGER/SEGGER_SYSVIEW.c ****   RECORD_START(SEGGER_SYSVIEW_INFO_SIZE + SEGGER_SYSVIEW_QUANTA_U32);
 6302              		.loc 1 1848 0
 6303              	@ 1848 "../../../SystemView/SEGGER/SEGGER_SYSVIEW.c" 1
 6304 0006 EFF31183 		mrs   r3, basepri  
 6305 000a 4FF02001 		mov   r1, #32       
 6306 000e 81F31188 		msr   basepri, r1  
 6307              		
 6308              	@ 0 "" 2
 6309              		.thumb
 6310 0012 FB60     		str	r3, [r7, #12]
 6311 0014 1848     		ldr	r0, .L360
 6312 0016 FFF7FEFF 		bl	_PreparePacket
 6313 001a B860     		str	r0, [r7, #8]
1849:../../../SystemView/SEGGER/SEGGER_SYSVIEW.c ****   //
1850:../../../SystemView/SEGGER/SEGGER_SYSVIEW.c ****   pPayload = pPayloadStart;
 6314              		.loc 1 1850 0
 6315 001c BB68     		ldr	r3, [r7, #8]
 6316 001e 7B60     		str	r3, [r7, #4]
1851:../../../SystemView/SEGGER/SEGGER_SYSVIEW.c ****   v = SEGGER_SYSVIEW_GET_INTERRUPT_ID();
 6317              		.loc 1 1851 0
 6318 0020 164B     		ldr	r3, .L360+4
 6319 0022 1B68     		ldr	r3, [r3]
 6320 0024 C3F30803 		ubfx	r3, r3, #0, #9
 6321 0028 3B60     		str	r3, [r7]
 6322              	.LBB104:
1852:../../../SystemView/SEGGER/SEGGER_SYSVIEW.c ****   ENCODE_U32(pPayload, v);
 6323              		.loc 1 1852 0
 6324 002a 7B68     		ldr	r3, [r7, #4]
 6325 002c 7B61     		str	r3, [r7, #20]
 6326 002e 3B68     		ldr	r3, [r7]
 6327 0030 3B61     		str	r3, [r7, #16]
 6328 0032 0BE0     		b	.L358
ARM GAS  /tmp/ccJhHFds.s 			page 144


 6329              	.L359:
 6330              		.loc 1 1852 0 is_stmt 0 discriminator 3
 6331 0034 7B69     		ldr	r3, [r7, #20]
 6332 0036 5A1C     		adds	r2, r3, #1
 6333 0038 7A61     		str	r2, [r7, #20]
 6334 003a 3A69     		ldr	r2, [r7, #16]
 6335 003c D2B2     		uxtb	r2, r2
 6336 003e 62F07F02 		orn	r2, r2, #127
 6337 0042 D2B2     		uxtb	r2, r2
 6338 0044 1A70     		strb	r2, [r3]
 6339 0046 3B69     		ldr	r3, [r7, #16]
 6340 0048 DB09     		lsrs	r3, r3, #7
 6341 004a 3B61     		str	r3, [r7, #16]
 6342              	.L358:
 6343              		.loc 1 1852 0 discriminator 1
 6344 004c 3B69     		ldr	r3, [r7, #16]
 6345 004e 7F2B     		cmp	r3, #127
 6346 0050 F0D8     		bhi	.L359
 6347              		.loc 1 1852 0 discriminator 4
 6348 0052 7B69     		ldr	r3, [r7, #20]
 6349 0054 5A1C     		adds	r2, r3, #1
 6350 0056 7A61     		str	r2, [r7, #20]
 6351 0058 3A69     		ldr	r2, [r7, #16]
 6352 005a D2B2     		uxtb	r2, r2
 6353 005c 1A70     		strb	r2, [r3]
 6354 005e 7B69     		ldr	r3, [r7, #20]
 6355 0060 7B60     		str	r3, [r7, #4]
 6356              	.LBE104:
1853:../../../SystemView/SEGGER/SEGGER_SYSVIEW.c ****   _SendPacket(pPayloadStart, pPayload, SYSVIEW_EVTID_ISR_ENTER);
 6357              		.loc 1 1853 0 is_stmt 1 discriminator 4
 6358 0062 B868     		ldr	r0, [r7, #8]
 6359 0064 7968     		ldr	r1, [r7, #4]
 6360 0066 0222     		movs	r2, #2
 6361 0068 FFF7FEFF 		bl	_SendPacket
1854:../../../SystemView/SEGGER/SEGGER_SYSVIEW.c ****   RECORD_END();
 6362              		.loc 1 1854 0 discriminator 4
 6363 006c FB68     		ldr	r3, [r7, #12]
 6364              	@ 1854 "../../../SystemView/SEGGER/SEGGER_SYSVIEW.c" 1
 6365 006e 83F31188 		msr   basepri, r3  
 6366              		
 6367              	@ 0 "" 2
 6368              		.thumb
 6369              	.LBE103:
1855:../../../SystemView/SEGGER/SEGGER_SYSVIEW.c **** }
 6370              		.loc 1 1855 0 discriminator 4
 6371 0072 1837     		adds	r7, r7, #24
 6372              	.LCFI164:
 6373              		.cfi_def_cfa_offset 8
 6374 0074 BD46     		mov	sp, r7
 6375              	.LCFI165:
 6376              		.cfi_def_cfa_register 13
 6377              		@ sp needed
 6378 0076 80BD     		pop	{r7, pc}
 6379              	.L361:
 6380              		.align	2
 6381              	.L360:
 6382 0078 00000000 		.word	_aPacket
ARM GAS  /tmp/ccJhHFds.s 			page 145


 6383 007c 04ED00E0 		.word	-536810236
 6384              		.cfi_endproc
 6385              	.LFE32:
 6387              		.section	.text.SEGGER_SYSVIEW_RecordExitISR,"ax",%progbits
 6388              		.align	2
 6389              		.global	SEGGER_SYSVIEW_RecordExitISR
 6390              		.thumb
 6391              		.thumb_func
 6393              	SEGGER_SYSVIEW_RecordExitISR:
 6394              	.LFB33:
1856:../../../SystemView/SEGGER/SEGGER_SYSVIEW.c **** 
1857:../../../SystemView/SEGGER/SEGGER_SYSVIEW.c **** /*********************************************************************
1858:../../../SystemView/SEGGER/SEGGER_SYSVIEW.c **** *
1859:../../../SystemView/SEGGER/SEGGER_SYSVIEW.c **** *       SEGGER_SYSVIEW_RecordExitISR()
1860:../../../SystemView/SEGGER/SEGGER_SYSVIEW.c **** *
1861:../../../SystemView/SEGGER/SEGGER_SYSVIEW.c **** *  Function description
1862:../../../SystemView/SEGGER/SEGGER_SYSVIEW.c **** *    Format and send an ISR exit event.
1863:../../../SystemView/SEGGER/SEGGER_SYSVIEW.c **** *
1864:../../../SystemView/SEGGER/SEGGER_SYSVIEW.c **** *  Additional information
1865:../../../SystemView/SEGGER/SEGGER_SYSVIEW.c **** *    Format as follows:
1866:../../../SystemView/SEGGER/SEGGER_SYSVIEW.c **** *      03 <TimeStamp>        // Max. packet len is 6
1867:../../../SystemView/SEGGER/SEGGER_SYSVIEW.c **** *
1868:../../../SystemView/SEGGER/SEGGER_SYSVIEW.c **** *    Example packets sent
1869:../../../SystemView/SEGGER/SEGGER_SYSVIEW.c **** *      03 20                // ISR Exit. Timestamp is 32 (0x20)
1870:../../../SystemView/SEGGER/SEGGER_SYSVIEW.c **** */
1871:../../../SystemView/SEGGER/SEGGER_SYSVIEW.c **** void SEGGER_SYSVIEW_RecordExitISR(void) {
 6395              		.loc 1 1871 0
 6396              		.cfi_startproc
 6397              		@ args = 0, pretend = 0, frame = 8
 6398              		@ frame_needed = 1, uses_anonymous_args = 0
 6399 0000 80B5     		push	{r7, lr}
 6400              	.LCFI166:
 6401              		.cfi_def_cfa_offset 8
 6402              		.cfi_offset 7, -8
 6403              		.cfi_offset 14, -4
 6404 0002 82B0     		sub	sp, sp, #8
 6405              	.LCFI167:
 6406              		.cfi_def_cfa_offset 16
 6407 0004 00AF     		add	r7, sp, #0
 6408              	.LCFI168:
 6409              		.cfi_def_cfa_register 7
 6410              	.LBB105:
1872:../../../SystemView/SEGGER/SEGGER_SYSVIEW.c ****   U8* pPayloadStart;
1873:../../../SystemView/SEGGER/SEGGER_SYSVIEW.c ****   RECORD_START(SEGGER_SYSVIEW_INFO_SIZE);
 6411              		.loc 1 1873 0
 6412              	@ 1873 "../../../SystemView/SEGGER/SEGGER_SYSVIEW.c" 1
 6413 0006 EFF31183 		mrs   r3, basepri  
 6414 000a 4FF02001 		mov   r1, #32       
 6415 000e 81F31188 		msr   basepri, r1  
 6416              		
 6417              	@ 0 "" 2
 6418              		.thumb
 6419 0012 7B60     		str	r3, [r7, #4]
 6420 0014 0748     		ldr	r0, .L363
 6421 0016 FFF7FEFF 		bl	_PreparePacket
 6422 001a 3860     		str	r0, [r7]
1874:../../../SystemView/SEGGER/SEGGER_SYSVIEW.c ****   //
ARM GAS  /tmp/ccJhHFds.s 			page 146


1875:../../../SystemView/SEGGER/SEGGER_SYSVIEW.c ****   _SendPacket(pPayloadStart, pPayloadStart, SYSVIEW_EVTID_ISR_EXIT);
 6423              		.loc 1 1875 0
 6424 001c 3868     		ldr	r0, [r7]
 6425 001e 3968     		ldr	r1, [r7]
 6426 0020 0322     		movs	r2, #3
 6427 0022 FFF7FEFF 		bl	_SendPacket
1876:../../../SystemView/SEGGER/SEGGER_SYSVIEW.c ****   RECORD_END();
 6428              		.loc 1 1876 0
 6429 0026 7B68     		ldr	r3, [r7, #4]
 6430              	@ 1876 "../../../SystemView/SEGGER/SEGGER_SYSVIEW.c" 1
 6431 0028 83F31188 		msr   basepri, r3  
 6432              		
 6433              	@ 0 "" 2
 6434              		.thumb
 6435              	.LBE105:
1877:../../../SystemView/SEGGER/SEGGER_SYSVIEW.c **** }
 6436              		.loc 1 1877 0
 6437 002c 0837     		adds	r7, r7, #8
 6438              	.LCFI169:
 6439              		.cfi_def_cfa_offset 8
 6440 002e BD46     		mov	sp, r7
 6441              	.LCFI170:
 6442              		.cfi_def_cfa_register 13
 6443              		@ sp needed
 6444 0030 80BD     		pop	{r7, pc}
 6445              	.L364:
 6446 0032 00BF     		.align	2
 6447              	.L363:
 6448 0034 00000000 		.word	_aPacket
 6449              		.cfi_endproc
 6450              	.LFE33:
 6452              		.section	.text.SEGGER_SYSVIEW_RecordExitISRToScheduler,"ax",%progbits
 6453              		.align	2
 6454              		.global	SEGGER_SYSVIEW_RecordExitISRToScheduler
 6455              		.thumb
 6456              		.thumb_func
 6458              	SEGGER_SYSVIEW_RecordExitISRToScheduler:
 6459              	.LFB34:
1878:../../../SystemView/SEGGER/SEGGER_SYSVIEW.c **** 
1879:../../../SystemView/SEGGER/SEGGER_SYSVIEW.c **** /*********************************************************************
1880:../../../SystemView/SEGGER/SEGGER_SYSVIEW.c **** *
1881:../../../SystemView/SEGGER/SEGGER_SYSVIEW.c **** *       SEGGER_SYSVIEW_RecordExitISRToScheduler()
1882:../../../SystemView/SEGGER/SEGGER_SYSVIEW.c **** *
1883:../../../SystemView/SEGGER/SEGGER_SYSVIEW.c **** *  Function description
1884:../../../SystemView/SEGGER/SEGGER_SYSVIEW.c **** *    Format and send an ISR exit into scheduler event.
1885:../../../SystemView/SEGGER/SEGGER_SYSVIEW.c **** *
1886:../../../SystemView/SEGGER/SEGGER_SYSVIEW.c **** *  Additional information
1887:../../../SystemView/SEGGER/SEGGER_SYSVIEW.c **** *    Format as follows:
1888:../../../SystemView/SEGGER/SEGGER_SYSVIEW.c **** *      18 <TimeStamp>        // Max. packet len is 6
1889:../../../SystemView/SEGGER/SEGGER_SYSVIEW.c **** *
1890:../../../SystemView/SEGGER/SEGGER_SYSVIEW.c **** *    Example packets sent
1891:../../../SystemView/SEGGER/SEGGER_SYSVIEW.c **** *      18 20                // ISR Exit to Scheduler. Timestamp is 32 (0x20)
1892:../../../SystemView/SEGGER/SEGGER_SYSVIEW.c **** */
1893:../../../SystemView/SEGGER/SEGGER_SYSVIEW.c **** void SEGGER_SYSVIEW_RecordExitISRToScheduler(void) {
 6460              		.loc 1 1893 0
 6461              		.cfi_startproc
 6462              		@ args = 0, pretend = 0, frame = 8
ARM GAS  /tmp/ccJhHFds.s 			page 147


 6463              		@ frame_needed = 1, uses_anonymous_args = 0
 6464 0000 80B5     		push	{r7, lr}
 6465              	.LCFI171:
 6466              		.cfi_def_cfa_offset 8
 6467              		.cfi_offset 7, -8
 6468              		.cfi_offset 14, -4
 6469 0002 82B0     		sub	sp, sp, #8
 6470              	.LCFI172:
 6471              		.cfi_def_cfa_offset 16
 6472 0004 00AF     		add	r7, sp, #0
 6473              	.LCFI173:
 6474              		.cfi_def_cfa_register 7
 6475              	.LBB106:
1894:../../../SystemView/SEGGER/SEGGER_SYSVIEW.c ****   U8* pPayloadStart;
1895:../../../SystemView/SEGGER/SEGGER_SYSVIEW.c ****   RECORD_START(SEGGER_SYSVIEW_INFO_SIZE);
 6476              		.loc 1 1895 0
 6477              	@ 1895 "../../../SystemView/SEGGER/SEGGER_SYSVIEW.c" 1
 6478 0006 EFF31183 		mrs   r3, basepri  
 6479 000a 4FF02001 		mov   r1, #32       
 6480 000e 81F31188 		msr   basepri, r1  
 6481              		
 6482              	@ 0 "" 2
 6483              		.thumb
 6484 0012 7B60     		str	r3, [r7, #4]
 6485 0014 0748     		ldr	r0, .L366
 6486 0016 FFF7FEFF 		bl	_PreparePacket
 6487 001a 3860     		str	r0, [r7]
1896:../../../SystemView/SEGGER/SEGGER_SYSVIEW.c ****   //
1897:../../../SystemView/SEGGER/SEGGER_SYSVIEW.c ****   _SendPacket(pPayloadStart, pPayloadStart, SYSVIEW_EVTID_ISR_TO_SCHEDULER);
 6488              		.loc 1 1897 0
 6489 001c 3868     		ldr	r0, [r7]
 6490 001e 3968     		ldr	r1, [r7]
 6491 0020 1222     		movs	r2, #18
 6492 0022 FFF7FEFF 		bl	_SendPacket
1898:../../../SystemView/SEGGER/SEGGER_SYSVIEW.c ****   RECORD_END();
 6493              		.loc 1 1898 0
 6494 0026 7B68     		ldr	r3, [r7, #4]
 6495              	@ 1898 "../../../SystemView/SEGGER/SEGGER_SYSVIEW.c" 1
 6496 0028 83F31188 		msr   basepri, r3  
 6497              		
 6498              	@ 0 "" 2
 6499              		.thumb
 6500              	.LBE106:
1899:../../../SystemView/SEGGER/SEGGER_SYSVIEW.c **** }
 6501              		.loc 1 1899 0
 6502 002c 0837     		adds	r7, r7, #8
 6503              	.LCFI174:
 6504              		.cfi_def_cfa_offset 8
 6505 002e BD46     		mov	sp, r7
 6506              	.LCFI175:
 6507              		.cfi_def_cfa_register 13
 6508              		@ sp needed
 6509 0030 80BD     		pop	{r7, pc}
 6510              	.L367:
 6511 0032 00BF     		.align	2
 6512              	.L366:
 6513 0034 00000000 		.word	_aPacket
ARM GAS  /tmp/ccJhHFds.s 			page 148


 6514              		.cfi_endproc
 6515              	.LFE34:
 6517              		.section	.text.SEGGER_SYSVIEW_RecordEnterTimer,"ax",%progbits
 6518              		.align	2
 6519              		.global	SEGGER_SYSVIEW_RecordEnterTimer
 6520              		.thumb
 6521              		.thumb_func
 6523              	SEGGER_SYSVIEW_RecordEnterTimer:
 6524              	.LFB35:
1900:../../../SystemView/SEGGER/SEGGER_SYSVIEW.c **** 
1901:../../../SystemView/SEGGER/SEGGER_SYSVIEW.c **** /*********************************************************************
1902:../../../SystemView/SEGGER/SEGGER_SYSVIEW.c **** *
1903:../../../SystemView/SEGGER/SEGGER_SYSVIEW.c **** *       SEGGER_SYSVIEW_RecordEnterTimer()
1904:../../../SystemView/SEGGER/SEGGER_SYSVIEW.c **** *
1905:../../../SystemView/SEGGER/SEGGER_SYSVIEW.c **** *  Function description
1906:../../../SystemView/SEGGER/SEGGER_SYSVIEW.c **** *    Format and send a Timer entry event.
1907:../../../SystemView/SEGGER/SEGGER_SYSVIEW.c **** *  
1908:../../../SystemView/SEGGER/SEGGER_SYSVIEW.c **** *  Parameters
1909:../../../SystemView/SEGGER/SEGGER_SYSVIEW.c **** *    TimerId - Id of the timer which starts.
1910:../../../SystemView/SEGGER/SEGGER_SYSVIEW.c **** */
1911:../../../SystemView/SEGGER/SEGGER_SYSVIEW.c **** void SEGGER_SYSVIEW_RecordEnterTimer(U32 TimerId) {
 6525              		.loc 1 1911 0
 6526              		.cfi_startproc
 6527              		@ args = 0, pretend = 0, frame = 32
 6528              		@ frame_needed = 1, uses_anonymous_args = 0
 6529 0000 80B5     		push	{r7, lr}
 6530              	.LCFI176:
 6531              		.cfi_def_cfa_offset 8
 6532              		.cfi_offset 7, -8
 6533              		.cfi_offset 14, -4
 6534 0002 88B0     		sub	sp, sp, #32
 6535              	.LCFI177:
 6536              		.cfi_def_cfa_offset 40
 6537 0004 00AF     		add	r7, sp, #0
 6538              	.LCFI178:
 6539              		.cfi_def_cfa_register 7
 6540 0006 7860     		str	r0, [r7, #4]
 6541              	.LBB107:
1912:../../../SystemView/SEGGER/SEGGER_SYSVIEW.c ****   U8* pPayload;
1913:../../../SystemView/SEGGER/SEGGER_SYSVIEW.c ****   U8* pPayloadStart;
1914:../../../SystemView/SEGGER/SEGGER_SYSVIEW.c ****   RECORD_START(SEGGER_SYSVIEW_INFO_SIZE + SEGGER_SYSVIEW_QUANTA_U32);
 6542              		.loc 1 1914 0
 6543              	@ 1914 "../../../SystemView/SEGGER/SEGGER_SYSVIEW.c" 1
 6544 0008 EFF31183 		mrs   r3, basepri  
 6545 000c 4FF02001 		mov   r1, #32       
 6546 0010 81F31188 		msr   basepri, r1  
 6547              		
 6548              	@ 0 "" 2
 6549              		.thumb
 6550 0014 7B61     		str	r3, [r7, #20]
 6551 0016 1848     		ldr	r0, .L371
 6552 0018 FFF7FEFF 		bl	_PreparePacket
 6553 001c 3861     		str	r0, [r7, #16]
1915:../../../SystemView/SEGGER/SEGGER_SYSVIEW.c ****   //
1916:../../../SystemView/SEGGER/SEGGER_SYSVIEW.c ****   pPayload = pPayloadStart;
 6554              		.loc 1 1916 0
 6555 001e 3B69     		ldr	r3, [r7, #16]
ARM GAS  /tmp/ccJhHFds.s 			page 149


 6556 0020 FB60     		str	r3, [r7, #12]
 6557              	.LBB108:
1917:../../../SystemView/SEGGER/SEGGER_SYSVIEW.c ****   ENCODE_U32(pPayload, SHRINK_ID(TimerId));
 6558              		.loc 1 1917 0
 6559 0022 FB68     		ldr	r3, [r7, #12]
 6560 0024 FB61     		str	r3, [r7, #28]
 6561 0026 154B     		ldr	r3, .L371+4
 6562 0028 1B69     		ldr	r3, [r3, #16]
 6563 002a 7A68     		ldr	r2, [r7, #4]
 6564 002c D31A     		subs	r3, r2, r3
 6565 002e 9B08     		lsrs	r3, r3, #2
 6566 0030 BB61     		str	r3, [r7, #24]
 6567 0032 0BE0     		b	.L369
 6568              	.L370:
 6569              		.loc 1 1917 0 is_stmt 0 discriminator 3
 6570 0034 FB69     		ldr	r3, [r7, #28]
 6571 0036 5A1C     		adds	r2, r3, #1
 6572 0038 FA61     		str	r2, [r7, #28]
 6573 003a BA69     		ldr	r2, [r7, #24]
 6574 003c D2B2     		uxtb	r2, r2
 6575 003e 62F07F02 		orn	r2, r2, #127
 6576 0042 D2B2     		uxtb	r2, r2
 6577 0044 1A70     		strb	r2, [r3]
 6578 0046 BB69     		ldr	r3, [r7, #24]
 6579 0048 DB09     		lsrs	r3, r3, #7
 6580 004a BB61     		str	r3, [r7, #24]
 6581              	.L369:
 6582              		.loc 1 1917 0 discriminator 1
 6583 004c BB69     		ldr	r3, [r7, #24]
 6584 004e 7F2B     		cmp	r3, #127
 6585 0050 F0D8     		bhi	.L370
 6586              		.loc 1 1917 0 discriminator 4
 6587 0052 FB69     		ldr	r3, [r7, #28]
 6588 0054 5A1C     		adds	r2, r3, #1
 6589 0056 FA61     		str	r2, [r7, #28]
 6590 0058 BA69     		ldr	r2, [r7, #24]
 6591 005a D2B2     		uxtb	r2, r2
 6592 005c 1A70     		strb	r2, [r3]
 6593 005e FB69     		ldr	r3, [r7, #28]
 6594 0060 FB60     		str	r3, [r7, #12]
 6595              	.LBE108:
1918:../../../SystemView/SEGGER/SEGGER_SYSVIEW.c ****   _SendPacket(pPayloadStart, pPayload, SYSVIEW_EVTID_TIMER_ENTER);
 6596              		.loc 1 1918 0 is_stmt 1 discriminator 4
 6597 0062 3869     		ldr	r0, [r7, #16]
 6598 0064 F968     		ldr	r1, [r7, #12]
 6599 0066 1322     		movs	r2, #19
 6600 0068 FFF7FEFF 		bl	_SendPacket
1919:../../../SystemView/SEGGER/SEGGER_SYSVIEW.c ****   RECORD_END();
 6601              		.loc 1 1919 0 discriminator 4
 6602 006c 7B69     		ldr	r3, [r7, #20]
 6603              	@ 1919 "../../../SystemView/SEGGER/SEGGER_SYSVIEW.c" 1
 6604 006e 83F31188 		msr   basepri, r3  
 6605              		
 6606              	@ 0 "" 2
 6607              		.thumb
 6608              	.LBE107:
1920:../../../SystemView/SEGGER/SEGGER_SYSVIEW.c **** }
ARM GAS  /tmp/ccJhHFds.s 			page 150


 6609              		.loc 1 1920 0 discriminator 4
 6610 0072 2037     		adds	r7, r7, #32
 6611              	.LCFI179:
 6612              		.cfi_def_cfa_offset 8
 6613 0074 BD46     		mov	sp, r7
 6614              	.LCFI180:
 6615              		.cfi_def_cfa_register 13
 6616              		@ sp needed
 6617 0076 80BD     		pop	{r7, pc}
 6618              	.L372:
 6619              		.align	2
 6620              	.L371:
 6621 0078 00000000 		.word	_aPacket
 6622 007c 00000000 		.word	_SYSVIEW_Globals
 6623              		.cfi_endproc
 6624              	.LFE35:
 6626              		.section	.text.SEGGER_SYSVIEW_RecordExitTimer,"ax",%progbits
 6627              		.align	2
 6628              		.global	SEGGER_SYSVIEW_RecordExitTimer
 6629              		.thumb
 6630              		.thumb_func
 6632              	SEGGER_SYSVIEW_RecordExitTimer:
 6633              	.LFB36:
1921:../../../SystemView/SEGGER/SEGGER_SYSVIEW.c **** 
1922:../../../SystemView/SEGGER/SEGGER_SYSVIEW.c **** /*********************************************************************
1923:../../../SystemView/SEGGER/SEGGER_SYSVIEW.c **** *
1924:../../../SystemView/SEGGER/SEGGER_SYSVIEW.c **** *       SEGGER_SYSVIEW_RecordExitTimer()
1925:../../../SystemView/SEGGER/SEGGER_SYSVIEW.c **** *
1926:../../../SystemView/SEGGER/SEGGER_SYSVIEW.c **** *  Function description
1927:../../../SystemView/SEGGER/SEGGER_SYSVIEW.c **** *    Format and send a Timer exit event.
1928:../../../SystemView/SEGGER/SEGGER_SYSVIEW.c **** */
1929:../../../SystemView/SEGGER/SEGGER_SYSVIEW.c **** void SEGGER_SYSVIEW_RecordExitTimer(void) {
 6634              		.loc 1 1929 0
 6635              		.cfi_startproc
 6636              		@ args = 0, pretend = 0, frame = 8
 6637              		@ frame_needed = 1, uses_anonymous_args = 0
 6638 0000 80B5     		push	{r7, lr}
 6639              	.LCFI181:
 6640              		.cfi_def_cfa_offset 8
 6641              		.cfi_offset 7, -8
 6642              		.cfi_offset 14, -4
 6643 0002 82B0     		sub	sp, sp, #8
 6644              	.LCFI182:
 6645              		.cfi_def_cfa_offset 16
 6646 0004 00AF     		add	r7, sp, #0
 6647              	.LCFI183:
 6648              		.cfi_def_cfa_register 7
 6649              	.LBB109:
1930:../../../SystemView/SEGGER/SEGGER_SYSVIEW.c ****   U8* pPayloadStart;
1931:../../../SystemView/SEGGER/SEGGER_SYSVIEW.c ****   RECORD_START(SEGGER_SYSVIEW_INFO_SIZE);
 6650              		.loc 1 1931 0
 6651              	@ 1931 "../../../SystemView/SEGGER/SEGGER_SYSVIEW.c" 1
 6652 0006 EFF31183 		mrs   r3, basepri  
 6653 000a 4FF02001 		mov   r1, #32       
 6654 000e 81F31188 		msr   basepri, r1  
 6655              		
 6656              	@ 0 "" 2
ARM GAS  /tmp/ccJhHFds.s 			page 151


 6657              		.thumb
 6658 0012 7B60     		str	r3, [r7, #4]
 6659 0014 0748     		ldr	r0, .L374
 6660 0016 FFF7FEFF 		bl	_PreparePacket
 6661 001a 3860     		str	r0, [r7]
1932:../../../SystemView/SEGGER/SEGGER_SYSVIEW.c ****   //
1933:../../../SystemView/SEGGER/SEGGER_SYSVIEW.c ****   _SendPacket(pPayloadStart, pPayloadStart, SYSVIEW_EVTID_TIMER_EXIT);
 6662              		.loc 1 1933 0
 6663 001c 3868     		ldr	r0, [r7]
 6664 001e 3968     		ldr	r1, [r7]
 6665 0020 1422     		movs	r2, #20
 6666 0022 FFF7FEFF 		bl	_SendPacket
1934:../../../SystemView/SEGGER/SEGGER_SYSVIEW.c ****   RECORD_END();
 6667              		.loc 1 1934 0
 6668 0026 7B68     		ldr	r3, [r7, #4]
 6669              	@ 1934 "../../../SystemView/SEGGER/SEGGER_SYSVIEW.c" 1
 6670 0028 83F31188 		msr   basepri, r3  
 6671              		
 6672              	@ 0 "" 2
 6673              		.thumb
 6674              	.LBE109:
1935:../../../SystemView/SEGGER/SEGGER_SYSVIEW.c **** }
 6675              		.loc 1 1935 0
 6676 002c 0837     		adds	r7, r7, #8
 6677              	.LCFI184:
 6678              		.cfi_def_cfa_offset 8
 6679 002e BD46     		mov	sp, r7
 6680              	.LCFI185:
 6681              		.cfi_def_cfa_register 13
 6682              		@ sp needed
 6683 0030 80BD     		pop	{r7, pc}
 6684              	.L375:
 6685 0032 00BF     		.align	2
 6686              	.L374:
 6687 0034 00000000 		.word	_aPacket
 6688              		.cfi_endproc
 6689              	.LFE36:
 6691              		.section	.text.SEGGER_SYSVIEW_RecordEndCall,"ax",%progbits
 6692              		.align	2
 6693              		.global	SEGGER_SYSVIEW_RecordEndCall
 6694              		.thumb
 6695              		.thumb_func
 6697              	SEGGER_SYSVIEW_RecordEndCall:
 6698              	.LFB37:
1936:../../../SystemView/SEGGER/SEGGER_SYSVIEW.c **** 
1937:../../../SystemView/SEGGER/SEGGER_SYSVIEW.c **** /*********************************************************************
1938:../../../SystemView/SEGGER/SEGGER_SYSVIEW.c **** *
1939:../../../SystemView/SEGGER/SEGGER_SYSVIEW.c **** *       SEGGER_SYSVIEW_RecordEndCall()
1940:../../../SystemView/SEGGER/SEGGER_SYSVIEW.c **** *
1941:../../../SystemView/SEGGER/SEGGER_SYSVIEW.c **** *  Function description
1942:../../../SystemView/SEGGER/SEGGER_SYSVIEW.c **** *    Format and send an End API Call event without return value.
1943:../../../SystemView/SEGGER/SEGGER_SYSVIEW.c **** *  
1944:../../../SystemView/SEGGER/SEGGER_SYSVIEW.c **** *  Parameters
1945:../../../SystemView/SEGGER/SEGGER_SYSVIEW.c **** *    EventID - Id of API function which ends.
1946:../../../SystemView/SEGGER/SEGGER_SYSVIEW.c **** */
1947:../../../SystemView/SEGGER/SEGGER_SYSVIEW.c **** void SEGGER_SYSVIEW_RecordEndCall(unsigned int EventID) {
 6699              		.loc 1 1947 0
ARM GAS  /tmp/ccJhHFds.s 			page 152


 6700              		.cfi_startproc
 6701              		@ args = 0, pretend = 0, frame = 32
 6702              		@ frame_needed = 1, uses_anonymous_args = 0
 6703 0000 80B5     		push	{r7, lr}
 6704              	.LCFI186:
 6705              		.cfi_def_cfa_offset 8
 6706              		.cfi_offset 7, -8
 6707              		.cfi_offset 14, -4
 6708 0002 88B0     		sub	sp, sp, #32
 6709              	.LCFI187:
 6710              		.cfi_def_cfa_offset 40
 6711 0004 00AF     		add	r7, sp, #0
 6712              	.LCFI188:
 6713              		.cfi_def_cfa_register 7
 6714 0006 7860     		str	r0, [r7, #4]
 6715              	.LBB110:
1948:../../../SystemView/SEGGER/SEGGER_SYSVIEW.c ****   U8* pPayload;
1949:../../../SystemView/SEGGER/SEGGER_SYSVIEW.c ****   U8* pPayloadStart;
1950:../../../SystemView/SEGGER/SEGGER_SYSVIEW.c ****   RECORD_START(SEGGER_SYSVIEW_INFO_SIZE + SEGGER_SYSVIEW_QUANTA_U32);
 6716              		.loc 1 1950 0
 6717              	@ 1950 "../../../SystemView/SEGGER/SEGGER_SYSVIEW.c" 1
 6718 0008 EFF31183 		mrs   r3, basepri  
 6719 000c 4FF02001 		mov   r1, #32       
 6720 0010 81F31188 		msr   basepri, r1  
 6721              		
 6722              	@ 0 "" 2
 6723              		.thumb
 6724 0014 7B61     		str	r3, [r7, #20]
 6725 0016 1648     		ldr	r0, .L379
 6726 0018 FFF7FEFF 		bl	_PreparePacket
 6727 001c 3861     		str	r0, [r7, #16]
1951:../../../SystemView/SEGGER/SEGGER_SYSVIEW.c ****   //
1952:../../../SystemView/SEGGER/SEGGER_SYSVIEW.c ****   pPayload = pPayloadStart;
 6728              		.loc 1 1952 0
 6729 001e 3B69     		ldr	r3, [r7, #16]
 6730 0020 FB60     		str	r3, [r7, #12]
 6731              	.LBB111:
1953:../../../SystemView/SEGGER/SEGGER_SYSVIEW.c ****   ENCODE_U32(pPayload, EventID);
 6732              		.loc 1 1953 0
 6733 0022 FB68     		ldr	r3, [r7, #12]
 6734 0024 FB61     		str	r3, [r7, #28]
 6735 0026 7B68     		ldr	r3, [r7, #4]
 6736 0028 BB61     		str	r3, [r7, #24]
 6737 002a 0BE0     		b	.L377
 6738              	.L378:
 6739              		.loc 1 1953 0 is_stmt 0 discriminator 3
 6740 002c FB69     		ldr	r3, [r7, #28]
 6741 002e 5A1C     		adds	r2, r3, #1
 6742 0030 FA61     		str	r2, [r7, #28]
 6743 0032 BA69     		ldr	r2, [r7, #24]
 6744 0034 D2B2     		uxtb	r2, r2
 6745 0036 62F07F02 		orn	r2, r2, #127
 6746 003a D2B2     		uxtb	r2, r2
 6747 003c 1A70     		strb	r2, [r3]
 6748 003e BB69     		ldr	r3, [r7, #24]
 6749 0040 DB09     		lsrs	r3, r3, #7
 6750 0042 BB61     		str	r3, [r7, #24]
ARM GAS  /tmp/ccJhHFds.s 			page 153


 6751              	.L377:
 6752              		.loc 1 1953 0 discriminator 1
 6753 0044 BB69     		ldr	r3, [r7, #24]
 6754 0046 7F2B     		cmp	r3, #127
 6755 0048 F0D8     		bhi	.L378
 6756              		.loc 1 1953 0 discriminator 4
 6757 004a FB69     		ldr	r3, [r7, #28]
 6758 004c 5A1C     		adds	r2, r3, #1
 6759 004e FA61     		str	r2, [r7, #28]
 6760 0050 BA69     		ldr	r2, [r7, #24]
 6761 0052 D2B2     		uxtb	r2, r2
 6762 0054 1A70     		strb	r2, [r3]
 6763 0056 FB69     		ldr	r3, [r7, #28]
 6764 0058 FB60     		str	r3, [r7, #12]
 6765              	.LBE111:
1954:../../../SystemView/SEGGER/SEGGER_SYSVIEW.c ****   _SendPacket(pPayloadStart, pPayload, SYSVIEW_EVTID_END_CALL);
 6766              		.loc 1 1954 0 is_stmt 1 discriminator 4
 6767 005a 3869     		ldr	r0, [r7, #16]
 6768 005c F968     		ldr	r1, [r7, #12]
 6769 005e 1C22     		movs	r2, #28
 6770 0060 FFF7FEFF 		bl	_SendPacket
1955:../../../SystemView/SEGGER/SEGGER_SYSVIEW.c ****   RECORD_END();
 6771              		.loc 1 1955 0 discriminator 4
 6772 0064 7B69     		ldr	r3, [r7, #20]
 6773              	@ 1955 "../../../SystemView/SEGGER/SEGGER_SYSVIEW.c" 1
 6774 0066 83F31188 		msr   basepri, r3  
 6775              		
 6776              	@ 0 "" 2
 6777              		.thumb
 6778              	.LBE110:
1956:../../../SystemView/SEGGER/SEGGER_SYSVIEW.c **** }
 6779              		.loc 1 1956 0 discriminator 4
 6780 006a 2037     		adds	r7, r7, #32
 6781              	.LCFI189:
 6782              		.cfi_def_cfa_offset 8
 6783 006c BD46     		mov	sp, r7
 6784              	.LCFI190:
 6785              		.cfi_def_cfa_register 13
 6786              		@ sp needed
 6787 006e 80BD     		pop	{r7, pc}
 6788              	.L380:
 6789              		.align	2
 6790              	.L379:
 6791 0070 00000000 		.word	_aPacket
 6792              		.cfi_endproc
 6793              	.LFE37:
 6795              		.section	.text.SEGGER_SYSVIEW_RecordEndCallU32,"ax",%progbits
 6796              		.align	2
 6797              		.global	SEGGER_SYSVIEW_RecordEndCallU32
 6798              		.thumb
 6799              		.thumb_func
 6801              	SEGGER_SYSVIEW_RecordEndCallU32:
 6802              	.LFB38:
1957:../../../SystemView/SEGGER/SEGGER_SYSVIEW.c **** 
1958:../../../SystemView/SEGGER/SEGGER_SYSVIEW.c **** /*********************************************************************
1959:../../../SystemView/SEGGER/SEGGER_SYSVIEW.c **** *
1960:../../../SystemView/SEGGER/SEGGER_SYSVIEW.c **** *       SEGGER_SYSVIEW_RecordEndCallU32()
ARM GAS  /tmp/ccJhHFds.s 			page 154


1961:../../../SystemView/SEGGER/SEGGER_SYSVIEW.c **** *
1962:../../../SystemView/SEGGER/SEGGER_SYSVIEW.c **** *  Function description
1963:../../../SystemView/SEGGER/SEGGER_SYSVIEW.c **** *    Format and send an End API Call event with return value.
1964:../../../SystemView/SEGGER/SEGGER_SYSVIEW.c **** *  
1965:../../../SystemView/SEGGER/SEGGER_SYSVIEW.c **** *  Parameters
1966:../../../SystemView/SEGGER/SEGGER_SYSVIEW.c **** *    EventID      - Id of API function which ends.
1967:../../../SystemView/SEGGER/SEGGER_SYSVIEW.c **** *    Para0        - Return value which will be returned by the API function.
1968:../../../SystemView/SEGGER/SEGGER_SYSVIEW.c **** */
1969:../../../SystemView/SEGGER/SEGGER_SYSVIEW.c **** void SEGGER_SYSVIEW_RecordEndCallU32(unsigned int EventID, U32 Para0) {
 6803              		.loc 1 1969 0
 6804              		.cfi_startproc
 6805              		@ args = 0, pretend = 0, frame = 40
 6806              		@ frame_needed = 1, uses_anonymous_args = 0
 6807 0000 80B5     		push	{r7, lr}
 6808              	.LCFI191:
 6809              		.cfi_def_cfa_offset 8
 6810              		.cfi_offset 7, -8
 6811              		.cfi_offset 14, -4
 6812 0002 8AB0     		sub	sp, sp, #40
 6813              	.LCFI192:
 6814              		.cfi_def_cfa_offset 48
 6815 0004 00AF     		add	r7, sp, #0
 6816              	.LCFI193:
 6817              		.cfi_def_cfa_register 7
 6818 0006 7860     		str	r0, [r7, #4]
 6819 0008 3960     		str	r1, [r7]
 6820              	.LBB112:
1970:../../../SystemView/SEGGER/SEGGER_SYSVIEW.c ****   U8* pPayload;
1971:../../../SystemView/SEGGER/SEGGER_SYSVIEW.c ****   U8* pPayloadStart;
1972:../../../SystemView/SEGGER/SEGGER_SYSVIEW.c ****   RECORD_START(SEGGER_SYSVIEW_INFO_SIZE + 2 * SEGGER_SYSVIEW_QUANTA_U32);
 6821              		.loc 1 1972 0
 6822              	@ 1972 "../../../SystemView/SEGGER/SEGGER_SYSVIEW.c" 1
 6823 000a EFF31183 		mrs   r3, basepri  
 6824 000e 4FF02001 		mov   r1, #32       
 6825 0012 81F31188 		msr   basepri, r1  
 6826              		
 6827              	@ 0 "" 2
 6828              		.thumb
 6829 0016 7B61     		str	r3, [r7, #20]
 6830 0018 2448     		ldr	r0, .L386
 6831 001a FFF7FEFF 		bl	_PreparePacket
 6832 001e 3861     		str	r0, [r7, #16]
1973:../../../SystemView/SEGGER/SEGGER_SYSVIEW.c ****   //
1974:../../../SystemView/SEGGER/SEGGER_SYSVIEW.c ****   pPayload = pPayloadStart;
 6833              		.loc 1 1974 0
 6834 0020 3B69     		ldr	r3, [r7, #16]
 6835 0022 FB60     		str	r3, [r7, #12]
 6836              	.LBB113:
1975:../../../SystemView/SEGGER/SEGGER_SYSVIEW.c ****   ENCODE_U32(pPayload, EventID);
 6837              		.loc 1 1975 0
 6838 0024 FB68     		ldr	r3, [r7, #12]
 6839 0026 7B62     		str	r3, [r7, #36]
 6840 0028 7B68     		ldr	r3, [r7, #4]
 6841 002a 3B62     		str	r3, [r7, #32]
 6842 002c 0BE0     		b	.L382
 6843              	.L383:
 6844              		.loc 1 1975 0 is_stmt 0 discriminator 3
ARM GAS  /tmp/ccJhHFds.s 			page 155


 6845 002e 7B6A     		ldr	r3, [r7, #36]
 6846 0030 5A1C     		adds	r2, r3, #1
 6847 0032 7A62     		str	r2, [r7, #36]
 6848 0034 3A6A     		ldr	r2, [r7, #32]
 6849 0036 D2B2     		uxtb	r2, r2
 6850 0038 62F07F02 		orn	r2, r2, #127
 6851 003c D2B2     		uxtb	r2, r2
 6852 003e 1A70     		strb	r2, [r3]
 6853 0040 3B6A     		ldr	r3, [r7, #32]
 6854 0042 DB09     		lsrs	r3, r3, #7
 6855 0044 3B62     		str	r3, [r7, #32]
 6856              	.L382:
 6857              		.loc 1 1975 0 discriminator 1
 6858 0046 3B6A     		ldr	r3, [r7, #32]
 6859 0048 7F2B     		cmp	r3, #127
 6860 004a F0D8     		bhi	.L383
 6861              		.loc 1 1975 0 discriminator 4
 6862 004c 7B6A     		ldr	r3, [r7, #36]
 6863 004e 5A1C     		adds	r2, r3, #1
 6864 0050 7A62     		str	r2, [r7, #36]
 6865 0052 3A6A     		ldr	r2, [r7, #32]
 6866 0054 D2B2     		uxtb	r2, r2
 6867 0056 1A70     		strb	r2, [r3]
 6868 0058 7B6A     		ldr	r3, [r7, #36]
 6869 005a FB60     		str	r3, [r7, #12]
 6870              	.LBE113:
 6871              	.LBB114:
1976:../../../SystemView/SEGGER/SEGGER_SYSVIEW.c ****   ENCODE_U32(pPayload, Para0);
 6872              		.loc 1 1976 0 is_stmt 1 discriminator 4
 6873 005c FB68     		ldr	r3, [r7, #12]
 6874 005e FB61     		str	r3, [r7, #28]
 6875 0060 3B68     		ldr	r3, [r7]
 6876 0062 BB61     		str	r3, [r7, #24]
 6877 0064 0BE0     		b	.L384
 6878              	.L385:
 6879              		.loc 1 1976 0 is_stmt 0 discriminator 3
 6880 0066 FB69     		ldr	r3, [r7, #28]
 6881 0068 5A1C     		adds	r2, r3, #1
 6882 006a FA61     		str	r2, [r7, #28]
 6883 006c BA69     		ldr	r2, [r7, #24]
 6884 006e D2B2     		uxtb	r2, r2
 6885 0070 62F07F02 		orn	r2, r2, #127
 6886 0074 D2B2     		uxtb	r2, r2
 6887 0076 1A70     		strb	r2, [r3]
 6888 0078 BB69     		ldr	r3, [r7, #24]
 6889 007a DB09     		lsrs	r3, r3, #7
 6890 007c BB61     		str	r3, [r7, #24]
 6891              	.L384:
 6892              		.loc 1 1976 0 discriminator 1
 6893 007e BB69     		ldr	r3, [r7, #24]
 6894 0080 7F2B     		cmp	r3, #127
 6895 0082 F0D8     		bhi	.L385
 6896              		.loc 1 1976 0 discriminator 4
 6897 0084 FB69     		ldr	r3, [r7, #28]
 6898 0086 5A1C     		adds	r2, r3, #1
 6899 0088 FA61     		str	r2, [r7, #28]
 6900 008a BA69     		ldr	r2, [r7, #24]
ARM GAS  /tmp/ccJhHFds.s 			page 156


 6901 008c D2B2     		uxtb	r2, r2
 6902 008e 1A70     		strb	r2, [r3]
 6903 0090 FB69     		ldr	r3, [r7, #28]
 6904 0092 FB60     		str	r3, [r7, #12]
 6905              	.LBE114:
1977:../../../SystemView/SEGGER/SEGGER_SYSVIEW.c ****   _SendPacket(pPayloadStart, pPayload, SYSVIEW_EVTID_END_CALL);
 6906              		.loc 1 1977 0 is_stmt 1 discriminator 4
 6907 0094 3869     		ldr	r0, [r7, #16]
 6908 0096 F968     		ldr	r1, [r7, #12]
 6909 0098 1C22     		movs	r2, #28
 6910 009a FFF7FEFF 		bl	_SendPacket
1978:../../../SystemView/SEGGER/SEGGER_SYSVIEW.c ****   RECORD_END();
 6911              		.loc 1 1978 0 discriminator 4
 6912 009e 7B69     		ldr	r3, [r7, #20]
 6913              	@ 1978 "../../../SystemView/SEGGER/SEGGER_SYSVIEW.c" 1
 6914 00a0 83F31188 		msr   basepri, r3  
 6915              		
 6916              	@ 0 "" 2
 6917              		.thumb
 6918              	.LBE112:
1979:../../../SystemView/SEGGER/SEGGER_SYSVIEW.c **** }
 6919              		.loc 1 1979 0 discriminator 4
 6920 00a4 2837     		adds	r7, r7, #40
 6921              	.LCFI194:
 6922              		.cfi_def_cfa_offset 8
 6923 00a6 BD46     		mov	sp, r7
 6924              	.LCFI195:
 6925              		.cfi_def_cfa_register 13
 6926              		@ sp needed
 6927 00a8 80BD     		pop	{r7, pc}
 6928              	.L387:
 6929 00aa 00BF     		.align	2
 6930              	.L386:
 6931 00ac 00000000 		.word	_aPacket
 6932              		.cfi_endproc
 6933              	.LFE38:
 6935              		.section	.text.SEGGER_SYSVIEW_OnIdle,"ax",%progbits
 6936              		.align	2
 6937              		.global	SEGGER_SYSVIEW_OnIdle
 6938              		.thumb
 6939              		.thumb_func
 6941              	SEGGER_SYSVIEW_OnIdle:
 6942              	.LFB39:
1980:../../../SystemView/SEGGER/SEGGER_SYSVIEW.c **** 
1981:../../../SystemView/SEGGER/SEGGER_SYSVIEW.c **** /*********************************************************************
1982:../../../SystemView/SEGGER/SEGGER_SYSVIEW.c **** *
1983:../../../SystemView/SEGGER/SEGGER_SYSVIEW.c **** *       SEGGER_SYSVIEW_OnIdle()
1984:../../../SystemView/SEGGER/SEGGER_SYSVIEW.c **** *
1985:../../../SystemView/SEGGER/SEGGER_SYSVIEW.c **** *  Function description
1986:../../../SystemView/SEGGER/SEGGER_SYSVIEW.c **** *    Record an Idle event.
1987:../../../SystemView/SEGGER/SEGGER_SYSVIEW.c **** */
1988:../../../SystemView/SEGGER/SEGGER_SYSVIEW.c **** void SEGGER_SYSVIEW_OnIdle(void) {
 6943              		.loc 1 1988 0
 6944              		.cfi_startproc
 6945              		@ args = 0, pretend = 0, frame = 8
 6946              		@ frame_needed = 1, uses_anonymous_args = 0
 6947 0000 80B5     		push	{r7, lr}
ARM GAS  /tmp/ccJhHFds.s 			page 157


 6948              	.LCFI196:
 6949              		.cfi_def_cfa_offset 8
 6950              		.cfi_offset 7, -8
 6951              		.cfi_offset 14, -4
 6952 0002 82B0     		sub	sp, sp, #8
 6953              	.LCFI197:
 6954              		.cfi_def_cfa_offset 16
 6955 0004 00AF     		add	r7, sp, #0
 6956              	.LCFI198:
 6957              		.cfi_def_cfa_register 7
 6958              	.LBB115:
1989:../../../SystemView/SEGGER/SEGGER_SYSVIEW.c ****   U8* pPayloadStart;
1990:../../../SystemView/SEGGER/SEGGER_SYSVIEW.c ****   RECORD_START(SEGGER_SYSVIEW_INFO_SIZE);
 6959              		.loc 1 1990 0
 6960              	@ 1990 "../../../SystemView/SEGGER/SEGGER_SYSVIEW.c" 1
 6961 0006 EFF31183 		mrs   r3, basepri  
 6962 000a 4FF02001 		mov   r1, #32       
 6963 000e 81F31188 		msr   basepri, r1  
 6964              		
 6965              	@ 0 "" 2
 6966              		.thumb
 6967 0012 7B60     		str	r3, [r7, #4]
 6968 0014 0748     		ldr	r0, .L389
 6969 0016 FFF7FEFF 		bl	_PreparePacket
 6970 001a 3860     		str	r0, [r7]
1991:../../../SystemView/SEGGER/SEGGER_SYSVIEW.c ****   //
1992:../../../SystemView/SEGGER/SEGGER_SYSVIEW.c ****   _SendPacket(pPayloadStart, pPayloadStart, SYSVIEW_EVTID_IDLE);
 6971              		.loc 1 1992 0
 6972 001c 3868     		ldr	r0, [r7]
 6973 001e 3968     		ldr	r1, [r7]
 6974 0020 1122     		movs	r2, #17
 6975 0022 FFF7FEFF 		bl	_SendPacket
1993:../../../SystemView/SEGGER/SEGGER_SYSVIEW.c ****   RECORD_END();
 6976              		.loc 1 1993 0
 6977 0026 7B68     		ldr	r3, [r7, #4]
 6978              	@ 1993 "../../../SystemView/SEGGER/SEGGER_SYSVIEW.c" 1
 6979 0028 83F31188 		msr   basepri, r3  
 6980              		
 6981              	@ 0 "" 2
 6982              		.thumb
 6983              	.LBE115:
1994:../../../SystemView/SEGGER/SEGGER_SYSVIEW.c **** }
 6984              		.loc 1 1994 0
 6985 002c 0837     		adds	r7, r7, #8
 6986              	.LCFI199:
 6987              		.cfi_def_cfa_offset 8
 6988 002e BD46     		mov	sp, r7
 6989              	.LCFI200:
 6990              		.cfi_def_cfa_register 13
 6991              		@ sp needed
 6992 0030 80BD     		pop	{r7, pc}
 6993              	.L390:
 6994 0032 00BF     		.align	2
 6995              	.L389:
 6996 0034 00000000 		.word	_aPacket
 6997              		.cfi_endproc
 6998              	.LFE39:
ARM GAS  /tmp/ccJhHFds.s 			page 158


 7000              		.section	.text.SEGGER_SYSVIEW_OnTaskCreate,"ax",%progbits
 7001              		.align	2
 7002              		.global	SEGGER_SYSVIEW_OnTaskCreate
 7003              		.thumb
 7004              		.thumb_func
 7006              	SEGGER_SYSVIEW_OnTaskCreate:
 7007              	.LFB40:
1995:../../../SystemView/SEGGER/SEGGER_SYSVIEW.c **** 
1996:../../../SystemView/SEGGER/SEGGER_SYSVIEW.c **** /*********************************************************************
1997:../../../SystemView/SEGGER/SEGGER_SYSVIEW.c **** *
1998:../../../SystemView/SEGGER/SEGGER_SYSVIEW.c **** *       SEGGER_SYSVIEW_OnTaskCreate()
1999:../../../SystemView/SEGGER/SEGGER_SYSVIEW.c **** *
2000:../../../SystemView/SEGGER/SEGGER_SYSVIEW.c **** *  Function description
2001:../../../SystemView/SEGGER/SEGGER_SYSVIEW.c **** *    Record a Task Create event.  The Task Create event corresponds
2002:../../../SystemView/SEGGER/SEGGER_SYSVIEW.c **** *    to creating a task in the OS.
2003:../../../SystemView/SEGGER/SEGGER_SYSVIEW.c **** *
2004:../../../SystemView/SEGGER/SEGGER_SYSVIEW.c **** *  Parameters
2005:../../../SystemView/SEGGER/SEGGER_SYSVIEW.c **** *    TaskId        - Task ID of created task.
2006:../../../SystemView/SEGGER/SEGGER_SYSVIEW.c **** */
2007:../../../SystemView/SEGGER/SEGGER_SYSVIEW.c **** void SEGGER_SYSVIEW_OnTaskCreate(U32 TaskId) {
 7008              		.loc 1 2007 0
 7009              		.cfi_startproc
 7010              		@ args = 0, pretend = 0, frame = 32
 7011              		@ frame_needed = 1, uses_anonymous_args = 0
 7012 0000 80B5     		push	{r7, lr}
 7013              	.LCFI201:
 7014              		.cfi_def_cfa_offset 8
 7015              		.cfi_offset 7, -8
 7016              		.cfi_offset 14, -4
 7017 0002 88B0     		sub	sp, sp, #32
 7018              	.LCFI202:
 7019              		.cfi_def_cfa_offset 40
 7020 0004 00AF     		add	r7, sp, #0
 7021              	.LCFI203:
 7022              		.cfi_def_cfa_register 7
 7023 0006 7860     		str	r0, [r7, #4]
 7024              	.LBB116:
2008:../../../SystemView/SEGGER/SEGGER_SYSVIEW.c ****   U8* pPayload;
2009:../../../SystemView/SEGGER/SEGGER_SYSVIEW.c ****   U8* pPayloadStart;
2010:../../../SystemView/SEGGER/SEGGER_SYSVIEW.c ****   RECORD_START(SEGGER_SYSVIEW_INFO_SIZE + SEGGER_SYSVIEW_QUANTA_U32);
 7025              		.loc 1 2010 0
 7026              	@ 2010 "../../../SystemView/SEGGER/SEGGER_SYSVIEW.c" 1
 7027 0008 EFF31183 		mrs   r3, basepri  
 7028 000c 4FF02001 		mov   r1, #32       
 7029 0010 81F31188 		msr   basepri, r1  
 7030              		
 7031              	@ 0 "" 2
 7032              		.thumb
 7033 0014 7B61     		str	r3, [r7, #20]
 7034 0016 1948     		ldr	r0, .L394
 7035 0018 FFF7FEFF 		bl	_PreparePacket
 7036 001c 3861     		str	r0, [r7, #16]
2011:../../../SystemView/SEGGER/SEGGER_SYSVIEW.c ****   //
2012:../../../SystemView/SEGGER/SEGGER_SYSVIEW.c ****   pPayload = pPayloadStart;
 7037              		.loc 1 2012 0
 7038 001e 3B69     		ldr	r3, [r7, #16]
 7039 0020 FB60     		str	r3, [r7, #12]
ARM GAS  /tmp/ccJhHFds.s 			page 159


2013:../../../SystemView/SEGGER/SEGGER_SYSVIEW.c ****   TaskId = SHRINK_ID(TaskId);
 7040              		.loc 1 2013 0
 7041 0022 174B     		ldr	r3, .L394+4
 7042 0024 1B69     		ldr	r3, [r3, #16]
 7043 0026 7A68     		ldr	r2, [r7, #4]
 7044 0028 D31A     		subs	r3, r2, r3
 7045 002a 9B08     		lsrs	r3, r3, #2
 7046 002c 7B60     		str	r3, [r7, #4]
 7047              	.LBB117:
2014:../../../SystemView/SEGGER/SEGGER_SYSVIEW.c ****   ENCODE_U32(pPayload, TaskId);
 7048              		.loc 1 2014 0
 7049 002e FB68     		ldr	r3, [r7, #12]
 7050 0030 FB61     		str	r3, [r7, #28]
 7051 0032 7B68     		ldr	r3, [r7, #4]
 7052 0034 BB61     		str	r3, [r7, #24]
 7053 0036 0BE0     		b	.L392
 7054              	.L393:
 7055              		.loc 1 2014 0 is_stmt 0 discriminator 3
 7056 0038 FB69     		ldr	r3, [r7, #28]
 7057 003a 5A1C     		adds	r2, r3, #1
 7058 003c FA61     		str	r2, [r7, #28]
 7059 003e BA69     		ldr	r2, [r7, #24]
 7060 0040 D2B2     		uxtb	r2, r2
 7061 0042 62F07F02 		orn	r2, r2, #127
 7062 0046 D2B2     		uxtb	r2, r2
 7063 0048 1A70     		strb	r2, [r3]
 7064 004a BB69     		ldr	r3, [r7, #24]
 7065 004c DB09     		lsrs	r3, r3, #7
 7066 004e BB61     		str	r3, [r7, #24]
 7067              	.L392:
 7068              		.loc 1 2014 0 discriminator 1
 7069 0050 BB69     		ldr	r3, [r7, #24]
 7070 0052 7F2B     		cmp	r3, #127
 7071 0054 F0D8     		bhi	.L393
 7072              		.loc 1 2014 0 discriminator 4
 7073 0056 FB69     		ldr	r3, [r7, #28]
 7074 0058 5A1C     		adds	r2, r3, #1
 7075 005a FA61     		str	r2, [r7, #28]
 7076 005c BA69     		ldr	r2, [r7, #24]
 7077 005e D2B2     		uxtb	r2, r2
 7078 0060 1A70     		strb	r2, [r3]
 7079 0062 FB69     		ldr	r3, [r7, #28]
 7080 0064 FB60     		str	r3, [r7, #12]
 7081              	.LBE117:
2015:../../../SystemView/SEGGER/SEGGER_SYSVIEW.c ****   _SendPacket(pPayloadStart, pPayload, SYSVIEW_EVTID_TASK_CREATE);
 7082              		.loc 1 2015 0 is_stmt 1 discriminator 4
 7083 0066 3869     		ldr	r0, [r7, #16]
 7084 0068 F968     		ldr	r1, [r7, #12]
 7085 006a 0822     		movs	r2, #8
 7086 006c FFF7FEFF 		bl	_SendPacket
2016:../../../SystemView/SEGGER/SEGGER_SYSVIEW.c ****   RECORD_END();
 7087              		.loc 1 2016 0 discriminator 4
 7088 0070 7B69     		ldr	r3, [r7, #20]
 7089              	@ 2016 "../../../SystemView/SEGGER/SEGGER_SYSVIEW.c" 1
 7090 0072 83F31188 		msr   basepri, r3  
 7091              		
 7092              	@ 0 "" 2
ARM GAS  /tmp/ccJhHFds.s 			page 160


 7093              		.thumb
 7094              	.LBE116:
2017:../../../SystemView/SEGGER/SEGGER_SYSVIEW.c **** }
 7095              		.loc 1 2017 0 discriminator 4
 7096 0076 2037     		adds	r7, r7, #32
 7097              	.LCFI204:
 7098              		.cfi_def_cfa_offset 8
 7099 0078 BD46     		mov	sp, r7
 7100              	.LCFI205:
 7101              		.cfi_def_cfa_register 13
 7102              		@ sp needed
 7103 007a 80BD     		pop	{r7, pc}
 7104              	.L395:
 7105              		.align	2
 7106              	.L394:
 7107 007c 00000000 		.word	_aPacket
 7108 0080 00000000 		.word	_SYSVIEW_Globals
 7109              		.cfi_endproc
 7110              	.LFE40:
 7112              		.section	.text.SEGGER_SYSVIEW_OnTaskTerminate,"ax",%progbits
 7113              		.align	2
 7114              		.global	SEGGER_SYSVIEW_OnTaskTerminate
 7115              		.thumb
 7116              		.thumb_func
 7118              	SEGGER_SYSVIEW_OnTaskTerminate:
 7119              	.LFB41:
2018:../../../SystemView/SEGGER/SEGGER_SYSVIEW.c **** 
2019:../../../SystemView/SEGGER/SEGGER_SYSVIEW.c **** /*********************************************************************
2020:../../../SystemView/SEGGER/SEGGER_SYSVIEW.c **** *
2021:../../../SystemView/SEGGER/SEGGER_SYSVIEW.c **** *       SEGGER_SYSVIEW_OnTaskTerminate()
2022:../../../SystemView/SEGGER/SEGGER_SYSVIEW.c **** *
2023:../../../SystemView/SEGGER/SEGGER_SYSVIEW.c **** *  Function description
2024:../../../SystemView/SEGGER/SEGGER_SYSVIEW.c **** *    Record a Task termination event.  
2025:../../../SystemView/SEGGER/SEGGER_SYSVIEW.c **** *    The Task termination event corresponds to terminating a task in 
2026:../../../SystemView/SEGGER/SEGGER_SYSVIEW.c **** *    the OS. If the TaskId is the currently active task, 
2027:../../../SystemView/SEGGER/SEGGER_SYSVIEW.c **** *    SEGGER_SYSVIEW_OnTaskStopExec may be used, either.
2028:../../../SystemView/SEGGER/SEGGER_SYSVIEW.c **** *
2029:../../../SystemView/SEGGER/SEGGER_SYSVIEW.c **** *  Parameters
2030:../../../SystemView/SEGGER/SEGGER_SYSVIEW.c **** *    TaskId        - Task ID of terminated task.
2031:../../../SystemView/SEGGER/SEGGER_SYSVIEW.c **** */
2032:../../../SystemView/SEGGER/SEGGER_SYSVIEW.c **** void SEGGER_SYSVIEW_OnTaskTerminate(U32 TaskId) {
 7120              		.loc 1 2032 0
 7121              		.cfi_startproc
 7122              		@ args = 0, pretend = 0, frame = 32
 7123              		@ frame_needed = 1, uses_anonymous_args = 0
 7124 0000 80B5     		push	{r7, lr}
 7125              	.LCFI206:
 7126              		.cfi_def_cfa_offset 8
 7127              		.cfi_offset 7, -8
 7128              		.cfi_offset 14, -4
 7129 0002 88B0     		sub	sp, sp, #32
 7130              	.LCFI207:
 7131              		.cfi_def_cfa_offset 40
 7132 0004 00AF     		add	r7, sp, #0
 7133              	.LCFI208:
 7134              		.cfi_def_cfa_register 7
 7135 0006 7860     		str	r0, [r7, #4]
ARM GAS  /tmp/ccJhHFds.s 			page 161


 7136              	.LBB118:
2033:../../../SystemView/SEGGER/SEGGER_SYSVIEW.c ****   U8* pPayload;
2034:../../../SystemView/SEGGER/SEGGER_SYSVIEW.c ****   U8* pPayloadStart;
2035:../../../SystemView/SEGGER/SEGGER_SYSVIEW.c ****   RECORD_START(SEGGER_SYSVIEW_INFO_SIZE + SEGGER_SYSVIEW_QUANTA_U32);
 7137              		.loc 1 2035 0
 7138              	@ 2035 "../../../SystemView/SEGGER/SEGGER_SYSVIEW.c" 1
 7139 0008 EFF31183 		mrs   r3, basepri  
 7140 000c 4FF02001 		mov   r1, #32       
 7141 0010 81F31188 		msr   basepri, r1  
 7142              		
 7143              	@ 0 "" 2
 7144              		.thumb
 7145 0014 7B61     		str	r3, [r7, #20]
 7146 0016 1948     		ldr	r0, .L399
 7147 0018 FFF7FEFF 		bl	_PreparePacket
 7148 001c 3861     		str	r0, [r7, #16]
2036:../../../SystemView/SEGGER/SEGGER_SYSVIEW.c ****   //
2037:../../../SystemView/SEGGER/SEGGER_SYSVIEW.c ****   pPayload = pPayloadStart;
 7149              		.loc 1 2037 0
 7150 001e 3B69     		ldr	r3, [r7, #16]
 7151 0020 FB60     		str	r3, [r7, #12]
2038:../../../SystemView/SEGGER/SEGGER_SYSVIEW.c ****   TaskId = SHRINK_ID(TaskId);
 7152              		.loc 1 2038 0
 7153 0022 174B     		ldr	r3, .L399+4
 7154 0024 1B69     		ldr	r3, [r3, #16]
 7155 0026 7A68     		ldr	r2, [r7, #4]
 7156 0028 D31A     		subs	r3, r2, r3
 7157 002a 9B08     		lsrs	r3, r3, #2
 7158 002c 7B60     		str	r3, [r7, #4]
 7159              	.LBB119:
2039:../../../SystemView/SEGGER/SEGGER_SYSVIEW.c ****   ENCODE_U32(pPayload, TaskId);
 7160              		.loc 1 2039 0
 7161 002e FB68     		ldr	r3, [r7, #12]
 7162 0030 FB61     		str	r3, [r7, #28]
 7163 0032 7B68     		ldr	r3, [r7, #4]
 7164 0034 BB61     		str	r3, [r7, #24]
 7165 0036 0BE0     		b	.L397
 7166              	.L398:
 7167              		.loc 1 2039 0 is_stmt 0 discriminator 3
 7168 0038 FB69     		ldr	r3, [r7, #28]
 7169 003a 5A1C     		adds	r2, r3, #1
 7170 003c FA61     		str	r2, [r7, #28]
 7171 003e BA69     		ldr	r2, [r7, #24]
 7172 0040 D2B2     		uxtb	r2, r2
 7173 0042 62F07F02 		orn	r2, r2, #127
 7174 0046 D2B2     		uxtb	r2, r2
 7175 0048 1A70     		strb	r2, [r3]
 7176 004a BB69     		ldr	r3, [r7, #24]
 7177 004c DB09     		lsrs	r3, r3, #7
 7178 004e BB61     		str	r3, [r7, #24]
 7179              	.L397:
 7180              		.loc 1 2039 0 discriminator 1
 7181 0050 BB69     		ldr	r3, [r7, #24]
 7182 0052 7F2B     		cmp	r3, #127
 7183 0054 F0D8     		bhi	.L398
 7184              		.loc 1 2039 0 discriminator 4
 7185 0056 FB69     		ldr	r3, [r7, #28]
ARM GAS  /tmp/ccJhHFds.s 			page 162


 7186 0058 5A1C     		adds	r2, r3, #1
 7187 005a FA61     		str	r2, [r7, #28]
 7188 005c BA69     		ldr	r2, [r7, #24]
 7189 005e D2B2     		uxtb	r2, r2
 7190 0060 1A70     		strb	r2, [r3]
 7191 0062 FB69     		ldr	r3, [r7, #28]
 7192 0064 FB60     		str	r3, [r7, #12]
 7193              	.LBE119:
2040:../../../SystemView/SEGGER/SEGGER_SYSVIEW.c ****   _SendPacket(pPayloadStart, pPayload, SYSVIEW_EVTID_TASK_TERMINATE);
 7194              		.loc 1 2040 0 is_stmt 1 discriminator 4
 7195 0066 3869     		ldr	r0, [r7, #16]
 7196 0068 F968     		ldr	r1, [r7, #12]
 7197 006a 1D22     		movs	r2, #29
 7198 006c FFF7FEFF 		bl	_SendPacket
2041:../../../SystemView/SEGGER/SEGGER_SYSVIEW.c ****   RECORD_END();
 7199              		.loc 1 2041 0 discriminator 4
 7200 0070 7B69     		ldr	r3, [r7, #20]
 7201              	@ 2041 "../../../SystemView/SEGGER/SEGGER_SYSVIEW.c" 1
 7202 0072 83F31188 		msr   basepri, r3  
 7203              		
 7204              	@ 0 "" 2
 7205              		.thumb
 7206              	.LBE118:
2042:../../../SystemView/SEGGER/SEGGER_SYSVIEW.c **** }
 7207              		.loc 1 2042 0 discriminator 4
 7208 0076 2037     		adds	r7, r7, #32
 7209              	.LCFI209:
 7210              		.cfi_def_cfa_offset 8
 7211 0078 BD46     		mov	sp, r7
 7212              	.LCFI210:
 7213              		.cfi_def_cfa_register 13
 7214              		@ sp needed
 7215 007a 80BD     		pop	{r7, pc}
 7216              	.L400:
 7217              		.align	2
 7218              	.L399:
 7219 007c 00000000 		.word	_aPacket
 7220 0080 00000000 		.word	_SYSVIEW_Globals
 7221              		.cfi_endproc
 7222              	.LFE41:
 7224              		.section	.text.SEGGER_SYSVIEW_OnTaskStartExec,"ax",%progbits
 7225              		.align	2
 7226              		.global	SEGGER_SYSVIEW_OnTaskStartExec
 7227              		.thumb
 7228              		.thumb_func
 7230              	SEGGER_SYSVIEW_OnTaskStartExec:
 7231              	.LFB42:
2043:../../../SystemView/SEGGER/SEGGER_SYSVIEW.c **** 
2044:../../../SystemView/SEGGER/SEGGER_SYSVIEW.c **** /*********************************************************************
2045:../../../SystemView/SEGGER/SEGGER_SYSVIEW.c **** *
2046:../../../SystemView/SEGGER/SEGGER_SYSVIEW.c **** *       SEGGER_SYSVIEW_OnTaskStartExec()
2047:../../../SystemView/SEGGER/SEGGER_SYSVIEW.c **** *
2048:../../../SystemView/SEGGER/SEGGER_SYSVIEW.c **** *  Function description
2049:../../../SystemView/SEGGER/SEGGER_SYSVIEW.c **** *    Record a Task Start Execution event.  The Task Start event
2050:../../../SystemView/SEGGER/SEGGER_SYSVIEW.c **** *    corresponds to when a task has started to execute rather than
2051:../../../SystemView/SEGGER/SEGGER_SYSVIEW.c **** *    when it is ready to execute.
2052:../../../SystemView/SEGGER/SEGGER_SYSVIEW.c **** *
ARM GAS  /tmp/ccJhHFds.s 			page 163


2053:../../../SystemView/SEGGER/SEGGER_SYSVIEW.c **** *  Parameters
2054:../../../SystemView/SEGGER/SEGGER_SYSVIEW.c **** *    TaskId - Task ID of task that started to execute.
2055:../../../SystemView/SEGGER/SEGGER_SYSVIEW.c **** */
2056:../../../SystemView/SEGGER/SEGGER_SYSVIEW.c **** void SEGGER_SYSVIEW_OnTaskStartExec(U32 TaskId) {
 7232              		.loc 1 2056 0
 7233              		.cfi_startproc
 7234              		@ args = 0, pretend = 0, frame = 32
 7235              		@ frame_needed = 1, uses_anonymous_args = 0
 7236 0000 80B5     		push	{r7, lr}
 7237              	.LCFI211:
 7238              		.cfi_def_cfa_offset 8
 7239              		.cfi_offset 7, -8
 7240              		.cfi_offset 14, -4
 7241 0002 88B0     		sub	sp, sp, #32
 7242              	.LCFI212:
 7243              		.cfi_def_cfa_offset 40
 7244 0004 00AF     		add	r7, sp, #0
 7245              	.LCFI213:
 7246              		.cfi_def_cfa_register 7
 7247 0006 7860     		str	r0, [r7, #4]
 7248              	.LBB120:
2057:../../../SystemView/SEGGER/SEGGER_SYSVIEW.c ****   U8* pPayload;
2058:../../../SystemView/SEGGER/SEGGER_SYSVIEW.c ****   U8* pPayloadStart;
2059:../../../SystemView/SEGGER/SEGGER_SYSVIEW.c ****   RECORD_START(SEGGER_SYSVIEW_INFO_SIZE + SEGGER_SYSVIEW_QUANTA_U32);
 7249              		.loc 1 2059 0
 7250              	@ 2059 "../../../SystemView/SEGGER/SEGGER_SYSVIEW.c" 1
 7251 0008 EFF31183 		mrs   r3, basepri  
 7252 000c 4FF02001 		mov   r1, #32       
 7253 0010 81F31188 		msr   basepri, r1  
 7254              		
 7255              	@ 0 "" 2
 7256              		.thumb
 7257 0014 7B61     		str	r3, [r7, #20]
 7258 0016 1948     		ldr	r0, .L404
 7259 0018 FFF7FEFF 		bl	_PreparePacket
 7260 001c 3861     		str	r0, [r7, #16]
2060:../../../SystemView/SEGGER/SEGGER_SYSVIEW.c ****   //
2061:../../../SystemView/SEGGER/SEGGER_SYSVIEW.c ****   pPayload = pPayloadStart;
 7261              		.loc 1 2061 0
 7262 001e 3B69     		ldr	r3, [r7, #16]
 7263 0020 FB60     		str	r3, [r7, #12]
2062:../../../SystemView/SEGGER/SEGGER_SYSVIEW.c ****   TaskId = SHRINK_ID(TaskId);
 7264              		.loc 1 2062 0
 7265 0022 174B     		ldr	r3, .L404+4
 7266 0024 1B69     		ldr	r3, [r3, #16]
 7267 0026 7A68     		ldr	r2, [r7, #4]
 7268 0028 D31A     		subs	r3, r2, r3
 7269 002a 9B08     		lsrs	r3, r3, #2
 7270 002c 7B60     		str	r3, [r7, #4]
 7271              	.LBB121:
2063:../../../SystemView/SEGGER/SEGGER_SYSVIEW.c ****   ENCODE_U32(pPayload, TaskId);
 7272              		.loc 1 2063 0
 7273 002e FB68     		ldr	r3, [r7, #12]
 7274 0030 FB61     		str	r3, [r7, #28]
 7275 0032 7B68     		ldr	r3, [r7, #4]
 7276 0034 BB61     		str	r3, [r7, #24]
 7277 0036 0BE0     		b	.L402
ARM GAS  /tmp/ccJhHFds.s 			page 164


 7278              	.L403:
 7279              		.loc 1 2063 0 is_stmt 0 discriminator 3
 7280 0038 FB69     		ldr	r3, [r7, #28]
 7281 003a 5A1C     		adds	r2, r3, #1
 7282 003c FA61     		str	r2, [r7, #28]
 7283 003e BA69     		ldr	r2, [r7, #24]
 7284 0040 D2B2     		uxtb	r2, r2
 7285 0042 62F07F02 		orn	r2, r2, #127
 7286 0046 D2B2     		uxtb	r2, r2
 7287 0048 1A70     		strb	r2, [r3]
 7288 004a BB69     		ldr	r3, [r7, #24]
 7289 004c DB09     		lsrs	r3, r3, #7
 7290 004e BB61     		str	r3, [r7, #24]
 7291              	.L402:
 7292              		.loc 1 2063 0 discriminator 1
 7293 0050 BB69     		ldr	r3, [r7, #24]
 7294 0052 7F2B     		cmp	r3, #127
 7295 0054 F0D8     		bhi	.L403
 7296              		.loc 1 2063 0 discriminator 4
 7297 0056 FB69     		ldr	r3, [r7, #28]
 7298 0058 5A1C     		adds	r2, r3, #1
 7299 005a FA61     		str	r2, [r7, #28]
 7300 005c BA69     		ldr	r2, [r7, #24]
 7301 005e D2B2     		uxtb	r2, r2
 7302 0060 1A70     		strb	r2, [r3]
 7303 0062 FB69     		ldr	r3, [r7, #28]
 7304 0064 FB60     		str	r3, [r7, #12]
 7305              	.LBE121:
2064:../../../SystemView/SEGGER/SEGGER_SYSVIEW.c ****   _SendPacket(pPayloadStart, pPayload, SYSVIEW_EVTID_TASK_START_EXEC);
 7306              		.loc 1 2064 0 is_stmt 1 discriminator 4
 7307 0066 3869     		ldr	r0, [r7, #16]
 7308 0068 F968     		ldr	r1, [r7, #12]
 7309 006a 0422     		movs	r2, #4
 7310 006c FFF7FEFF 		bl	_SendPacket
2065:../../../SystemView/SEGGER/SEGGER_SYSVIEW.c ****   RECORD_END();
 7311              		.loc 1 2065 0 discriminator 4
 7312 0070 7B69     		ldr	r3, [r7, #20]
 7313              	@ 2065 "../../../SystemView/SEGGER/SEGGER_SYSVIEW.c" 1
 7314 0072 83F31188 		msr   basepri, r3  
 7315              		
 7316              	@ 0 "" 2
 7317              		.thumb
 7318              	.LBE120:
2066:../../../SystemView/SEGGER/SEGGER_SYSVIEW.c **** }
 7319              		.loc 1 2066 0 discriminator 4
 7320 0076 2037     		adds	r7, r7, #32
 7321              	.LCFI214:
 7322              		.cfi_def_cfa_offset 8
 7323 0078 BD46     		mov	sp, r7
 7324              	.LCFI215:
 7325              		.cfi_def_cfa_register 13
 7326              		@ sp needed
 7327 007a 80BD     		pop	{r7, pc}
 7328              	.L405:
 7329              		.align	2
 7330              	.L404:
 7331 007c 00000000 		.word	_aPacket
ARM GAS  /tmp/ccJhHFds.s 			page 165


 7332 0080 00000000 		.word	_SYSVIEW_Globals
 7333              		.cfi_endproc
 7334              	.LFE42:
 7336              		.section	.text.SEGGER_SYSVIEW_OnTaskStopExec,"ax",%progbits
 7337              		.align	2
 7338              		.global	SEGGER_SYSVIEW_OnTaskStopExec
 7339              		.thumb
 7340              		.thumb_func
 7342              	SEGGER_SYSVIEW_OnTaskStopExec:
 7343              	.LFB43:
2067:../../../SystemView/SEGGER/SEGGER_SYSVIEW.c **** 
2068:../../../SystemView/SEGGER/SEGGER_SYSVIEW.c **** /*********************************************************************
2069:../../../SystemView/SEGGER/SEGGER_SYSVIEW.c **** *
2070:../../../SystemView/SEGGER/SEGGER_SYSVIEW.c **** *       SEGGER_SYSVIEW_OnTaskStopExec()
2071:../../../SystemView/SEGGER/SEGGER_SYSVIEW.c **** *
2072:../../../SystemView/SEGGER/SEGGER_SYSVIEW.c **** *  Function description
2073:../../../SystemView/SEGGER/SEGGER_SYSVIEW.c **** *    Record a Task Stop Execution event.  The Task Stop event
2074:../../../SystemView/SEGGER/SEGGER_SYSVIEW.c **** *    corresponds to when a task stops executing and terminates.
2075:../../../SystemView/SEGGER/SEGGER_SYSVIEW.c **** */
2076:../../../SystemView/SEGGER/SEGGER_SYSVIEW.c **** void SEGGER_SYSVIEW_OnTaskStopExec(void) {
 7344              		.loc 1 2076 0
 7345              		.cfi_startproc
 7346              		@ args = 0, pretend = 0, frame = 8
 7347              		@ frame_needed = 1, uses_anonymous_args = 0
 7348 0000 80B5     		push	{r7, lr}
 7349              	.LCFI216:
 7350              		.cfi_def_cfa_offset 8
 7351              		.cfi_offset 7, -8
 7352              		.cfi_offset 14, -4
 7353 0002 82B0     		sub	sp, sp, #8
 7354              	.LCFI217:
 7355              		.cfi_def_cfa_offset 16
 7356 0004 00AF     		add	r7, sp, #0
 7357              	.LCFI218:
 7358              		.cfi_def_cfa_register 7
 7359              	.LBB122:
2077:../../../SystemView/SEGGER/SEGGER_SYSVIEW.c ****   U8* pPayloadStart;
2078:../../../SystemView/SEGGER/SEGGER_SYSVIEW.c ****   RECORD_START(SEGGER_SYSVIEW_INFO_SIZE);
 7360              		.loc 1 2078 0
 7361              	@ 2078 "../../../SystemView/SEGGER/SEGGER_SYSVIEW.c" 1
 7362 0006 EFF31183 		mrs   r3, basepri  
 7363 000a 4FF02001 		mov   r1, #32       
 7364 000e 81F31188 		msr   basepri, r1  
 7365              		
 7366              	@ 0 "" 2
 7367              		.thumb
 7368 0012 7B60     		str	r3, [r7, #4]
 7369 0014 0748     		ldr	r0, .L407
 7370 0016 FFF7FEFF 		bl	_PreparePacket
 7371 001a 3860     		str	r0, [r7]
2079:../../../SystemView/SEGGER/SEGGER_SYSVIEW.c ****   //
2080:../../../SystemView/SEGGER/SEGGER_SYSVIEW.c ****   _SendPacket(pPayloadStart, pPayloadStart, SYSVIEW_EVTID_TASK_STOP_EXEC);
 7372              		.loc 1 2080 0
 7373 001c 3868     		ldr	r0, [r7]
 7374 001e 3968     		ldr	r1, [r7]
 7375 0020 0522     		movs	r2, #5
 7376 0022 FFF7FEFF 		bl	_SendPacket
ARM GAS  /tmp/ccJhHFds.s 			page 166


2081:../../../SystemView/SEGGER/SEGGER_SYSVIEW.c ****   RECORD_END();
 7377              		.loc 1 2081 0
 7378 0026 7B68     		ldr	r3, [r7, #4]
 7379              	@ 2081 "../../../SystemView/SEGGER/SEGGER_SYSVIEW.c" 1
 7380 0028 83F31188 		msr   basepri, r3  
 7381              		
 7382              	@ 0 "" 2
 7383              		.thumb
 7384              	.LBE122:
2082:../../../SystemView/SEGGER/SEGGER_SYSVIEW.c **** }
 7385              		.loc 1 2082 0
 7386 002c 0837     		adds	r7, r7, #8
 7387              	.LCFI219:
 7388              		.cfi_def_cfa_offset 8
 7389 002e BD46     		mov	sp, r7
 7390              	.LCFI220:
 7391              		.cfi_def_cfa_register 13
 7392              		@ sp needed
 7393 0030 80BD     		pop	{r7, pc}
 7394              	.L408:
 7395 0032 00BF     		.align	2
 7396              	.L407:
 7397 0034 00000000 		.word	_aPacket
 7398              		.cfi_endproc
 7399              	.LFE43:
 7401              		.section	.text.SEGGER_SYSVIEW_OnTaskStartReady,"ax",%progbits
 7402              		.align	2
 7403              		.global	SEGGER_SYSVIEW_OnTaskStartReady
 7404              		.thumb
 7405              		.thumb_func
 7407              	SEGGER_SYSVIEW_OnTaskStartReady:
 7408              	.LFB44:
2083:../../../SystemView/SEGGER/SEGGER_SYSVIEW.c **** 
2084:../../../SystemView/SEGGER/SEGGER_SYSVIEW.c **** /*********************************************************************
2085:../../../SystemView/SEGGER/SEGGER_SYSVIEW.c **** *
2086:../../../SystemView/SEGGER/SEGGER_SYSVIEW.c **** *       SEGGER_SYSVIEW_OnTaskStartReady()
2087:../../../SystemView/SEGGER/SEGGER_SYSVIEW.c **** *
2088:../../../SystemView/SEGGER/SEGGER_SYSVIEW.c **** *  Function description
2089:../../../SystemView/SEGGER/SEGGER_SYSVIEW.c **** *    Record a Task Start Ready event.
2090:../../../SystemView/SEGGER/SEGGER_SYSVIEW.c **** *
2091:../../../SystemView/SEGGER/SEGGER_SYSVIEW.c **** *  Parameters
2092:../../../SystemView/SEGGER/SEGGER_SYSVIEW.c **** *    TaskId - Task ID of task that started to execute.
2093:../../../SystemView/SEGGER/SEGGER_SYSVIEW.c **** */
2094:../../../SystemView/SEGGER/SEGGER_SYSVIEW.c **** void SEGGER_SYSVIEW_OnTaskStartReady(U32 TaskId) {
 7409              		.loc 1 2094 0
 7410              		.cfi_startproc
 7411              		@ args = 0, pretend = 0, frame = 32
 7412              		@ frame_needed = 1, uses_anonymous_args = 0
 7413 0000 80B5     		push	{r7, lr}
 7414              	.LCFI221:
 7415              		.cfi_def_cfa_offset 8
 7416              		.cfi_offset 7, -8
 7417              		.cfi_offset 14, -4
 7418 0002 88B0     		sub	sp, sp, #32
 7419              	.LCFI222:
 7420              		.cfi_def_cfa_offset 40
 7421 0004 00AF     		add	r7, sp, #0
ARM GAS  /tmp/ccJhHFds.s 			page 167


 7422              	.LCFI223:
 7423              		.cfi_def_cfa_register 7
 7424 0006 7860     		str	r0, [r7, #4]
 7425              	.LBB123:
2095:../../../SystemView/SEGGER/SEGGER_SYSVIEW.c ****   U8* pPayload;
2096:../../../SystemView/SEGGER/SEGGER_SYSVIEW.c ****   U8* pPayloadStart;
2097:../../../SystemView/SEGGER/SEGGER_SYSVIEW.c ****   RECORD_START(SEGGER_SYSVIEW_INFO_SIZE + SEGGER_SYSVIEW_QUANTA_U32);
 7426              		.loc 1 2097 0
 7427              	@ 2097 "../../../SystemView/SEGGER/SEGGER_SYSVIEW.c" 1
 7428 0008 EFF31183 		mrs   r3, basepri  
 7429 000c 4FF02001 		mov   r1, #32       
 7430 0010 81F31188 		msr   basepri, r1  
 7431              		
 7432              	@ 0 "" 2
 7433              		.thumb
 7434 0014 7B61     		str	r3, [r7, #20]
 7435 0016 1948     		ldr	r0, .L412
 7436 0018 FFF7FEFF 		bl	_PreparePacket
 7437 001c 3861     		str	r0, [r7, #16]
2098:../../../SystemView/SEGGER/SEGGER_SYSVIEW.c ****   //
2099:../../../SystemView/SEGGER/SEGGER_SYSVIEW.c ****   pPayload = pPayloadStart;
 7438              		.loc 1 2099 0
 7439 001e 3B69     		ldr	r3, [r7, #16]
 7440 0020 FB60     		str	r3, [r7, #12]
2100:../../../SystemView/SEGGER/SEGGER_SYSVIEW.c ****   TaskId = SHRINK_ID(TaskId);
 7441              		.loc 1 2100 0
 7442 0022 174B     		ldr	r3, .L412+4
 7443 0024 1B69     		ldr	r3, [r3, #16]
 7444 0026 7A68     		ldr	r2, [r7, #4]
 7445 0028 D31A     		subs	r3, r2, r3
 7446 002a 9B08     		lsrs	r3, r3, #2
 7447 002c 7B60     		str	r3, [r7, #4]
 7448              	.LBB124:
2101:../../../SystemView/SEGGER/SEGGER_SYSVIEW.c ****   ENCODE_U32(pPayload, TaskId);
 7449              		.loc 1 2101 0
 7450 002e FB68     		ldr	r3, [r7, #12]
 7451 0030 FB61     		str	r3, [r7, #28]
 7452 0032 7B68     		ldr	r3, [r7, #4]
 7453 0034 BB61     		str	r3, [r7, #24]
 7454 0036 0BE0     		b	.L410
 7455              	.L411:
 7456              		.loc 1 2101 0 is_stmt 0 discriminator 3
 7457 0038 FB69     		ldr	r3, [r7, #28]
 7458 003a 5A1C     		adds	r2, r3, #1
 7459 003c FA61     		str	r2, [r7, #28]
 7460 003e BA69     		ldr	r2, [r7, #24]
 7461 0040 D2B2     		uxtb	r2, r2
 7462 0042 62F07F02 		orn	r2, r2, #127
 7463 0046 D2B2     		uxtb	r2, r2
 7464 0048 1A70     		strb	r2, [r3]
 7465 004a BB69     		ldr	r3, [r7, #24]
 7466 004c DB09     		lsrs	r3, r3, #7
 7467 004e BB61     		str	r3, [r7, #24]
 7468              	.L410:
 7469              		.loc 1 2101 0 discriminator 1
 7470 0050 BB69     		ldr	r3, [r7, #24]
 7471 0052 7F2B     		cmp	r3, #127
ARM GAS  /tmp/ccJhHFds.s 			page 168


 7472 0054 F0D8     		bhi	.L411
 7473              		.loc 1 2101 0 discriminator 4
 7474 0056 FB69     		ldr	r3, [r7, #28]
 7475 0058 5A1C     		adds	r2, r3, #1
 7476 005a FA61     		str	r2, [r7, #28]
 7477 005c BA69     		ldr	r2, [r7, #24]
 7478 005e D2B2     		uxtb	r2, r2
 7479 0060 1A70     		strb	r2, [r3]
 7480 0062 FB69     		ldr	r3, [r7, #28]
 7481 0064 FB60     		str	r3, [r7, #12]
 7482              	.LBE124:
2102:../../../SystemView/SEGGER/SEGGER_SYSVIEW.c ****   _SendPacket(pPayloadStart, pPayload, SYSVIEW_EVTID_TASK_START_READY);
 7483              		.loc 1 2102 0 is_stmt 1 discriminator 4
 7484 0066 3869     		ldr	r0, [r7, #16]
 7485 0068 F968     		ldr	r1, [r7, #12]
 7486 006a 0622     		movs	r2, #6
 7487 006c FFF7FEFF 		bl	_SendPacket
2103:../../../SystemView/SEGGER/SEGGER_SYSVIEW.c ****   RECORD_END();
 7488              		.loc 1 2103 0 discriminator 4
 7489 0070 7B69     		ldr	r3, [r7, #20]
 7490              	@ 2103 "../../../SystemView/SEGGER/SEGGER_SYSVIEW.c" 1
 7491 0072 83F31188 		msr   basepri, r3  
 7492              		
 7493              	@ 0 "" 2
 7494              		.thumb
 7495              	.LBE123:
2104:../../../SystemView/SEGGER/SEGGER_SYSVIEW.c **** }
 7496              		.loc 1 2104 0 discriminator 4
 7497 0076 2037     		adds	r7, r7, #32
 7498              	.LCFI224:
 7499              		.cfi_def_cfa_offset 8
 7500 0078 BD46     		mov	sp, r7
 7501              	.LCFI225:
 7502              		.cfi_def_cfa_register 13
 7503              		@ sp needed
 7504 007a 80BD     		pop	{r7, pc}
 7505              	.L413:
 7506              		.align	2
 7507              	.L412:
 7508 007c 00000000 		.word	_aPacket
 7509 0080 00000000 		.word	_SYSVIEW_Globals
 7510              		.cfi_endproc
 7511              	.LFE44:
 7513              		.section	.text.SEGGER_SYSVIEW_OnTaskStopReady,"ax",%progbits
 7514              		.align	2
 7515              		.global	SEGGER_SYSVIEW_OnTaskStopReady
 7516              		.thumb
 7517              		.thumb_func
 7519              	SEGGER_SYSVIEW_OnTaskStopReady:
 7520              	.LFB45:
2105:../../../SystemView/SEGGER/SEGGER_SYSVIEW.c **** 
2106:../../../SystemView/SEGGER/SEGGER_SYSVIEW.c **** /*********************************************************************
2107:../../../SystemView/SEGGER/SEGGER_SYSVIEW.c **** *
2108:../../../SystemView/SEGGER/SEGGER_SYSVIEW.c **** *       SEGGER_SYSVIEW_OnTaskStopReady()
2109:../../../SystemView/SEGGER/SEGGER_SYSVIEW.c **** *
2110:../../../SystemView/SEGGER/SEGGER_SYSVIEW.c **** *  Function description
2111:../../../SystemView/SEGGER/SEGGER_SYSVIEW.c **** *    Record a Task Stop Ready event.
ARM GAS  /tmp/ccJhHFds.s 			page 169


2112:../../../SystemView/SEGGER/SEGGER_SYSVIEW.c **** *
2113:../../../SystemView/SEGGER/SEGGER_SYSVIEW.c **** *  Parameters
2114:../../../SystemView/SEGGER/SEGGER_SYSVIEW.c **** *    TaskId - Task ID of task that completed execution.
2115:../../../SystemView/SEGGER/SEGGER_SYSVIEW.c **** *    Cause  - Reason for task to stop (i.e. Idle/Sleep)
2116:../../../SystemView/SEGGER/SEGGER_SYSVIEW.c **** */
2117:../../../SystemView/SEGGER/SEGGER_SYSVIEW.c **** void SEGGER_SYSVIEW_OnTaskStopReady(U32 TaskId, unsigned int Cause) {
 7521              		.loc 1 2117 0
 7522              		.cfi_startproc
 7523              		@ args = 0, pretend = 0, frame = 40
 7524              		@ frame_needed = 1, uses_anonymous_args = 0
 7525 0000 80B5     		push	{r7, lr}
 7526              	.LCFI226:
 7527              		.cfi_def_cfa_offset 8
 7528              		.cfi_offset 7, -8
 7529              		.cfi_offset 14, -4
 7530 0002 8AB0     		sub	sp, sp, #40
 7531              	.LCFI227:
 7532              		.cfi_def_cfa_offset 48
 7533 0004 00AF     		add	r7, sp, #0
 7534              	.LCFI228:
 7535              		.cfi_def_cfa_register 7
 7536 0006 7860     		str	r0, [r7, #4]
 7537 0008 3960     		str	r1, [r7]
 7538              	.LBB125:
2118:../../../SystemView/SEGGER/SEGGER_SYSVIEW.c ****   U8* pPayload;
2119:../../../SystemView/SEGGER/SEGGER_SYSVIEW.c ****   U8* pPayloadStart;
2120:../../../SystemView/SEGGER/SEGGER_SYSVIEW.c ****   RECORD_START(SEGGER_SYSVIEW_INFO_SIZE + 2 * SEGGER_SYSVIEW_QUANTA_U32);
 7539              		.loc 1 2120 0
 7540              	@ 2120 "../../../SystemView/SEGGER/SEGGER_SYSVIEW.c" 1
 7541 000a EFF31183 		mrs   r3, basepri  
 7542 000e 4FF02001 		mov   r1, #32       
 7543 0012 81F31188 		msr   basepri, r1  
 7544              		
 7545              	@ 0 "" 2
 7546              		.thumb
 7547 0016 7B61     		str	r3, [r7, #20]
 7548 0018 2748     		ldr	r0, .L419
 7549 001a FFF7FEFF 		bl	_PreparePacket
 7550 001e 3861     		str	r0, [r7, #16]
2121:../../../SystemView/SEGGER/SEGGER_SYSVIEW.c ****   //
2122:../../../SystemView/SEGGER/SEGGER_SYSVIEW.c ****   pPayload = pPayloadStart;
 7551              		.loc 1 2122 0
 7552 0020 3B69     		ldr	r3, [r7, #16]
 7553 0022 FB60     		str	r3, [r7, #12]
2123:../../../SystemView/SEGGER/SEGGER_SYSVIEW.c ****   TaskId = SHRINK_ID(TaskId);
 7554              		.loc 1 2123 0
 7555 0024 254B     		ldr	r3, .L419+4
 7556 0026 1B69     		ldr	r3, [r3, #16]
 7557 0028 7A68     		ldr	r2, [r7, #4]
 7558 002a D31A     		subs	r3, r2, r3
 7559 002c 9B08     		lsrs	r3, r3, #2
 7560 002e 7B60     		str	r3, [r7, #4]
 7561              	.LBB126:
2124:../../../SystemView/SEGGER/SEGGER_SYSVIEW.c ****   ENCODE_U32(pPayload, TaskId);
 7562              		.loc 1 2124 0
 7563 0030 FB68     		ldr	r3, [r7, #12]
 7564 0032 7B62     		str	r3, [r7, #36]
ARM GAS  /tmp/ccJhHFds.s 			page 170


 7565 0034 7B68     		ldr	r3, [r7, #4]
 7566 0036 3B62     		str	r3, [r7, #32]
 7567 0038 0BE0     		b	.L415
 7568              	.L416:
 7569              		.loc 1 2124 0 is_stmt 0 discriminator 3
 7570 003a 7B6A     		ldr	r3, [r7, #36]
 7571 003c 5A1C     		adds	r2, r3, #1
 7572 003e 7A62     		str	r2, [r7, #36]
 7573 0040 3A6A     		ldr	r2, [r7, #32]
 7574 0042 D2B2     		uxtb	r2, r2
 7575 0044 62F07F02 		orn	r2, r2, #127
 7576 0048 D2B2     		uxtb	r2, r2
 7577 004a 1A70     		strb	r2, [r3]
 7578 004c 3B6A     		ldr	r3, [r7, #32]
 7579 004e DB09     		lsrs	r3, r3, #7
 7580 0050 3B62     		str	r3, [r7, #32]
 7581              	.L415:
 7582              		.loc 1 2124 0 discriminator 1
 7583 0052 3B6A     		ldr	r3, [r7, #32]
 7584 0054 7F2B     		cmp	r3, #127
 7585 0056 F0D8     		bhi	.L416
 7586              		.loc 1 2124 0 discriminator 4
 7587 0058 7B6A     		ldr	r3, [r7, #36]
 7588 005a 5A1C     		adds	r2, r3, #1
 7589 005c 7A62     		str	r2, [r7, #36]
 7590 005e 3A6A     		ldr	r2, [r7, #32]
 7591 0060 D2B2     		uxtb	r2, r2
 7592 0062 1A70     		strb	r2, [r3]
 7593 0064 7B6A     		ldr	r3, [r7, #36]
 7594 0066 FB60     		str	r3, [r7, #12]
 7595              	.LBE126:
 7596              	.LBB127:
2125:../../../SystemView/SEGGER/SEGGER_SYSVIEW.c ****   ENCODE_U32(pPayload, Cause);
 7597              		.loc 1 2125 0 is_stmt 1 discriminator 4
 7598 0068 FB68     		ldr	r3, [r7, #12]
 7599 006a FB61     		str	r3, [r7, #28]
 7600 006c 3B68     		ldr	r3, [r7]
 7601 006e BB61     		str	r3, [r7, #24]
 7602 0070 0BE0     		b	.L417
 7603              	.L418:
 7604              		.loc 1 2125 0 is_stmt 0 discriminator 3
 7605 0072 FB69     		ldr	r3, [r7, #28]
 7606 0074 5A1C     		adds	r2, r3, #1
 7607 0076 FA61     		str	r2, [r7, #28]
 7608 0078 BA69     		ldr	r2, [r7, #24]
 7609 007a D2B2     		uxtb	r2, r2
 7610 007c 62F07F02 		orn	r2, r2, #127
 7611 0080 D2B2     		uxtb	r2, r2
 7612 0082 1A70     		strb	r2, [r3]
 7613 0084 BB69     		ldr	r3, [r7, #24]
 7614 0086 DB09     		lsrs	r3, r3, #7
 7615 0088 BB61     		str	r3, [r7, #24]
 7616              	.L417:
 7617              		.loc 1 2125 0 discriminator 1
 7618 008a BB69     		ldr	r3, [r7, #24]
 7619 008c 7F2B     		cmp	r3, #127
 7620 008e F0D8     		bhi	.L418
ARM GAS  /tmp/ccJhHFds.s 			page 171


 7621              		.loc 1 2125 0 discriminator 4
 7622 0090 FB69     		ldr	r3, [r7, #28]
 7623 0092 5A1C     		adds	r2, r3, #1
 7624 0094 FA61     		str	r2, [r7, #28]
 7625 0096 BA69     		ldr	r2, [r7, #24]
 7626 0098 D2B2     		uxtb	r2, r2
 7627 009a 1A70     		strb	r2, [r3]
 7628 009c FB69     		ldr	r3, [r7, #28]
 7629 009e FB60     		str	r3, [r7, #12]
 7630              	.LBE127:
2126:../../../SystemView/SEGGER/SEGGER_SYSVIEW.c ****   _SendPacket(pPayloadStart, pPayload, SYSVIEW_EVTID_TASK_STOP_READY);
 7631              		.loc 1 2126 0 is_stmt 1 discriminator 4
 7632 00a0 3869     		ldr	r0, [r7, #16]
 7633 00a2 F968     		ldr	r1, [r7, #12]
 7634 00a4 0722     		movs	r2, #7
 7635 00a6 FFF7FEFF 		bl	_SendPacket
2127:../../../SystemView/SEGGER/SEGGER_SYSVIEW.c ****   RECORD_END();
 7636              		.loc 1 2127 0 discriminator 4
 7637 00aa 7B69     		ldr	r3, [r7, #20]
 7638              	@ 2127 "../../../SystemView/SEGGER/SEGGER_SYSVIEW.c" 1
 7639 00ac 83F31188 		msr   basepri, r3  
 7640              		
 7641              	@ 0 "" 2
 7642              		.thumb
 7643              	.LBE125:
2128:../../../SystemView/SEGGER/SEGGER_SYSVIEW.c **** }
 7644              		.loc 1 2128 0 discriminator 4
 7645 00b0 2837     		adds	r7, r7, #40
 7646              	.LCFI229:
 7647              		.cfi_def_cfa_offset 8
 7648 00b2 BD46     		mov	sp, r7
 7649              	.LCFI230:
 7650              		.cfi_def_cfa_register 13
 7651              		@ sp needed
 7652 00b4 80BD     		pop	{r7, pc}
 7653              	.L420:
 7654 00b6 00BF     		.align	2
 7655              	.L419:
 7656 00b8 00000000 		.word	_aPacket
 7657 00bc 00000000 		.word	_SYSVIEW_Globals
 7658              		.cfi_endproc
 7659              	.LFE45:
 7661              		.section	.text.SEGGER_SYSVIEW_OnUserStart,"ax",%progbits
 7662              		.align	2
 7663              		.global	SEGGER_SYSVIEW_OnUserStart
 7664              		.thumb
 7665              		.thumb_func
 7667              	SEGGER_SYSVIEW_OnUserStart:
 7668              	.LFB46:
2129:../../../SystemView/SEGGER/SEGGER_SYSVIEW.c **** 
2130:../../../SystemView/SEGGER/SEGGER_SYSVIEW.c **** /*********************************************************************
2131:../../../SystemView/SEGGER/SEGGER_SYSVIEW.c **** *
2132:../../../SystemView/SEGGER/SEGGER_SYSVIEW.c **** *       SEGGER_SYSVIEW_OnUserStart()
2133:../../../SystemView/SEGGER/SEGGER_SYSVIEW.c **** *
2134:../../../SystemView/SEGGER/SEGGER_SYSVIEW.c **** *  Function description
2135:../../../SystemView/SEGGER/SEGGER_SYSVIEW.c **** *    Send a user event start, such as start of a subroutine for profiling.
2136:../../../SystemView/SEGGER/SEGGER_SYSVIEW.c **** *
ARM GAS  /tmp/ccJhHFds.s 			page 172


2137:../../../SystemView/SEGGER/SEGGER_SYSVIEW.c **** *  Parameters
2138:../../../SystemView/SEGGER/SEGGER_SYSVIEW.c **** *    UserId  - User defined ID for the event.
2139:../../../SystemView/SEGGER/SEGGER_SYSVIEW.c **** */
2140:../../../SystemView/SEGGER/SEGGER_SYSVIEW.c **** void SEGGER_SYSVIEW_OnUserStart(unsigned UserId) {
 7669              		.loc 1 2140 0
 7670              		.cfi_startproc
 7671              		@ args = 0, pretend = 0, frame = 32
 7672              		@ frame_needed = 1, uses_anonymous_args = 0
 7673 0000 80B5     		push	{r7, lr}
 7674              	.LCFI231:
 7675              		.cfi_def_cfa_offset 8
 7676              		.cfi_offset 7, -8
 7677              		.cfi_offset 14, -4
 7678 0002 88B0     		sub	sp, sp, #32
 7679              	.LCFI232:
 7680              		.cfi_def_cfa_offset 40
 7681 0004 00AF     		add	r7, sp, #0
 7682              	.LCFI233:
 7683              		.cfi_def_cfa_register 7
 7684 0006 7860     		str	r0, [r7, #4]
 7685              	.LBB128:
2141:../../../SystemView/SEGGER/SEGGER_SYSVIEW.c ****   U8* pPayload;
2142:../../../SystemView/SEGGER/SEGGER_SYSVIEW.c ****   U8* pPayloadStart;
2143:../../../SystemView/SEGGER/SEGGER_SYSVIEW.c ****   RECORD_START(SEGGER_SYSVIEW_INFO_SIZE + SEGGER_SYSVIEW_QUANTA_U32);
 7686              		.loc 1 2143 0
 7687              	@ 2143 "../../../SystemView/SEGGER/SEGGER_SYSVIEW.c" 1
 7688 0008 EFF31183 		mrs   r3, basepri  
 7689 000c 4FF02001 		mov   r1, #32       
 7690 0010 81F31188 		msr   basepri, r1  
 7691              		
 7692              	@ 0 "" 2
 7693              		.thumb
 7694 0014 7B61     		str	r3, [r7, #20]
 7695 0016 1648     		ldr	r0, .L424
 7696 0018 FFF7FEFF 		bl	_PreparePacket
 7697 001c 3861     		str	r0, [r7, #16]
2144:../../../SystemView/SEGGER/SEGGER_SYSVIEW.c ****   //
2145:../../../SystemView/SEGGER/SEGGER_SYSVIEW.c ****   pPayload = pPayloadStart;
 7698              		.loc 1 2145 0
 7699 001e 3B69     		ldr	r3, [r7, #16]
 7700 0020 FB60     		str	r3, [r7, #12]
 7701              	.LBB129:
2146:../../../SystemView/SEGGER/SEGGER_SYSVIEW.c ****   ENCODE_U32(pPayload, UserId);
 7702              		.loc 1 2146 0
 7703 0022 FB68     		ldr	r3, [r7, #12]
 7704 0024 FB61     		str	r3, [r7, #28]
 7705 0026 7B68     		ldr	r3, [r7, #4]
 7706 0028 BB61     		str	r3, [r7, #24]
 7707 002a 0BE0     		b	.L422
 7708              	.L423:
 7709              		.loc 1 2146 0 is_stmt 0 discriminator 3
 7710 002c FB69     		ldr	r3, [r7, #28]
 7711 002e 5A1C     		adds	r2, r3, #1
 7712 0030 FA61     		str	r2, [r7, #28]
 7713 0032 BA69     		ldr	r2, [r7, #24]
 7714 0034 D2B2     		uxtb	r2, r2
 7715 0036 62F07F02 		orn	r2, r2, #127
ARM GAS  /tmp/ccJhHFds.s 			page 173


 7716 003a D2B2     		uxtb	r2, r2
 7717 003c 1A70     		strb	r2, [r3]
 7718 003e BB69     		ldr	r3, [r7, #24]
 7719 0040 DB09     		lsrs	r3, r3, #7
 7720 0042 BB61     		str	r3, [r7, #24]
 7721              	.L422:
 7722              		.loc 1 2146 0 discriminator 1
 7723 0044 BB69     		ldr	r3, [r7, #24]
 7724 0046 7F2B     		cmp	r3, #127
 7725 0048 F0D8     		bhi	.L423
 7726              		.loc 1 2146 0 discriminator 4
 7727 004a FB69     		ldr	r3, [r7, #28]
 7728 004c 5A1C     		adds	r2, r3, #1
 7729 004e FA61     		str	r2, [r7, #28]
 7730 0050 BA69     		ldr	r2, [r7, #24]
 7731 0052 D2B2     		uxtb	r2, r2
 7732 0054 1A70     		strb	r2, [r3]
 7733 0056 FB69     		ldr	r3, [r7, #28]
 7734 0058 FB60     		str	r3, [r7, #12]
 7735              	.LBE129:
2147:../../../SystemView/SEGGER/SEGGER_SYSVIEW.c ****   _SendPacket(pPayloadStart, pPayload, SYSVIEW_EVTID_USER_START);
 7736              		.loc 1 2147 0 is_stmt 1 discriminator 4
 7737 005a 3869     		ldr	r0, [r7, #16]
 7738 005c F968     		ldr	r1, [r7, #12]
 7739 005e 0F22     		movs	r2, #15
 7740 0060 FFF7FEFF 		bl	_SendPacket
2148:../../../SystemView/SEGGER/SEGGER_SYSVIEW.c ****   RECORD_END();
 7741              		.loc 1 2148 0 discriminator 4
 7742 0064 7B69     		ldr	r3, [r7, #20]
 7743              	@ 2148 "../../../SystemView/SEGGER/SEGGER_SYSVIEW.c" 1
 7744 0066 83F31188 		msr   basepri, r3  
 7745              		
 7746              	@ 0 "" 2
 7747              		.thumb
 7748              	.LBE128:
2149:../../../SystemView/SEGGER/SEGGER_SYSVIEW.c **** }
 7749              		.loc 1 2149 0 discriminator 4
 7750 006a 2037     		adds	r7, r7, #32
 7751              	.LCFI234:
 7752              		.cfi_def_cfa_offset 8
 7753 006c BD46     		mov	sp, r7
 7754              	.LCFI235:
 7755              		.cfi_def_cfa_register 13
 7756              		@ sp needed
 7757 006e 80BD     		pop	{r7, pc}
 7758              	.L425:
 7759              		.align	2
 7760              	.L424:
 7761 0070 00000000 		.word	_aPacket
 7762              		.cfi_endproc
 7763              	.LFE46:
 7765              		.section	.text.SEGGER_SYSVIEW_OnUserStop,"ax",%progbits
 7766              		.align	2
 7767              		.global	SEGGER_SYSVIEW_OnUserStop
 7768              		.thumb
 7769              		.thumb_func
 7771              	SEGGER_SYSVIEW_OnUserStop:
ARM GAS  /tmp/ccJhHFds.s 			page 174


 7772              	.LFB47:
2150:../../../SystemView/SEGGER/SEGGER_SYSVIEW.c **** 
2151:../../../SystemView/SEGGER/SEGGER_SYSVIEW.c **** /*********************************************************************
2152:../../../SystemView/SEGGER/SEGGER_SYSVIEW.c **** *
2153:../../../SystemView/SEGGER/SEGGER_SYSVIEW.c **** *       SEGGER_SYSVIEW_OnUserStop()
2154:../../../SystemView/SEGGER/SEGGER_SYSVIEW.c **** *
2155:../../../SystemView/SEGGER/SEGGER_SYSVIEW.c **** *  Function description
2156:../../../SystemView/SEGGER/SEGGER_SYSVIEW.c **** *    Send a user event stop, such as return of a subroutine for profiling.
2157:../../../SystemView/SEGGER/SEGGER_SYSVIEW.c **** *
2158:../../../SystemView/SEGGER/SEGGER_SYSVIEW.c **** *  Parameters
2159:../../../SystemView/SEGGER/SEGGER_SYSVIEW.c **** *    UserId  - User defined ID for the event.
2160:../../../SystemView/SEGGER/SEGGER_SYSVIEW.c **** */
2161:../../../SystemView/SEGGER/SEGGER_SYSVIEW.c **** void SEGGER_SYSVIEW_OnUserStop(unsigned UserId) {
 7773              		.loc 1 2161 0
 7774              		.cfi_startproc
 7775              		@ args = 0, pretend = 0, frame = 32
 7776              		@ frame_needed = 1, uses_anonymous_args = 0
 7777 0000 80B5     		push	{r7, lr}
 7778              	.LCFI236:
 7779              		.cfi_def_cfa_offset 8
 7780              		.cfi_offset 7, -8
 7781              		.cfi_offset 14, -4
 7782 0002 88B0     		sub	sp, sp, #32
 7783              	.LCFI237:
 7784              		.cfi_def_cfa_offset 40
 7785 0004 00AF     		add	r7, sp, #0
 7786              	.LCFI238:
 7787              		.cfi_def_cfa_register 7
 7788 0006 7860     		str	r0, [r7, #4]
 7789              	.LBB130:
2162:../../../SystemView/SEGGER/SEGGER_SYSVIEW.c ****   U8 * pPayload;
2163:../../../SystemView/SEGGER/SEGGER_SYSVIEW.c ****   U8 * pPayloadStart;
2164:../../../SystemView/SEGGER/SEGGER_SYSVIEW.c ****   RECORD_START(SEGGER_SYSVIEW_INFO_SIZE + SEGGER_SYSVIEW_QUANTA_U32);
 7790              		.loc 1 2164 0
 7791              	@ 2164 "../../../SystemView/SEGGER/SEGGER_SYSVIEW.c" 1
 7792 0008 EFF31183 		mrs   r3, basepri  
 7793 000c 4FF02001 		mov   r1, #32       
 7794 0010 81F31188 		msr   basepri, r1  
 7795              		
 7796              	@ 0 "" 2
 7797              		.thumb
 7798 0014 7B61     		str	r3, [r7, #20]
 7799 0016 1648     		ldr	r0, .L429
 7800 0018 FFF7FEFF 		bl	_PreparePacket
 7801 001c 3861     		str	r0, [r7, #16]
2165:../../../SystemView/SEGGER/SEGGER_SYSVIEW.c ****   //
2166:../../../SystemView/SEGGER/SEGGER_SYSVIEW.c ****   pPayload = pPayloadStart;
 7802              		.loc 1 2166 0
 7803 001e 3B69     		ldr	r3, [r7, #16]
 7804 0020 FB60     		str	r3, [r7, #12]
 7805              	.LBB131:
2167:../../../SystemView/SEGGER/SEGGER_SYSVIEW.c ****   ENCODE_U32(pPayload, UserId);
 7806              		.loc 1 2167 0
 7807 0022 FB68     		ldr	r3, [r7, #12]
 7808 0024 FB61     		str	r3, [r7, #28]
 7809 0026 7B68     		ldr	r3, [r7, #4]
 7810 0028 BB61     		str	r3, [r7, #24]
ARM GAS  /tmp/ccJhHFds.s 			page 175


 7811 002a 0BE0     		b	.L427
 7812              	.L428:
 7813              		.loc 1 2167 0 is_stmt 0 discriminator 3
 7814 002c FB69     		ldr	r3, [r7, #28]
 7815 002e 5A1C     		adds	r2, r3, #1
 7816 0030 FA61     		str	r2, [r7, #28]
 7817 0032 BA69     		ldr	r2, [r7, #24]
 7818 0034 D2B2     		uxtb	r2, r2
 7819 0036 62F07F02 		orn	r2, r2, #127
 7820 003a D2B2     		uxtb	r2, r2
 7821 003c 1A70     		strb	r2, [r3]
 7822 003e BB69     		ldr	r3, [r7, #24]
 7823 0040 DB09     		lsrs	r3, r3, #7
 7824 0042 BB61     		str	r3, [r7, #24]
 7825              	.L427:
 7826              		.loc 1 2167 0 discriminator 1
 7827 0044 BB69     		ldr	r3, [r7, #24]
 7828 0046 7F2B     		cmp	r3, #127
 7829 0048 F0D8     		bhi	.L428
 7830              		.loc 1 2167 0 discriminator 4
 7831 004a FB69     		ldr	r3, [r7, #28]
 7832 004c 5A1C     		adds	r2, r3, #1
 7833 004e FA61     		str	r2, [r7, #28]
 7834 0050 BA69     		ldr	r2, [r7, #24]
 7835 0052 D2B2     		uxtb	r2, r2
 7836 0054 1A70     		strb	r2, [r3]
 7837 0056 FB69     		ldr	r3, [r7, #28]
 7838 0058 FB60     		str	r3, [r7, #12]
 7839              	.LBE131:
2168:../../../SystemView/SEGGER/SEGGER_SYSVIEW.c ****   _SendPacket(pPayloadStart, pPayload, SYSVIEW_EVTID_USER_STOP);
 7840              		.loc 1 2168 0 is_stmt 1 discriminator 4
 7841 005a 3869     		ldr	r0, [r7, #16]
 7842 005c F968     		ldr	r1, [r7, #12]
 7843 005e 1022     		movs	r2, #16
 7844 0060 FFF7FEFF 		bl	_SendPacket
2169:../../../SystemView/SEGGER/SEGGER_SYSVIEW.c ****   RECORD_END();
 7845              		.loc 1 2169 0 discriminator 4
 7846 0064 7B69     		ldr	r3, [r7, #20]
 7847              	@ 2169 "../../../SystemView/SEGGER/SEGGER_SYSVIEW.c" 1
 7848 0066 83F31188 		msr   basepri, r3  
 7849              		
 7850              	@ 0 "" 2
 7851              		.thumb
 7852              	.LBE130:
2170:../../../SystemView/SEGGER/SEGGER_SYSVIEW.c **** }
 7853              		.loc 1 2170 0 discriminator 4
 7854 006a 2037     		adds	r7, r7, #32
 7855              	.LCFI239:
 7856              		.cfi_def_cfa_offset 8
 7857 006c BD46     		mov	sp, r7
 7858              	.LCFI240:
 7859              		.cfi_def_cfa_register 13
 7860              		@ sp needed
 7861 006e 80BD     		pop	{r7, pc}
 7862              	.L430:
 7863              		.align	2
 7864              	.L429:
ARM GAS  /tmp/ccJhHFds.s 			page 176


 7865 0070 00000000 		.word	_aPacket
 7866              		.cfi_endproc
 7867              	.LFE47:
 7869              		.section	.text.SEGGER_SYSVIEW_NameResource,"ax",%progbits
 7870              		.align	2
 7871              		.global	SEGGER_SYSVIEW_NameResource
 7872              		.thumb
 7873              		.thumb_func
 7875              	SEGGER_SYSVIEW_NameResource:
 7876              	.LFB48:
2171:../../../SystemView/SEGGER/SEGGER_SYSVIEW.c **** 
2172:../../../SystemView/SEGGER/SEGGER_SYSVIEW.c **** /*********************************************************************
2173:../../../SystemView/SEGGER/SEGGER_SYSVIEW.c **** *
2174:../../../SystemView/SEGGER/SEGGER_SYSVIEW.c **** *       SEGGER_SYSVIEW_NameResource()
2175:../../../SystemView/SEGGER/SEGGER_SYSVIEW.c **** *
2176:../../../SystemView/SEGGER/SEGGER_SYSVIEW.c **** *  Function description
2177:../../../SystemView/SEGGER/SEGGER_SYSVIEW.c **** *    Send the name of a resource to be displayed in SystemViewer.
2178:../../../SystemView/SEGGER/SEGGER_SYSVIEW.c **** *
2179:../../../SystemView/SEGGER/SEGGER_SYSVIEW.c **** *  Parameters
2180:../../../SystemView/SEGGER/SEGGER_SYSVIEW.c **** *    ResourceId - Id of the resource to be named. i.e. its address.
2181:../../../SystemView/SEGGER/SEGGER_SYSVIEW.c **** *    sName      - Pointer to the resource name. (Max. SEGGER_SYSVIEW_MAX_STRING_LEN Bytes)
2182:../../../SystemView/SEGGER/SEGGER_SYSVIEW.c **** */
2183:../../../SystemView/SEGGER/SEGGER_SYSVIEW.c **** void SEGGER_SYSVIEW_NameResource(U32 ResourceId, const char* sName) {
 7877              		.loc 1 2183 0
 7878              		.cfi_startproc
 7879              		@ args = 0, pretend = 0, frame = 32
 7880              		@ frame_needed = 1, uses_anonymous_args = 0
 7881 0000 80B5     		push	{r7, lr}
 7882              	.LCFI241:
 7883              		.cfi_def_cfa_offset 8
 7884              		.cfi_offset 7, -8
 7885              		.cfi_offset 14, -4
 7886 0002 88B0     		sub	sp, sp, #32
 7887              	.LCFI242:
 7888              		.cfi_def_cfa_offset 40
 7889 0004 00AF     		add	r7, sp, #0
 7890              	.LCFI243:
 7891              		.cfi_def_cfa_register 7
 7892 0006 7860     		str	r0, [r7, #4]
 7893 0008 3960     		str	r1, [r7]
 7894              	.LBB132:
2184:../../../SystemView/SEGGER/SEGGER_SYSVIEW.c ****   U8* pPayload;
2185:../../../SystemView/SEGGER/SEGGER_SYSVIEW.c ****   U8* pPayloadStart;
2186:../../../SystemView/SEGGER/SEGGER_SYSVIEW.c ****   RECORD_START(SEGGER_SYSVIEW_INFO_SIZE + SEGGER_SYSVIEW_QUANTA_U32 + 1 + SEGGER_SYSVIEW_MAX_STRING
 7895              		.loc 1 2186 0
 7896              	@ 2186 "../../../SystemView/SEGGER/SEGGER_SYSVIEW.c" 1
 7897 000a EFF31183 		mrs   r3, basepri  
 7898 000e 4FF02001 		mov   r1, #32       
 7899 0012 81F31188 		msr   basepri, r1  
 7900              		
 7901              	@ 0 "" 2
 7902              		.thumb
 7903 0016 7B61     		str	r3, [r7, #20]
 7904 0018 1B48     		ldr	r0, .L434
 7905 001a FFF7FEFF 		bl	_PreparePacket
 7906 001e 3861     		str	r0, [r7, #16]
2187:../../../SystemView/SEGGER/SEGGER_SYSVIEW.c ****   //
ARM GAS  /tmp/ccJhHFds.s 			page 177


2188:../../../SystemView/SEGGER/SEGGER_SYSVIEW.c ****   pPayload = pPayloadStart;
 7907              		.loc 1 2188 0
 7908 0020 3B69     		ldr	r3, [r7, #16]
 7909 0022 FB60     		str	r3, [r7, #12]
 7910              	.LBB133:
2189:../../../SystemView/SEGGER/SEGGER_SYSVIEW.c ****   ENCODE_U32(pPayload, SHRINK_ID(ResourceId));
 7911              		.loc 1 2189 0
 7912 0024 FB68     		ldr	r3, [r7, #12]
 7913 0026 FB61     		str	r3, [r7, #28]
 7914 0028 184B     		ldr	r3, .L434+4
 7915 002a 1B69     		ldr	r3, [r3, #16]
 7916 002c 7A68     		ldr	r2, [r7, #4]
 7917 002e D31A     		subs	r3, r2, r3
 7918 0030 9B08     		lsrs	r3, r3, #2
 7919 0032 BB61     		str	r3, [r7, #24]
 7920 0034 0BE0     		b	.L432
 7921              	.L433:
 7922              		.loc 1 2189 0 is_stmt 0 discriminator 3
 7923 0036 FB69     		ldr	r3, [r7, #28]
 7924 0038 5A1C     		adds	r2, r3, #1
 7925 003a FA61     		str	r2, [r7, #28]
 7926 003c BA69     		ldr	r2, [r7, #24]
 7927 003e D2B2     		uxtb	r2, r2
 7928 0040 62F07F02 		orn	r2, r2, #127
 7929 0044 D2B2     		uxtb	r2, r2
 7930 0046 1A70     		strb	r2, [r3]
 7931 0048 BB69     		ldr	r3, [r7, #24]
 7932 004a DB09     		lsrs	r3, r3, #7
 7933 004c BB61     		str	r3, [r7, #24]
 7934              	.L432:
 7935              		.loc 1 2189 0 discriminator 1
 7936 004e BB69     		ldr	r3, [r7, #24]
 7937 0050 7F2B     		cmp	r3, #127
 7938 0052 F0D8     		bhi	.L433
 7939              		.loc 1 2189 0 discriminator 4
 7940 0054 FB69     		ldr	r3, [r7, #28]
 7941 0056 5A1C     		adds	r2, r3, #1
 7942 0058 FA61     		str	r2, [r7, #28]
 7943 005a BA69     		ldr	r2, [r7, #24]
 7944 005c D2B2     		uxtb	r2, r2
 7945 005e 1A70     		strb	r2, [r3]
 7946 0060 FB69     		ldr	r3, [r7, #28]
 7947 0062 FB60     		str	r3, [r7, #12]
 7948              	.LBE133:
2190:../../../SystemView/SEGGER/SEGGER_SYSVIEW.c ****   pPayload = _EncodeStr(pPayload, sName, SEGGER_SYSVIEW_MAX_STRING_LEN);
 7949              		.loc 1 2190 0 is_stmt 1 discriminator 4
 7950 0064 F868     		ldr	r0, [r7, #12]
 7951 0066 3968     		ldr	r1, [r7]
 7952 0068 8022     		movs	r2, #128
 7953 006a FFF7FEFF 		bl	_EncodeStr
 7954 006e F860     		str	r0, [r7, #12]
2191:../../../SystemView/SEGGER/SEGGER_SYSVIEW.c ****   _SendPacket(pPayloadStart, pPayload, SYSVIEW_EVTID_NAME_RESOURCE);
 7955              		.loc 1 2191 0 discriminator 4
 7956 0070 3869     		ldr	r0, [r7, #16]
 7957 0072 F968     		ldr	r1, [r7, #12]
 7958 0074 1922     		movs	r2, #25
 7959 0076 FFF7FEFF 		bl	_SendPacket
ARM GAS  /tmp/ccJhHFds.s 			page 178


2192:../../../SystemView/SEGGER/SEGGER_SYSVIEW.c ****   RECORD_END();
 7960              		.loc 1 2192 0 discriminator 4
 7961 007a 7B69     		ldr	r3, [r7, #20]
 7962              	@ 2192 "../../../SystemView/SEGGER/SEGGER_SYSVIEW.c" 1
 7963 007c 83F31188 		msr   basepri, r3  
 7964              		
 7965              	@ 0 "" 2
 7966              		.thumb
 7967              	.LBE132:
2193:../../../SystemView/SEGGER/SEGGER_SYSVIEW.c **** }
 7968              		.loc 1 2193 0 discriminator 4
 7969 0080 2037     		adds	r7, r7, #32
 7970              	.LCFI244:
 7971              		.cfi_def_cfa_offset 8
 7972 0082 BD46     		mov	sp, r7
 7973              	.LCFI245:
 7974              		.cfi_def_cfa_register 13
 7975              		@ sp needed
 7976 0084 80BD     		pop	{r7, pc}
 7977              	.L435:
 7978 0086 00BF     		.align	2
 7979              	.L434:
 7980 0088 00000000 		.word	_aPacket
 7981 008c 00000000 		.word	_SYSVIEW_Globals
 7982              		.cfi_endproc
 7983              	.LFE48:
 7985              		.section	.text.SEGGER_SYSVIEW_SendPacket,"ax",%progbits
 7986              		.align	2
 7987              		.global	SEGGER_SYSVIEW_SendPacket
 7988              		.thumb
 7989              		.thumb_func
 7991              	SEGGER_SYSVIEW_SendPacket:
 7992              	.LFB49:
2194:../../../SystemView/SEGGER/SEGGER_SYSVIEW.c **** 
2195:../../../SystemView/SEGGER/SEGGER_SYSVIEW.c **** /*********************************************************************
2196:../../../SystemView/SEGGER/SEGGER_SYSVIEW.c **** *
2197:../../../SystemView/SEGGER/SEGGER_SYSVIEW.c **** *       SEGGER_SYSVIEW_SendPacket()
2198:../../../SystemView/SEGGER/SEGGER_SYSVIEW.c **** *
2199:../../../SystemView/SEGGER/SEGGER_SYSVIEW.c **** *  Function description
2200:../../../SystemView/SEGGER/SEGGER_SYSVIEW.c **** *    Send an event packet.
2201:../../../SystemView/SEGGER/SEGGER_SYSVIEW.c **** *
2202:../../../SystemView/SEGGER/SEGGER_SYSVIEW.c **** *  Parameters
2203:../../../SystemView/SEGGER/SEGGER_SYSVIEW.c **** *    pPacket      - Pointer to the start of the packet.
2204:../../../SystemView/SEGGER/SEGGER_SYSVIEW.c **** *    pPayloadEnd  - Pointer to the end of the payload.
2205:../../../SystemView/SEGGER/SEGGER_SYSVIEW.c **** *                   Make sure there are at least 5 bytes free after the payload.
2206:../../../SystemView/SEGGER/SEGGER_SYSVIEW.c **** *    EventId      - Id of the event packet.
2207:../../../SystemView/SEGGER/SEGGER_SYSVIEW.c **** *
2208:../../../SystemView/SEGGER/SEGGER_SYSVIEW.c **** *  Return value
2209:../../../SystemView/SEGGER/SEGGER_SYSVIEW.c **** *    !=0:  Success, Message sent.
2210:../../../SystemView/SEGGER/SEGGER_SYSVIEW.c **** *    ==0:  Buffer full, Message *NOT* sent.
2211:../../../SystemView/SEGGER/SEGGER_SYSVIEW.c **** */
2212:../../../SystemView/SEGGER/SEGGER_SYSVIEW.c **** int SEGGER_SYSVIEW_SendPacket(U8* pPacket, U8* pPayloadEnd, unsigned int EventId) {
 7993              		.loc 1 2212 0
 7994              		.cfi_startproc
 7995              		@ args = 0, pretend = 0, frame = 24
 7996              		@ frame_needed = 1, uses_anonymous_args = 0
 7997 0000 80B5     		push	{r7, lr}
ARM GAS  /tmp/ccJhHFds.s 			page 179


 7998              	.LCFI246:
 7999              		.cfi_def_cfa_offset 8
 8000              		.cfi_offset 7, -8
 8001              		.cfi_offset 14, -4
 8002 0002 86B0     		sub	sp, sp, #24
 8003              	.LCFI247:
 8004              		.cfi_def_cfa_offset 32
 8005 0004 00AF     		add	r7, sp, #0
 8006              	.LCFI248:
 8007              		.cfi_def_cfa_register 7
 8008 0006 F860     		str	r0, [r7, #12]
 8009 0008 B960     		str	r1, [r7, #8]
 8010 000a 7A60     		str	r2, [r7, #4]
 8011              	.LBB134:
2213:../../../SystemView/SEGGER/SEGGER_SYSVIEW.c **** #if (SEGGER_SYSVIEW_USE_STATIC_BUFFER == 1)
2214:../../../SystemView/SEGGER/SEGGER_SYSVIEW.c ****   SEGGER_SYSVIEW_LOCK();
 8012              		.loc 1 2214 0
 8013              	@ 2214 "../../../SystemView/SEGGER/SEGGER_SYSVIEW.c" 1
 8014 000c EFF31183 		mrs   r3, basepri  
 8015 0010 4FF02001 		mov   r1, #32       
 8016 0014 81F31188 		msr   basepri, r1  
 8017              		
 8018              	@ 0 "" 2
 8019              		.thumb
 8020 0018 7B61     		str	r3, [r7, #20]
2215:../../../SystemView/SEGGER/SEGGER_SYSVIEW.c **** #endif
2216:../../../SystemView/SEGGER/SEGGER_SYSVIEW.c ****   _SendPacket(pPacket + 4, pPayloadEnd, EventId);
 8021              		.loc 1 2216 0
 8022 001a FB68     		ldr	r3, [r7, #12]
 8023 001c 0433     		adds	r3, r3, #4
 8024 001e 1846     		mov	r0, r3
 8025 0020 B968     		ldr	r1, [r7, #8]
 8026 0022 7A68     		ldr	r2, [r7, #4]
 8027 0024 FFF7FEFF 		bl	_SendPacket
2217:../../../SystemView/SEGGER/SEGGER_SYSVIEW.c **** #if (SEGGER_SYSVIEW_USE_STATIC_BUFFER == 1)
2218:../../../SystemView/SEGGER/SEGGER_SYSVIEW.c ****   SEGGER_SYSVIEW_UNLOCK();
 8028              		.loc 1 2218 0
 8029 0028 7B69     		ldr	r3, [r7, #20]
 8030              	@ 2218 "../../../SystemView/SEGGER/SEGGER_SYSVIEW.c" 1
 8031 002a 83F31188 		msr   basepri, r3  
 8032              		
 8033              	@ 0 "" 2
 8034              		.thumb
 8035              	.LBE134:
2219:../../../SystemView/SEGGER/SEGGER_SYSVIEW.c **** #endif
2220:../../../SystemView/SEGGER/SEGGER_SYSVIEW.c ****   return 0;
 8036              		.loc 1 2220 0
 8037 002e 0023     		movs	r3, #0
2221:../../../SystemView/SEGGER/SEGGER_SYSVIEW.c **** }
 8038              		.loc 1 2221 0
 8039 0030 1846     		mov	r0, r3
 8040 0032 1837     		adds	r7, r7, #24
 8041              	.LCFI249:
 8042              		.cfi_def_cfa_offset 8
 8043 0034 BD46     		mov	sp, r7
 8044              	.LCFI250:
 8045              		.cfi_def_cfa_register 13
ARM GAS  /tmp/ccJhHFds.s 			page 180


 8046              		@ sp needed
 8047 0036 80BD     		pop	{r7, pc}
 8048              		.cfi_endproc
 8049              	.LFE49:
 8051              		.section	.text.SEGGER_SYSVIEW_EncodeU32,"ax",%progbits
 8052              		.align	2
 8053              		.global	SEGGER_SYSVIEW_EncodeU32
 8054              		.thumb
 8055              		.thumb_func
 8057              	SEGGER_SYSVIEW_EncodeU32:
 8058              	.LFB50:
2222:../../../SystemView/SEGGER/SEGGER_SYSVIEW.c **** 
2223:../../../SystemView/SEGGER/SEGGER_SYSVIEW.c **** /*********************************************************************
2224:../../../SystemView/SEGGER/SEGGER_SYSVIEW.c **** *
2225:../../../SystemView/SEGGER/SEGGER_SYSVIEW.c **** *       SEGGER_SYSVIEW_EncodeU32()
2226:../../../SystemView/SEGGER/SEGGER_SYSVIEW.c **** *
2227:../../../SystemView/SEGGER/SEGGER_SYSVIEW.c **** *  Function description
2228:../../../SystemView/SEGGER/SEGGER_SYSVIEW.c **** *    Encode a U32 in variable-length format.
2229:../../../SystemView/SEGGER/SEGGER_SYSVIEW.c **** *
2230:../../../SystemView/SEGGER/SEGGER_SYSVIEW.c **** *  Parameters
2231:../../../SystemView/SEGGER/SEGGER_SYSVIEW.c **** *    pPayload - Pointer to where U32 will be encoded.
2232:../../../SystemView/SEGGER/SEGGER_SYSVIEW.c **** *    Value    - The 32-bit value to be encoded.
2233:../../../SystemView/SEGGER/SEGGER_SYSVIEW.c **** *
2234:../../../SystemView/SEGGER/SEGGER_SYSVIEW.c **** *  Return value
2235:../../../SystemView/SEGGER/SEGGER_SYSVIEW.c **** *    Pointer to the byte following the value, i.e. the first free
2236:../../../SystemView/SEGGER/SEGGER_SYSVIEW.c **** *    byte in the payload and the next position to store payload
2237:../../../SystemView/SEGGER/SEGGER_SYSVIEW.c **** *    content.
2238:../../../SystemView/SEGGER/SEGGER_SYSVIEW.c **** */
2239:../../../SystemView/SEGGER/SEGGER_SYSVIEW.c **** U8* SEGGER_SYSVIEW_EncodeU32(U8* pPayload, U32 Value) {
 8059              		.loc 1 2239 0
 8060              		.cfi_startproc
 8061              		@ args = 0, pretend = 0, frame = 16
 8062              		@ frame_needed = 1, uses_anonymous_args = 0
 8063              		@ link register save eliminated.
 8064 0000 80B4     		push	{r7}
 8065              	.LCFI251:
 8066              		.cfi_def_cfa_offset 4
 8067              		.cfi_offset 7, -4
 8068 0002 85B0     		sub	sp, sp, #20
 8069              	.LCFI252:
 8070              		.cfi_def_cfa_offset 24
 8071 0004 00AF     		add	r7, sp, #0
 8072              	.LCFI253:
 8073              		.cfi_def_cfa_register 7
 8074 0006 7860     		str	r0, [r7, #4]
 8075 0008 3960     		str	r1, [r7]
 8076              	.LBB135:
2240:../../../SystemView/SEGGER/SEGGER_SYSVIEW.c ****   ENCODE_U32(pPayload, Value);
 8077              		.loc 1 2240 0
 8078 000a 7B68     		ldr	r3, [r7, #4]
 8079 000c FB60     		str	r3, [r7, #12]
 8080 000e 3B68     		ldr	r3, [r7]
 8081 0010 BB60     		str	r3, [r7, #8]
 8082 0012 0BE0     		b	.L439
 8083              	.L440:
 8084              		.loc 1 2240 0 is_stmt 0 discriminator 3
 8085 0014 FB68     		ldr	r3, [r7, #12]
ARM GAS  /tmp/ccJhHFds.s 			page 181


 8086 0016 5A1C     		adds	r2, r3, #1
 8087 0018 FA60     		str	r2, [r7, #12]
 8088 001a BA68     		ldr	r2, [r7, #8]
 8089 001c D2B2     		uxtb	r2, r2
 8090 001e 62F07F02 		orn	r2, r2, #127
 8091 0022 D2B2     		uxtb	r2, r2
 8092 0024 1A70     		strb	r2, [r3]
 8093 0026 BB68     		ldr	r3, [r7, #8]
 8094 0028 DB09     		lsrs	r3, r3, #7
 8095 002a BB60     		str	r3, [r7, #8]
 8096              	.L439:
 8097              		.loc 1 2240 0 discriminator 1
 8098 002c BB68     		ldr	r3, [r7, #8]
 8099 002e 7F2B     		cmp	r3, #127
 8100 0030 F0D8     		bhi	.L440
 8101              		.loc 1 2240 0 discriminator 4
 8102 0032 FB68     		ldr	r3, [r7, #12]
 8103 0034 5A1C     		adds	r2, r3, #1
 8104 0036 FA60     		str	r2, [r7, #12]
 8105 0038 BA68     		ldr	r2, [r7, #8]
 8106 003a D2B2     		uxtb	r2, r2
 8107 003c 1A70     		strb	r2, [r3]
 8108 003e FB68     		ldr	r3, [r7, #12]
 8109 0040 7B60     		str	r3, [r7, #4]
 8110              	.LBE135:
2241:../../../SystemView/SEGGER/SEGGER_SYSVIEW.c ****   return pPayload;
 8111              		.loc 1 2241 0 is_stmt 1 discriminator 4
 8112 0042 7B68     		ldr	r3, [r7, #4]
2242:../../../SystemView/SEGGER/SEGGER_SYSVIEW.c **** }
 8113              		.loc 1 2242 0 discriminator 4
 8114 0044 1846     		mov	r0, r3
 8115 0046 1437     		adds	r7, r7, #20
 8116              	.LCFI254:
 8117              		.cfi_def_cfa_offset 4
 8118 0048 BD46     		mov	sp, r7
 8119              	.LCFI255:
 8120              		.cfi_def_cfa_register 13
 8121              		@ sp needed
 8122 004a 5DF8047B 		ldr	r7, [sp], #4
 8123              	.LCFI256:
 8124              		.cfi_restore 7
 8125              		.cfi_def_cfa_offset 0
 8126 004e 7047     		bx	lr
 8127              		.cfi_endproc
 8128              	.LFE50:
 8130              		.section	.text.SEGGER_SYSVIEW_EncodeString,"ax",%progbits
 8131              		.align	2
 8132              		.global	SEGGER_SYSVIEW_EncodeString
 8133              		.thumb
 8134              		.thumb_func
 8136              	SEGGER_SYSVIEW_EncodeString:
 8137              	.LFB51:
2243:../../../SystemView/SEGGER/SEGGER_SYSVIEW.c **** 
2244:../../../SystemView/SEGGER/SEGGER_SYSVIEW.c **** /*********************************************************************
2245:../../../SystemView/SEGGER/SEGGER_SYSVIEW.c **** *
2246:../../../SystemView/SEGGER/SEGGER_SYSVIEW.c **** *       SEGGER_SYSVIEW_EncodeString()
2247:../../../SystemView/SEGGER/SEGGER_SYSVIEW.c **** *
ARM GAS  /tmp/ccJhHFds.s 			page 182


2248:../../../SystemView/SEGGER/SEGGER_SYSVIEW.c **** *  Function description
2249:../../../SystemView/SEGGER/SEGGER_SYSVIEW.c **** *    Encode a string in variable-length format.
2250:../../../SystemView/SEGGER/SEGGER_SYSVIEW.c **** *
2251:../../../SystemView/SEGGER/SEGGER_SYSVIEW.c **** *  Parameters
2252:../../../SystemView/SEGGER/SEGGER_SYSVIEW.c **** *    pPayload - Pointer to where string will be encoded.
2253:../../../SystemView/SEGGER/SEGGER_SYSVIEW.c **** *    s        - String to encode.
2254:../../../SystemView/SEGGER/SEGGER_SYSVIEW.c **** *    MaxLen   - Maximum number of characters to encode from string.
2255:../../../SystemView/SEGGER/SEGGER_SYSVIEW.c **** *
2256:../../../SystemView/SEGGER/SEGGER_SYSVIEW.c **** *  Return value
2257:../../../SystemView/SEGGER/SEGGER_SYSVIEW.c **** *    Pointer to the byte following the value, i.e. the first free
2258:../../../SystemView/SEGGER/SEGGER_SYSVIEW.c **** *    byte in the payload and the next position to store payload
2259:../../../SystemView/SEGGER/SEGGER_SYSVIEW.c **** *    content.
2260:../../../SystemView/SEGGER/SEGGER_SYSVIEW.c **** *
2261:../../../SystemView/SEGGER/SEGGER_SYSVIEW.c **** *  Additional information
2262:../../../SystemView/SEGGER/SEGGER_SYSVIEW.c **** *    The string is encoded as a count byte followed by the contents
2263:../../../SystemView/SEGGER/SEGGER_SYSVIEW.c **** *    of the string.
2264:../../../SystemView/SEGGER/SEGGER_SYSVIEW.c **** *    No more than 1 + MaxLen bytes will be encoded to the payload.
2265:../../../SystemView/SEGGER/SEGGER_SYSVIEW.c **** */
2266:../../../SystemView/SEGGER/SEGGER_SYSVIEW.c **** U8* SEGGER_SYSVIEW_EncodeString(U8* pPayload, const char* s, unsigned int MaxLen) {
 8138              		.loc 1 2266 0
 8139              		.cfi_startproc
 8140              		@ args = 0, pretend = 0, frame = 16
 8141              		@ frame_needed = 1, uses_anonymous_args = 0
 8142 0000 80B5     		push	{r7, lr}
 8143              	.LCFI257:
 8144              		.cfi_def_cfa_offset 8
 8145              		.cfi_offset 7, -8
 8146              		.cfi_offset 14, -4
 8147 0002 84B0     		sub	sp, sp, #16
 8148              	.LCFI258:
 8149              		.cfi_def_cfa_offset 24
 8150 0004 00AF     		add	r7, sp, #0
 8151              	.LCFI259:
 8152              		.cfi_def_cfa_register 7
 8153 0006 F860     		str	r0, [r7, #12]
 8154 0008 B960     		str	r1, [r7, #8]
 8155 000a 7A60     		str	r2, [r7, #4]
2267:../../../SystemView/SEGGER/SEGGER_SYSVIEW.c ****   return _EncodeStr(pPayload, s, MaxLen);
 8156              		.loc 1 2267 0
 8157 000c F868     		ldr	r0, [r7, #12]
 8158 000e B968     		ldr	r1, [r7, #8]
 8159 0010 7A68     		ldr	r2, [r7, #4]
 8160 0012 FFF7FEFF 		bl	_EncodeStr
 8161 0016 0346     		mov	r3, r0
2268:../../../SystemView/SEGGER/SEGGER_SYSVIEW.c **** }
 8162              		.loc 1 2268 0
 8163 0018 1846     		mov	r0, r3
 8164 001a 1037     		adds	r7, r7, #16
 8165              	.LCFI260:
 8166              		.cfi_def_cfa_offset 8
 8167 001c BD46     		mov	sp, r7
 8168              	.LCFI261:
 8169              		.cfi_def_cfa_register 13
 8170              		@ sp needed
 8171 001e 80BD     		pop	{r7, pc}
 8172              		.cfi_endproc
 8173              	.LFE51:
ARM GAS  /tmp/ccJhHFds.s 			page 183


 8175              		.section	.text.SEGGER_SYSVIEW_EncodeData,"ax",%progbits
 8176              		.align	2
 8177              		.global	SEGGER_SYSVIEW_EncodeData
 8178              		.thumb
 8179              		.thumb_func
 8181              	SEGGER_SYSVIEW_EncodeData:
 8182              	.LFB52:
2269:../../../SystemView/SEGGER/SEGGER_SYSVIEW.c **** 
2270:../../../SystemView/SEGGER/SEGGER_SYSVIEW.c **** /*********************************************************************
2271:../../../SystemView/SEGGER/SEGGER_SYSVIEW.c **** *
2272:../../../SystemView/SEGGER/SEGGER_SYSVIEW.c **** *       SEGGER_SYSVIEW_EncodeData()
2273:../../../SystemView/SEGGER/SEGGER_SYSVIEW.c **** *
2274:../../../SystemView/SEGGER/SEGGER_SYSVIEW.c **** *  Function description
2275:../../../SystemView/SEGGER/SEGGER_SYSVIEW.c **** *    Encode a byte buffer in variable-length format.
2276:../../../SystemView/SEGGER/SEGGER_SYSVIEW.c **** *
2277:../../../SystemView/SEGGER/SEGGER_SYSVIEW.c **** *  Parameters
2278:../../../SystemView/SEGGER/SEGGER_SYSVIEW.c **** *    pPayload - Pointer to where string will be encoded.
2279:../../../SystemView/SEGGER/SEGGER_SYSVIEW.c **** *    pSrc     - Pointer to data buffer to be encoded.
2280:../../../SystemView/SEGGER/SEGGER_SYSVIEW.c **** *    NumBytes - Number of bytes in the buffer to be encoded.
2281:../../../SystemView/SEGGER/SEGGER_SYSVIEW.c **** *
2282:../../../SystemView/SEGGER/SEGGER_SYSVIEW.c **** *  Return value
2283:../../../SystemView/SEGGER/SEGGER_SYSVIEW.c **** *    Pointer to the byte following the value, i.e. the first free
2284:../../../SystemView/SEGGER/SEGGER_SYSVIEW.c **** *    byte in the payload and the next position to store payload
2285:../../../SystemView/SEGGER/SEGGER_SYSVIEW.c **** *    content.
2286:../../../SystemView/SEGGER/SEGGER_SYSVIEW.c **** *
2287:../../../SystemView/SEGGER/SEGGER_SYSVIEW.c **** *  Additional information
2288:../../../SystemView/SEGGER/SEGGER_SYSVIEW.c **** *    The data is encoded as a count byte followed by the contents
2289:../../../SystemView/SEGGER/SEGGER_SYSVIEW.c **** *    of the data buffer.
2290:../../../SystemView/SEGGER/SEGGER_SYSVIEW.c **** *    Make sure NumBytes + 1 bytes are free for the payload.
2291:../../../SystemView/SEGGER/SEGGER_SYSVIEW.c **** */
2292:../../../SystemView/SEGGER/SEGGER_SYSVIEW.c **** U8* SEGGER_SYSVIEW_EncodeData(U8 *pPayload, const char* pSrc, unsigned int NumBytes) {
 8183              		.loc 1 2292 0
 8184              		.cfi_startproc
 8185              		@ args = 0, pretend = 0, frame = 16
 8186              		@ frame_needed = 1, uses_anonymous_args = 0
 8187 0000 80B5     		push	{r7, lr}
 8188              	.LCFI262:
 8189              		.cfi_def_cfa_offset 8
 8190              		.cfi_offset 7, -8
 8191              		.cfi_offset 14, -4
 8192 0002 84B0     		sub	sp, sp, #16
 8193              	.LCFI263:
 8194              		.cfi_def_cfa_offset 24
 8195 0004 00AF     		add	r7, sp, #0
 8196              	.LCFI264:
 8197              		.cfi_def_cfa_register 7
 8198 0006 F860     		str	r0, [r7, #12]
 8199 0008 B960     		str	r1, [r7, #8]
 8200 000a 7A60     		str	r2, [r7, #4]
2293:../../../SystemView/SEGGER/SEGGER_SYSVIEW.c ****   return _EncodeData(pPayload, pSrc, NumBytes);
 8201              		.loc 1 2293 0
 8202 000c F868     		ldr	r0, [r7, #12]
 8203 000e B968     		ldr	r1, [r7, #8]
 8204 0010 7A68     		ldr	r2, [r7, #4]
 8205 0012 FFF7FEFF 		bl	_EncodeData
 8206 0016 0346     		mov	r3, r0
2294:../../../SystemView/SEGGER/SEGGER_SYSVIEW.c **** }
ARM GAS  /tmp/ccJhHFds.s 			page 184


 8207              		.loc 1 2294 0
 8208 0018 1846     		mov	r0, r3
 8209 001a 1037     		adds	r7, r7, #16
 8210              	.LCFI265:
 8211              		.cfi_def_cfa_offset 8
 8212 001c BD46     		mov	sp, r7
 8213              	.LCFI266:
 8214              		.cfi_def_cfa_register 13
 8215              		@ sp needed
 8216 001e 80BD     		pop	{r7, pc}
 8217              		.cfi_endproc
 8218              	.LFE52:
 8220              		.section	.text.SEGGER_SYSVIEW_EncodeId,"ax",%progbits
 8221              		.align	2
 8222              		.global	SEGGER_SYSVIEW_EncodeId
 8223              		.thumb
 8224              		.thumb_func
 8226              	SEGGER_SYSVIEW_EncodeId:
 8227              	.LFB53:
2295:../../../SystemView/SEGGER/SEGGER_SYSVIEW.c **** 
2296:../../../SystemView/SEGGER/SEGGER_SYSVIEW.c **** /*********************************************************************
2297:../../../SystemView/SEGGER/SEGGER_SYSVIEW.c **** *
2298:../../../SystemView/SEGGER/SEGGER_SYSVIEW.c **** *       SEGGER_SYSVIEW_EncodeId()
2299:../../../SystemView/SEGGER/SEGGER_SYSVIEW.c **** *
2300:../../../SystemView/SEGGER/SEGGER_SYSVIEW.c **** *  Function description
2301:../../../SystemView/SEGGER/SEGGER_SYSVIEW.c **** *    Encode a 32-bit Id in shrunken variable-length format.
2302:../../../SystemView/SEGGER/SEGGER_SYSVIEW.c **** *
2303:../../../SystemView/SEGGER/SEGGER_SYSVIEW.c **** *  Parameters
2304:../../../SystemView/SEGGER/SEGGER_SYSVIEW.c **** *    pPayload - Pointer to where the Id will be encoded.
2305:../../../SystemView/SEGGER/SEGGER_SYSVIEW.c **** *    Id       - The 32-bit value to be encoded.
2306:../../../SystemView/SEGGER/SEGGER_SYSVIEW.c **** *
2307:../../../SystemView/SEGGER/SEGGER_SYSVIEW.c **** *  Return value
2308:../../../SystemView/SEGGER/SEGGER_SYSVIEW.c **** *    Pointer to the byte following the value, i.e. the first free
2309:../../../SystemView/SEGGER/SEGGER_SYSVIEW.c **** *    byte in the payload and the next position to store payload
2310:../../../SystemView/SEGGER/SEGGER_SYSVIEW.c **** *    content.
2311:../../../SystemView/SEGGER/SEGGER_SYSVIEW.c **** *
2312:../../../SystemView/SEGGER/SEGGER_SYSVIEW.c **** *  Additional information
2313:../../../SystemView/SEGGER/SEGGER_SYSVIEW.c **** *    The parameters to shrink an Id can be configured in
2314:../../../SystemView/SEGGER/SEGGER_SYSVIEW.c **** *    SEGGER_SYSVIEW_Conf.h and via SEGGER_SYSVIEW_SetRAMBase().
2315:../../../SystemView/SEGGER/SEGGER_SYSVIEW.c **** *     SEGGER_SYSVIEW_ID_BASE: Lowest Id reported by the application.
2316:../../../SystemView/SEGGER/SEGGER_SYSVIEW.c **** *       (i.e. 0x20000000 when all Ids are an address in this RAM)
2317:../../../SystemView/SEGGER/SEGGER_SYSVIEW.c **** *     SEGGER_SYSVIEW_ID_SHIFT: Number of bits to shift the Id to
2318:../../../SystemView/SEGGER/SEGGER_SYSVIEW.c **** *       save bandwidth. (i.e. 2 when Ids are 4 byte aligned)
2319:../../../SystemView/SEGGER/SEGGER_SYSVIEW.c **** */
2320:../../../SystemView/SEGGER/SEGGER_SYSVIEW.c **** U8* SEGGER_SYSVIEW_EncodeId(U8* pPayload, U32 Id) {
 8228              		.loc 1 2320 0
 8229              		.cfi_startproc
 8230              		@ args = 0, pretend = 0, frame = 16
 8231              		@ frame_needed = 1, uses_anonymous_args = 0
 8232              		@ link register save eliminated.
 8233 0000 80B4     		push	{r7}
 8234              	.LCFI267:
 8235              		.cfi_def_cfa_offset 4
 8236              		.cfi_offset 7, -4
 8237 0002 85B0     		sub	sp, sp, #20
 8238              	.LCFI268:
 8239              		.cfi_def_cfa_offset 24
ARM GAS  /tmp/ccJhHFds.s 			page 185


 8240 0004 00AF     		add	r7, sp, #0
 8241              	.LCFI269:
 8242              		.cfi_def_cfa_register 7
 8243 0006 7860     		str	r0, [r7, #4]
 8244 0008 3960     		str	r1, [r7]
2321:../../../SystemView/SEGGER/SEGGER_SYSVIEW.c ****   Id = SHRINK_ID(Id);
 8245              		.loc 1 2321 0
 8246 000a 144B     		ldr	r3, .L450
 8247 000c 1B69     		ldr	r3, [r3, #16]
 8248 000e 3A68     		ldr	r2, [r7]
 8249 0010 D31A     		subs	r3, r2, r3
 8250 0012 9B08     		lsrs	r3, r3, #2
 8251 0014 3B60     		str	r3, [r7]
 8252              	.LBB136:
2322:../../../SystemView/SEGGER/SEGGER_SYSVIEW.c ****   ENCODE_U32(pPayload, Id);
 8253              		.loc 1 2322 0
 8254 0016 7B68     		ldr	r3, [r7, #4]
 8255 0018 FB60     		str	r3, [r7, #12]
 8256 001a 3B68     		ldr	r3, [r7]
 8257 001c BB60     		str	r3, [r7, #8]
 8258 001e 0BE0     		b	.L447
 8259              	.L448:
 8260              		.loc 1 2322 0 is_stmt 0 discriminator 3
 8261 0020 FB68     		ldr	r3, [r7, #12]
 8262 0022 5A1C     		adds	r2, r3, #1
 8263 0024 FA60     		str	r2, [r7, #12]
 8264 0026 BA68     		ldr	r2, [r7, #8]
 8265 0028 D2B2     		uxtb	r2, r2
 8266 002a 62F07F02 		orn	r2, r2, #127
 8267 002e D2B2     		uxtb	r2, r2
 8268 0030 1A70     		strb	r2, [r3]
 8269 0032 BB68     		ldr	r3, [r7, #8]
 8270 0034 DB09     		lsrs	r3, r3, #7
 8271 0036 BB60     		str	r3, [r7, #8]
 8272              	.L447:
 8273              		.loc 1 2322 0 discriminator 1
 8274 0038 BB68     		ldr	r3, [r7, #8]
 8275 003a 7F2B     		cmp	r3, #127
 8276 003c F0D8     		bhi	.L448
 8277              		.loc 1 2322 0 discriminator 4
 8278 003e FB68     		ldr	r3, [r7, #12]
 8279 0040 5A1C     		adds	r2, r3, #1
 8280 0042 FA60     		str	r2, [r7, #12]
 8281 0044 BA68     		ldr	r2, [r7, #8]
 8282 0046 D2B2     		uxtb	r2, r2
 8283 0048 1A70     		strb	r2, [r3]
 8284 004a FB68     		ldr	r3, [r7, #12]
 8285 004c 7B60     		str	r3, [r7, #4]
 8286              	.LBE136:
2323:../../../SystemView/SEGGER/SEGGER_SYSVIEW.c ****   return pPayload;
 8287              		.loc 1 2323 0 is_stmt 1 discriminator 4
 8288 004e 7B68     		ldr	r3, [r7, #4]
2324:../../../SystemView/SEGGER/SEGGER_SYSVIEW.c **** }
 8289              		.loc 1 2324 0 discriminator 4
 8290 0050 1846     		mov	r0, r3
 8291 0052 1437     		adds	r7, r7, #20
 8292              	.LCFI270:
ARM GAS  /tmp/ccJhHFds.s 			page 186


 8293              		.cfi_def_cfa_offset 4
 8294 0054 BD46     		mov	sp, r7
 8295              	.LCFI271:
 8296              		.cfi_def_cfa_register 13
 8297              		@ sp needed
 8298 0056 5DF8047B 		ldr	r7, [sp], #4
 8299              	.LCFI272:
 8300              		.cfi_restore 7
 8301              		.cfi_def_cfa_offset 0
 8302 005a 7047     		bx	lr
 8303              	.L451:
 8304              		.align	2
 8305              	.L450:
 8306 005c 00000000 		.word	_SYSVIEW_Globals
 8307              		.cfi_endproc
 8308              	.LFE53:
 8310              		.section	.text.SEGGER_SYSVIEW_ShrinkId,"ax",%progbits
 8311              		.align	2
 8312              		.global	SEGGER_SYSVIEW_ShrinkId
 8313              		.thumb
 8314              		.thumb_func
 8316              	SEGGER_SYSVIEW_ShrinkId:
 8317              	.LFB54:
2325:../../../SystemView/SEGGER/SEGGER_SYSVIEW.c **** 
2326:../../../SystemView/SEGGER/SEGGER_SYSVIEW.c **** /*********************************************************************
2327:../../../SystemView/SEGGER/SEGGER_SYSVIEW.c **** *
2328:../../../SystemView/SEGGER/SEGGER_SYSVIEW.c **** *       SEGGER_SYSVIEW_ShrinkId()
2329:../../../SystemView/SEGGER/SEGGER_SYSVIEW.c **** *
2330:../../../SystemView/SEGGER/SEGGER_SYSVIEW.c **** *  Function description
2331:../../../SystemView/SEGGER/SEGGER_SYSVIEW.c **** *    Get the shrunken value of an Id for further processing like in
2332:../../../SystemView/SEGGER/SEGGER_SYSVIEW.c **** *    SEGGER_SYSVIEW_NameResource().
2333:../../../SystemView/SEGGER/SEGGER_SYSVIEW.c **** *
2334:../../../SystemView/SEGGER/SEGGER_SYSVIEW.c **** *  Parameters
2335:../../../SystemView/SEGGER/SEGGER_SYSVIEW.c **** *    Id       - The 32-bit value to be shrunken.
2336:../../../SystemView/SEGGER/SEGGER_SYSVIEW.c **** *
2337:../../../SystemView/SEGGER/SEGGER_SYSVIEW.c **** *  Return value
2338:../../../SystemView/SEGGER/SEGGER_SYSVIEW.c **** *    Shrunken Id.
2339:../../../SystemView/SEGGER/SEGGER_SYSVIEW.c **** *
2340:../../../SystemView/SEGGER/SEGGER_SYSVIEW.c **** *  Additional information
2341:../../../SystemView/SEGGER/SEGGER_SYSVIEW.c **** *    The parameters to shrink an Id can be configured in
2342:../../../SystemView/SEGGER/SEGGER_SYSVIEW.c **** *    SEGGER_SYSVIEW_Conf.h and via SEGGER_SYSVIEW_SetRAMBase().
2343:../../../SystemView/SEGGER/SEGGER_SYSVIEW.c **** *     SEGGER_SYSVIEW_ID_BASE: Lowest Id reported by the application.
2344:../../../SystemView/SEGGER/SEGGER_SYSVIEW.c **** *       (i.e. 0x20000000 when all Ids are an address in this RAM)
2345:../../../SystemView/SEGGER/SEGGER_SYSVIEW.c **** *     SEGGER_SYSVIEW_ID_SHIFT: Number of bits to shift the Id to
2346:../../../SystemView/SEGGER/SEGGER_SYSVIEW.c **** *       save bandwidth. (i.e. 2 when Ids are 4 byte aligned)
2347:../../../SystemView/SEGGER/SEGGER_SYSVIEW.c **** */
2348:../../../SystemView/SEGGER/SEGGER_SYSVIEW.c **** U32 SEGGER_SYSVIEW_ShrinkId(U32 Id) {
 8318              		.loc 1 2348 0
 8319              		.cfi_startproc
 8320              		@ args = 0, pretend = 0, frame = 8
 8321              		@ frame_needed = 1, uses_anonymous_args = 0
 8322              		@ link register save eliminated.
 8323 0000 80B4     		push	{r7}
 8324              	.LCFI273:
 8325              		.cfi_def_cfa_offset 4
 8326              		.cfi_offset 7, -4
 8327 0002 83B0     		sub	sp, sp, #12
ARM GAS  /tmp/ccJhHFds.s 			page 187


 8328              	.LCFI274:
 8329              		.cfi_def_cfa_offset 16
 8330 0004 00AF     		add	r7, sp, #0
 8331              	.LCFI275:
 8332              		.cfi_def_cfa_register 7
 8333 0006 7860     		str	r0, [r7, #4]
2349:../../../SystemView/SEGGER/SEGGER_SYSVIEW.c ****   return SHRINK_ID(Id);
 8334              		.loc 1 2349 0
 8335 0008 054B     		ldr	r3, .L454
 8336 000a 1B69     		ldr	r3, [r3, #16]
 8337 000c 7A68     		ldr	r2, [r7, #4]
 8338 000e D31A     		subs	r3, r2, r3
 8339 0010 9B08     		lsrs	r3, r3, #2
2350:../../../SystemView/SEGGER/SEGGER_SYSVIEW.c **** }
 8340              		.loc 1 2350 0
 8341 0012 1846     		mov	r0, r3
 8342 0014 0C37     		adds	r7, r7, #12
 8343              	.LCFI276:
 8344              		.cfi_def_cfa_offset 4
 8345 0016 BD46     		mov	sp, r7
 8346              	.LCFI277:
 8347              		.cfi_def_cfa_register 13
 8348              		@ sp needed
 8349 0018 5DF8047B 		ldr	r7, [sp], #4
 8350              	.LCFI278:
 8351              		.cfi_restore 7
 8352              		.cfi_def_cfa_offset 0
 8353 001c 7047     		bx	lr
 8354              	.L455:
 8355 001e 00BF     		.align	2
 8356              	.L454:
 8357 0020 00000000 		.word	_SYSVIEW_Globals
 8358              		.cfi_endproc
 8359              	.LFE54:
 8361              		.section	.text.SEGGER_SYSVIEW_RegisterModule,"ax",%progbits
 8362              		.align	2
 8363              		.global	SEGGER_SYSVIEW_RegisterModule
 8364              		.thumb
 8365              		.thumb_func
 8367              	SEGGER_SYSVIEW_RegisterModule:
 8368              	.LFB55:
2351:../../../SystemView/SEGGER/SEGGER_SYSVIEW.c **** 
2352:../../../SystemView/SEGGER/SEGGER_SYSVIEW.c **** /*********************************************************************
2353:../../../SystemView/SEGGER/SEGGER_SYSVIEW.c **** *
2354:../../../SystemView/SEGGER/SEGGER_SYSVIEW.c **** *       SEGGER_SYSVIEW_RegisterModule()
2355:../../../SystemView/SEGGER/SEGGER_SYSVIEW.c **** *
2356:../../../SystemView/SEGGER/SEGGER_SYSVIEW.c **** *  Function description
2357:../../../SystemView/SEGGER/SEGGER_SYSVIEW.c **** *    Register a middleware module for recording its events.
2358:../../../SystemView/SEGGER/SEGGER_SYSVIEW.c **** *
2359:../../../SystemView/SEGGER/SEGGER_SYSVIEW.c **** *  Parameters
2360:../../../SystemView/SEGGER/SEGGER_SYSVIEW.c **** *    pModule  - The middleware module information.
2361:../../../SystemView/SEGGER/SEGGER_SYSVIEW.c **** *
2362:../../../SystemView/SEGGER/SEGGER_SYSVIEW.c **** *  Additional information
2363:../../../SystemView/SEGGER/SEGGER_SYSVIEW.c **** *    SEGGER_SYSVIEW_MODULE elements:
2364:../../../SystemView/SEGGER/SEGGER_SYSVIEW.c **** *      sDescription      - Pointer to a string containing the module name and optionally the module
2365:../../../SystemView/SEGGER/SEGGER_SYSVIEW.c **** *      NumEvents         - Number of events the module wants to register.
2366:../../../SystemView/SEGGER/SEGGER_SYSVIEW.c **** *      EventOffset       - Offset to be added to the event Ids. Out parameter, set by this function
ARM GAS  /tmp/ccJhHFds.s 			page 188


2367:../../../SystemView/SEGGER/SEGGER_SYSVIEW.c **** *      pfSendModuleDesc  - Callback function pointer to send more detailed module description to Sy
2368:../../../SystemView/SEGGER/SEGGER_SYSVIEW.c **** *      pNext             - Pointer to next registered module. Out parameter, set by this function. 
2369:../../../SystemView/SEGGER/SEGGER_SYSVIEW.c **** */
2370:../../../SystemView/SEGGER/SEGGER_SYSVIEW.c **** void SEGGER_SYSVIEW_RegisterModule(SEGGER_SYSVIEW_MODULE* pModule) {
 8369              		.loc 1 2370 0
 8370              		.cfi_startproc
 8371              		@ args = 0, pretend = 0, frame = 16
 8372              		@ frame_needed = 1, uses_anonymous_args = 0
 8373 0000 80B5     		push	{r7, lr}
 8374              	.LCFI279:
 8375              		.cfi_def_cfa_offset 8
 8376              		.cfi_offset 7, -8
 8377              		.cfi_offset 14, -4
 8378 0002 84B0     		sub	sp, sp, #16
 8379              	.LCFI280:
 8380              		.cfi_def_cfa_offset 24
 8381 0004 00AF     		add	r7, sp, #0
 8382              	.LCFI281:
 8383              		.cfi_def_cfa_register 7
 8384 0006 7860     		str	r0, [r7, #4]
 8385              	.LBB137:
2371:../../../SystemView/SEGGER/SEGGER_SYSVIEW.c ****   SEGGER_SYSVIEW_LOCK();
 8386              		.loc 1 2371 0
 8387              	@ 2371 "../../../SystemView/SEGGER/SEGGER_SYSVIEW.c" 1
 8388 0008 EFF31183 		mrs   r3, basepri  
 8389 000c 4FF02001 		mov   r1, #32       
 8390 0010 81F31188 		msr   basepri, r1  
 8391              		
 8392              	@ 0 "" 2
 8393              		.thumb
 8394 0014 FB60     		str	r3, [r7, #12]
2372:../../../SystemView/SEGGER/SEGGER_SYSVIEW.c ****   if (_pFirstModule == 0) {
 8395              		.loc 1 2372 0
 8396 0016 1C4B     		ldr	r3, .L460
 8397 0018 1B68     		ldr	r3, [r3]
 8398 001a 002B     		cmp	r3, #0
 8399 001c 0DD1     		bne	.L457
2373:../../../SystemView/SEGGER/SEGGER_SYSVIEW.c ****     //
2374:../../../SystemView/SEGGER/SEGGER_SYSVIEW.c ****     // No module registered, yet.
2375:../../../SystemView/SEGGER/SEGGER_SYSVIEW.c ****     // Start list with new module.
2376:../../../SystemView/SEGGER/SEGGER_SYSVIEW.c ****     // EventOffset is the base offset for modules
2377:../../../SystemView/SEGGER/SEGGER_SYSVIEW.c ****     //
2378:../../../SystemView/SEGGER/SEGGER_SYSVIEW.c ****     pModule->EventOffset = MODULE_EVENT_OFFSET;
 8400              		.loc 1 2378 0
 8401 001e 7B68     		ldr	r3, [r7, #4]
 8402 0020 4FF40072 		mov	r2, #512
 8403 0024 9A60     		str	r2, [r3, #8]
2379:../../../SystemView/SEGGER/SEGGER_SYSVIEW.c ****     pModule->pNext = 0;
 8404              		.loc 1 2379 0
 8405 0026 7B68     		ldr	r3, [r7, #4]
 8406 0028 0022     		movs	r2, #0
 8407 002a 1A61     		str	r2, [r3, #16]
2380:../../../SystemView/SEGGER/SEGGER_SYSVIEW.c ****     _pFirstModule = pModule;
 8408              		.loc 1 2380 0
 8409 002c 164A     		ldr	r2, .L460
 8410 002e 7B68     		ldr	r3, [r7, #4]
 8411 0030 1360     		str	r3, [r2]
ARM GAS  /tmp/ccJhHFds.s 			page 189


2381:../../../SystemView/SEGGER/SEGGER_SYSVIEW.c ****     _NumModules = 1;
 8412              		.loc 1 2381 0
 8413 0032 164B     		ldr	r3, .L460+4
 8414 0034 0122     		movs	r2, #1
 8415 0036 1A70     		strb	r2, [r3]
 8416 0038 15E0     		b	.L458
 8417              	.L457:
2382:../../../SystemView/SEGGER/SEGGER_SYSVIEW.c ****   } else {
2383:../../../SystemView/SEGGER/SEGGER_SYSVIEW.c ****     //
2384:../../../SystemView/SEGGER/SEGGER_SYSVIEW.c ****     // Registreded module(s) present.
2385:../../../SystemView/SEGGER/SEGGER_SYSVIEW.c ****     // Prepend new module in list.
2386:../../../SystemView/SEGGER/SEGGER_SYSVIEW.c ****     // EventOffset set from number of events and offset of previous module.
2387:../../../SystemView/SEGGER/SEGGER_SYSVIEW.c ****     //
2388:../../../SystemView/SEGGER/SEGGER_SYSVIEW.c ****     pModule->EventOffset = _pFirstModule->EventOffset + _pFirstModule->NumEvents;
 8418              		.loc 1 2388 0
 8419 003a 134B     		ldr	r3, .L460
 8420 003c 1B68     		ldr	r3, [r3]
 8421 003e 9A68     		ldr	r2, [r3, #8]
 8422 0040 114B     		ldr	r3, .L460
 8423 0042 1B68     		ldr	r3, [r3]
 8424 0044 5B68     		ldr	r3, [r3, #4]
 8425 0046 1A44     		add	r2, r2, r3
 8426 0048 7B68     		ldr	r3, [r7, #4]
 8427 004a 9A60     		str	r2, [r3, #8]
2389:../../../SystemView/SEGGER/SEGGER_SYSVIEW.c ****     pModule->pNext = _pFirstModule;
 8428              		.loc 1 2389 0
 8429 004c 0E4B     		ldr	r3, .L460
 8430 004e 1A68     		ldr	r2, [r3]
 8431 0050 7B68     		ldr	r3, [r7, #4]
 8432 0052 1A61     		str	r2, [r3, #16]
2390:../../../SystemView/SEGGER/SEGGER_SYSVIEW.c ****     _pFirstModule = pModule;
 8433              		.loc 1 2390 0
 8434 0054 0C4A     		ldr	r2, .L460
 8435 0056 7B68     		ldr	r3, [r7, #4]
 8436 0058 1360     		str	r3, [r2]
2391:../../../SystemView/SEGGER/SEGGER_SYSVIEW.c ****     _NumModules++;
 8437              		.loc 1 2391 0
 8438 005a 0C4B     		ldr	r3, .L460+4
 8439 005c 1B78     		ldrb	r3, [r3]	@ zero_extendqisi2
 8440 005e 0133     		adds	r3, r3, #1
 8441 0060 DAB2     		uxtb	r2, r3
 8442 0062 0A4B     		ldr	r3, .L460+4
 8443 0064 1A70     		strb	r2, [r3]
 8444              	.L458:
2392:../../../SystemView/SEGGER/SEGGER_SYSVIEW.c ****   }
2393:../../../SystemView/SEGGER/SEGGER_SYSVIEW.c ****   SEGGER_SYSVIEW_SendModule(0);
 8445              		.loc 1 2393 0
 8446 0066 0020     		movs	r0, #0
 8447 0068 FFF7FEFF 		bl	SEGGER_SYSVIEW_SendModule
2394:../../../SystemView/SEGGER/SEGGER_SYSVIEW.c ****   if (pModule->pfSendModuleDesc) {
 8448              		.loc 1 2394 0
 8449 006c 7B68     		ldr	r3, [r7, #4]
 8450 006e DB68     		ldr	r3, [r3, #12]
 8451 0070 002B     		cmp	r3, #0
 8452 0072 02D0     		beq	.L459
2395:../../../SystemView/SEGGER/SEGGER_SYSVIEW.c ****     pModule->pfSendModuleDesc();
 8453              		.loc 1 2395 0
ARM GAS  /tmp/ccJhHFds.s 			page 190


 8454 0074 7B68     		ldr	r3, [r7, #4]
 8455 0076 DB68     		ldr	r3, [r3, #12]
 8456 0078 9847     		blx	r3
 8457              	.L459:
2396:../../../SystemView/SEGGER/SEGGER_SYSVIEW.c ****   }
2397:../../../SystemView/SEGGER/SEGGER_SYSVIEW.c ****   SEGGER_SYSVIEW_UNLOCK();
 8458              		.loc 1 2397 0
 8459 007a FB68     		ldr	r3, [r7, #12]
 8460              	@ 2397 "../../../SystemView/SEGGER/SEGGER_SYSVIEW.c" 1
 8461 007c 83F31188 		msr   basepri, r3  
 8462              		
 8463              	@ 0 "" 2
 8464              		.thumb
 8465              	.LBE137:
2398:../../../SystemView/SEGGER/SEGGER_SYSVIEW.c **** }
 8466              		.loc 1 2398 0
 8467 0080 1037     		adds	r7, r7, #16
 8468              	.LCFI282:
 8469              		.cfi_def_cfa_offset 8
 8470 0082 BD46     		mov	sp, r7
 8471              	.LCFI283:
 8472              		.cfi_def_cfa_register 13
 8473              		@ sp needed
 8474 0084 80BD     		pop	{r7, pc}
 8475              	.L461:
 8476 0086 00BF     		.align	2
 8477              	.L460:
 8478 0088 00000000 		.word	_pFirstModule
 8479 008c 00000000 		.word	_NumModules
 8480              		.cfi_endproc
 8481              	.LFE55:
 8483              		.section	.text.SEGGER_SYSVIEW_RecordModuleDescription,"ax",%progbits
 8484              		.align	2
 8485              		.global	SEGGER_SYSVIEW_RecordModuleDescription
 8486              		.thumb
 8487              		.thumb_func
 8489              	SEGGER_SYSVIEW_RecordModuleDescription:
 8490              	.LFB56:
2399:../../../SystemView/SEGGER/SEGGER_SYSVIEW.c **** 
2400:../../../SystemView/SEGGER/SEGGER_SYSVIEW.c **** /*********************************************************************
2401:../../../SystemView/SEGGER/SEGGER_SYSVIEW.c **** *
2402:../../../SystemView/SEGGER/SEGGER_SYSVIEW.c **** *       SEGGER_SYSVIEW_RecordModuleDescription()
2403:../../../SystemView/SEGGER/SEGGER_SYSVIEW.c **** *
2404:../../../SystemView/SEGGER/SEGGER_SYSVIEW.c **** *  Function description
2405:../../../SystemView/SEGGER/SEGGER_SYSVIEW.c **** *    Sends detailed information of a registered module to the host.
2406:../../../SystemView/SEGGER/SEGGER_SYSVIEW.c **** *
2407:../../../SystemView/SEGGER/SEGGER_SYSVIEW.c **** *  Parameters
2408:../../../SystemView/SEGGER/SEGGER_SYSVIEW.c **** *    pModule      - Pointer to the described module.
2409:../../../SystemView/SEGGER/SEGGER_SYSVIEW.c **** *    sDescription - Pointer to a description string.
2410:../../../SystemView/SEGGER/SEGGER_SYSVIEW.c **** */
2411:../../../SystemView/SEGGER/SEGGER_SYSVIEW.c **** void SEGGER_SYSVIEW_RecordModuleDescription(const SEGGER_SYSVIEW_MODULE* pModule, const char* sDesc
 8491              		.loc 1 2411 0
 8492              		.cfi_startproc
 8493              		@ args = 0, pretend = 0, frame = 48
 8494              		@ frame_needed = 1, uses_anonymous_args = 0
 8495 0000 80B5     		push	{r7, lr}
 8496              	.LCFI284:
ARM GAS  /tmp/ccJhHFds.s 			page 191


 8497              		.cfi_def_cfa_offset 8
 8498              		.cfi_offset 7, -8
 8499              		.cfi_offset 14, -4
 8500 0002 8CB0     		sub	sp, sp, #48
 8501              	.LCFI285:
 8502              		.cfi_def_cfa_offset 56
 8503 0004 00AF     		add	r7, sp, #0
 8504              	.LCFI286:
 8505              		.cfi_def_cfa_register 7
 8506 0006 7860     		str	r0, [r7, #4]
 8507 0008 3960     		str	r1, [r7]
2412:../../../SystemView/SEGGER/SEGGER_SYSVIEW.c ****   U8  ModuleId;
2413:../../../SystemView/SEGGER/SEGGER_SYSVIEW.c ****   SEGGER_SYSVIEW_MODULE* p;
2414:../../../SystemView/SEGGER/SEGGER_SYSVIEW.c **** 
2415:../../../SystemView/SEGGER/SEGGER_SYSVIEW.c ****   p = _pFirstModule;
 8508              		.loc 1 2415 0
 8509 000a 374B     		ldr	r3, .L470
 8510 000c 1B68     		ldr	r3, [r3]
 8511 000e BB62     		str	r3, [r7, #40]
2416:../../../SystemView/SEGGER/SEGGER_SYSVIEW.c ****   ModuleId = 0;
 8512              		.loc 1 2416 0
 8513 0010 0023     		movs	r3, #0
 8514 0012 87F82F30 		strb	r3, [r7, #47]
 8515              	.L465:
2417:../../../SystemView/SEGGER/SEGGER_SYSVIEW.c ****   do {
2418:../../../SystemView/SEGGER/SEGGER_SYSVIEW.c ****     if (p == pModule) {
 8516              		.loc 1 2418 0
 8517 0016 BA6A     		ldr	r2, [r7, #40]
 8518 0018 7B68     		ldr	r3, [r7, #4]
 8519 001a 9A42     		cmp	r2, r3
 8520 001c 00D1     		bne	.L463
2419:../../../SystemView/SEGGER/SEGGER_SYSVIEW.c ****       break;
 8521              		.loc 1 2419 0
 8522 001e 0AE0     		b	.L464
 8523              	.L463:
2420:../../../SystemView/SEGGER/SEGGER_SYSVIEW.c ****     }
2421:../../../SystemView/SEGGER/SEGGER_SYSVIEW.c ****     ModuleId++;
 8524              		.loc 1 2421 0
 8525 0020 97F82F30 		ldrb	r3, [r7, #47]	@ zero_extendqisi2
 8526 0024 0133     		adds	r3, r3, #1
 8527 0026 87F82F30 		strb	r3, [r7, #47]
2422:../../../SystemView/SEGGER/SEGGER_SYSVIEW.c ****     p = p->pNext;
 8528              		.loc 1 2422 0
 8529 002a BB6A     		ldr	r3, [r7, #40]
 8530 002c 1B69     		ldr	r3, [r3, #16]
 8531 002e BB62     		str	r3, [r7, #40]
2423:../../../SystemView/SEGGER/SEGGER_SYSVIEW.c ****   } while (p);
 8532              		.loc 1 2423 0
 8533 0030 BB6A     		ldr	r3, [r7, #40]
 8534 0032 002B     		cmp	r3, #0
 8535 0034 EFD1     		bne	.L465
 8536              	.L464:
 8537              	.LBB138:
 8538              	.LBB139:
2424:../../../SystemView/SEGGER/SEGGER_SYSVIEW.c ****   {
2425:../../../SystemView/SEGGER/SEGGER_SYSVIEW.c ****     U8* pPayload;
2426:../../../SystemView/SEGGER/SEGGER_SYSVIEW.c ****     U8* pPayloadStart;
ARM GAS  /tmp/ccJhHFds.s 			page 192


2427:../../../SystemView/SEGGER/SEGGER_SYSVIEW.c ****     RECORD_START(SEGGER_SYSVIEW_INFO_SIZE + 2 * SEGGER_SYSVIEW_QUANTA_U32 + 1 + SEGGER_SYSVIEW_MAX_
 8539              		.loc 1 2427 0
 8540              	@ 2427 "../../../SystemView/SEGGER/SEGGER_SYSVIEW.c" 1
 8541 0036 EFF31183 		mrs   r3, basepri  
 8542 003a 4FF02001 		mov   r1, #32       
 8543 003e 81F31188 		msr   basepri, r1  
 8544              		
 8545              	@ 0 "" 2
 8546              		.thumb
 8547 0042 7B61     		str	r3, [r7, #20]
 8548 0044 2948     		ldr	r0, .L470+4
 8549 0046 FFF7FEFF 		bl	_PreparePacket
 8550 004a 3861     		str	r0, [r7, #16]
2428:../../../SystemView/SEGGER/SEGGER_SYSVIEW.c ****     //
2429:../../../SystemView/SEGGER/SEGGER_SYSVIEW.c ****     pPayload = pPayloadStart;
 8551              		.loc 1 2429 0
 8552 004c 3B69     		ldr	r3, [r7, #16]
 8553 004e FB60     		str	r3, [r7, #12]
 8554              	.LBB140:
2430:../../../SystemView/SEGGER/SEGGER_SYSVIEW.c ****     //
2431:../../../SystemView/SEGGER/SEGGER_SYSVIEW.c ****     // Send module description
2432:../../../SystemView/SEGGER/SEGGER_SYSVIEW.c ****     // Send event offset and number of events
2433:../../../SystemView/SEGGER/SEGGER_SYSVIEW.c ****     //
2434:../../../SystemView/SEGGER/SEGGER_SYSVIEW.c ****     ENCODE_U32(pPayload, ModuleId);
 8555              		.loc 1 2434 0
 8556 0050 FB68     		ldr	r3, [r7, #12]
 8557 0052 7B62     		str	r3, [r7, #36]
 8558 0054 97F82F30 		ldrb	r3, [r7, #47]	@ zero_extendqisi2
 8559 0058 3B62     		str	r3, [r7, #32]
 8560 005a 0BE0     		b	.L466
 8561              	.L467:
 8562              		.loc 1 2434 0 is_stmt 0 discriminator 3
 8563 005c 7B6A     		ldr	r3, [r7, #36]
 8564 005e 5A1C     		adds	r2, r3, #1
 8565 0060 7A62     		str	r2, [r7, #36]
 8566 0062 3A6A     		ldr	r2, [r7, #32]
 8567 0064 D2B2     		uxtb	r2, r2
 8568 0066 62F07F02 		orn	r2, r2, #127
 8569 006a D2B2     		uxtb	r2, r2
 8570 006c 1A70     		strb	r2, [r3]
 8571 006e 3B6A     		ldr	r3, [r7, #32]
 8572 0070 DB09     		lsrs	r3, r3, #7
 8573 0072 3B62     		str	r3, [r7, #32]
 8574              	.L466:
 8575              		.loc 1 2434 0 discriminator 1
 8576 0074 3B6A     		ldr	r3, [r7, #32]
 8577 0076 7F2B     		cmp	r3, #127
 8578 0078 F0D8     		bhi	.L467
 8579              		.loc 1 2434 0 discriminator 4
 8580 007a 7B6A     		ldr	r3, [r7, #36]
 8581 007c 5A1C     		adds	r2, r3, #1
 8582 007e 7A62     		str	r2, [r7, #36]
 8583 0080 3A6A     		ldr	r2, [r7, #32]
 8584 0082 D2B2     		uxtb	r2, r2
 8585 0084 1A70     		strb	r2, [r3]
 8586 0086 7B6A     		ldr	r3, [r7, #36]
 8587 0088 FB60     		str	r3, [r7, #12]
ARM GAS  /tmp/ccJhHFds.s 			page 193


 8588              	.LBE140:
 8589              	.LBB141:
2435:../../../SystemView/SEGGER/SEGGER_SYSVIEW.c ****     ENCODE_U32(pPayload, (pModule->EventOffset));
 8590              		.loc 1 2435 0 is_stmt 1 discriminator 4
 8591 008a FB68     		ldr	r3, [r7, #12]
 8592 008c FB61     		str	r3, [r7, #28]
 8593 008e 7B68     		ldr	r3, [r7, #4]
 8594 0090 9B68     		ldr	r3, [r3, #8]
 8595 0092 BB61     		str	r3, [r7, #24]
 8596 0094 0BE0     		b	.L468
 8597              	.L469:
 8598              		.loc 1 2435 0 is_stmt 0 discriminator 3
 8599 0096 FB69     		ldr	r3, [r7, #28]
 8600 0098 5A1C     		adds	r2, r3, #1
 8601 009a FA61     		str	r2, [r7, #28]
 8602 009c BA69     		ldr	r2, [r7, #24]
 8603 009e D2B2     		uxtb	r2, r2
 8604 00a0 62F07F02 		orn	r2, r2, #127
 8605 00a4 D2B2     		uxtb	r2, r2
 8606 00a6 1A70     		strb	r2, [r3]
 8607 00a8 BB69     		ldr	r3, [r7, #24]
 8608 00aa DB09     		lsrs	r3, r3, #7
 8609 00ac BB61     		str	r3, [r7, #24]
 8610              	.L468:
 8611              		.loc 1 2435 0 discriminator 1
 8612 00ae BB69     		ldr	r3, [r7, #24]
 8613 00b0 7F2B     		cmp	r3, #127
 8614 00b2 F0D8     		bhi	.L469
 8615              		.loc 1 2435 0 discriminator 4
 8616 00b4 FB69     		ldr	r3, [r7, #28]
 8617 00b6 5A1C     		adds	r2, r3, #1
 8618 00b8 FA61     		str	r2, [r7, #28]
 8619 00ba BA69     		ldr	r2, [r7, #24]
 8620 00bc D2B2     		uxtb	r2, r2
 8621 00be 1A70     		strb	r2, [r3]
 8622 00c0 FB69     		ldr	r3, [r7, #28]
 8623 00c2 FB60     		str	r3, [r7, #12]
 8624              	.LBE141:
2436:../../../SystemView/SEGGER/SEGGER_SYSVIEW.c ****     pPayload = _EncodeStr(pPayload, sDescription, SEGGER_SYSVIEW_MAX_STRING_LEN);
 8625              		.loc 1 2436 0 is_stmt 1 discriminator 4
 8626 00c4 F868     		ldr	r0, [r7, #12]
 8627 00c6 3968     		ldr	r1, [r7]
 8628 00c8 8022     		movs	r2, #128
 8629 00ca FFF7FEFF 		bl	_EncodeStr
 8630 00ce F860     		str	r0, [r7, #12]
2437:../../../SystemView/SEGGER/SEGGER_SYSVIEW.c ****     _SendPacket(pPayloadStart, pPayload, SYSVIEW_EVTID_MODULEDESC);
 8631              		.loc 1 2437 0 discriminator 4
 8632 00d0 3869     		ldr	r0, [r7, #16]
 8633 00d2 F968     		ldr	r1, [r7, #12]
 8634 00d4 1622     		movs	r2, #22
 8635 00d6 FFF7FEFF 		bl	_SendPacket
2438:../../../SystemView/SEGGER/SEGGER_SYSVIEW.c ****     RECORD_END();
 8636              		.loc 1 2438 0 discriminator 4
 8637 00da 7B69     		ldr	r3, [r7, #20]
 8638              	@ 2438 "../../../SystemView/SEGGER/SEGGER_SYSVIEW.c" 1
 8639 00dc 83F31188 		msr   basepri, r3  
 8640              		
ARM GAS  /tmp/ccJhHFds.s 			page 194


 8641              	@ 0 "" 2
 8642              		.thumb
 8643              	.LBE139:
 8644              	.LBE138:
2439:../../../SystemView/SEGGER/SEGGER_SYSVIEW.c ****   }
2440:../../../SystemView/SEGGER/SEGGER_SYSVIEW.c **** }
 8645              		.loc 1 2440 0 discriminator 4
 8646 00e0 3037     		adds	r7, r7, #48
 8647              	.LCFI287:
 8648              		.cfi_def_cfa_offset 8
 8649 00e2 BD46     		mov	sp, r7
 8650              	.LCFI288:
 8651              		.cfi_def_cfa_register 13
 8652              		@ sp needed
 8653 00e4 80BD     		pop	{r7, pc}
 8654              	.L471:
 8655 00e6 00BF     		.align	2
 8656              	.L470:
 8657 00e8 00000000 		.word	_pFirstModule
 8658 00ec 00000000 		.word	_aPacket
 8659              		.cfi_endproc
 8660              	.LFE56:
 8662              		.section	.text.SEGGER_SYSVIEW_SendModule,"ax",%progbits
 8663              		.align	2
 8664              		.global	SEGGER_SYSVIEW_SendModule
 8665              		.thumb
 8666              		.thumb_func
 8668              	SEGGER_SYSVIEW_SendModule:
 8669              	.LFB57:
2441:../../../SystemView/SEGGER/SEGGER_SYSVIEW.c **** 
2442:../../../SystemView/SEGGER/SEGGER_SYSVIEW.c **** /*********************************************************************
2443:../../../SystemView/SEGGER/SEGGER_SYSVIEW.c **** *
2444:../../../SystemView/SEGGER/SEGGER_SYSVIEW.c **** *       SEGGER_SYSVIEW_SendModule()
2445:../../../SystemView/SEGGER/SEGGER_SYSVIEW.c **** *
2446:../../../SystemView/SEGGER/SEGGER_SYSVIEW.c **** *  Function description
2447:../../../SystemView/SEGGER/SEGGER_SYSVIEW.c **** *    Sends the information of a registered module to the host.
2448:../../../SystemView/SEGGER/SEGGER_SYSVIEW.c **** *
2449:../../../SystemView/SEGGER/SEGGER_SYSVIEW.c **** *  Parameters
2450:../../../SystemView/SEGGER/SEGGER_SYSVIEW.c **** *    ModuleId   - Id of the requested module.
2451:../../../SystemView/SEGGER/SEGGER_SYSVIEW.c **** */
2452:../../../SystemView/SEGGER/SEGGER_SYSVIEW.c **** void SEGGER_SYSVIEW_SendModule(U8 ModuleId) {
 8670              		.loc 1 2452 0
 8671              		.cfi_startproc
 8672              		@ args = 0, pretend = 0, frame = 48
 8673              		@ frame_needed = 1, uses_anonymous_args = 0
 8674 0000 80B5     		push	{r7, lr}
 8675              	.LCFI289:
 8676              		.cfi_def_cfa_offset 8
 8677              		.cfi_offset 7, -8
 8678              		.cfi_offset 14, -4
 8679 0002 8CB0     		sub	sp, sp, #48
 8680              	.LCFI290:
 8681              		.cfi_def_cfa_offset 56
 8682 0004 00AF     		add	r7, sp, #0
 8683              	.LCFI291:
 8684              		.cfi_def_cfa_register 7
 8685 0006 0346     		mov	r3, r0
ARM GAS  /tmp/ccJhHFds.s 			page 195


 8686 0008 FB71     		strb	r3, [r7, #7]
2453:../../../SystemView/SEGGER/SEGGER_SYSVIEW.c ****   SEGGER_SYSVIEW_MODULE* pModule;
2454:../../../SystemView/SEGGER/SEGGER_SYSVIEW.c ****   U32 n;
2455:../../../SystemView/SEGGER/SEGGER_SYSVIEW.c **** 
2456:../../../SystemView/SEGGER/SEGGER_SYSVIEW.c ****   if (_pFirstModule != 0) {
 8687              		.loc 1 2456 0
 8688 000a 3A4B     		ldr	r3, .L482
 8689 000c 1B68     		ldr	r3, [r3]
 8690 000e 002B     		cmp	r3, #0
 8691 0010 6CD0     		beq	.L472
2457:../../../SystemView/SEGGER/SEGGER_SYSVIEW.c ****     pModule = _pFirstModule;
 8692              		.loc 1 2457 0
 8693 0012 384B     		ldr	r3, .L482
 8694 0014 1B68     		ldr	r3, [r3]
 8695 0016 FB62     		str	r3, [r7, #44]
2458:../../../SystemView/SEGGER/SEGGER_SYSVIEW.c ****     for (n = 0; n < ModuleId; n++) {
 8696              		.loc 1 2458 0
 8697 0018 0023     		movs	r3, #0
 8698 001a BB62     		str	r3, [r7, #40]
 8699 001c 09E0     		b	.L474
 8700              	.L477:
2459:../../../SystemView/SEGGER/SEGGER_SYSVIEW.c ****       pModule = pModule->pNext;
 8701              		.loc 1 2459 0
 8702 001e FB6A     		ldr	r3, [r7, #44]
 8703 0020 1B69     		ldr	r3, [r3, #16]
 8704 0022 FB62     		str	r3, [r7, #44]
2460:../../../SystemView/SEGGER/SEGGER_SYSVIEW.c ****       if (pModule == 0) {
 8705              		.loc 1 2460 0
 8706 0024 FB6A     		ldr	r3, [r7, #44]
 8707 0026 002B     		cmp	r3, #0
 8708 0028 00D1     		bne	.L475
2461:../../../SystemView/SEGGER/SEGGER_SYSVIEW.c ****         break;
 8709              		.loc 1 2461 0
 8710 002a 06E0     		b	.L476
 8711              	.L475:
2458:../../../SystemView/SEGGER/SEGGER_SYSVIEW.c ****       pModule = pModule->pNext;
 8712              		.loc 1 2458 0 discriminator 2
 8713 002c BB6A     		ldr	r3, [r7, #40]
 8714 002e 0133     		adds	r3, r3, #1
 8715 0030 BB62     		str	r3, [r7, #40]
 8716              	.L474:
2458:../../../SystemView/SEGGER/SEGGER_SYSVIEW.c ****       pModule = pModule->pNext;
 8717              		.loc 1 2458 0 is_stmt 0 discriminator 1
 8718 0032 FA79     		ldrb	r2, [r7, #7]	@ zero_extendqisi2
 8719 0034 BB6A     		ldr	r3, [r7, #40]
 8720 0036 9A42     		cmp	r2, r3
 8721 0038 F1D8     		bhi	.L477
 8722              	.L476:
2462:../../../SystemView/SEGGER/SEGGER_SYSVIEW.c ****       }
2463:../../../SystemView/SEGGER/SEGGER_SYSVIEW.c ****     }
2464:../../../SystemView/SEGGER/SEGGER_SYSVIEW.c ****     if (pModule != 0) {
 8723              		.loc 1 2464 0 is_stmt 1
 8724 003a FB6A     		ldr	r3, [r7, #44]
 8725 003c 002B     		cmp	r3, #0
 8726 003e 55D0     		beq	.L472
 8727              	.LBB142:
 8728              	.LBB143:
ARM GAS  /tmp/ccJhHFds.s 			page 196


2465:../../../SystemView/SEGGER/SEGGER_SYSVIEW.c ****       U8* pPayload;
2466:../../../SystemView/SEGGER/SEGGER_SYSVIEW.c ****       U8* pPayloadStart;
2467:../../../SystemView/SEGGER/SEGGER_SYSVIEW.c ****       RECORD_START(SEGGER_SYSVIEW_INFO_SIZE + 2 * SEGGER_SYSVIEW_QUANTA_U32 + 1 + SEGGER_SYSVIEW_MA
 8729              		.loc 1 2467 0
 8730              	@ 2467 "../../../SystemView/SEGGER/SEGGER_SYSVIEW.c" 1
 8731 0040 EFF31183 		mrs   r3, basepri  
 8732 0044 4FF02001 		mov   r1, #32       
 8733 0048 81F31188 		msr   basepri, r1  
 8734              		
 8735              	@ 0 "" 2
 8736              		.thumb
 8737 004c 7B61     		str	r3, [r7, #20]
 8738 004e 2A48     		ldr	r0, .L482+4
 8739 0050 FFF7FEFF 		bl	_PreparePacket
 8740 0054 3861     		str	r0, [r7, #16]
2468:../../../SystemView/SEGGER/SEGGER_SYSVIEW.c ****       //
2469:../../../SystemView/SEGGER/SEGGER_SYSVIEW.c ****       pPayload = pPayloadStart;
 8741              		.loc 1 2469 0
 8742 0056 3B69     		ldr	r3, [r7, #16]
 8743 0058 FB60     		str	r3, [r7, #12]
 8744              	.LBB144:
2470:../../../SystemView/SEGGER/SEGGER_SYSVIEW.c ****       //
2471:../../../SystemView/SEGGER/SEGGER_SYSVIEW.c ****       // Send module description
2472:../../../SystemView/SEGGER/SEGGER_SYSVIEW.c ****       // Send event offset and number of events
2473:../../../SystemView/SEGGER/SEGGER_SYSVIEW.c ****       //
2474:../../../SystemView/SEGGER/SEGGER_SYSVIEW.c ****       ENCODE_U32(pPayload, ModuleId);
 8745              		.loc 1 2474 0
 8746 005a FB68     		ldr	r3, [r7, #12]
 8747 005c 7B62     		str	r3, [r7, #36]
 8748 005e FB79     		ldrb	r3, [r7, #7]	@ zero_extendqisi2
 8749 0060 3B62     		str	r3, [r7, #32]
 8750 0062 0BE0     		b	.L478
 8751              	.L479:
 8752              		.loc 1 2474 0 is_stmt 0 discriminator 3
 8753 0064 7B6A     		ldr	r3, [r7, #36]
 8754 0066 5A1C     		adds	r2, r3, #1
 8755 0068 7A62     		str	r2, [r7, #36]
 8756 006a 3A6A     		ldr	r2, [r7, #32]
 8757 006c D2B2     		uxtb	r2, r2
 8758 006e 62F07F02 		orn	r2, r2, #127
 8759 0072 D2B2     		uxtb	r2, r2
 8760 0074 1A70     		strb	r2, [r3]
 8761 0076 3B6A     		ldr	r3, [r7, #32]
 8762 0078 DB09     		lsrs	r3, r3, #7
 8763 007a 3B62     		str	r3, [r7, #32]
 8764              	.L478:
 8765              		.loc 1 2474 0 discriminator 1
 8766 007c 3B6A     		ldr	r3, [r7, #32]
 8767 007e 7F2B     		cmp	r3, #127
 8768 0080 F0D8     		bhi	.L479
 8769              		.loc 1 2474 0 discriminator 4
 8770 0082 7B6A     		ldr	r3, [r7, #36]
 8771 0084 5A1C     		adds	r2, r3, #1
 8772 0086 7A62     		str	r2, [r7, #36]
 8773 0088 3A6A     		ldr	r2, [r7, #32]
 8774 008a D2B2     		uxtb	r2, r2
 8775 008c 1A70     		strb	r2, [r3]
ARM GAS  /tmp/ccJhHFds.s 			page 197


 8776 008e 7B6A     		ldr	r3, [r7, #36]
 8777 0090 FB60     		str	r3, [r7, #12]
 8778              	.LBE144:
 8779              	.LBB145:
2475:../../../SystemView/SEGGER/SEGGER_SYSVIEW.c ****       ENCODE_U32(pPayload, (pModule->EventOffset));
 8780              		.loc 1 2475 0 is_stmt 1 discriminator 4
 8781 0092 FB68     		ldr	r3, [r7, #12]
 8782 0094 FB61     		str	r3, [r7, #28]
 8783 0096 FB6A     		ldr	r3, [r7, #44]
 8784 0098 9B68     		ldr	r3, [r3, #8]
 8785 009a BB61     		str	r3, [r7, #24]
 8786 009c 0BE0     		b	.L480
 8787              	.L481:
 8788              		.loc 1 2475 0 is_stmt 0 discriminator 3
 8789 009e FB69     		ldr	r3, [r7, #28]
 8790 00a0 5A1C     		adds	r2, r3, #1
 8791 00a2 FA61     		str	r2, [r7, #28]
 8792 00a4 BA69     		ldr	r2, [r7, #24]
 8793 00a6 D2B2     		uxtb	r2, r2
 8794 00a8 62F07F02 		orn	r2, r2, #127
 8795 00ac D2B2     		uxtb	r2, r2
 8796 00ae 1A70     		strb	r2, [r3]
 8797 00b0 BB69     		ldr	r3, [r7, #24]
 8798 00b2 DB09     		lsrs	r3, r3, #7
 8799 00b4 BB61     		str	r3, [r7, #24]
 8800              	.L480:
 8801              		.loc 1 2475 0 discriminator 1
 8802 00b6 BB69     		ldr	r3, [r7, #24]
 8803 00b8 7F2B     		cmp	r3, #127
 8804 00ba F0D8     		bhi	.L481
 8805              		.loc 1 2475 0 discriminator 4
 8806 00bc FB69     		ldr	r3, [r7, #28]
 8807 00be 5A1C     		adds	r2, r3, #1
 8808 00c0 FA61     		str	r2, [r7, #28]
 8809 00c2 BA69     		ldr	r2, [r7, #24]
 8810 00c4 D2B2     		uxtb	r2, r2
 8811 00c6 1A70     		strb	r2, [r3]
 8812 00c8 FB69     		ldr	r3, [r7, #28]
 8813 00ca FB60     		str	r3, [r7, #12]
 8814              	.LBE145:
2476:../../../SystemView/SEGGER/SEGGER_SYSVIEW.c ****       pPayload = _EncodeStr(pPayload, pModule->sModule, SEGGER_SYSVIEW_MAX_STRING_LEN);
 8815              		.loc 1 2476 0 is_stmt 1 discriminator 4
 8816 00cc FB6A     		ldr	r3, [r7, #44]
 8817 00ce 1B68     		ldr	r3, [r3]
 8818 00d0 F868     		ldr	r0, [r7, #12]
 8819 00d2 1946     		mov	r1, r3
 8820 00d4 8022     		movs	r2, #128
 8821 00d6 FFF7FEFF 		bl	_EncodeStr
 8822 00da F860     		str	r0, [r7, #12]
2477:../../../SystemView/SEGGER/SEGGER_SYSVIEW.c ****       _SendPacket(pPayloadStart, pPayload, SYSVIEW_EVTID_MODULEDESC);
 8823              		.loc 1 2477 0 discriminator 4
 8824 00dc 3869     		ldr	r0, [r7, #16]
 8825 00de F968     		ldr	r1, [r7, #12]
 8826 00e0 1622     		movs	r2, #22
 8827 00e2 FFF7FEFF 		bl	_SendPacket
2478:../../../SystemView/SEGGER/SEGGER_SYSVIEW.c ****       RECORD_END();
 8828              		.loc 1 2478 0 discriminator 4
ARM GAS  /tmp/ccJhHFds.s 			page 198


 8829 00e6 7B69     		ldr	r3, [r7, #20]
 8830              	@ 2478 "../../../SystemView/SEGGER/SEGGER_SYSVIEW.c" 1
 8831 00e8 83F31188 		msr   basepri, r3  
 8832              		
 8833              	@ 0 "" 2
 8834              		.thumb
 8835              	.L472:
 8836              	.LBE143:
 8837              	.LBE142:
2479:../../../SystemView/SEGGER/SEGGER_SYSVIEW.c ****     }
2480:../../../SystemView/SEGGER/SEGGER_SYSVIEW.c ****   }
2481:../../../SystemView/SEGGER/SEGGER_SYSVIEW.c **** }
 8838              		.loc 1 2481 0
 8839 00ec 3037     		adds	r7, r7, #48
 8840              	.LCFI292:
 8841              		.cfi_def_cfa_offset 8
 8842 00ee BD46     		mov	sp, r7
 8843              	.LCFI293:
 8844              		.cfi_def_cfa_register 13
 8845              		@ sp needed
 8846 00f0 80BD     		pop	{r7, pc}
 8847              	.L483:
 8848 00f2 00BF     		.align	2
 8849              	.L482:
 8850 00f4 00000000 		.word	_pFirstModule
 8851 00f8 00000000 		.word	_aPacket
 8852              		.cfi_endproc
 8853              	.LFE57:
 8855              		.section	.text.SEGGER_SYSVIEW_SendModuleDescription,"ax",%progbits
 8856              		.align	2
 8857              		.global	SEGGER_SYSVIEW_SendModuleDescription
 8858              		.thumb
 8859              		.thumb_func
 8861              	SEGGER_SYSVIEW_SendModuleDescription:
 8862              	.LFB58:
2482:../../../SystemView/SEGGER/SEGGER_SYSVIEW.c **** 
2483:../../../SystemView/SEGGER/SEGGER_SYSVIEW.c **** /*********************************************************************
2484:../../../SystemView/SEGGER/SEGGER_SYSVIEW.c **** *
2485:../../../SystemView/SEGGER/SEGGER_SYSVIEW.c **** *       SEGGER_SYSVIEW_SendModuleDescription()
2486:../../../SystemView/SEGGER/SEGGER_SYSVIEW.c **** *
2487:../../../SystemView/SEGGER/SEGGER_SYSVIEW.c **** *  Function description
2488:../../../SystemView/SEGGER/SEGGER_SYSVIEW.c **** *    Triggers a send of the registered module descriptions.
2489:../../../SystemView/SEGGER/SEGGER_SYSVIEW.c **** *
2490:../../../SystemView/SEGGER/SEGGER_SYSVIEW.c **** */
2491:../../../SystemView/SEGGER/SEGGER_SYSVIEW.c **** void SEGGER_SYSVIEW_SendModuleDescription(void) {
 8863              		.loc 1 2491 0
 8864              		.cfi_startproc
 8865              		@ args = 0, pretend = 0, frame = 8
 8866              		@ frame_needed = 1, uses_anonymous_args = 0
 8867 0000 80B5     		push	{r7, lr}
 8868              	.LCFI294:
 8869              		.cfi_def_cfa_offset 8
 8870              		.cfi_offset 7, -8
 8871              		.cfi_offset 14, -4
 8872 0002 82B0     		sub	sp, sp, #8
 8873              	.LCFI295:
 8874              		.cfi_def_cfa_offset 16
ARM GAS  /tmp/ccJhHFds.s 			page 199


 8875 0004 00AF     		add	r7, sp, #0
 8876              	.LCFI296:
 8877              		.cfi_def_cfa_register 7
2492:../../../SystemView/SEGGER/SEGGER_SYSVIEW.c ****   SEGGER_SYSVIEW_MODULE* pModule;
2493:../../../SystemView/SEGGER/SEGGER_SYSVIEW.c **** 
2494:../../../SystemView/SEGGER/SEGGER_SYSVIEW.c ****   if (_pFirstModule != 0) {
 8878              		.loc 1 2494 0
 8879 0006 0B4B     		ldr	r3, .L488
 8880 0008 1B68     		ldr	r3, [r3]
 8881 000a 002B     		cmp	r3, #0
 8882 000c 0FD0     		beq	.L484
2495:../../../SystemView/SEGGER/SEGGER_SYSVIEW.c ****     pModule = _pFirstModule;
 8883              		.loc 1 2495 0
 8884 000e 094B     		ldr	r3, .L488
 8885 0010 1B68     		ldr	r3, [r3]
 8886 0012 7B60     		str	r3, [r7, #4]
 8887              	.L487:
2496:../../../SystemView/SEGGER/SEGGER_SYSVIEW.c ****     do {
2497:../../../SystemView/SEGGER/SEGGER_SYSVIEW.c ****       if (pModule->pfSendModuleDesc) {
 8888              		.loc 1 2497 0
 8889 0014 7B68     		ldr	r3, [r7, #4]
 8890 0016 DB68     		ldr	r3, [r3, #12]
 8891 0018 002B     		cmp	r3, #0
 8892 001a 02D0     		beq	.L486
2498:../../../SystemView/SEGGER/SEGGER_SYSVIEW.c ****         pModule->pfSendModuleDesc();
 8893              		.loc 1 2498 0
 8894 001c 7B68     		ldr	r3, [r7, #4]
 8895 001e DB68     		ldr	r3, [r3, #12]
 8896 0020 9847     		blx	r3
 8897              	.L486:
2499:../../../SystemView/SEGGER/SEGGER_SYSVIEW.c ****       }
2500:../../../SystemView/SEGGER/SEGGER_SYSVIEW.c ****       pModule = pModule->pNext;
 8898              		.loc 1 2500 0
 8899 0022 7B68     		ldr	r3, [r7, #4]
 8900 0024 1B69     		ldr	r3, [r3, #16]
 8901 0026 7B60     		str	r3, [r7, #4]
2501:../../../SystemView/SEGGER/SEGGER_SYSVIEW.c ****     } while (pModule);
 8902              		.loc 1 2501 0
 8903 0028 7B68     		ldr	r3, [r7, #4]
 8904 002a 002B     		cmp	r3, #0
 8905 002c F2D1     		bne	.L487
 8906              	.L484:
2502:../../../SystemView/SEGGER/SEGGER_SYSVIEW.c ****   }
2503:../../../SystemView/SEGGER/SEGGER_SYSVIEW.c **** }
 8907              		.loc 1 2503 0
 8908 002e 0837     		adds	r7, r7, #8
 8909              	.LCFI297:
 8910              		.cfi_def_cfa_offset 8
 8911 0030 BD46     		mov	sp, r7
 8912              	.LCFI298:
 8913              		.cfi_def_cfa_register 13
 8914              		@ sp needed
 8915 0032 80BD     		pop	{r7, pc}
 8916              	.L489:
 8917              		.align	2
 8918              	.L488:
 8919 0034 00000000 		.word	_pFirstModule
ARM GAS  /tmp/ccJhHFds.s 			page 200


 8920              		.cfi_endproc
 8921              	.LFE58:
 8923              		.section	.text.SEGGER_SYSVIEW_SendNumModules,"ax",%progbits
 8924              		.align	2
 8925              		.global	SEGGER_SYSVIEW_SendNumModules
 8926              		.thumb
 8927              		.thumb_func
 8929              	SEGGER_SYSVIEW_SendNumModules:
 8930              	.LFB59:
2504:../../../SystemView/SEGGER/SEGGER_SYSVIEW.c **** 
2505:../../../SystemView/SEGGER/SEGGER_SYSVIEW.c **** /*********************************************************************
2506:../../../SystemView/SEGGER/SEGGER_SYSVIEW.c **** *
2507:../../../SystemView/SEGGER/SEGGER_SYSVIEW.c **** *       SEGGER_SYSVIEW_SendNumModules()
2508:../../../SystemView/SEGGER/SEGGER_SYSVIEW.c **** *
2509:../../../SystemView/SEGGER/SEGGER_SYSVIEW.c **** *  Function description
2510:../../../SystemView/SEGGER/SEGGER_SYSVIEW.c **** *    Send the number of registered modules to the host.
2511:../../../SystemView/SEGGER/SEGGER_SYSVIEW.c **** */
2512:../../../SystemView/SEGGER/SEGGER_SYSVIEW.c **** void SEGGER_SYSVIEW_SendNumModules(void) {
 8931              		.loc 1 2512 0
 8932              		.cfi_startproc
 8933              		@ args = 0, pretend = 0, frame = 24
 8934              		@ frame_needed = 1, uses_anonymous_args = 0
 8935 0000 80B5     		push	{r7, lr}
 8936              	.LCFI299:
 8937              		.cfi_def_cfa_offset 8
 8938              		.cfi_offset 7, -8
 8939              		.cfi_offset 14, -4
 8940 0002 86B0     		sub	sp, sp, #24
 8941              	.LCFI300:
 8942              		.cfi_def_cfa_offset 32
 8943 0004 00AF     		add	r7, sp, #0
 8944              	.LCFI301:
 8945              		.cfi_def_cfa_register 7
 8946              	.LBB146:
2513:../../../SystemView/SEGGER/SEGGER_SYSVIEW.c ****   U8* pPayload;
2514:../../../SystemView/SEGGER/SEGGER_SYSVIEW.c ****   U8* pPayloadStart;
2515:../../../SystemView/SEGGER/SEGGER_SYSVIEW.c ****   RECORD_START(SEGGER_SYSVIEW_INFO_SIZE + 2*SEGGER_SYSVIEW_QUANTA_U32);
 8947              		.loc 1 2515 0
 8948              	@ 2515 "../../../SystemView/SEGGER/SEGGER_SYSVIEW.c" 1
 8949 0006 EFF31183 		mrs   r3, basepri  
 8950 000a 4FF02001 		mov   r1, #32       
 8951 000e 81F31188 		msr   basepri, r1  
 8952              		
 8953              	@ 0 "" 2
 8954              		.thumb
 8955 0012 FB60     		str	r3, [r7, #12]
 8956 0014 1648     		ldr	r0, .L493
 8957 0016 FFF7FEFF 		bl	_PreparePacket
 8958 001a B860     		str	r0, [r7, #8]
2516:../../../SystemView/SEGGER/SEGGER_SYSVIEW.c ****   pPayload = pPayloadStart;
 8959              		.loc 1 2516 0
 8960 001c BB68     		ldr	r3, [r7, #8]
 8961 001e 7B60     		str	r3, [r7, #4]
 8962              	.LBB147:
2517:../../../SystemView/SEGGER/SEGGER_SYSVIEW.c ****   ENCODE_U32(pPayload, _NumModules);
 8963              		.loc 1 2517 0
 8964 0020 7B68     		ldr	r3, [r7, #4]
ARM GAS  /tmp/ccJhHFds.s 			page 201


 8965 0022 7B61     		str	r3, [r7, #20]
 8966 0024 134B     		ldr	r3, .L493+4
 8967 0026 1B78     		ldrb	r3, [r3]	@ zero_extendqisi2
 8968 0028 3B61     		str	r3, [r7, #16]
 8969 002a 0BE0     		b	.L491
 8970              	.L492:
 8971              		.loc 1 2517 0 is_stmt 0 discriminator 3
 8972 002c 7B69     		ldr	r3, [r7, #20]
 8973 002e 5A1C     		adds	r2, r3, #1
 8974 0030 7A61     		str	r2, [r7, #20]
 8975 0032 3A69     		ldr	r2, [r7, #16]
 8976 0034 D2B2     		uxtb	r2, r2
 8977 0036 62F07F02 		orn	r2, r2, #127
 8978 003a D2B2     		uxtb	r2, r2
 8979 003c 1A70     		strb	r2, [r3]
 8980 003e 3B69     		ldr	r3, [r7, #16]
 8981 0040 DB09     		lsrs	r3, r3, #7
 8982 0042 3B61     		str	r3, [r7, #16]
 8983              	.L491:
 8984              		.loc 1 2517 0 discriminator 1
 8985 0044 3B69     		ldr	r3, [r7, #16]
 8986 0046 7F2B     		cmp	r3, #127
 8987 0048 F0D8     		bhi	.L492
 8988              		.loc 1 2517 0 discriminator 4
 8989 004a 7B69     		ldr	r3, [r7, #20]
 8990 004c 5A1C     		adds	r2, r3, #1
 8991 004e 7A61     		str	r2, [r7, #20]
 8992 0050 3A69     		ldr	r2, [r7, #16]
 8993 0052 D2B2     		uxtb	r2, r2
 8994 0054 1A70     		strb	r2, [r3]
 8995 0056 7B69     		ldr	r3, [r7, #20]
 8996 0058 7B60     		str	r3, [r7, #4]
 8997              	.LBE147:
2518:../../../SystemView/SEGGER/SEGGER_SYSVIEW.c ****   _SendPacket(pPayloadStart, pPayload, SYSVIEW_EVTID_NUMMODULES);
 8998              		.loc 1 2518 0 is_stmt 1 discriminator 4
 8999 005a B868     		ldr	r0, [r7, #8]
 9000 005c 7968     		ldr	r1, [r7, #4]
 9001 005e 1B22     		movs	r2, #27
 9002 0060 FFF7FEFF 		bl	_SendPacket
2519:../../../SystemView/SEGGER/SEGGER_SYSVIEW.c ****   RECORD_END();
 9003              		.loc 1 2519 0 discriminator 4
 9004 0064 FB68     		ldr	r3, [r7, #12]
 9005              	@ 2519 "../../../SystemView/SEGGER/SEGGER_SYSVIEW.c" 1
 9006 0066 83F31188 		msr   basepri, r3  
 9007              		
 9008              	@ 0 "" 2
 9009              		.thumb
 9010              	.LBE146:
2520:../../../SystemView/SEGGER/SEGGER_SYSVIEW.c **** }
 9011              		.loc 1 2520 0 discriminator 4
 9012 006a 1837     		adds	r7, r7, #24
 9013              	.LCFI302:
 9014              		.cfi_def_cfa_offset 8
 9015 006c BD46     		mov	sp, r7
 9016              	.LCFI303:
 9017              		.cfi_def_cfa_register 13
 9018              		@ sp needed
ARM GAS  /tmp/ccJhHFds.s 			page 202


 9019 006e 80BD     		pop	{r7, pc}
 9020              	.L494:
 9021              		.align	2
 9022              	.L493:
 9023 0070 00000000 		.word	_aPacket
 9024 0074 00000000 		.word	_NumModules
 9025              		.cfi_endproc
 9026              	.LFE59:
 9028              		.section	.text.SEGGER_SYSVIEW_PrintfHostEx,"ax",%progbits
 9029              		.align	2
 9030              		.global	SEGGER_SYSVIEW_PrintfHostEx
 9031              		.thumb
 9032              		.thumb_func
 9034              	SEGGER_SYSVIEW_PrintfHostEx:
 9035              	.LFB60:
2521:../../../SystemView/SEGGER/SEGGER_SYSVIEW.c **** 
2522:../../../SystemView/SEGGER/SEGGER_SYSVIEW.c **** #ifndef SEGGER_SYSVIEW_EXCLUDE_PRINTF // Define in project to avoid warnings about variable paramet
2523:../../../SystemView/SEGGER/SEGGER_SYSVIEW.c **** 
2524:../../../SystemView/SEGGER/SEGGER_SYSVIEW.c **** /*********************************************************************
2525:../../../SystemView/SEGGER/SEGGER_SYSVIEW.c **** *
2526:../../../SystemView/SEGGER/SEGGER_SYSVIEW.c **** *       SEGGER_SYSVIEW_PrintfHostEx()
2527:../../../SystemView/SEGGER/SEGGER_SYSVIEW.c **** *
2528:../../../SystemView/SEGGER/SEGGER_SYSVIEW.c **** *  Function description
2529:../../../SystemView/SEGGER/SEGGER_SYSVIEW.c **** *    Print a string which is formatted on the host by SystemViewer
2530:../../../SystemView/SEGGER/SEGGER_SYSVIEW.c **** *    with Additional information.
2531:../../../SystemView/SEGGER/SEGGER_SYSVIEW.c **** *
2532:../../../SystemView/SEGGER/SEGGER_SYSVIEW.c **** *  Parameters
2533:../../../SystemView/SEGGER/SEGGER_SYSVIEW.c **** *    s        - String to be formatted.
2534:../../../SystemView/SEGGER/SEGGER_SYSVIEW.c **** *    Options  - Options for the string. i.e. Log level.
2535:../../../SystemView/SEGGER/SEGGER_SYSVIEW.c **** *
2536:../../../SystemView/SEGGER/SEGGER_SYSVIEW.c **** *  Additional information
2537:../../../SystemView/SEGGER/SEGGER_SYSVIEW.c **** *    All format arguments are treated as 32-bit scalar values.
2538:../../../SystemView/SEGGER/SEGGER_SYSVIEW.c **** */
2539:../../../SystemView/SEGGER/SEGGER_SYSVIEW.c **** void SEGGER_SYSVIEW_PrintfHostEx(const char* s, U32 Options, ...) {
 9036              		.loc 1 2539 0
 9037              		.cfi_startproc
 9038              		@ args = 4, pretend = 12, frame = 16
 9039              		@ frame_needed = 1, uses_anonymous_args = 1
 9040 0000 0EB4     		push	{r1, r2, r3}
 9041              	.LCFI304:
 9042              		.cfi_def_cfa_offset 12
 9043              		.cfi_offset 1, -12
 9044              		.cfi_offset 2, -8
 9045              		.cfi_offset 3, -4
 9046 0002 80B5     		push	{r7, lr}
 9047              	.LCFI305:
 9048              		.cfi_def_cfa_offset 20
 9049              		.cfi_offset 7, -20
 9050              		.cfi_offset 14, -16
 9051 0004 85B0     		sub	sp, sp, #20
 9052              	.LCFI306:
 9053              		.cfi_def_cfa_offset 40
 9054 0006 00AF     		add	r7, sp, #0
 9055              	.LCFI307:
 9056              		.cfi_def_cfa_register 7
 9057 0008 7860     		str	r0, [r7, #4]
2540:../../../SystemView/SEGGER/SEGGER_SYSVIEW.c ****   va_list ParamList;
ARM GAS  /tmp/ccJhHFds.s 			page 203


2541:../../../SystemView/SEGGER/SEGGER_SYSVIEW.c **** #if SEGGER_SYSVIEW_PRINTF_IMPLICIT_FORMAT
2542:../../../SystemView/SEGGER/SEGGER_SYSVIEW.c ****   int r;
2543:../../../SystemView/SEGGER/SEGGER_SYSVIEW.c **** 
2544:../../../SystemView/SEGGER/SEGGER_SYSVIEW.c ****   va_start(ParamList, Options);
2545:../../../SystemView/SEGGER/SEGGER_SYSVIEW.c ****   r = _VPrintHost(s, Options, &ParamList);
2546:../../../SystemView/SEGGER/SEGGER_SYSVIEW.c ****   va_end(ParamList);
2547:../../../SystemView/SEGGER/SEGGER_SYSVIEW.c **** 
2548:../../../SystemView/SEGGER/SEGGER_SYSVIEW.c ****   if (r == -1) {
2549:../../../SystemView/SEGGER/SEGGER_SYSVIEW.c ****     va_start(ParamList, Options);
2550:../../../SystemView/SEGGER/SEGGER_SYSVIEW.c ****     _VPrintTarget(s, Options, &ParamList);
2551:../../../SystemView/SEGGER/SEGGER_SYSVIEW.c ****     va_end(ParamList);
2552:../../../SystemView/SEGGER/SEGGER_SYSVIEW.c ****   }
2553:../../../SystemView/SEGGER/SEGGER_SYSVIEW.c **** #else
2554:../../../SystemView/SEGGER/SEGGER_SYSVIEW.c ****   va_start(ParamList, Options);
 9058              		.loc 1 2554 0
 9059 000a 07F12003 		add	r3, r7, #32
 9060 000e FB60     		str	r3, [r7, #12]
2555:../../../SystemView/SEGGER/SEGGER_SYSVIEW.c ****   _VPrintHost(s, Options, &ParamList);
 9061              		.loc 1 2555 0
 9062 0010 07F10C03 		add	r3, r7, #12
 9063 0014 7868     		ldr	r0, [r7, #4]
 9064 0016 F969     		ldr	r1, [r7, #28]
 9065 0018 1A46     		mov	r2, r3
 9066 001a FFF7FEFF 		bl	_VPrintHost
2556:../../../SystemView/SEGGER/SEGGER_SYSVIEW.c ****   va_end(ParamList);
2557:../../../SystemView/SEGGER/SEGGER_SYSVIEW.c **** #endif
2558:../../../SystemView/SEGGER/SEGGER_SYSVIEW.c **** }
 9067              		.loc 1 2558 0
 9068 001e 1437     		adds	r7, r7, #20
 9069              	.LCFI308:
 9070              		.cfi_def_cfa_offset 20
 9071 0020 BD46     		mov	sp, r7
 9072              	.LCFI309:
 9073              		.cfi_def_cfa_register 13
 9074              		@ sp needed
 9075 0022 BDE88040 		pop	{r7, lr}
 9076              	.LCFI310:
 9077              		.cfi_restore 14
 9078              		.cfi_restore 7
 9079              		.cfi_def_cfa_offset 12
 9080 0026 03B0     		add	sp, sp, #12
 9081              	.LCFI311:
 9082              		.cfi_restore 3
 9083              		.cfi_restore 2
 9084              		.cfi_restore 1
 9085              		.cfi_def_cfa_offset 0
 9086 0028 7047     		bx	lr
 9087              		.cfi_endproc
 9088              	.LFE60:
 9090 002a 00BF     		.section	.text.SEGGER_SYSVIEW_PrintfHost,"ax",%progbits
 9091              		.align	2
 9092              		.global	SEGGER_SYSVIEW_PrintfHost
 9093              		.thumb
 9094              		.thumb_func
 9096              	SEGGER_SYSVIEW_PrintfHost:
 9097              	.LFB61:
2559:../../../SystemView/SEGGER/SEGGER_SYSVIEW.c **** 
ARM GAS  /tmp/ccJhHFds.s 			page 204


2560:../../../SystemView/SEGGER/SEGGER_SYSVIEW.c **** /*********************************************************************
2561:../../../SystemView/SEGGER/SEGGER_SYSVIEW.c **** *
2562:../../../SystemView/SEGGER/SEGGER_SYSVIEW.c **** *       SEGGER_SYSVIEW_PrintfHost()
2563:../../../SystemView/SEGGER/SEGGER_SYSVIEW.c **** *
2564:../../../SystemView/SEGGER/SEGGER_SYSVIEW.c **** *  Function description
2565:../../../SystemView/SEGGER/SEGGER_SYSVIEW.c **** *    Print a string which is formatted on the host by SystemViewer.
2566:../../../SystemView/SEGGER/SEGGER_SYSVIEW.c **** *
2567:../../../SystemView/SEGGER/SEGGER_SYSVIEW.c **** *  Parameters
2568:../../../SystemView/SEGGER/SEGGER_SYSVIEW.c **** *    s        - String to be formatted.
2569:../../../SystemView/SEGGER/SEGGER_SYSVIEW.c **** *
2570:../../../SystemView/SEGGER/SEGGER_SYSVIEW.c **** *  Additional information
2571:../../../SystemView/SEGGER/SEGGER_SYSVIEW.c **** *    All format arguments are treated as 32-bit scalar values.
2572:../../../SystemView/SEGGER/SEGGER_SYSVIEW.c **** */
2573:../../../SystemView/SEGGER/SEGGER_SYSVIEW.c **** void SEGGER_SYSVIEW_PrintfHost(const char* s, ...) {
 9098              		.loc 1 2573 0
 9099              		.cfi_startproc
 9100              		@ args = 4, pretend = 16, frame = 8
 9101              		@ frame_needed = 1, uses_anonymous_args = 1
 9102 0000 0FB4     		push	{r0, r1, r2, r3}
 9103              	.LCFI312:
 9104              		.cfi_def_cfa_offset 16
 9105              		.cfi_offset 0, -16
 9106              		.cfi_offset 1, -12
 9107              		.cfi_offset 2, -8
 9108              		.cfi_offset 3, -4
 9109 0002 80B5     		push	{r7, lr}
 9110              	.LCFI313:
 9111              		.cfi_def_cfa_offset 24
 9112              		.cfi_offset 7, -24
 9113              		.cfi_offset 14, -20
 9114 0004 82B0     		sub	sp, sp, #8
 9115              	.LCFI314:
 9116              		.cfi_def_cfa_offset 32
 9117 0006 00AF     		add	r7, sp, #0
 9118              	.LCFI315:
 9119              		.cfi_def_cfa_register 7
2574:../../../SystemView/SEGGER/SEGGER_SYSVIEW.c ****   va_list ParamList;
2575:../../../SystemView/SEGGER/SEGGER_SYSVIEW.c **** #if SEGGER_SYSVIEW_PRINTF_IMPLICIT_FORMAT
2576:../../../SystemView/SEGGER/SEGGER_SYSVIEW.c ****   int r;
2577:../../../SystemView/SEGGER/SEGGER_SYSVIEW.c **** 
2578:../../../SystemView/SEGGER/SEGGER_SYSVIEW.c ****   va_start(ParamList, s);
2579:../../../SystemView/SEGGER/SEGGER_SYSVIEW.c ****   r = _VPrintHost(s, SEGGER_SYSVIEW_LOG, &ParamList);
2580:../../../SystemView/SEGGER/SEGGER_SYSVIEW.c ****   va_end(ParamList);
2581:../../../SystemView/SEGGER/SEGGER_SYSVIEW.c **** 
2582:../../../SystemView/SEGGER/SEGGER_SYSVIEW.c ****   if (r == -1) {
2583:../../../SystemView/SEGGER/SEGGER_SYSVIEW.c ****     va_start(ParamList, s);
2584:../../../SystemView/SEGGER/SEGGER_SYSVIEW.c ****     _VPrintTarget(s, SEGGER_SYSVIEW_LOG, &ParamList);
2585:../../../SystemView/SEGGER/SEGGER_SYSVIEW.c ****     va_end(ParamList);
2586:../../../SystemView/SEGGER/SEGGER_SYSVIEW.c ****   }
2587:../../../SystemView/SEGGER/SEGGER_SYSVIEW.c **** #else
2588:../../../SystemView/SEGGER/SEGGER_SYSVIEW.c ****   va_start(ParamList, s);
 9120              		.loc 1 2588 0
 9121 0008 07F11403 		add	r3, r7, #20
 9122 000c 7B60     		str	r3, [r7, #4]
2589:../../../SystemView/SEGGER/SEGGER_SYSVIEW.c ****   _VPrintHost(s, SEGGER_SYSVIEW_LOG, &ParamList);
 9123              		.loc 1 2589 0
 9124 000e 3B1D     		adds	r3, r7, #4
ARM GAS  /tmp/ccJhHFds.s 			page 205


 9125 0010 3869     		ldr	r0, [r7, #16]
 9126 0012 0021     		movs	r1, #0
 9127 0014 1A46     		mov	r2, r3
 9128 0016 FFF7FEFF 		bl	_VPrintHost
2590:../../../SystemView/SEGGER/SEGGER_SYSVIEW.c ****   va_end(ParamList);
2591:../../../SystemView/SEGGER/SEGGER_SYSVIEW.c **** #endif
2592:../../../SystemView/SEGGER/SEGGER_SYSVIEW.c **** }
 9129              		.loc 1 2592 0
 9130 001a 0837     		adds	r7, r7, #8
 9131              	.LCFI316:
 9132              		.cfi_def_cfa_offset 24
 9133 001c BD46     		mov	sp, r7
 9134              	.LCFI317:
 9135              		.cfi_def_cfa_register 13
 9136              		@ sp needed
 9137 001e BDE88040 		pop	{r7, lr}
 9138              	.LCFI318:
 9139              		.cfi_restore 14
 9140              		.cfi_restore 7
 9141              		.cfi_def_cfa_offset 16
 9142 0022 04B0     		add	sp, sp, #16
 9143              	.LCFI319:
 9144              		.cfi_restore 3
 9145              		.cfi_restore 2
 9146              		.cfi_restore 1
 9147              		.cfi_restore 0
 9148              		.cfi_def_cfa_offset 0
 9149 0024 7047     		bx	lr
 9150              		.cfi_endproc
 9151              	.LFE61:
 9153 0026 00BF     		.section	.text.SEGGER_SYSVIEW_WarnfHost,"ax",%progbits
 9154              		.align	2
 9155              		.global	SEGGER_SYSVIEW_WarnfHost
 9156              		.thumb
 9157              		.thumb_func
 9159              	SEGGER_SYSVIEW_WarnfHost:
 9160              	.LFB62:
2593:../../../SystemView/SEGGER/SEGGER_SYSVIEW.c **** 
2594:../../../SystemView/SEGGER/SEGGER_SYSVIEW.c **** /*********************************************************************
2595:../../../SystemView/SEGGER/SEGGER_SYSVIEW.c **** *
2596:../../../SystemView/SEGGER/SEGGER_SYSVIEW.c **** *       SEGGER_SYSVIEW_WarnfHost()
2597:../../../SystemView/SEGGER/SEGGER_SYSVIEW.c **** *
2598:../../../SystemView/SEGGER/SEGGER_SYSVIEW.c **** *  Function description
2599:../../../SystemView/SEGGER/SEGGER_SYSVIEW.c **** *    Print a warnin string which is formatted on the host by 
2600:../../../SystemView/SEGGER/SEGGER_SYSVIEW.c **** *    SystemViewer.
2601:../../../SystemView/SEGGER/SEGGER_SYSVIEW.c **** *
2602:../../../SystemView/SEGGER/SEGGER_SYSVIEW.c **** *  Parameters
2603:../../../SystemView/SEGGER/SEGGER_SYSVIEW.c **** *    s        - String to be formatted.
2604:../../../SystemView/SEGGER/SEGGER_SYSVIEW.c **** *
2605:../../../SystemView/SEGGER/SEGGER_SYSVIEW.c **** *  Additional information
2606:../../../SystemView/SEGGER/SEGGER_SYSVIEW.c **** *    All format arguments are treated as 32-bit scalar values.
2607:../../../SystemView/SEGGER/SEGGER_SYSVIEW.c **** */
2608:../../../SystemView/SEGGER/SEGGER_SYSVIEW.c **** void SEGGER_SYSVIEW_WarnfHost(const char* s, ...) {
 9161              		.loc 1 2608 0
 9162              		.cfi_startproc
 9163              		@ args = 4, pretend = 16, frame = 8
 9164              		@ frame_needed = 1, uses_anonymous_args = 1
ARM GAS  /tmp/ccJhHFds.s 			page 206


 9165 0000 0FB4     		push	{r0, r1, r2, r3}
 9166              	.LCFI320:
 9167              		.cfi_def_cfa_offset 16
 9168              		.cfi_offset 0, -16
 9169              		.cfi_offset 1, -12
 9170              		.cfi_offset 2, -8
 9171              		.cfi_offset 3, -4
 9172 0002 80B5     		push	{r7, lr}
 9173              	.LCFI321:
 9174              		.cfi_def_cfa_offset 24
 9175              		.cfi_offset 7, -24
 9176              		.cfi_offset 14, -20
 9177 0004 82B0     		sub	sp, sp, #8
 9178              	.LCFI322:
 9179              		.cfi_def_cfa_offset 32
 9180 0006 00AF     		add	r7, sp, #0
 9181              	.LCFI323:
 9182              		.cfi_def_cfa_register 7
2609:../../../SystemView/SEGGER/SEGGER_SYSVIEW.c ****   va_list ParamList;
2610:../../../SystemView/SEGGER/SEGGER_SYSVIEW.c **** #if SEGGER_SYSVIEW_PRINTF_IMPLICIT_FORMAT
2611:../../../SystemView/SEGGER/SEGGER_SYSVIEW.c ****   int r;
2612:../../../SystemView/SEGGER/SEGGER_SYSVIEW.c **** 
2613:../../../SystemView/SEGGER/SEGGER_SYSVIEW.c ****   va_start(ParamList, s);
2614:../../../SystemView/SEGGER/SEGGER_SYSVIEW.c ****   r = _VPrintHost(s, SEGGER_SYSVIEW_WARNING, &ParamList);
2615:../../../SystemView/SEGGER/SEGGER_SYSVIEW.c ****   va_end(ParamList);
2616:../../../SystemView/SEGGER/SEGGER_SYSVIEW.c **** 
2617:../../../SystemView/SEGGER/SEGGER_SYSVIEW.c ****   if (r == -1) {
2618:../../../SystemView/SEGGER/SEGGER_SYSVIEW.c ****     va_start(ParamList, s);
2619:../../../SystemView/SEGGER/SEGGER_SYSVIEW.c ****     _VPrintTarget(s, SEGGER_SYSVIEW_WARNING, &ParamList);
2620:../../../SystemView/SEGGER/SEGGER_SYSVIEW.c ****     va_end(ParamList);
2621:../../../SystemView/SEGGER/SEGGER_SYSVIEW.c ****   }
2622:../../../SystemView/SEGGER/SEGGER_SYSVIEW.c **** #else
2623:../../../SystemView/SEGGER/SEGGER_SYSVIEW.c ****   va_start(ParamList, s);
 9183              		.loc 1 2623 0
 9184 0008 07F11403 		add	r3, r7, #20
 9185 000c 7B60     		str	r3, [r7, #4]
2624:../../../SystemView/SEGGER/SEGGER_SYSVIEW.c ****   _VPrintHost(s, SEGGER_SYSVIEW_WARNING, &ParamList);
 9186              		.loc 1 2624 0
 9187 000e 3B1D     		adds	r3, r7, #4
 9188 0010 3869     		ldr	r0, [r7, #16]
 9189 0012 0121     		movs	r1, #1
 9190 0014 1A46     		mov	r2, r3
 9191 0016 FFF7FEFF 		bl	_VPrintHost
2625:../../../SystemView/SEGGER/SEGGER_SYSVIEW.c ****   va_end(ParamList);
2626:../../../SystemView/SEGGER/SEGGER_SYSVIEW.c **** #endif
2627:../../../SystemView/SEGGER/SEGGER_SYSVIEW.c **** }
 9192              		.loc 1 2627 0
 9193 001a 0837     		adds	r7, r7, #8
 9194              	.LCFI324:
 9195              		.cfi_def_cfa_offset 24
 9196 001c BD46     		mov	sp, r7
 9197              	.LCFI325:
 9198              		.cfi_def_cfa_register 13
 9199              		@ sp needed
 9200 001e BDE88040 		pop	{r7, lr}
 9201              	.LCFI326:
 9202              		.cfi_restore 14
ARM GAS  /tmp/ccJhHFds.s 			page 207


 9203              		.cfi_restore 7
 9204              		.cfi_def_cfa_offset 16
 9205 0022 04B0     		add	sp, sp, #16
 9206              	.LCFI327:
 9207              		.cfi_restore 3
 9208              		.cfi_restore 2
 9209              		.cfi_restore 1
 9210              		.cfi_restore 0
 9211              		.cfi_def_cfa_offset 0
 9212 0024 7047     		bx	lr
 9213              		.cfi_endproc
 9214              	.LFE62:
 9216 0026 00BF     		.section	.text.SEGGER_SYSVIEW_ErrorfHost,"ax",%progbits
 9217              		.align	2
 9218              		.global	SEGGER_SYSVIEW_ErrorfHost
 9219              		.thumb
 9220              		.thumb_func
 9222              	SEGGER_SYSVIEW_ErrorfHost:
 9223              	.LFB63:
2628:../../../SystemView/SEGGER/SEGGER_SYSVIEW.c **** 
2629:../../../SystemView/SEGGER/SEGGER_SYSVIEW.c **** /*********************************************************************
2630:../../../SystemView/SEGGER/SEGGER_SYSVIEW.c **** *
2631:../../../SystemView/SEGGER/SEGGER_SYSVIEW.c **** *       SEGGER_SYSVIEW_ErrorfHost()
2632:../../../SystemView/SEGGER/SEGGER_SYSVIEW.c **** *
2633:../../../SystemView/SEGGER/SEGGER_SYSVIEW.c **** *  Function description
2634:../../../SystemView/SEGGER/SEGGER_SYSVIEW.c **** *    Print an error string which is formatted on the host by 
2635:../../../SystemView/SEGGER/SEGGER_SYSVIEW.c **** *    SystemViewer.
2636:../../../SystemView/SEGGER/SEGGER_SYSVIEW.c **** *
2637:../../../SystemView/SEGGER/SEGGER_SYSVIEW.c **** *  Parameters
2638:../../../SystemView/SEGGER/SEGGER_SYSVIEW.c **** *    s        - String to be formatted.
2639:../../../SystemView/SEGGER/SEGGER_SYSVIEW.c **** *
2640:../../../SystemView/SEGGER/SEGGER_SYSVIEW.c **** *  Additional information
2641:../../../SystemView/SEGGER/SEGGER_SYSVIEW.c **** *    All format arguments are treated as 32-bit scalar values.
2642:../../../SystemView/SEGGER/SEGGER_SYSVIEW.c **** */
2643:../../../SystemView/SEGGER/SEGGER_SYSVIEW.c **** void SEGGER_SYSVIEW_ErrorfHost(const char* s, ...) {
 9224              		.loc 1 2643 0
 9225              		.cfi_startproc
 9226              		@ args = 4, pretend = 16, frame = 8
 9227              		@ frame_needed = 1, uses_anonymous_args = 1
 9228 0000 0FB4     		push	{r0, r1, r2, r3}
 9229              	.LCFI328:
 9230              		.cfi_def_cfa_offset 16
 9231              		.cfi_offset 0, -16
 9232              		.cfi_offset 1, -12
 9233              		.cfi_offset 2, -8
 9234              		.cfi_offset 3, -4
 9235 0002 80B5     		push	{r7, lr}
 9236              	.LCFI329:
 9237              		.cfi_def_cfa_offset 24
 9238              		.cfi_offset 7, -24
 9239              		.cfi_offset 14, -20
 9240 0004 82B0     		sub	sp, sp, #8
 9241              	.LCFI330:
 9242              		.cfi_def_cfa_offset 32
 9243 0006 00AF     		add	r7, sp, #0
 9244              	.LCFI331:
 9245              		.cfi_def_cfa_register 7
ARM GAS  /tmp/ccJhHFds.s 			page 208


2644:../../../SystemView/SEGGER/SEGGER_SYSVIEW.c ****   va_list ParamList;
2645:../../../SystemView/SEGGER/SEGGER_SYSVIEW.c **** #if SEGGER_SYSVIEW_PRINTF_IMPLICIT_FORMAT
2646:../../../SystemView/SEGGER/SEGGER_SYSVIEW.c ****   int r;
2647:../../../SystemView/SEGGER/SEGGER_SYSVIEW.c **** 
2648:../../../SystemView/SEGGER/SEGGER_SYSVIEW.c ****   va_start(ParamList, s);
2649:../../../SystemView/SEGGER/SEGGER_SYSVIEW.c ****   r = _VPrintHost(s, SEGGER_SYSVIEW_ERROR, &ParamList);
2650:../../../SystemView/SEGGER/SEGGER_SYSVIEW.c ****   va_end(ParamList);
2651:../../../SystemView/SEGGER/SEGGER_SYSVIEW.c **** 
2652:../../../SystemView/SEGGER/SEGGER_SYSVIEW.c ****   if (r == -1) {
2653:../../../SystemView/SEGGER/SEGGER_SYSVIEW.c ****     va_start(ParamList, s);
2654:../../../SystemView/SEGGER/SEGGER_SYSVIEW.c ****     _VPrintTarget(s, SEGGER_SYSVIEW_ERROR, &ParamList);
2655:../../../SystemView/SEGGER/SEGGER_SYSVIEW.c ****     va_end(ParamList);
2656:../../../SystemView/SEGGER/SEGGER_SYSVIEW.c ****   }
2657:../../../SystemView/SEGGER/SEGGER_SYSVIEW.c **** #else
2658:../../../SystemView/SEGGER/SEGGER_SYSVIEW.c ****   va_start(ParamList, s);
 9246              		.loc 1 2658 0
 9247 0008 07F11403 		add	r3, r7, #20
 9248 000c 7B60     		str	r3, [r7, #4]
2659:../../../SystemView/SEGGER/SEGGER_SYSVIEW.c ****   _VPrintHost(s, SEGGER_SYSVIEW_ERROR, &ParamList);
 9249              		.loc 1 2659 0
 9250 000e 3B1D     		adds	r3, r7, #4
 9251 0010 3869     		ldr	r0, [r7, #16]
 9252 0012 0221     		movs	r1, #2
 9253 0014 1A46     		mov	r2, r3
 9254 0016 FFF7FEFF 		bl	_VPrintHost
2660:../../../SystemView/SEGGER/SEGGER_SYSVIEW.c ****   va_end(ParamList);
2661:../../../SystemView/SEGGER/SEGGER_SYSVIEW.c **** #endif
2662:../../../SystemView/SEGGER/SEGGER_SYSVIEW.c **** }
 9255              		.loc 1 2662 0
 9256 001a 0837     		adds	r7, r7, #8
 9257              	.LCFI332:
 9258              		.cfi_def_cfa_offset 24
 9259 001c BD46     		mov	sp, r7
 9260              	.LCFI333:
 9261              		.cfi_def_cfa_register 13
 9262              		@ sp needed
 9263 001e BDE88040 		pop	{r7, lr}
 9264              	.LCFI334:
 9265              		.cfi_restore 14
 9266              		.cfi_restore 7
 9267              		.cfi_def_cfa_offset 16
 9268 0022 04B0     		add	sp, sp, #16
 9269              	.LCFI335:
 9270              		.cfi_restore 3
 9271              		.cfi_restore 2
 9272              		.cfi_restore 1
 9273              		.cfi_restore 0
 9274              		.cfi_def_cfa_offset 0
 9275 0024 7047     		bx	lr
 9276              		.cfi_endproc
 9277              	.LFE63:
 9279 0026 00BF     		.section	.text.SEGGER_SYSVIEW_PrintfTargetEx,"ax",%progbits
 9280              		.align	2
 9281              		.global	SEGGER_SYSVIEW_PrintfTargetEx
 9282              		.thumb
 9283              		.thumb_func
 9285              	SEGGER_SYSVIEW_PrintfTargetEx:
ARM GAS  /tmp/ccJhHFds.s 			page 209


 9286              	.LFB64:
2663:../../../SystemView/SEGGER/SEGGER_SYSVIEW.c **** 
2664:../../../SystemView/SEGGER/SEGGER_SYSVIEW.c **** /*********************************************************************
2665:../../../SystemView/SEGGER/SEGGER_SYSVIEW.c **** *
2666:../../../SystemView/SEGGER/SEGGER_SYSVIEW.c **** *       SEGGER_SYSVIEW_PrintfTargetEx()
2667:../../../SystemView/SEGGER/SEGGER_SYSVIEW.c **** *
2668:../../../SystemView/SEGGER/SEGGER_SYSVIEW.c **** *  Function description
2669:../../../SystemView/SEGGER/SEGGER_SYSVIEW.c **** *    Print a string which is formatted on the target before sent to 
2670:../../../SystemView/SEGGER/SEGGER_SYSVIEW.c **** *    the host with Additional information.
2671:../../../SystemView/SEGGER/SEGGER_SYSVIEW.c **** *
2672:../../../SystemView/SEGGER/SEGGER_SYSVIEW.c **** *  Parameters
2673:../../../SystemView/SEGGER/SEGGER_SYSVIEW.c **** *    s        - String to be formatted.
2674:../../../SystemView/SEGGER/SEGGER_SYSVIEW.c **** *    Options  - Options for the string. i.e. Log level.
2675:../../../SystemView/SEGGER/SEGGER_SYSVIEW.c **** */
2676:../../../SystemView/SEGGER/SEGGER_SYSVIEW.c **** void SEGGER_SYSVIEW_PrintfTargetEx(const char* s, U32 Options, ...) {
 9287              		.loc 1 2676 0
 9288              		.cfi_startproc
 9289              		@ args = 4, pretend = 12, frame = 16
 9290              		@ frame_needed = 1, uses_anonymous_args = 1
 9291 0000 0EB4     		push	{r1, r2, r3}
 9292              	.LCFI336:
 9293              		.cfi_def_cfa_offset 12
 9294              		.cfi_offset 1, -12
 9295              		.cfi_offset 2, -8
 9296              		.cfi_offset 3, -4
 9297 0002 80B5     		push	{r7, lr}
 9298              	.LCFI337:
 9299              		.cfi_def_cfa_offset 20
 9300              		.cfi_offset 7, -20
 9301              		.cfi_offset 14, -16
 9302 0004 85B0     		sub	sp, sp, #20
 9303              	.LCFI338:
 9304              		.cfi_def_cfa_offset 40
 9305 0006 00AF     		add	r7, sp, #0
 9306              	.LCFI339:
 9307              		.cfi_def_cfa_register 7
 9308 0008 7860     		str	r0, [r7, #4]
2677:../../../SystemView/SEGGER/SEGGER_SYSVIEW.c ****   va_list ParamList;
2678:../../../SystemView/SEGGER/SEGGER_SYSVIEW.c **** 
2679:../../../SystemView/SEGGER/SEGGER_SYSVIEW.c ****   va_start(ParamList, Options);
 9309              		.loc 1 2679 0
 9310 000a 07F12003 		add	r3, r7, #32
 9311 000e FB60     		str	r3, [r7, #12]
2680:../../../SystemView/SEGGER/SEGGER_SYSVIEW.c ****   _VPrintTarget(s, Options, &ParamList);
 9312              		.loc 1 2680 0
 9313 0010 07F10C03 		add	r3, r7, #12
 9314 0014 7868     		ldr	r0, [r7, #4]
 9315 0016 F969     		ldr	r1, [r7, #28]
 9316 0018 1A46     		mov	r2, r3
 9317 001a FFF7FEFF 		bl	_VPrintTarget
2681:../../../SystemView/SEGGER/SEGGER_SYSVIEW.c ****   va_end(ParamList);
2682:../../../SystemView/SEGGER/SEGGER_SYSVIEW.c **** }
 9318              		.loc 1 2682 0
 9319 001e 1437     		adds	r7, r7, #20
 9320              	.LCFI340:
 9321              		.cfi_def_cfa_offset 20
 9322 0020 BD46     		mov	sp, r7
ARM GAS  /tmp/ccJhHFds.s 			page 210


 9323              	.LCFI341:
 9324              		.cfi_def_cfa_register 13
 9325              		@ sp needed
 9326 0022 BDE88040 		pop	{r7, lr}
 9327              	.LCFI342:
 9328              		.cfi_restore 14
 9329              		.cfi_restore 7
 9330              		.cfi_def_cfa_offset 12
 9331 0026 03B0     		add	sp, sp, #12
 9332              	.LCFI343:
 9333              		.cfi_restore 3
 9334              		.cfi_restore 2
 9335              		.cfi_restore 1
 9336              		.cfi_def_cfa_offset 0
 9337 0028 7047     		bx	lr
 9338              		.cfi_endproc
 9339              	.LFE64:
 9341 002a 00BF     		.section	.text.SEGGER_SYSVIEW_PrintfTarget,"ax",%progbits
 9342              		.align	2
 9343              		.global	SEGGER_SYSVIEW_PrintfTarget
 9344              		.thumb
 9345              		.thumb_func
 9347              	SEGGER_SYSVIEW_PrintfTarget:
 9348              	.LFB65:
2683:../../../SystemView/SEGGER/SEGGER_SYSVIEW.c **** 
2684:../../../SystemView/SEGGER/SEGGER_SYSVIEW.c **** /*********************************************************************
2685:../../../SystemView/SEGGER/SEGGER_SYSVIEW.c **** *
2686:../../../SystemView/SEGGER/SEGGER_SYSVIEW.c **** *       SEGGER_SYSVIEW_PrintfTarget()
2687:../../../SystemView/SEGGER/SEGGER_SYSVIEW.c **** *
2688:../../../SystemView/SEGGER/SEGGER_SYSVIEW.c **** *  Function description
2689:../../../SystemView/SEGGER/SEGGER_SYSVIEW.c **** *    Print a string which is formatted on the target before sent to 
2690:../../../SystemView/SEGGER/SEGGER_SYSVIEW.c **** *    the host.
2691:../../../SystemView/SEGGER/SEGGER_SYSVIEW.c **** *
2692:../../../SystemView/SEGGER/SEGGER_SYSVIEW.c **** *  Parameters
2693:../../../SystemView/SEGGER/SEGGER_SYSVIEW.c **** *    s        - String to be formatted.
2694:../../../SystemView/SEGGER/SEGGER_SYSVIEW.c **** */
2695:../../../SystemView/SEGGER/SEGGER_SYSVIEW.c **** void SEGGER_SYSVIEW_PrintfTarget(const char* s, ...) {
 9349              		.loc 1 2695 0
 9350              		.cfi_startproc
 9351              		@ args = 4, pretend = 16, frame = 8
 9352              		@ frame_needed = 1, uses_anonymous_args = 1
 9353 0000 0FB4     		push	{r0, r1, r2, r3}
 9354              	.LCFI344:
 9355              		.cfi_def_cfa_offset 16
 9356              		.cfi_offset 0, -16
 9357              		.cfi_offset 1, -12
 9358              		.cfi_offset 2, -8
 9359              		.cfi_offset 3, -4
 9360 0002 80B5     		push	{r7, lr}
 9361              	.LCFI345:
 9362              		.cfi_def_cfa_offset 24
 9363              		.cfi_offset 7, -24
 9364              		.cfi_offset 14, -20
 9365 0004 82B0     		sub	sp, sp, #8
 9366              	.LCFI346:
 9367              		.cfi_def_cfa_offset 32
 9368 0006 00AF     		add	r7, sp, #0
ARM GAS  /tmp/ccJhHFds.s 			page 211


 9369              	.LCFI347:
 9370              		.cfi_def_cfa_register 7
2696:../../../SystemView/SEGGER/SEGGER_SYSVIEW.c ****   va_list ParamList;
2697:../../../SystemView/SEGGER/SEGGER_SYSVIEW.c **** 
2698:../../../SystemView/SEGGER/SEGGER_SYSVIEW.c ****   va_start(ParamList, s);
 9371              		.loc 1 2698 0
 9372 0008 07F11403 		add	r3, r7, #20
 9373 000c 7B60     		str	r3, [r7, #4]
2699:../../../SystemView/SEGGER/SEGGER_SYSVIEW.c ****   _VPrintTarget(s, SEGGER_SYSVIEW_LOG, &ParamList);
 9374              		.loc 1 2699 0
 9375 000e 3B1D     		adds	r3, r7, #4
 9376 0010 3869     		ldr	r0, [r7, #16]
 9377 0012 0021     		movs	r1, #0
 9378 0014 1A46     		mov	r2, r3
 9379 0016 FFF7FEFF 		bl	_VPrintTarget
2700:../../../SystemView/SEGGER/SEGGER_SYSVIEW.c ****   va_end(ParamList);
2701:../../../SystemView/SEGGER/SEGGER_SYSVIEW.c **** }
 9380              		.loc 1 2701 0
 9381 001a 0837     		adds	r7, r7, #8
 9382              	.LCFI348:
 9383              		.cfi_def_cfa_offset 24
 9384 001c BD46     		mov	sp, r7
 9385              	.LCFI349:
 9386              		.cfi_def_cfa_register 13
 9387              		@ sp needed
 9388 001e BDE88040 		pop	{r7, lr}
 9389              	.LCFI350:
 9390              		.cfi_restore 14
 9391              		.cfi_restore 7
 9392              		.cfi_def_cfa_offset 16
 9393 0022 04B0     		add	sp, sp, #16
 9394              	.LCFI351:
 9395              		.cfi_restore 3
 9396              		.cfi_restore 2
 9397              		.cfi_restore 1
 9398              		.cfi_restore 0
 9399              		.cfi_def_cfa_offset 0
 9400 0024 7047     		bx	lr
 9401              		.cfi_endproc
 9402              	.LFE65:
 9404 0026 00BF     		.section	.text.SEGGER_SYSVIEW_WarnfTarget,"ax",%progbits
 9405              		.align	2
 9406              		.global	SEGGER_SYSVIEW_WarnfTarget
 9407              		.thumb
 9408              		.thumb_func
 9410              	SEGGER_SYSVIEW_WarnfTarget:
 9411              	.LFB66:
2702:../../../SystemView/SEGGER/SEGGER_SYSVIEW.c **** 
2703:../../../SystemView/SEGGER/SEGGER_SYSVIEW.c **** /*********************************************************************
2704:../../../SystemView/SEGGER/SEGGER_SYSVIEW.c **** *
2705:../../../SystemView/SEGGER/SEGGER_SYSVIEW.c **** *       SEGGER_SYSVIEW_WarnfTarget()
2706:../../../SystemView/SEGGER/SEGGER_SYSVIEW.c **** *
2707:../../../SystemView/SEGGER/SEGGER_SYSVIEW.c **** *  Function description
2708:../../../SystemView/SEGGER/SEGGER_SYSVIEW.c **** *    Print a warning string which is formatted on the target before
2709:../../../SystemView/SEGGER/SEGGER_SYSVIEW.c **** *    sent to the host.
2710:../../../SystemView/SEGGER/SEGGER_SYSVIEW.c **** *
2711:../../../SystemView/SEGGER/SEGGER_SYSVIEW.c **** *  Parameters
ARM GAS  /tmp/ccJhHFds.s 			page 212


2712:../../../SystemView/SEGGER/SEGGER_SYSVIEW.c **** *    s        - String to be formatted.
2713:../../../SystemView/SEGGER/SEGGER_SYSVIEW.c **** */
2714:../../../SystemView/SEGGER/SEGGER_SYSVIEW.c **** void SEGGER_SYSVIEW_WarnfTarget(const char* s, ...) {
 9412              		.loc 1 2714 0
 9413              		.cfi_startproc
 9414              		@ args = 4, pretend = 16, frame = 8
 9415              		@ frame_needed = 1, uses_anonymous_args = 1
 9416 0000 0FB4     		push	{r0, r1, r2, r3}
 9417              	.LCFI352:
 9418              		.cfi_def_cfa_offset 16
 9419              		.cfi_offset 0, -16
 9420              		.cfi_offset 1, -12
 9421              		.cfi_offset 2, -8
 9422              		.cfi_offset 3, -4
 9423 0002 80B5     		push	{r7, lr}
 9424              	.LCFI353:
 9425              		.cfi_def_cfa_offset 24
 9426              		.cfi_offset 7, -24
 9427              		.cfi_offset 14, -20
 9428 0004 82B0     		sub	sp, sp, #8
 9429              	.LCFI354:
 9430              		.cfi_def_cfa_offset 32
 9431 0006 00AF     		add	r7, sp, #0
 9432              	.LCFI355:
 9433              		.cfi_def_cfa_register 7
2715:../../../SystemView/SEGGER/SEGGER_SYSVIEW.c ****   va_list ParamList;
2716:../../../SystemView/SEGGER/SEGGER_SYSVIEW.c **** 
2717:../../../SystemView/SEGGER/SEGGER_SYSVIEW.c ****   va_start(ParamList, s);
 9434              		.loc 1 2717 0
 9435 0008 07F11403 		add	r3, r7, #20
 9436 000c 7B60     		str	r3, [r7, #4]
2718:../../../SystemView/SEGGER/SEGGER_SYSVIEW.c ****   _VPrintTarget(s, SEGGER_SYSVIEW_WARNING, &ParamList);
 9437              		.loc 1 2718 0
 9438 000e 3B1D     		adds	r3, r7, #4
 9439 0010 3869     		ldr	r0, [r7, #16]
 9440 0012 0121     		movs	r1, #1
 9441 0014 1A46     		mov	r2, r3
 9442 0016 FFF7FEFF 		bl	_VPrintTarget
2719:../../../SystemView/SEGGER/SEGGER_SYSVIEW.c ****   va_end(ParamList);
2720:../../../SystemView/SEGGER/SEGGER_SYSVIEW.c **** }
 9443              		.loc 1 2720 0
 9444 001a 0837     		adds	r7, r7, #8
 9445              	.LCFI356:
 9446              		.cfi_def_cfa_offset 24
 9447 001c BD46     		mov	sp, r7
 9448              	.LCFI357:
 9449              		.cfi_def_cfa_register 13
 9450              		@ sp needed
 9451 001e BDE88040 		pop	{r7, lr}
 9452              	.LCFI358:
 9453              		.cfi_restore 14
 9454              		.cfi_restore 7
 9455              		.cfi_def_cfa_offset 16
 9456 0022 04B0     		add	sp, sp, #16
 9457              	.LCFI359:
 9458              		.cfi_restore 3
 9459              		.cfi_restore 2
ARM GAS  /tmp/ccJhHFds.s 			page 213


 9460              		.cfi_restore 1
 9461              		.cfi_restore 0
 9462              		.cfi_def_cfa_offset 0
 9463 0024 7047     		bx	lr
 9464              		.cfi_endproc
 9465              	.LFE66:
 9467 0026 00BF     		.section	.text.SEGGER_SYSVIEW_ErrorfTarget,"ax",%progbits
 9468              		.align	2
 9469              		.global	SEGGER_SYSVIEW_ErrorfTarget
 9470              		.thumb
 9471              		.thumb_func
 9473              	SEGGER_SYSVIEW_ErrorfTarget:
 9474              	.LFB67:
2721:../../../SystemView/SEGGER/SEGGER_SYSVIEW.c **** 
2722:../../../SystemView/SEGGER/SEGGER_SYSVIEW.c **** /*********************************************************************
2723:../../../SystemView/SEGGER/SEGGER_SYSVIEW.c **** *
2724:../../../SystemView/SEGGER/SEGGER_SYSVIEW.c **** *       SEGGER_SYSVIEW_ErrorfTarget()
2725:../../../SystemView/SEGGER/SEGGER_SYSVIEW.c **** *
2726:../../../SystemView/SEGGER/SEGGER_SYSVIEW.c **** *  Function description
2727:../../../SystemView/SEGGER/SEGGER_SYSVIEW.c **** *    Print an error string which is formatted on the target before
2728:../../../SystemView/SEGGER/SEGGER_SYSVIEW.c **** *    sent to the host.
2729:../../../SystemView/SEGGER/SEGGER_SYSVIEW.c **** *
2730:../../../SystemView/SEGGER/SEGGER_SYSVIEW.c **** *  Parameters
2731:../../../SystemView/SEGGER/SEGGER_SYSVIEW.c **** *    s        - String to be formatted.
2732:../../../SystemView/SEGGER/SEGGER_SYSVIEW.c **** */
2733:../../../SystemView/SEGGER/SEGGER_SYSVIEW.c **** void SEGGER_SYSVIEW_ErrorfTarget(const char* s, ...) {
 9475              		.loc 1 2733 0
 9476              		.cfi_startproc
 9477              		@ args = 4, pretend = 16, frame = 8
 9478              		@ frame_needed = 1, uses_anonymous_args = 1
 9479 0000 0FB4     		push	{r0, r1, r2, r3}
 9480              	.LCFI360:
 9481              		.cfi_def_cfa_offset 16
 9482              		.cfi_offset 0, -16
 9483              		.cfi_offset 1, -12
 9484              		.cfi_offset 2, -8
 9485              		.cfi_offset 3, -4
 9486 0002 80B5     		push	{r7, lr}
 9487              	.LCFI361:
 9488              		.cfi_def_cfa_offset 24
 9489              		.cfi_offset 7, -24
 9490              		.cfi_offset 14, -20
 9491 0004 82B0     		sub	sp, sp, #8
 9492              	.LCFI362:
 9493              		.cfi_def_cfa_offset 32
 9494 0006 00AF     		add	r7, sp, #0
 9495              	.LCFI363:
 9496              		.cfi_def_cfa_register 7
2734:../../../SystemView/SEGGER/SEGGER_SYSVIEW.c ****   va_list ParamList;
2735:../../../SystemView/SEGGER/SEGGER_SYSVIEW.c **** 
2736:../../../SystemView/SEGGER/SEGGER_SYSVIEW.c ****   va_start(ParamList, s);
 9497              		.loc 1 2736 0
 9498 0008 07F11403 		add	r3, r7, #20
 9499 000c 7B60     		str	r3, [r7, #4]
2737:../../../SystemView/SEGGER/SEGGER_SYSVIEW.c ****   _VPrintTarget(s, SEGGER_SYSVIEW_ERROR, &ParamList);
 9500              		.loc 1 2737 0
 9501 000e 3B1D     		adds	r3, r7, #4
ARM GAS  /tmp/ccJhHFds.s 			page 214


 9502 0010 3869     		ldr	r0, [r7, #16]
 9503 0012 0221     		movs	r1, #2
 9504 0014 1A46     		mov	r2, r3
 9505 0016 FFF7FEFF 		bl	_VPrintTarget
2738:../../../SystemView/SEGGER/SEGGER_SYSVIEW.c ****   va_end(ParamList);
2739:../../../SystemView/SEGGER/SEGGER_SYSVIEW.c **** }
 9506              		.loc 1 2739 0
 9507 001a 0837     		adds	r7, r7, #8
 9508              	.LCFI364:
 9509              		.cfi_def_cfa_offset 24
 9510 001c BD46     		mov	sp, r7
 9511              	.LCFI365:
 9512              		.cfi_def_cfa_register 13
 9513              		@ sp needed
 9514 001e BDE88040 		pop	{r7, lr}
 9515              	.LCFI366:
 9516              		.cfi_restore 14
 9517              		.cfi_restore 7
 9518              		.cfi_def_cfa_offset 16
 9519 0022 04B0     		add	sp, sp, #16
 9520              	.LCFI367:
 9521              		.cfi_restore 3
 9522              		.cfi_restore 2
 9523              		.cfi_restore 1
 9524              		.cfi_restore 0
 9525              		.cfi_def_cfa_offset 0
 9526 0024 7047     		bx	lr
 9527              		.cfi_endproc
 9528              	.LFE67:
 9530 0026 00BF     		.section	.text.SEGGER_SYSVIEW_Print,"ax",%progbits
 9531              		.align	2
 9532              		.global	SEGGER_SYSVIEW_Print
 9533              		.thumb
 9534              		.thumb_func
 9536              	SEGGER_SYSVIEW_Print:
 9537              	.LFB68:
2740:../../../SystemView/SEGGER/SEGGER_SYSVIEW.c **** #endif // SEGGER_SYSVIEW_EXCLUDE_PRINTF
2741:../../../SystemView/SEGGER/SEGGER_SYSVIEW.c **** 
2742:../../../SystemView/SEGGER/SEGGER_SYSVIEW.c **** /*********************************************************************
2743:../../../SystemView/SEGGER/SEGGER_SYSVIEW.c **** *
2744:../../../SystemView/SEGGER/SEGGER_SYSVIEW.c **** *       SEGGER_SYSVIEW_Print()
2745:../../../SystemView/SEGGER/SEGGER_SYSVIEW.c **** *
2746:../../../SystemView/SEGGER/SEGGER_SYSVIEW.c **** *  Function description
2747:../../../SystemView/SEGGER/SEGGER_SYSVIEW.c **** *    Print a string to the host.
2748:../../../SystemView/SEGGER/SEGGER_SYSVIEW.c **** *
2749:../../../SystemView/SEGGER/SEGGER_SYSVIEW.c **** *  Parameters
2750:../../../SystemView/SEGGER/SEGGER_SYSVIEW.c **** *    s        - String to sent.
2751:../../../SystemView/SEGGER/SEGGER_SYSVIEW.c **** */
2752:../../../SystemView/SEGGER/SEGGER_SYSVIEW.c **** void SEGGER_SYSVIEW_Print(const char* s) {
 9538              		.loc 1 2752 0
 9539              		.cfi_startproc
 9540              		@ args = 0, pretend = 0, frame = 40
 9541              		@ frame_needed = 1, uses_anonymous_args = 0
 9542 0000 80B5     		push	{r7, lr}
 9543              	.LCFI368:
 9544              		.cfi_def_cfa_offset 8
 9545              		.cfi_offset 7, -8
ARM GAS  /tmp/ccJhHFds.s 			page 215


 9546              		.cfi_offset 14, -4
 9547 0002 8AB0     		sub	sp, sp, #40
 9548              	.LCFI369:
 9549              		.cfi_def_cfa_offset 48
 9550 0004 00AF     		add	r7, sp, #0
 9551              	.LCFI370:
 9552              		.cfi_def_cfa_register 7
 9553 0006 7860     		str	r0, [r7, #4]
 9554              	.LBB148:
2753:../../../SystemView/SEGGER/SEGGER_SYSVIEW.c ****   U8* pPayload;
2754:../../../SystemView/SEGGER/SEGGER_SYSVIEW.c ****   U8* pPayloadStart;
2755:../../../SystemView/SEGGER/SEGGER_SYSVIEW.c ****   RECORD_START(SEGGER_SYSVIEW_INFO_SIZE + 2 * SEGGER_SYSVIEW_QUANTA_U32 + SEGGER_SYSVIEW_MAX_STRING
 9555              		.loc 1 2755 0
 9556              	@ 2755 "../../../SystemView/SEGGER/SEGGER_SYSVIEW.c" 1
 9557 0008 EFF31183 		mrs   r3, basepri  
 9558 000c 4FF02001 		mov   r1, #32       
 9559 0010 81F31188 		msr   basepri, r1  
 9560              		
 9561              	@ 0 "" 2
 9562              		.thumb
 9563 0014 7B61     		str	r3, [r7, #20]
 9564 0016 2648     		ldr	r0, .L508
 9565 0018 FFF7FEFF 		bl	_PreparePacket
 9566 001c 3861     		str	r0, [r7, #16]
2756:../../../SystemView/SEGGER/SEGGER_SYSVIEW.c ****   //
2757:../../../SystemView/SEGGER/SEGGER_SYSVIEW.c ****   pPayload = _EncodeStr(pPayloadStart, s, SEGGER_SYSVIEW_MAX_STRING_LEN);
 9567              		.loc 1 2757 0
 9568 001e 3869     		ldr	r0, [r7, #16]
 9569 0020 7968     		ldr	r1, [r7, #4]
 9570 0022 8022     		movs	r2, #128
 9571 0024 FFF7FEFF 		bl	_EncodeStr
 9572 0028 F860     		str	r0, [r7, #12]
 9573              	.LBB149:
2758:../../../SystemView/SEGGER/SEGGER_SYSVIEW.c ****   ENCODE_U32(pPayload, SEGGER_SYSVIEW_LOG);
 9574              		.loc 1 2758 0
 9575 002a FB68     		ldr	r3, [r7, #12]
 9576 002c 7B62     		str	r3, [r7, #36]
 9577 002e 0023     		movs	r3, #0
 9578 0030 3B62     		str	r3, [r7, #32]
 9579 0032 0BE0     		b	.L504
 9580              	.L505:
 9581              		.loc 1 2758 0 is_stmt 0 discriminator 3
 9582 0034 7B6A     		ldr	r3, [r7, #36]
 9583 0036 5A1C     		adds	r2, r3, #1
 9584 0038 7A62     		str	r2, [r7, #36]
 9585 003a 3A6A     		ldr	r2, [r7, #32]
 9586 003c D2B2     		uxtb	r2, r2
 9587 003e 62F07F02 		orn	r2, r2, #127
 9588 0042 D2B2     		uxtb	r2, r2
 9589 0044 1A70     		strb	r2, [r3]
 9590 0046 3B6A     		ldr	r3, [r7, #32]
 9591 0048 DB09     		lsrs	r3, r3, #7
 9592 004a 3B62     		str	r3, [r7, #32]
 9593              	.L504:
 9594              		.loc 1 2758 0 discriminator 1
 9595 004c 3B6A     		ldr	r3, [r7, #32]
 9596 004e 7F2B     		cmp	r3, #127
ARM GAS  /tmp/ccJhHFds.s 			page 216


 9597 0050 F0D8     		bhi	.L505
 9598              		.loc 1 2758 0 discriminator 4
 9599 0052 7B6A     		ldr	r3, [r7, #36]
 9600 0054 5A1C     		adds	r2, r3, #1
 9601 0056 7A62     		str	r2, [r7, #36]
 9602 0058 3A6A     		ldr	r2, [r7, #32]
 9603 005a D2B2     		uxtb	r2, r2
 9604 005c 1A70     		strb	r2, [r3]
 9605 005e 7B6A     		ldr	r3, [r7, #36]
 9606 0060 FB60     		str	r3, [r7, #12]
 9607              	.LBE149:
 9608              	.LBB150:
2759:../../../SystemView/SEGGER/SEGGER_SYSVIEW.c ****   ENCODE_U32(pPayload, 0);
 9609              		.loc 1 2759 0 is_stmt 1 discriminator 4
 9610 0062 FB68     		ldr	r3, [r7, #12]
 9611 0064 FB61     		str	r3, [r7, #28]
 9612 0066 0023     		movs	r3, #0
 9613 0068 BB61     		str	r3, [r7, #24]
 9614 006a 0BE0     		b	.L506
 9615              	.L507:
 9616              		.loc 1 2759 0 is_stmt 0 discriminator 3
 9617 006c FB69     		ldr	r3, [r7, #28]
 9618 006e 5A1C     		adds	r2, r3, #1
 9619 0070 FA61     		str	r2, [r7, #28]
 9620 0072 BA69     		ldr	r2, [r7, #24]
 9621 0074 D2B2     		uxtb	r2, r2
 9622 0076 62F07F02 		orn	r2, r2, #127
 9623 007a D2B2     		uxtb	r2, r2
 9624 007c 1A70     		strb	r2, [r3]
 9625 007e BB69     		ldr	r3, [r7, #24]
 9626 0080 DB09     		lsrs	r3, r3, #7
 9627 0082 BB61     		str	r3, [r7, #24]
 9628              	.L506:
 9629              		.loc 1 2759 0 discriminator 1
 9630 0084 BB69     		ldr	r3, [r7, #24]
 9631 0086 7F2B     		cmp	r3, #127
 9632 0088 F0D8     		bhi	.L507
 9633              		.loc 1 2759 0 discriminator 4
 9634 008a FB69     		ldr	r3, [r7, #28]
 9635 008c 5A1C     		adds	r2, r3, #1
 9636 008e FA61     		str	r2, [r7, #28]
 9637 0090 BA69     		ldr	r2, [r7, #24]
 9638 0092 D2B2     		uxtb	r2, r2
 9639 0094 1A70     		strb	r2, [r3]
 9640 0096 FB69     		ldr	r3, [r7, #28]
 9641 0098 FB60     		str	r3, [r7, #12]
 9642              	.LBE150:
2760:../../../SystemView/SEGGER/SEGGER_SYSVIEW.c ****   _SendPacket(pPayloadStart, pPayload, SYSVIEW_EVTID_PRINT_FORMATTED);
 9643              		.loc 1 2760 0 is_stmt 1 discriminator 4
 9644 009a 3869     		ldr	r0, [r7, #16]
 9645 009c F968     		ldr	r1, [r7, #12]
 9646 009e 1A22     		movs	r2, #26
 9647 00a0 FFF7FEFF 		bl	_SendPacket
2761:../../../SystemView/SEGGER/SEGGER_SYSVIEW.c ****   RECORD_END();
 9648              		.loc 1 2761 0 discriminator 4
 9649 00a4 7B69     		ldr	r3, [r7, #20]
 9650              	@ 2761 "../../../SystemView/SEGGER/SEGGER_SYSVIEW.c" 1
ARM GAS  /tmp/ccJhHFds.s 			page 217


 9651 00a6 83F31188 		msr   basepri, r3  
 9652              		
 9653              	@ 0 "" 2
 9654              		.thumb
 9655              	.LBE148:
2762:../../../SystemView/SEGGER/SEGGER_SYSVIEW.c **** }
 9656              		.loc 1 2762 0 discriminator 4
 9657 00aa 2837     		adds	r7, r7, #40
 9658              	.LCFI371:
 9659              		.cfi_def_cfa_offset 8
 9660 00ac BD46     		mov	sp, r7
 9661              	.LCFI372:
 9662              		.cfi_def_cfa_register 13
 9663              		@ sp needed
 9664 00ae 80BD     		pop	{r7, pc}
 9665              	.L509:
 9666              		.align	2
 9667              	.L508:
 9668 00b0 00000000 		.word	_aPacket
 9669              		.cfi_endproc
 9670              	.LFE68:
 9672              		.section	.text.SEGGER_SYSVIEW_Warn,"ax",%progbits
 9673              		.align	2
 9674              		.global	SEGGER_SYSVIEW_Warn
 9675              		.thumb
 9676              		.thumb_func
 9678              	SEGGER_SYSVIEW_Warn:
 9679              	.LFB69:
2763:../../../SystemView/SEGGER/SEGGER_SYSVIEW.c **** 
2764:../../../SystemView/SEGGER/SEGGER_SYSVIEW.c **** /*********************************************************************
2765:../../../SystemView/SEGGER/SEGGER_SYSVIEW.c **** *
2766:../../../SystemView/SEGGER/SEGGER_SYSVIEW.c **** *       SEGGER_SYSVIEW_Warn()
2767:../../../SystemView/SEGGER/SEGGER_SYSVIEW.c **** *
2768:../../../SystemView/SEGGER/SEGGER_SYSVIEW.c **** *  Function description
2769:../../../SystemView/SEGGER/SEGGER_SYSVIEW.c **** *    Print a warning string to the host.
2770:../../../SystemView/SEGGER/SEGGER_SYSVIEW.c **** *
2771:../../../SystemView/SEGGER/SEGGER_SYSVIEW.c **** *  Parameters
2772:../../../SystemView/SEGGER/SEGGER_SYSVIEW.c **** *    s        - String to sent.
2773:../../../SystemView/SEGGER/SEGGER_SYSVIEW.c **** */
2774:../../../SystemView/SEGGER/SEGGER_SYSVIEW.c **** void SEGGER_SYSVIEW_Warn(const char* s) {
 9680              		.loc 1 2774 0
 9681              		.cfi_startproc
 9682              		@ args = 0, pretend = 0, frame = 40
 9683              		@ frame_needed = 1, uses_anonymous_args = 0
 9684 0000 80B5     		push	{r7, lr}
 9685              	.LCFI373:
 9686              		.cfi_def_cfa_offset 8
 9687              		.cfi_offset 7, -8
 9688              		.cfi_offset 14, -4
 9689 0002 8AB0     		sub	sp, sp, #40
 9690              	.LCFI374:
 9691              		.cfi_def_cfa_offset 48
 9692 0004 00AF     		add	r7, sp, #0
 9693              	.LCFI375:
 9694              		.cfi_def_cfa_register 7
 9695 0006 7860     		str	r0, [r7, #4]
 9696              	.LBB151:
ARM GAS  /tmp/ccJhHFds.s 			page 218


2775:../../../SystemView/SEGGER/SEGGER_SYSVIEW.c ****   U8* pPayload;
2776:../../../SystemView/SEGGER/SEGGER_SYSVIEW.c ****   U8* pPayloadStart;
2777:../../../SystemView/SEGGER/SEGGER_SYSVIEW.c ****   RECORD_START(SEGGER_SYSVIEW_INFO_SIZE + 2 * SEGGER_SYSVIEW_QUANTA_U32 + SEGGER_SYSVIEW_MAX_STRING
 9697              		.loc 1 2777 0
 9698              	@ 2777 "../../../SystemView/SEGGER/SEGGER_SYSVIEW.c" 1
 9699 0008 EFF31183 		mrs   r3, basepri  
 9700 000c 4FF02001 		mov   r1, #32       
 9701 0010 81F31188 		msr   basepri, r1  
 9702              		
 9703              	@ 0 "" 2
 9704              		.thumb
 9705 0014 7B61     		str	r3, [r7, #20]
 9706 0016 2648     		ldr	r0, .L515
 9707 0018 FFF7FEFF 		bl	_PreparePacket
 9708 001c 3861     		str	r0, [r7, #16]
2778:../../../SystemView/SEGGER/SEGGER_SYSVIEW.c ****   //
2779:../../../SystemView/SEGGER/SEGGER_SYSVIEW.c ****   pPayload = _EncodeStr(pPayloadStart, s, SEGGER_SYSVIEW_MAX_STRING_LEN);
 9709              		.loc 1 2779 0
 9710 001e 3869     		ldr	r0, [r7, #16]
 9711 0020 7968     		ldr	r1, [r7, #4]
 9712 0022 8022     		movs	r2, #128
 9713 0024 FFF7FEFF 		bl	_EncodeStr
 9714 0028 F860     		str	r0, [r7, #12]
 9715              	.LBB152:
2780:../../../SystemView/SEGGER/SEGGER_SYSVIEW.c ****   ENCODE_U32(pPayload, SEGGER_SYSVIEW_WARNING);
 9716              		.loc 1 2780 0
 9717 002a FB68     		ldr	r3, [r7, #12]
 9718 002c 7B62     		str	r3, [r7, #36]
 9719 002e 0123     		movs	r3, #1
 9720 0030 3B62     		str	r3, [r7, #32]
 9721 0032 0BE0     		b	.L511
 9722              	.L512:
 9723              		.loc 1 2780 0 is_stmt 0 discriminator 3
 9724 0034 7B6A     		ldr	r3, [r7, #36]
 9725 0036 5A1C     		adds	r2, r3, #1
 9726 0038 7A62     		str	r2, [r7, #36]
 9727 003a 3A6A     		ldr	r2, [r7, #32]
 9728 003c D2B2     		uxtb	r2, r2
 9729 003e 62F07F02 		orn	r2, r2, #127
 9730 0042 D2B2     		uxtb	r2, r2
 9731 0044 1A70     		strb	r2, [r3]
 9732 0046 3B6A     		ldr	r3, [r7, #32]
 9733 0048 DB09     		lsrs	r3, r3, #7
 9734 004a 3B62     		str	r3, [r7, #32]
 9735              	.L511:
 9736              		.loc 1 2780 0 discriminator 1
 9737 004c 3B6A     		ldr	r3, [r7, #32]
 9738 004e 7F2B     		cmp	r3, #127
 9739 0050 F0D8     		bhi	.L512
 9740              		.loc 1 2780 0 discriminator 4
 9741 0052 7B6A     		ldr	r3, [r7, #36]
 9742 0054 5A1C     		adds	r2, r3, #1
 9743 0056 7A62     		str	r2, [r7, #36]
 9744 0058 3A6A     		ldr	r2, [r7, #32]
 9745 005a D2B2     		uxtb	r2, r2
 9746 005c 1A70     		strb	r2, [r3]
 9747 005e 7B6A     		ldr	r3, [r7, #36]
ARM GAS  /tmp/ccJhHFds.s 			page 219


 9748 0060 FB60     		str	r3, [r7, #12]
 9749              	.LBE152:
 9750              	.LBB153:
2781:../../../SystemView/SEGGER/SEGGER_SYSVIEW.c ****   ENCODE_U32(pPayload, 0);
 9751              		.loc 1 2781 0 is_stmt 1 discriminator 4
 9752 0062 FB68     		ldr	r3, [r7, #12]
 9753 0064 FB61     		str	r3, [r7, #28]
 9754 0066 0023     		movs	r3, #0
 9755 0068 BB61     		str	r3, [r7, #24]
 9756 006a 0BE0     		b	.L513
 9757              	.L514:
 9758              		.loc 1 2781 0 is_stmt 0 discriminator 3
 9759 006c FB69     		ldr	r3, [r7, #28]
 9760 006e 5A1C     		adds	r2, r3, #1
 9761 0070 FA61     		str	r2, [r7, #28]
 9762 0072 BA69     		ldr	r2, [r7, #24]
 9763 0074 D2B2     		uxtb	r2, r2
 9764 0076 62F07F02 		orn	r2, r2, #127
 9765 007a D2B2     		uxtb	r2, r2
 9766 007c 1A70     		strb	r2, [r3]
 9767 007e BB69     		ldr	r3, [r7, #24]
 9768 0080 DB09     		lsrs	r3, r3, #7
 9769 0082 BB61     		str	r3, [r7, #24]
 9770              	.L513:
 9771              		.loc 1 2781 0 discriminator 1
 9772 0084 BB69     		ldr	r3, [r7, #24]
 9773 0086 7F2B     		cmp	r3, #127
 9774 0088 F0D8     		bhi	.L514
 9775              		.loc 1 2781 0 discriminator 4
 9776 008a FB69     		ldr	r3, [r7, #28]
 9777 008c 5A1C     		adds	r2, r3, #1
 9778 008e FA61     		str	r2, [r7, #28]
 9779 0090 BA69     		ldr	r2, [r7, #24]
 9780 0092 D2B2     		uxtb	r2, r2
 9781 0094 1A70     		strb	r2, [r3]
 9782 0096 FB69     		ldr	r3, [r7, #28]
 9783 0098 FB60     		str	r3, [r7, #12]
 9784              	.LBE153:
2782:../../../SystemView/SEGGER/SEGGER_SYSVIEW.c ****   _SendPacket(pPayloadStart, pPayload, SYSVIEW_EVTID_PRINT_FORMATTED);
 9785              		.loc 1 2782 0 is_stmt 1 discriminator 4
 9786 009a 3869     		ldr	r0, [r7, #16]
 9787 009c F968     		ldr	r1, [r7, #12]
 9788 009e 1A22     		movs	r2, #26
 9789 00a0 FFF7FEFF 		bl	_SendPacket
2783:../../../SystemView/SEGGER/SEGGER_SYSVIEW.c ****   RECORD_END();
 9790              		.loc 1 2783 0 discriminator 4
 9791 00a4 7B69     		ldr	r3, [r7, #20]
 9792              	@ 2783 "../../../SystemView/SEGGER/SEGGER_SYSVIEW.c" 1
 9793 00a6 83F31188 		msr   basepri, r3  
 9794              		
 9795              	@ 0 "" 2
 9796              		.thumb
 9797              	.LBE151:
2784:../../../SystemView/SEGGER/SEGGER_SYSVIEW.c **** }
 9798              		.loc 1 2784 0 discriminator 4
 9799 00aa 2837     		adds	r7, r7, #40
 9800              	.LCFI376:
ARM GAS  /tmp/ccJhHFds.s 			page 220


 9801              		.cfi_def_cfa_offset 8
 9802 00ac BD46     		mov	sp, r7
 9803              	.LCFI377:
 9804              		.cfi_def_cfa_register 13
 9805              		@ sp needed
 9806 00ae 80BD     		pop	{r7, pc}
 9807              	.L516:
 9808              		.align	2
 9809              	.L515:
 9810 00b0 00000000 		.word	_aPacket
 9811              		.cfi_endproc
 9812              	.LFE69:
 9814              		.section	.text.SEGGER_SYSVIEW_Error,"ax",%progbits
 9815              		.align	2
 9816              		.global	SEGGER_SYSVIEW_Error
 9817              		.thumb
 9818              		.thumb_func
 9820              	SEGGER_SYSVIEW_Error:
 9821              	.LFB70:
2785:../../../SystemView/SEGGER/SEGGER_SYSVIEW.c **** 
2786:../../../SystemView/SEGGER/SEGGER_SYSVIEW.c **** /*********************************************************************
2787:../../../SystemView/SEGGER/SEGGER_SYSVIEW.c **** *
2788:../../../SystemView/SEGGER/SEGGER_SYSVIEW.c **** *       SEGGER_SYSVIEW_Error()
2789:../../../SystemView/SEGGER/SEGGER_SYSVIEW.c **** *
2790:../../../SystemView/SEGGER/SEGGER_SYSVIEW.c **** *  Function description
2791:../../../SystemView/SEGGER/SEGGER_SYSVIEW.c **** *    Print an error string to the host.
2792:../../../SystemView/SEGGER/SEGGER_SYSVIEW.c **** *
2793:../../../SystemView/SEGGER/SEGGER_SYSVIEW.c **** *  Parameters
2794:../../../SystemView/SEGGER/SEGGER_SYSVIEW.c **** *    s        - String to sent.
2795:../../../SystemView/SEGGER/SEGGER_SYSVIEW.c **** */
2796:../../../SystemView/SEGGER/SEGGER_SYSVIEW.c **** void SEGGER_SYSVIEW_Error(const char* s) {
 9822              		.loc 1 2796 0
 9823              		.cfi_startproc
 9824              		@ args = 0, pretend = 0, frame = 40
 9825              		@ frame_needed = 1, uses_anonymous_args = 0
 9826 0000 80B5     		push	{r7, lr}
 9827              	.LCFI378:
 9828              		.cfi_def_cfa_offset 8
 9829              		.cfi_offset 7, -8
 9830              		.cfi_offset 14, -4
 9831 0002 8AB0     		sub	sp, sp, #40
 9832              	.LCFI379:
 9833              		.cfi_def_cfa_offset 48
 9834 0004 00AF     		add	r7, sp, #0
 9835              	.LCFI380:
 9836              		.cfi_def_cfa_register 7
 9837 0006 7860     		str	r0, [r7, #4]
 9838              	.LBB154:
2797:../../../SystemView/SEGGER/SEGGER_SYSVIEW.c ****   U8* pPayload;
2798:../../../SystemView/SEGGER/SEGGER_SYSVIEW.c ****   U8* pPayloadStart;
2799:../../../SystemView/SEGGER/SEGGER_SYSVIEW.c ****   RECORD_START(SEGGER_SYSVIEW_INFO_SIZE + 2 * SEGGER_SYSVIEW_QUANTA_U32 + SEGGER_SYSVIEW_MAX_STRING
 9839              		.loc 1 2799 0
 9840              	@ 2799 "../../../SystemView/SEGGER/SEGGER_SYSVIEW.c" 1
 9841 0008 EFF31183 		mrs   r3, basepri  
 9842 000c 4FF02001 		mov   r1, #32       
 9843 0010 81F31188 		msr   basepri, r1  
 9844              		
ARM GAS  /tmp/ccJhHFds.s 			page 221


 9845              	@ 0 "" 2
 9846              		.thumb
 9847 0014 7B61     		str	r3, [r7, #20]
 9848 0016 2648     		ldr	r0, .L522
 9849 0018 FFF7FEFF 		bl	_PreparePacket
 9850 001c 3861     		str	r0, [r7, #16]
2800:../../../SystemView/SEGGER/SEGGER_SYSVIEW.c ****   //
2801:../../../SystemView/SEGGER/SEGGER_SYSVIEW.c ****   pPayload = _EncodeStr(pPayloadStart, s, SEGGER_SYSVIEW_MAX_STRING_LEN);
 9851              		.loc 1 2801 0
 9852 001e 3869     		ldr	r0, [r7, #16]
 9853 0020 7968     		ldr	r1, [r7, #4]
 9854 0022 8022     		movs	r2, #128
 9855 0024 FFF7FEFF 		bl	_EncodeStr
 9856 0028 F860     		str	r0, [r7, #12]
 9857              	.LBB155:
2802:../../../SystemView/SEGGER/SEGGER_SYSVIEW.c ****   ENCODE_U32(pPayload, SEGGER_SYSVIEW_ERROR);
 9858              		.loc 1 2802 0
 9859 002a FB68     		ldr	r3, [r7, #12]
 9860 002c 7B62     		str	r3, [r7, #36]
 9861 002e 0223     		movs	r3, #2
 9862 0030 3B62     		str	r3, [r7, #32]
 9863 0032 0BE0     		b	.L518
 9864              	.L519:
 9865              		.loc 1 2802 0 is_stmt 0 discriminator 3
 9866 0034 7B6A     		ldr	r3, [r7, #36]
 9867 0036 5A1C     		adds	r2, r3, #1
 9868 0038 7A62     		str	r2, [r7, #36]
 9869 003a 3A6A     		ldr	r2, [r7, #32]
 9870 003c D2B2     		uxtb	r2, r2
 9871 003e 62F07F02 		orn	r2, r2, #127
 9872 0042 D2B2     		uxtb	r2, r2
 9873 0044 1A70     		strb	r2, [r3]
 9874 0046 3B6A     		ldr	r3, [r7, #32]
 9875 0048 DB09     		lsrs	r3, r3, #7
 9876 004a 3B62     		str	r3, [r7, #32]
 9877              	.L518:
 9878              		.loc 1 2802 0 discriminator 1
 9879 004c 3B6A     		ldr	r3, [r7, #32]
 9880 004e 7F2B     		cmp	r3, #127
 9881 0050 F0D8     		bhi	.L519
 9882              		.loc 1 2802 0 discriminator 4
 9883 0052 7B6A     		ldr	r3, [r7, #36]
 9884 0054 5A1C     		adds	r2, r3, #1
 9885 0056 7A62     		str	r2, [r7, #36]
 9886 0058 3A6A     		ldr	r2, [r7, #32]
 9887 005a D2B2     		uxtb	r2, r2
 9888 005c 1A70     		strb	r2, [r3]
 9889 005e 7B6A     		ldr	r3, [r7, #36]
 9890 0060 FB60     		str	r3, [r7, #12]
 9891              	.LBE155:
 9892              	.LBB156:
2803:../../../SystemView/SEGGER/SEGGER_SYSVIEW.c ****   ENCODE_U32(pPayload, 0);
 9893              		.loc 1 2803 0 is_stmt 1 discriminator 4
 9894 0062 FB68     		ldr	r3, [r7, #12]
 9895 0064 FB61     		str	r3, [r7, #28]
 9896 0066 0023     		movs	r3, #0
 9897 0068 BB61     		str	r3, [r7, #24]
ARM GAS  /tmp/ccJhHFds.s 			page 222


 9898 006a 0BE0     		b	.L520
 9899              	.L521:
 9900              		.loc 1 2803 0 is_stmt 0 discriminator 3
 9901 006c FB69     		ldr	r3, [r7, #28]
 9902 006e 5A1C     		adds	r2, r3, #1
 9903 0070 FA61     		str	r2, [r7, #28]
 9904 0072 BA69     		ldr	r2, [r7, #24]
 9905 0074 D2B2     		uxtb	r2, r2
 9906 0076 62F07F02 		orn	r2, r2, #127
 9907 007a D2B2     		uxtb	r2, r2
 9908 007c 1A70     		strb	r2, [r3]
 9909 007e BB69     		ldr	r3, [r7, #24]
 9910 0080 DB09     		lsrs	r3, r3, #7
 9911 0082 BB61     		str	r3, [r7, #24]
 9912              	.L520:
 9913              		.loc 1 2803 0 discriminator 1
 9914 0084 BB69     		ldr	r3, [r7, #24]
 9915 0086 7F2B     		cmp	r3, #127
 9916 0088 F0D8     		bhi	.L521
 9917              		.loc 1 2803 0 discriminator 4
 9918 008a FB69     		ldr	r3, [r7, #28]
 9919 008c 5A1C     		adds	r2, r3, #1
 9920 008e FA61     		str	r2, [r7, #28]
 9921 0090 BA69     		ldr	r2, [r7, #24]
 9922 0092 D2B2     		uxtb	r2, r2
 9923 0094 1A70     		strb	r2, [r3]
 9924 0096 FB69     		ldr	r3, [r7, #28]
 9925 0098 FB60     		str	r3, [r7, #12]
 9926              	.LBE156:
2804:../../../SystemView/SEGGER/SEGGER_SYSVIEW.c ****   _SendPacket(pPayloadStart, pPayload, SYSVIEW_EVTID_PRINT_FORMATTED);
 9927              		.loc 1 2804 0 is_stmt 1 discriminator 4
 9928 009a 3869     		ldr	r0, [r7, #16]
 9929 009c F968     		ldr	r1, [r7, #12]
 9930 009e 1A22     		movs	r2, #26
 9931 00a0 FFF7FEFF 		bl	_SendPacket
2805:../../../SystemView/SEGGER/SEGGER_SYSVIEW.c ****   RECORD_END();
 9932              		.loc 1 2805 0 discriminator 4
 9933 00a4 7B69     		ldr	r3, [r7, #20]
 9934              	@ 2805 "../../../SystemView/SEGGER/SEGGER_SYSVIEW.c" 1
 9935 00a6 83F31188 		msr   basepri, r3  
 9936              		
 9937              	@ 0 "" 2
 9938              		.thumb
 9939              	.LBE154:
2806:../../../SystemView/SEGGER/SEGGER_SYSVIEW.c **** }
 9940              		.loc 1 2806 0 discriminator 4
 9941 00aa 2837     		adds	r7, r7, #40
 9942              	.LCFI381:
 9943              		.cfi_def_cfa_offset 8
 9944 00ac BD46     		mov	sp, r7
 9945              	.LCFI382:
 9946              		.cfi_def_cfa_register 13
 9947              		@ sp needed
 9948 00ae 80BD     		pop	{r7, pc}
 9949              	.L523:
 9950              		.align	2
 9951              	.L522:
ARM GAS  /tmp/ccJhHFds.s 			page 223


 9952 00b0 00000000 		.word	_aPacket
 9953              		.cfi_endproc
 9954              	.LFE70:
 9956              		.section	.text.SEGGER_SYSVIEW_EnableEvents,"ax",%progbits
 9957              		.align	2
 9958              		.global	SEGGER_SYSVIEW_EnableEvents
 9959              		.thumb
 9960              		.thumb_func
 9962              	SEGGER_SYSVIEW_EnableEvents:
 9963              	.LFB71:
2807:../../../SystemView/SEGGER/SEGGER_SYSVIEW.c **** 
2808:../../../SystemView/SEGGER/SEGGER_SYSVIEW.c **** /*********************************************************************
2809:../../../SystemView/SEGGER/SEGGER_SYSVIEW.c **** *
2810:../../../SystemView/SEGGER/SEGGER_SYSVIEW.c **** *       SEGGER_SYSVIEW_EnableEvents()
2811:../../../SystemView/SEGGER/SEGGER_SYSVIEW.c **** *
2812:../../../SystemView/SEGGER/SEGGER_SYSVIEW.c **** *  Function description
2813:../../../SystemView/SEGGER/SEGGER_SYSVIEW.c **** *    Enable standard SystemView events to be generated.
2814:../../../SystemView/SEGGER/SEGGER_SYSVIEW.c **** *
2815:../../../SystemView/SEGGER/SEGGER_SYSVIEW.c **** *  Parameters
2816:../../../SystemView/SEGGER/SEGGER_SYSVIEW.c **** *    EnableMask   - Events to be enabled.
2817:../../../SystemView/SEGGER/SEGGER_SYSVIEW.c **** */
2818:../../../SystemView/SEGGER/SEGGER_SYSVIEW.c **** void SEGGER_SYSVIEW_EnableEvents(U32 EnableMask) {
 9964              		.loc 1 2818 0
 9965              		.cfi_startproc
 9966              		@ args = 0, pretend = 0, frame = 8
 9967              		@ frame_needed = 1, uses_anonymous_args = 0
 9968              		@ link register save eliminated.
 9969 0000 80B4     		push	{r7}
 9970              	.LCFI383:
 9971              		.cfi_def_cfa_offset 4
 9972              		.cfi_offset 7, -4
 9973 0002 83B0     		sub	sp, sp, #12
 9974              	.LCFI384:
 9975              		.cfi_def_cfa_offset 16
 9976 0004 00AF     		add	r7, sp, #0
 9977              	.LCFI385:
 9978              		.cfi_def_cfa_register 7
 9979 0006 7860     		str	r0, [r7, #4]
2819:../../../SystemView/SEGGER/SEGGER_SYSVIEW.c ****   _SYSVIEW_Globals.DisabledEvents &= ~EnableMask;
 9980              		.loc 1 2819 0
 9981 0008 054B     		ldr	r3, .L525
 9982 000a DA69     		ldr	r2, [r3, #28]
 9983 000c 7B68     		ldr	r3, [r7, #4]
 9984 000e DB43     		mvns	r3, r3
 9985 0010 1340     		ands	r3, r3, r2
 9986 0012 034A     		ldr	r2, .L525
 9987 0014 D361     		str	r3, [r2, #28]
2820:../../../SystemView/SEGGER/SEGGER_SYSVIEW.c **** }
 9988              		.loc 1 2820 0
 9989 0016 0C37     		adds	r7, r7, #12
 9990              	.LCFI386:
 9991              		.cfi_def_cfa_offset 4
 9992 0018 BD46     		mov	sp, r7
 9993              	.LCFI387:
 9994              		.cfi_def_cfa_register 13
 9995              		@ sp needed
 9996 001a 5DF8047B 		ldr	r7, [sp], #4
ARM GAS  /tmp/ccJhHFds.s 			page 224


 9997              	.LCFI388:
 9998              		.cfi_restore 7
 9999              		.cfi_def_cfa_offset 0
 10000 001e 7047     		bx	lr
 10001              	.L526:
 10002              		.align	2
 10003              	.L525:
 10004 0020 00000000 		.word	_SYSVIEW_Globals
 10005              		.cfi_endproc
 10006              	.LFE71:
 10008              		.section	.text.SEGGER_SYSVIEW_DisableEvents,"ax",%progbits
 10009              		.align	2
 10010              		.global	SEGGER_SYSVIEW_DisableEvents
 10011              		.thumb
 10012              		.thumb_func
 10014              	SEGGER_SYSVIEW_DisableEvents:
 10015              	.LFB72:
2821:../../../SystemView/SEGGER/SEGGER_SYSVIEW.c **** 
2822:../../../SystemView/SEGGER/SEGGER_SYSVIEW.c **** /*********************************************************************
2823:../../../SystemView/SEGGER/SEGGER_SYSVIEW.c **** *
2824:../../../SystemView/SEGGER/SEGGER_SYSVIEW.c **** *       SEGGER_SYSVIEW_DisableEvents()
2825:../../../SystemView/SEGGER/SEGGER_SYSVIEW.c **** *
2826:../../../SystemView/SEGGER/SEGGER_SYSVIEW.c **** *  Function description
2827:../../../SystemView/SEGGER/SEGGER_SYSVIEW.c **** *    Disable standard SystemView events to not be generated.
2828:../../../SystemView/SEGGER/SEGGER_SYSVIEW.c **** *
2829:../../../SystemView/SEGGER/SEGGER_SYSVIEW.c **** *  Parameters
2830:../../../SystemView/SEGGER/SEGGER_SYSVIEW.c **** *    DisableMask  - Events to be disabled.
2831:../../../SystemView/SEGGER/SEGGER_SYSVIEW.c **** */
2832:../../../SystemView/SEGGER/SEGGER_SYSVIEW.c **** void SEGGER_SYSVIEW_DisableEvents(U32 DisableMask) {
 10016              		.loc 1 2832 0
 10017              		.cfi_startproc
 10018              		@ args = 0, pretend = 0, frame = 8
 10019              		@ frame_needed = 1, uses_anonymous_args = 0
 10020              		@ link register save eliminated.
 10021 0000 80B4     		push	{r7}
 10022              	.LCFI389:
 10023              		.cfi_def_cfa_offset 4
 10024              		.cfi_offset 7, -4
 10025 0002 83B0     		sub	sp, sp, #12
 10026              	.LCFI390:
 10027              		.cfi_def_cfa_offset 16
 10028 0004 00AF     		add	r7, sp, #0
 10029              	.LCFI391:
 10030              		.cfi_def_cfa_register 7
 10031 0006 7860     		str	r0, [r7, #4]
2833:../../../SystemView/SEGGER/SEGGER_SYSVIEW.c ****   _SYSVIEW_Globals.DisabledEvents |= DisableMask;
 10032              		.loc 1 2833 0
 10033 0008 054B     		ldr	r3, .L528
 10034 000a DA69     		ldr	r2, [r3, #28]
 10035 000c 7B68     		ldr	r3, [r7, #4]
 10036 000e 1343     		orrs	r3, r3, r2
 10037 0010 034A     		ldr	r2, .L528
 10038 0012 D361     		str	r3, [r2, #28]
2834:../../../SystemView/SEGGER/SEGGER_SYSVIEW.c **** }
 10039              		.loc 1 2834 0
 10040 0014 0C37     		adds	r7, r7, #12
 10041              	.LCFI392:
ARM GAS  /tmp/ccJhHFds.s 			page 225


 10042              		.cfi_def_cfa_offset 4
 10043 0016 BD46     		mov	sp, r7
 10044              	.LCFI393:
 10045              		.cfi_def_cfa_register 13
 10046              		@ sp needed
 10047 0018 5DF8047B 		ldr	r7, [sp], #4
 10048              	.LCFI394:
 10049              		.cfi_restore 7
 10050              		.cfi_def_cfa_offset 0
 10051 001c 7047     		bx	lr
 10052              	.L529:
 10053 001e 00BF     		.align	2
 10054              	.L528:
 10055 0020 00000000 		.word	_SYSVIEW_Globals
 10056              		.cfi_endproc
 10057              	.LFE72:
 10059              		.section	.rodata._aV2C.5453,"a",%progbits
 10060              		.align	2
 10063              	_aV2C.5453:
 10064 0000 30       		.byte	48
 10065 0001 31       		.byte	49
 10066 0002 32       		.byte	50
 10067 0003 33       		.byte	51
 10068 0004 34       		.byte	52
 10069 0005 35       		.byte	53
 10070 0006 36       		.byte	54
 10071 0007 37       		.byte	55
 10072 0008 38       		.byte	56
 10073 0009 39       		.byte	57
 10074 000a 41       		.byte	65
 10075 000b 42       		.byte	66
 10076 000c 43       		.byte	67
 10077 000d 44       		.byte	68
 10078 000e 45       		.byte	69
 10079 000f 46       		.byte	70
 10080              		.text
 10081              	.Letext0:
 10082              		.file 2 "/usr/lib/gcc/arm-none-eabi/4.9.3/include/stdarg.h"
 10083              		.file 3 "../../../SystemView/SEGGER/SEGGER_SYSVIEW.h"
 10084              		.file 4 "<built-in>"
 10085              		.file 5 "../../../SystemView/SEGGER/SEGGER_RTT.h"
 10086              		.file 6 "../../../SystemView/SEGGER/SEGGER_SYSVIEW_Int.h"
ARM GAS  /tmp/ccJhHFds.s 			page 226


DEFINED SYMBOLS
                            *ABS*:0000000000000000 SEGGER_SYSVIEW.c
     /tmp/ccJhHFds.s:21     .rodata._abSync:0000000000000000 $d
     /tmp/ccJhHFds.s:24     .rodata._abSync:0000000000000000 _abSync
     /tmp/ccJhHFds.s:27     .bss._UpBuffer:0000000000000000 $d
     /tmp/ccJhHFds.s:30     .bss._UpBuffer:0000000000000000 _UpBuffer
     /tmp/ccJhHFds.s:33     .bss._DownBuffer:0000000000000000 $d
     /tmp/ccJhHFds.s:36     .bss._DownBuffer:0000000000000000 _DownBuffer
     /tmp/ccJhHFds.s:39     .bss._SYSVIEW_Globals:0000000000000000 $d
     /tmp/ccJhHFds.s:42     .bss._SYSVIEW_Globals:0000000000000000 _SYSVIEW_Globals
     /tmp/ccJhHFds.s:45     .bss._pFirstModule:0000000000000000 $d
     /tmp/ccJhHFds.s:48     .bss._pFirstModule:0000000000000000 _pFirstModule
     /tmp/ccJhHFds.s:53     .bss._NumModules:0000000000000000 _NumModules
     /tmp/ccJhHFds.s:54     .bss._NumModules:0000000000000000 $d
     /tmp/ccJhHFds.s:56     .bss._aPacket:0000000000000000 $d
     /tmp/ccJhHFds.s:59     .bss._aPacket:0000000000000000 _aPacket
     /tmp/ccJhHFds.s:62     .text._EncodeData:0000000000000000 $t
     /tmp/ccJhHFds.s:66     .text._EncodeData:0000000000000000 _EncodeData
     /tmp/ccJhHFds.s:139    .text._EncodeStr:0000000000000000 $t
     /tmp/ccJhHFds.s:143    .text._EncodeStr:0000000000000000 _EncodeStr
     /tmp/ccJhHFds.s:270    .text._PreparePacket:0000000000000000 $t
     /tmp/ccJhHFds.s:274    .text._PreparePacket:0000000000000000 _PreparePacket
     /tmp/ccJhHFds.s:313    .text._HandleIncomingPacket:0000000000000000 $t
     /tmp/ccJhHFds.s:317    .text._HandleIncomingPacket:0000000000000000 _HandleIncomingPacket
     /tmp/ccJhHFds.s:5213   .text.SEGGER_SYSVIEW_Start:0000000000000000 SEGGER_SYSVIEW_Start
     /tmp/ccJhHFds.s:5480   .text.SEGGER_SYSVIEW_Stop:0000000000000000 SEGGER_SYSVIEW_Stop
     /tmp/ccJhHFds.s:6205   .text.SEGGER_SYSVIEW_RecordSystime:0000000000000000 SEGGER_SYSVIEW_RecordSystime
     /tmp/ccJhHFds.s:6087   .text.SEGGER_SYSVIEW_SendTaskList:0000000000000000 SEGGER_SYSVIEW_SendTaskList
     /tmp/ccJhHFds.s:5556   .text.SEGGER_SYSVIEW_GetSysDesc:0000000000000000 SEGGER_SYSVIEW_GetSysDesc
     /tmp/ccJhHFds.s:8929   .text.SEGGER_SYSVIEW_SendNumModules:0000000000000000 SEGGER_SYSVIEW_SendNumModules
     /tmp/ccJhHFds.s:8861   .text.SEGGER_SYSVIEW_SendModuleDescription:0000000000000000 SEGGER_SYSVIEW_SendModuleDescription
     /tmp/ccJhHFds.s:8668   .text.SEGGER_SYSVIEW_SendModule:0000000000000000 SEGGER_SYSVIEW_SendModule
     /tmp/ccJhHFds.s:455    .text._TrySendOverflowPacket:0000000000000000 $t
     /tmp/ccJhHFds.s:459    .text._TrySendOverflowPacket:0000000000000000 _TrySendOverflowPacket
     /tmp/ccJhHFds.s:614    .text._TrySendOverflowPacket:00000000000000d8 $d
     /tmp/ccJhHFds.s:620    .text._SendPacket:0000000000000000 $t
     /tmp/ccJhHFds.s:624    .text._SendPacket:0000000000000000 _SendPacket
     /tmp/ccJhHFds.s:885    .text._SendPacket:0000000000000188 $d
     /tmp/ccJhHFds.s:892    .text._VPrintHost:0000000000000000 $t
     /tmp/ccJhHFds.s:896    .text._VPrintHost:0000000000000000 _VPrintHost
     /tmp/ccJhHFds.s:1138   .text._VPrintHost:0000000000000178 $d
     /tmp/ccJhHFds.s:1143   .text._StoreChar:0000000000000000 $t
     /tmp/ccJhHFds.s:1147   .text._StoreChar:0000000000000000 _StoreChar
     /tmp/ccJhHFds.s:1319   .text._PrintUnsigned:0000000000000000 $t
     /tmp/ccJhHFds.s:1323   .text._PrintUnsigned:0000000000000000 _PrintUnsigned
     /tmp/ccJhHFds.s:1533   .text._PrintUnsigned:0000000000000124 $d
     /tmp/ccJhHFds.s:10063  .rodata._aV2C.5453:0000000000000000 _aV2C.5453
     /tmp/ccJhHFds.s:1538   .text._PrintInt:0000000000000000 $t
     /tmp/ccJhHFds.s:1542   .text._PrintInt:0000000000000000 _PrintInt
     /tmp/ccJhHFds.s:1747   .text._VPrintTarget:0000000000000000 $t
     /tmp/ccJhHFds.s:1751   .text._VPrintTarget:0000000000000000 _VPrintTarget
     /tmp/ccJhHFds.s:1840   .text._VPrintTarget:000000000000007c $d
     /tmp/ccJhHFds.s:1854   .text._VPrintTarget:00000000000000b4 $t
     /tmp/ccJhHFds.s:2160   .text._VPrintTarget:00000000000002bc $d
     /tmp/ccJhHFds.s:2163   .text._VPrintTarget:00000000000002c0 $t
     /tmp/ccJhHFds.s:2283   .rodata:0000000000000000 $d
     /tmp/ccJhHFds.s:2287   .text.SEGGER_SYSVIEW_Init:0000000000000000 $t
ARM GAS  /tmp/ccJhHFds.s 			page 227


     /tmp/ccJhHFds.s:2292   .text.SEGGER_SYSVIEW_Init:0000000000000000 SEGGER_SYSVIEW_Init
     /tmp/ccJhHFds.s:2370   .text.SEGGER_SYSVIEW_Init:0000000000000064 $d
     /tmp/ccJhHFds.s:2379   .text.SEGGER_SYSVIEW_SetRAMBase:0000000000000000 $t
     /tmp/ccJhHFds.s:2384   .text.SEGGER_SYSVIEW_SetRAMBase:0000000000000000 SEGGER_SYSVIEW_SetRAMBase
     /tmp/ccJhHFds.s:2422   .text.SEGGER_SYSVIEW_SetRAMBase:0000000000000018 $d
     /tmp/ccJhHFds.s:2427   .text.SEGGER_SYSVIEW_RecordVoid:0000000000000000 $t
     /tmp/ccJhHFds.s:2432   .text.SEGGER_SYSVIEW_RecordVoid:0000000000000000 SEGGER_SYSVIEW_RecordVoid
     /tmp/ccJhHFds.s:2488   .text.SEGGER_SYSVIEW_RecordVoid:0000000000000034 $d
     /tmp/ccJhHFds.s:2493   .text.SEGGER_SYSVIEW_RecordU32:0000000000000000 $t
     /tmp/ccJhHFds.s:2498   .text.SEGGER_SYSVIEW_RecordU32:0000000000000000 SEGGER_SYSVIEW_RecordU32
     /tmp/ccJhHFds.s:2593   .text.SEGGER_SYSVIEW_RecordU32:0000000000000074 $d
     /tmp/ccJhHFds.s:2598   .text.SEGGER_SYSVIEW_RecordU32x2:0000000000000000 $t
     /tmp/ccJhHFds.s:2603   .text.SEGGER_SYSVIEW_RecordU32x2:0000000000000000 SEGGER_SYSVIEW_RecordU32x2
     /tmp/ccJhHFds.s:2734   .text.SEGGER_SYSVIEW_RecordU32x2:00000000000000ac $d
     /tmp/ccJhHFds.s:2739   .text.SEGGER_SYSVIEW_RecordU32x3:0000000000000000 $t
     /tmp/ccJhHFds.s:2744   .text.SEGGER_SYSVIEW_RecordU32x3:0000000000000000 SEGGER_SYSVIEW_RecordU32x3
     /tmp/ccJhHFds.s:2911   .text.SEGGER_SYSVIEW_RecordU32x3:00000000000000e8 $d
     /tmp/ccJhHFds.s:2916   .text.SEGGER_SYSVIEW_RecordU32x4:0000000000000000 $t
     /tmp/ccJhHFds.s:2921   .text.SEGGER_SYSVIEW_RecordU32x4:0000000000000000 SEGGER_SYSVIEW_RecordU32x4
     /tmp/ccJhHFds.s:3123   .text.SEGGER_SYSVIEW_RecordU32x4:0000000000000120 $d
     /tmp/ccJhHFds.s:3128   .text.SEGGER_SYSVIEW_RecordU32x5:0000000000000000 $t
     /tmp/ccJhHFds.s:3133   .text.SEGGER_SYSVIEW_RecordU32x5:0000000000000000 SEGGER_SYSVIEW_RecordU32x5
     /tmp/ccJhHFds.s:3370   .text.SEGGER_SYSVIEW_RecordU32x5:0000000000000158 $d
     /tmp/ccJhHFds.s:3375   .text.SEGGER_SYSVIEW_RecordU32x6:0000000000000000 $t
     /tmp/ccJhHFds.s:3380   .text.SEGGER_SYSVIEW_RecordU32x6:0000000000000000 SEGGER_SYSVIEW_RecordU32x6
     /tmp/ccJhHFds.s:3652   .text.SEGGER_SYSVIEW_RecordU32x6:0000000000000190 $d
     /tmp/ccJhHFds.s:3657   .text.SEGGER_SYSVIEW_RecordU32x7:0000000000000000 $t
     /tmp/ccJhHFds.s:3662   .text.SEGGER_SYSVIEW_RecordU32x7:0000000000000000 SEGGER_SYSVIEW_RecordU32x7
     /tmp/ccJhHFds.s:3969   .text.SEGGER_SYSVIEW_RecordU32x7:00000000000001c8 $d
     /tmp/ccJhHFds.s:3974   .text.SEGGER_SYSVIEW_RecordU32x8:0000000000000000 $t
     /tmp/ccJhHFds.s:3979   .text.SEGGER_SYSVIEW_RecordU32x8:0000000000000000 SEGGER_SYSVIEW_RecordU32x8
     /tmp/ccJhHFds.s:4321   .text.SEGGER_SYSVIEW_RecordU32x8:0000000000000200 $d
     /tmp/ccJhHFds.s:4326   .text.SEGGER_SYSVIEW_RecordU32x9:0000000000000000 $t
     /tmp/ccJhHFds.s:4331   .text.SEGGER_SYSVIEW_RecordU32x9:0000000000000000 SEGGER_SYSVIEW_RecordU32x9
     /tmp/ccJhHFds.s:4708   .text.SEGGER_SYSVIEW_RecordU32x9:000000000000023c $d
     /tmp/ccJhHFds.s:4713   .text.SEGGER_SYSVIEW_RecordU32x10:0000000000000000 $t
     /tmp/ccJhHFds.s:4718   .text.SEGGER_SYSVIEW_RecordU32x10:0000000000000000 SEGGER_SYSVIEW_RecordU32x10
     /tmp/ccJhHFds.s:5130   .text.SEGGER_SYSVIEW_RecordU32x10:0000000000000278 $d
     /tmp/ccJhHFds.s:5135   .text.SEGGER_SYSVIEW_RecordString:0000000000000000 $t
     /tmp/ccJhHFds.s:5140   .text.SEGGER_SYSVIEW_RecordString:0000000000000000 SEGGER_SYSVIEW_RecordString
     /tmp/ccJhHFds.s:5203   .text.SEGGER_SYSVIEW_RecordString:0000000000000044 $d
     /tmp/ccJhHFds.s:5208   .text.SEGGER_SYSVIEW_Start:0000000000000000 $t
     /tmp/ccJhHFds.s:5468   .text.SEGGER_SYSVIEW_Start:000000000000016c $d
     /tmp/ccJhHFds.s:5475   .text.SEGGER_SYSVIEW_Stop:0000000000000000 $t
     /tmp/ccJhHFds.s:5545   .text.SEGGER_SYSVIEW_Stop:0000000000000040 $d
     /tmp/ccJhHFds.s:5551   .text.SEGGER_SYSVIEW_GetSysDesc:0000000000000000 $t
     /tmp/ccJhHFds.s:5767   .text.SEGGER_SYSVIEW_GetSysDesc:000000000000012c $d
     /tmp/ccJhHFds.s:5773   .text.SEGGER_SYSVIEW_SendTaskInfo:0000000000000000 $t
     /tmp/ccJhHFds.s:5778   .text.SEGGER_SYSVIEW_SendTaskInfo:0000000000000000 SEGGER_SYSVIEW_SendTaskInfo
     /tmp/ccJhHFds.s:6076   .text.SEGGER_SYSVIEW_SendTaskInfo:00000000000001c0 $d
     /tmp/ccJhHFds.s:6082   .text.SEGGER_SYSVIEW_SendTaskList:0000000000000000 $t
     /tmp/ccJhHFds.s:6123   .text.SEGGER_SYSVIEW_SendTaskList:0000000000000020 $d
     /tmp/ccJhHFds.s:6128   .text.SEGGER_SYSVIEW_SendSysDesc:0000000000000000 $t
     /tmp/ccJhHFds.s:6133   .text.SEGGER_SYSVIEW_SendSysDesc:0000000000000000 SEGGER_SYSVIEW_SendSysDesc
     /tmp/ccJhHFds.s:6195   .text.SEGGER_SYSVIEW_SendSysDesc:0000000000000040 $d
     /tmp/ccJhHFds.s:6200   .text.SEGGER_SYSVIEW_RecordSystime:0000000000000000 $t
     /tmp/ccJhHFds.s:6273   .text.SEGGER_SYSVIEW_RecordSystime:000000000000004c $d
ARM GAS  /tmp/ccJhHFds.s 			page 228


     /tmp/ccJhHFds.s:6279   .text.SEGGER_SYSVIEW_RecordEnterISR:0000000000000000 $t
     /tmp/ccJhHFds.s:6284   .text.SEGGER_SYSVIEW_RecordEnterISR:0000000000000000 SEGGER_SYSVIEW_RecordEnterISR
     /tmp/ccJhHFds.s:6382   .text.SEGGER_SYSVIEW_RecordEnterISR:0000000000000078 $d
     /tmp/ccJhHFds.s:6388   .text.SEGGER_SYSVIEW_RecordExitISR:0000000000000000 $t
     /tmp/ccJhHFds.s:6393   .text.SEGGER_SYSVIEW_RecordExitISR:0000000000000000 SEGGER_SYSVIEW_RecordExitISR
     /tmp/ccJhHFds.s:6448   .text.SEGGER_SYSVIEW_RecordExitISR:0000000000000034 $d
     /tmp/ccJhHFds.s:6453   .text.SEGGER_SYSVIEW_RecordExitISRToScheduler:0000000000000000 $t
     /tmp/ccJhHFds.s:6458   .text.SEGGER_SYSVIEW_RecordExitISRToScheduler:0000000000000000 SEGGER_SYSVIEW_RecordExitISRToScheduler
     /tmp/ccJhHFds.s:6513   .text.SEGGER_SYSVIEW_RecordExitISRToScheduler:0000000000000034 $d
     /tmp/ccJhHFds.s:6518   .text.SEGGER_SYSVIEW_RecordEnterTimer:0000000000000000 $t
     /tmp/ccJhHFds.s:6523   .text.SEGGER_SYSVIEW_RecordEnterTimer:0000000000000000 SEGGER_SYSVIEW_RecordEnterTimer
     /tmp/ccJhHFds.s:6621   .text.SEGGER_SYSVIEW_RecordEnterTimer:0000000000000078 $d
     /tmp/ccJhHFds.s:6627   .text.SEGGER_SYSVIEW_RecordExitTimer:0000000000000000 $t
     /tmp/ccJhHFds.s:6632   .text.SEGGER_SYSVIEW_RecordExitTimer:0000000000000000 SEGGER_SYSVIEW_RecordExitTimer
     /tmp/ccJhHFds.s:6687   .text.SEGGER_SYSVIEW_RecordExitTimer:0000000000000034 $d
     /tmp/ccJhHFds.s:6692   .text.SEGGER_SYSVIEW_RecordEndCall:0000000000000000 $t
     /tmp/ccJhHFds.s:6697   .text.SEGGER_SYSVIEW_RecordEndCall:0000000000000000 SEGGER_SYSVIEW_RecordEndCall
     /tmp/ccJhHFds.s:6791   .text.SEGGER_SYSVIEW_RecordEndCall:0000000000000070 $d
     /tmp/ccJhHFds.s:6796   .text.SEGGER_SYSVIEW_RecordEndCallU32:0000000000000000 $t
     /tmp/ccJhHFds.s:6801   .text.SEGGER_SYSVIEW_RecordEndCallU32:0000000000000000 SEGGER_SYSVIEW_RecordEndCallU32
     /tmp/ccJhHFds.s:6931   .text.SEGGER_SYSVIEW_RecordEndCallU32:00000000000000ac $d
     /tmp/ccJhHFds.s:6936   .text.SEGGER_SYSVIEW_OnIdle:0000000000000000 $t
     /tmp/ccJhHFds.s:6941   .text.SEGGER_SYSVIEW_OnIdle:0000000000000000 SEGGER_SYSVIEW_OnIdle
     /tmp/ccJhHFds.s:6996   .text.SEGGER_SYSVIEW_OnIdle:0000000000000034 $d
     /tmp/ccJhHFds.s:7001   .text.SEGGER_SYSVIEW_OnTaskCreate:0000000000000000 $t
     /tmp/ccJhHFds.s:7006   .text.SEGGER_SYSVIEW_OnTaskCreate:0000000000000000 SEGGER_SYSVIEW_OnTaskCreate
     /tmp/ccJhHFds.s:7107   .text.SEGGER_SYSVIEW_OnTaskCreate:000000000000007c $d
     /tmp/ccJhHFds.s:7113   .text.SEGGER_SYSVIEW_OnTaskTerminate:0000000000000000 $t
     /tmp/ccJhHFds.s:7118   .text.SEGGER_SYSVIEW_OnTaskTerminate:0000000000000000 SEGGER_SYSVIEW_OnTaskTerminate
     /tmp/ccJhHFds.s:7219   .text.SEGGER_SYSVIEW_OnTaskTerminate:000000000000007c $d
     /tmp/ccJhHFds.s:7225   .text.SEGGER_SYSVIEW_OnTaskStartExec:0000000000000000 $t
     /tmp/ccJhHFds.s:7230   .text.SEGGER_SYSVIEW_OnTaskStartExec:0000000000000000 SEGGER_SYSVIEW_OnTaskStartExec
     /tmp/ccJhHFds.s:7331   .text.SEGGER_SYSVIEW_OnTaskStartExec:000000000000007c $d
     /tmp/ccJhHFds.s:7337   .text.SEGGER_SYSVIEW_OnTaskStopExec:0000000000000000 $t
     /tmp/ccJhHFds.s:7342   .text.SEGGER_SYSVIEW_OnTaskStopExec:0000000000000000 SEGGER_SYSVIEW_OnTaskStopExec
     /tmp/ccJhHFds.s:7397   .text.SEGGER_SYSVIEW_OnTaskStopExec:0000000000000034 $d
     /tmp/ccJhHFds.s:7402   .text.SEGGER_SYSVIEW_OnTaskStartReady:0000000000000000 $t
     /tmp/ccJhHFds.s:7407   .text.SEGGER_SYSVIEW_OnTaskStartReady:0000000000000000 SEGGER_SYSVIEW_OnTaskStartReady
     /tmp/ccJhHFds.s:7508   .text.SEGGER_SYSVIEW_OnTaskStartReady:000000000000007c $d
     /tmp/ccJhHFds.s:7514   .text.SEGGER_SYSVIEW_OnTaskStopReady:0000000000000000 $t
     /tmp/ccJhHFds.s:7519   .text.SEGGER_SYSVIEW_OnTaskStopReady:0000000000000000 SEGGER_SYSVIEW_OnTaskStopReady
     /tmp/ccJhHFds.s:7656   .text.SEGGER_SYSVIEW_OnTaskStopReady:00000000000000b8 $d
     /tmp/ccJhHFds.s:7662   .text.SEGGER_SYSVIEW_OnUserStart:0000000000000000 $t
     /tmp/ccJhHFds.s:7667   .text.SEGGER_SYSVIEW_OnUserStart:0000000000000000 SEGGER_SYSVIEW_OnUserStart
     /tmp/ccJhHFds.s:7761   .text.SEGGER_SYSVIEW_OnUserStart:0000000000000070 $d
     /tmp/ccJhHFds.s:7766   .text.SEGGER_SYSVIEW_OnUserStop:0000000000000000 $t
     /tmp/ccJhHFds.s:7771   .text.SEGGER_SYSVIEW_OnUserStop:0000000000000000 SEGGER_SYSVIEW_OnUserStop
     /tmp/ccJhHFds.s:7865   .text.SEGGER_SYSVIEW_OnUserStop:0000000000000070 $d
     /tmp/ccJhHFds.s:7870   .text.SEGGER_SYSVIEW_NameResource:0000000000000000 $t
     /tmp/ccJhHFds.s:7875   .text.SEGGER_SYSVIEW_NameResource:0000000000000000 SEGGER_SYSVIEW_NameResource
     /tmp/ccJhHFds.s:7980   .text.SEGGER_SYSVIEW_NameResource:0000000000000088 $d
     /tmp/ccJhHFds.s:7986   .text.SEGGER_SYSVIEW_SendPacket:0000000000000000 $t
     /tmp/ccJhHFds.s:7991   .text.SEGGER_SYSVIEW_SendPacket:0000000000000000 SEGGER_SYSVIEW_SendPacket
     /tmp/ccJhHFds.s:8052   .text.SEGGER_SYSVIEW_EncodeU32:0000000000000000 $t
     /tmp/ccJhHFds.s:8057   .text.SEGGER_SYSVIEW_EncodeU32:0000000000000000 SEGGER_SYSVIEW_EncodeU32
     /tmp/ccJhHFds.s:8131   .text.SEGGER_SYSVIEW_EncodeString:0000000000000000 $t
     /tmp/ccJhHFds.s:8136   .text.SEGGER_SYSVIEW_EncodeString:0000000000000000 SEGGER_SYSVIEW_EncodeString
ARM GAS  /tmp/ccJhHFds.s 			page 229


     /tmp/ccJhHFds.s:8176   .text.SEGGER_SYSVIEW_EncodeData:0000000000000000 $t
     /tmp/ccJhHFds.s:8181   .text.SEGGER_SYSVIEW_EncodeData:0000000000000000 SEGGER_SYSVIEW_EncodeData
     /tmp/ccJhHFds.s:8221   .text.SEGGER_SYSVIEW_EncodeId:0000000000000000 $t
     /tmp/ccJhHFds.s:8226   .text.SEGGER_SYSVIEW_EncodeId:0000000000000000 SEGGER_SYSVIEW_EncodeId
     /tmp/ccJhHFds.s:8306   .text.SEGGER_SYSVIEW_EncodeId:000000000000005c $d
     /tmp/ccJhHFds.s:8311   .text.SEGGER_SYSVIEW_ShrinkId:0000000000000000 $t
     /tmp/ccJhHFds.s:8316   .text.SEGGER_SYSVIEW_ShrinkId:0000000000000000 SEGGER_SYSVIEW_ShrinkId
     /tmp/ccJhHFds.s:8357   .text.SEGGER_SYSVIEW_ShrinkId:0000000000000020 $d
     /tmp/ccJhHFds.s:8362   .text.SEGGER_SYSVIEW_RegisterModule:0000000000000000 $t
     /tmp/ccJhHFds.s:8367   .text.SEGGER_SYSVIEW_RegisterModule:0000000000000000 SEGGER_SYSVIEW_RegisterModule
     /tmp/ccJhHFds.s:8478   .text.SEGGER_SYSVIEW_RegisterModule:0000000000000088 $d
     /tmp/ccJhHFds.s:8484   .text.SEGGER_SYSVIEW_RecordModuleDescription:0000000000000000 $t
     /tmp/ccJhHFds.s:8489   .text.SEGGER_SYSVIEW_RecordModuleDescription:0000000000000000 SEGGER_SYSVIEW_RecordModuleDescription
     /tmp/ccJhHFds.s:8657   .text.SEGGER_SYSVIEW_RecordModuleDescription:00000000000000e8 $d
     /tmp/ccJhHFds.s:8663   .text.SEGGER_SYSVIEW_SendModule:0000000000000000 $t
     /tmp/ccJhHFds.s:8850   .text.SEGGER_SYSVIEW_SendModule:00000000000000f4 $d
     /tmp/ccJhHFds.s:8856   .text.SEGGER_SYSVIEW_SendModuleDescription:0000000000000000 $t
     /tmp/ccJhHFds.s:8919   .text.SEGGER_SYSVIEW_SendModuleDescription:0000000000000034 $d
     /tmp/ccJhHFds.s:8924   .text.SEGGER_SYSVIEW_SendNumModules:0000000000000000 $t
     /tmp/ccJhHFds.s:9023   .text.SEGGER_SYSVIEW_SendNumModules:0000000000000070 $d
     /tmp/ccJhHFds.s:9029   .text.SEGGER_SYSVIEW_PrintfHostEx:0000000000000000 $t
     /tmp/ccJhHFds.s:9034   .text.SEGGER_SYSVIEW_PrintfHostEx:0000000000000000 SEGGER_SYSVIEW_PrintfHostEx
     /tmp/ccJhHFds.s:9091   .text.SEGGER_SYSVIEW_PrintfHost:0000000000000000 $t
     /tmp/ccJhHFds.s:9096   .text.SEGGER_SYSVIEW_PrintfHost:0000000000000000 SEGGER_SYSVIEW_PrintfHost
     /tmp/ccJhHFds.s:9154   .text.SEGGER_SYSVIEW_WarnfHost:0000000000000000 $t
     /tmp/ccJhHFds.s:9159   .text.SEGGER_SYSVIEW_WarnfHost:0000000000000000 SEGGER_SYSVIEW_WarnfHost
     /tmp/ccJhHFds.s:9217   .text.SEGGER_SYSVIEW_ErrorfHost:0000000000000000 $t
     /tmp/ccJhHFds.s:9222   .text.SEGGER_SYSVIEW_ErrorfHost:0000000000000000 SEGGER_SYSVIEW_ErrorfHost
     /tmp/ccJhHFds.s:9280   .text.SEGGER_SYSVIEW_PrintfTargetEx:0000000000000000 $t
     /tmp/ccJhHFds.s:9285   .text.SEGGER_SYSVIEW_PrintfTargetEx:0000000000000000 SEGGER_SYSVIEW_PrintfTargetEx
     /tmp/ccJhHFds.s:9342   .text.SEGGER_SYSVIEW_PrintfTarget:0000000000000000 $t
     /tmp/ccJhHFds.s:9347   .text.SEGGER_SYSVIEW_PrintfTarget:0000000000000000 SEGGER_SYSVIEW_PrintfTarget
     /tmp/ccJhHFds.s:9405   .text.SEGGER_SYSVIEW_WarnfTarget:0000000000000000 $t
     /tmp/ccJhHFds.s:9410   .text.SEGGER_SYSVIEW_WarnfTarget:0000000000000000 SEGGER_SYSVIEW_WarnfTarget
     /tmp/ccJhHFds.s:9468   .text.SEGGER_SYSVIEW_ErrorfTarget:0000000000000000 $t
     /tmp/ccJhHFds.s:9473   .text.SEGGER_SYSVIEW_ErrorfTarget:0000000000000000 SEGGER_SYSVIEW_ErrorfTarget
     /tmp/ccJhHFds.s:9531   .text.SEGGER_SYSVIEW_Print:0000000000000000 $t
     /tmp/ccJhHFds.s:9536   .text.SEGGER_SYSVIEW_Print:0000000000000000 SEGGER_SYSVIEW_Print
     /tmp/ccJhHFds.s:9668   .text.SEGGER_SYSVIEW_Print:00000000000000b0 $d
     /tmp/ccJhHFds.s:9673   .text.SEGGER_SYSVIEW_Warn:0000000000000000 $t
     /tmp/ccJhHFds.s:9678   .text.SEGGER_SYSVIEW_Warn:0000000000000000 SEGGER_SYSVIEW_Warn
     /tmp/ccJhHFds.s:9810   .text.SEGGER_SYSVIEW_Warn:00000000000000b0 $d
     /tmp/ccJhHFds.s:9815   .text.SEGGER_SYSVIEW_Error:0000000000000000 $t
     /tmp/ccJhHFds.s:9820   .text.SEGGER_SYSVIEW_Error:0000000000000000 SEGGER_SYSVIEW_Error
     /tmp/ccJhHFds.s:9952   .text.SEGGER_SYSVIEW_Error:00000000000000b0 $d
     /tmp/ccJhHFds.s:9957   .text.SEGGER_SYSVIEW_EnableEvents:0000000000000000 $t
     /tmp/ccJhHFds.s:9962   .text.SEGGER_SYSVIEW_EnableEvents:0000000000000000 SEGGER_SYSVIEW_EnableEvents
     /tmp/ccJhHFds.s:10004  .text.SEGGER_SYSVIEW_EnableEvents:0000000000000020 $d
     /tmp/ccJhHFds.s:10009  .text.SEGGER_SYSVIEW_DisableEvents:0000000000000000 $t
     /tmp/ccJhHFds.s:10014  .text.SEGGER_SYSVIEW_DisableEvents:0000000000000000 SEGGER_SYSVIEW_DisableEvents
     /tmp/ccJhHFds.s:10055  .text.SEGGER_SYSVIEW_DisableEvents:0000000000000020 $d
     /tmp/ccJhHFds.s:10060  .rodata._aV2C.5453:0000000000000000 $d
                     .debug_frame:0000000000000010 $d

UNDEFINED SYMBOLS
SEGGER_RTT_ReadNoLock
SEGGER_RTT_WriteSkipNoLock
ARM GAS  /tmp/ccJhHFds.s 			page 230


_SEGGER_RTT
SEGGER_RTT_ConfigUpBuffer
SEGGER_RTT_ConfigDownBuffer
