ARM GAS  /tmp/cc3YVQL6.s 			page 1


   1              		.syntax unified
   2              		.cpu cortex-m7
   3              		.eabi_attribute 27, 1
   4              		.eabi_attribute 28, 1
   5              		.fpu fpv5-sp-d16
   6              		.eabi_attribute 20, 1
   7              		.eabi_attribute 21, 1
   8              		.eabi_attribute 23, 3
   9              		.eabi_attribute 24, 1
  10              		.eabi_attribute 25, 1
  11              		.eabi_attribute 26, 1
  12              		.eabi_attribute 30, 6
  13              		.eabi_attribute 34, 1
  14              		.eabi_attribute 18, 4
  15              		.thumb
  16              		.file	"stm32f7xx_hal_ltdc.c"
  17              		.text
  18              	.Ltext0:
  19              		.cfi_sections	.debug_frame
  20              		.section	.text.HAL_LTDC_Init,"ax",%progbits
  21              		.align	2
  22              		.global	HAL_LTDC_Init
  23              		.thumb
  24              		.thumb_func
  26              	HAL_LTDC_Init:
  27              	.LFB135:
  28              		.file 1 "../../Drivers/STM32F7xx_HAL_Driver/Src/stm32f7xx_hal_ltdc.c"
   1:../../Drivers/STM32F7xx_HAL_Driver/Src/stm32f7xx_hal_ltdc.c **** /**
   2:../../Drivers/STM32F7xx_HAL_Driver/Src/stm32f7xx_hal_ltdc.c ****   ******************************************************************************
   3:../../Drivers/STM32F7xx_HAL_Driver/Src/stm32f7xx_hal_ltdc.c ****   * @file    stm32f7xx_hal_ltdc.c
   4:../../Drivers/STM32F7xx_HAL_Driver/Src/stm32f7xx_hal_ltdc.c ****   * @author  MCD Application Team
   5:../../Drivers/STM32F7xx_HAL_Driver/Src/stm32f7xx_hal_ltdc.c ****   * @version V1.1.2
   6:../../Drivers/STM32F7xx_HAL_Driver/Src/stm32f7xx_hal_ltdc.c ****   * @date    23-September-2016 
   7:../../Drivers/STM32F7xx_HAL_Driver/Src/stm32f7xx_hal_ltdc.c ****   * @brief   LTDC HAL module driver.
   8:../../Drivers/STM32F7xx_HAL_Driver/Src/stm32f7xx_hal_ltdc.c ****   *          This file provides firmware functions to manage the following 
   9:../../Drivers/STM32F7xx_HAL_Driver/Src/stm32f7xx_hal_ltdc.c ****   *          functionalities of the LTDC peripheral:
  10:../../Drivers/STM32F7xx_HAL_Driver/Src/stm32f7xx_hal_ltdc.c ****   *           + Initialization and de-initialization functions
  11:../../Drivers/STM32F7xx_HAL_Driver/Src/stm32f7xx_hal_ltdc.c ****   *           + IO operation functions
  12:../../Drivers/STM32F7xx_HAL_Driver/Src/stm32f7xx_hal_ltdc.c ****   *           + Peripheral Control functions  
  13:../../Drivers/STM32F7xx_HAL_Driver/Src/stm32f7xx_hal_ltdc.c ****   *           + Peripheral State and Errors functions
  14:../../Drivers/STM32F7xx_HAL_Driver/Src/stm32f7xx_hal_ltdc.c ****   *           
  15:../../Drivers/STM32F7xx_HAL_Driver/Src/stm32f7xx_hal_ltdc.c ****   @verbatim      
  16:../../Drivers/STM32F7xx_HAL_Driver/Src/stm32f7xx_hal_ltdc.c ****   ==============================================================================
  17:../../Drivers/STM32F7xx_HAL_Driver/Src/stm32f7xx_hal_ltdc.c ****                         ##### How to use this driver #####
  18:../../Drivers/STM32F7xx_HAL_Driver/Src/stm32f7xx_hal_ltdc.c ****   ==============================================================================
  19:../../Drivers/STM32F7xx_HAL_Driver/Src/stm32f7xx_hal_ltdc.c ****     [..]
  20:../../Drivers/STM32F7xx_HAL_Driver/Src/stm32f7xx_hal_ltdc.c ****      (#) Program the required configuration through the following parameters:   
  21:../../Drivers/STM32F7xx_HAL_Driver/Src/stm32f7xx_hal_ltdc.c ****          the LTDC timing, the horizontal and vertical polarity, 
  22:../../Drivers/STM32F7xx_HAL_Driver/Src/stm32f7xx_hal_ltdc.c ****          the pixel clock polarity, Data Enable polarity and the LTDC background color value 
  23:../../Drivers/STM32F7xx_HAL_Driver/Src/stm32f7xx_hal_ltdc.c ****          using HAL_LTDC_Init() function
  24:../../Drivers/STM32F7xx_HAL_Driver/Src/stm32f7xx_hal_ltdc.c **** 
  25:../../Drivers/STM32F7xx_HAL_Driver/Src/stm32f7xx_hal_ltdc.c ****      (#) Program the required configuration through the following parameters:   
  26:../../Drivers/STM32F7xx_HAL_Driver/Src/stm32f7xx_hal_ltdc.c ****          the pixel format, the blending factors, input alpha value, the window size 
  27:../../Drivers/STM32F7xx_HAL_Driver/Src/stm32f7xx_hal_ltdc.c ****          and the image size using HAL_LTDC_ConfigLayer() function for foreground
  28:../../Drivers/STM32F7xx_HAL_Driver/Src/stm32f7xx_hal_ltdc.c ****          or/and background layer.     
  29:../../Drivers/STM32F7xx_HAL_Driver/Src/stm32f7xx_hal_ltdc.c ****   
  30:../../Drivers/STM32F7xx_HAL_Driver/Src/stm32f7xx_hal_ltdc.c ****      (#) Optionally, configure and enable the CLUT using HAL_LTDC_ConfigCLUT() and 
ARM GAS  /tmp/cc3YVQL6.s 			page 2


  31:../../Drivers/STM32F7xx_HAL_Driver/Src/stm32f7xx_hal_ltdc.c ****          HAL_LTDC_EnableCLUT functions.
  32:../../Drivers/STM32F7xx_HAL_Driver/Src/stm32f7xx_hal_ltdc.c ****        
  33:../../Drivers/STM32F7xx_HAL_Driver/Src/stm32f7xx_hal_ltdc.c ****      (#) Optionally, enable the Dither using HAL_LTDC_EnableDither().       
  34:../../Drivers/STM32F7xx_HAL_Driver/Src/stm32f7xx_hal_ltdc.c **** 
  35:../../Drivers/STM32F7xx_HAL_Driver/Src/stm32f7xx_hal_ltdc.c ****      (#) Optionally, configure and enable the Color keying using HAL_LTDC_ConfigColorKeying()
  36:../../Drivers/STM32F7xx_HAL_Driver/Src/stm32f7xx_hal_ltdc.c ****          and HAL_LTDC_EnableColorKeying functions.
  37:../../Drivers/STM32F7xx_HAL_Driver/Src/stm32f7xx_hal_ltdc.c **** 
  38:../../Drivers/STM32F7xx_HAL_Driver/Src/stm32f7xx_hal_ltdc.c ****      (#) Optionally, configure LineInterrupt using HAL_LTDC_ProgramLineEvent()
  39:../../Drivers/STM32F7xx_HAL_Driver/Src/stm32f7xx_hal_ltdc.c ****          function
  40:../../Drivers/STM32F7xx_HAL_Driver/Src/stm32f7xx_hal_ltdc.c **** 
  41:../../Drivers/STM32F7xx_HAL_Driver/Src/stm32f7xx_hal_ltdc.c ****      (#) If needed, reconfigure and change the pixel format value, the alpha value
  42:../../Drivers/STM32F7xx_HAL_Driver/Src/stm32f7xx_hal_ltdc.c ****          value, the window size, the window position and the layer start address 
  43:../../Drivers/STM32F7xx_HAL_Driver/Src/stm32f7xx_hal_ltdc.c ****          for foreground or/and background layer using respectively the following 
  44:../../Drivers/STM32F7xx_HAL_Driver/Src/stm32f7xx_hal_ltdc.c ****          functions: HAL_LTDC_SetPixelFormat(), HAL_LTDC_SetAlpha(), HAL_LTDC_SetWindowSize(),
  45:../../Drivers/STM32F7xx_HAL_Driver/Src/stm32f7xx_hal_ltdc.c ****          HAL_LTDC_SetWindowPosition(), HAL_LTDC_SetAddress.
  46:../../Drivers/STM32F7xx_HAL_Driver/Src/stm32f7xx_hal_ltdc.c **** 
  47:../../Drivers/STM32F7xx_HAL_Driver/Src/stm32f7xx_hal_ltdc.c ****      (#) Variant functions with "_NoReload" post fix allows to set the LTDC configuration/settings 
  48:../../Drivers/STM32F7xx_HAL_Driver/Src/stm32f7xx_hal_ltdc.c ****          This is useful in case when the program requires to modify serval LTDC settings (on one or
  49:../../Drivers/STM32F7xx_HAL_Driver/Src/stm32f7xx_hal_ltdc.c ****          then applying(reload) these settings in one shot by calling the function "HAL_LTDC_Reload"
  50:../../Drivers/STM32F7xx_HAL_Driver/Src/stm32f7xx_hal_ltdc.c **** 
  51:../../Drivers/STM32F7xx_HAL_Driver/Src/stm32f7xx_hal_ltdc.c ****          After calling the "_NoReload" functions to set different color/format/layer settings, 
  52:../../Drivers/STM32F7xx_HAL_Driver/Src/stm32f7xx_hal_ltdc.c ****          the program can call the function "HAL_LTDC_Reload" To apply(Reload) these settings. 
  53:../../Drivers/STM32F7xx_HAL_Driver/Src/stm32f7xx_hal_ltdc.c ****          Function "HAL_LTDC_Reload" can be called with the parameter "ReloadType" 
  54:../../Drivers/STM32F7xx_HAL_Driver/Src/stm32f7xx_hal_ltdc.c ****          set to LTDC_RELOAD_IMMEDIATE if an immediate reload is required.
  55:../../Drivers/STM32F7xx_HAL_Driver/Src/stm32f7xx_hal_ltdc.c ****          Function "HAL_LTDC_Reload" can be called with the parameter "ReloadType" 
  56:../../Drivers/STM32F7xx_HAL_Driver/Src/stm32f7xx_hal_ltdc.c ****          set to LTDC_RELOAD_VERTICAL_BLANKING if the reload should be done in the next vertical bla
  57:../../Drivers/STM32F7xx_HAL_Driver/Src/stm32f7xx_hal_ltdc.c ****          this option allows to avoid display flicker by applying the new settings during the vertic
  58:../../Drivers/STM32F7xx_HAL_Driver/Src/stm32f7xx_hal_ltdc.c ****            
  59:../../Drivers/STM32F7xx_HAL_Driver/Src/stm32f7xx_hal_ltdc.c ****                      
  60:../../Drivers/STM32F7xx_HAL_Driver/Src/stm32f7xx_hal_ltdc.c ****      (#) To control LTDC state you can use the following function: HAL_LTDC_GetState()             
  61:../../Drivers/STM32F7xx_HAL_Driver/Src/stm32f7xx_hal_ltdc.c **** 
  62:../../Drivers/STM32F7xx_HAL_Driver/Src/stm32f7xx_hal_ltdc.c ****      *** LTDC HAL driver macros list ***
  63:../../Drivers/STM32F7xx_HAL_Driver/Src/stm32f7xx_hal_ltdc.c ****      ============================================= 
  64:../../Drivers/STM32F7xx_HAL_Driver/Src/stm32f7xx_hal_ltdc.c ****      [..]
  65:../../Drivers/STM32F7xx_HAL_Driver/Src/stm32f7xx_hal_ltdc.c ****        Below the list of most used macros in LTDC HAL driver.
  66:../../Drivers/STM32F7xx_HAL_Driver/Src/stm32f7xx_hal_ltdc.c ****        
  67:../../Drivers/STM32F7xx_HAL_Driver/Src/stm32f7xx_hal_ltdc.c ****       (+) __HAL_LTDC_ENABLE: Enable the LTDC.
  68:../../Drivers/STM32F7xx_HAL_Driver/Src/stm32f7xx_hal_ltdc.c ****       (+) __HAL_LTDC_DISABLE: Disable the LTDC.
  69:../../Drivers/STM32F7xx_HAL_Driver/Src/stm32f7xx_hal_ltdc.c ****       (+) __HAL_LTDC_LAYER_ENABLE: Enable the LTDC Layer.
  70:../../Drivers/STM32F7xx_HAL_Driver/Src/stm32f7xx_hal_ltdc.c ****       (+) __HAL_LTDC_LAYER_DISABLE: Disable the LTDC Layer.
  71:../../Drivers/STM32F7xx_HAL_Driver/Src/stm32f7xx_hal_ltdc.c ****       (+) __HAL_LTDC_RELOAD_CONFIG: Reload  Layer Configuration.
  72:../../Drivers/STM32F7xx_HAL_Driver/Src/stm32f7xx_hal_ltdc.c ****       (+) __HAL_LTDC_GET_FLAG: Get the LTDC pending flags.
  73:../../Drivers/STM32F7xx_HAL_Driver/Src/stm32f7xx_hal_ltdc.c ****       (+) __HAL_LTDC_CLEAR_FLAG: Clear the LTDC pending flags.
  74:../../Drivers/STM32F7xx_HAL_Driver/Src/stm32f7xx_hal_ltdc.c ****       (+) __HAL_LTDC_ENABLE_IT: Enable the specified LTDC interrupts. 
  75:../../Drivers/STM32F7xx_HAL_Driver/Src/stm32f7xx_hal_ltdc.c ****       (+) __HAL_LTDC_DISABLE_IT: Disable the specified LTDC interrupts.
  76:../../Drivers/STM32F7xx_HAL_Driver/Src/stm32f7xx_hal_ltdc.c ****       (+) __HAL_LTDC_GET_IT_SOURCE: Check whether the specified LTDC interrupt has occurred or not.
  77:../../Drivers/STM32F7xx_HAL_Driver/Src/stm32f7xx_hal_ltdc.c ****       
  78:../../Drivers/STM32F7xx_HAL_Driver/Src/stm32f7xx_hal_ltdc.c ****      [..] 
  79:../../Drivers/STM32F7xx_HAL_Driver/Src/stm32f7xx_hal_ltdc.c ****        (@) You can refer to the LTDC HAL driver header file for more useful macros
  80:../../Drivers/STM32F7xx_HAL_Driver/Src/stm32f7xx_hal_ltdc.c ****   
  81:../../Drivers/STM32F7xx_HAL_Driver/Src/stm32f7xx_hal_ltdc.c ****   @endverbatim
  82:../../Drivers/STM32F7xx_HAL_Driver/Src/stm32f7xx_hal_ltdc.c ****   ******************************************************************************
  83:../../Drivers/STM32F7xx_HAL_Driver/Src/stm32f7xx_hal_ltdc.c ****   * @attention
  84:../../Drivers/STM32F7xx_HAL_Driver/Src/stm32f7xx_hal_ltdc.c ****   *
  85:../../Drivers/STM32F7xx_HAL_Driver/Src/stm32f7xx_hal_ltdc.c ****   * <h2><center>&copy; COPYRIGHT(c) 2016 STMicroelectronics</center></h2>
  86:../../Drivers/STM32F7xx_HAL_Driver/Src/stm32f7xx_hal_ltdc.c ****   *
  87:../../Drivers/STM32F7xx_HAL_Driver/Src/stm32f7xx_hal_ltdc.c ****   * Redistribution and use in source and binary forms, with or without modification,
ARM GAS  /tmp/cc3YVQL6.s 			page 3


  88:../../Drivers/STM32F7xx_HAL_Driver/Src/stm32f7xx_hal_ltdc.c ****   * are permitted provided that the following conditions are met:
  89:../../Drivers/STM32F7xx_HAL_Driver/Src/stm32f7xx_hal_ltdc.c ****   *   1. Redistributions of source code must retain the above copyright notice,
  90:../../Drivers/STM32F7xx_HAL_Driver/Src/stm32f7xx_hal_ltdc.c ****   *      this list of conditions and the following disclaimer.
  91:../../Drivers/STM32F7xx_HAL_Driver/Src/stm32f7xx_hal_ltdc.c ****   *   2. Redistributions in binary form must reproduce the above copyright notice,
  92:../../Drivers/STM32F7xx_HAL_Driver/Src/stm32f7xx_hal_ltdc.c ****   *      this list of conditions and the following disclaimer in the documentation
  93:../../Drivers/STM32F7xx_HAL_Driver/Src/stm32f7xx_hal_ltdc.c ****   *      and/or other materials provided with the distribution.
  94:../../Drivers/STM32F7xx_HAL_Driver/Src/stm32f7xx_hal_ltdc.c ****   *   3. Neither the name of STMicroelectronics nor the names of its contributors
  95:../../Drivers/STM32F7xx_HAL_Driver/Src/stm32f7xx_hal_ltdc.c ****   *      may be used to endorse or promote products derived from this software
  96:../../Drivers/STM32F7xx_HAL_Driver/Src/stm32f7xx_hal_ltdc.c ****   *      without specific prior written permission.
  97:../../Drivers/STM32F7xx_HAL_Driver/Src/stm32f7xx_hal_ltdc.c ****   *
  98:../../Drivers/STM32F7xx_HAL_Driver/Src/stm32f7xx_hal_ltdc.c ****   * THIS SOFTWARE IS PROVIDED BY THE COPYRIGHT HOLDERS AND CONTRIBUTORS "AS IS"
  99:../../Drivers/STM32F7xx_HAL_Driver/Src/stm32f7xx_hal_ltdc.c ****   * AND ANY EXPRESS OR IMPLIED WARRANTIES, INCLUDING, BUT NOT LIMITED TO, THE
 100:../../Drivers/STM32F7xx_HAL_Driver/Src/stm32f7xx_hal_ltdc.c ****   * IMPLIED WARRANTIES OF MERCHANTABILITY AND FITNESS FOR A PARTICULAR PURPOSE ARE
 101:../../Drivers/STM32F7xx_HAL_Driver/Src/stm32f7xx_hal_ltdc.c ****   * DISCLAIMED. IN NO EVENT SHALL THE COPYRIGHT HOLDER OR CONTRIBUTORS BE LIABLE
 102:../../Drivers/STM32F7xx_HAL_Driver/Src/stm32f7xx_hal_ltdc.c ****   * FOR ANY DIRECT, INDIRECT, INCIDENTAL, SPECIAL, EXEMPLARY, OR CONSEQUENTIAL
 103:../../Drivers/STM32F7xx_HAL_Driver/Src/stm32f7xx_hal_ltdc.c ****   * DAMAGES (INCLUDING, BUT NOT LIMITED TO, PROCUREMENT OF SUBSTITUTE GOODS OR
 104:../../Drivers/STM32F7xx_HAL_Driver/Src/stm32f7xx_hal_ltdc.c ****   * SERVICES; LOSS OF USE, DATA, OR PROFITS; OR BUSINESS INTERRUPTION) HOWEVER
 105:../../Drivers/STM32F7xx_HAL_Driver/Src/stm32f7xx_hal_ltdc.c ****   * CAUSED AND ON ANY THEORY OF LIABILITY, WHETHER IN CONTRACT, STRICT LIABILITY,
 106:../../Drivers/STM32F7xx_HAL_Driver/Src/stm32f7xx_hal_ltdc.c ****   * OR TORT (INCLUDING NEGLIGENCE OR OTHERWISE) ARISING IN ANY WAY OUT OF THE USE
 107:../../Drivers/STM32F7xx_HAL_Driver/Src/stm32f7xx_hal_ltdc.c ****   * OF THIS SOFTWARE, EVEN IF ADVISED OF THE POSSIBILITY OF SUCH DAMAGE.
 108:../../Drivers/STM32F7xx_HAL_Driver/Src/stm32f7xx_hal_ltdc.c ****   *
 109:../../Drivers/STM32F7xx_HAL_Driver/Src/stm32f7xx_hal_ltdc.c ****   ******************************************************************************
 110:../../Drivers/STM32F7xx_HAL_Driver/Src/stm32f7xx_hal_ltdc.c ****   */ 
 111:../../Drivers/STM32F7xx_HAL_Driver/Src/stm32f7xx_hal_ltdc.c **** 
 112:../../Drivers/STM32F7xx_HAL_Driver/Src/stm32f7xx_hal_ltdc.c **** /* Includes ------------------------------------------------------------------*/
 113:../../Drivers/STM32F7xx_HAL_Driver/Src/stm32f7xx_hal_ltdc.c **** #include "stm32f7xx_hal.h"
 114:../../Drivers/STM32F7xx_HAL_Driver/Src/stm32f7xx_hal_ltdc.c **** 
 115:../../Drivers/STM32F7xx_HAL_Driver/Src/stm32f7xx_hal_ltdc.c **** /** @addtogroup STM32F7xx_HAL_Driver
 116:../../Drivers/STM32F7xx_HAL_Driver/Src/stm32f7xx_hal_ltdc.c ****   * @{
 117:../../Drivers/STM32F7xx_HAL_Driver/Src/stm32f7xx_hal_ltdc.c ****   */
 118:../../Drivers/STM32F7xx_HAL_Driver/Src/stm32f7xx_hal_ltdc.c **** #if defined (STM32F746xx) || defined (STM32F756xx) || defined (STM32F767xx) || defined (STM32F769xx
 119:../../Drivers/STM32F7xx_HAL_Driver/Src/stm32f7xx_hal_ltdc.c **** 
 120:../../Drivers/STM32F7xx_HAL_Driver/Src/stm32f7xx_hal_ltdc.c **** /** @defgroup LTDC LTDC
 121:../../Drivers/STM32F7xx_HAL_Driver/Src/stm32f7xx_hal_ltdc.c ****   * @brief LTDC HAL module driver
 122:../../Drivers/STM32F7xx_HAL_Driver/Src/stm32f7xx_hal_ltdc.c ****   * @{
 123:../../Drivers/STM32F7xx_HAL_Driver/Src/stm32f7xx_hal_ltdc.c ****   */
 124:../../Drivers/STM32F7xx_HAL_Driver/Src/stm32f7xx_hal_ltdc.c **** 
 125:../../Drivers/STM32F7xx_HAL_Driver/Src/stm32f7xx_hal_ltdc.c **** #ifdef HAL_LTDC_MODULE_ENABLED
 126:../../Drivers/STM32F7xx_HAL_Driver/Src/stm32f7xx_hal_ltdc.c **** 
 127:../../Drivers/STM32F7xx_HAL_Driver/Src/stm32f7xx_hal_ltdc.c **** /* Private typedef -----------------------------------------------------------*/
 128:../../Drivers/STM32F7xx_HAL_Driver/Src/stm32f7xx_hal_ltdc.c **** /* Private define ------------------------------------------------------------*/
 129:../../Drivers/STM32F7xx_HAL_Driver/Src/stm32f7xx_hal_ltdc.c **** /* Private macro -------------------------------------------------------------*/
 130:../../Drivers/STM32F7xx_HAL_Driver/Src/stm32f7xx_hal_ltdc.c **** /* Private variables ---------------------------------------------------------*/    
 131:../../Drivers/STM32F7xx_HAL_Driver/Src/stm32f7xx_hal_ltdc.c **** /* Private function prototypes -----------------------------------------------*/
 132:../../Drivers/STM32F7xx_HAL_Driver/Src/stm32f7xx_hal_ltdc.c **** static void LTDC_SetConfig(LTDC_HandleTypeDef *hltdc, LTDC_LayerCfgTypeDef *pLayerCfg, uint32_t Lay
 133:../../Drivers/STM32F7xx_HAL_Driver/Src/stm32f7xx_hal_ltdc.c **** /* Private functions ---------------------------------------------------------*/
 134:../../Drivers/STM32F7xx_HAL_Driver/Src/stm32f7xx_hal_ltdc.c **** 
 135:../../Drivers/STM32F7xx_HAL_Driver/Src/stm32f7xx_hal_ltdc.c **** /** @defgroup LTDC_Exported_Functions LTDC Exported Functions
 136:../../Drivers/STM32F7xx_HAL_Driver/Src/stm32f7xx_hal_ltdc.c ****   * @{
 137:../../Drivers/STM32F7xx_HAL_Driver/Src/stm32f7xx_hal_ltdc.c ****   */
 138:../../Drivers/STM32F7xx_HAL_Driver/Src/stm32f7xx_hal_ltdc.c **** 
 139:../../Drivers/STM32F7xx_HAL_Driver/Src/stm32f7xx_hal_ltdc.c **** /** @defgroup LTDC_Exported_Functions_Group1 Initialization and Configuration functions
 140:../../Drivers/STM32F7xx_HAL_Driver/Src/stm32f7xx_hal_ltdc.c ****  *  @brief   Initialization and Configuration functions
 141:../../Drivers/STM32F7xx_HAL_Driver/Src/stm32f7xx_hal_ltdc.c ****  *
 142:../../Drivers/STM32F7xx_HAL_Driver/Src/stm32f7xx_hal_ltdc.c **** @verbatim   
 143:../../Drivers/STM32F7xx_HAL_Driver/Src/stm32f7xx_hal_ltdc.c ****  ===============================================================================
 144:../../Drivers/STM32F7xx_HAL_Driver/Src/stm32f7xx_hal_ltdc.c ****                 ##### Initialization and Configuration functions #####
ARM GAS  /tmp/cc3YVQL6.s 			page 4


 145:../../Drivers/STM32F7xx_HAL_Driver/Src/stm32f7xx_hal_ltdc.c ****  ===============================================================================  
 146:../../Drivers/STM32F7xx_HAL_Driver/Src/stm32f7xx_hal_ltdc.c ****     [..]  This section provides functions allowing to:
 147:../../Drivers/STM32F7xx_HAL_Driver/Src/stm32f7xx_hal_ltdc.c ****       (+) Initialize and configure the LTDC
 148:../../Drivers/STM32F7xx_HAL_Driver/Src/stm32f7xx_hal_ltdc.c ****       (+) De-initialize the LTDC 
 149:../../Drivers/STM32F7xx_HAL_Driver/Src/stm32f7xx_hal_ltdc.c **** 
 150:../../Drivers/STM32F7xx_HAL_Driver/Src/stm32f7xx_hal_ltdc.c **** @endverbatim
 151:../../Drivers/STM32F7xx_HAL_Driver/Src/stm32f7xx_hal_ltdc.c ****   * @{
 152:../../Drivers/STM32F7xx_HAL_Driver/Src/stm32f7xx_hal_ltdc.c ****   */
 153:../../Drivers/STM32F7xx_HAL_Driver/Src/stm32f7xx_hal_ltdc.c ****   
 154:../../Drivers/STM32F7xx_HAL_Driver/Src/stm32f7xx_hal_ltdc.c **** /**
 155:../../Drivers/STM32F7xx_HAL_Driver/Src/stm32f7xx_hal_ltdc.c ****   * @brief  Initializes the LTDC according to the specified
 156:../../Drivers/STM32F7xx_HAL_Driver/Src/stm32f7xx_hal_ltdc.c ****   *         parameters in the LTDC_InitTypeDef and create the associated handle.
 157:../../Drivers/STM32F7xx_HAL_Driver/Src/stm32f7xx_hal_ltdc.c ****   * @param  hltdc: pointer to a LTDC_HandleTypeDef structure that contains
 158:../../Drivers/STM32F7xx_HAL_Driver/Src/stm32f7xx_hal_ltdc.c ****   *                the configuration information for the LTDC.
 159:../../Drivers/STM32F7xx_HAL_Driver/Src/stm32f7xx_hal_ltdc.c ****   * @retval HAL status
 160:../../Drivers/STM32F7xx_HAL_Driver/Src/stm32f7xx_hal_ltdc.c ****   */
 161:../../Drivers/STM32F7xx_HAL_Driver/Src/stm32f7xx_hal_ltdc.c **** HAL_StatusTypeDef HAL_LTDC_Init(LTDC_HandleTypeDef *hltdc)
 162:../../Drivers/STM32F7xx_HAL_Driver/Src/stm32f7xx_hal_ltdc.c **** {
  29              		.loc 1 162 0
  30              		.cfi_startproc
  31              		@ args = 0, pretend = 0, frame = 16
  32              		@ frame_needed = 1, uses_anonymous_args = 0
  33 0000 80B5     		push	{r7, lr}
  34              	.LCFI0:
  35              		.cfi_def_cfa_offset 8
  36              		.cfi_offset 7, -8
  37              		.cfi_offset 14, -4
  38 0002 84B0     		sub	sp, sp, #16
  39              	.LCFI1:
  40              		.cfi_def_cfa_offset 24
  41 0004 00AF     		add	r7, sp, #0
  42              	.LCFI2:
  43              		.cfi_def_cfa_register 7
  44 0006 7860     		str	r0, [r7, #4]
 163:../../Drivers/STM32F7xx_HAL_Driver/Src/stm32f7xx_hal_ltdc.c ****   uint32_t tmp = 0, tmp1 = 0;
  45              		.loc 1 163 0
  46 0008 0023     		movs	r3, #0
  47 000a FB60     		str	r3, [r7, #12]
  48 000c 0023     		movs	r3, #0
  49 000e BB60     		str	r3, [r7, #8]
 164:../../Drivers/STM32F7xx_HAL_Driver/Src/stm32f7xx_hal_ltdc.c **** 
 165:../../Drivers/STM32F7xx_HAL_Driver/Src/stm32f7xx_hal_ltdc.c ****   /* Check the LTDC peripheral state */
 166:../../Drivers/STM32F7xx_HAL_Driver/Src/stm32f7xx_hal_ltdc.c ****   if(hltdc == NULL)
  50              		.loc 1 166 0
  51 0010 7B68     		ldr	r3, [r7, #4]
  52 0012 002B     		cmp	r3, #0
  53 0014 01D1     		bne	.L2
 167:../../Drivers/STM32F7xx_HAL_Driver/Src/stm32f7xx_hal_ltdc.c ****   {
 168:../../Drivers/STM32F7xx_HAL_Driver/Src/stm32f7xx_hal_ltdc.c ****     return HAL_ERROR;
  54              		.loc 1 168 0
  55 0016 0123     		movs	r3, #1
  56 0018 C7E0     		b	.L3
  57              	.L2:
 169:../../Drivers/STM32F7xx_HAL_Driver/Src/stm32f7xx_hal_ltdc.c ****   }
 170:../../Drivers/STM32F7xx_HAL_Driver/Src/stm32f7xx_hal_ltdc.c **** 
 171:../../Drivers/STM32F7xx_HAL_Driver/Src/stm32f7xx_hal_ltdc.c ****   /* Check function parameters */
 172:../../Drivers/STM32F7xx_HAL_Driver/Src/stm32f7xx_hal_ltdc.c ****   assert_param(IS_LTDC_ALL_INSTANCE(hltdc->Instance));
ARM GAS  /tmp/cc3YVQL6.s 			page 5


 173:../../Drivers/STM32F7xx_HAL_Driver/Src/stm32f7xx_hal_ltdc.c ****   assert_param(IS_LTDC_HSYNC(hltdc->Init.HorizontalSync));
 174:../../Drivers/STM32F7xx_HAL_Driver/Src/stm32f7xx_hal_ltdc.c ****   assert_param(IS_LTDC_VSYNC(hltdc->Init.VerticalSync));
 175:../../Drivers/STM32F7xx_HAL_Driver/Src/stm32f7xx_hal_ltdc.c ****   assert_param(IS_LTDC_AHBP(hltdc->Init.AccumulatedHBP));
 176:../../Drivers/STM32F7xx_HAL_Driver/Src/stm32f7xx_hal_ltdc.c ****   assert_param(IS_LTDC_AVBP(hltdc->Init.AccumulatedVBP));
 177:../../Drivers/STM32F7xx_HAL_Driver/Src/stm32f7xx_hal_ltdc.c ****   assert_param(IS_LTDC_AAH(hltdc->Init.AccumulatedActiveH));
 178:../../Drivers/STM32F7xx_HAL_Driver/Src/stm32f7xx_hal_ltdc.c ****   assert_param(IS_LTDC_AAW(hltdc->Init.AccumulatedActiveW));
 179:../../Drivers/STM32F7xx_HAL_Driver/Src/stm32f7xx_hal_ltdc.c ****   assert_param(IS_LTDC_TOTALH(hltdc->Init.TotalHeigh));
 180:../../Drivers/STM32F7xx_HAL_Driver/Src/stm32f7xx_hal_ltdc.c ****   assert_param(IS_LTDC_TOTALW(hltdc->Init.TotalWidth));
 181:../../Drivers/STM32F7xx_HAL_Driver/Src/stm32f7xx_hal_ltdc.c ****   assert_param(IS_LTDC_HSPOL(hltdc->Init.HSPolarity));
 182:../../Drivers/STM32F7xx_HAL_Driver/Src/stm32f7xx_hal_ltdc.c ****   assert_param(IS_LTDC_VSPOL(hltdc->Init.VSPolarity));
 183:../../Drivers/STM32F7xx_HAL_Driver/Src/stm32f7xx_hal_ltdc.c ****   assert_param(IS_LTDC_DEPOL(hltdc->Init.DEPolarity));
 184:../../Drivers/STM32F7xx_HAL_Driver/Src/stm32f7xx_hal_ltdc.c ****   assert_param(IS_LTDC_PCPOL(hltdc->Init.PCPolarity));
 185:../../Drivers/STM32F7xx_HAL_Driver/Src/stm32f7xx_hal_ltdc.c **** 
 186:../../Drivers/STM32F7xx_HAL_Driver/Src/stm32f7xx_hal_ltdc.c ****   if(hltdc->State == HAL_LTDC_STATE_RESET)
  58              		.loc 1 186 0
  59 001a 7B68     		ldr	r3, [r7, #4]
  60 001c 93F8A130 		ldrb	r3, [r3, #161]
  61 0020 DBB2     		uxtb	r3, r3
  62 0022 002B     		cmp	r3, #0
  63 0024 06D1     		bne	.L4
 187:../../Drivers/STM32F7xx_HAL_Driver/Src/stm32f7xx_hal_ltdc.c ****   {
 188:../../Drivers/STM32F7xx_HAL_Driver/Src/stm32f7xx_hal_ltdc.c ****     /* Allocate lock resource and initialize it */
 189:../../Drivers/STM32F7xx_HAL_Driver/Src/stm32f7xx_hal_ltdc.c ****     hltdc->Lock = HAL_UNLOCKED;
  64              		.loc 1 189 0
  65 0026 7B68     		ldr	r3, [r7, #4]
  66 0028 0022     		movs	r2, #0
  67 002a 83F8A020 		strb	r2, [r3, #160]
 190:../../Drivers/STM32F7xx_HAL_Driver/Src/stm32f7xx_hal_ltdc.c ****     /* Init the low level hardware */
 191:../../Drivers/STM32F7xx_HAL_Driver/Src/stm32f7xx_hal_ltdc.c ****     HAL_LTDC_MspInit(hltdc);
  68              		.loc 1 191 0
  69 002e 7868     		ldr	r0, [r7, #4]
  70 0030 FFF7FEFF 		bl	HAL_LTDC_MspInit
  71              	.L4:
 192:../../Drivers/STM32F7xx_HAL_Driver/Src/stm32f7xx_hal_ltdc.c ****   }
 193:../../Drivers/STM32F7xx_HAL_Driver/Src/stm32f7xx_hal_ltdc.c ****   
 194:../../Drivers/STM32F7xx_HAL_Driver/Src/stm32f7xx_hal_ltdc.c ****   /* Change LTDC peripheral state */
 195:../../Drivers/STM32F7xx_HAL_Driver/Src/stm32f7xx_hal_ltdc.c ****   hltdc->State = HAL_LTDC_STATE_BUSY;
  72              		.loc 1 195 0
  73 0034 7B68     		ldr	r3, [r7, #4]
  74 0036 0222     		movs	r2, #2
  75 0038 83F8A120 		strb	r2, [r3, #161]
 196:../../Drivers/STM32F7xx_HAL_Driver/Src/stm32f7xx_hal_ltdc.c **** 
 197:../../Drivers/STM32F7xx_HAL_Driver/Src/stm32f7xx_hal_ltdc.c ****   /* Configures the HS, VS, DE and PC polarity */
 198:../../Drivers/STM32F7xx_HAL_Driver/Src/stm32f7xx_hal_ltdc.c ****   hltdc->Instance->GCR &= ~(LTDC_GCR_HSPOL | LTDC_GCR_VSPOL | LTDC_GCR_DEPOL | LTDC_GCR_PCPOL);
  76              		.loc 1 198 0
  77 003c 7B68     		ldr	r3, [r7, #4]
  78 003e 1B68     		ldr	r3, [r3]
  79 0040 7A68     		ldr	r2, [r7, #4]
  80 0042 1268     		ldr	r2, [r2]
  81 0044 9269     		ldr	r2, [r2, #24]
  82 0046 22F07042 		bic	r2, r2, #-268435456
  83 004a 9A61     		str	r2, [r3, #24]
 199:../../Drivers/STM32F7xx_HAL_Driver/Src/stm32f7xx_hal_ltdc.c ****   hltdc->Instance->GCR |=  (uint32_t)(hltdc->Init.HSPolarity | hltdc->Init.VSPolarity | \
  84              		.loc 1 199 0
  85 004c 7B68     		ldr	r3, [r7, #4]
  86 004e 1B68     		ldr	r3, [r3]
  87 0050 7A68     		ldr	r2, [r7, #4]
ARM GAS  /tmp/cc3YVQL6.s 			page 6


  88 0052 1268     		ldr	r2, [r2]
  89 0054 9169     		ldr	r1, [r2, #24]
  90 0056 7A68     		ldr	r2, [r7, #4]
  91 0058 5068     		ldr	r0, [r2, #4]
  92 005a 7A68     		ldr	r2, [r7, #4]
  93 005c 9268     		ldr	r2, [r2, #8]
  94 005e 1043     		orrs	r0, r0, r2
 200:../../Drivers/STM32F7xx_HAL_Driver/Src/stm32f7xx_hal_ltdc.c ****   hltdc->Init.DEPolarity | hltdc->Init.PCPolarity);
  95              		.loc 1 200 0
  96 0060 7A68     		ldr	r2, [r7, #4]
  97 0062 D268     		ldr	r2, [r2, #12]
 199:../../Drivers/STM32F7xx_HAL_Driver/Src/stm32f7xx_hal_ltdc.c ****   hltdc->Instance->GCR |=  (uint32_t)(hltdc->Init.HSPolarity | hltdc->Init.VSPolarity | \
  98              		.loc 1 199 0
  99 0064 1043     		orrs	r0, r0, r2
 100              		.loc 1 200 0
 101 0066 7A68     		ldr	r2, [r7, #4]
 102 0068 1269     		ldr	r2, [r2, #16]
 199:../../Drivers/STM32F7xx_HAL_Driver/Src/stm32f7xx_hal_ltdc.c ****   hltdc->Instance->GCR |=  (uint32_t)(hltdc->Init.HSPolarity | hltdc->Init.VSPolarity | \
 103              		.loc 1 199 0
 104 006a 0243     		orrs	r2, r2, r0
 105 006c 0A43     		orrs	r2, r2, r1
 106 006e 9A61     		str	r2, [r3, #24]
 201:../../Drivers/STM32F7xx_HAL_Driver/Src/stm32f7xx_hal_ltdc.c **** 
 202:../../Drivers/STM32F7xx_HAL_Driver/Src/stm32f7xx_hal_ltdc.c ****   /* Sets Synchronization size */
 203:../../Drivers/STM32F7xx_HAL_Driver/Src/stm32f7xx_hal_ltdc.c ****   hltdc->Instance->SSCR &= ~(LTDC_SSCR_VSH | LTDC_SSCR_HSW);
 107              		.loc 1 203 0
 108 0070 7B68     		ldr	r3, [r7, #4]
 109 0072 1A68     		ldr	r2, [r3]
 110 0074 7B68     		ldr	r3, [r7, #4]
 111 0076 1B68     		ldr	r3, [r3]
 112 0078 9968     		ldr	r1, [r3, #8]
 113 007a 4E4B     		ldr	r3, .L5
 114 007c 0B40     		ands	r3, r3, r1
 115 007e 9360     		str	r3, [r2, #8]
 204:../../Drivers/STM32F7xx_HAL_Driver/Src/stm32f7xx_hal_ltdc.c ****   tmp = (hltdc->Init.HorizontalSync << 16);
 116              		.loc 1 204 0
 117 0080 7B68     		ldr	r3, [r7, #4]
 118 0082 5B69     		ldr	r3, [r3, #20]
 119 0084 1B04     		lsls	r3, r3, #16
 120 0086 FB60     		str	r3, [r7, #12]
 205:../../Drivers/STM32F7xx_HAL_Driver/Src/stm32f7xx_hal_ltdc.c ****   hltdc->Instance->SSCR |= (tmp | hltdc->Init.VerticalSync);
 121              		.loc 1 205 0
 122 0088 7B68     		ldr	r3, [r7, #4]
 123 008a 1B68     		ldr	r3, [r3]
 124 008c 7A68     		ldr	r2, [r7, #4]
 125 008e 1268     		ldr	r2, [r2]
 126 0090 9168     		ldr	r1, [r2, #8]
 127 0092 7A68     		ldr	r2, [r7, #4]
 128 0094 9069     		ldr	r0, [r2, #24]
 129 0096 FA68     		ldr	r2, [r7, #12]
 130 0098 0243     		orrs	r2, r2, r0
 131 009a 0A43     		orrs	r2, r2, r1
 132 009c 9A60     		str	r2, [r3, #8]
 206:../../Drivers/STM32F7xx_HAL_Driver/Src/stm32f7xx_hal_ltdc.c **** 
 207:../../Drivers/STM32F7xx_HAL_Driver/Src/stm32f7xx_hal_ltdc.c ****   /* Sets Accumulated Back porch */
 208:../../Drivers/STM32F7xx_HAL_Driver/Src/stm32f7xx_hal_ltdc.c ****   hltdc->Instance->BPCR &= ~(LTDC_BPCR_AVBP | LTDC_BPCR_AHBP);
 133              		.loc 1 208 0
ARM GAS  /tmp/cc3YVQL6.s 			page 7


 134 009e 7B68     		ldr	r3, [r7, #4]
 135 00a0 1A68     		ldr	r2, [r3]
 136 00a2 7B68     		ldr	r3, [r7, #4]
 137 00a4 1B68     		ldr	r3, [r3]
 138 00a6 D968     		ldr	r1, [r3, #12]
 139 00a8 424B     		ldr	r3, .L5
 140 00aa 0B40     		ands	r3, r3, r1
 141 00ac D360     		str	r3, [r2, #12]
 209:../../Drivers/STM32F7xx_HAL_Driver/Src/stm32f7xx_hal_ltdc.c ****   tmp = (hltdc->Init.AccumulatedHBP << 16);
 142              		.loc 1 209 0
 143 00ae 7B68     		ldr	r3, [r7, #4]
 144 00b0 DB69     		ldr	r3, [r3, #28]
 145 00b2 1B04     		lsls	r3, r3, #16
 146 00b4 FB60     		str	r3, [r7, #12]
 210:../../Drivers/STM32F7xx_HAL_Driver/Src/stm32f7xx_hal_ltdc.c ****   hltdc->Instance->BPCR |= (tmp | hltdc->Init.AccumulatedVBP);
 147              		.loc 1 210 0
 148 00b6 7B68     		ldr	r3, [r7, #4]
 149 00b8 1B68     		ldr	r3, [r3]
 150 00ba 7A68     		ldr	r2, [r7, #4]
 151 00bc 1268     		ldr	r2, [r2]
 152 00be D168     		ldr	r1, [r2, #12]
 153 00c0 7A68     		ldr	r2, [r7, #4]
 154 00c2 106A     		ldr	r0, [r2, #32]
 155 00c4 FA68     		ldr	r2, [r7, #12]
 156 00c6 0243     		orrs	r2, r2, r0
 157 00c8 0A43     		orrs	r2, r2, r1
 158 00ca DA60     		str	r2, [r3, #12]
 211:../../Drivers/STM32F7xx_HAL_Driver/Src/stm32f7xx_hal_ltdc.c **** 
 212:../../Drivers/STM32F7xx_HAL_Driver/Src/stm32f7xx_hal_ltdc.c ****   /* Sets Accumulated Active Width */
 213:../../Drivers/STM32F7xx_HAL_Driver/Src/stm32f7xx_hal_ltdc.c ****   hltdc->Instance->AWCR &= ~(LTDC_AWCR_AAH | LTDC_AWCR_AAW);
 159              		.loc 1 213 0
 160 00cc 7B68     		ldr	r3, [r7, #4]
 161 00ce 1A68     		ldr	r2, [r3]
 162 00d0 7B68     		ldr	r3, [r7, #4]
 163 00d2 1B68     		ldr	r3, [r3]
 164 00d4 1969     		ldr	r1, [r3, #16]
 165 00d6 374B     		ldr	r3, .L5
 166 00d8 0B40     		ands	r3, r3, r1
 167 00da 1361     		str	r3, [r2, #16]
 214:../../Drivers/STM32F7xx_HAL_Driver/Src/stm32f7xx_hal_ltdc.c ****   tmp = (hltdc->Init.AccumulatedActiveW << 16);
 168              		.loc 1 214 0
 169 00dc 7B68     		ldr	r3, [r7, #4]
 170 00de 5B6A     		ldr	r3, [r3, #36]
 171 00e0 1B04     		lsls	r3, r3, #16
 172 00e2 FB60     		str	r3, [r7, #12]
 215:../../Drivers/STM32F7xx_HAL_Driver/Src/stm32f7xx_hal_ltdc.c ****   hltdc->Instance->AWCR |= (tmp | hltdc->Init.AccumulatedActiveH);
 173              		.loc 1 215 0
 174 00e4 7B68     		ldr	r3, [r7, #4]
 175 00e6 1B68     		ldr	r3, [r3]
 176 00e8 7A68     		ldr	r2, [r7, #4]
 177 00ea 1268     		ldr	r2, [r2]
 178 00ec 1169     		ldr	r1, [r2, #16]
 179 00ee 7A68     		ldr	r2, [r7, #4]
 180 00f0 906A     		ldr	r0, [r2, #40]
 181 00f2 FA68     		ldr	r2, [r7, #12]
 182 00f4 0243     		orrs	r2, r2, r0
 183 00f6 0A43     		orrs	r2, r2, r1
ARM GAS  /tmp/cc3YVQL6.s 			page 8


 184 00f8 1A61     		str	r2, [r3, #16]
 216:../../Drivers/STM32F7xx_HAL_Driver/Src/stm32f7xx_hal_ltdc.c **** 
 217:../../Drivers/STM32F7xx_HAL_Driver/Src/stm32f7xx_hal_ltdc.c ****   /* Sets Total Width */
 218:../../Drivers/STM32F7xx_HAL_Driver/Src/stm32f7xx_hal_ltdc.c ****   hltdc->Instance->TWCR &= ~(LTDC_TWCR_TOTALH | LTDC_TWCR_TOTALW);
 185              		.loc 1 218 0
 186 00fa 7B68     		ldr	r3, [r7, #4]
 187 00fc 1A68     		ldr	r2, [r3]
 188 00fe 7B68     		ldr	r3, [r7, #4]
 189 0100 1B68     		ldr	r3, [r3]
 190 0102 5969     		ldr	r1, [r3, #20]
 191 0104 2B4B     		ldr	r3, .L5
 192 0106 0B40     		ands	r3, r3, r1
 193 0108 5361     		str	r3, [r2, #20]
 219:../../Drivers/STM32F7xx_HAL_Driver/Src/stm32f7xx_hal_ltdc.c ****   tmp = (hltdc->Init.TotalWidth << 16);
 194              		.loc 1 219 0
 195 010a 7B68     		ldr	r3, [r7, #4]
 196 010c DB6A     		ldr	r3, [r3, #44]
 197 010e 1B04     		lsls	r3, r3, #16
 198 0110 FB60     		str	r3, [r7, #12]
 220:../../Drivers/STM32F7xx_HAL_Driver/Src/stm32f7xx_hal_ltdc.c ****   hltdc->Instance->TWCR |= (tmp | hltdc->Init.TotalHeigh);
 199              		.loc 1 220 0
 200 0112 7B68     		ldr	r3, [r7, #4]
 201 0114 1B68     		ldr	r3, [r3]
 202 0116 7A68     		ldr	r2, [r7, #4]
 203 0118 1268     		ldr	r2, [r2]
 204 011a 5169     		ldr	r1, [r2, #20]
 205 011c 7A68     		ldr	r2, [r7, #4]
 206 011e 106B     		ldr	r0, [r2, #48]
 207 0120 FA68     		ldr	r2, [r7, #12]
 208 0122 0243     		orrs	r2, r2, r0
 209 0124 0A43     		orrs	r2, r2, r1
 210 0126 5A61     		str	r2, [r3, #20]
 221:../../Drivers/STM32F7xx_HAL_Driver/Src/stm32f7xx_hal_ltdc.c **** 
 222:../../Drivers/STM32F7xx_HAL_Driver/Src/stm32f7xx_hal_ltdc.c ****   /* Sets the background color value */
 223:../../Drivers/STM32F7xx_HAL_Driver/Src/stm32f7xx_hal_ltdc.c ****   tmp = ((uint32_t)(hltdc->Init.Backcolor.Green) << 8);
 211              		.loc 1 223 0
 212 0128 7B68     		ldr	r3, [r7, #4]
 213 012a 93F83530 		ldrb	r3, [r3, #53]	@ zero_extendqisi2
 214 012e 1B02     		lsls	r3, r3, #8
 215 0130 FB60     		str	r3, [r7, #12]
 224:../../Drivers/STM32F7xx_HAL_Driver/Src/stm32f7xx_hal_ltdc.c ****   tmp1 = ((uint32_t)(hltdc->Init.Backcolor.Red) << 16);
 216              		.loc 1 224 0
 217 0132 7B68     		ldr	r3, [r7, #4]
 218 0134 93F83630 		ldrb	r3, [r3, #54]	@ zero_extendqisi2
 219 0138 1B04     		lsls	r3, r3, #16
 220 013a BB60     		str	r3, [r7, #8]
 225:../../Drivers/STM32F7xx_HAL_Driver/Src/stm32f7xx_hal_ltdc.c ****   hltdc->Instance->BCCR &= ~(LTDC_BCCR_BCBLUE | LTDC_BCCR_BCGREEN | LTDC_BCCR_BCRED);
 221              		.loc 1 225 0
 222 013c 7B68     		ldr	r3, [r7, #4]
 223 013e 1B68     		ldr	r3, [r3]
 224 0140 7A68     		ldr	r2, [r7, #4]
 225 0142 1268     		ldr	r2, [r2]
 226 0144 D26A     		ldr	r2, [r2, #44]
 227 0146 02F07F42 		and	r2, r2, #-16777216
 228 014a DA62     		str	r2, [r3, #44]
 226:../../Drivers/STM32F7xx_HAL_Driver/Src/stm32f7xx_hal_ltdc.c ****   hltdc->Instance->BCCR |= (tmp1 | tmp | hltdc->Init.Backcolor.Blue);
 229              		.loc 1 226 0
ARM GAS  /tmp/cc3YVQL6.s 			page 9


 230 014c 7B68     		ldr	r3, [r7, #4]
 231 014e 1B68     		ldr	r3, [r3]
 232 0150 7A68     		ldr	r2, [r7, #4]
 233 0152 1268     		ldr	r2, [r2]
 234 0154 D16A     		ldr	r1, [r2, #44]
 235 0156 B868     		ldr	r0, [r7, #8]
 236 0158 FA68     		ldr	r2, [r7, #12]
 237 015a 0243     		orrs	r2, r2, r0
 238 015c 7868     		ldr	r0, [r7, #4]
 239 015e 90F83400 		ldrb	r0, [r0, #52]	@ zero_extendqisi2
 240 0162 0243     		orrs	r2, r2, r0
 241 0164 0A43     		orrs	r2, r2, r1
 242 0166 DA62     		str	r2, [r3, #44]
 227:../../Drivers/STM32F7xx_HAL_Driver/Src/stm32f7xx_hal_ltdc.c **** 
 228:../../Drivers/STM32F7xx_HAL_Driver/Src/stm32f7xx_hal_ltdc.c ****   /* Enable the transfer Error interrupt */
 229:../../Drivers/STM32F7xx_HAL_Driver/Src/stm32f7xx_hal_ltdc.c ****   __HAL_LTDC_ENABLE_IT(hltdc, LTDC_IT_TE);
 243              		.loc 1 229 0
 244 0168 7B68     		ldr	r3, [r7, #4]
 245 016a 1B68     		ldr	r3, [r3]
 246 016c 7A68     		ldr	r2, [r7, #4]
 247 016e 1268     		ldr	r2, [r2]
 248 0170 526B     		ldr	r2, [r2, #52]
 249 0172 42F00402 		orr	r2, r2, #4
 250 0176 5A63     		str	r2, [r3, #52]
 230:../../Drivers/STM32F7xx_HAL_Driver/Src/stm32f7xx_hal_ltdc.c **** 
 231:../../Drivers/STM32F7xx_HAL_Driver/Src/stm32f7xx_hal_ltdc.c ****   /* Enable the FIFO underrun interrupt */
 232:../../Drivers/STM32F7xx_HAL_Driver/Src/stm32f7xx_hal_ltdc.c ****   __HAL_LTDC_ENABLE_IT(hltdc, LTDC_IT_FU);
 251              		.loc 1 232 0
 252 0178 7B68     		ldr	r3, [r7, #4]
 253 017a 1B68     		ldr	r3, [r3]
 254 017c 7A68     		ldr	r2, [r7, #4]
 255 017e 1268     		ldr	r2, [r2]
 256 0180 526B     		ldr	r2, [r2, #52]
 257 0182 42F00202 		orr	r2, r2, #2
 258 0186 5A63     		str	r2, [r3, #52]
 233:../../Drivers/STM32F7xx_HAL_Driver/Src/stm32f7xx_hal_ltdc.c **** 
 234:../../Drivers/STM32F7xx_HAL_Driver/Src/stm32f7xx_hal_ltdc.c ****   /* Enable LTDC by setting LTDCEN bit */
 235:../../Drivers/STM32F7xx_HAL_Driver/Src/stm32f7xx_hal_ltdc.c ****   __HAL_LTDC_ENABLE(hltdc);
 259              		.loc 1 235 0
 260 0188 7B68     		ldr	r3, [r7, #4]
 261 018a 1B68     		ldr	r3, [r3]
 262 018c 7A68     		ldr	r2, [r7, #4]
 263 018e 1268     		ldr	r2, [r2]
 264 0190 9269     		ldr	r2, [r2, #24]
 265 0192 42F00102 		orr	r2, r2, #1
 266 0196 9A61     		str	r2, [r3, #24]
 236:../../Drivers/STM32F7xx_HAL_Driver/Src/stm32f7xx_hal_ltdc.c **** 
 237:../../Drivers/STM32F7xx_HAL_Driver/Src/stm32f7xx_hal_ltdc.c ****   /* Initialize the error code */
 238:../../Drivers/STM32F7xx_HAL_Driver/Src/stm32f7xx_hal_ltdc.c ****   hltdc->ErrorCode = HAL_LTDC_ERROR_NONE;  
 267              		.loc 1 238 0
 268 0198 7B68     		ldr	r3, [r7, #4]
 269 019a 0022     		movs	r2, #0
 270 019c C3F8A420 		str	r2, [r3, #164]
 239:../../Drivers/STM32F7xx_HAL_Driver/Src/stm32f7xx_hal_ltdc.c **** 
 240:../../Drivers/STM32F7xx_HAL_Driver/Src/stm32f7xx_hal_ltdc.c ****   /* Initialize the LTDC state*/
 241:../../Drivers/STM32F7xx_HAL_Driver/Src/stm32f7xx_hal_ltdc.c ****   hltdc->State = HAL_LTDC_STATE_READY;
 271              		.loc 1 241 0
ARM GAS  /tmp/cc3YVQL6.s 			page 10


 272 01a0 7B68     		ldr	r3, [r7, #4]
 273 01a2 0122     		movs	r2, #1
 274 01a4 83F8A120 		strb	r2, [r3, #161]
 242:../../Drivers/STM32F7xx_HAL_Driver/Src/stm32f7xx_hal_ltdc.c **** 
 243:../../Drivers/STM32F7xx_HAL_Driver/Src/stm32f7xx_hal_ltdc.c ****   return HAL_OK;
 275              		.loc 1 243 0
 276 01a8 0023     		movs	r3, #0
 277              	.L3:
 244:../../Drivers/STM32F7xx_HAL_Driver/Src/stm32f7xx_hal_ltdc.c **** }
 278              		.loc 1 244 0
 279 01aa 1846     		mov	r0, r3
 280 01ac 1037     		adds	r7, r7, #16
 281              	.LCFI3:
 282              		.cfi_def_cfa_offset 8
 283 01ae BD46     		mov	sp, r7
 284              	.LCFI4:
 285              		.cfi_def_cfa_register 13
 286              		@ sp needed
 287 01b0 80BD     		pop	{r7, pc}
 288              	.L6:
 289 01b2 00BF     		.align	2
 290              	.L5:
 291 01b4 00F800F0 		.word	-268371968
 292              		.cfi_endproc
 293              	.LFE135:
 295              		.section	.text.HAL_LTDC_DeInit,"ax",%progbits
 296              		.align	2
 297              		.global	HAL_LTDC_DeInit
 298              		.thumb
 299              		.thumb_func
 301              	HAL_LTDC_DeInit:
 302              	.LFB136:
 245:../../Drivers/STM32F7xx_HAL_Driver/Src/stm32f7xx_hal_ltdc.c **** 
 246:../../Drivers/STM32F7xx_HAL_Driver/Src/stm32f7xx_hal_ltdc.c **** /**
 247:../../Drivers/STM32F7xx_HAL_Driver/Src/stm32f7xx_hal_ltdc.c ****   * @brief  Deinitializes the LTDC peripheral registers to their default reset
 248:../../Drivers/STM32F7xx_HAL_Driver/Src/stm32f7xx_hal_ltdc.c ****   *         values.
 249:../../Drivers/STM32F7xx_HAL_Driver/Src/stm32f7xx_hal_ltdc.c ****   * @param  hltdc: pointer to a LTDC_HandleTypeDef structure that contains
 250:../../Drivers/STM32F7xx_HAL_Driver/Src/stm32f7xx_hal_ltdc.c ****   *                the configuration information for the LTDC.
 251:../../Drivers/STM32F7xx_HAL_Driver/Src/stm32f7xx_hal_ltdc.c ****   * @retval None
 252:../../Drivers/STM32F7xx_HAL_Driver/Src/stm32f7xx_hal_ltdc.c ****   */
 253:../../Drivers/STM32F7xx_HAL_Driver/Src/stm32f7xx_hal_ltdc.c **** 
 254:../../Drivers/STM32F7xx_HAL_Driver/Src/stm32f7xx_hal_ltdc.c **** HAL_StatusTypeDef HAL_LTDC_DeInit(LTDC_HandleTypeDef *hltdc)
 255:../../Drivers/STM32F7xx_HAL_Driver/Src/stm32f7xx_hal_ltdc.c **** {
 303              		.loc 1 255 0
 304              		.cfi_startproc
 305              		@ args = 0, pretend = 0, frame = 8
 306              		@ frame_needed = 1, uses_anonymous_args = 0
 307 0000 80B5     		push	{r7, lr}
 308              	.LCFI5:
 309              		.cfi_def_cfa_offset 8
 310              		.cfi_offset 7, -8
 311              		.cfi_offset 14, -4
 312 0002 82B0     		sub	sp, sp, #8
 313              	.LCFI6:
 314              		.cfi_def_cfa_offset 16
 315 0004 00AF     		add	r7, sp, #0
 316              	.LCFI7:
ARM GAS  /tmp/cc3YVQL6.s 			page 11


 317              		.cfi_def_cfa_register 7
 318 0006 7860     		str	r0, [r7, #4]
 256:../../Drivers/STM32F7xx_HAL_Driver/Src/stm32f7xx_hal_ltdc.c ****   /* DeInit the low level hardware */
 257:../../Drivers/STM32F7xx_HAL_Driver/Src/stm32f7xx_hal_ltdc.c ****   HAL_LTDC_MspDeInit(hltdc); 
 319              		.loc 1 257 0
 320 0008 7868     		ldr	r0, [r7, #4]
 321 000a FFF7FEFF 		bl	HAL_LTDC_MspDeInit
 258:../../Drivers/STM32F7xx_HAL_Driver/Src/stm32f7xx_hal_ltdc.c **** 
 259:../../Drivers/STM32F7xx_HAL_Driver/Src/stm32f7xx_hal_ltdc.c ****   /* Initialize the error code */
 260:../../Drivers/STM32F7xx_HAL_Driver/Src/stm32f7xx_hal_ltdc.c ****   hltdc->ErrorCode = HAL_LTDC_ERROR_NONE;
 322              		.loc 1 260 0
 323 000e 7B68     		ldr	r3, [r7, #4]
 324 0010 0022     		movs	r2, #0
 325 0012 C3F8A420 		str	r2, [r3, #164]
 261:../../Drivers/STM32F7xx_HAL_Driver/Src/stm32f7xx_hal_ltdc.c **** 
 262:../../Drivers/STM32F7xx_HAL_Driver/Src/stm32f7xx_hal_ltdc.c ****   /* Initialize the LTDC state*/
 263:../../Drivers/STM32F7xx_HAL_Driver/Src/stm32f7xx_hal_ltdc.c ****   hltdc->State = HAL_LTDC_STATE_RESET;
 326              		.loc 1 263 0
 327 0016 7B68     		ldr	r3, [r7, #4]
 328 0018 0022     		movs	r2, #0
 329 001a 83F8A120 		strb	r2, [r3, #161]
 264:../../Drivers/STM32F7xx_HAL_Driver/Src/stm32f7xx_hal_ltdc.c **** 
 265:../../Drivers/STM32F7xx_HAL_Driver/Src/stm32f7xx_hal_ltdc.c ****   /* Release Lock */
 266:../../Drivers/STM32F7xx_HAL_Driver/Src/stm32f7xx_hal_ltdc.c ****   __HAL_UNLOCK(hltdc);
 330              		.loc 1 266 0
 331 001e 7B68     		ldr	r3, [r7, #4]
 332 0020 0022     		movs	r2, #0
 333 0022 83F8A020 		strb	r2, [r3, #160]
 267:../../Drivers/STM32F7xx_HAL_Driver/Src/stm32f7xx_hal_ltdc.c **** 
 268:../../Drivers/STM32F7xx_HAL_Driver/Src/stm32f7xx_hal_ltdc.c ****   return HAL_OK;
 334              		.loc 1 268 0
 335 0026 0023     		movs	r3, #0
 269:../../Drivers/STM32F7xx_HAL_Driver/Src/stm32f7xx_hal_ltdc.c **** }
 336              		.loc 1 269 0
 337 0028 1846     		mov	r0, r3
 338 002a 0837     		adds	r7, r7, #8
 339              	.LCFI8:
 340              		.cfi_def_cfa_offset 8
 341 002c BD46     		mov	sp, r7
 342              	.LCFI9:
 343              		.cfi_def_cfa_register 13
 344              		@ sp needed
 345 002e 80BD     		pop	{r7, pc}
 346              		.cfi_endproc
 347              	.LFE136:
 349              		.section	.text.HAL_LTDC_MspInit,"ax",%progbits
 350              		.align	2
 351              		.weak	HAL_LTDC_MspInit
 352              		.thumb
 353              		.thumb_func
 355              	HAL_LTDC_MspInit:
 356              	.LFB137:
 270:../../Drivers/STM32F7xx_HAL_Driver/Src/stm32f7xx_hal_ltdc.c **** 
 271:../../Drivers/STM32F7xx_HAL_Driver/Src/stm32f7xx_hal_ltdc.c **** /**
 272:../../Drivers/STM32F7xx_HAL_Driver/Src/stm32f7xx_hal_ltdc.c ****   * @brief  Initializes the LTDC MSP.
 273:../../Drivers/STM32F7xx_HAL_Driver/Src/stm32f7xx_hal_ltdc.c ****   * @param  hltdc : pointer to a LTDC_HandleTypeDef structure that contains
 274:../../Drivers/STM32F7xx_HAL_Driver/Src/stm32f7xx_hal_ltdc.c ****   *                the configuration information for the LTDC.
ARM GAS  /tmp/cc3YVQL6.s 			page 12


 275:../../Drivers/STM32F7xx_HAL_Driver/Src/stm32f7xx_hal_ltdc.c ****   * @retval None
 276:../../Drivers/STM32F7xx_HAL_Driver/Src/stm32f7xx_hal_ltdc.c ****   */
 277:../../Drivers/STM32F7xx_HAL_Driver/Src/stm32f7xx_hal_ltdc.c **** __weak void HAL_LTDC_MspInit(LTDC_HandleTypeDef* hltdc)
 278:../../Drivers/STM32F7xx_HAL_Driver/Src/stm32f7xx_hal_ltdc.c **** {
 357              		.loc 1 278 0
 358              		.cfi_startproc
 359              		@ args = 0, pretend = 0, frame = 8
 360              		@ frame_needed = 1, uses_anonymous_args = 0
 361              		@ link register save eliminated.
 362 0000 80B4     		push	{r7}
 363              	.LCFI10:
 364              		.cfi_def_cfa_offset 4
 365              		.cfi_offset 7, -4
 366 0002 83B0     		sub	sp, sp, #12
 367              	.LCFI11:
 368              		.cfi_def_cfa_offset 16
 369 0004 00AF     		add	r7, sp, #0
 370              	.LCFI12:
 371              		.cfi_def_cfa_register 7
 372 0006 7860     		str	r0, [r7, #4]
 279:../../Drivers/STM32F7xx_HAL_Driver/Src/stm32f7xx_hal_ltdc.c ****   /* Prevent unused argument(s) compilation warning */
 280:../../Drivers/STM32F7xx_HAL_Driver/Src/stm32f7xx_hal_ltdc.c ****   UNUSED(hltdc);
 281:../../Drivers/STM32F7xx_HAL_Driver/Src/stm32f7xx_hal_ltdc.c ****   
 282:../../Drivers/STM32F7xx_HAL_Driver/Src/stm32f7xx_hal_ltdc.c ****   /* NOTE : This function Should not be modified, when the callback is needed,
 283:../../Drivers/STM32F7xx_HAL_Driver/Src/stm32f7xx_hal_ltdc.c ****             the HAL_LTDC_MspInit could be implemented in the user file
 284:../../Drivers/STM32F7xx_HAL_Driver/Src/stm32f7xx_hal_ltdc.c ****    */ 
 285:../../Drivers/STM32F7xx_HAL_Driver/Src/stm32f7xx_hal_ltdc.c **** }
 373              		.loc 1 285 0
 374 0008 0C37     		adds	r7, r7, #12
 375              	.LCFI13:
 376              		.cfi_def_cfa_offset 4
 377 000a BD46     		mov	sp, r7
 378              	.LCFI14:
 379              		.cfi_def_cfa_register 13
 380              		@ sp needed
 381 000c 5DF8047B 		ldr	r7, [sp], #4
 382              	.LCFI15:
 383              		.cfi_restore 7
 384              		.cfi_def_cfa_offset 0
 385 0010 7047     		bx	lr
 386              		.cfi_endproc
 387              	.LFE137:
 389 0012 00BF     		.section	.text.HAL_LTDC_MspDeInit,"ax",%progbits
 390              		.align	2
 391              		.weak	HAL_LTDC_MspDeInit
 392              		.thumb
 393              		.thumb_func
 395              	HAL_LTDC_MspDeInit:
 396              	.LFB138:
 286:../../Drivers/STM32F7xx_HAL_Driver/Src/stm32f7xx_hal_ltdc.c **** 
 287:../../Drivers/STM32F7xx_HAL_Driver/Src/stm32f7xx_hal_ltdc.c **** /**
 288:../../Drivers/STM32F7xx_HAL_Driver/Src/stm32f7xx_hal_ltdc.c ****   * @brief  DeInitializes the LTDC MSP.
 289:../../Drivers/STM32F7xx_HAL_Driver/Src/stm32f7xx_hal_ltdc.c ****   * @param  hltdc : pointer to a LTDC_HandleTypeDef structure that contains
 290:../../Drivers/STM32F7xx_HAL_Driver/Src/stm32f7xx_hal_ltdc.c ****   *                the configuration information for the LTDC.
 291:../../Drivers/STM32F7xx_HAL_Driver/Src/stm32f7xx_hal_ltdc.c ****   * @retval None
 292:../../Drivers/STM32F7xx_HAL_Driver/Src/stm32f7xx_hal_ltdc.c ****   */
 293:../../Drivers/STM32F7xx_HAL_Driver/Src/stm32f7xx_hal_ltdc.c **** __weak void HAL_LTDC_MspDeInit(LTDC_HandleTypeDef* hltdc)
ARM GAS  /tmp/cc3YVQL6.s 			page 13


 294:../../Drivers/STM32F7xx_HAL_Driver/Src/stm32f7xx_hal_ltdc.c **** {
 397              		.loc 1 294 0
 398              		.cfi_startproc
 399              		@ args = 0, pretend = 0, frame = 8
 400              		@ frame_needed = 1, uses_anonymous_args = 0
 401              		@ link register save eliminated.
 402 0000 80B4     		push	{r7}
 403              	.LCFI16:
 404              		.cfi_def_cfa_offset 4
 405              		.cfi_offset 7, -4
 406 0002 83B0     		sub	sp, sp, #12
 407              	.LCFI17:
 408              		.cfi_def_cfa_offset 16
 409 0004 00AF     		add	r7, sp, #0
 410              	.LCFI18:
 411              		.cfi_def_cfa_register 7
 412 0006 7860     		str	r0, [r7, #4]
 295:../../Drivers/STM32F7xx_HAL_Driver/Src/stm32f7xx_hal_ltdc.c ****   /* Prevent unused argument(s) compilation warning */
 296:../../Drivers/STM32F7xx_HAL_Driver/Src/stm32f7xx_hal_ltdc.c ****   UNUSED(hltdc);
 297:../../Drivers/STM32F7xx_HAL_Driver/Src/stm32f7xx_hal_ltdc.c ****   
 298:../../Drivers/STM32F7xx_HAL_Driver/Src/stm32f7xx_hal_ltdc.c ****   /* NOTE : This function Should not be modified, when the callback is needed,
 299:../../Drivers/STM32F7xx_HAL_Driver/Src/stm32f7xx_hal_ltdc.c ****             the HAL_LTDC_MspDeInit could be implemented in the user file
 300:../../Drivers/STM32F7xx_HAL_Driver/Src/stm32f7xx_hal_ltdc.c ****    */
 301:../../Drivers/STM32F7xx_HAL_Driver/Src/stm32f7xx_hal_ltdc.c **** }
 413              		.loc 1 301 0
 414 0008 0C37     		adds	r7, r7, #12
 415              	.LCFI19:
 416              		.cfi_def_cfa_offset 4
 417 000a BD46     		mov	sp, r7
 418              	.LCFI20:
 419              		.cfi_def_cfa_register 13
 420              		@ sp needed
 421 000c 5DF8047B 		ldr	r7, [sp], #4
 422              	.LCFI21:
 423              		.cfi_restore 7
 424              		.cfi_def_cfa_offset 0
 425 0010 7047     		bx	lr
 426              		.cfi_endproc
 427              	.LFE138:
 429 0012 00BF     		.section	.text.HAL_LTDC_IRQHandler,"ax",%progbits
 430              		.align	2
 431              		.global	HAL_LTDC_IRQHandler
 432              		.thumb
 433              		.thumb_func
 435              	HAL_LTDC_IRQHandler:
 436              	.LFB139:
 302:../../Drivers/STM32F7xx_HAL_Driver/Src/stm32f7xx_hal_ltdc.c **** 
 303:../../Drivers/STM32F7xx_HAL_Driver/Src/stm32f7xx_hal_ltdc.c **** /**
 304:../../Drivers/STM32F7xx_HAL_Driver/Src/stm32f7xx_hal_ltdc.c ****   * @}
 305:../../Drivers/STM32F7xx_HAL_Driver/Src/stm32f7xx_hal_ltdc.c ****   */
 306:../../Drivers/STM32F7xx_HAL_Driver/Src/stm32f7xx_hal_ltdc.c ****   
 307:../../Drivers/STM32F7xx_HAL_Driver/Src/stm32f7xx_hal_ltdc.c **** /** @defgroup LTDC_Exported_Functions_Group2 IO operation functions 
 308:../../Drivers/STM32F7xx_HAL_Driver/Src/stm32f7xx_hal_ltdc.c ****  *  @brief   IO operation functions  
 309:../../Drivers/STM32F7xx_HAL_Driver/Src/stm32f7xx_hal_ltdc.c ****  *
 310:../../Drivers/STM32F7xx_HAL_Driver/Src/stm32f7xx_hal_ltdc.c **** @verbatim
 311:../../Drivers/STM32F7xx_HAL_Driver/Src/stm32f7xx_hal_ltdc.c ****  ===============================================================================
 312:../../Drivers/STM32F7xx_HAL_Driver/Src/stm32f7xx_hal_ltdc.c ****                       #####  IO operation functions  #####
ARM GAS  /tmp/cc3YVQL6.s 			page 14


 313:../../Drivers/STM32F7xx_HAL_Driver/Src/stm32f7xx_hal_ltdc.c ****  ===============================================================================  
 314:../../Drivers/STM32F7xx_HAL_Driver/Src/stm32f7xx_hal_ltdc.c ****     [..]  This section provides function allowing to:
 315:../../Drivers/STM32F7xx_HAL_Driver/Src/stm32f7xx_hal_ltdc.c ****       (+) Handle LTDC interrupt request
 316:../../Drivers/STM32F7xx_HAL_Driver/Src/stm32f7xx_hal_ltdc.c **** 
 317:../../Drivers/STM32F7xx_HAL_Driver/Src/stm32f7xx_hal_ltdc.c **** @endverbatim
 318:../../Drivers/STM32F7xx_HAL_Driver/Src/stm32f7xx_hal_ltdc.c ****   * @{
 319:../../Drivers/STM32F7xx_HAL_Driver/Src/stm32f7xx_hal_ltdc.c ****   */
 320:../../Drivers/STM32F7xx_HAL_Driver/Src/stm32f7xx_hal_ltdc.c **** /**
 321:../../Drivers/STM32F7xx_HAL_Driver/Src/stm32f7xx_hal_ltdc.c ****   * @brief  Handles LTDC interrupt request.
 322:../../Drivers/STM32F7xx_HAL_Driver/Src/stm32f7xx_hal_ltdc.c ****   * @param  hltdc: pointer to a LTDC_HandleTypeDef structure that contains
 323:../../Drivers/STM32F7xx_HAL_Driver/Src/stm32f7xx_hal_ltdc.c ****   *                the configuration information for the LTDC.  
 324:../../Drivers/STM32F7xx_HAL_Driver/Src/stm32f7xx_hal_ltdc.c ****   * @retval HAL status
 325:../../Drivers/STM32F7xx_HAL_Driver/Src/stm32f7xx_hal_ltdc.c ****   */
 326:../../Drivers/STM32F7xx_HAL_Driver/Src/stm32f7xx_hal_ltdc.c **** void HAL_LTDC_IRQHandler(LTDC_HandleTypeDef *hltdc)
 327:../../Drivers/STM32F7xx_HAL_Driver/Src/stm32f7xx_hal_ltdc.c **** {
 437              		.loc 1 327 0
 438              		.cfi_startproc
 439              		@ args = 0, pretend = 0, frame = 8
 440              		@ frame_needed = 1, uses_anonymous_args = 0
 441 0000 80B5     		push	{r7, lr}
 442              	.LCFI22:
 443              		.cfi_def_cfa_offset 8
 444              		.cfi_offset 7, -8
 445              		.cfi_offset 14, -4
 446 0002 82B0     		sub	sp, sp, #8
 447              	.LCFI23:
 448              		.cfi_def_cfa_offset 16
 449 0004 00AF     		add	r7, sp, #0
 450              	.LCFI24:
 451              		.cfi_def_cfa_register 7
 452 0006 7860     		str	r0, [r7, #4]
 328:../../Drivers/STM32F7xx_HAL_Driver/Src/stm32f7xx_hal_ltdc.c ****   /* Transfer Error Interrupt management ***************************************/
 329:../../Drivers/STM32F7xx_HAL_Driver/Src/stm32f7xx_hal_ltdc.c ****   if(__HAL_LTDC_GET_FLAG(hltdc, LTDC_FLAG_TE) != RESET)
 453              		.loc 1 329 0
 454 0008 7B68     		ldr	r3, [r7, #4]
 455 000a 1B68     		ldr	r3, [r3]
 456 000c 9B6B     		ldr	r3, [r3, #56]
 457 000e 03F00403 		and	r3, r3, #4
 458 0012 002B     		cmp	r3, #0
 459 0014 25D0     		beq	.L12
 330:../../Drivers/STM32F7xx_HAL_Driver/Src/stm32f7xx_hal_ltdc.c ****   {
 331:../../Drivers/STM32F7xx_HAL_Driver/Src/stm32f7xx_hal_ltdc.c ****     if(__HAL_LTDC_GET_IT_SOURCE(hltdc, LTDC_IT_TE) != RESET)
 460              		.loc 1 331 0
 461 0016 7B68     		ldr	r3, [r7, #4]
 462 0018 1B68     		ldr	r3, [r3]
 463 001a 9B6B     		ldr	r3, [r3, #56]
 464 001c 03F00403 		and	r3, r3, #4
 465 0020 002B     		cmp	r3, #0
 466 0022 1ED0     		beq	.L12
 332:../../Drivers/STM32F7xx_HAL_Driver/Src/stm32f7xx_hal_ltdc.c ****     {
 333:../../Drivers/STM32F7xx_HAL_Driver/Src/stm32f7xx_hal_ltdc.c ****       /* Disable the transfer Error interrupt */
 334:../../Drivers/STM32F7xx_HAL_Driver/Src/stm32f7xx_hal_ltdc.c ****       __HAL_LTDC_DISABLE_IT(hltdc, LTDC_IT_TE);
 467              		.loc 1 334 0
 468 0024 7B68     		ldr	r3, [r7, #4]
 469 0026 1B68     		ldr	r3, [r3]
 470 0028 7A68     		ldr	r2, [r7, #4]
 471 002a 1268     		ldr	r2, [r2]
ARM GAS  /tmp/cc3YVQL6.s 			page 15


 472 002c 526B     		ldr	r2, [r2, #52]
 473 002e 22F00402 		bic	r2, r2, #4
 474 0032 5A63     		str	r2, [r3, #52]
 335:../../Drivers/STM32F7xx_HAL_Driver/Src/stm32f7xx_hal_ltdc.c **** 
 336:../../Drivers/STM32F7xx_HAL_Driver/Src/stm32f7xx_hal_ltdc.c ****       /* Clear the transfer error flag */
 337:../../Drivers/STM32F7xx_HAL_Driver/Src/stm32f7xx_hal_ltdc.c ****       __HAL_LTDC_CLEAR_FLAG(hltdc, LTDC_FLAG_TE);
 475              		.loc 1 337 0
 476 0034 7B68     		ldr	r3, [r7, #4]
 477 0036 1B68     		ldr	r3, [r3]
 478 0038 0422     		movs	r2, #4
 479 003a DA63     		str	r2, [r3, #60]
 338:../../Drivers/STM32F7xx_HAL_Driver/Src/stm32f7xx_hal_ltdc.c **** 
 339:../../Drivers/STM32F7xx_HAL_Driver/Src/stm32f7xx_hal_ltdc.c ****       /* Update error code */
 340:../../Drivers/STM32F7xx_HAL_Driver/Src/stm32f7xx_hal_ltdc.c ****       hltdc->ErrorCode |= HAL_LTDC_ERROR_TE;
 480              		.loc 1 340 0
 481 003c 7B68     		ldr	r3, [r7, #4]
 482 003e D3F8A430 		ldr	r3, [r3, #164]
 483 0042 43F00102 		orr	r2, r3, #1
 484 0046 7B68     		ldr	r3, [r7, #4]
 485 0048 C3F8A420 		str	r2, [r3, #164]
 341:../../Drivers/STM32F7xx_HAL_Driver/Src/stm32f7xx_hal_ltdc.c **** 
 342:../../Drivers/STM32F7xx_HAL_Driver/Src/stm32f7xx_hal_ltdc.c ****       /* Change LTDC state */
 343:../../Drivers/STM32F7xx_HAL_Driver/Src/stm32f7xx_hal_ltdc.c ****       hltdc->State = HAL_LTDC_STATE_ERROR;
 486              		.loc 1 343 0
 487 004c 7B68     		ldr	r3, [r7, #4]
 488 004e 0422     		movs	r2, #4
 489 0050 83F8A120 		strb	r2, [r3, #161]
 344:../../Drivers/STM32F7xx_HAL_Driver/Src/stm32f7xx_hal_ltdc.c **** 
 345:../../Drivers/STM32F7xx_HAL_Driver/Src/stm32f7xx_hal_ltdc.c ****       /* Process unlocked */
 346:../../Drivers/STM32F7xx_HAL_Driver/Src/stm32f7xx_hal_ltdc.c ****       __HAL_UNLOCK(hltdc);
 490              		.loc 1 346 0
 491 0054 7B68     		ldr	r3, [r7, #4]
 492 0056 0022     		movs	r2, #0
 493 0058 83F8A020 		strb	r2, [r3, #160]
 347:../../Drivers/STM32F7xx_HAL_Driver/Src/stm32f7xx_hal_ltdc.c **** 
 348:../../Drivers/STM32F7xx_HAL_Driver/Src/stm32f7xx_hal_ltdc.c ****       /* Transfer error Callback */
 349:../../Drivers/STM32F7xx_HAL_Driver/Src/stm32f7xx_hal_ltdc.c ****       HAL_LTDC_ErrorCallback(hltdc);
 494              		.loc 1 349 0
 495 005c 7868     		ldr	r0, [r7, #4]
 496 005e FFF7FEFF 		bl	HAL_LTDC_ErrorCallback
 497              	.L12:
 350:../../Drivers/STM32F7xx_HAL_Driver/Src/stm32f7xx_hal_ltdc.c ****     }
 351:../../Drivers/STM32F7xx_HAL_Driver/Src/stm32f7xx_hal_ltdc.c ****   }
 352:../../Drivers/STM32F7xx_HAL_Driver/Src/stm32f7xx_hal_ltdc.c ****   /* FIFO underrun Interrupt management ***************************************/
 353:../../Drivers/STM32F7xx_HAL_Driver/Src/stm32f7xx_hal_ltdc.c ****   if(__HAL_LTDC_GET_FLAG(hltdc, LTDC_FLAG_FU) != RESET)
 498              		.loc 1 353 0
 499 0062 7B68     		ldr	r3, [r7, #4]
 500 0064 1B68     		ldr	r3, [r3]
 501 0066 9B6B     		ldr	r3, [r3, #56]
 502 0068 03F00203 		and	r3, r3, #2
 503 006c 002B     		cmp	r3, #0
 504 006e 25D0     		beq	.L13
 354:../../Drivers/STM32F7xx_HAL_Driver/Src/stm32f7xx_hal_ltdc.c ****   {
 355:../../Drivers/STM32F7xx_HAL_Driver/Src/stm32f7xx_hal_ltdc.c ****     if(__HAL_LTDC_GET_IT_SOURCE(hltdc, LTDC_IT_FU) != RESET)
 505              		.loc 1 355 0
 506 0070 7B68     		ldr	r3, [r7, #4]
 507 0072 1B68     		ldr	r3, [r3]
ARM GAS  /tmp/cc3YVQL6.s 			page 16


 508 0074 9B6B     		ldr	r3, [r3, #56]
 509 0076 03F00203 		and	r3, r3, #2
 510 007a 002B     		cmp	r3, #0
 511 007c 1ED0     		beq	.L13
 356:../../Drivers/STM32F7xx_HAL_Driver/Src/stm32f7xx_hal_ltdc.c ****     {
 357:../../Drivers/STM32F7xx_HAL_Driver/Src/stm32f7xx_hal_ltdc.c ****       /* Disable the FIFO underrun interrupt */
 358:../../Drivers/STM32F7xx_HAL_Driver/Src/stm32f7xx_hal_ltdc.c ****       __HAL_LTDC_DISABLE_IT(hltdc, LTDC_IT_FU);
 512              		.loc 1 358 0
 513 007e 7B68     		ldr	r3, [r7, #4]
 514 0080 1B68     		ldr	r3, [r3]
 515 0082 7A68     		ldr	r2, [r7, #4]
 516 0084 1268     		ldr	r2, [r2]
 517 0086 526B     		ldr	r2, [r2, #52]
 518 0088 22F00202 		bic	r2, r2, #2
 519 008c 5A63     		str	r2, [r3, #52]
 359:../../Drivers/STM32F7xx_HAL_Driver/Src/stm32f7xx_hal_ltdc.c **** 
 360:../../Drivers/STM32F7xx_HAL_Driver/Src/stm32f7xx_hal_ltdc.c ****       /* Clear the FIFO underrun flag */
 361:../../Drivers/STM32F7xx_HAL_Driver/Src/stm32f7xx_hal_ltdc.c ****       __HAL_LTDC_CLEAR_FLAG(hltdc, LTDC_FLAG_FU);
 520              		.loc 1 361 0
 521 008e 7B68     		ldr	r3, [r7, #4]
 522 0090 1B68     		ldr	r3, [r3]
 523 0092 0222     		movs	r2, #2
 524 0094 DA63     		str	r2, [r3, #60]
 362:../../Drivers/STM32F7xx_HAL_Driver/Src/stm32f7xx_hal_ltdc.c **** 
 363:../../Drivers/STM32F7xx_HAL_Driver/Src/stm32f7xx_hal_ltdc.c ****       /* Update error code */
 364:../../Drivers/STM32F7xx_HAL_Driver/Src/stm32f7xx_hal_ltdc.c ****       hltdc->ErrorCode |= HAL_LTDC_ERROR_FU;
 525              		.loc 1 364 0
 526 0096 7B68     		ldr	r3, [r7, #4]
 527 0098 D3F8A430 		ldr	r3, [r3, #164]
 528 009c 43F00202 		orr	r2, r3, #2
 529 00a0 7B68     		ldr	r3, [r7, #4]
 530 00a2 C3F8A420 		str	r2, [r3, #164]
 365:../../Drivers/STM32F7xx_HAL_Driver/Src/stm32f7xx_hal_ltdc.c **** 
 366:../../Drivers/STM32F7xx_HAL_Driver/Src/stm32f7xx_hal_ltdc.c ****       /* Change LTDC state */
 367:../../Drivers/STM32F7xx_HAL_Driver/Src/stm32f7xx_hal_ltdc.c ****       hltdc->State = HAL_LTDC_STATE_ERROR;
 531              		.loc 1 367 0
 532 00a6 7B68     		ldr	r3, [r7, #4]
 533 00a8 0422     		movs	r2, #4
 534 00aa 83F8A120 		strb	r2, [r3, #161]
 368:../../Drivers/STM32F7xx_HAL_Driver/Src/stm32f7xx_hal_ltdc.c **** 
 369:../../Drivers/STM32F7xx_HAL_Driver/Src/stm32f7xx_hal_ltdc.c ****       /* Process unlocked */
 370:../../Drivers/STM32F7xx_HAL_Driver/Src/stm32f7xx_hal_ltdc.c ****       __HAL_UNLOCK(hltdc);
 535              		.loc 1 370 0
 536 00ae 7B68     		ldr	r3, [r7, #4]
 537 00b0 0022     		movs	r2, #0
 538 00b2 83F8A020 		strb	r2, [r3, #160]
 371:../../Drivers/STM32F7xx_HAL_Driver/Src/stm32f7xx_hal_ltdc.c ****       
 372:../../Drivers/STM32F7xx_HAL_Driver/Src/stm32f7xx_hal_ltdc.c ****       /* Transfer error Callback */
 373:../../Drivers/STM32F7xx_HAL_Driver/Src/stm32f7xx_hal_ltdc.c ****       HAL_LTDC_ErrorCallback(hltdc);
 539              		.loc 1 373 0
 540 00b6 7868     		ldr	r0, [r7, #4]
 541 00b8 FFF7FEFF 		bl	HAL_LTDC_ErrorCallback
 542              	.L13:
 374:../../Drivers/STM32F7xx_HAL_Driver/Src/stm32f7xx_hal_ltdc.c ****     }
 375:../../Drivers/STM32F7xx_HAL_Driver/Src/stm32f7xx_hal_ltdc.c ****   }
 376:../../Drivers/STM32F7xx_HAL_Driver/Src/stm32f7xx_hal_ltdc.c ****   /* Line Interrupt management ************************************************/
 377:../../Drivers/STM32F7xx_HAL_Driver/Src/stm32f7xx_hal_ltdc.c ****   if(__HAL_LTDC_GET_FLAG(hltdc, LTDC_FLAG_LI) != RESET)
ARM GAS  /tmp/cc3YVQL6.s 			page 17


 543              		.loc 1 377 0
 544 00bc 7B68     		ldr	r3, [r7, #4]
 545 00be 1B68     		ldr	r3, [r3]
 546 00c0 9B6B     		ldr	r3, [r3, #56]
 547 00c2 03F00103 		and	r3, r3, #1
 548 00c6 002B     		cmp	r3, #0
 549 00c8 1DD0     		beq	.L14
 378:../../Drivers/STM32F7xx_HAL_Driver/Src/stm32f7xx_hal_ltdc.c ****   {
 379:../../Drivers/STM32F7xx_HAL_Driver/Src/stm32f7xx_hal_ltdc.c ****     if(__HAL_LTDC_GET_IT_SOURCE(hltdc, LTDC_IT_LI) != RESET)
 550              		.loc 1 379 0
 551 00ca 7B68     		ldr	r3, [r7, #4]
 552 00cc 1B68     		ldr	r3, [r3]
 553 00ce 9B6B     		ldr	r3, [r3, #56]
 554 00d0 03F00103 		and	r3, r3, #1
 555 00d4 002B     		cmp	r3, #0
 556 00d6 16D0     		beq	.L14
 380:../../Drivers/STM32F7xx_HAL_Driver/Src/stm32f7xx_hal_ltdc.c ****     {
 381:../../Drivers/STM32F7xx_HAL_Driver/Src/stm32f7xx_hal_ltdc.c ****       /* Disable the Line interrupt */
 382:../../Drivers/STM32F7xx_HAL_Driver/Src/stm32f7xx_hal_ltdc.c ****       __HAL_LTDC_DISABLE_IT(hltdc, LTDC_IT_LI);
 557              		.loc 1 382 0
 558 00d8 7B68     		ldr	r3, [r7, #4]
 559 00da 1B68     		ldr	r3, [r3]
 560 00dc 7A68     		ldr	r2, [r7, #4]
 561 00de 1268     		ldr	r2, [r2]
 562 00e0 526B     		ldr	r2, [r2, #52]
 563 00e2 22F00102 		bic	r2, r2, #1
 564 00e6 5A63     		str	r2, [r3, #52]
 383:../../Drivers/STM32F7xx_HAL_Driver/Src/stm32f7xx_hal_ltdc.c **** 
 384:../../Drivers/STM32F7xx_HAL_Driver/Src/stm32f7xx_hal_ltdc.c ****       /* Clear the Line interrupt flag */  
 385:../../Drivers/STM32F7xx_HAL_Driver/Src/stm32f7xx_hal_ltdc.c ****       __HAL_LTDC_CLEAR_FLAG(hltdc, LTDC_FLAG_LI);
 565              		.loc 1 385 0
 566 00e8 7B68     		ldr	r3, [r7, #4]
 567 00ea 1B68     		ldr	r3, [r3]
 568 00ec 0122     		movs	r2, #1
 569 00ee DA63     		str	r2, [r3, #60]
 386:../../Drivers/STM32F7xx_HAL_Driver/Src/stm32f7xx_hal_ltdc.c **** 
 387:../../Drivers/STM32F7xx_HAL_Driver/Src/stm32f7xx_hal_ltdc.c ****       /* Change LTDC state */
 388:../../Drivers/STM32F7xx_HAL_Driver/Src/stm32f7xx_hal_ltdc.c ****       hltdc->State = HAL_LTDC_STATE_READY;
 570              		.loc 1 388 0
 571 00f0 7B68     		ldr	r3, [r7, #4]
 572 00f2 0122     		movs	r2, #1
 573 00f4 83F8A120 		strb	r2, [r3, #161]
 389:../../Drivers/STM32F7xx_HAL_Driver/Src/stm32f7xx_hal_ltdc.c **** 
 390:../../Drivers/STM32F7xx_HAL_Driver/Src/stm32f7xx_hal_ltdc.c ****       /* Process unlocked */
 391:../../Drivers/STM32F7xx_HAL_Driver/Src/stm32f7xx_hal_ltdc.c ****       __HAL_UNLOCK(hltdc);
 574              		.loc 1 391 0
 575 00f8 7B68     		ldr	r3, [r7, #4]
 576 00fa 0022     		movs	r2, #0
 577 00fc 83F8A020 		strb	r2, [r3, #160]
 392:../../Drivers/STM32F7xx_HAL_Driver/Src/stm32f7xx_hal_ltdc.c **** 
 393:../../Drivers/STM32F7xx_HAL_Driver/Src/stm32f7xx_hal_ltdc.c ****       /* Line interrupt Callback */
 394:../../Drivers/STM32F7xx_HAL_Driver/Src/stm32f7xx_hal_ltdc.c ****       HAL_LTDC_LineEvenCallback(hltdc);
 578              		.loc 1 394 0
 579 0100 7868     		ldr	r0, [r7, #4]
 580 0102 FFF7FEFF 		bl	HAL_LTDC_LineEventCallback
 581              	.L14:
 395:../../Drivers/STM32F7xx_HAL_Driver/Src/stm32f7xx_hal_ltdc.c ****     }
ARM GAS  /tmp/cc3YVQL6.s 			page 18


 396:../../Drivers/STM32F7xx_HAL_Driver/Src/stm32f7xx_hal_ltdc.c ****   }
 397:../../Drivers/STM32F7xx_HAL_Driver/Src/stm32f7xx_hal_ltdc.c ****   /* Register reload Interrupt management ***************************************/
 398:../../Drivers/STM32F7xx_HAL_Driver/Src/stm32f7xx_hal_ltdc.c ****   if(__HAL_LTDC_GET_FLAG(hltdc, LTDC_FLAG_RR) != RESET)
 582              		.loc 1 398 0
 583 0106 7B68     		ldr	r3, [r7, #4]
 584 0108 1B68     		ldr	r3, [r3]
 585 010a 9B6B     		ldr	r3, [r3, #56]
 586 010c 03F00803 		and	r3, r3, #8
 587 0110 002B     		cmp	r3, #0
 588 0112 1DD0     		beq	.L11
 399:../../Drivers/STM32F7xx_HAL_Driver/Src/stm32f7xx_hal_ltdc.c ****   {
 400:../../Drivers/STM32F7xx_HAL_Driver/Src/stm32f7xx_hal_ltdc.c ****     if(__HAL_LTDC_GET_IT_SOURCE(hltdc, LTDC_IT_RR) != RESET)
 589              		.loc 1 400 0
 590 0114 7B68     		ldr	r3, [r7, #4]
 591 0116 1B68     		ldr	r3, [r3]
 592 0118 9B6B     		ldr	r3, [r3, #56]
 593 011a 03F00803 		and	r3, r3, #8
 594 011e 002B     		cmp	r3, #0
 595 0120 16D0     		beq	.L11
 401:../../Drivers/STM32F7xx_HAL_Driver/Src/stm32f7xx_hal_ltdc.c ****     {
 402:../../Drivers/STM32F7xx_HAL_Driver/Src/stm32f7xx_hal_ltdc.c ****       /* Disable the register reload interrupt */
 403:../../Drivers/STM32F7xx_HAL_Driver/Src/stm32f7xx_hal_ltdc.c ****       __HAL_LTDC_DISABLE_IT(hltdc, LTDC_IT_RR);
 596              		.loc 1 403 0
 597 0122 7B68     		ldr	r3, [r7, #4]
 598 0124 1B68     		ldr	r3, [r3]
 599 0126 7A68     		ldr	r2, [r7, #4]
 600 0128 1268     		ldr	r2, [r2]
 601 012a 526B     		ldr	r2, [r2, #52]
 602 012c 22F00802 		bic	r2, r2, #8
 603 0130 5A63     		str	r2, [r3, #52]
 404:../../Drivers/STM32F7xx_HAL_Driver/Src/stm32f7xx_hal_ltdc.c ****       
 405:../../Drivers/STM32F7xx_HAL_Driver/Src/stm32f7xx_hal_ltdc.c ****       /* Clear the register reload flag */
 406:../../Drivers/STM32F7xx_HAL_Driver/Src/stm32f7xx_hal_ltdc.c ****       __HAL_LTDC_CLEAR_FLAG(hltdc, LTDC_FLAG_RR);
 604              		.loc 1 406 0
 605 0132 7B68     		ldr	r3, [r7, #4]
 606 0134 1B68     		ldr	r3, [r3]
 607 0136 0822     		movs	r2, #8
 608 0138 DA63     		str	r2, [r3, #60]
 407:../../Drivers/STM32F7xx_HAL_Driver/Src/stm32f7xx_hal_ltdc.c ****       
 408:../../Drivers/STM32F7xx_HAL_Driver/Src/stm32f7xx_hal_ltdc.c ****       /* Change LTDC state */
 409:../../Drivers/STM32F7xx_HAL_Driver/Src/stm32f7xx_hal_ltdc.c ****       hltdc->State = HAL_LTDC_STATE_READY;
 609              		.loc 1 409 0
 610 013a 7B68     		ldr	r3, [r7, #4]
 611 013c 0122     		movs	r2, #1
 612 013e 83F8A120 		strb	r2, [r3, #161]
 410:../../Drivers/STM32F7xx_HAL_Driver/Src/stm32f7xx_hal_ltdc.c ****       
 411:../../Drivers/STM32F7xx_HAL_Driver/Src/stm32f7xx_hal_ltdc.c ****       /* Process unlocked */
 412:../../Drivers/STM32F7xx_HAL_Driver/Src/stm32f7xx_hal_ltdc.c ****       __HAL_UNLOCK(hltdc);
 613              		.loc 1 412 0
 614 0142 7B68     		ldr	r3, [r7, #4]
 615 0144 0022     		movs	r2, #0
 616 0146 83F8A020 		strb	r2, [r3, #160]
 413:../../Drivers/STM32F7xx_HAL_Driver/Src/stm32f7xx_hal_ltdc.c ****       
 414:../../Drivers/STM32F7xx_HAL_Driver/Src/stm32f7xx_hal_ltdc.c ****       /* Register reload interrupt Callback */
 415:../../Drivers/STM32F7xx_HAL_Driver/Src/stm32f7xx_hal_ltdc.c ****       HAL_LTDC_ReloadEventCallback(hltdc);
 617              		.loc 1 415 0
 618 014a 7868     		ldr	r0, [r7, #4]
ARM GAS  /tmp/cc3YVQL6.s 			page 19


 619 014c FFF7FEFF 		bl	HAL_LTDC_ReloadEventCallback
 620              	.L11:
 416:../../Drivers/STM32F7xx_HAL_Driver/Src/stm32f7xx_hal_ltdc.c ****     }
 417:../../Drivers/STM32F7xx_HAL_Driver/Src/stm32f7xx_hal_ltdc.c ****   }  
 418:../../Drivers/STM32F7xx_HAL_Driver/Src/stm32f7xx_hal_ltdc.c **** }
 621              		.loc 1 418 0
 622 0150 0837     		adds	r7, r7, #8
 623              	.LCFI25:
 624              		.cfi_def_cfa_offset 8
 625 0152 BD46     		mov	sp, r7
 626              	.LCFI26:
 627              		.cfi_def_cfa_register 13
 628              		@ sp needed
 629 0154 80BD     		pop	{r7, pc}
 630              		.cfi_endproc
 631              	.LFE139:
 633 0156 00BF     		.section	.text.HAL_LTDC_ErrorCallback,"ax",%progbits
 634              		.align	2
 635              		.weak	HAL_LTDC_ErrorCallback
 636              		.thumb
 637              		.thumb_func
 639              	HAL_LTDC_ErrorCallback:
 640              	.LFB140:
 419:../../Drivers/STM32F7xx_HAL_Driver/Src/stm32f7xx_hal_ltdc.c **** 
 420:../../Drivers/STM32F7xx_HAL_Driver/Src/stm32f7xx_hal_ltdc.c **** /**
 421:../../Drivers/STM32F7xx_HAL_Driver/Src/stm32f7xx_hal_ltdc.c ****   * @brief  Error LTDC callback.
 422:../../Drivers/STM32F7xx_HAL_Driver/Src/stm32f7xx_hal_ltdc.c ****   * @param  hltdc: pointer to a LTDC_HandleTypeDef structure that contains
 423:../../Drivers/STM32F7xx_HAL_Driver/Src/stm32f7xx_hal_ltdc.c ****   *                the configuration information for the LTDC.
 424:../../Drivers/STM32F7xx_HAL_Driver/Src/stm32f7xx_hal_ltdc.c ****   * @retval None
 425:../../Drivers/STM32F7xx_HAL_Driver/Src/stm32f7xx_hal_ltdc.c ****   */
 426:../../Drivers/STM32F7xx_HAL_Driver/Src/stm32f7xx_hal_ltdc.c **** __weak void HAL_LTDC_ErrorCallback(LTDC_HandleTypeDef *hltdc)
 427:../../Drivers/STM32F7xx_HAL_Driver/Src/stm32f7xx_hal_ltdc.c **** {
 641              		.loc 1 427 0
 642              		.cfi_startproc
 643              		@ args = 0, pretend = 0, frame = 8
 644              		@ frame_needed = 1, uses_anonymous_args = 0
 645              		@ link register save eliminated.
 646 0000 80B4     		push	{r7}
 647              	.LCFI27:
 648              		.cfi_def_cfa_offset 4
 649              		.cfi_offset 7, -4
 650 0002 83B0     		sub	sp, sp, #12
 651              	.LCFI28:
 652              		.cfi_def_cfa_offset 16
 653 0004 00AF     		add	r7, sp, #0
 654              	.LCFI29:
 655              		.cfi_def_cfa_register 7
 656 0006 7860     		str	r0, [r7, #4]
 428:../../Drivers/STM32F7xx_HAL_Driver/Src/stm32f7xx_hal_ltdc.c ****   /* Prevent unused argument(s) compilation warning */
 429:../../Drivers/STM32F7xx_HAL_Driver/Src/stm32f7xx_hal_ltdc.c ****   UNUSED(hltdc);
 430:../../Drivers/STM32F7xx_HAL_Driver/Src/stm32f7xx_hal_ltdc.c ****   
 431:../../Drivers/STM32F7xx_HAL_Driver/Src/stm32f7xx_hal_ltdc.c ****   /* NOTE : This function Should not be modified, when the callback is needed,
 432:../../Drivers/STM32F7xx_HAL_Driver/Src/stm32f7xx_hal_ltdc.c ****             the HAL_LTDC_ErrorCallback could be implemented in the user file
 433:../../Drivers/STM32F7xx_HAL_Driver/Src/stm32f7xx_hal_ltdc.c ****    */
 434:../../Drivers/STM32F7xx_HAL_Driver/Src/stm32f7xx_hal_ltdc.c **** }
 657              		.loc 1 434 0
 658 0008 0C37     		adds	r7, r7, #12
ARM GAS  /tmp/cc3YVQL6.s 			page 20


 659              	.LCFI30:
 660              		.cfi_def_cfa_offset 4
 661 000a BD46     		mov	sp, r7
 662              	.LCFI31:
 663              		.cfi_def_cfa_register 13
 664              		@ sp needed
 665 000c 5DF8047B 		ldr	r7, [sp], #4
 666              	.LCFI32:
 667              		.cfi_restore 7
 668              		.cfi_def_cfa_offset 0
 669 0010 7047     		bx	lr
 670              		.cfi_endproc
 671              	.LFE140:
 673 0012 00BF     		.section	.text.HAL_LTDC_LineEventCallback,"ax",%progbits
 674              		.align	2
 675              		.weak	HAL_LTDC_LineEventCallback
 676              		.thumb
 677              		.thumb_func
 679              	HAL_LTDC_LineEventCallback:
 680              	.LFB141:
 435:../../Drivers/STM32F7xx_HAL_Driver/Src/stm32f7xx_hal_ltdc.c **** 
 436:../../Drivers/STM32F7xx_HAL_Driver/Src/stm32f7xx_hal_ltdc.c **** /**
 437:../../Drivers/STM32F7xx_HAL_Driver/Src/stm32f7xx_hal_ltdc.c ****   * @brief  Line Event callback.
 438:../../Drivers/STM32F7xx_HAL_Driver/Src/stm32f7xx_hal_ltdc.c ****   * @param  hltdc: pointer to a LTDC_HandleTypeDef structure that contains
 439:../../Drivers/STM32F7xx_HAL_Driver/Src/stm32f7xx_hal_ltdc.c ****   *                the configuration information for the LTDC.
 440:../../Drivers/STM32F7xx_HAL_Driver/Src/stm32f7xx_hal_ltdc.c ****   * @retval None
 441:../../Drivers/STM32F7xx_HAL_Driver/Src/stm32f7xx_hal_ltdc.c ****   */
 442:../../Drivers/STM32F7xx_HAL_Driver/Src/stm32f7xx_hal_ltdc.c **** __weak void HAL_LTDC_LineEvenCallback(LTDC_HandleTypeDef *hltdc)
 443:../../Drivers/STM32F7xx_HAL_Driver/Src/stm32f7xx_hal_ltdc.c **** {
 681              		.loc 1 443 0
 682              		.cfi_startproc
 683              		@ args = 0, pretend = 0, frame = 8
 684              		@ frame_needed = 1, uses_anonymous_args = 0
 685              		@ link register save eliminated.
 686 0000 80B4     		push	{r7}
 687              	.LCFI33:
 688              		.cfi_def_cfa_offset 4
 689              		.cfi_offset 7, -4
 690 0002 83B0     		sub	sp, sp, #12
 691              	.LCFI34:
 692              		.cfi_def_cfa_offset 16
 693 0004 00AF     		add	r7, sp, #0
 694              	.LCFI35:
 695              		.cfi_def_cfa_register 7
 696 0006 7860     		str	r0, [r7, #4]
 444:../../Drivers/STM32F7xx_HAL_Driver/Src/stm32f7xx_hal_ltdc.c ****   /* Prevent unused argument(s) compilation warning */
 445:../../Drivers/STM32F7xx_HAL_Driver/Src/stm32f7xx_hal_ltdc.c ****   UNUSED(hltdc);
 446:../../Drivers/STM32F7xx_HAL_Driver/Src/stm32f7xx_hal_ltdc.c ****   
 447:../../Drivers/STM32F7xx_HAL_Driver/Src/stm32f7xx_hal_ltdc.c ****   /* NOTE : This function Should not be modified, when the callback is needed,
 448:../../Drivers/STM32F7xx_HAL_Driver/Src/stm32f7xx_hal_ltdc.c ****             the HAL_LTDC_LineEvenCallback could be implemented in the user file
 449:../../Drivers/STM32F7xx_HAL_Driver/Src/stm32f7xx_hal_ltdc.c ****    */
 450:../../Drivers/STM32F7xx_HAL_Driver/Src/stm32f7xx_hal_ltdc.c **** }
 697              		.loc 1 450 0
 698 0008 0C37     		adds	r7, r7, #12
 699              	.LCFI36:
 700              		.cfi_def_cfa_offset 4
 701 000a BD46     		mov	sp, r7
ARM GAS  /tmp/cc3YVQL6.s 			page 21


 702              	.LCFI37:
 703              		.cfi_def_cfa_register 13
 704              		@ sp needed
 705 000c 5DF8047B 		ldr	r7, [sp], #4
 706              	.LCFI38:
 707              		.cfi_restore 7
 708              		.cfi_def_cfa_offset 0
 709 0010 7047     		bx	lr
 710              		.cfi_endproc
 711              	.LFE141:
 713 0012 00BF     		.section	.text.HAL_LTDC_ReloadEventCallback,"ax",%progbits
 714              		.align	2
 715              		.weak	HAL_LTDC_ReloadEventCallback
 716              		.thumb
 717              		.thumb_func
 719              	HAL_LTDC_ReloadEventCallback:
 720              	.LFB142:
 451:../../Drivers/STM32F7xx_HAL_Driver/Src/stm32f7xx_hal_ltdc.c **** 
 452:../../Drivers/STM32F7xx_HAL_Driver/Src/stm32f7xx_hal_ltdc.c **** /**
 453:../../Drivers/STM32F7xx_HAL_Driver/Src/stm32f7xx_hal_ltdc.c ****   * @brief  Reload Event callback.
 454:../../Drivers/STM32F7xx_HAL_Driver/Src/stm32f7xx_hal_ltdc.c ****   * @param  hltdc: pointer to a LTDC_HandleTypeDef structure that contains
 455:../../Drivers/STM32F7xx_HAL_Driver/Src/stm32f7xx_hal_ltdc.c ****   *                the configuration information for the LTDC.
 456:../../Drivers/STM32F7xx_HAL_Driver/Src/stm32f7xx_hal_ltdc.c ****   * @retval None
 457:../../Drivers/STM32F7xx_HAL_Driver/Src/stm32f7xx_hal_ltdc.c ****   */
 458:../../Drivers/STM32F7xx_HAL_Driver/Src/stm32f7xx_hal_ltdc.c **** __weak void HAL_LTDC_ReloadEventCallback(LTDC_HandleTypeDef *hltdc)
 459:../../Drivers/STM32F7xx_HAL_Driver/Src/stm32f7xx_hal_ltdc.c **** {
 721              		.loc 1 459 0
 722              		.cfi_startproc
 723              		@ args = 0, pretend = 0, frame = 8
 724              		@ frame_needed = 1, uses_anonymous_args = 0
 725              		@ link register save eliminated.
 726 0000 80B4     		push	{r7}
 727              	.LCFI39:
 728              		.cfi_def_cfa_offset 4
 729              		.cfi_offset 7, -4
 730 0002 83B0     		sub	sp, sp, #12
 731              	.LCFI40:
 732              		.cfi_def_cfa_offset 16
 733 0004 00AF     		add	r7, sp, #0
 734              	.LCFI41:
 735              		.cfi_def_cfa_register 7
 736 0006 7860     		str	r0, [r7, #4]
 460:../../Drivers/STM32F7xx_HAL_Driver/Src/stm32f7xx_hal_ltdc.c ****   /* Prevent unused argument(s) compilation warning */
 461:../../Drivers/STM32F7xx_HAL_Driver/Src/stm32f7xx_hal_ltdc.c ****   UNUSED(hltdc);
 462:../../Drivers/STM32F7xx_HAL_Driver/Src/stm32f7xx_hal_ltdc.c ****   
 463:../../Drivers/STM32F7xx_HAL_Driver/Src/stm32f7xx_hal_ltdc.c ****   /* NOTE : This function Should not be modified, when the callback is needed,
 464:../../Drivers/STM32F7xx_HAL_Driver/Src/stm32f7xx_hal_ltdc.c ****             the HAL_LTDC_ReloadEvenCallback could be implemented in the user file
 465:../../Drivers/STM32F7xx_HAL_Driver/Src/stm32f7xx_hal_ltdc.c ****    */
 466:../../Drivers/STM32F7xx_HAL_Driver/Src/stm32f7xx_hal_ltdc.c **** }
 737              		.loc 1 466 0
 738 0008 0C37     		adds	r7, r7, #12
 739              	.LCFI42:
 740              		.cfi_def_cfa_offset 4
 741 000a BD46     		mov	sp, r7
 742              	.LCFI43:
 743              		.cfi_def_cfa_register 13
 744              		@ sp needed
ARM GAS  /tmp/cc3YVQL6.s 			page 22


 745 000c 5DF8047B 		ldr	r7, [sp], #4
 746              	.LCFI44:
 747              		.cfi_restore 7
 748              		.cfi_def_cfa_offset 0
 749 0010 7047     		bx	lr
 750              		.cfi_endproc
 751              	.LFE142:
 753 0012 00BF     		.section	.text.HAL_LTDC_ConfigLayer,"ax",%progbits
 754              		.align	2
 755              		.global	HAL_LTDC_ConfigLayer
 756              		.thumb
 757              		.thumb_func
 759              	HAL_LTDC_ConfigLayer:
 760              	.LFB143:
 467:../../Drivers/STM32F7xx_HAL_Driver/Src/stm32f7xx_hal_ltdc.c **** 
 468:../../Drivers/STM32F7xx_HAL_Driver/Src/stm32f7xx_hal_ltdc.c **** /**
 469:../../Drivers/STM32F7xx_HAL_Driver/Src/stm32f7xx_hal_ltdc.c ****   * @}
 470:../../Drivers/STM32F7xx_HAL_Driver/Src/stm32f7xx_hal_ltdc.c ****   */
 471:../../Drivers/STM32F7xx_HAL_Driver/Src/stm32f7xx_hal_ltdc.c **** 
 472:../../Drivers/STM32F7xx_HAL_Driver/Src/stm32f7xx_hal_ltdc.c **** /** @defgroup LTDC_Exported_Functions_Group3 Peripheral Control functions
 473:../../Drivers/STM32F7xx_HAL_Driver/Src/stm32f7xx_hal_ltdc.c ****  *  @brief    Peripheral Control functions 
 474:../../Drivers/STM32F7xx_HAL_Driver/Src/stm32f7xx_hal_ltdc.c ****  *
 475:../../Drivers/STM32F7xx_HAL_Driver/Src/stm32f7xx_hal_ltdc.c **** @verbatim   
 476:../../Drivers/STM32F7xx_HAL_Driver/Src/stm32f7xx_hal_ltdc.c ****  ===============================================================================
 477:../../Drivers/STM32F7xx_HAL_Driver/Src/stm32f7xx_hal_ltdc.c ****                     ##### Peripheral Control functions #####
 478:../../Drivers/STM32F7xx_HAL_Driver/Src/stm32f7xx_hal_ltdc.c ****  ===============================================================================  
 479:../../Drivers/STM32F7xx_HAL_Driver/Src/stm32f7xx_hal_ltdc.c ****     [..]  This section provides functions allowing to:
 480:../../Drivers/STM32F7xx_HAL_Driver/Src/stm32f7xx_hal_ltdc.c ****       (+) Configure the LTDC foreground or/and background parameters.
 481:../../Drivers/STM32F7xx_HAL_Driver/Src/stm32f7xx_hal_ltdc.c ****       (+) Set the active layer.
 482:../../Drivers/STM32F7xx_HAL_Driver/Src/stm32f7xx_hal_ltdc.c ****       (+) Configure the color keying.
 483:../../Drivers/STM32F7xx_HAL_Driver/Src/stm32f7xx_hal_ltdc.c ****       (+) Configure the C-LUT.
 484:../../Drivers/STM32F7xx_HAL_Driver/Src/stm32f7xx_hal_ltdc.c ****       (+) Enable / Disable the color keying.
 485:../../Drivers/STM32F7xx_HAL_Driver/Src/stm32f7xx_hal_ltdc.c ****       (+) Enable / Disable the C-LUT.
 486:../../Drivers/STM32F7xx_HAL_Driver/Src/stm32f7xx_hal_ltdc.c ****       (+) Update the layer position.
 487:../../Drivers/STM32F7xx_HAL_Driver/Src/stm32f7xx_hal_ltdc.c ****       (+) Update the layer size.
 488:../../Drivers/STM32F7xx_HAL_Driver/Src/stm32f7xx_hal_ltdc.c ****       (+) Update pixel format on the fly. 
 489:../../Drivers/STM32F7xx_HAL_Driver/Src/stm32f7xx_hal_ltdc.c ****       (+) Update transparency on the fly.
 490:../../Drivers/STM32F7xx_HAL_Driver/Src/stm32f7xx_hal_ltdc.c ****       (+) Update address on the fly.
 491:../../Drivers/STM32F7xx_HAL_Driver/Src/stm32f7xx_hal_ltdc.c **** 
 492:../../Drivers/STM32F7xx_HAL_Driver/Src/stm32f7xx_hal_ltdc.c **** @endverbatim
 493:../../Drivers/STM32F7xx_HAL_Driver/Src/stm32f7xx_hal_ltdc.c ****   * @{
 494:../../Drivers/STM32F7xx_HAL_Driver/Src/stm32f7xx_hal_ltdc.c ****   */
 495:../../Drivers/STM32F7xx_HAL_Driver/Src/stm32f7xx_hal_ltdc.c **** 
 496:../../Drivers/STM32F7xx_HAL_Driver/Src/stm32f7xx_hal_ltdc.c **** /**
 497:../../Drivers/STM32F7xx_HAL_Driver/Src/stm32f7xx_hal_ltdc.c ****   * @brief  Configure the LTDC Layer according to the specified
 498:../../Drivers/STM32F7xx_HAL_Driver/Src/stm32f7xx_hal_ltdc.c ****   *         parameters in the LTDC_InitTypeDef and create the associated handle.
 499:../../Drivers/STM32F7xx_HAL_Driver/Src/stm32f7xx_hal_ltdc.c ****   * @param  hltdc:     pointer to a LTDC_HandleTypeDef structure that contains
 500:../../Drivers/STM32F7xx_HAL_Driver/Src/stm32f7xx_hal_ltdc.c ****   *                    the configuration information for the LTDC.
 501:../../Drivers/STM32F7xx_HAL_Driver/Src/stm32f7xx_hal_ltdc.c ****   * @param  pLayerCfg: pointer to a LTDC_LayerCfgTypeDef structure that contains
 502:../../Drivers/STM32F7xx_HAL_Driver/Src/stm32f7xx_hal_ltdc.c ****   *                    the configuration information for the Layer.
 503:../../Drivers/STM32F7xx_HAL_Driver/Src/stm32f7xx_hal_ltdc.c ****   * @param  LayerIdx:  LTDC Layer index.
 504:../../Drivers/STM32F7xx_HAL_Driver/Src/stm32f7xx_hal_ltdc.c ****   *                    This parameter can be one of the following values:
 505:../../Drivers/STM32F7xx_HAL_Driver/Src/stm32f7xx_hal_ltdc.c ****   *                    0 or 1
 506:../../Drivers/STM32F7xx_HAL_Driver/Src/stm32f7xx_hal_ltdc.c ****   * @retval HAL status
 507:../../Drivers/STM32F7xx_HAL_Driver/Src/stm32f7xx_hal_ltdc.c ****   */
 508:../../Drivers/STM32F7xx_HAL_Driver/Src/stm32f7xx_hal_ltdc.c **** HAL_StatusTypeDef HAL_LTDC_ConfigLayer(LTDC_HandleTypeDef *hltdc, LTDC_LayerCfgTypeDef *pLayerCfg, 
 509:../../Drivers/STM32F7xx_HAL_Driver/Src/stm32f7xx_hal_ltdc.c **** {   
ARM GAS  /tmp/cc3YVQL6.s 			page 23


 761              		.loc 1 509 0
 762              		.cfi_startproc
 763              		@ args = 0, pretend = 0, frame = 16
 764              		@ frame_needed = 1, uses_anonymous_args = 0
 765 0000 B0B5     		push	{r4, r5, r7, lr}
 766              	.LCFI45:
 767              		.cfi_def_cfa_offset 16
 768              		.cfi_offset 4, -16
 769              		.cfi_offset 5, -12
 770              		.cfi_offset 7, -8
 771              		.cfi_offset 14, -4
 772 0002 84B0     		sub	sp, sp, #16
 773              	.LCFI46:
 774              		.cfi_def_cfa_offset 32
 775 0004 00AF     		add	r7, sp, #0
 776              	.LCFI47:
 777              		.cfi_def_cfa_register 7
 778 0006 F860     		str	r0, [r7, #12]
 779 0008 B960     		str	r1, [r7, #8]
 780 000a 7A60     		str	r2, [r7, #4]
 510:../../Drivers/STM32F7xx_HAL_Driver/Src/stm32f7xx_hal_ltdc.c ****   /* Process locked */
 511:../../Drivers/STM32F7xx_HAL_Driver/Src/stm32f7xx_hal_ltdc.c ****   __HAL_LOCK(hltdc);
 781              		.loc 1 511 0
 782 000c FB68     		ldr	r3, [r7, #12]
 783 000e 93F8A030 		ldrb	r3, [r3, #160]	@ zero_extendqisi2
 784 0012 012B     		cmp	r3, #1
 785 0014 01D1     		bne	.L20
 786              		.loc 1 511 0 is_stmt 0 discriminator 1
 787 0016 0223     		movs	r3, #2
 788 0018 2CE0     		b	.L21
 789              	.L20:
 790              		.loc 1 511 0 discriminator 2
 791 001a FB68     		ldr	r3, [r7, #12]
 792 001c 0122     		movs	r2, #1
 793 001e 83F8A020 		strb	r2, [r3, #160]
 512:../../Drivers/STM32F7xx_HAL_Driver/Src/stm32f7xx_hal_ltdc.c ****   
 513:../../Drivers/STM32F7xx_HAL_Driver/Src/stm32f7xx_hal_ltdc.c ****   /* Change LTDC peripheral state */
 514:../../Drivers/STM32F7xx_HAL_Driver/Src/stm32f7xx_hal_ltdc.c ****   hltdc->State = HAL_LTDC_STATE_BUSY;
 794              		.loc 1 514 0 is_stmt 1 discriminator 2
 795 0022 FB68     		ldr	r3, [r7, #12]
 796 0024 0222     		movs	r2, #2
 797 0026 83F8A120 		strb	r2, [r3, #161]
 515:../../Drivers/STM32F7xx_HAL_Driver/Src/stm32f7xx_hal_ltdc.c **** 
 516:../../Drivers/STM32F7xx_HAL_Driver/Src/stm32f7xx_hal_ltdc.c ****   /* Check the parameters */
 517:../../Drivers/STM32F7xx_HAL_Driver/Src/stm32f7xx_hal_ltdc.c ****   assert_param(IS_LTDC_LAYER(LayerIdx));
 518:../../Drivers/STM32F7xx_HAL_Driver/Src/stm32f7xx_hal_ltdc.c ****   assert_param(IS_LTDC_PIXEL_FORMAT(pLayerCfg->PixelFormat));
 519:../../Drivers/STM32F7xx_HAL_Driver/Src/stm32f7xx_hal_ltdc.c ****   assert_param(IS_LTDC_BLENDING_FACTOR1(pLayerCfg->BlendingFactor1));
 520:../../Drivers/STM32F7xx_HAL_Driver/Src/stm32f7xx_hal_ltdc.c ****   assert_param(IS_LTDC_BLENDING_FACTOR2(pLayerCfg->BlendingFactor2));
 521:../../Drivers/STM32F7xx_HAL_Driver/Src/stm32f7xx_hal_ltdc.c ****   assert_param(IS_LTDC_HCONFIGST(pLayerCfg->WindowX0));
 522:../../Drivers/STM32F7xx_HAL_Driver/Src/stm32f7xx_hal_ltdc.c ****   assert_param(IS_LTDC_HCONFIGSP(pLayerCfg->WindowX1));
 523:../../Drivers/STM32F7xx_HAL_Driver/Src/stm32f7xx_hal_ltdc.c ****   assert_param(IS_LTDC_VCONFIGST(pLayerCfg->WindowY0));
 524:../../Drivers/STM32F7xx_HAL_Driver/Src/stm32f7xx_hal_ltdc.c ****   assert_param(IS_LTDC_VCONFIGSP(pLayerCfg->WindowY1));
 525:../../Drivers/STM32F7xx_HAL_Driver/Src/stm32f7xx_hal_ltdc.c ****   assert_param(IS_LTDC_ALPHA(pLayerCfg->Alpha0));
 526:../../Drivers/STM32F7xx_HAL_Driver/Src/stm32f7xx_hal_ltdc.c ****   assert_param(IS_LTDC_CFBLL(pLayerCfg->ImageWidth));
 527:../../Drivers/STM32F7xx_HAL_Driver/Src/stm32f7xx_hal_ltdc.c ****   assert_param(IS_LTDC_CFBLNBR(pLayerCfg->ImageHeight));
 528:../../Drivers/STM32F7xx_HAL_Driver/Src/stm32f7xx_hal_ltdc.c **** 
 529:../../Drivers/STM32F7xx_HAL_Driver/Src/stm32f7xx_hal_ltdc.c ****   /* Copy new layer configuration into handle structure */
ARM GAS  /tmp/cc3YVQL6.s 			page 24


 530:../../Drivers/STM32F7xx_HAL_Driver/Src/stm32f7xx_hal_ltdc.c ****   hltdc->LayerCfg[LayerIdx] = *pLayerCfg;  
 798              		.loc 1 530 0 discriminator 2
 799 002a FA68     		ldr	r2, [r7, #12]
 800 002c 7B68     		ldr	r3, [r7, #4]
 801 002e 3421     		movs	r1, #52
 802 0030 01FB03F3 		mul	r3, r1, r3
 803 0034 1344     		add	r3, r3, r2
 804 0036 03F13802 		add	r2, r3, #56
 805 003a BB68     		ldr	r3, [r7, #8]
 806 003c 1446     		mov	r4, r2
 807 003e 1D46     		mov	r5, r3
 808 0040 0FCD     		ldmia	r5!, {r0, r1, r2, r3}
 809 0042 0FC4     		stmia	r4!, {r0, r1, r2, r3}
 810 0044 0FCD     		ldmia	r5!, {r0, r1, r2, r3}
 811 0046 0FC4     		stmia	r4!, {r0, r1, r2, r3}
 812 0048 0FCD     		ldmia	r5!, {r0, r1, r2, r3}
 813 004a 0FC4     		stmia	r4!, {r0, r1, r2, r3}
 814 004c 2B68     		ldr	r3, [r5]
 815 004e 2360     		str	r3, [r4]
 531:../../Drivers/STM32F7xx_HAL_Driver/Src/stm32f7xx_hal_ltdc.c **** 
 532:../../Drivers/STM32F7xx_HAL_Driver/Src/stm32f7xx_hal_ltdc.c ****   /* Configure the LTDC Layer */  
 533:../../Drivers/STM32F7xx_HAL_Driver/Src/stm32f7xx_hal_ltdc.c ****   LTDC_SetConfig(hltdc, pLayerCfg, LayerIdx);
 816              		.loc 1 533 0 discriminator 2
 817 0050 F868     		ldr	r0, [r7, #12]
 818 0052 B968     		ldr	r1, [r7, #8]
 819 0054 7A68     		ldr	r2, [r7, #4]
 820 0056 FFF7FEFF 		bl	LTDC_SetConfig
 534:../../Drivers/STM32F7xx_HAL_Driver/Src/stm32f7xx_hal_ltdc.c **** 
 535:../../Drivers/STM32F7xx_HAL_Driver/Src/stm32f7xx_hal_ltdc.c ****   /* Sets the Reload type */
 536:../../Drivers/STM32F7xx_HAL_Driver/Src/stm32f7xx_hal_ltdc.c ****   hltdc->Instance->SRCR = LTDC_SRCR_IMR;
 821              		.loc 1 536 0 discriminator 2
 822 005a FB68     		ldr	r3, [r7, #12]
 823 005c 1B68     		ldr	r3, [r3]
 824 005e 0122     		movs	r2, #1
 825 0060 5A62     		str	r2, [r3, #36]
 537:../../Drivers/STM32F7xx_HAL_Driver/Src/stm32f7xx_hal_ltdc.c **** 
 538:../../Drivers/STM32F7xx_HAL_Driver/Src/stm32f7xx_hal_ltdc.c ****   /* Initialize the LTDC state*/
 539:../../Drivers/STM32F7xx_HAL_Driver/Src/stm32f7xx_hal_ltdc.c ****   hltdc->State  = HAL_LTDC_STATE_READY;
 826              		.loc 1 539 0 discriminator 2
 827 0062 FB68     		ldr	r3, [r7, #12]
 828 0064 0122     		movs	r2, #1
 829 0066 83F8A120 		strb	r2, [r3, #161]
 540:../../Drivers/STM32F7xx_HAL_Driver/Src/stm32f7xx_hal_ltdc.c **** 
 541:../../Drivers/STM32F7xx_HAL_Driver/Src/stm32f7xx_hal_ltdc.c ****   /* Process unlocked */
 542:../../Drivers/STM32F7xx_HAL_Driver/Src/stm32f7xx_hal_ltdc.c ****   __HAL_UNLOCK(hltdc);
 830              		.loc 1 542 0 discriminator 2
 831 006a FB68     		ldr	r3, [r7, #12]
 832 006c 0022     		movs	r2, #0
 833 006e 83F8A020 		strb	r2, [r3, #160]
 543:../../Drivers/STM32F7xx_HAL_Driver/Src/stm32f7xx_hal_ltdc.c **** 
 544:../../Drivers/STM32F7xx_HAL_Driver/Src/stm32f7xx_hal_ltdc.c ****   return HAL_OK;
 834              		.loc 1 544 0 discriminator 2
 835 0072 0023     		movs	r3, #0
 836              	.L21:
 545:../../Drivers/STM32F7xx_HAL_Driver/Src/stm32f7xx_hal_ltdc.c **** }
 837              		.loc 1 545 0
 838 0074 1846     		mov	r0, r3
ARM GAS  /tmp/cc3YVQL6.s 			page 25


 839 0076 1037     		adds	r7, r7, #16
 840              	.LCFI48:
 841              		.cfi_def_cfa_offset 16
 842 0078 BD46     		mov	sp, r7
 843              	.LCFI49:
 844              		.cfi_def_cfa_register 13
 845              		@ sp needed
 846 007a B0BD     		pop	{r4, r5, r7, pc}
 847              		.cfi_endproc
 848              	.LFE143:
 850              		.section	.text.HAL_LTDC_ConfigColorKeying,"ax",%progbits
 851              		.align	2
 852              		.global	HAL_LTDC_ConfigColorKeying
 853              		.thumb
 854              		.thumb_func
 856              	HAL_LTDC_ConfigColorKeying:
 857              	.LFB144:
 546:../../Drivers/STM32F7xx_HAL_Driver/Src/stm32f7xx_hal_ltdc.c **** 
 547:../../Drivers/STM32F7xx_HAL_Driver/Src/stm32f7xx_hal_ltdc.c **** /**
 548:../../Drivers/STM32F7xx_HAL_Driver/Src/stm32f7xx_hal_ltdc.c ****   * @brief  Configure the color keying.
 549:../../Drivers/STM32F7xx_HAL_Driver/Src/stm32f7xx_hal_ltdc.c ****   * @param  hltdc:    pointer to a LTDC_HandleTypeDef structure that contains
 550:../../Drivers/STM32F7xx_HAL_Driver/Src/stm32f7xx_hal_ltdc.c ****   *                   the configuration information for the LTDC.
 551:../../Drivers/STM32F7xx_HAL_Driver/Src/stm32f7xx_hal_ltdc.c ****   * @param  RGBValue: the color key value
 552:../../Drivers/STM32F7xx_HAL_Driver/Src/stm32f7xx_hal_ltdc.c ****   * @param  LayerIdx:  LTDC Layer index.
 553:../../Drivers/STM32F7xx_HAL_Driver/Src/stm32f7xx_hal_ltdc.c ****   *                   This parameter can be one of the following values:
 554:../../Drivers/STM32F7xx_HAL_Driver/Src/stm32f7xx_hal_ltdc.c ****   *                   0 or 1
 555:../../Drivers/STM32F7xx_HAL_Driver/Src/stm32f7xx_hal_ltdc.c ****   * @retval HAL status
 556:../../Drivers/STM32F7xx_HAL_Driver/Src/stm32f7xx_hal_ltdc.c ****   */
 557:../../Drivers/STM32F7xx_HAL_Driver/Src/stm32f7xx_hal_ltdc.c **** HAL_StatusTypeDef HAL_LTDC_ConfigColorKeying(LTDC_HandleTypeDef *hltdc, uint32_t RGBValue, uint32_t
 558:../../Drivers/STM32F7xx_HAL_Driver/Src/stm32f7xx_hal_ltdc.c **** {
 858              		.loc 1 558 0
 859              		.cfi_startproc
 860              		@ args = 0, pretend = 0, frame = 16
 861              		@ frame_needed = 1, uses_anonymous_args = 0
 862              		@ link register save eliminated.
 863 0000 80B4     		push	{r7}
 864              	.LCFI50:
 865              		.cfi_def_cfa_offset 4
 866              		.cfi_offset 7, -4
 867 0002 85B0     		sub	sp, sp, #20
 868              	.LCFI51:
 869              		.cfi_def_cfa_offset 24
 870 0004 00AF     		add	r7, sp, #0
 871              	.LCFI52:
 872              		.cfi_def_cfa_register 7
 873 0006 F860     		str	r0, [r7, #12]
 874 0008 B960     		str	r1, [r7, #8]
 875 000a 7A60     		str	r2, [r7, #4]
 559:../../Drivers/STM32F7xx_HAL_Driver/Src/stm32f7xx_hal_ltdc.c ****   /* Process locked */
 560:../../Drivers/STM32F7xx_HAL_Driver/Src/stm32f7xx_hal_ltdc.c ****   __HAL_LOCK(hltdc);
 876              		.loc 1 560 0
 877 000c FB68     		ldr	r3, [r7, #12]
 878 000e 93F8A030 		ldrb	r3, [r3, #160]	@ zero_extendqisi2
 879 0012 012B     		cmp	r3, #1
 880 0014 01D1     		bne	.L23
 881              		.loc 1 560 0 is_stmt 0 discriminator 1
 882 0016 0223     		movs	r3, #2
ARM GAS  /tmp/cc3YVQL6.s 			page 26


 883 0018 31E0     		b	.L24
 884              	.L23:
 885              		.loc 1 560 0 discriminator 2
 886 001a FB68     		ldr	r3, [r7, #12]
 887 001c 0122     		movs	r2, #1
 888 001e 83F8A020 		strb	r2, [r3, #160]
 561:../../Drivers/STM32F7xx_HAL_Driver/Src/stm32f7xx_hal_ltdc.c **** 
 562:../../Drivers/STM32F7xx_HAL_Driver/Src/stm32f7xx_hal_ltdc.c ****   /* Change LTDC peripheral state */
 563:../../Drivers/STM32F7xx_HAL_Driver/Src/stm32f7xx_hal_ltdc.c ****   hltdc->State = HAL_LTDC_STATE_BUSY;
 889              		.loc 1 563 0 is_stmt 1 discriminator 2
 890 0022 FB68     		ldr	r3, [r7, #12]
 891 0024 0222     		movs	r2, #2
 892 0026 83F8A120 		strb	r2, [r3, #161]
 564:../../Drivers/STM32F7xx_HAL_Driver/Src/stm32f7xx_hal_ltdc.c **** 
 565:../../Drivers/STM32F7xx_HAL_Driver/Src/stm32f7xx_hal_ltdc.c ****   /* Check the parameters */
 566:../../Drivers/STM32F7xx_HAL_Driver/Src/stm32f7xx_hal_ltdc.c ****   assert_param(IS_LTDC_LAYER(LayerIdx));
 567:../../Drivers/STM32F7xx_HAL_Driver/Src/stm32f7xx_hal_ltdc.c **** 
 568:../../Drivers/STM32F7xx_HAL_Driver/Src/stm32f7xx_hal_ltdc.c ****   /* Configures the default color values */
 569:../../Drivers/STM32F7xx_HAL_Driver/Src/stm32f7xx_hal_ltdc.c ****   LTDC_LAYER(hltdc, LayerIdx)->CKCR &=  ~(LTDC_LxCKCR_CKBLUE | LTDC_LxCKCR_CKGREEN | LTDC_LxCKCR_CK
 893              		.loc 1 569 0 discriminator 2
 894 002a FB68     		ldr	r3, [r7, #12]
 895 002c 1B68     		ldr	r3, [r3]
 896 002e 1A46     		mov	r2, r3
 897 0030 7B68     		ldr	r3, [r7, #4]
 898 0032 DB01     		lsls	r3, r3, #7
 899 0034 1344     		add	r3, r3, r2
 900 0036 8433     		adds	r3, r3, #132
 901 0038 1A46     		mov	r2, r3
 902 003a FB68     		ldr	r3, [r7, #12]
 903 003c 1B68     		ldr	r3, [r3]
 904 003e 1946     		mov	r1, r3
 905 0040 7B68     		ldr	r3, [r7, #4]
 906 0042 DB01     		lsls	r3, r3, #7
 907 0044 0B44     		add	r3, r3, r1
 908 0046 8433     		adds	r3, r3, #132
 909 0048 DB68     		ldr	r3, [r3, #12]
 910 004a 03F07F43 		and	r3, r3, #-16777216
 911 004e D360     		str	r3, [r2, #12]
 570:../../Drivers/STM32F7xx_HAL_Driver/Src/stm32f7xx_hal_ltdc.c ****   LTDC_LAYER(hltdc, LayerIdx)->CKCR  = RGBValue;
 912              		.loc 1 570 0 discriminator 2
 913 0050 FB68     		ldr	r3, [r7, #12]
 914 0052 1B68     		ldr	r3, [r3]
 915 0054 1A46     		mov	r2, r3
 916 0056 7B68     		ldr	r3, [r7, #4]
 917 0058 DB01     		lsls	r3, r3, #7
 918 005a 1344     		add	r3, r3, r2
 919 005c 8433     		adds	r3, r3, #132
 920 005e 1A46     		mov	r2, r3
 921 0060 BB68     		ldr	r3, [r7, #8]
 922 0062 D360     		str	r3, [r2, #12]
 571:../../Drivers/STM32F7xx_HAL_Driver/Src/stm32f7xx_hal_ltdc.c **** 
 572:../../Drivers/STM32F7xx_HAL_Driver/Src/stm32f7xx_hal_ltdc.c ****   /* Sets the Reload type */
 573:../../Drivers/STM32F7xx_HAL_Driver/Src/stm32f7xx_hal_ltdc.c ****   hltdc->Instance->SRCR = LTDC_SRCR_IMR;
 923              		.loc 1 573 0 discriminator 2
 924 0064 FB68     		ldr	r3, [r7, #12]
 925 0066 1B68     		ldr	r3, [r3]
 926 0068 0122     		movs	r2, #1
ARM GAS  /tmp/cc3YVQL6.s 			page 27


 927 006a 5A62     		str	r2, [r3, #36]
 574:../../Drivers/STM32F7xx_HAL_Driver/Src/stm32f7xx_hal_ltdc.c **** 
 575:../../Drivers/STM32F7xx_HAL_Driver/Src/stm32f7xx_hal_ltdc.c ****   /* Change the LTDC state*/
 576:../../Drivers/STM32F7xx_HAL_Driver/Src/stm32f7xx_hal_ltdc.c ****   hltdc->State = HAL_LTDC_STATE_READY;
 928              		.loc 1 576 0 discriminator 2
 929 006c FB68     		ldr	r3, [r7, #12]
 930 006e 0122     		movs	r2, #1
 931 0070 83F8A120 		strb	r2, [r3, #161]
 577:../../Drivers/STM32F7xx_HAL_Driver/Src/stm32f7xx_hal_ltdc.c **** 
 578:../../Drivers/STM32F7xx_HAL_Driver/Src/stm32f7xx_hal_ltdc.c ****   /* Process unlocked */
 579:../../Drivers/STM32F7xx_HAL_Driver/Src/stm32f7xx_hal_ltdc.c ****   __HAL_UNLOCK(hltdc);
 932              		.loc 1 579 0 discriminator 2
 933 0074 FB68     		ldr	r3, [r7, #12]
 934 0076 0022     		movs	r2, #0
 935 0078 83F8A020 		strb	r2, [r3, #160]
 580:../../Drivers/STM32F7xx_HAL_Driver/Src/stm32f7xx_hal_ltdc.c **** 
 581:../../Drivers/STM32F7xx_HAL_Driver/Src/stm32f7xx_hal_ltdc.c ****   return HAL_OK;
 936              		.loc 1 581 0 discriminator 2
 937 007c 0023     		movs	r3, #0
 938              	.L24:
 582:../../Drivers/STM32F7xx_HAL_Driver/Src/stm32f7xx_hal_ltdc.c **** }
 939              		.loc 1 582 0
 940 007e 1846     		mov	r0, r3
 941 0080 1437     		adds	r7, r7, #20
 942              	.LCFI53:
 943              		.cfi_def_cfa_offset 4
 944 0082 BD46     		mov	sp, r7
 945              	.LCFI54:
 946              		.cfi_def_cfa_register 13
 947              		@ sp needed
 948 0084 5DF8047B 		ldr	r7, [sp], #4
 949              	.LCFI55:
 950              		.cfi_restore 7
 951              		.cfi_def_cfa_offset 0
 952 0088 7047     		bx	lr
 953              		.cfi_endproc
 954              	.LFE144:
 956 008a 00BF     		.section	.text.HAL_LTDC_ConfigCLUT,"ax",%progbits
 957              		.align	2
 958              		.global	HAL_LTDC_ConfigCLUT
 959              		.thumb
 960              		.thumb_func
 962              	HAL_LTDC_ConfigCLUT:
 963              	.LFB145:
 583:../../Drivers/STM32F7xx_HAL_Driver/Src/stm32f7xx_hal_ltdc.c **** 
 584:../../Drivers/STM32F7xx_HAL_Driver/Src/stm32f7xx_hal_ltdc.c **** /**
 585:../../Drivers/STM32F7xx_HAL_Driver/Src/stm32f7xx_hal_ltdc.c ****   * @brief  Load the color lookup table.
 586:../../Drivers/STM32F7xx_HAL_Driver/Src/stm32f7xx_hal_ltdc.c ****   * @param  hltdc:    pointer to a LTDC_HandleTypeDef structure that contains
 587:../../Drivers/STM32F7xx_HAL_Driver/Src/stm32f7xx_hal_ltdc.c ****   *                   the configuration information for the LTDC.
 588:../../Drivers/STM32F7xx_HAL_Driver/Src/stm32f7xx_hal_ltdc.c ****   * @param  pCLUT:    pointer to the color lookup table address.
 589:../../Drivers/STM32F7xx_HAL_Driver/Src/stm32f7xx_hal_ltdc.c ****   * @param  CLUTSize: the color lookup table size.  
 590:../../Drivers/STM32F7xx_HAL_Driver/Src/stm32f7xx_hal_ltdc.c ****   * @param  LayerIdx:  LTDC Layer index.
 591:../../Drivers/STM32F7xx_HAL_Driver/Src/stm32f7xx_hal_ltdc.c ****   *                   This parameter can be one of the following values:
 592:../../Drivers/STM32F7xx_HAL_Driver/Src/stm32f7xx_hal_ltdc.c ****   *                   0 or 1
 593:../../Drivers/STM32F7xx_HAL_Driver/Src/stm32f7xx_hal_ltdc.c ****   * @retval HAL status
 594:../../Drivers/STM32F7xx_HAL_Driver/Src/stm32f7xx_hal_ltdc.c ****   */
 595:../../Drivers/STM32F7xx_HAL_Driver/Src/stm32f7xx_hal_ltdc.c **** HAL_StatusTypeDef HAL_LTDC_ConfigCLUT(LTDC_HandleTypeDef *hltdc, uint32_t *pCLUT, uint32_t CLUTSize
ARM GAS  /tmp/cc3YVQL6.s 			page 28


 596:../../Drivers/STM32F7xx_HAL_Driver/Src/stm32f7xx_hal_ltdc.c **** {
 964              		.loc 1 596 0
 965              		.cfi_startproc
 966              		@ args = 0, pretend = 0, frame = 32
 967              		@ frame_needed = 1, uses_anonymous_args = 0
 968              		@ link register save eliminated.
 969 0000 80B4     		push	{r7}
 970              	.LCFI56:
 971              		.cfi_def_cfa_offset 4
 972              		.cfi_offset 7, -4
 973 0002 89B0     		sub	sp, sp, #36
 974              	.LCFI57:
 975              		.cfi_def_cfa_offset 40
 976 0004 00AF     		add	r7, sp, #0
 977              	.LCFI58:
 978              		.cfi_def_cfa_register 7
 979 0006 F860     		str	r0, [r7, #12]
 980 0008 B960     		str	r1, [r7, #8]
 981 000a 7A60     		str	r2, [r7, #4]
 982 000c 3B60     		str	r3, [r7]
 597:../../Drivers/STM32F7xx_HAL_Driver/Src/stm32f7xx_hal_ltdc.c ****   uint32_t tmp = 0;
 983              		.loc 1 597 0
 984 000e 0023     		movs	r3, #0
 985 0010 FB61     		str	r3, [r7, #28]
 598:../../Drivers/STM32F7xx_HAL_Driver/Src/stm32f7xx_hal_ltdc.c ****   uint32_t counter = 0;
 986              		.loc 1 598 0
 987 0012 0023     		movs	r3, #0
 988 0014 BB61     		str	r3, [r7, #24]
 599:../../Drivers/STM32F7xx_HAL_Driver/Src/stm32f7xx_hal_ltdc.c ****   uint32_t pcounter = 0;
 989              		.loc 1 599 0
 990 0016 0023     		movs	r3, #0
 991 0018 7B61     		str	r3, [r7, #20]
 600:../../Drivers/STM32F7xx_HAL_Driver/Src/stm32f7xx_hal_ltdc.c **** 
 601:../../Drivers/STM32F7xx_HAL_Driver/Src/stm32f7xx_hal_ltdc.c ****   /* Process locked */
 602:../../Drivers/STM32F7xx_HAL_Driver/Src/stm32f7xx_hal_ltdc.c ****   __HAL_LOCK(hltdc);
 992              		.loc 1 602 0
 993 001a FB68     		ldr	r3, [r7, #12]
 994 001c 93F8A030 		ldrb	r3, [r3, #160]	@ zero_extendqisi2
 995 0020 012B     		cmp	r3, #1
 996 0022 01D1     		bne	.L26
 997              		.loc 1 602 0 is_stmt 0 discriminator 1
 998 0024 0223     		movs	r3, #2
 999 0026 59E0     		b	.L27
 1000              	.L26:
 1001              		.loc 1 602 0 discriminator 2
 1002 0028 FB68     		ldr	r3, [r7, #12]
 1003 002a 0122     		movs	r2, #1
 1004 002c 83F8A020 		strb	r2, [r3, #160]
 603:../../Drivers/STM32F7xx_HAL_Driver/Src/stm32f7xx_hal_ltdc.c **** 
 604:../../Drivers/STM32F7xx_HAL_Driver/Src/stm32f7xx_hal_ltdc.c ****   /* Change LTDC peripheral state */
 605:../../Drivers/STM32F7xx_HAL_Driver/Src/stm32f7xx_hal_ltdc.c ****   hltdc->State = HAL_LTDC_STATE_BUSY;  
 1005              		.loc 1 605 0 is_stmt 1 discriminator 2
 1006 0030 FB68     		ldr	r3, [r7, #12]
 1007 0032 0222     		movs	r2, #2
 1008 0034 83F8A120 		strb	r2, [r3, #161]
 606:../../Drivers/STM32F7xx_HAL_Driver/Src/stm32f7xx_hal_ltdc.c **** 
 607:../../Drivers/STM32F7xx_HAL_Driver/Src/stm32f7xx_hal_ltdc.c ****   /* Check the parameters */
ARM GAS  /tmp/cc3YVQL6.s 			page 29


 608:../../Drivers/STM32F7xx_HAL_Driver/Src/stm32f7xx_hal_ltdc.c ****   assert_param(IS_LTDC_LAYER(LayerIdx)); 
 609:../../Drivers/STM32F7xx_HAL_Driver/Src/stm32f7xx_hal_ltdc.c **** 
 610:../../Drivers/STM32F7xx_HAL_Driver/Src/stm32f7xx_hal_ltdc.c ****   for(counter = 0; (counter < CLUTSize); counter++)
 1009              		.loc 1 610 0 discriminator 2
 1010 0038 0023     		movs	r3, #0
 1011 003a BB61     		str	r3, [r7, #24]
 1012 003c 41E0     		b	.L28
 1013              	.L31:
 611:../../Drivers/STM32F7xx_HAL_Driver/Src/stm32f7xx_hal_ltdc.c ****   {
 612:../../Drivers/STM32F7xx_HAL_Driver/Src/stm32f7xx_hal_ltdc.c ****     if(hltdc->LayerCfg[LayerIdx].PixelFormat == LTDC_PIXEL_FORMAT_AL44)
 1014              		.loc 1 612 0
 1015 003e FA68     		ldr	r2, [r7, #12]
 1016 0040 3B68     		ldr	r3, [r7]
 1017 0042 3421     		movs	r1, #52
 1018 0044 01FB03F3 		mul	r3, r1, r3
 1019 0048 1344     		add	r3, r3, r2
 1020 004a 4833     		adds	r3, r3, #72
 1021 004c 1B68     		ldr	r3, [r3]
 1022 004e 062B     		cmp	r3, #6
 1023 0050 14D1     		bne	.L29
 613:../../Drivers/STM32F7xx_HAL_Driver/Src/stm32f7xx_hal_ltdc.c ****     {
 614:../../Drivers/STM32F7xx_HAL_Driver/Src/stm32f7xx_hal_ltdc.c ****       tmp  = (((counter + 16*counter) << 24) | ((uint32_t)(*pCLUT) & 0xFF) | ((uint32_t)(*pCLUT) & 
 1024              		.loc 1 614 0
 1025 0052 BA69     		ldr	r2, [r7, #24]
 1026 0054 1346     		mov	r3, r2
 1027 0056 1B01     		lsls	r3, r3, #4
 1028 0058 1344     		add	r3, r3, r2
 1029 005a 1A06     		lsls	r2, r3, #24
 1030 005c BB68     		ldr	r3, [r7, #8]
 1031 005e 1B68     		ldr	r3, [r3]
 1032 0060 DBB2     		uxtb	r3, r3
 1033 0062 1A43     		orrs	r2, r2, r3
 1034 0064 BB68     		ldr	r3, [r7, #8]
 1035 0066 1B68     		ldr	r3, [r3]
 1036 0068 03F47F43 		and	r3, r3, #65280
 1037 006c 1A43     		orrs	r2, r2, r3
 1038 006e BB68     		ldr	r3, [r7, #8]
 1039 0070 1B68     		ldr	r3, [r3]
 1040 0072 03F47F03 		and	r3, r3, #16711680
 1041 0076 1343     		orrs	r3, r3, r2
 1042 0078 FB61     		str	r3, [r7, #28]
 1043 007a 10E0     		b	.L30
 1044              	.L29:
 615:../../Drivers/STM32F7xx_HAL_Driver/Src/stm32f7xx_hal_ltdc.c ****     }
 616:../../Drivers/STM32F7xx_HAL_Driver/Src/stm32f7xx_hal_ltdc.c ****     else
 617:../../Drivers/STM32F7xx_HAL_Driver/Src/stm32f7xx_hal_ltdc.c ****     { 
 618:../../Drivers/STM32F7xx_HAL_Driver/Src/stm32f7xx_hal_ltdc.c ****       tmp  = ((counter << 24) | ((uint32_t)(*pCLUT) & 0xFF) | ((uint32_t)(*pCLUT) & 0xFF00) | ((uin
 1045              		.loc 1 618 0
 1046 007c BB69     		ldr	r3, [r7, #24]
 1047 007e 1A06     		lsls	r2, r3, #24
 1048 0080 BB68     		ldr	r3, [r7, #8]
 1049 0082 1B68     		ldr	r3, [r3]
 1050 0084 DBB2     		uxtb	r3, r3
 1051 0086 1A43     		orrs	r2, r2, r3
 1052 0088 BB68     		ldr	r3, [r7, #8]
 1053 008a 1B68     		ldr	r3, [r3]
 1054 008c 03F47F43 		and	r3, r3, #65280
ARM GAS  /tmp/cc3YVQL6.s 			page 30


 1055 0090 1A43     		orrs	r2, r2, r3
 1056 0092 BB68     		ldr	r3, [r7, #8]
 1057 0094 1B68     		ldr	r3, [r3]
 1058 0096 03F47F03 		and	r3, r3, #16711680
 1059 009a 1343     		orrs	r3, r3, r2
 1060 009c FB61     		str	r3, [r7, #28]
 1061              	.L30:
 619:../../Drivers/STM32F7xx_HAL_Driver/Src/stm32f7xx_hal_ltdc.c ****     }
 620:../../Drivers/STM32F7xx_HAL_Driver/Src/stm32f7xx_hal_ltdc.c ****     pcounter = (uint32_t)pCLUT + sizeof(*pCLUT);
 1062              		.loc 1 620 0 discriminator 2
 1063 009e BB68     		ldr	r3, [r7, #8]
 1064 00a0 0433     		adds	r3, r3, #4
 1065 00a2 7B61     		str	r3, [r7, #20]
 621:../../Drivers/STM32F7xx_HAL_Driver/Src/stm32f7xx_hal_ltdc.c ****     pCLUT = (uint32_t *)pcounter;
 1066              		.loc 1 621 0 discriminator 2
 1067 00a4 7B69     		ldr	r3, [r7, #20]
 1068 00a6 BB60     		str	r3, [r7, #8]
 622:../../Drivers/STM32F7xx_HAL_Driver/Src/stm32f7xx_hal_ltdc.c **** 
 623:../../Drivers/STM32F7xx_HAL_Driver/Src/stm32f7xx_hal_ltdc.c ****     /* Specifies the C-LUT address and RGB value */
 624:../../Drivers/STM32F7xx_HAL_Driver/Src/stm32f7xx_hal_ltdc.c ****     LTDC_LAYER(hltdc, LayerIdx)->CLUTWR  = tmp;
 1069              		.loc 1 624 0 discriminator 2
 1070 00a8 FB68     		ldr	r3, [r7, #12]
 1071 00aa 1B68     		ldr	r3, [r3]
 1072 00ac 1A46     		mov	r2, r3
 1073 00ae 3B68     		ldr	r3, [r7]
 1074 00b0 DB01     		lsls	r3, r3, #7
 1075 00b2 1344     		add	r3, r3, r2
 1076 00b4 8433     		adds	r3, r3, #132
 1077 00b6 1A46     		mov	r2, r3
 1078 00b8 FB69     		ldr	r3, [r7, #28]
 1079 00ba 1364     		str	r3, [r2, #64]
 610:../../Drivers/STM32F7xx_HAL_Driver/Src/stm32f7xx_hal_ltdc.c ****   {
 1080              		.loc 1 610 0 discriminator 2
 1081 00bc BB69     		ldr	r3, [r7, #24]
 1082 00be 0133     		adds	r3, r3, #1
 1083 00c0 BB61     		str	r3, [r7, #24]
 1084              	.L28:
 610:../../Drivers/STM32F7xx_HAL_Driver/Src/stm32f7xx_hal_ltdc.c ****   {
 1085              		.loc 1 610 0 is_stmt 0 discriminator 1
 1086 00c2 BA69     		ldr	r2, [r7, #24]
 1087 00c4 7B68     		ldr	r3, [r7, #4]
 1088 00c6 9A42     		cmp	r2, r3
 1089 00c8 B9D3     		bcc	.L31
 625:../../Drivers/STM32F7xx_HAL_Driver/Src/stm32f7xx_hal_ltdc.c ****   }
 626:../../Drivers/STM32F7xx_HAL_Driver/Src/stm32f7xx_hal_ltdc.c ****   
 627:../../Drivers/STM32F7xx_HAL_Driver/Src/stm32f7xx_hal_ltdc.c ****   /* Change the LTDC state*/
 628:../../Drivers/STM32F7xx_HAL_Driver/Src/stm32f7xx_hal_ltdc.c ****   hltdc->State = HAL_LTDC_STATE_READY; 
 1090              		.loc 1 628 0 is_stmt 1
 1091 00ca FB68     		ldr	r3, [r7, #12]
 1092 00cc 0122     		movs	r2, #1
 1093 00ce 83F8A120 		strb	r2, [r3, #161]
 629:../../Drivers/STM32F7xx_HAL_Driver/Src/stm32f7xx_hal_ltdc.c **** 
 630:../../Drivers/STM32F7xx_HAL_Driver/Src/stm32f7xx_hal_ltdc.c ****   /* Process unlocked */
 631:../../Drivers/STM32F7xx_HAL_Driver/Src/stm32f7xx_hal_ltdc.c ****   __HAL_UNLOCK(hltdc);  
 1094              		.loc 1 631 0
 1095 00d2 FB68     		ldr	r3, [r7, #12]
 1096 00d4 0022     		movs	r2, #0
ARM GAS  /tmp/cc3YVQL6.s 			page 31


 1097 00d6 83F8A020 		strb	r2, [r3, #160]
 632:../../Drivers/STM32F7xx_HAL_Driver/Src/stm32f7xx_hal_ltdc.c **** 
 633:../../Drivers/STM32F7xx_HAL_Driver/Src/stm32f7xx_hal_ltdc.c ****   return HAL_OK;
 1098              		.loc 1 633 0
 1099 00da 0023     		movs	r3, #0
 1100              	.L27:
 634:../../Drivers/STM32F7xx_HAL_Driver/Src/stm32f7xx_hal_ltdc.c **** }
 1101              		.loc 1 634 0
 1102 00dc 1846     		mov	r0, r3
 1103 00de 2437     		adds	r7, r7, #36
 1104              	.LCFI59:
 1105              		.cfi_def_cfa_offset 4
 1106 00e0 BD46     		mov	sp, r7
 1107              	.LCFI60:
 1108              		.cfi_def_cfa_register 13
 1109              		@ sp needed
 1110 00e2 5DF8047B 		ldr	r7, [sp], #4
 1111              	.LCFI61:
 1112              		.cfi_restore 7
 1113              		.cfi_def_cfa_offset 0
 1114 00e6 7047     		bx	lr
 1115              		.cfi_endproc
 1116              	.LFE145:
 1118              		.section	.text.HAL_LTDC_EnableColorKeying,"ax",%progbits
 1119              		.align	2
 1120              		.global	HAL_LTDC_EnableColorKeying
 1121              		.thumb
 1122              		.thumb_func
 1124              	HAL_LTDC_EnableColorKeying:
 1125              	.LFB146:
 635:../../Drivers/STM32F7xx_HAL_Driver/Src/stm32f7xx_hal_ltdc.c **** 
 636:../../Drivers/STM32F7xx_HAL_Driver/Src/stm32f7xx_hal_ltdc.c **** /**
 637:../../Drivers/STM32F7xx_HAL_Driver/Src/stm32f7xx_hal_ltdc.c ****   * @brief  Enable the color keying.
 638:../../Drivers/STM32F7xx_HAL_Driver/Src/stm32f7xx_hal_ltdc.c ****   * @param  hltdc:    pointer to a LTDC_HandleTypeDef structure that contains
 639:../../Drivers/STM32F7xx_HAL_Driver/Src/stm32f7xx_hal_ltdc.c ****   *                   the configuration information for the LTDC.
 640:../../Drivers/STM32F7xx_HAL_Driver/Src/stm32f7xx_hal_ltdc.c ****   * @param  LayerIdx:  LTDC Layer index.
 641:../../Drivers/STM32F7xx_HAL_Driver/Src/stm32f7xx_hal_ltdc.c ****   *                   This parameter can be one of the following values:
 642:../../Drivers/STM32F7xx_HAL_Driver/Src/stm32f7xx_hal_ltdc.c ****   *                   0 or 1
 643:../../Drivers/STM32F7xx_HAL_Driver/Src/stm32f7xx_hal_ltdc.c ****   * @retval  HAL status
 644:../../Drivers/STM32F7xx_HAL_Driver/Src/stm32f7xx_hal_ltdc.c ****   */
 645:../../Drivers/STM32F7xx_HAL_Driver/Src/stm32f7xx_hal_ltdc.c **** HAL_StatusTypeDef HAL_LTDC_EnableColorKeying(LTDC_HandleTypeDef *hltdc, uint32_t LayerIdx)
 646:../../Drivers/STM32F7xx_HAL_Driver/Src/stm32f7xx_hal_ltdc.c **** {  
 1126              		.loc 1 646 0
 1127              		.cfi_startproc
 1128              		@ args = 0, pretend = 0, frame = 8
 1129              		@ frame_needed = 1, uses_anonymous_args = 0
 1130              		@ link register save eliminated.
 1131 0000 80B4     		push	{r7}
 1132              	.LCFI62:
 1133              		.cfi_def_cfa_offset 4
 1134              		.cfi_offset 7, -4
 1135 0002 83B0     		sub	sp, sp, #12
 1136              	.LCFI63:
 1137              		.cfi_def_cfa_offset 16
 1138 0004 00AF     		add	r7, sp, #0
 1139              	.LCFI64:
 1140              		.cfi_def_cfa_register 7
ARM GAS  /tmp/cc3YVQL6.s 			page 32


 1141 0006 7860     		str	r0, [r7, #4]
 1142 0008 3960     		str	r1, [r7]
 647:../../Drivers/STM32F7xx_HAL_Driver/Src/stm32f7xx_hal_ltdc.c ****   /* Process locked */
 648:../../Drivers/STM32F7xx_HAL_Driver/Src/stm32f7xx_hal_ltdc.c ****   __HAL_LOCK(hltdc);
 1143              		.loc 1 648 0
 1144 000a 7B68     		ldr	r3, [r7, #4]
 1145 000c 93F8A030 		ldrb	r3, [r3, #160]	@ zero_extendqisi2
 1146 0010 012B     		cmp	r3, #1
 1147 0012 01D1     		bne	.L33
 1148              		.loc 1 648 0 is_stmt 0 discriminator 1
 1149 0014 0223     		movs	r3, #2
 1150 0016 27E0     		b	.L34
 1151              	.L33:
 1152              		.loc 1 648 0 discriminator 2
 1153 0018 7B68     		ldr	r3, [r7, #4]
 1154 001a 0122     		movs	r2, #1
 1155 001c 83F8A020 		strb	r2, [r3, #160]
 649:../../Drivers/STM32F7xx_HAL_Driver/Src/stm32f7xx_hal_ltdc.c **** 
 650:../../Drivers/STM32F7xx_HAL_Driver/Src/stm32f7xx_hal_ltdc.c ****   /* Change LTDC peripheral state */
 651:../../Drivers/STM32F7xx_HAL_Driver/Src/stm32f7xx_hal_ltdc.c ****   hltdc->State = HAL_LTDC_STATE_BUSY;
 1156              		.loc 1 651 0 is_stmt 1 discriminator 2
 1157 0020 7B68     		ldr	r3, [r7, #4]
 1158 0022 0222     		movs	r2, #2
 1159 0024 83F8A120 		strb	r2, [r3, #161]
 652:../../Drivers/STM32F7xx_HAL_Driver/Src/stm32f7xx_hal_ltdc.c **** 
 653:../../Drivers/STM32F7xx_HAL_Driver/Src/stm32f7xx_hal_ltdc.c ****   /* Check the parameters */
 654:../../Drivers/STM32F7xx_HAL_Driver/Src/stm32f7xx_hal_ltdc.c ****   assert_param(IS_LTDC_LAYER(LayerIdx));
 655:../../Drivers/STM32F7xx_HAL_Driver/Src/stm32f7xx_hal_ltdc.c **** 
 656:../../Drivers/STM32F7xx_HAL_Driver/Src/stm32f7xx_hal_ltdc.c ****   /* Enable LTDC color keying by setting COLKEN bit */
 657:../../Drivers/STM32F7xx_HAL_Driver/Src/stm32f7xx_hal_ltdc.c ****   LTDC_LAYER(hltdc, LayerIdx)->CR |= (uint32_t)LTDC_LxCR_COLKEN;
 1160              		.loc 1 657 0 discriminator 2
 1161 0028 7B68     		ldr	r3, [r7, #4]
 1162 002a 1B68     		ldr	r3, [r3]
 1163 002c 1A46     		mov	r2, r3
 1164 002e 3B68     		ldr	r3, [r7]
 1165 0030 DB01     		lsls	r3, r3, #7
 1166 0032 1344     		add	r3, r3, r2
 1167 0034 8433     		adds	r3, r3, #132
 1168 0036 1A46     		mov	r2, r3
 1169 0038 7B68     		ldr	r3, [r7, #4]
 1170 003a 1B68     		ldr	r3, [r3]
 1171 003c 1946     		mov	r1, r3
 1172 003e 3B68     		ldr	r3, [r7]
 1173 0040 DB01     		lsls	r3, r3, #7
 1174 0042 0B44     		add	r3, r3, r1
 1175 0044 8433     		adds	r3, r3, #132
 1176 0046 1B68     		ldr	r3, [r3]
 1177 0048 43F00203 		orr	r3, r3, #2
 1178 004c 1360     		str	r3, [r2]
 658:../../Drivers/STM32F7xx_HAL_Driver/Src/stm32f7xx_hal_ltdc.c **** 
 659:../../Drivers/STM32F7xx_HAL_Driver/Src/stm32f7xx_hal_ltdc.c ****   /* Sets the Reload type */
 660:../../Drivers/STM32F7xx_HAL_Driver/Src/stm32f7xx_hal_ltdc.c ****   hltdc->Instance->SRCR = LTDC_SRCR_IMR;
 1179              		.loc 1 660 0 discriminator 2
 1180 004e 7B68     		ldr	r3, [r7, #4]
 1181 0050 1B68     		ldr	r3, [r3]
 1182 0052 0122     		movs	r2, #1
 1183 0054 5A62     		str	r2, [r3, #36]
ARM GAS  /tmp/cc3YVQL6.s 			page 33


 661:../../Drivers/STM32F7xx_HAL_Driver/Src/stm32f7xx_hal_ltdc.c **** 
 662:../../Drivers/STM32F7xx_HAL_Driver/Src/stm32f7xx_hal_ltdc.c ****   /* Change the LTDC state*/
 663:../../Drivers/STM32F7xx_HAL_Driver/Src/stm32f7xx_hal_ltdc.c ****   hltdc->State = HAL_LTDC_STATE_READY; 
 1184              		.loc 1 663 0 discriminator 2
 1185 0056 7B68     		ldr	r3, [r7, #4]
 1186 0058 0122     		movs	r2, #1
 1187 005a 83F8A120 		strb	r2, [r3, #161]
 664:../../Drivers/STM32F7xx_HAL_Driver/Src/stm32f7xx_hal_ltdc.c **** 
 665:../../Drivers/STM32F7xx_HAL_Driver/Src/stm32f7xx_hal_ltdc.c ****   /* Process unlocked */
 666:../../Drivers/STM32F7xx_HAL_Driver/Src/stm32f7xx_hal_ltdc.c ****   __HAL_UNLOCK(hltdc);
 1188              		.loc 1 666 0 discriminator 2
 1189 005e 7B68     		ldr	r3, [r7, #4]
 1190 0060 0022     		movs	r2, #0
 1191 0062 83F8A020 		strb	r2, [r3, #160]
 667:../../Drivers/STM32F7xx_HAL_Driver/Src/stm32f7xx_hal_ltdc.c **** 
 668:../../Drivers/STM32F7xx_HAL_Driver/Src/stm32f7xx_hal_ltdc.c ****   return HAL_OK;  
 1192              		.loc 1 668 0 discriminator 2
 1193 0066 0023     		movs	r3, #0
 1194              	.L34:
 669:../../Drivers/STM32F7xx_HAL_Driver/Src/stm32f7xx_hal_ltdc.c **** }
 1195              		.loc 1 669 0
 1196 0068 1846     		mov	r0, r3
 1197 006a 0C37     		adds	r7, r7, #12
 1198              	.LCFI65:
 1199              		.cfi_def_cfa_offset 4
 1200 006c BD46     		mov	sp, r7
 1201              	.LCFI66:
 1202              		.cfi_def_cfa_register 13
 1203              		@ sp needed
 1204 006e 5DF8047B 		ldr	r7, [sp], #4
 1205              	.LCFI67:
 1206              		.cfi_restore 7
 1207              		.cfi_def_cfa_offset 0
 1208 0072 7047     		bx	lr
 1209              		.cfi_endproc
 1210              	.LFE146:
 1212              		.section	.text.HAL_LTDC_DisableColorKeying,"ax",%progbits
 1213              		.align	2
 1214              		.global	HAL_LTDC_DisableColorKeying
 1215              		.thumb
 1216              		.thumb_func
 1218              	HAL_LTDC_DisableColorKeying:
 1219              	.LFB147:
 670:../../Drivers/STM32F7xx_HAL_Driver/Src/stm32f7xx_hal_ltdc.c ****   
 671:../../Drivers/STM32F7xx_HAL_Driver/Src/stm32f7xx_hal_ltdc.c **** /**
 672:../../Drivers/STM32F7xx_HAL_Driver/Src/stm32f7xx_hal_ltdc.c ****   * @brief  Disable the color keying.
 673:../../Drivers/STM32F7xx_HAL_Driver/Src/stm32f7xx_hal_ltdc.c ****   * @param  hltdc:    pointer to a LTDC_HandleTypeDef structure that contains
 674:../../Drivers/STM32F7xx_HAL_Driver/Src/stm32f7xx_hal_ltdc.c ****   *                   the configuration information for the LTDC.
 675:../../Drivers/STM32F7xx_HAL_Driver/Src/stm32f7xx_hal_ltdc.c ****   * @param  LayerIdx:  LTDC Layer index.
 676:../../Drivers/STM32F7xx_HAL_Driver/Src/stm32f7xx_hal_ltdc.c ****   *                   This parameter can be one of the following values:
 677:../../Drivers/STM32F7xx_HAL_Driver/Src/stm32f7xx_hal_ltdc.c ****   *                   0 or 1
 678:../../Drivers/STM32F7xx_HAL_Driver/Src/stm32f7xx_hal_ltdc.c ****   * @retval  HAL status
 679:../../Drivers/STM32F7xx_HAL_Driver/Src/stm32f7xx_hal_ltdc.c ****   */
 680:../../Drivers/STM32F7xx_HAL_Driver/Src/stm32f7xx_hal_ltdc.c **** HAL_StatusTypeDef HAL_LTDC_DisableColorKeying(LTDC_HandleTypeDef *hltdc, uint32_t LayerIdx)
 681:../../Drivers/STM32F7xx_HAL_Driver/Src/stm32f7xx_hal_ltdc.c **** {
 1220              		.loc 1 681 0
 1221              		.cfi_startproc
ARM GAS  /tmp/cc3YVQL6.s 			page 34


 1222              		@ args = 0, pretend = 0, frame = 8
 1223              		@ frame_needed = 1, uses_anonymous_args = 0
 1224              		@ link register save eliminated.
 1225 0000 80B4     		push	{r7}
 1226              	.LCFI68:
 1227              		.cfi_def_cfa_offset 4
 1228              		.cfi_offset 7, -4
 1229 0002 83B0     		sub	sp, sp, #12
 1230              	.LCFI69:
 1231              		.cfi_def_cfa_offset 16
 1232 0004 00AF     		add	r7, sp, #0
 1233              	.LCFI70:
 1234              		.cfi_def_cfa_register 7
 1235 0006 7860     		str	r0, [r7, #4]
 1236 0008 3960     		str	r1, [r7]
 682:../../Drivers/STM32F7xx_HAL_Driver/Src/stm32f7xx_hal_ltdc.c ****   /* Process locked */
 683:../../Drivers/STM32F7xx_HAL_Driver/Src/stm32f7xx_hal_ltdc.c ****   __HAL_LOCK(hltdc);
 1237              		.loc 1 683 0
 1238 000a 7B68     		ldr	r3, [r7, #4]
 1239 000c 93F8A030 		ldrb	r3, [r3, #160]	@ zero_extendqisi2
 1240 0010 012B     		cmp	r3, #1
 1241 0012 01D1     		bne	.L36
 1242              		.loc 1 683 0 is_stmt 0 discriminator 1
 1243 0014 0223     		movs	r3, #2
 1244 0016 27E0     		b	.L37
 1245              	.L36:
 1246              		.loc 1 683 0 discriminator 2
 1247 0018 7B68     		ldr	r3, [r7, #4]
 1248 001a 0122     		movs	r2, #1
 1249 001c 83F8A020 		strb	r2, [r3, #160]
 684:../../Drivers/STM32F7xx_HAL_Driver/Src/stm32f7xx_hal_ltdc.c **** 
 685:../../Drivers/STM32F7xx_HAL_Driver/Src/stm32f7xx_hal_ltdc.c ****   /* Change LTDC peripheral state */
 686:../../Drivers/STM32F7xx_HAL_Driver/Src/stm32f7xx_hal_ltdc.c ****   hltdc->State = HAL_LTDC_STATE_BUSY;
 1250              		.loc 1 686 0 is_stmt 1 discriminator 2
 1251 0020 7B68     		ldr	r3, [r7, #4]
 1252 0022 0222     		movs	r2, #2
 1253 0024 83F8A120 		strb	r2, [r3, #161]
 687:../../Drivers/STM32F7xx_HAL_Driver/Src/stm32f7xx_hal_ltdc.c **** 
 688:../../Drivers/STM32F7xx_HAL_Driver/Src/stm32f7xx_hal_ltdc.c ****   /* Check the parameters */
 689:../../Drivers/STM32F7xx_HAL_Driver/Src/stm32f7xx_hal_ltdc.c ****   assert_param(IS_LTDC_LAYER(LayerIdx));
 690:../../Drivers/STM32F7xx_HAL_Driver/Src/stm32f7xx_hal_ltdc.c **** 
 691:../../Drivers/STM32F7xx_HAL_Driver/Src/stm32f7xx_hal_ltdc.c ****   /* Disable LTDC color keying by setting COLKEN bit */
 692:../../Drivers/STM32F7xx_HAL_Driver/Src/stm32f7xx_hal_ltdc.c ****   LTDC_LAYER(hltdc, LayerIdx)->CR &= ~(uint32_t)LTDC_LxCR_COLKEN;
 1254              		.loc 1 692 0 discriminator 2
 1255 0028 7B68     		ldr	r3, [r7, #4]
 1256 002a 1B68     		ldr	r3, [r3]
 1257 002c 1A46     		mov	r2, r3
 1258 002e 3B68     		ldr	r3, [r7]
 1259 0030 DB01     		lsls	r3, r3, #7
 1260 0032 1344     		add	r3, r3, r2
 1261 0034 8433     		adds	r3, r3, #132
 1262 0036 1A46     		mov	r2, r3
 1263 0038 7B68     		ldr	r3, [r7, #4]
 1264 003a 1B68     		ldr	r3, [r3]
 1265 003c 1946     		mov	r1, r3
 1266 003e 3B68     		ldr	r3, [r7]
 1267 0040 DB01     		lsls	r3, r3, #7
ARM GAS  /tmp/cc3YVQL6.s 			page 35


 1268 0042 0B44     		add	r3, r3, r1
 1269 0044 8433     		adds	r3, r3, #132
 1270 0046 1B68     		ldr	r3, [r3]
 1271 0048 23F00203 		bic	r3, r3, #2
 1272 004c 1360     		str	r3, [r2]
 693:../../Drivers/STM32F7xx_HAL_Driver/Src/stm32f7xx_hal_ltdc.c **** 
 694:../../Drivers/STM32F7xx_HAL_Driver/Src/stm32f7xx_hal_ltdc.c ****   /* Sets the Reload type */
 695:../../Drivers/STM32F7xx_HAL_Driver/Src/stm32f7xx_hal_ltdc.c ****   hltdc->Instance->SRCR = LTDC_SRCR_IMR;
 1273              		.loc 1 695 0 discriminator 2
 1274 004e 7B68     		ldr	r3, [r7, #4]
 1275 0050 1B68     		ldr	r3, [r3]
 1276 0052 0122     		movs	r2, #1
 1277 0054 5A62     		str	r2, [r3, #36]
 696:../../Drivers/STM32F7xx_HAL_Driver/Src/stm32f7xx_hal_ltdc.c **** 
 697:../../Drivers/STM32F7xx_HAL_Driver/Src/stm32f7xx_hal_ltdc.c ****   /* Change the LTDC state*/
 698:../../Drivers/STM32F7xx_HAL_Driver/Src/stm32f7xx_hal_ltdc.c ****   hltdc->State = HAL_LTDC_STATE_READY; 
 1278              		.loc 1 698 0 discriminator 2
 1279 0056 7B68     		ldr	r3, [r7, #4]
 1280 0058 0122     		movs	r2, #1
 1281 005a 83F8A120 		strb	r2, [r3, #161]
 699:../../Drivers/STM32F7xx_HAL_Driver/Src/stm32f7xx_hal_ltdc.c **** 
 700:../../Drivers/STM32F7xx_HAL_Driver/Src/stm32f7xx_hal_ltdc.c ****   /* Process unlocked */
 701:../../Drivers/STM32F7xx_HAL_Driver/Src/stm32f7xx_hal_ltdc.c ****   __HAL_UNLOCK(hltdc);
 1282              		.loc 1 701 0 discriminator 2
 1283 005e 7B68     		ldr	r3, [r7, #4]
 1284 0060 0022     		movs	r2, #0
 1285 0062 83F8A020 		strb	r2, [r3, #160]
 702:../../Drivers/STM32F7xx_HAL_Driver/Src/stm32f7xx_hal_ltdc.c **** 
 703:../../Drivers/STM32F7xx_HAL_Driver/Src/stm32f7xx_hal_ltdc.c ****   return HAL_OK;
 1286              		.loc 1 703 0 discriminator 2
 1287 0066 0023     		movs	r3, #0
 1288              	.L37:
 704:../../Drivers/STM32F7xx_HAL_Driver/Src/stm32f7xx_hal_ltdc.c **** }
 1289              		.loc 1 704 0
 1290 0068 1846     		mov	r0, r3
 1291 006a 0C37     		adds	r7, r7, #12
 1292              	.LCFI71:
 1293              		.cfi_def_cfa_offset 4
 1294 006c BD46     		mov	sp, r7
 1295              	.LCFI72:
 1296              		.cfi_def_cfa_register 13
 1297              		@ sp needed
 1298 006e 5DF8047B 		ldr	r7, [sp], #4
 1299              	.LCFI73:
 1300              		.cfi_restore 7
 1301              		.cfi_def_cfa_offset 0
 1302 0072 7047     		bx	lr
 1303              		.cfi_endproc
 1304              	.LFE147:
 1306              		.section	.text.HAL_LTDC_EnableCLUT,"ax",%progbits
 1307              		.align	2
 1308              		.global	HAL_LTDC_EnableCLUT
 1309              		.thumb
 1310              		.thumb_func
 1312              	HAL_LTDC_EnableCLUT:
 1313              	.LFB148:
 705:../../Drivers/STM32F7xx_HAL_Driver/Src/stm32f7xx_hal_ltdc.c **** 
ARM GAS  /tmp/cc3YVQL6.s 			page 36


 706:../../Drivers/STM32F7xx_HAL_Driver/Src/stm32f7xx_hal_ltdc.c **** /**
 707:../../Drivers/STM32F7xx_HAL_Driver/Src/stm32f7xx_hal_ltdc.c ****   * @brief  Enable the color lookup table.
 708:../../Drivers/STM32F7xx_HAL_Driver/Src/stm32f7xx_hal_ltdc.c ****   * @param  hltdc:    pointer to a LTDC_HandleTypeDef structure that contains
 709:../../Drivers/STM32F7xx_HAL_Driver/Src/stm32f7xx_hal_ltdc.c ****   *                   the configuration information for the LTDC.
 710:../../Drivers/STM32F7xx_HAL_Driver/Src/stm32f7xx_hal_ltdc.c ****   * @param  LayerIdx:  LTDC Layer index.
 711:../../Drivers/STM32F7xx_HAL_Driver/Src/stm32f7xx_hal_ltdc.c ****   *                   This parameter can be one of the following values:
 712:../../Drivers/STM32F7xx_HAL_Driver/Src/stm32f7xx_hal_ltdc.c ****   *                   0 or 1
 713:../../Drivers/STM32F7xx_HAL_Driver/Src/stm32f7xx_hal_ltdc.c ****   * @retval  HAL status
 714:../../Drivers/STM32F7xx_HAL_Driver/Src/stm32f7xx_hal_ltdc.c ****   */
 715:../../Drivers/STM32F7xx_HAL_Driver/Src/stm32f7xx_hal_ltdc.c **** HAL_StatusTypeDef HAL_LTDC_EnableCLUT(LTDC_HandleTypeDef *hltdc, uint32_t LayerIdx)
 716:../../Drivers/STM32F7xx_HAL_Driver/Src/stm32f7xx_hal_ltdc.c **** {
 1314              		.loc 1 716 0
 1315              		.cfi_startproc
 1316              		@ args = 0, pretend = 0, frame = 8
 1317              		@ frame_needed = 1, uses_anonymous_args = 0
 1318              		@ link register save eliminated.
 1319 0000 80B4     		push	{r7}
 1320              	.LCFI74:
 1321              		.cfi_def_cfa_offset 4
 1322              		.cfi_offset 7, -4
 1323 0002 83B0     		sub	sp, sp, #12
 1324              	.LCFI75:
 1325              		.cfi_def_cfa_offset 16
 1326 0004 00AF     		add	r7, sp, #0
 1327              	.LCFI76:
 1328              		.cfi_def_cfa_register 7
 1329 0006 7860     		str	r0, [r7, #4]
 1330 0008 3960     		str	r1, [r7]
 717:../../Drivers/STM32F7xx_HAL_Driver/Src/stm32f7xx_hal_ltdc.c **** 
 718:../../Drivers/STM32F7xx_HAL_Driver/Src/stm32f7xx_hal_ltdc.c ****   /* Process locked */
 719:../../Drivers/STM32F7xx_HAL_Driver/Src/stm32f7xx_hal_ltdc.c ****   __HAL_LOCK(hltdc);
 1331              		.loc 1 719 0
 1332 000a 7B68     		ldr	r3, [r7, #4]
 1333 000c 93F8A030 		ldrb	r3, [r3, #160]	@ zero_extendqisi2
 1334 0010 012B     		cmp	r3, #1
 1335 0012 01D1     		bne	.L39
 1336              		.loc 1 719 0 is_stmt 0 discriminator 1
 1337 0014 0223     		movs	r3, #2
 1338 0016 27E0     		b	.L40
 1339              	.L39:
 1340              		.loc 1 719 0 discriminator 2
 1341 0018 7B68     		ldr	r3, [r7, #4]
 1342 001a 0122     		movs	r2, #1
 1343 001c 83F8A020 		strb	r2, [r3, #160]
 720:../../Drivers/STM32F7xx_HAL_Driver/Src/stm32f7xx_hal_ltdc.c **** 
 721:../../Drivers/STM32F7xx_HAL_Driver/Src/stm32f7xx_hal_ltdc.c ****   /* Change LTDC peripheral state */
 722:../../Drivers/STM32F7xx_HAL_Driver/Src/stm32f7xx_hal_ltdc.c ****   hltdc->State = HAL_LTDC_STATE_BUSY;
 1344              		.loc 1 722 0 is_stmt 1 discriminator 2
 1345 0020 7B68     		ldr	r3, [r7, #4]
 1346 0022 0222     		movs	r2, #2
 1347 0024 83F8A120 		strb	r2, [r3, #161]
 723:../../Drivers/STM32F7xx_HAL_Driver/Src/stm32f7xx_hal_ltdc.c **** 
 724:../../Drivers/STM32F7xx_HAL_Driver/Src/stm32f7xx_hal_ltdc.c ****   /* Check the parameters */
 725:../../Drivers/STM32F7xx_HAL_Driver/Src/stm32f7xx_hal_ltdc.c ****   assert_param(IS_LTDC_LAYER(LayerIdx));
 726:../../Drivers/STM32F7xx_HAL_Driver/Src/stm32f7xx_hal_ltdc.c **** 
 727:../../Drivers/STM32F7xx_HAL_Driver/Src/stm32f7xx_hal_ltdc.c ****   /* Disable LTDC color lookup table by setting CLUTEN bit */
 728:../../Drivers/STM32F7xx_HAL_Driver/Src/stm32f7xx_hal_ltdc.c ****   LTDC_LAYER(hltdc, LayerIdx)->CR |= (uint32_t)LTDC_LxCR_CLUTEN;
ARM GAS  /tmp/cc3YVQL6.s 			page 37


 1348              		.loc 1 728 0 discriminator 2
 1349 0028 7B68     		ldr	r3, [r7, #4]
 1350 002a 1B68     		ldr	r3, [r3]
 1351 002c 1A46     		mov	r2, r3
 1352 002e 3B68     		ldr	r3, [r7]
 1353 0030 DB01     		lsls	r3, r3, #7
 1354 0032 1344     		add	r3, r3, r2
 1355 0034 8433     		adds	r3, r3, #132
 1356 0036 1A46     		mov	r2, r3
 1357 0038 7B68     		ldr	r3, [r7, #4]
 1358 003a 1B68     		ldr	r3, [r3]
 1359 003c 1946     		mov	r1, r3
 1360 003e 3B68     		ldr	r3, [r7]
 1361 0040 DB01     		lsls	r3, r3, #7
 1362 0042 0B44     		add	r3, r3, r1
 1363 0044 8433     		adds	r3, r3, #132
 1364 0046 1B68     		ldr	r3, [r3]
 1365 0048 43F01003 		orr	r3, r3, #16
 1366 004c 1360     		str	r3, [r2]
 729:../../Drivers/STM32F7xx_HAL_Driver/Src/stm32f7xx_hal_ltdc.c **** 
 730:../../Drivers/STM32F7xx_HAL_Driver/Src/stm32f7xx_hal_ltdc.c ****   /* Sets the Reload type */
 731:../../Drivers/STM32F7xx_HAL_Driver/Src/stm32f7xx_hal_ltdc.c ****   hltdc->Instance->SRCR = LTDC_SRCR_IMR;
 1367              		.loc 1 731 0 discriminator 2
 1368 004e 7B68     		ldr	r3, [r7, #4]
 1369 0050 1B68     		ldr	r3, [r3]
 1370 0052 0122     		movs	r2, #1
 1371 0054 5A62     		str	r2, [r3, #36]
 732:../../Drivers/STM32F7xx_HAL_Driver/Src/stm32f7xx_hal_ltdc.c **** 
 733:../../Drivers/STM32F7xx_HAL_Driver/Src/stm32f7xx_hal_ltdc.c ****   /* Change the LTDC state*/
 734:../../Drivers/STM32F7xx_HAL_Driver/Src/stm32f7xx_hal_ltdc.c ****   hltdc->State = HAL_LTDC_STATE_READY; 
 1372              		.loc 1 734 0 discriminator 2
 1373 0056 7B68     		ldr	r3, [r7, #4]
 1374 0058 0122     		movs	r2, #1
 1375 005a 83F8A120 		strb	r2, [r3, #161]
 735:../../Drivers/STM32F7xx_HAL_Driver/Src/stm32f7xx_hal_ltdc.c **** 
 736:../../Drivers/STM32F7xx_HAL_Driver/Src/stm32f7xx_hal_ltdc.c ****   /* Process unlocked */
 737:../../Drivers/STM32F7xx_HAL_Driver/Src/stm32f7xx_hal_ltdc.c ****   __HAL_UNLOCK(hltdc);
 1376              		.loc 1 737 0 discriminator 2
 1377 005e 7B68     		ldr	r3, [r7, #4]
 1378 0060 0022     		movs	r2, #0
 1379 0062 83F8A020 		strb	r2, [r3, #160]
 738:../../Drivers/STM32F7xx_HAL_Driver/Src/stm32f7xx_hal_ltdc.c **** 
 739:../../Drivers/STM32F7xx_HAL_Driver/Src/stm32f7xx_hal_ltdc.c ****   return HAL_OK;
 1380              		.loc 1 739 0 discriminator 2
 1381 0066 0023     		movs	r3, #0
 1382              	.L40:
 740:../../Drivers/STM32F7xx_HAL_Driver/Src/stm32f7xx_hal_ltdc.c **** }
 1383              		.loc 1 740 0
 1384 0068 1846     		mov	r0, r3
 1385 006a 0C37     		adds	r7, r7, #12
 1386              	.LCFI77:
 1387              		.cfi_def_cfa_offset 4
 1388 006c BD46     		mov	sp, r7
 1389              	.LCFI78:
 1390              		.cfi_def_cfa_register 13
 1391              		@ sp needed
 1392 006e 5DF8047B 		ldr	r7, [sp], #4
ARM GAS  /tmp/cc3YVQL6.s 			page 38


 1393              	.LCFI79:
 1394              		.cfi_restore 7
 1395              		.cfi_def_cfa_offset 0
 1396 0072 7047     		bx	lr
 1397              		.cfi_endproc
 1398              	.LFE148:
 1400              		.section	.text.HAL_LTDC_DisableCLUT,"ax",%progbits
 1401              		.align	2
 1402              		.global	HAL_LTDC_DisableCLUT
 1403              		.thumb
 1404              		.thumb_func
 1406              	HAL_LTDC_DisableCLUT:
 1407              	.LFB149:
 741:../../Drivers/STM32F7xx_HAL_Driver/Src/stm32f7xx_hal_ltdc.c **** 
 742:../../Drivers/STM32F7xx_HAL_Driver/Src/stm32f7xx_hal_ltdc.c **** /**
 743:../../Drivers/STM32F7xx_HAL_Driver/Src/stm32f7xx_hal_ltdc.c ****   * @brief  Disable the color lookup table.
 744:../../Drivers/STM32F7xx_HAL_Driver/Src/stm32f7xx_hal_ltdc.c ****   * @param  hltdc:    pointer to a LTDC_HandleTypeDef structure that contains
 745:../../Drivers/STM32F7xx_HAL_Driver/Src/stm32f7xx_hal_ltdc.c ****   *                   the configuration information for the LTDC.
 746:../../Drivers/STM32F7xx_HAL_Driver/Src/stm32f7xx_hal_ltdc.c ****   * @param  LayerIdx:  LTDC Layer index.
 747:../../Drivers/STM32F7xx_HAL_Driver/Src/stm32f7xx_hal_ltdc.c ****   *                   This parameter can be one of the following values:
 748:../../Drivers/STM32F7xx_HAL_Driver/Src/stm32f7xx_hal_ltdc.c ****   *                   0 or 1   
 749:../../Drivers/STM32F7xx_HAL_Driver/Src/stm32f7xx_hal_ltdc.c ****   * @retval  HAL status
 750:../../Drivers/STM32F7xx_HAL_Driver/Src/stm32f7xx_hal_ltdc.c ****   */
 751:../../Drivers/STM32F7xx_HAL_Driver/Src/stm32f7xx_hal_ltdc.c **** HAL_StatusTypeDef HAL_LTDC_DisableCLUT(LTDC_HandleTypeDef *hltdc, uint32_t LayerIdx)
 752:../../Drivers/STM32F7xx_HAL_Driver/Src/stm32f7xx_hal_ltdc.c **** {
 1408              		.loc 1 752 0
 1409              		.cfi_startproc
 1410              		@ args = 0, pretend = 0, frame = 8
 1411              		@ frame_needed = 1, uses_anonymous_args = 0
 1412              		@ link register save eliminated.
 1413 0000 80B4     		push	{r7}
 1414              	.LCFI80:
 1415              		.cfi_def_cfa_offset 4
 1416              		.cfi_offset 7, -4
 1417 0002 83B0     		sub	sp, sp, #12
 1418              	.LCFI81:
 1419              		.cfi_def_cfa_offset 16
 1420 0004 00AF     		add	r7, sp, #0
 1421              	.LCFI82:
 1422              		.cfi_def_cfa_register 7
 1423 0006 7860     		str	r0, [r7, #4]
 1424 0008 3960     		str	r1, [r7]
 753:../../Drivers/STM32F7xx_HAL_Driver/Src/stm32f7xx_hal_ltdc.c ****  
 754:../../Drivers/STM32F7xx_HAL_Driver/Src/stm32f7xx_hal_ltdc.c ****   /* Process locked */
 755:../../Drivers/STM32F7xx_HAL_Driver/Src/stm32f7xx_hal_ltdc.c ****   __HAL_LOCK(hltdc);
 1425              		.loc 1 755 0
 1426 000a 7B68     		ldr	r3, [r7, #4]
 1427 000c 93F8A030 		ldrb	r3, [r3, #160]	@ zero_extendqisi2
 1428 0010 012B     		cmp	r3, #1
 1429 0012 01D1     		bne	.L42
 1430              		.loc 1 755 0 is_stmt 0 discriminator 1
 1431 0014 0223     		movs	r3, #2
 1432 0016 27E0     		b	.L43
 1433              	.L42:
 1434              		.loc 1 755 0 discriminator 2
 1435 0018 7B68     		ldr	r3, [r7, #4]
 1436 001a 0122     		movs	r2, #1
ARM GAS  /tmp/cc3YVQL6.s 			page 39


 1437 001c 83F8A020 		strb	r2, [r3, #160]
 756:../../Drivers/STM32F7xx_HAL_Driver/Src/stm32f7xx_hal_ltdc.c **** 
 757:../../Drivers/STM32F7xx_HAL_Driver/Src/stm32f7xx_hal_ltdc.c ****   /* Change LTDC peripheral state */
 758:../../Drivers/STM32F7xx_HAL_Driver/Src/stm32f7xx_hal_ltdc.c ****   hltdc->State = HAL_LTDC_STATE_BUSY;
 1438              		.loc 1 758 0 is_stmt 1 discriminator 2
 1439 0020 7B68     		ldr	r3, [r7, #4]
 1440 0022 0222     		movs	r2, #2
 1441 0024 83F8A120 		strb	r2, [r3, #161]
 759:../../Drivers/STM32F7xx_HAL_Driver/Src/stm32f7xx_hal_ltdc.c **** 
 760:../../Drivers/STM32F7xx_HAL_Driver/Src/stm32f7xx_hal_ltdc.c ****   /* Check the parameters */
 761:../../Drivers/STM32F7xx_HAL_Driver/Src/stm32f7xx_hal_ltdc.c ****   assert_param(IS_LTDC_LAYER(LayerIdx));
 762:../../Drivers/STM32F7xx_HAL_Driver/Src/stm32f7xx_hal_ltdc.c **** 
 763:../../Drivers/STM32F7xx_HAL_Driver/Src/stm32f7xx_hal_ltdc.c ****   /* Disable LTDC color lookup table by setting CLUTEN bit */
 764:../../Drivers/STM32F7xx_HAL_Driver/Src/stm32f7xx_hal_ltdc.c ****   LTDC_LAYER(hltdc, LayerIdx)->CR &= ~(uint32_t)LTDC_LxCR_CLUTEN;
 1442              		.loc 1 764 0 discriminator 2
 1443 0028 7B68     		ldr	r3, [r7, #4]
 1444 002a 1B68     		ldr	r3, [r3]
 1445 002c 1A46     		mov	r2, r3
 1446 002e 3B68     		ldr	r3, [r7]
 1447 0030 DB01     		lsls	r3, r3, #7
 1448 0032 1344     		add	r3, r3, r2
 1449 0034 8433     		adds	r3, r3, #132
 1450 0036 1A46     		mov	r2, r3
 1451 0038 7B68     		ldr	r3, [r7, #4]
 1452 003a 1B68     		ldr	r3, [r3]
 1453 003c 1946     		mov	r1, r3
 1454 003e 3B68     		ldr	r3, [r7]
 1455 0040 DB01     		lsls	r3, r3, #7
 1456 0042 0B44     		add	r3, r3, r1
 1457 0044 8433     		adds	r3, r3, #132
 1458 0046 1B68     		ldr	r3, [r3]
 1459 0048 23F01003 		bic	r3, r3, #16
 1460 004c 1360     		str	r3, [r2]
 765:../../Drivers/STM32F7xx_HAL_Driver/Src/stm32f7xx_hal_ltdc.c **** 
 766:../../Drivers/STM32F7xx_HAL_Driver/Src/stm32f7xx_hal_ltdc.c ****   /* Sets the Reload type */
 767:../../Drivers/STM32F7xx_HAL_Driver/Src/stm32f7xx_hal_ltdc.c ****   hltdc->Instance->SRCR = LTDC_SRCR_IMR;
 1461              		.loc 1 767 0 discriminator 2
 1462 004e 7B68     		ldr	r3, [r7, #4]
 1463 0050 1B68     		ldr	r3, [r3]
 1464 0052 0122     		movs	r2, #1
 1465 0054 5A62     		str	r2, [r3, #36]
 768:../../Drivers/STM32F7xx_HAL_Driver/Src/stm32f7xx_hal_ltdc.c **** 
 769:../../Drivers/STM32F7xx_HAL_Driver/Src/stm32f7xx_hal_ltdc.c ****   /* Change the LTDC state*/
 770:../../Drivers/STM32F7xx_HAL_Driver/Src/stm32f7xx_hal_ltdc.c ****   hltdc->State = HAL_LTDC_STATE_READY; 
 1466              		.loc 1 770 0 discriminator 2
 1467 0056 7B68     		ldr	r3, [r7, #4]
 1468 0058 0122     		movs	r2, #1
 1469 005a 83F8A120 		strb	r2, [r3, #161]
 771:../../Drivers/STM32F7xx_HAL_Driver/Src/stm32f7xx_hal_ltdc.c **** 
 772:../../Drivers/STM32F7xx_HAL_Driver/Src/stm32f7xx_hal_ltdc.c ****   /* Process unlocked */
 773:../../Drivers/STM32F7xx_HAL_Driver/Src/stm32f7xx_hal_ltdc.c ****   __HAL_UNLOCK(hltdc);
 1470              		.loc 1 773 0 discriminator 2
 1471 005e 7B68     		ldr	r3, [r7, #4]
 1472 0060 0022     		movs	r2, #0
 1473 0062 83F8A020 		strb	r2, [r3, #160]
 774:../../Drivers/STM32F7xx_HAL_Driver/Src/stm32f7xx_hal_ltdc.c **** 
 775:../../Drivers/STM32F7xx_HAL_Driver/Src/stm32f7xx_hal_ltdc.c ****   return HAL_OK;
ARM GAS  /tmp/cc3YVQL6.s 			page 40


 1474              		.loc 1 775 0 discriminator 2
 1475 0066 0023     		movs	r3, #0
 1476              	.L43:
 776:../../Drivers/STM32F7xx_HAL_Driver/Src/stm32f7xx_hal_ltdc.c **** }
 1477              		.loc 1 776 0
 1478 0068 1846     		mov	r0, r3
 1479 006a 0C37     		adds	r7, r7, #12
 1480              	.LCFI83:
 1481              		.cfi_def_cfa_offset 4
 1482 006c BD46     		mov	sp, r7
 1483              	.LCFI84:
 1484              		.cfi_def_cfa_register 13
 1485              		@ sp needed
 1486 006e 5DF8047B 		ldr	r7, [sp], #4
 1487              	.LCFI85:
 1488              		.cfi_restore 7
 1489              		.cfi_def_cfa_offset 0
 1490 0072 7047     		bx	lr
 1491              		.cfi_endproc
 1492              	.LFE149:
 1494              		.section	.text.HAL_LTDC_EnableDither,"ax",%progbits
 1495              		.align	2
 1496              		.global	HAL_LTDC_EnableDither
 1497              		.thumb
 1498              		.thumb_func
 1500              	HAL_LTDC_EnableDither:
 1501              	.LFB150:
 777:../../Drivers/STM32F7xx_HAL_Driver/Src/stm32f7xx_hal_ltdc.c **** 
 778:../../Drivers/STM32F7xx_HAL_Driver/Src/stm32f7xx_hal_ltdc.c **** /**
 779:../../Drivers/STM32F7xx_HAL_Driver/Src/stm32f7xx_hal_ltdc.c ****   * @brief  Enables Dither.
 780:../../Drivers/STM32F7xx_HAL_Driver/Src/stm32f7xx_hal_ltdc.c ****   * @param  hltdc: pointer to a LTDC_HandleTypeDef structure that contains
 781:../../Drivers/STM32F7xx_HAL_Driver/Src/stm32f7xx_hal_ltdc.c ****   *                the configuration information for the LTDC.
 782:../../Drivers/STM32F7xx_HAL_Driver/Src/stm32f7xx_hal_ltdc.c ****   * @retval  HAL status
 783:../../Drivers/STM32F7xx_HAL_Driver/Src/stm32f7xx_hal_ltdc.c ****   */
 784:../../Drivers/STM32F7xx_HAL_Driver/Src/stm32f7xx_hal_ltdc.c **** 
 785:../../Drivers/STM32F7xx_HAL_Driver/Src/stm32f7xx_hal_ltdc.c **** HAL_StatusTypeDef HAL_LTDC_EnableDither(LTDC_HandleTypeDef *hltdc)
 786:../../Drivers/STM32F7xx_HAL_Driver/Src/stm32f7xx_hal_ltdc.c **** {
 1502              		.loc 1 786 0
 1503              		.cfi_startproc
 1504              		@ args = 0, pretend = 0, frame = 8
 1505              		@ frame_needed = 1, uses_anonymous_args = 0
 1506              		@ link register save eliminated.
 1507 0000 80B4     		push	{r7}
 1508              	.LCFI86:
 1509              		.cfi_def_cfa_offset 4
 1510              		.cfi_offset 7, -4
 1511 0002 83B0     		sub	sp, sp, #12
 1512              	.LCFI87:
 1513              		.cfi_def_cfa_offset 16
 1514 0004 00AF     		add	r7, sp, #0
 1515              	.LCFI88:
 1516              		.cfi_def_cfa_register 7
 1517 0006 7860     		str	r0, [r7, #4]
 787:../../Drivers/STM32F7xx_HAL_Driver/Src/stm32f7xx_hal_ltdc.c ****   /* Process locked */
 788:../../Drivers/STM32F7xx_HAL_Driver/Src/stm32f7xx_hal_ltdc.c ****   __HAL_LOCK(hltdc);
 1518              		.loc 1 788 0
 1519 0008 7B68     		ldr	r3, [r7, #4]
ARM GAS  /tmp/cc3YVQL6.s 			page 41


 1520 000a 93F8A030 		ldrb	r3, [r3, #160]	@ zero_extendqisi2
 1521 000e 012B     		cmp	r3, #1
 1522 0010 01D1     		bne	.L45
 1523              		.loc 1 788 0 is_stmt 0 discriminator 1
 1524 0012 0223     		movs	r3, #2
 1525 0014 16E0     		b	.L46
 1526              	.L45:
 1527              		.loc 1 788 0 discriminator 2
 1528 0016 7B68     		ldr	r3, [r7, #4]
 1529 0018 0122     		movs	r2, #1
 1530 001a 83F8A020 		strb	r2, [r3, #160]
 789:../../Drivers/STM32F7xx_HAL_Driver/Src/stm32f7xx_hal_ltdc.c **** 
 790:../../Drivers/STM32F7xx_HAL_Driver/Src/stm32f7xx_hal_ltdc.c ****   /* Change LTDC peripheral state */
 791:../../Drivers/STM32F7xx_HAL_Driver/Src/stm32f7xx_hal_ltdc.c ****   hltdc->State = HAL_LTDC_STATE_BUSY;
 1531              		.loc 1 791 0 is_stmt 1 discriminator 2
 1532 001e 7B68     		ldr	r3, [r7, #4]
 1533 0020 0222     		movs	r2, #2
 1534 0022 83F8A120 		strb	r2, [r3, #161]
 792:../../Drivers/STM32F7xx_HAL_Driver/Src/stm32f7xx_hal_ltdc.c **** 
 793:../../Drivers/STM32F7xx_HAL_Driver/Src/stm32f7xx_hal_ltdc.c ****   /* Enable Dither by setting DTEN bit */
 794:../../Drivers/STM32F7xx_HAL_Driver/Src/stm32f7xx_hal_ltdc.c ****   LTDC->GCR |= (uint32_t)LTDC_GCR_DEN;
 1535              		.loc 1 794 0 discriminator 2
 1536 0026 0A4A     		ldr	r2, .L47
 1537 0028 094B     		ldr	r3, .L47
 1538 002a 9B69     		ldr	r3, [r3, #24]
 1539 002c 43F48033 		orr	r3, r3, #65536
 1540 0030 9361     		str	r3, [r2, #24]
 795:../../Drivers/STM32F7xx_HAL_Driver/Src/stm32f7xx_hal_ltdc.c **** 
 796:../../Drivers/STM32F7xx_HAL_Driver/Src/stm32f7xx_hal_ltdc.c ****   /* Change the LTDC state*/
 797:../../Drivers/STM32F7xx_HAL_Driver/Src/stm32f7xx_hal_ltdc.c ****   hltdc->State = HAL_LTDC_STATE_READY; 
 1541              		.loc 1 797 0 discriminator 2
 1542 0032 7B68     		ldr	r3, [r7, #4]
 1543 0034 0122     		movs	r2, #1
 1544 0036 83F8A120 		strb	r2, [r3, #161]
 798:../../Drivers/STM32F7xx_HAL_Driver/Src/stm32f7xx_hal_ltdc.c **** 
 799:../../Drivers/STM32F7xx_HAL_Driver/Src/stm32f7xx_hal_ltdc.c ****   /* Process unlocked */
 800:../../Drivers/STM32F7xx_HAL_Driver/Src/stm32f7xx_hal_ltdc.c ****   __HAL_UNLOCK(hltdc);
 1545              		.loc 1 800 0 discriminator 2
 1546 003a 7B68     		ldr	r3, [r7, #4]
 1547 003c 0022     		movs	r2, #0
 1548 003e 83F8A020 		strb	r2, [r3, #160]
 801:../../Drivers/STM32F7xx_HAL_Driver/Src/stm32f7xx_hal_ltdc.c **** 
 802:../../Drivers/STM32F7xx_HAL_Driver/Src/stm32f7xx_hal_ltdc.c ****   return HAL_OK;
 1549              		.loc 1 802 0 discriminator 2
 1550 0042 0023     		movs	r3, #0
 1551              	.L46:
 803:../../Drivers/STM32F7xx_HAL_Driver/Src/stm32f7xx_hal_ltdc.c **** }
 1552              		.loc 1 803 0
 1553 0044 1846     		mov	r0, r3
 1554 0046 0C37     		adds	r7, r7, #12
 1555              	.LCFI89:
 1556              		.cfi_def_cfa_offset 4
 1557 0048 BD46     		mov	sp, r7
 1558              	.LCFI90:
 1559              		.cfi_def_cfa_register 13
 1560              		@ sp needed
 1561 004a 5DF8047B 		ldr	r7, [sp], #4
ARM GAS  /tmp/cc3YVQL6.s 			page 42


 1562              	.LCFI91:
 1563              		.cfi_restore 7
 1564              		.cfi_def_cfa_offset 0
 1565 004e 7047     		bx	lr
 1566              	.L48:
 1567              		.align	2
 1568              	.L47:
 1569 0050 00680140 		.word	1073833984
 1570              		.cfi_endproc
 1571              	.LFE150:
 1573              		.section	.text.HAL_LTDC_DisableDither,"ax",%progbits
 1574              		.align	2
 1575              		.global	HAL_LTDC_DisableDither
 1576              		.thumb
 1577              		.thumb_func
 1579              	HAL_LTDC_DisableDither:
 1580              	.LFB151:
 804:../../Drivers/STM32F7xx_HAL_Driver/Src/stm32f7xx_hal_ltdc.c **** 
 805:../../Drivers/STM32F7xx_HAL_Driver/Src/stm32f7xx_hal_ltdc.c **** /**
 806:../../Drivers/STM32F7xx_HAL_Driver/Src/stm32f7xx_hal_ltdc.c ****   * @brief  Disables Dither.
 807:../../Drivers/STM32F7xx_HAL_Driver/Src/stm32f7xx_hal_ltdc.c ****   * @param  hltdc: pointer to a LTDC_HandleTypeDef structure that contains
 808:../../Drivers/STM32F7xx_HAL_Driver/Src/stm32f7xx_hal_ltdc.c ****   *                the configuration information for the LTDC.
 809:../../Drivers/STM32F7xx_HAL_Driver/Src/stm32f7xx_hal_ltdc.c ****   * @retval  HAL status
 810:../../Drivers/STM32F7xx_HAL_Driver/Src/stm32f7xx_hal_ltdc.c ****   */
 811:../../Drivers/STM32F7xx_HAL_Driver/Src/stm32f7xx_hal_ltdc.c **** 
 812:../../Drivers/STM32F7xx_HAL_Driver/Src/stm32f7xx_hal_ltdc.c **** HAL_StatusTypeDef HAL_LTDC_DisableDither(LTDC_HandleTypeDef *hltdc)
 813:../../Drivers/STM32F7xx_HAL_Driver/Src/stm32f7xx_hal_ltdc.c **** {
 1581              		.loc 1 813 0
 1582              		.cfi_startproc
 1583              		@ args = 0, pretend = 0, frame = 8
 1584              		@ frame_needed = 1, uses_anonymous_args = 0
 1585              		@ link register save eliminated.
 1586 0000 80B4     		push	{r7}
 1587              	.LCFI92:
 1588              		.cfi_def_cfa_offset 4
 1589              		.cfi_offset 7, -4
 1590 0002 83B0     		sub	sp, sp, #12
 1591              	.LCFI93:
 1592              		.cfi_def_cfa_offset 16
 1593 0004 00AF     		add	r7, sp, #0
 1594              	.LCFI94:
 1595              		.cfi_def_cfa_register 7
 1596 0006 7860     		str	r0, [r7, #4]
 814:../../Drivers/STM32F7xx_HAL_Driver/Src/stm32f7xx_hal_ltdc.c ****   /* Process locked */
 815:../../Drivers/STM32F7xx_HAL_Driver/Src/stm32f7xx_hal_ltdc.c ****   __HAL_LOCK(hltdc);
 1597              		.loc 1 815 0
 1598 0008 7B68     		ldr	r3, [r7, #4]
 1599 000a 93F8A030 		ldrb	r3, [r3, #160]	@ zero_extendqisi2
 1600 000e 012B     		cmp	r3, #1
 1601 0010 01D1     		bne	.L50
 1602              		.loc 1 815 0 is_stmt 0 discriminator 1
 1603 0012 0223     		movs	r3, #2
 1604 0014 16E0     		b	.L51
 1605              	.L50:
 1606              		.loc 1 815 0 discriminator 2
 1607 0016 7B68     		ldr	r3, [r7, #4]
 1608 0018 0122     		movs	r2, #1
ARM GAS  /tmp/cc3YVQL6.s 			page 43


 1609 001a 83F8A020 		strb	r2, [r3, #160]
 816:../../Drivers/STM32F7xx_HAL_Driver/Src/stm32f7xx_hal_ltdc.c **** 
 817:../../Drivers/STM32F7xx_HAL_Driver/Src/stm32f7xx_hal_ltdc.c ****   /* Change LTDC peripheral state */
 818:../../Drivers/STM32F7xx_HAL_Driver/Src/stm32f7xx_hal_ltdc.c ****   hltdc->State = HAL_LTDC_STATE_BUSY;
 1610              		.loc 1 818 0 is_stmt 1 discriminator 2
 1611 001e 7B68     		ldr	r3, [r7, #4]
 1612 0020 0222     		movs	r2, #2
 1613 0022 83F8A120 		strb	r2, [r3, #161]
 819:../../Drivers/STM32F7xx_HAL_Driver/Src/stm32f7xx_hal_ltdc.c **** 
 820:../../Drivers/STM32F7xx_HAL_Driver/Src/stm32f7xx_hal_ltdc.c ****   /* Disable Dither by setting DTEN bit */
 821:../../Drivers/STM32F7xx_HAL_Driver/Src/stm32f7xx_hal_ltdc.c ****   LTDC->GCR &= ~(uint32_t)LTDC_GCR_DEN;
 1614              		.loc 1 821 0 discriminator 2
 1615 0026 0A4A     		ldr	r2, .L52
 1616 0028 094B     		ldr	r3, .L52
 1617 002a 9B69     		ldr	r3, [r3, #24]
 1618 002c 23F48033 		bic	r3, r3, #65536
 1619 0030 9361     		str	r3, [r2, #24]
 822:../../Drivers/STM32F7xx_HAL_Driver/Src/stm32f7xx_hal_ltdc.c **** 
 823:../../Drivers/STM32F7xx_HAL_Driver/Src/stm32f7xx_hal_ltdc.c ****   /* Change the LTDC state*/
 824:../../Drivers/STM32F7xx_HAL_Driver/Src/stm32f7xx_hal_ltdc.c ****   hltdc->State = HAL_LTDC_STATE_READY;
 1620              		.loc 1 824 0 discriminator 2
 1621 0032 7B68     		ldr	r3, [r7, #4]
 1622 0034 0122     		movs	r2, #1
 1623 0036 83F8A120 		strb	r2, [r3, #161]
 825:../../Drivers/STM32F7xx_HAL_Driver/Src/stm32f7xx_hal_ltdc.c **** 
 826:../../Drivers/STM32F7xx_HAL_Driver/Src/stm32f7xx_hal_ltdc.c ****   /* Process unlocked */
 827:../../Drivers/STM32F7xx_HAL_Driver/Src/stm32f7xx_hal_ltdc.c ****   __HAL_UNLOCK(hltdc);
 1624              		.loc 1 827 0 discriminator 2
 1625 003a 7B68     		ldr	r3, [r7, #4]
 1626 003c 0022     		movs	r2, #0
 1627 003e 83F8A020 		strb	r2, [r3, #160]
 828:../../Drivers/STM32F7xx_HAL_Driver/Src/stm32f7xx_hal_ltdc.c **** 
 829:../../Drivers/STM32F7xx_HAL_Driver/Src/stm32f7xx_hal_ltdc.c ****   return HAL_OK;
 1628              		.loc 1 829 0 discriminator 2
 1629 0042 0023     		movs	r3, #0
 1630              	.L51:
 830:../../Drivers/STM32F7xx_HAL_Driver/Src/stm32f7xx_hal_ltdc.c **** }
 1631              		.loc 1 830 0
 1632 0044 1846     		mov	r0, r3
 1633 0046 0C37     		adds	r7, r7, #12
 1634              	.LCFI95:
 1635              		.cfi_def_cfa_offset 4
 1636 0048 BD46     		mov	sp, r7
 1637              	.LCFI96:
 1638              		.cfi_def_cfa_register 13
 1639              		@ sp needed
 1640 004a 5DF8047B 		ldr	r7, [sp], #4
 1641              	.LCFI97:
 1642              		.cfi_restore 7
 1643              		.cfi_def_cfa_offset 0
 1644 004e 7047     		bx	lr
 1645              	.L53:
 1646              		.align	2
 1647              	.L52:
 1648 0050 00680140 		.word	1073833984
 1649              		.cfi_endproc
 1650              	.LFE151:
ARM GAS  /tmp/cc3YVQL6.s 			page 44


 1652              		.section	.text.HAL_LTDC_SetWindowSize,"ax",%progbits
 1653              		.align	2
 1654              		.global	HAL_LTDC_SetWindowSize
 1655              		.thumb
 1656              		.thumb_func
 1658              	HAL_LTDC_SetWindowSize:
 1659              	.LFB152:
 831:../../Drivers/STM32F7xx_HAL_Driver/Src/stm32f7xx_hal_ltdc.c **** 
 832:../../Drivers/STM32F7xx_HAL_Driver/Src/stm32f7xx_hal_ltdc.c **** /**
 833:../../Drivers/STM32F7xx_HAL_Driver/Src/stm32f7xx_hal_ltdc.c ****   * @brief  Set the LTDC window size.
 834:../../Drivers/STM32F7xx_HAL_Driver/Src/stm32f7xx_hal_ltdc.c ****   * @param  hltdc:    pointer to a LTDC_HandleTypeDef structure that contains
 835:../../Drivers/STM32F7xx_HAL_Driver/Src/stm32f7xx_hal_ltdc.c ****   *                   the configuration information for the LTDC.
 836:../../Drivers/STM32F7xx_HAL_Driver/Src/stm32f7xx_hal_ltdc.c ****   * @param  XSize:    LTDC Pixel per line
 837:../../Drivers/STM32F7xx_HAL_Driver/Src/stm32f7xx_hal_ltdc.c ****   * @param  YSize:    LTDC Line number
 838:../../Drivers/STM32F7xx_HAL_Driver/Src/stm32f7xx_hal_ltdc.c ****   * @param  LayerIdx:  LTDC Layer index.
 839:../../Drivers/STM32F7xx_HAL_Driver/Src/stm32f7xx_hal_ltdc.c ****   *                   This parameter can be one of the following values:
 840:../../Drivers/STM32F7xx_HAL_Driver/Src/stm32f7xx_hal_ltdc.c ****   *                   0 or 1
 841:../../Drivers/STM32F7xx_HAL_Driver/Src/stm32f7xx_hal_ltdc.c ****   * @retval  HAL status
 842:../../Drivers/STM32F7xx_HAL_Driver/Src/stm32f7xx_hal_ltdc.c ****   */
 843:../../Drivers/STM32F7xx_HAL_Driver/Src/stm32f7xx_hal_ltdc.c **** HAL_StatusTypeDef HAL_LTDC_SetWindowSize(LTDC_HandleTypeDef *hltdc, uint32_t XSize, uint32_t YSize,
 844:../../Drivers/STM32F7xx_HAL_Driver/Src/stm32f7xx_hal_ltdc.c **** {
 1660              		.loc 1 844 0
 1661              		.cfi_startproc
 1662              		@ args = 0, pretend = 0, frame = 24
 1663              		@ frame_needed = 1, uses_anonymous_args = 0
 1664 0000 80B5     		push	{r7, lr}
 1665              	.LCFI98:
 1666              		.cfi_def_cfa_offset 8
 1667              		.cfi_offset 7, -8
 1668              		.cfi_offset 14, -4
 1669 0002 86B0     		sub	sp, sp, #24
 1670              	.LCFI99:
 1671              		.cfi_def_cfa_offset 32
 1672 0004 00AF     		add	r7, sp, #0
 1673              	.LCFI100:
 1674              		.cfi_def_cfa_register 7
 1675 0006 F860     		str	r0, [r7, #12]
 1676 0008 B960     		str	r1, [r7, #8]
 1677 000a 7A60     		str	r2, [r7, #4]
 1678 000c 3B60     		str	r3, [r7]
 845:../../Drivers/STM32F7xx_HAL_Driver/Src/stm32f7xx_hal_ltdc.c ****   LTDC_LayerCfgTypeDef *pLayerCfg;
 846:../../Drivers/STM32F7xx_HAL_Driver/Src/stm32f7xx_hal_ltdc.c **** 
 847:../../Drivers/STM32F7xx_HAL_Driver/Src/stm32f7xx_hal_ltdc.c ****   /* Process locked */
 848:../../Drivers/STM32F7xx_HAL_Driver/Src/stm32f7xx_hal_ltdc.c ****   __HAL_LOCK(hltdc);
 1679              		.loc 1 848 0
 1680 000e FB68     		ldr	r3, [r7, #12]
 1681 0010 93F8A030 		ldrb	r3, [r3, #160]	@ zero_extendqisi2
 1682 0014 012B     		cmp	r3, #1
 1683 0016 01D1     		bne	.L55
 1684              		.loc 1 848 0 is_stmt 0 discriminator 1
 1685 0018 0223     		movs	r3, #2
 1686 001a 39E0     		b	.L56
 1687              	.L55:
 1688              		.loc 1 848 0 discriminator 2
 1689 001c FB68     		ldr	r3, [r7, #12]
 1690 001e 0122     		movs	r2, #1
 1691 0020 83F8A020 		strb	r2, [r3, #160]
ARM GAS  /tmp/cc3YVQL6.s 			page 45


 849:../../Drivers/STM32F7xx_HAL_Driver/Src/stm32f7xx_hal_ltdc.c **** 
 850:../../Drivers/STM32F7xx_HAL_Driver/Src/stm32f7xx_hal_ltdc.c ****   /* Change LTDC peripheral state */
 851:../../Drivers/STM32F7xx_HAL_Driver/Src/stm32f7xx_hal_ltdc.c ****   hltdc->State = HAL_LTDC_STATE_BUSY; 
 1692              		.loc 1 851 0 is_stmt 1 discriminator 2
 1693 0024 FB68     		ldr	r3, [r7, #12]
 1694 0026 0222     		movs	r2, #2
 1695 0028 83F8A120 		strb	r2, [r3, #161]
 852:../../Drivers/STM32F7xx_HAL_Driver/Src/stm32f7xx_hal_ltdc.c **** 
 853:../../Drivers/STM32F7xx_HAL_Driver/Src/stm32f7xx_hal_ltdc.c ****   /* Get layer configuration from handle structure */
 854:../../Drivers/STM32F7xx_HAL_Driver/Src/stm32f7xx_hal_ltdc.c ****   pLayerCfg = &hltdc->LayerCfg[LayerIdx];
 1696              		.loc 1 854 0 discriminator 2
 1697 002c 3B68     		ldr	r3, [r7]
 1698 002e 3422     		movs	r2, #52
 1699 0030 02FB03F3 		mul	r3, r2, r3
 1700 0034 3833     		adds	r3, r3, #56
 1701 0036 FA68     		ldr	r2, [r7, #12]
 1702 0038 1344     		add	r3, r3, r2
 1703 003a 7B61     		str	r3, [r7, #20]
 855:../../Drivers/STM32F7xx_HAL_Driver/Src/stm32f7xx_hal_ltdc.c **** 
 856:../../Drivers/STM32F7xx_HAL_Driver/Src/stm32f7xx_hal_ltdc.c ****   /* Check the parameters (Layers parameters)*/
 857:../../Drivers/STM32F7xx_HAL_Driver/Src/stm32f7xx_hal_ltdc.c ****   assert_param(IS_LTDC_LAYER(LayerIdx));
 858:../../Drivers/STM32F7xx_HAL_Driver/Src/stm32f7xx_hal_ltdc.c ****   assert_param(IS_LTDC_HCONFIGST(pLayerCfg->WindowX0));
 859:../../Drivers/STM32F7xx_HAL_Driver/Src/stm32f7xx_hal_ltdc.c ****   assert_param(IS_LTDC_HCONFIGSP(pLayerCfg->WindowX1));
 860:../../Drivers/STM32F7xx_HAL_Driver/Src/stm32f7xx_hal_ltdc.c ****   assert_param(IS_LTDC_VCONFIGST(pLayerCfg->WindowY0));
 861:../../Drivers/STM32F7xx_HAL_Driver/Src/stm32f7xx_hal_ltdc.c ****   assert_param(IS_LTDC_VCONFIGSP(pLayerCfg->WindowY1));
 862:../../Drivers/STM32F7xx_HAL_Driver/Src/stm32f7xx_hal_ltdc.c ****   assert_param(IS_LTDC_CFBLL(XSize));
 863:../../Drivers/STM32F7xx_HAL_Driver/Src/stm32f7xx_hal_ltdc.c ****   assert_param(IS_LTDC_CFBLNBR(YSize));
 864:../../Drivers/STM32F7xx_HAL_Driver/Src/stm32f7xx_hal_ltdc.c **** 
 865:../../Drivers/STM32F7xx_HAL_Driver/Src/stm32f7xx_hal_ltdc.c ****   /* update horizontal start/stop */
 866:../../Drivers/STM32F7xx_HAL_Driver/Src/stm32f7xx_hal_ltdc.c ****   pLayerCfg->WindowX0 = 0;
 1704              		.loc 1 866 0 discriminator 2
 1705 003c 7B69     		ldr	r3, [r7, #20]
 1706 003e 0022     		movs	r2, #0
 1707 0040 1A60     		str	r2, [r3]
 867:../../Drivers/STM32F7xx_HAL_Driver/Src/stm32f7xx_hal_ltdc.c ****   pLayerCfg->WindowX1 = XSize + pLayerCfg->WindowX0;
 1708              		.loc 1 867 0 discriminator 2
 1709 0042 7B69     		ldr	r3, [r7, #20]
 1710 0044 1A68     		ldr	r2, [r3]
 1711 0046 BB68     		ldr	r3, [r7, #8]
 1712 0048 1A44     		add	r2, r2, r3
 1713 004a 7B69     		ldr	r3, [r7, #20]
 1714 004c 5A60     		str	r2, [r3, #4]
 868:../../Drivers/STM32F7xx_HAL_Driver/Src/stm32f7xx_hal_ltdc.c **** 
 869:../../Drivers/STM32F7xx_HAL_Driver/Src/stm32f7xx_hal_ltdc.c ****   /* update vertical start/stop */  
 870:../../Drivers/STM32F7xx_HAL_Driver/Src/stm32f7xx_hal_ltdc.c ****   pLayerCfg->WindowY0 = 0;
 1715              		.loc 1 870 0 discriminator 2
 1716 004e 7B69     		ldr	r3, [r7, #20]
 1717 0050 0022     		movs	r2, #0
 1718 0052 9A60     		str	r2, [r3, #8]
 871:../../Drivers/STM32F7xx_HAL_Driver/Src/stm32f7xx_hal_ltdc.c ****   pLayerCfg->WindowY1 = YSize + pLayerCfg->WindowY0;
 1719              		.loc 1 871 0 discriminator 2
 1720 0054 7B69     		ldr	r3, [r7, #20]
 1721 0056 9A68     		ldr	r2, [r3, #8]
 1722 0058 7B68     		ldr	r3, [r7, #4]
 1723 005a 1A44     		add	r2, r2, r3
 1724 005c 7B69     		ldr	r3, [r7, #20]
 1725 005e DA60     		str	r2, [r3, #12]
ARM GAS  /tmp/cc3YVQL6.s 			page 46


 872:../../Drivers/STM32F7xx_HAL_Driver/Src/stm32f7xx_hal_ltdc.c **** 
 873:../../Drivers/STM32F7xx_HAL_Driver/Src/stm32f7xx_hal_ltdc.c ****   /* Reconfigures the color frame buffer pitch in byte */
 874:../../Drivers/STM32F7xx_HAL_Driver/Src/stm32f7xx_hal_ltdc.c ****   pLayerCfg->ImageWidth = XSize;
 1726              		.loc 1 874 0 discriminator 2
 1727 0060 7B69     		ldr	r3, [r7, #20]
 1728 0062 BA68     		ldr	r2, [r7, #8]
 1729 0064 9A62     		str	r2, [r3, #40]
 875:../../Drivers/STM32F7xx_HAL_Driver/Src/stm32f7xx_hal_ltdc.c **** 
 876:../../Drivers/STM32F7xx_HAL_Driver/Src/stm32f7xx_hal_ltdc.c ****   /* Reconfigures the frame buffer line number */
 877:../../Drivers/STM32F7xx_HAL_Driver/Src/stm32f7xx_hal_ltdc.c ****   pLayerCfg->ImageHeight = YSize;
 1730              		.loc 1 877 0 discriminator 2
 1731 0066 7B69     		ldr	r3, [r7, #20]
 1732 0068 7A68     		ldr	r2, [r7, #4]
 1733 006a DA62     		str	r2, [r3, #44]
 878:../../Drivers/STM32F7xx_HAL_Driver/Src/stm32f7xx_hal_ltdc.c **** 
 879:../../Drivers/STM32F7xx_HAL_Driver/Src/stm32f7xx_hal_ltdc.c ****   /* Set LTDC parameters */
 880:../../Drivers/STM32F7xx_HAL_Driver/Src/stm32f7xx_hal_ltdc.c ****   LTDC_SetConfig(hltdc, pLayerCfg, LayerIdx);
 1734              		.loc 1 880 0 discriminator 2
 1735 006c F868     		ldr	r0, [r7, #12]
 1736 006e 7969     		ldr	r1, [r7, #20]
 1737 0070 3A68     		ldr	r2, [r7]
 1738 0072 FFF7FEFF 		bl	LTDC_SetConfig
 881:../../Drivers/STM32F7xx_HAL_Driver/Src/stm32f7xx_hal_ltdc.c **** 
 882:../../Drivers/STM32F7xx_HAL_Driver/Src/stm32f7xx_hal_ltdc.c ****   /* Sets the Reload type */
 883:../../Drivers/STM32F7xx_HAL_Driver/Src/stm32f7xx_hal_ltdc.c ****   hltdc->Instance->SRCR = LTDC_SRCR_IMR;
 1739              		.loc 1 883 0 discriminator 2
 1740 0076 FB68     		ldr	r3, [r7, #12]
 1741 0078 1B68     		ldr	r3, [r3]
 1742 007a 0122     		movs	r2, #1
 1743 007c 5A62     		str	r2, [r3, #36]
 884:../../Drivers/STM32F7xx_HAL_Driver/Src/stm32f7xx_hal_ltdc.c **** 
 885:../../Drivers/STM32F7xx_HAL_Driver/Src/stm32f7xx_hal_ltdc.c ****   /* Change the LTDC state*/
 886:../../Drivers/STM32F7xx_HAL_Driver/Src/stm32f7xx_hal_ltdc.c ****   hltdc->State = HAL_LTDC_STATE_READY;
 1744              		.loc 1 886 0 discriminator 2
 1745 007e FB68     		ldr	r3, [r7, #12]
 1746 0080 0122     		movs	r2, #1
 1747 0082 83F8A120 		strb	r2, [r3, #161]
 887:../../Drivers/STM32F7xx_HAL_Driver/Src/stm32f7xx_hal_ltdc.c **** 
 888:../../Drivers/STM32F7xx_HAL_Driver/Src/stm32f7xx_hal_ltdc.c ****   /* Process unlocked */
 889:../../Drivers/STM32F7xx_HAL_Driver/Src/stm32f7xx_hal_ltdc.c ****   __HAL_UNLOCK(hltdc);
 1748              		.loc 1 889 0 discriminator 2
 1749 0086 FB68     		ldr	r3, [r7, #12]
 1750 0088 0022     		movs	r2, #0
 1751 008a 83F8A020 		strb	r2, [r3, #160]
 890:../../Drivers/STM32F7xx_HAL_Driver/Src/stm32f7xx_hal_ltdc.c **** 
 891:../../Drivers/STM32F7xx_HAL_Driver/Src/stm32f7xx_hal_ltdc.c ****   return HAL_OK;
 1752              		.loc 1 891 0 discriminator 2
 1753 008e 0023     		movs	r3, #0
 1754              	.L56:
 892:../../Drivers/STM32F7xx_HAL_Driver/Src/stm32f7xx_hal_ltdc.c **** }
 1755              		.loc 1 892 0
 1756 0090 1846     		mov	r0, r3
 1757 0092 1837     		adds	r7, r7, #24
 1758              	.LCFI101:
 1759              		.cfi_def_cfa_offset 8
 1760 0094 BD46     		mov	sp, r7
 1761              	.LCFI102:
ARM GAS  /tmp/cc3YVQL6.s 			page 47


 1762              		.cfi_def_cfa_register 13
 1763              		@ sp needed
 1764 0096 80BD     		pop	{r7, pc}
 1765              		.cfi_endproc
 1766              	.LFE152:
 1768              		.section	.text.HAL_LTDC_SetWindowPosition,"ax",%progbits
 1769              		.align	2
 1770              		.global	HAL_LTDC_SetWindowPosition
 1771              		.thumb
 1772              		.thumb_func
 1774              	HAL_LTDC_SetWindowPosition:
 1775              	.LFB153:
 893:../../Drivers/STM32F7xx_HAL_Driver/Src/stm32f7xx_hal_ltdc.c **** 
 894:../../Drivers/STM32F7xx_HAL_Driver/Src/stm32f7xx_hal_ltdc.c **** /**
 895:../../Drivers/STM32F7xx_HAL_Driver/Src/stm32f7xx_hal_ltdc.c ****   * @brief  Set the LTDC window position.
 896:../../Drivers/STM32F7xx_HAL_Driver/Src/stm32f7xx_hal_ltdc.c ****   * @param  hltdc:    pointer to a LTDC_HandleTypeDef structure that contains
 897:../../Drivers/STM32F7xx_HAL_Driver/Src/stm32f7xx_hal_ltdc.c ****   *                   the configuration information for the LTDC.
 898:../../Drivers/STM32F7xx_HAL_Driver/Src/stm32f7xx_hal_ltdc.c ****   * @param  X0:       LTDC window X offset
 899:../../Drivers/STM32F7xx_HAL_Driver/Src/stm32f7xx_hal_ltdc.c ****   * @param  Y0:       LTDC window Y offset
 900:../../Drivers/STM32F7xx_HAL_Driver/Src/stm32f7xx_hal_ltdc.c ****   * @param  LayerIdx:  LTDC Layer index.
 901:../../Drivers/STM32F7xx_HAL_Driver/Src/stm32f7xx_hal_ltdc.c ****   *                         This parameter can be one of the following values:
 902:../../Drivers/STM32F7xx_HAL_Driver/Src/stm32f7xx_hal_ltdc.c ****   *                         0 or 1
 903:../../Drivers/STM32F7xx_HAL_Driver/Src/stm32f7xx_hal_ltdc.c ****   * @retval  HAL status
 904:../../Drivers/STM32F7xx_HAL_Driver/Src/stm32f7xx_hal_ltdc.c ****   */
 905:../../Drivers/STM32F7xx_HAL_Driver/Src/stm32f7xx_hal_ltdc.c **** HAL_StatusTypeDef HAL_LTDC_SetWindowPosition(LTDC_HandleTypeDef *hltdc, uint32_t X0, uint32_t Y0, u
 906:../../Drivers/STM32F7xx_HAL_Driver/Src/stm32f7xx_hal_ltdc.c **** {
 1776              		.loc 1 906 0
 1777              		.cfi_startproc
 1778              		@ args = 0, pretend = 0, frame = 24
 1779              		@ frame_needed = 1, uses_anonymous_args = 0
 1780 0000 80B5     		push	{r7, lr}
 1781              	.LCFI103:
 1782              		.cfi_def_cfa_offset 8
 1783              		.cfi_offset 7, -8
 1784              		.cfi_offset 14, -4
 1785 0002 86B0     		sub	sp, sp, #24
 1786              	.LCFI104:
 1787              		.cfi_def_cfa_offset 32
 1788 0004 00AF     		add	r7, sp, #0
 1789              	.LCFI105:
 1790              		.cfi_def_cfa_register 7
 1791 0006 F860     		str	r0, [r7, #12]
 1792 0008 B960     		str	r1, [r7, #8]
 1793 000a 7A60     		str	r2, [r7, #4]
 1794 000c 3B60     		str	r3, [r7]
 907:../../Drivers/STM32F7xx_HAL_Driver/Src/stm32f7xx_hal_ltdc.c ****   LTDC_LayerCfgTypeDef *pLayerCfg;
 908:../../Drivers/STM32F7xx_HAL_Driver/Src/stm32f7xx_hal_ltdc.c ****   
 909:../../Drivers/STM32F7xx_HAL_Driver/Src/stm32f7xx_hal_ltdc.c ****   /* Process locked */
 910:../../Drivers/STM32F7xx_HAL_Driver/Src/stm32f7xx_hal_ltdc.c ****   __HAL_LOCK(hltdc);
 1795              		.loc 1 910 0
 1796 000e FB68     		ldr	r3, [r7, #12]
 1797 0010 93F8A030 		ldrb	r3, [r3, #160]	@ zero_extendqisi2
 1798 0014 012B     		cmp	r3, #1
 1799 0016 01D1     		bne	.L58
 1800              		.loc 1 910 0 is_stmt 0 discriminator 1
 1801 0018 0223     		movs	r3, #2
 1802 001a 33E0     		b	.L59
ARM GAS  /tmp/cc3YVQL6.s 			page 48


 1803              	.L58:
 1804              		.loc 1 910 0 discriminator 2
 1805 001c FB68     		ldr	r3, [r7, #12]
 1806 001e 0122     		movs	r2, #1
 1807 0020 83F8A020 		strb	r2, [r3, #160]
 911:../../Drivers/STM32F7xx_HAL_Driver/Src/stm32f7xx_hal_ltdc.c **** 
 912:../../Drivers/STM32F7xx_HAL_Driver/Src/stm32f7xx_hal_ltdc.c ****   /* Change LTDC peripheral state */
 913:../../Drivers/STM32F7xx_HAL_Driver/Src/stm32f7xx_hal_ltdc.c ****   hltdc->State = HAL_LTDC_STATE_BUSY;
 1808              		.loc 1 913 0 is_stmt 1 discriminator 2
 1809 0024 FB68     		ldr	r3, [r7, #12]
 1810 0026 0222     		movs	r2, #2
 1811 0028 83F8A120 		strb	r2, [r3, #161]
 914:../../Drivers/STM32F7xx_HAL_Driver/Src/stm32f7xx_hal_ltdc.c **** 
 915:../../Drivers/STM32F7xx_HAL_Driver/Src/stm32f7xx_hal_ltdc.c ****   /* Get layer configuration from handle structure */
 916:../../Drivers/STM32F7xx_HAL_Driver/Src/stm32f7xx_hal_ltdc.c ****   pLayerCfg = &hltdc->LayerCfg[LayerIdx];
 1812              		.loc 1 916 0 discriminator 2
 1813 002c 3B68     		ldr	r3, [r7]
 1814 002e 3422     		movs	r2, #52
 1815 0030 02FB03F3 		mul	r3, r2, r3
 1816 0034 3833     		adds	r3, r3, #56
 1817 0036 FA68     		ldr	r2, [r7, #12]
 1818 0038 1344     		add	r3, r3, r2
 1819 003a 7B61     		str	r3, [r7, #20]
 917:../../Drivers/STM32F7xx_HAL_Driver/Src/stm32f7xx_hal_ltdc.c **** 
 918:../../Drivers/STM32F7xx_HAL_Driver/Src/stm32f7xx_hal_ltdc.c ****   /* Check the parameters */
 919:../../Drivers/STM32F7xx_HAL_Driver/Src/stm32f7xx_hal_ltdc.c ****   assert_param(IS_LTDC_LAYER(LayerIdx));
 920:../../Drivers/STM32F7xx_HAL_Driver/Src/stm32f7xx_hal_ltdc.c ****   assert_param(IS_LTDC_HCONFIGST(pLayerCfg->WindowX0));
 921:../../Drivers/STM32F7xx_HAL_Driver/Src/stm32f7xx_hal_ltdc.c ****   assert_param(IS_LTDC_HCONFIGSP(pLayerCfg->WindowX1));
 922:../../Drivers/STM32F7xx_HAL_Driver/Src/stm32f7xx_hal_ltdc.c ****   assert_param(IS_LTDC_VCONFIGST(pLayerCfg->WindowY0));
 923:../../Drivers/STM32F7xx_HAL_Driver/Src/stm32f7xx_hal_ltdc.c ****   assert_param(IS_LTDC_VCONFIGSP(pLayerCfg->WindowY1));
 924:../../Drivers/STM32F7xx_HAL_Driver/Src/stm32f7xx_hal_ltdc.c **** 
 925:../../Drivers/STM32F7xx_HAL_Driver/Src/stm32f7xx_hal_ltdc.c ****   /* update horizontal start/stop */
 926:../../Drivers/STM32F7xx_HAL_Driver/Src/stm32f7xx_hal_ltdc.c ****   pLayerCfg->WindowX0 = X0;
 1820              		.loc 1 926 0 discriminator 2
 1821 003c 7B69     		ldr	r3, [r7, #20]
 1822 003e BA68     		ldr	r2, [r7, #8]
 1823 0040 1A60     		str	r2, [r3]
 927:../../Drivers/STM32F7xx_HAL_Driver/Src/stm32f7xx_hal_ltdc.c ****   pLayerCfg->WindowX1 = X0 + pLayerCfg->ImageWidth;
 1824              		.loc 1 927 0 discriminator 2
 1825 0042 7B69     		ldr	r3, [r7, #20]
 1826 0044 9A6A     		ldr	r2, [r3, #40]
 1827 0046 BB68     		ldr	r3, [r7, #8]
 1828 0048 1A44     		add	r2, r2, r3
 1829 004a 7B69     		ldr	r3, [r7, #20]
 1830 004c 5A60     		str	r2, [r3, #4]
 928:../../Drivers/STM32F7xx_HAL_Driver/Src/stm32f7xx_hal_ltdc.c **** 
 929:../../Drivers/STM32F7xx_HAL_Driver/Src/stm32f7xx_hal_ltdc.c ****   /* update vertical start/stop */
 930:../../Drivers/STM32F7xx_HAL_Driver/Src/stm32f7xx_hal_ltdc.c ****   pLayerCfg->WindowY0 = Y0;
 1831              		.loc 1 930 0 discriminator 2
 1832 004e 7B69     		ldr	r3, [r7, #20]
 1833 0050 7A68     		ldr	r2, [r7, #4]
 1834 0052 9A60     		str	r2, [r3, #8]
 931:../../Drivers/STM32F7xx_HAL_Driver/Src/stm32f7xx_hal_ltdc.c ****   pLayerCfg->WindowY1 = Y0 + pLayerCfg->ImageHeight;
 1835              		.loc 1 931 0 discriminator 2
 1836 0054 7B69     		ldr	r3, [r7, #20]
 1837 0056 DA6A     		ldr	r2, [r3, #44]
 1838 0058 7B68     		ldr	r3, [r7, #4]
ARM GAS  /tmp/cc3YVQL6.s 			page 49


 1839 005a 1A44     		add	r2, r2, r3
 1840 005c 7B69     		ldr	r3, [r7, #20]
 1841 005e DA60     		str	r2, [r3, #12]
 932:../../Drivers/STM32F7xx_HAL_Driver/Src/stm32f7xx_hal_ltdc.c **** 
 933:../../Drivers/STM32F7xx_HAL_Driver/Src/stm32f7xx_hal_ltdc.c ****   /* Set LTDC parameters */
 934:../../Drivers/STM32F7xx_HAL_Driver/Src/stm32f7xx_hal_ltdc.c ****   LTDC_SetConfig(hltdc, pLayerCfg, LayerIdx);
 1842              		.loc 1 934 0 discriminator 2
 1843 0060 F868     		ldr	r0, [r7, #12]
 1844 0062 7969     		ldr	r1, [r7, #20]
 1845 0064 3A68     		ldr	r2, [r7]
 1846 0066 FFF7FEFF 		bl	LTDC_SetConfig
 935:../../Drivers/STM32F7xx_HAL_Driver/Src/stm32f7xx_hal_ltdc.c **** 
 936:../../Drivers/STM32F7xx_HAL_Driver/Src/stm32f7xx_hal_ltdc.c ****   /* Sets the Reload type */
 937:../../Drivers/STM32F7xx_HAL_Driver/Src/stm32f7xx_hal_ltdc.c ****   hltdc->Instance->SRCR = LTDC_SRCR_IMR;
 1847              		.loc 1 937 0 discriminator 2
 1848 006a FB68     		ldr	r3, [r7, #12]
 1849 006c 1B68     		ldr	r3, [r3]
 1850 006e 0122     		movs	r2, #1
 1851 0070 5A62     		str	r2, [r3, #36]
 938:../../Drivers/STM32F7xx_HAL_Driver/Src/stm32f7xx_hal_ltdc.c **** 
 939:../../Drivers/STM32F7xx_HAL_Driver/Src/stm32f7xx_hal_ltdc.c ****   /* Change the LTDC state*/
 940:../../Drivers/STM32F7xx_HAL_Driver/Src/stm32f7xx_hal_ltdc.c ****   hltdc->State = HAL_LTDC_STATE_READY;
 1852              		.loc 1 940 0 discriminator 2
 1853 0072 FB68     		ldr	r3, [r7, #12]
 1854 0074 0122     		movs	r2, #1
 1855 0076 83F8A120 		strb	r2, [r3, #161]
 941:../../Drivers/STM32F7xx_HAL_Driver/Src/stm32f7xx_hal_ltdc.c **** 
 942:../../Drivers/STM32F7xx_HAL_Driver/Src/stm32f7xx_hal_ltdc.c ****   /* Process unlocked */
 943:../../Drivers/STM32F7xx_HAL_Driver/Src/stm32f7xx_hal_ltdc.c ****   __HAL_UNLOCK(hltdc);
 1856              		.loc 1 943 0 discriminator 2
 1857 007a FB68     		ldr	r3, [r7, #12]
 1858 007c 0022     		movs	r2, #0
 1859 007e 83F8A020 		strb	r2, [r3, #160]
 944:../../Drivers/STM32F7xx_HAL_Driver/Src/stm32f7xx_hal_ltdc.c **** 
 945:../../Drivers/STM32F7xx_HAL_Driver/Src/stm32f7xx_hal_ltdc.c ****   return HAL_OK;
 1860              		.loc 1 945 0 discriminator 2
 1861 0082 0023     		movs	r3, #0
 1862              	.L59:
 946:../../Drivers/STM32F7xx_HAL_Driver/Src/stm32f7xx_hal_ltdc.c **** }
 1863              		.loc 1 946 0
 1864 0084 1846     		mov	r0, r3
 1865 0086 1837     		adds	r7, r7, #24
 1866              	.LCFI106:
 1867              		.cfi_def_cfa_offset 8
 1868 0088 BD46     		mov	sp, r7
 1869              	.LCFI107:
 1870              		.cfi_def_cfa_register 13
 1871              		@ sp needed
 1872 008a 80BD     		pop	{r7, pc}
 1873              		.cfi_endproc
 1874              	.LFE153:
 1876              		.section	.text.HAL_LTDC_SetPixelFormat,"ax",%progbits
 1877              		.align	2
 1878              		.global	HAL_LTDC_SetPixelFormat
 1879              		.thumb
 1880              		.thumb_func
 1882              	HAL_LTDC_SetPixelFormat:
ARM GAS  /tmp/cc3YVQL6.s 			page 50


 1883              	.LFB154:
 947:../../Drivers/STM32F7xx_HAL_Driver/Src/stm32f7xx_hal_ltdc.c **** 
 948:../../Drivers/STM32F7xx_HAL_Driver/Src/stm32f7xx_hal_ltdc.c **** /**
 949:../../Drivers/STM32F7xx_HAL_Driver/Src/stm32f7xx_hal_ltdc.c ****   * @brief  Reconfigure the pixel format.
 950:../../Drivers/STM32F7xx_HAL_Driver/Src/stm32f7xx_hal_ltdc.c ****   * @param  hltdc:       pointer to a LTDC_HandleTypeDef structure that contains
 951:../../Drivers/STM32F7xx_HAL_Driver/Src/stm32f7xx_hal_ltdc.c ****   *                      the configuration information for the LTDC.
 952:../../Drivers/STM32F7xx_HAL_Driver/Src/stm32f7xx_hal_ltdc.c ****   * @param  Pixelformat: new pixel format value.
 953:../../Drivers/STM32F7xx_HAL_Driver/Src/stm32f7xx_hal_ltdc.c ****   * @param  LayerIdx:    LTDC Layer index.
 954:../../Drivers/STM32F7xx_HAL_Driver/Src/stm32f7xx_hal_ltdc.c ****   *                      This parameter can be one of the following values:
 955:../../Drivers/STM32F7xx_HAL_Driver/Src/stm32f7xx_hal_ltdc.c ****   *                      0 or 1.
 956:../../Drivers/STM32F7xx_HAL_Driver/Src/stm32f7xx_hal_ltdc.c ****   * @retval  HAL status
 957:../../Drivers/STM32F7xx_HAL_Driver/Src/stm32f7xx_hal_ltdc.c ****   */
 958:../../Drivers/STM32F7xx_HAL_Driver/Src/stm32f7xx_hal_ltdc.c **** HAL_StatusTypeDef HAL_LTDC_SetPixelFormat(LTDC_HandleTypeDef *hltdc, uint32_t Pixelformat, uint32_t
 959:../../Drivers/STM32F7xx_HAL_Driver/Src/stm32f7xx_hal_ltdc.c **** {
 1884              		.loc 1 959 0
 1885              		.cfi_startproc
 1886              		@ args = 0, pretend = 0, frame = 24
 1887              		@ frame_needed = 1, uses_anonymous_args = 0
 1888 0000 80B5     		push	{r7, lr}
 1889              	.LCFI108:
 1890              		.cfi_def_cfa_offset 8
 1891              		.cfi_offset 7, -8
 1892              		.cfi_offset 14, -4
 1893 0002 86B0     		sub	sp, sp, #24
 1894              	.LCFI109:
 1895              		.cfi_def_cfa_offset 32
 1896 0004 00AF     		add	r7, sp, #0
 1897              	.LCFI110:
 1898              		.cfi_def_cfa_register 7
 1899 0006 F860     		str	r0, [r7, #12]
 1900 0008 B960     		str	r1, [r7, #8]
 1901 000a 7A60     		str	r2, [r7, #4]
 960:../../Drivers/STM32F7xx_HAL_Driver/Src/stm32f7xx_hal_ltdc.c ****   LTDC_LayerCfgTypeDef *pLayerCfg;
 961:../../Drivers/STM32F7xx_HAL_Driver/Src/stm32f7xx_hal_ltdc.c **** 
 962:../../Drivers/STM32F7xx_HAL_Driver/Src/stm32f7xx_hal_ltdc.c ****   /* Process locked */
 963:../../Drivers/STM32F7xx_HAL_Driver/Src/stm32f7xx_hal_ltdc.c ****   __HAL_LOCK(hltdc);
 1902              		.loc 1 963 0
 1903 000c FB68     		ldr	r3, [r7, #12]
 1904 000e 93F8A030 		ldrb	r3, [r3, #160]	@ zero_extendqisi2
 1905 0012 012B     		cmp	r3, #1
 1906 0014 01D1     		bne	.L61
 1907              		.loc 1 963 0 is_stmt 0 discriminator 1
 1908 0016 0223     		movs	r3, #2
 1909 0018 24E0     		b	.L62
 1910              	.L61:
 1911              		.loc 1 963 0 discriminator 2
 1912 001a FB68     		ldr	r3, [r7, #12]
 1913 001c 0122     		movs	r2, #1
 1914 001e 83F8A020 		strb	r2, [r3, #160]
 964:../../Drivers/STM32F7xx_HAL_Driver/Src/stm32f7xx_hal_ltdc.c **** 
 965:../../Drivers/STM32F7xx_HAL_Driver/Src/stm32f7xx_hal_ltdc.c ****   /* Change LTDC peripheral state */
 966:../../Drivers/STM32F7xx_HAL_Driver/Src/stm32f7xx_hal_ltdc.c ****   hltdc->State = HAL_LTDC_STATE_BUSY;
 1915              		.loc 1 966 0 is_stmt 1 discriminator 2
 1916 0022 FB68     		ldr	r3, [r7, #12]
 1917 0024 0222     		movs	r2, #2
 1918 0026 83F8A120 		strb	r2, [r3, #161]
 967:../../Drivers/STM32F7xx_HAL_Driver/Src/stm32f7xx_hal_ltdc.c **** 
ARM GAS  /tmp/cc3YVQL6.s 			page 51


 968:../../Drivers/STM32F7xx_HAL_Driver/Src/stm32f7xx_hal_ltdc.c ****   /* Check the parameters */
 969:../../Drivers/STM32F7xx_HAL_Driver/Src/stm32f7xx_hal_ltdc.c ****   assert_param(IS_LTDC_LAYER(LayerIdx));
 970:../../Drivers/STM32F7xx_HAL_Driver/Src/stm32f7xx_hal_ltdc.c ****   assert_param(IS_LTDC_PIXEL_FORMAT(Pixelformat));
 971:../../Drivers/STM32F7xx_HAL_Driver/Src/stm32f7xx_hal_ltdc.c **** 
 972:../../Drivers/STM32F7xx_HAL_Driver/Src/stm32f7xx_hal_ltdc.c ****   /* Get layer configuration from handle structure */
 973:../../Drivers/STM32F7xx_HAL_Driver/Src/stm32f7xx_hal_ltdc.c ****   pLayerCfg = &hltdc->LayerCfg[LayerIdx];  
 1919              		.loc 1 973 0 discriminator 2
 1920 002a 7B68     		ldr	r3, [r7, #4]
 1921 002c 3422     		movs	r2, #52
 1922 002e 02FB03F3 		mul	r3, r2, r3
 1923 0032 3833     		adds	r3, r3, #56
 1924 0034 FA68     		ldr	r2, [r7, #12]
 1925 0036 1344     		add	r3, r3, r2
 1926 0038 7B61     		str	r3, [r7, #20]
 974:../../Drivers/STM32F7xx_HAL_Driver/Src/stm32f7xx_hal_ltdc.c **** 
 975:../../Drivers/STM32F7xx_HAL_Driver/Src/stm32f7xx_hal_ltdc.c ****   /* Reconfigure the pixel format */
 976:../../Drivers/STM32F7xx_HAL_Driver/Src/stm32f7xx_hal_ltdc.c ****   pLayerCfg->PixelFormat = Pixelformat;
 1927              		.loc 1 976 0 discriminator 2
 1928 003a 7B69     		ldr	r3, [r7, #20]
 1929 003c BA68     		ldr	r2, [r7, #8]
 1930 003e 1A61     		str	r2, [r3, #16]
 977:../../Drivers/STM32F7xx_HAL_Driver/Src/stm32f7xx_hal_ltdc.c **** 
 978:../../Drivers/STM32F7xx_HAL_Driver/Src/stm32f7xx_hal_ltdc.c ****   /* Set LTDC parameters */
 979:../../Drivers/STM32F7xx_HAL_Driver/Src/stm32f7xx_hal_ltdc.c ****   LTDC_SetConfig(hltdc, pLayerCfg, LayerIdx);   
 1931              		.loc 1 979 0 discriminator 2
 1932 0040 F868     		ldr	r0, [r7, #12]
 1933 0042 7969     		ldr	r1, [r7, #20]
 1934 0044 7A68     		ldr	r2, [r7, #4]
 1935 0046 FFF7FEFF 		bl	LTDC_SetConfig
 980:../../Drivers/STM32F7xx_HAL_Driver/Src/stm32f7xx_hal_ltdc.c **** 
 981:../../Drivers/STM32F7xx_HAL_Driver/Src/stm32f7xx_hal_ltdc.c ****   /* Sets the Reload type */
 982:../../Drivers/STM32F7xx_HAL_Driver/Src/stm32f7xx_hal_ltdc.c ****   hltdc->Instance->SRCR = LTDC_SRCR_IMR;
 1936              		.loc 1 982 0 discriminator 2
 1937 004a FB68     		ldr	r3, [r7, #12]
 1938 004c 1B68     		ldr	r3, [r3]
 1939 004e 0122     		movs	r2, #1
 1940 0050 5A62     		str	r2, [r3, #36]
 983:../../Drivers/STM32F7xx_HAL_Driver/Src/stm32f7xx_hal_ltdc.c **** 
 984:../../Drivers/STM32F7xx_HAL_Driver/Src/stm32f7xx_hal_ltdc.c ****   /* Change the LTDC state*/
 985:../../Drivers/STM32F7xx_HAL_Driver/Src/stm32f7xx_hal_ltdc.c ****   hltdc->State = HAL_LTDC_STATE_READY;
 1941              		.loc 1 985 0 discriminator 2
 1942 0052 FB68     		ldr	r3, [r7, #12]
 1943 0054 0122     		movs	r2, #1
 1944 0056 83F8A120 		strb	r2, [r3, #161]
 986:../../Drivers/STM32F7xx_HAL_Driver/Src/stm32f7xx_hal_ltdc.c **** 
 987:../../Drivers/STM32F7xx_HAL_Driver/Src/stm32f7xx_hal_ltdc.c ****   /* Process unlocked */
 988:../../Drivers/STM32F7xx_HAL_Driver/Src/stm32f7xx_hal_ltdc.c ****   __HAL_UNLOCK(hltdc);
 1945              		.loc 1 988 0 discriminator 2
 1946 005a FB68     		ldr	r3, [r7, #12]
 1947 005c 0022     		movs	r2, #0
 1948 005e 83F8A020 		strb	r2, [r3, #160]
 989:../../Drivers/STM32F7xx_HAL_Driver/Src/stm32f7xx_hal_ltdc.c **** 
 990:../../Drivers/STM32F7xx_HAL_Driver/Src/stm32f7xx_hal_ltdc.c ****   return HAL_OK;
 1949              		.loc 1 990 0 discriminator 2
 1950 0062 0023     		movs	r3, #0
 1951              	.L62:
 991:../../Drivers/STM32F7xx_HAL_Driver/Src/stm32f7xx_hal_ltdc.c **** }
ARM GAS  /tmp/cc3YVQL6.s 			page 52


 1952              		.loc 1 991 0
 1953 0064 1846     		mov	r0, r3
 1954 0066 1837     		adds	r7, r7, #24
 1955              	.LCFI111:
 1956              		.cfi_def_cfa_offset 8
 1957 0068 BD46     		mov	sp, r7
 1958              	.LCFI112:
 1959              		.cfi_def_cfa_register 13
 1960              		@ sp needed
 1961 006a 80BD     		pop	{r7, pc}
 1962              		.cfi_endproc
 1963              	.LFE154:
 1965              		.section	.text.HAL_LTDC_SetAlpha,"ax",%progbits
 1966              		.align	2
 1967              		.global	HAL_LTDC_SetAlpha
 1968              		.thumb
 1969              		.thumb_func
 1971              	HAL_LTDC_SetAlpha:
 1972              	.LFB155:
 992:../../Drivers/STM32F7xx_HAL_Driver/Src/stm32f7xx_hal_ltdc.c **** 
 993:../../Drivers/STM32F7xx_HAL_Driver/Src/stm32f7xx_hal_ltdc.c **** /**
 994:../../Drivers/STM32F7xx_HAL_Driver/Src/stm32f7xx_hal_ltdc.c ****   * @brief  Reconfigure the layer alpha value.
 995:../../Drivers/STM32F7xx_HAL_Driver/Src/stm32f7xx_hal_ltdc.c ****   * @param  hltdc:    pointer to a LTDC_HandleTypeDef structure that contains
 996:../../Drivers/STM32F7xx_HAL_Driver/Src/stm32f7xx_hal_ltdc.c ****   *                   the configuration information for the LTDC.
 997:../../Drivers/STM32F7xx_HAL_Driver/Src/stm32f7xx_hal_ltdc.c ****   * @param  Alpha:    new alpha value.
 998:../../Drivers/STM32F7xx_HAL_Driver/Src/stm32f7xx_hal_ltdc.c ****   * @param  LayerIdx:  LTDC Layer index.
 999:../../Drivers/STM32F7xx_HAL_Driver/Src/stm32f7xx_hal_ltdc.c ****   *                   This parameter can be one of the following values:
1000:../../Drivers/STM32F7xx_HAL_Driver/Src/stm32f7xx_hal_ltdc.c ****   *                   0 or 1
1001:../../Drivers/STM32F7xx_HAL_Driver/Src/stm32f7xx_hal_ltdc.c ****   * @retval  HAL status
1002:../../Drivers/STM32F7xx_HAL_Driver/Src/stm32f7xx_hal_ltdc.c ****   */
1003:../../Drivers/STM32F7xx_HAL_Driver/Src/stm32f7xx_hal_ltdc.c **** HAL_StatusTypeDef HAL_LTDC_SetAlpha(LTDC_HandleTypeDef *hltdc, uint32_t Alpha, uint32_t LayerIdx)
1004:../../Drivers/STM32F7xx_HAL_Driver/Src/stm32f7xx_hal_ltdc.c **** {
 1973              		.loc 1 1004 0
 1974              		.cfi_startproc
 1975              		@ args = 0, pretend = 0, frame = 24
 1976              		@ frame_needed = 1, uses_anonymous_args = 0
 1977 0000 80B5     		push	{r7, lr}
 1978              	.LCFI113:
 1979              		.cfi_def_cfa_offset 8
 1980              		.cfi_offset 7, -8
 1981              		.cfi_offset 14, -4
 1982 0002 86B0     		sub	sp, sp, #24
 1983              	.LCFI114:
 1984              		.cfi_def_cfa_offset 32
 1985 0004 00AF     		add	r7, sp, #0
 1986              	.LCFI115:
 1987              		.cfi_def_cfa_register 7
 1988 0006 F860     		str	r0, [r7, #12]
 1989 0008 B960     		str	r1, [r7, #8]
 1990 000a 7A60     		str	r2, [r7, #4]
1005:../../Drivers/STM32F7xx_HAL_Driver/Src/stm32f7xx_hal_ltdc.c ****   LTDC_LayerCfgTypeDef *pLayerCfg;
1006:../../Drivers/STM32F7xx_HAL_Driver/Src/stm32f7xx_hal_ltdc.c **** 
1007:../../Drivers/STM32F7xx_HAL_Driver/Src/stm32f7xx_hal_ltdc.c ****   /* Process locked */
1008:../../Drivers/STM32F7xx_HAL_Driver/Src/stm32f7xx_hal_ltdc.c ****   __HAL_LOCK(hltdc);
 1991              		.loc 1 1008 0
 1992 000c FB68     		ldr	r3, [r7, #12]
 1993 000e 93F8A030 		ldrb	r3, [r3, #160]	@ zero_extendqisi2
ARM GAS  /tmp/cc3YVQL6.s 			page 53


 1994 0012 012B     		cmp	r3, #1
 1995 0014 01D1     		bne	.L64
 1996              		.loc 1 1008 0 is_stmt 0 discriminator 1
 1997 0016 0223     		movs	r3, #2
 1998 0018 24E0     		b	.L65
 1999              	.L64:
 2000              		.loc 1 1008 0 discriminator 2
 2001 001a FB68     		ldr	r3, [r7, #12]
 2002 001c 0122     		movs	r2, #1
 2003 001e 83F8A020 		strb	r2, [r3, #160]
1009:../../Drivers/STM32F7xx_HAL_Driver/Src/stm32f7xx_hal_ltdc.c **** 
1010:../../Drivers/STM32F7xx_HAL_Driver/Src/stm32f7xx_hal_ltdc.c ****   /* Change LTDC peripheral state */
1011:../../Drivers/STM32F7xx_HAL_Driver/Src/stm32f7xx_hal_ltdc.c ****   hltdc->State = HAL_LTDC_STATE_BUSY;
 2004              		.loc 1 1011 0 is_stmt 1 discriminator 2
 2005 0022 FB68     		ldr	r3, [r7, #12]
 2006 0024 0222     		movs	r2, #2
 2007 0026 83F8A120 		strb	r2, [r3, #161]
1012:../../Drivers/STM32F7xx_HAL_Driver/Src/stm32f7xx_hal_ltdc.c **** 
1013:../../Drivers/STM32F7xx_HAL_Driver/Src/stm32f7xx_hal_ltdc.c ****   /* Check the parameters */
1014:../../Drivers/STM32F7xx_HAL_Driver/Src/stm32f7xx_hal_ltdc.c ****   assert_param(IS_LTDC_ALPHA(Alpha));
1015:../../Drivers/STM32F7xx_HAL_Driver/Src/stm32f7xx_hal_ltdc.c ****   assert_param(IS_LTDC_LAYER(LayerIdx));
1016:../../Drivers/STM32F7xx_HAL_Driver/Src/stm32f7xx_hal_ltdc.c **** 
1017:../../Drivers/STM32F7xx_HAL_Driver/Src/stm32f7xx_hal_ltdc.c ****   /* Get layer configuration from handle structure */
1018:../../Drivers/STM32F7xx_HAL_Driver/Src/stm32f7xx_hal_ltdc.c ****   pLayerCfg = &hltdc->LayerCfg[LayerIdx];
 2008              		.loc 1 1018 0 discriminator 2
 2009 002a 7B68     		ldr	r3, [r7, #4]
 2010 002c 3422     		movs	r2, #52
 2011 002e 02FB03F3 		mul	r3, r2, r3
 2012 0032 3833     		adds	r3, r3, #56
 2013 0034 FA68     		ldr	r2, [r7, #12]
 2014 0036 1344     		add	r3, r3, r2
 2015 0038 7B61     		str	r3, [r7, #20]
1019:../../Drivers/STM32F7xx_HAL_Driver/Src/stm32f7xx_hal_ltdc.c **** 
1020:../../Drivers/STM32F7xx_HAL_Driver/Src/stm32f7xx_hal_ltdc.c ****   /* Reconfigure the Alpha value */
1021:../../Drivers/STM32F7xx_HAL_Driver/Src/stm32f7xx_hal_ltdc.c ****   pLayerCfg->Alpha = Alpha;
 2016              		.loc 1 1021 0 discriminator 2
 2017 003a 7B69     		ldr	r3, [r7, #20]
 2018 003c BA68     		ldr	r2, [r7, #8]
 2019 003e 5A61     		str	r2, [r3, #20]
1022:../../Drivers/STM32F7xx_HAL_Driver/Src/stm32f7xx_hal_ltdc.c **** 
1023:../../Drivers/STM32F7xx_HAL_Driver/Src/stm32f7xx_hal_ltdc.c ****   /* Set LTDC parameters */
1024:../../Drivers/STM32F7xx_HAL_Driver/Src/stm32f7xx_hal_ltdc.c ****   LTDC_SetConfig(hltdc, pLayerCfg, LayerIdx);
 2020              		.loc 1 1024 0 discriminator 2
 2021 0040 F868     		ldr	r0, [r7, #12]
 2022 0042 7969     		ldr	r1, [r7, #20]
 2023 0044 7A68     		ldr	r2, [r7, #4]
 2024 0046 FFF7FEFF 		bl	LTDC_SetConfig
1025:../../Drivers/STM32F7xx_HAL_Driver/Src/stm32f7xx_hal_ltdc.c **** 
1026:../../Drivers/STM32F7xx_HAL_Driver/Src/stm32f7xx_hal_ltdc.c ****   /* Sets the Reload type */
1027:../../Drivers/STM32F7xx_HAL_Driver/Src/stm32f7xx_hal_ltdc.c ****   hltdc->Instance->SRCR = LTDC_SRCR_IMR;
 2025              		.loc 1 1027 0 discriminator 2
 2026 004a FB68     		ldr	r3, [r7, #12]
 2027 004c 1B68     		ldr	r3, [r3]
 2028 004e 0122     		movs	r2, #1
 2029 0050 5A62     		str	r2, [r3, #36]
1028:../../Drivers/STM32F7xx_HAL_Driver/Src/stm32f7xx_hal_ltdc.c **** 
1029:../../Drivers/STM32F7xx_HAL_Driver/Src/stm32f7xx_hal_ltdc.c ****   /* Change the LTDC state*/
ARM GAS  /tmp/cc3YVQL6.s 			page 54


1030:../../Drivers/STM32F7xx_HAL_Driver/Src/stm32f7xx_hal_ltdc.c ****   hltdc->State = HAL_LTDC_STATE_READY;
 2030              		.loc 1 1030 0 discriminator 2
 2031 0052 FB68     		ldr	r3, [r7, #12]
 2032 0054 0122     		movs	r2, #1
 2033 0056 83F8A120 		strb	r2, [r3, #161]
1031:../../Drivers/STM32F7xx_HAL_Driver/Src/stm32f7xx_hal_ltdc.c **** 
1032:../../Drivers/STM32F7xx_HAL_Driver/Src/stm32f7xx_hal_ltdc.c ****   /* Process unlocked */
1033:../../Drivers/STM32F7xx_HAL_Driver/Src/stm32f7xx_hal_ltdc.c ****   __HAL_UNLOCK(hltdc);
 2034              		.loc 1 1033 0 discriminator 2
 2035 005a FB68     		ldr	r3, [r7, #12]
 2036 005c 0022     		movs	r2, #0
 2037 005e 83F8A020 		strb	r2, [r3, #160]
1034:../../Drivers/STM32F7xx_HAL_Driver/Src/stm32f7xx_hal_ltdc.c **** 
1035:../../Drivers/STM32F7xx_HAL_Driver/Src/stm32f7xx_hal_ltdc.c ****   return HAL_OK;
 2038              		.loc 1 1035 0 discriminator 2
 2039 0062 0023     		movs	r3, #0
 2040              	.L65:
1036:../../Drivers/STM32F7xx_HAL_Driver/Src/stm32f7xx_hal_ltdc.c **** }
 2041              		.loc 1 1036 0
 2042 0064 1846     		mov	r0, r3
 2043 0066 1837     		adds	r7, r7, #24
 2044              	.LCFI116:
 2045              		.cfi_def_cfa_offset 8
 2046 0068 BD46     		mov	sp, r7
 2047              	.LCFI117:
 2048              		.cfi_def_cfa_register 13
 2049              		@ sp needed
 2050 006a 80BD     		pop	{r7, pc}
 2051              		.cfi_endproc
 2052              	.LFE155:
 2054              		.section	.text.HAL_LTDC_SetAddress,"ax",%progbits
 2055              		.align	2
 2056              		.global	HAL_LTDC_SetAddress
 2057              		.thumb
 2058              		.thumb_func
 2060              	HAL_LTDC_SetAddress:
 2061              	.LFB156:
1037:../../Drivers/STM32F7xx_HAL_Driver/Src/stm32f7xx_hal_ltdc.c **** /**
1038:../../Drivers/STM32F7xx_HAL_Driver/Src/stm32f7xx_hal_ltdc.c ****   * @brief  Reconfigure the frame buffer Address.
1039:../../Drivers/STM32F7xx_HAL_Driver/Src/stm32f7xx_hal_ltdc.c ****   * @param  hltdc:    pointer to a LTDC_HandleTypeDef structure that contains
1040:../../Drivers/STM32F7xx_HAL_Driver/Src/stm32f7xx_hal_ltdc.c ****   *                   the configuration information for the LTDC.
1041:../../Drivers/STM32F7xx_HAL_Driver/Src/stm32f7xx_hal_ltdc.c ****   * @param  Address:  new address value.
1042:../../Drivers/STM32F7xx_HAL_Driver/Src/stm32f7xx_hal_ltdc.c ****   * @param  LayerIdx: LTDC Layer index.
1043:../../Drivers/STM32F7xx_HAL_Driver/Src/stm32f7xx_hal_ltdc.c ****   *                   This parameter can be one of the following values:
1044:../../Drivers/STM32F7xx_HAL_Driver/Src/stm32f7xx_hal_ltdc.c ****   *                   0 or 1.
1045:../../Drivers/STM32F7xx_HAL_Driver/Src/stm32f7xx_hal_ltdc.c ****   * @retval  HAL status
1046:../../Drivers/STM32F7xx_HAL_Driver/Src/stm32f7xx_hal_ltdc.c ****   */
1047:../../Drivers/STM32F7xx_HAL_Driver/Src/stm32f7xx_hal_ltdc.c **** HAL_StatusTypeDef HAL_LTDC_SetAddress(LTDC_HandleTypeDef *hltdc, uint32_t Address, uint32_t LayerId
1048:../../Drivers/STM32F7xx_HAL_Driver/Src/stm32f7xx_hal_ltdc.c **** {
 2062              		.loc 1 1048 0
 2063              		.cfi_startproc
 2064              		@ args = 0, pretend = 0, frame = 24
 2065              		@ frame_needed = 1, uses_anonymous_args = 0
 2066 0000 80B5     		push	{r7, lr}
 2067              	.LCFI118:
 2068              		.cfi_def_cfa_offset 8
 2069              		.cfi_offset 7, -8
ARM GAS  /tmp/cc3YVQL6.s 			page 55


 2070              		.cfi_offset 14, -4
 2071 0002 86B0     		sub	sp, sp, #24
 2072              	.LCFI119:
 2073              		.cfi_def_cfa_offset 32
 2074 0004 00AF     		add	r7, sp, #0
 2075              	.LCFI120:
 2076              		.cfi_def_cfa_register 7
 2077 0006 F860     		str	r0, [r7, #12]
 2078 0008 B960     		str	r1, [r7, #8]
 2079 000a 7A60     		str	r2, [r7, #4]
1049:../../Drivers/STM32F7xx_HAL_Driver/Src/stm32f7xx_hal_ltdc.c ****   LTDC_LayerCfgTypeDef *pLayerCfg;
1050:../../Drivers/STM32F7xx_HAL_Driver/Src/stm32f7xx_hal_ltdc.c **** 
1051:../../Drivers/STM32F7xx_HAL_Driver/Src/stm32f7xx_hal_ltdc.c ****   /* Process locked */
1052:../../Drivers/STM32F7xx_HAL_Driver/Src/stm32f7xx_hal_ltdc.c ****   __HAL_LOCK(hltdc);
 2080              		.loc 1 1052 0
 2081 000c FB68     		ldr	r3, [r7, #12]
 2082 000e 93F8A030 		ldrb	r3, [r3, #160]	@ zero_extendqisi2
 2083 0012 012B     		cmp	r3, #1
 2084 0014 01D1     		bne	.L67
 2085              		.loc 1 1052 0 is_stmt 0 discriminator 1
 2086 0016 0223     		movs	r3, #2
 2087 0018 24E0     		b	.L68
 2088              	.L67:
 2089              		.loc 1 1052 0 discriminator 2
 2090 001a FB68     		ldr	r3, [r7, #12]
 2091 001c 0122     		movs	r2, #1
 2092 001e 83F8A020 		strb	r2, [r3, #160]
1053:../../Drivers/STM32F7xx_HAL_Driver/Src/stm32f7xx_hal_ltdc.c **** 
1054:../../Drivers/STM32F7xx_HAL_Driver/Src/stm32f7xx_hal_ltdc.c ****   /* Change LTDC peripheral state */
1055:../../Drivers/STM32F7xx_HAL_Driver/Src/stm32f7xx_hal_ltdc.c ****   hltdc->State = HAL_LTDC_STATE_BUSY;
 2093              		.loc 1 1055 0 is_stmt 1 discriminator 2
 2094 0022 FB68     		ldr	r3, [r7, #12]
 2095 0024 0222     		movs	r2, #2
 2096 0026 83F8A120 		strb	r2, [r3, #161]
1056:../../Drivers/STM32F7xx_HAL_Driver/Src/stm32f7xx_hal_ltdc.c **** 
1057:../../Drivers/STM32F7xx_HAL_Driver/Src/stm32f7xx_hal_ltdc.c ****   /* Check the parameters */
1058:../../Drivers/STM32F7xx_HAL_Driver/Src/stm32f7xx_hal_ltdc.c ****   assert_param(IS_LTDC_LAYER(LayerIdx));
1059:../../Drivers/STM32F7xx_HAL_Driver/Src/stm32f7xx_hal_ltdc.c **** 
1060:../../Drivers/STM32F7xx_HAL_Driver/Src/stm32f7xx_hal_ltdc.c ****   /* Get layer configuration from handle structure */
1061:../../Drivers/STM32F7xx_HAL_Driver/Src/stm32f7xx_hal_ltdc.c ****   pLayerCfg = &hltdc->LayerCfg[LayerIdx];
 2097              		.loc 1 1061 0 discriminator 2
 2098 002a 7B68     		ldr	r3, [r7, #4]
 2099 002c 3422     		movs	r2, #52
 2100 002e 02FB03F3 		mul	r3, r2, r3
 2101 0032 3833     		adds	r3, r3, #56
 2102 0034 FA68     		ldr	r2, [r7, #12]
 2103 0036 1344     		add	r3, r3, r2
 2104 0038 7B61     		str	r3, [r7, #20]
1062:../../Drivers/STM32F7xx_HAL_Driver/Src/stm32f7xx_hal_ltdc.c **** 
1063:../../Drivers/STM32F7xx_HAL_Driver/Src/stm32f7xx_hal_ltdc.c ****   /* Reconfigure the Address */
1064:../../Drivers/STM32F7xx_HAL_Driver/Src/stm32f7xx_hal_ltdc.c ****   pLayerCfg->FBStartAdress = Address;
 2105              		.loc 1 1064 0 discriminator 2
 2106 003a 7B69     		ldr	r3, [r7, #20]
 2107 003c BA68     		ldr	r2, [r7, #8]
 2108 003e 5A62     		str	r2, [r3, #36]
1065:../../Drivers/STM32F7xx_HAL_Driver/Src/stm32f7xx_hal_ltdc.c **** 
1066:../../Drivers/STM32F7xx_HAL_Driver/Src/stm32f7xx_hal_ltdc.c ****   /* Set LTDC parameters */
ARM GAS  /tmp/cc3YVQL6.s 			page 56


1067:../../Drivers/STM32F7xx_HAL_Driver/Src/stm32f7xx_hal_ltdc.c ****   LTDC_SetConfig(hltdc, pLayerCfg, LayerIdx);
 2109              		.loc 1 1067 0 discriminator 2
 2110 0040 F868     		ldr	r0, [r7, #12]
 2111 0042 7969     		ldr	r1, [r7, #20]
 2112 0044 7A68     		ldr	r2, [r7, #4]
 2113 0046 FFF7FEFF 		bl	LTDC_SetConfig
1068:../../Drivers/STM32F7xx_HAL_Driver/Src/stm32f7xx_hal_ltdc.c **** 
1069:../../Drivers/STM32F7xx_HAL_Driver/Src/stm32f7xx_hal_ltdc.c ****   /* Sets the Reload type */
1070:../../Drivers/STM32F7xx_HAL_Driver/Src/stm32f7xx_hal_ltdc.c ****   hltdc->Instance->SRCR = LTDC_SRCR_IMR;
 2114              		.loc 1 1070 0 discriminator 2
 2115 004a FB68     		ldr	r3, [r7, #12]
 2116 004c 1B68     		ldr	r3, [r3]
 2117 004e 0122     		movs	r2, #1
 2118 0050 5A62     		str	r2, [r3, #36]
1071:../../Drivers/STM32F7xx_HAL_Driver/Src/stm32f7xx_hal_ltdc.c **** 
1072:../../Drivers/STM32F7xx_HAL_Driver/Src/stm32f7xx_hal_ltdc.c ****   /* Change the LTDC state*/
1073:../../Drivers/STM32F7xx_HAL_Driver/Src/stm32f7xx_hal_ltdc.c ****   hltdc->State = HAL_LTDC_STATE_READY;
 2119              		.loc 1 1073 0 discriminator 2
 2120 0052 FB68     		ldr	r3, [r7, #12]
 2121 0054 0122     		movs	r2, #1
 2122 0056 83F8A120 		strb	r2, [r3, #161]
1074:../../Drivers/STM32F7xx_HAL_Driver/Src/stm32f7xx_hal_ltdc.c **** 
1075:../../Drivers/STM32F7xx_HAL_Driver/Src/stm32f7xx_hal_ltdc.c ****   /* Process unlocked */
1076:../../Drivers/STM32F7xx_HAL_Driver/Src/stm32f7xx_hal_ltdc.c ****   __HAL_UNLOCK(hltdc);
 2123              		.loc 1 1076 0 discriminator 2
 2124 005a FB68     		ldr	r3, [r7, #12]
 2125 005c 0022     		movs	r2, #0
 2126 005e 83F8A020 		strb	r2, [r3, #160]
1077:../../Drivers/STM32F7xx_HAL_Driver/Src/stm32f7xx_hal_ltdc.c **** 
1078:../../Drivers/STM32F7xx_HAL_Driver/Src/stm32f7xx_hal_ltdc.c ****   return HAL_OK;
 2127              		.loc 1 1078 0 discriminator 2
 2128 0062 0023     		movs	r3, #0
 2129              	.L68:
1079:../../Drivers/STM32F7xx_HAL_Driver/Src/stm32f7xx_hal_ltdc.c **** }
 2130              		.loc 1 1079 0
 2131 0064 1846     		mov	r0, r3
 2132 0066 1837     		adds	r7, r7, #24
 2133              	.LCFI121:
 2134              		.cfi_def_cfa_offset 8
 2135 0068 BD46     		mov	sp, r7
 2136              	.LCFI122:
 2137              		.cfi_def_cfa_register 13
 2138              		@ sp needed
 2139 006a 80BD     		pop	{r7, pc}
 2140              		.cfi_endproc
 2141              	.LFE156:
 2143              		.section	.text.HAL_LTDC_SetPitch,"ax",%progbits
 2144              		.align	2
 2145              		.global	HAL_LTDC_SetPitch
 2146              		.thumb
 2147              		.thumb_func
 2149              	HAL_LTDC_SetPitch:
 2150              	.LFB157:
1080:../../Drivers/STM32F7xx_HAL_Driver/Src/stm32f7xx_hal_ltdc.c **** 
1081:../../Drivers/STM32F7xx_HAL_Driver/Src/stm32f7xx_hal_ltdc.c **** /**
1082:../../Drivers/STM32F7xx_HAL_Driver/Src/stm32f7xx_hal_ltdc.c ****   * @brief  Function used to reconfigure the pitch for specific cases where the attached LayerIdx b
1083:../../Drivers/STM32F7xx_HAL_Driver/Src/stm32f7xx_hal_ltdc.c ****   *         larger than the one intended to be displayed on screen. Example of a buffer 800x480 att
ARM GAS  /tmp/cc3YVQL6.s 			page 57


1084:../../Drivers/STM32F7xx_HAL_Driver/Src/stm32f7xx_hal_ltdc.c ****   *         want to read and display on screen only a portion 320x240 taken in the center of the bu
1085:../../Drivers/STM32F7xx_HAL_Driver/Src/stm32f7xx_hal_ltdc.c ****   *         will be in that case 800 pixels and not 320 pixels as initially configured by previous 
1086:../../Drivers/STM32F7xx_HAL_Driver/Src/stm32f7xx_hal_ltdc.c ****   *         Note : this function should be called only after a previous call to HAL_LTDC_ConfigLaye
1087:../../Drivers/STM32F7xx_HAL_Driver/Src/stm32f7xx_hal_ltdc.c ****   *                configured by HAL_LTDC_ConfigLayer() when required (refer to example described j
1088:../../Drivers/STM32F7xx_HAL_Driver/Src/stm32f7xx_hal_ltdc.c ****   * @param  hltdc:             pointer to a LTDC_HandleTypeDef structure that contains
1089:../../Drivers/STM32F7xx_HAL_Driver/Src/stm32f7xx_hal_ltdc.c ****   *                            the configuration information for the LTDC.
1090:../../Drivers/STM32F7xx_HAL_Driver/Src/stm32f7xx_hal_ltdc.c ****   * @param  LinePitchInPixels: New line pitch in pixels to configure for LTDC layer 'LayerIdx'.
1091:../../Drivers/STM32F7xx_HAL_Driver/Src/stm32f7xx_hal_ltdc.c ****   * @param  LayerIdx:          LTDC layer index concerned by the modification of line pitch.
1092:../../Drivers/STM32F7xx_HAL_Driver/Src/stm32f7xx_hal_ltdc.c ****   * @retval HAL status
1093:../../Drivers/STM32F7xx_HAL_Driver/Src/stm32f7xx_hal_ltdc.c ****   */
1094:../../Drivers/STM32F7xx_HAL_Driver/Src/stm32f7xx_hal_ltdc.c **** HAL_StatusTypeDef HAL_LTDC_SetPitch(LTDC_HandleTypeDef *hltdc, uint32_t LinePitchInPixels, uint32_t
1095:../../Drivers/STM32F7xx_HAL_Driver/Src/stm32f7xx_hal_ltdc.c **** {
 2151              		.loc 1 1095 0
 2152              		.cfi_startproc
 2153              		@ args = 0, pretend = 0, frame = 32
 2154              		@ frame_needed = 1, uses_anonymous_args = 0
 2155              		@ link register save eliminated.
 2156 0000 80B4     		push	{r7}
 2157              	.LCFI123:
 2158              		.cfi_def_cfa_offset 4
 2159              		.cfi_offset 7, -4
 2160 0002 89B0     		sub	sp, sp, #36
 2161              	.LCFI124:
 2162              		.cfi_def_cfa_offset 40
 2163 0004 00AF     		add	r7, sp, #0
 2164              	.LCFI125:
 2165              		.cfi_def_cfa_register 7
 2166 0006 F860     		str	r0, [r7, #12]
 2167 0008 B960     		str	r1, [r7, #8]
 2168 000a 7A60     		str	r2, [r7, #4]
1096:../../Drivers/STM32F7xx_HAL_Driver/Src/stm32f7xx_hal_ltdc.c ****   uint32_t tmp = 0;
 2169              		.loc 1 1096 0
 2170 000c 0023     		movs	r3, #0
 2171 000e FB61     		str	r3, [r7, #28]
1097:../../Drivers/STM32F7xx_HAL_Driver/Src/stm32f7xx_hal_ltdc.c ****   uint32_t pitchUpdate = 0;
 2172              		.loc 1 1097 0
 2173 0010 0023     		movs	r3, #0
 2174 0012 BB61     		str	r3, [r7, #24]
1098:../../Drivers/STM32F7xx_HAL_Driver/Src/stm32f7xx_hal_ltdc.c ****   uint32_t pixelFormat = 0;
 2175              		.loc 1 1098 0
 2176 0014 0023     		movs	r3, #0
 2177 0016 7B61     		str	r3, [r7, #20]
1099:../../Drivers/STM32F7xx_HAL_Driver/Src/stm32f7xx_hal_ltdc.c ****   
1100:../../Drivers/STM32F7xx_HAL_Driver/Src/stm32f7xx_hal_ltdc.c ****   /* Process locked */
1101:../../Drivers/STM32F7xx_HAL_Driver/Src/stm32f7xx_hal_ltdc.c ****   __HAL_LOCK(hltdc);
 2178              		.loc 1 1101 0
 2179 0018 FB68     		ldr	r3, [r7, #12]
 2180 001a 93F8A030 		ldrb	r3, [r3, #160]	@ zero_extendqisi2
 2181 001e 012B     		cmp	r3, #1
 2182 0020 01D1     		bne	.L70
 2183              		.loc 1 1101 0 is_stmt 0 discriminator 1
 2184 0022 0223     		movs	r3, #2
 2185 0024 6EE0     		b	.L71
 2186              	.L70:
 2187              		.loc 1 1101 0 discriminator 2
 2188 0026 FB68     		ldr	r3, [r7, #12]
 2189 0028 0122     		movs	r2, #1
ARM GAS  /tmp/cc3YVQL6.s 			page 58


 2190 002a 83F8A020 		strb	r2, [r3, #160]
1102:../../Drivers/STM32F7xx_HAL_Driver/Src/stm32f7xx_hal_ltdc.c ****   
1103:../../Drivers/STM32F7xx_HAL_Driver/Src/stm32f7xx_hal_ltdc.c ****   /* Change LTDC peripheral state */
1104:../../Drivers/STM32F7xx_HAL_Driver/Src/stm32f7xx_hal_ltdc.c ****   hltdc->State = HAL_LTDC_STATE_BUSY;
 2191              		.loc 1 1104 0 is_stmt 1 discriminator 2
 2192 002e FB68     		ldr	r3, [r7, #12]
 2193 0030 0222     		movs	r2, #2
 2194 0032 83F8A120 		strb	r2, [r3, #161]
1105:../../Drivers/STM32F7xx_HAL_Driver/Src/stm32f7xx_hal_ltdc.c ****   
1106:../../Drivers/STM32F7xx_HAL_Driver/Src/stm32f7xx_hal_ltdc.c ****   /* Check the parameters */
1107:../../Drivers/STM32F7xx_HAL_Driver/Src/stm32f7xx_hal_ltdc.c ****   assert_param(IS_LTDC_LAYER(LayerIdx));
1108:../../Drivers/STM32F7xx_HAL_Driver/Src/stm32f7xx_hal_ltdc.c ****   
1109:../../Drivers/STM32F7xx_HAL_Driver/Src/stm32f7xx_hal_ltdc.c ****   /* get LayerIdx used pixel format */
1110:../../Drivers/STM32F7xx_HAL_Driver/Src/stm32f7xx_hal_ltdc.c ****   pixelFormat = hltdc->LayerCfg[LayerIdx].PixelFormat;
 2195              		.loc 1 1110 0 discriminator 2
 2196 0036 FA68     		ldr	r2, [r7, #12]
 2197 0038 7B68     		ldr	r3, [r7, #4]
 2198 003a 3421     		movs	r1, #52
 2199 003c 01FB03F3 		mul	r3, r1, r3
 2200 0040 1344     		add	r3, r3, r2
 2201 0042 4833     		adds	r3, r3, #72
 2202 0044 1B68     		ldr	r3, [r3]
 2203 0046 7B61     		str	r3, [r7, #20]
1111:../../Drivers/STM32F7xx_HAL_Driver/Src/stm32f7xx_hal_ltdc.c ****   
1112:../../Drivers/STM32F7xx_HAL_Driver/Src/stm32f7xx_hal_ltdc.c ****   if(pixelFormat == LTDC_PIXEL_FORMAT_ARGB8888)
 2204              		.loc 1 1112 0 discriminator 2
 2205 0048 7B69     		ldr	r3, [r7, #20]
 2206 004a 002B     		cmp	r3, #0
 2207 004c 02D1     		bne	.L72
1113:../../Drivers/STM32F7xx_HAL_Driver/Src/stm32f7xx_hal_ltdc.c ****   {
1114:../../Drivers/STM32F7xx_HAL_Driver/Src/stm32f7xx_hal_ltdc.c ****     tmp = 4;
 2208              		.loc 1 1114 0
 2209 004e 0423     		movs	r3, #4
 2210 0050 FB61     		str	r3, [r7, #28]
 2211 0052 16E0     		b	.L73
 2212              	.L72:
1115:../../Drivers/STM32F7xx_HAL_Driver/Src/stm32f7xx_hal_ltdc.c ****   }
1116:../../Drivers/STM32F7xx_HAL_Driver/Src/stm32f7xx_hal_ltdc.c ****   else if (pixelFormat == LTDC_PIXEL_FORMAT_RGB888)
 2213              		.loc 1 1116 0
 2214 0054 7B69     		ldr	r3, [r7, #20]
 2215 0056 012B     		cmp	r3, #1
 2216 0058 02D1     		bne	.L74
1117:../../Drivers/STM32F7xx_HAL_Driver/Src/stm32f7xx_hal_ltdc.c ****   {
1118:../../Drivers/STM32F7xx_HAL_Driver/Src/stm32f7xx_hal_ltdc.c ****     tmp = 3;
 2217              		.loc 1 1118 0
 2218 005a 0323     		movs	r3, #3
 2219 005c FB61     		str	r3, [r7, #28]
 2220 005e 10E0     		b	.L73
 2221              	.L74:
1119:../../Drivers/STM32F7xx_HAL_Driver/Src/stm32f7xx_hal_ltdc.c ****   }
1120:../../Drivers/STM32F7xx_HAL_Driver/Src/stm32f7xx_hal_ltdc.c ****   else if((pixelFormat == LTDC_PIXEL_FORMAT_ARGB4444) || \
 2222              		.loc 1 1120 0
 2223 0060 7B69     		ldr	r3, [r7, #20]
 2224 0062 042B     		cmp	r3, #4
 2225 0064 08D0     		beq	.L75
 2226              		.loc 1 1120 0 is_stmt 0 discriminator 1
 2227 0066 7B69     		ldr	r3, [r7, #20]
ARM GAS  /tmp/cc3YVQL6.s 			page 59


 2228 0068 022B     		cmp	r3, #2
 2229 006a 05D0     		beq	.L75
1121:../../Drivers/STM32F7xx_HAL_Driver/Src/stm32f7xx_hal_ltdc.c ****           (pixelFormat == LTDC_PIXEL_FORMAT_RGB565)   || \
 2230              		.loc 1 1121 0 is_stmt 1
 2231 006c 7B69     		ldr	r3, [r7, #20]
 2232 006e 032B     		cmp	r3, #3
 2233 0070 02D0     		beq	.L75
1122:../../Drivers/STM32F7xx_HAL_Driver/Src/stm32f7xx_hal_ltdc.c ****           (pixelFormat == LTDC_PIXEL_FORMAT_ARGB1555) || \
 2234              		.loc 1 1122 0
 2235 0072 7B69     		ldr	r3, [r7, #20]
 2236 0074 072B     		cmp	r3, #7
 2237 0076 02D1     		bne	.L76
 2238              	.L75:
1123:../../Drivers/STM32F7xx_HAL_Driver/Src/stm32f7xx_hal_ltdc.c ****          (pixelFormat == LTDC_PIXEL_FORMAT_AL88))
1124:../../Drivers/STM32F7xx_HAL_Driver/Src/stm32f7xx_hal_ltdc.c ****   {
1125:../../Drivers/STM32F7xx_HAL_Driver/Src/stm32f7xx_hal_ltdc.c ****     tmp = 2;
 2239              		.loc 1 1125 0
 2240 0078 0223     		movs	r3, #2
 2241 007a FB61     		str	r3, [r7, #28]
 2242 007c 01E0     		b	.L73
 2243              	.L76:
1126:../../Drivers/STM32F7xx_HAL_Driver/Src/stm32f7xx_hal_ltdc.c ****   }
1127:../../Drivers/STM32F7xx_HAL_Driver/Src/stm32f7xx_hal_ltdc.c ****   else
1128:../../Drivers/STM32F7xx_HAL_Driver/Src/stm32f7xx_hal_ltdc.c ****   {
1129:../../Drivers/STM32F7xx_HAL_Driver/Src/stm32f7xx_hal_ltdc.c ****     tmp = 1;
 2244              		.loc 1 1129 0
 2245 007e 0123     		movs	r3, #1
 2246 0080 FB61     		str	r3, [r7, #28]
 2247              	.L73:
1130:../../Drivers/STM32F7xx_HAL_Driver/Src/stm32f7xx_hal_ltdc.c ****   }
1131:../../Drivers/STM32F7xx_HAL_Driver/Src/stm32f7xx_hal_ltdc.c ****   
1132:../../Drivers/STM32F7xx_HAL_Driver/Src/stm32f7xx_hal_ltdc.c ****   pitchUpdate = ((LinePitchInPixels * tmp) << 16);
 2248              		.loc 1 1132 0
 2249 0082 BB68     		ldr	r3, [r7, #8]
 2250 0084 FA69     		ldr	r2, [r7, #28]
 2251 0086 02FB03F3 		mul	r3, r2, r3
 2252 008a 1B04     		lsls	r3, r3, #16
 2253 008c BB61     		str	r3, [r7, #24]
1133:../../Drivers/STM32F7xx_HAL_Driver/Src/stm32f7xx_hal_ltdc.c ****   
1134:../../Drivers/STM32F7xx_HAL_Driver/Src/stm32f7xx_hal_ltdc.c ****   /* Clear previously set standard pitch */
1135:../../Drivers/STM32F7xx_HAL_Driver/Src/stm32f7xx_hal_ltdc.c ****   LTDC_LAYER(hltdc, LayerIdx)->CFBLR &= ~LTDC_LxCFBLR_CFBP;
 2254              		.loc 1 1135 0
 2255 008e FB68     		ldr	r3, [r7, #12]
 2256 0090 1B68     		ldr	r3, [r3]
 2257 0092 1A46     		mov	r2, r3
 2258 0094 7B68     		ldr	r3, [r7, #4]
 2259 0096 DB01     		lsls	r3, r3, #7
 2260 0098 1344     		add	r3, r3, r2
 2261 009a 8433     		adds	r3, r3, #132
 2262 009c 1946     		mov	r1, r3
 2263 009e FB68     		ldr	r3, [r7, #12]
 2264 00a0 1B68     		ldr	r3, [r3]
 2265 00a2 1A46     		mov	r2, r3
 2266 00a4 7B68     		ldr	r3, [r7, #4]
 2267 00a6 DB01     		lsls	r3, r3, #7
 2268 00a8 1344     		add	r3, r3, r2
 2269 00aa 8433     		adds	r3, r3, #132
ARM GAS  /tmp/cc3YVQL6.s 			page 60


 2270 00ac DA6A     		ldr	r2, [r3, #44]
 2271 00ae 184B     		ldr	r3, .L77
 2272 00b0 1340     		ands	r3, r3, r2
 2273 00b2 CB62     		str	r3, [r1, #44]
1136:../../Drivers/STM32F7xx_HAL_Driver/Src/stm32f7xx_hal_ltdc.c ****   
1137:../../Drivers/STM32F7xx_HAL_Driver/Src/stm32f7xx_hal_ltdc.c ****   /* Sets the Reload type as immediate update of LTDC pitch configured above */
1138:../../Drivers/STM32F7xx_HAL_Driver/Src/stm32f7xx_hal_ltdc.c ****   LTDC->SRCR |= LTDC_SRCR_IMR;
 2274              		.loc 1 1138 0
 2275 00b4 174A     		ldr	r2, .L77+4
 2276 00b6 174B     		ldr	r3, .L77+4
 2277 00b8 5B6A     		ldr	r3, [r3, #36]
 2278 00ba 43F00103 		orr	r3, r3, #1
 2279 00be 5362     		str	r3, [r2, #36]
1139:../../Drivers/STM32F7xx_HAL_Driver/Src/stm32f7xx_hal_ltdc.c ****   
1140:../../Drivers/STM32F7xx_HAL_Driver/Src/stm32f7xx_hal_ltdc.c ****   /* Set new line pitch value */
1141:../../Drivers/STM32F7xx_HAL_Driver/Src/stm32f7xx_hal_ltdc.c ****   LTDC_LAYER(hltdc, LayerIdx)->CFBLR |= pitchUpdate;
 2280              		.loc 1 1141 0
 2281 00c0 FB68     		ldr	r3, [r7, #12]
 2282 00c2 1B68     		ldr	r3, [r3]
 2283 00c4 1A46     		mov	r2, r3
 2284 00c6 7B68     		ldr	r3, [r7, #4]
 2285 00c8 DB01     		lsls	r3, r3, #7
 2286 00ca 1344     		add	r3, r3, r2
 2287 00cc 8433     		adds	r3, r3, #132
 2288 00ce 1946     		mov	r1, r3
 2289 00d0 FB68     		ldr	r3, [r7, #12]
 2290 00d2 1B68     		ldr	r3, [r3]
 2291 00d4 1A46     		mov	r2, r3
 2292 00d6 7B68     		ldr	r3, [r7, #4]
 2293 00d8 DB01     		lsls	r3, r3, #7
 2294 00da 1344     		add	r3, r3, r2
 2295 00dc 8433     		adds	r3, r3, #132
 2296 00de DA6A     		ldr	r2, [r3, #44]
 2297 00e0 BB69     		ldr	r3, [r7, #24]
 2298 00e2 1343     		orrs	r3, r3, r2
 2299 00e4 CB62     		str	r3, [r1, #44]
1142:../../Drivers/STM32F7xx_HAL_Driver/Src/stm32f7xx_hal_ltdc.c ****   
1143:../../Drivers/STM32F7xx_HAL_Driver/Src/stm32f7xx_hal_ltdc.c ****   /* Sets the Reload type as immediate update of LTDC pitch configured above */
1144:../../Drivers/STM32F7xx_HAL_Driver/Src/stm32f7xx_hal_ltdc.c ****   LTDC->SRCR |= LTDC_SRCR_IMR;
 2300              		.loc 1 1144 0
 2301 00e6 0B4A     		ldr	r2, .L77+4
 2302 00e8 0A4B     		ldr	r3, .L77+4
 2303 00ea 5B6A     		ldr	r3, [r3, #36]
 2304 00ec 43F00103 		orr	r3, r3, #1
 2305 00f0 5362     		str	r3, [r2, #36]
1145:../../Drivers/STM32F7xx_HAL_Driver/Src/stm32f7xx_hal_ltdc.c ****   
1146:../../Drivers/STM32F7xx_HAL_Driver/Src/stm32f7xx_hal_ltdc.c ****   /* Change the LTDC state*/
1147:../../Drivers/STM32F7xx_HAL_Driver/Src/stm32f7xx_hal_ltdc.c ****   hltdc->State = HAL_LTDC_STATE_READY;
 2306              		.loc 1 1147 0
 2307 00f2 FB68     		ldr	r3, [r7, #12]
 2308 00f4 0122     		movs	r2, #1
 2309 00f6 83F8A120 		strb	r2, [r3, #161]
1148:../../Drivers/STM32F7xx_HAL_Driver/Src/stm32f7xx_hal_ltdc.c ****   
1149:../../Drivers/STM32F7xx_HAL_Driver/Src/stm32f7xx_hal_ltdc.c ****   /* Process unlocked */
1150:../../Drivers/STM32F7xx_HAL_Driver/Src/stm32f7xx_hal_ltdc.c ****   __HAL_UNLOCK(hltdc);
 2310              		.loc 1 1150 0
 2311 00fa FB68     		ldr	r3, [r7, #12]
ARM GAS  /tmp/cc3YVQL6.s 			page 61


 2312 00fc 0022     		movs	r2, #0
 2313 00fe 83F8A020 		strb	r2, [r3, #160]
1151:../../Drivers/STM32F7xx_HAL_Driver/Src/stm32f7xx_hal_ltdc.c ****   
1152:../../Drivers/STM32F7xx_HAL_Driver/Src/stm32f7xx_hal_ltdc.c ****   return HAL_OK;  
 2314              		.loc 1 1152 0
 2315 0102 0023     		movs	r3, #0
 2316              	.L71:
1153:../../Drivers/STM32F7xx_HAL_Driver/Src/stm32f7xx_hal_ltdc.c **** }
 2317              		.loc 1 1153 0
 2318 0104 1846     		mov	r0, r3
 2319 0106 2437     		adds	r7, r7, #36
 2320              	.LCFI126:
 2321              		.cfi_def_cfa_offset 4
 2322 0108 BD46     		mov	sp, r7
 2323              	.LCFI127:
 2324              		.cfi_def_cfa_register 13
 2325              		@ sp needed
 2326 010a 5DF8047B 		ldr	r7, [sp], #4
 2327              	.LCFI128:
 2328              		.cfi_restore 7
 2329              		.cfi_def_cfa_offset 0
 2330 010e 7047     		bx	lr
 2331              	.L78:
 2332              		.align	2
 2333              	.L77:
 2334 0110 FFFF00E0 		.word	-536805377
 2335 0114 00680140 		.word	1073833984
 2336              		.cfi_endproc
 2337              	.LFE157:
 2339              		.section	.text.HAL_LTDC_ProgramLineEvent,"ax",%progbits
 2340              		.align	2
 2341              		.global	HAL_LTDC_ProgramLineEvent
 2342              		.thumb
 2343              		.thumb_func
 2345              	HAL_LTDC_ProgramLineEvent:
 2346              	.LFB158:
1154:../../Drivers/STM32F7xx_HAL_Driver/Src/stm32f7xx_hal_ltdc.c **** 
1155:../../Drivers/STM32F7xx_HAL_Driver/Src/stm32f7xx_hal_ltdc.c **** /**
1156:../../Drivers/STM32F7xx_HAL_Driver/Src/stm32f7xx_hal_ltdc.c ****   * @brief  Define the position of the line interrupt.
1157:../../Drivers/STM32F7xx_HAL_Driver/Src/stm32f7xx_hal_ltdc.c ****   * @param  hltdc:             pointer to a LTDC_HandleTypeDef structure that contains
1158:../../Drivers/STM32F7xx_HAL_Driver/Src/stm32f7xx_hal_ltdc.c ****   *                            the configuration information for the LTDC.
1159:../../Drivers/STM32F7xx_HAL_Driver/Src/stm32f7xx_hal_ltdc.c ****   * @param  Line:   Line Interrupt Position.
1160:../../Drivers/STM32F7xx_HAL_Driver/Src/stm32f7xx_hal_ltdc.c ****   * @retval  HAL status
1161:../../Drivers/STM32F7xx_HAL_Driver/Src/stm32f7xx_hal_ltdc.c ****   */
1162:../../Drivers/STM32F7xx_HAL_Driver/Src/stm32f7xx_hal_ltdc.c **** HAL_StatusTypeDef HAL_LTDC_ProgramLineEvent(LTDC_HandleTypeDef *hltdc, uint32_t Line)
1163:../../Drivers/STM32F7xx_HAL_Driver/Src/stm32f7xx_hal_ltdc.c **** {
 2347              		.loc 1 1163 0
 2348              		.cfi_startproc
 2349              		@ args = 0, pretend = 0, frame = 8
 2350              		@ frame_needed = 1, uses_anonymous_args = 0
 2351              		@ link register save eliminated.
 2352 0000 80B4     		push	{r7}
 2353              	.LCFI129:
 2354              		.cfi_def_cfa_offset 4
 2355              		.cfi_offset 7, -4
 2356 0002 83B0     		sub	sp, sp, #12
 2357              	.LCFI130:
ARM GAS  /tmp/cc3YVQL6.s 			page 62


 2358              		.cfi_def_cfa_offset 16
 2359 0004 00AF     		add	r7, sp, #0
 2360              	.LCFI131:
 2361              		.cfi_def_cfa_register 7
 2362 0006 7860     		str	r0, [r7, #4]
 2363 0008 3960     		str	r1, [r7]
1164:../../Drivers/STM32F7xx_HAL_Driver/Src/stm32f7xx_hal_ltdc.c ****   /* Process locked */
1165:../../Drivers/STM32F7xx_HAL_Driver/Src/stm32f7xx_hal_ltdc.c ****   __HAL_LOCK(hltdc);
 2364              		.loc 1 1165 0
 2365 000a 7B68     		ldr	r3, [r7, #4]
 2366 000c 93F8A030 		ldrb	r3, [r3, #160]	@ zero_extendqisi2
 2367 0010 012B     		cmp	r3, #1
 2368 0012 01D1     		bne	.L80
 2369              		.loc 1 1165 0 is_stmt 0 discriminator 1
 2370 0014 0223     		movs	r3, #2
 2371 0016 1BE0     		b	.L81
 2372              	.L80:
 2373              		.loc 1 1165 0 discriminator 2
 2374 0018 7B68     		ldr	r3, [r7, #4]
 2375 001a 0122     		movs	r2, #1
 2376 001c 83F8A020 		strb	r2, [r3, #160]
1166:../../Drivers/STM32F7xx_HAL_Driver/Src/stm32f7xx_hal_ltdc.c **** 
1167:../../Drivers/STM32F7xx_HAL_Driver/Src/stm32f7xx_hal_ltdc.c ****   /* Change LTDC peripheral state */
1168:../../Drivers/STM32F7xx_HAL_Driver/Src/stm32f7xx_hal_ltdc.c ****   hltdc->State = HAL_LTDC_STATE_BUSY;
 2377              		.loc 1 1168 0 is_stmt 1 discriminator 2
 2378 0020 7B68     		ldr	r3, [r7, #4]
 2379 0022 0222     		movs	r2, #2
 2380 0024 83F8A120 		strb	r2, [r3, #161]
1169:../../Drivers/STM32F7xx_HAL_Driver/Src/stm32f7xx_hal_ltdc.c **** 
1170:../../Drivers/STM32F7xx_HAL_Driver/Src/stm32f7xx_hal_ltdc.c ****   /* Check the parameters */
1171:../../Drivers/STM32F7xx_HAL_Driver/Src/stm32f7xx_hal_ltdc.c ****   assert_param(IS_LTDC_LIPOS(Line));
1172:../../Drivers/STM32F7xx_HAL_Driver/Src/stm32f7xx_hal_ltdc.c **** 
1173:../../Drivers/STM32F7xx_HAL_Driver/Src/stm32f7xx_hal_ltdc.c ****   /* Enable the Line interrupt */
1174:../../Drivers/STM32F7xx_HAL_Driver/Src/stm32f7xx_hal_ltdc.c ****   __HAL_LTDC_ENABLE_IT(hltdc, LTDC_IT_LI);
 2381              		.loc 1 1174 0 discriminator 2
 2382 0028 7B68     		ldr	r3, [r7, #4]
 2383 002a 1B68     		ldr	r3, [r3]
 2384 002c 7A68     		ldr	r2, [r7, #4]
 2385 002e 1268     		ldr	r2, [r2]
 2386 0030 526B     		ldr	r2, [r2, #52]
 2387 0032 42F00102 		orr	r2, r2, #1
 2388 0036 5A63     		str	r2, [r3, #52]
1175:../../Drivers/STM32F7xx_HAL_Driver/Src/stm32f7xx_hal_ltdc.c **** 
1176:../../Drivers/STM32F7xx_HAL_Driver/Src/stm32f7xx_hal_ltdc.c ****   /* Sets the Line Interrupt position */
1177:../../Drivers/STM32F7xx_HAL_Driver/Src/stm32f7xx_hal_ltdc.c ****   LTDC->LIPCR = (uint32_t)Line;
 2389              		.loc 1 1177 0 discriminator 2
 2390 0038 084A     		ldr	r2, .L82
 2391 003a 3B68     		ldr	r3, [r7]
 2392 003c 1364     		str	r3, [r2, #64]
1178:../../Drivers/STM32F7xx_HAL_Driver/Src/stm32f7xx_hal_ltdc.c **** 
1179:../../Drivers/STM32F7xx_HAL_Driver/Src/stm32f7xx_hal_ltdc.c ****   /* Change the LTDC state*/
1180:../../Drivers/STM32F7xx_HAL_Driver/Src/stm32f7xx_hal_ltdc.c ****   hltdc->State = HAL_LTDC_STATE_READY;
 2393              		.loc 1 1180 0 discriminator 2
 2394 003e 7B68     		ldr	r3, [r7, #4]
 2395 0040 0122     		movs	r2, #1
 2396 0042 83F8A120 		strb	r2, [r3, #161]
1181:../../Drivers/STM32F7xx_HAL_Driver/Src/stm32f7xx_hal_ltdc.c **** 
ARM GAS  /tmp/cc3YVQL6.s 			page 63


1182:../../Drivers/STM32F7xx_HAL_Driver/Src/stm32f7xx_hal_ltdc.c ****   /* Process unlocked */
1183:../../Drivers/STM32F7xx_HAL_Driver/Src/stm32f7xx_hal_ltdc.c ****   __HAL_UNLOCK(hltdc);
 2397              		.loc 1 1183 0 discriminator 2
 2398 0046 7B68     		ldr	r3, [r7, #4]
 2399 0048 0022     		movs	r2, #0
 2400 004a 83F8A020 		strb	r2, [r3, #160]
1184:../../Drivers/STM32F7xx_HAL_Driver/Src/stm32f7xx_hal_ltdc.c **** 
1185:../../Drivers/STM32F7xx_HAL_Driver/Src/stm32f7xx_hal_ltdc.c ****   return HAL_OK;
 2401              		.loc 1 1185 0 discriminator 2
 2402 004e 0023     		movs	r3, #0
 2403              	.L81:
1186:../../Drivers/STM32F7xx_HAL_Driver/Src/stm32f7xx_hal_ltdc.c **** }
 2404              		.loc 1 1186 0
 2405 0050 1846     		mov	r0, r3
 2406 0052 0C37     		adds	r7, r7, #12
 2407              	.LCFI132:
 2408              		.cfi_def_cfa_offset 4
 2409 0054 BD46     		mov	sp, r7
 2410              	.LCFI133:
 2411              		.cfi_def_cfa_register 13
 2412              		@ sp needed
 2413 0056 5DF8047B 		ldr	r7, [sp], #4
 2414              	.LCFI134:
 2415              		.cfi_restore 7
 2416              		.cfi_def_cfa_offset 0
 2417 005a 7047     		bx	lr
 2418              	.L83:
 2419              		.align	2
 2420              	.L82:
 2421 005c 00680140 		.word	1073833984
 2422              		.cfi_endproc
 2423              	.LFE158:
 2425              		.section	.text.HAL_LTDC_Reload,"ax",%progbits
 2426              		.align	2
 2427              		.global	HAL_LTDC_Reload
 2428              		.thumb
 2429              		.thumb_func
 2431              	HAL_LTDC_Reload:
 2432              	.LFB159:
1187:../../Drivers/STM32F7xx_HAL_Driver/Src/stm32f7xx_hal_ltdc.c **** 
1188:../../Drivers/STM32F7xx_HAL_Driver/Src/stm32f7xx_hal_ltdc.c **** /**
1189:../../Drivers/STM32F7xx_HAL_Driver/Src/stm32f7xx_hal_ltdc.c ****   * @brief  LTDC configuration reload.
1190:../../Drivers/STM32F7xx_HAL_Driver/Src/stm32f7xx_hal_ltdc.c ****   * @param  hltdc:            pointer to a LTDC_HandleTypeDef structure that contains
1191:../../Drivers/STM32F7xx_HAL_Driver/Src/stm32f7xx_hal_ltdc.c ****   *                           the configuration information for the LTDC.
1192:../../Drivers/STM32F7xx_HAL_Driver/Src/stm32f7xx_hal_ltdc.c ****   * @param  ReloadType:       This parameter can be one of the following values :
1193:../../Drivers/STM32F7xx_HAL_Driver/Src/stm32f7xx_hal_ltdc.c ****   *                           LTDC_RELOAD_IMMEDIATE : Immediate Reload
1194:../../Drivers/STM32F7xx_HAL_Driver/Src/stm32f7xx_hal_ltdc.c ****   *                           LTDC_RELOAD_VERTICAL_BLANKING  : Reload in the next Vertical Blanking
1195:../../Drivers/STM32F7xx_HAL_Driver/Src/stm32f7xx_hal_ltdc.c ****   * @retval  HAL status
1196:../../Drivers/STM32F7xx_HAL_Driver/Src/stm32f7xx_hal_ltdc.c ****   */
1197:../../Drivers/STM32F7xx_HAL_Driver/Src/stm32f7xx_hal_ltdc.c **** HAL_StatusTypeDef  HAL_LTDC_Reload(LTDC_HandleTypeDef *hltdc, uint32_t ReloadType)
1198:../../Drivers/STM32F7xx_HAL_Driver/Src/stm32f7xx_hal_ltdc.c **** {
 2433              		.loc 1 1198 0
 2434              		.cfi_startproc
 2435              		@ args = 0, pretend = 0, frame = 8
 2436              		@ frame_needed = 1, uses_anonymous_args = 0
 2437              		@ link register save eliminated.
 2438 0000 80B4     		push	{r7}
ARM GAS  /tmp/cc3YVQL6.s 			page 64


 2439              	.LCFI135:
 2440              		.cfi_def_cfa_offset 4
 2441              		.cfi_offset 7, -4
 2442 0002 83B0     		sub	sp, sp, #12
 2443              	.LCFI136:
 2444              		.cfi_def_cfa_offset 16
 2445 0004 00AF     		add	r7, sp, #0
 2446              	.LCFI137:
 2447              		.cfi_def_cfa_register 7
 2448 0006 7860     		str	r0, [r7, #4]
 2449 0008 3960     		str	r1, [r7]
1199:../../Drivers/STM32F7xx_HAL_Driver/Src/stm32f7xx_hal_ltdc.c ****   assert_param(IS_LTDC_RELAOD(ReloadType));
1200:../../Drivers/STM32F7xx_HAL_Driver/Src/stm32f7xx_hal_ltdc.c **** 
1201:../../Drivers/STM32F7xx_HAL_Driver/Src/stm32f7xx_hal_ltdc.c ****   /* Process locked */
1202:../../Drivers/STM32F7xx_HAL_Driver/Src/stm32f7xx_hal_ltdc.c ****   __HAL_LOCK(hltdc);
 2450              		.loc 1 1202 0
 2451 000a 7B68     		ldr	r3, [r7, #4]
 2452 000c 93F8A030 		ldrb	r3, [r3, #160]	@ zero_extendqisi2
 2453 0010 012B     		cmp	r3, #1
 2454 0012 01D1     		bne	.L85
 2455              		.loc 1 1202 0 is_stmt 0 discriminator 1
 2456 0014 0223     		movs	r3, #2
 2457 0016 1CE0     		b	.L86
 2458              	.L85:
 2459              		.loc 1 1202 0 discriminator 2
 2460 0018 7B68     		ldr	r3, [r7, #4]
 2461 001a 0122     		movs	r2, #1
 2462 001c 83F8A020 		strb	r2, [r3, #160]
1203:../../Drivers/STM32F7xx_HAL_Driver/Src/stm32f7xx_hal_ltdc.c **** 
1204:../../Drivers/STM32F7xx_HAL_Driver/Src/stm32f7xx_hal_ltdc.c ****   /* Change LTDC peripheral state */
1205:../../Drivers/STM32F7xx_HAL_Driver/Src/stm32f7xx_hal_ltdc.c ****   hltdc->State = HAL_LTDC_STATE_BUSY;  
 2463              		.loc 1 1205 0 is_stmt 1 discriminator 2
 2464 0020 7B68     		ldr	r3, [r7, #4]
 2465 0022 0222     		movs	r2, #2
 2466 0024 83F8A120 		strb	r2, [r3, #161]
1206:../../Drivers/STM32F7xx_HAL_Driver/Src/stm32f7xx_hal_ltdc.c ****   
1207:../../Drivers/STM32F7xx_HAL_Driver/Src/stm32f7xx_hal_ltdc.c ****   /* Enable the Reload interrupt */  
1208:../../Drivers/STM32F7xx_HAL_Driver/Src/stm32f7xx_hal_ltdc.c ****   __HAL_LTDC_ENABLE_IT(hltdc, LTDC_IT_RR);
 2467              		.loc 1 1208 0 discriminator 2
 2468 0028 7B68     		ldr	r3, [r7, #4]
 2469 002a 1B68     		ldr	r3, [r3]
 2470 002c 7A68     		ldr	r2, [r7, #4]
 2471 002e 1268     		ldr	r2, [r2]
 2472 0030 526B     		ldr	r2, [r2, #52]
 2473 0032 42F00802 		orr	r2, r2, #8
 2474 0036 5A63     		str	r2, [r3, #52]
1209:../../Drivers/STM32F7xx_HAL_Driver/Src/stm32f7xx_hal_ltdc.c ****        
1210:../../Drivers/STM32F7xx_HAL_Driver/Src/stm32f7xx_hal_ltdc.c ****   /* Apply Reload type */
1211:../../Drivers/STM32F7xx_HAL_Driver/Src/stm32f7xx_hal_ltdc.c ****   hltdc->Instance->SRCR = ReloadType;        
 2475              		.loc 1 1211 0 discriminator 2
 2476 0038 7B68     		ldr	r3, [r7, #4]
 2477 003a 1B68     		ldr	r3, [r3]
 2478 003c 3A68     		ldr	r2, [r7]
 2479 003e 5A62     		str	r2, [r3, #36]
1212:../../Drivers/STM32F7xx_HAL_Driver/Src/stm32f7xx_hal_ltdc.c **** 
1213:../../Drivers/STM32F7xx_HAL_Driver/Src/stm32f7xx_hal_ltdc.c ****   /* Change the LTDC state*/
1214:../../Drivers/STM32F7xx_HAL_Driver/Src/stm32f7xx_hal_ltdc.c ****   hltdc->State = HAL_LTDC_STATE_READY;
ARM GAS  /tmp/cc3YVQL6.s 			page 65


 2480              		.loc 1 1214 0 discriminator 2
 2481 0040 7B68     		ldr	r3, [r7, #4]
 2482 0042 0122     		movs	r2, #1
 2483 0044 83F8A120 		strb	r2, [r3, #161]
1215:../../Drivers/STM32F7xx_HAL_Driver/Src/stm32f7xx_hal_ltdc.c ****   
1216:../../Drivers/STM32F7xx_HAL_Driver/Src/stm32f7xx_hal_ltdc.c ****   /* Process unlocked */
1217:../../Drivers/STM32F7xx_HAL_Driver/Src/stm32f7xx_hal_ltdc.c ****   __HAL_UNLOCK(hltdc);
 2484              		.loc 1 1217 0 discriminator 2
 2485 0048 7B68     		ldr	r3, [r7, #4]
 2486 004a 0022     		movs	r2, #0
 2487 004c 83F8A020 		strb	r2, [r3, #160]
1218:../../Drivers/STM32F7xx_HAL_Driver/Src/stm32f7xx_hal_ltdc.c ****   
1219:../../Drivers/STM32F7xx_HAL_Driver/Src/stm32f7xx_hal_ltdc.c ****   return HAL_OK;
 2488              		.loc 1 1219 0 discriminator 2
 2489 0050 0023     		movs	r3, #0
 2490              	.L86:
1220:../../Drivers/STM32F7xx_HAL_Driver/Src/stm32f7xx_hal_ltdc.c **** }
 2491              		.loc 1 1220 0
 2492 0052 1846     		mov	r0, r3
 2493 0054 0C37     		adds	r7, r7, #12
 2494              	.LCFI138:
 2495              		.cfi_def_cfa_offset 4
 2496 0056 BD46     		mov	sp, r7
 2497              	.LCFI139:
 2498              		.cfi_def_cfa_register 13
 2499              		@ sp needed
 2500 0058 5DF8047B 		ldr	r7, [sp], #4
 2501              	.LCFI140:
 2502              		.cfi_restore 7
 2503              		.cfi_def_cfa_offset 0
 2504 005c 7047     		bx	lr
 2505              		.cfi_endproc
 2506              	.LFE159:
 2508 005e 00BF     		.section	.text.HAL_LTDC_ConfigLayer_NoReload,"ax",%progbits
 2509              		.align	2
 2510              		.global	HAL_LTDC_ConfigLayer_NoReload
 2511              		.thumb
 2512              		.thumb_func
 2514              	HAL_LTDC_ConfigLayer_NoReload:
 2515              	.LFB160:
1221:../../Drivers/STM32F7xx_HAL_Driver/Src/stm32f7xx_hal_ltdc.c **** 
1222:../../Drivers/STM32F7xx_HAL_Driver/Src/stm32f7xx_hal_ltdc.c **** /**
1223:../../Drivers/STM32F7xx_HAL_Driver/Src/stm32f7xx_hal_ltdc.c ****   * @brief  Configure the LTDC Layer according to the specified without reloading
1224:../../Drivers/STM32F7xx_HAL_Driver/Src/stm32f7xx_hal_ltdc.c ****   *         parameters in the LTDC_InitTypeDef and create the associated handle.
1225:../../Drivers/STM32F7xx_HAL_Driver/Src/stm32f7xx_hal_ltdc.c ****   *         Variant of the function HAL_LTDC_ConfigLayer without immediate reload
1226:../../Drivers/STM32F7xx_HAL_Driver/Src/stm32f7xx_hal_ltdc.c ****   * @param  hltdc:     pointer to a LTDC_HandleTypeDef structure that contains
1227:../../Drivers/STM32F7xx_HAL_Driver/Src/stm32f7xx_hal_ltdc.c ****   *                    the configuration information for the LTDC.
1228:../../Drivers/STM32F7xx_HAL_Driver/Src/stm32f7xx_hal_ltdc.c ****   * @param  pLayerCfg: pointer to a LTDC_LayerCfgTypeDef structure that contains
1229:../../Drivers/STM32F7xx_HAL_Driver/Src/stm32f7xx_hal_ltdc.c ****   *                    the configuration information for the Layer.
1230:../../Drivers/STM32F7xx_HAL_Driver/Src/stm32f7xx_hal_ltdc.c ****   * @param  LayerIdx:  LTDC Layer index.
1231:../../Drivers/STM32F7xx_HAL_Driver/Src/stm32f7xx_hal_ltdc.c ****   *                    This parameter can be one of the following values:
1232:../../Drivers/STM32F7xx_HAL_Driver/Src/stm32f7xx_hal_ltdc.c ****   *                    0 or 1
1233:../../Drivers/STM32F7xx_HAL_Driver/Src/stm32f7xx_hal_ltdc.c ****   * @retval HAL status
1234:../../Drivers/STM32F7xx_HAL_Driver/Src/stm32f7xx_hal_ltdc.c ****   */
1235:../../Drivers/STM32F7xx_HAL_Driver/Src/stm32f7xx_hal_ltdc.c **** HAL_StatusTypeDef HAL_LTDC_ConfigLayer_NoReload(LTDC_HandleTypeDef *hltdc, LTDC_LayerCfgTypeDef *pL
1236:../../Drivers/STM32F7xx_HAL_Driver/Src/stm32f7xx_hal_ltdc.c **** {   
 2516              		.loc 1 1236 0
ARM GAS  /tmp/cc3YVQL6.s 			page 66


 2517              		.cfi_startproc
 2518              		@ args = 0, pretend = 0, frame = 16
 2519              		@ frame_needed = 1, uses_anonymous_args = 0
 2520 0000 B0B5     		push	{r4, r5, r7, lr}
 2521              	.LCFI141:
 2522              		.cfi_def_cfa_offset 16
 2523              		.cfi_offset 4, -16
 2524              		.cfi_offset 5, -12
 2525              		.cfi_offset 7, -8
 2526              		.cfi_offset 14, -4
 2527 0002 84B0     		sub	sp, sp, #16
 2528              	.LCFI142:
 2529              		.cfi_def_cfa_offset 32
 2530 0004 00AF     		add	r7, sp, #0
 2531              	.LCFI143:
 2532              		.cfi_def_cfa_register 7
 2533 0006 F860     		str	r0, [r7, #12]
 2534 0008 B960     		str	r1, [r7, #8]
 2535 000a 7A60     		str	r2, [r7, #4]
1237:../../Drivers/STM32F7xx_HAL_Driver/Src/stm32f7xx_hal_ltdc.c ****   /* Process locked */
1238:../../Drivers/STM32F7xx_HAL_Driver/Src/stm32f7xx_hal_ltdc.c ****   __HAL_LOCK(hltdc);
 2536              		.loc 1 1238 0
 2537 000c FB68     		ldr	r3, [r7, #12]
 2538 000e 93F8A030 		ldrb	r3, [r3, #160]	@ zero_extendqisi2
 2539 0012 012B     		cmp	r3, #1
 2540 0014 01D1     		bne	.L88
 2541              		.loc 1 1238 0 is_stmt 0 discriminator 1
 2542 0016 0223     		movs	r3, #2
 2543 0018 28E0     		b	.L89
 2544              	.L88:
 2545              		.loc 1 1238 0 discriminator 2
 2546 001a FB68     		ldr	r3, [r7, #12]
 2547 001c 0122     		movs	r2, #1
 2548 001e 83F8A020 		strb	r2, [r3, #160]
1239:../../Drivers/STM32F7xx_HAL_Driver/Src/stm32f7xx_hal_ltdc.c ****   
1240:../../Drivers/STM32F7xx_HAL_Driver/Src/stm32f7xx_hal_ltdc.c ****   /* Change LTDC peripheral state */
1241:../../Drivers/STM32F7xx_HAL_Driver/Src/stm32f7xx_hal_ltdc.c ****   hltdc->State = HAL_LTDC_STATE_BUSY;
 2549              		.loc 1 1241 0 is_stmt 1 discriminator 2
 2550 0022 FB68     		ldr	r3, [r7, #12]
 2551 0024 0222     		movs	r2, #2
 2552 0026 83F8A120 		strb	r2, [r3, #161]
1242:../../Drivers/STM32F7xx_HAL_Driver/Src/stm32f7xx_hal_ltdc.c **** 
1243:../../Drivers/STM32F7xx_HAL_Driver/Src/stm32f7xx_hal_ltdc.c ****   /* Check the parameters */
1244:../../Drivers/STM32F7xx_HAL_Driver/Src/stm32f7xx_hal_ltdc.c ****   assert_param(IS_LTDC_LAYER(LayerIdx));
1245:../../Drivers/STM32F7xx_HAL_Driver/Src/stm32f7xx_hal_ltdc.c ****   assert_param(IS_LTDC_PIXEL_FORMAT(pLayerCfg->PixelFormat));
1246:../../Drivers/STM32F7xx_HAL_Driver/Src/stm32f7xx_hal_ltdc.c ****   assert_param(IS_LTDC_BLENDING_FACTOR1(pLayerCfg->BlendingFactor1));
1247:../../Drivers/STM32F7xx_HAL_Driver/Src/stm32f7xx_hal_ltdc.c ****   assert_param(IS_LTDC_BLENDING_FACTOR2(pLayerCfg->BlendingFactor2));
1248:../../Drivers/STM32F7xx_HAL_Driver/Src/stm32f7xx_hal_ltdc.c ****   assert_param(IS_LTDC_HCONFIGST(pLayerCfg->WindowX0));
1249:../../Drivers/STM32F7xx_HAL_Driver/Src/stm32f7xx_hal_ltdc.c ****   assert_param(IS_LTDC_HCONFIGSP(pLayerCfg->WindowX1));
1250:../../Drivers/STM32F7xx_HAL_Driver/Src/stm32f7xx_hal_ltdc.c ****   assert_param(IS_LTDC_VCONFIGST(pLayerCfg->WindowY0));
1251:../../Drivers/STM32F7xx_HAL_Driver/Src/stm32f7xx_hal_ltdc.c ****   assert_param(IS_LTDC_VCONFIGSP(pLayerCfg->WindowY1));
1252:../../Drivers/STM32F7xx_HAL_Driver/Src/stm32f7xx_hal_ltdc.c ****   assert_param(IS_LTDC_ALPHA(pLayerCfg->Alpha0));
1253:../../Drivers/STM32F7xx_HAL_Driver/Src/stm32f7xx_hal_ltdc.c ****   assert_param(IS_LTDC_CFBLL(pLayerCfg->ImageWidth));
1254:../../Drivers/STM32F7xx_HAL_Driver/Src/stm32f7xx_hal_ltdc.c ****   assert_param(IS_LTDC_CFBLNBR(pLayerCfg->ImageHeight));
1255:../../Drivers/STM32F7xx_HAL_Driver/Src/stm32f7xx_hal_ltdc.c **** 
1256:../../Drivers/STM32F7xx_HAL_Driver/Src/stm32f7xx_hal_ltdc.c ****   /* Copy new layer configuration into handle structure */
1257:../../Drivers/STM32F7xx_HAL_Driver/Src/stm32f7xx_hal_ltdc.c ****   hltdc->LayerCfg[LayerIdx] = *pLayerCfg;  
ARM GAS  /tmp/cc3YVQL6.s 			page 67


 2553              		.loc 1 1257 0 discriminator 2
 2554 002a FA68     		ldr	r2, [r7, #12]
 2555 002c 7B68     		ldr	r3, [r7, #4]
 2556 002e 3421     		movs	r1, #52
 2557 0030 01FB03F3 		mul	r3, r1, r3
 2558 0034 1344     		add	r3, r3, r2
 2559 0036 03F13802 		add	r2, r3, #56
 2560 003a BB68     		ldr	r3, [r7, #8]
 2561 003c 1446     		mov	r4, r2
 2562 003e 1D46     		mov	r5, r3
 2563 0040 0FCD     		ldmia	r5!, {r0, r1, r2, r3}
 2564 0042 0FC4     		stmia	r4!, {r0, r1, r2, r3}
 2565 0044 0FCD     		ldmia	r5!, {r0, r1, r2, r3}
 2566 0046 0FC4     		stmia	r4!, {r0, r1, r2, r3}
 2567 0048 0FCD     		ldmia	r5!, {r0, r1, r2, r3}
 2568 004a 0FC4     		stmia	r4!, {r0, r1, r2, r3}
 2569 004c 2B68     		ldr	r3, [r5]
 2570 004e 2360     		str	r3, [r4]
1258:../../Drivers/STM32F7xx_HAL_Driver/Src/stm32f7xx_hal_ltdc.c **** 
1259:../../Drivers/STM32F7xx_HAL_Driver/Src/stm32f7xx_hal_ltdc.c ****   /* Configure the LTDC Layer */  
1260:../../Drivers/STM32F7xx_HAL_Driver/Src/stm32f7xx_hal_ltdc.c ****   LTDC_SetConfig(hltdc, pLayerCfg, LayerIdx);
 2571              		.loc 1 1260 0 discriminator 2
 2572 0050 F868     		ldr	r0, [r7, #12]
 2573 0052 B968     		ldr	r1, [r7, #8]
 2574 0054 7A68     		ldr	r2, [r7, #4]
 2575 0056 FFF7FEFF 		bl	LTDC_SetConfig
1261:../../Drivers/STM32F7xx_HAL_Driver/Src/stm32f7xx_hal_ltdc.c **** 
1262:../../Drivers/STM32F7xx_HAL_Driver/Src/stm32f7xx_hal_ltdc.c ****   /* Do not Sets the Reload  */
1263:../../Drivers/STM32F7xx_HAL_Driver/Src/stm32f7xx_hal_ltdc.c **** 
1264:../../Drivers/STM32F7xx_HAL_Driver/Src/stm32f7xx_hal_ltdc.c ****   /* Initialize the LTDC state*/
1265:../../Drivers/STM32F7xx_HAL_Driver/Src/stm32f7xx_hal_ltdc.c ****   hltdc->State  = HAL_LTDC_STATE_READY;
 2576              		.loc 1 1265 0 discriminator 2
 2577 005a FB68     		ldr	r3, [r7, #12]
 2578 005c 0122     		movs	r2, #1
 2579 005e 83F8A120 		strb	r2, [r3, #161]
1266:../../Drivers/STM32F7xx_HAL_Driver/Src/stm32f7xx_hal_ltdc.c **** 
1267:../../Drivers/STM32F7xx_HAL_Driver/Src/stm32f7xx_hal_ltdc.c ****   /* Process unlocked */
1268:../../Drivers/STM32F7xx_HAL_Driver/Src/stm32f7xx_hal_ltdc.c ****   __HAL_UNLOCK(hltdc);
 2580              		.loc 1 1268 0 discriminator 2
 2581 0062 FB68     		ldr	r3, [r7, #12]
 2582 0064 0022     		movs	r2, #0
 2583 0066 83F8A020 		strb	r2, [r3, #160]
1269:../../Drivers/STM32F7xx_HAL_Driver/Src/stm32f7xx_hal_ltdc.c **** 
1270:../../Drivers/STM32F7xx_HAL_Driver/Src/stm32f7xx_hal_ltdc.c ****   return HAL_OK;
 2584              		.loc 1 1270 0 discriminator 2
 2585 006a 0023     		movs	r3, #0
 2586              	.L89:
1271:../../Drivers/STM32F7xx_HAL_Driver/Src/stm32f7xx_hal_ltdc.c **** }
 2587              		.loc 1 1271 0
 2588 006c 1846     		mov	r0, r3
 2589 006e 1037     		adds	r7, r7, #16
 2590              	.LCFI144:
 2591              		.cfi_def_cfa_offset 16
 2592 0070 BD46     		mov	sp, r7
 2593              	.LCFI145:
 2594              		.cfi_def_cfa_register 13
 2595              		@ sp needed
ARM GAS  /tmp/cc3YVQL6.s 			page 68


 2596 0072 B0BD     		pop	{r4, r5, r7, pc}
 2597              		.cfi_endproc
 2598              	.LFE160:
 2600              		.section	.text.HAL_LTDC_SetWindowSize_NoReload,"ax",%progbits
 2601              		.align	2
 2602              		.global	HAL_LTDC_SetWindowSize_NoReload
 2603              		.thumb
 2604              		.thumb_func
 2606              	HAL_LTDC_SetWindowSize_NoReload:
 2607              	.LFB161:
1272:../../Drivers/STM32F7xx_HAL_Driver/Src/stm32f7xx_hal_ltdc.c **** 
1273:../../Drivers/STM32F7xx_HAL_Driver/Src/stm32f7xx_hal_ltdc.c **** /**
1274:../../Drivers/STM32F7xx_HAL_Driver/Src/stm32f7xx_hal_ltdc.c ****   * @brief  Set the LTDC window size without reloading.
1275:../../Drivers/STM32F7xx_HAL_Driver/Src/stm32f7xx_hal_ltdc.c ****   *         Variant of the function HAL_LTDC_SetWindowSize without immediate reload
1276:../../Drivers/STM32F7xx_HAL_Driver/Src/stm32f7xx_hal_ltdc.c ****   * @param  hltdc:    pointer to a LTDC_HandleTypeDef structure that contains
1277:../../Drivers/STM32F7xx_HAL_Driver/Src/stm32f7xx_hal_ltdc.c ****   *                   the configuration information for the LTDC.
1278:../../Drivers/STM32F7xx_HAL_Driver/Src/stm32f7xx_hal_ltdc.c ****   * @param  XSize:    LTDC Pixel per line
1279:../../Drivers/STM32F7xx_HAL_Driver/Src/stm32f7xx_hal_ltdc.c ****   * @param  YSize:    LTDC Line number
1280:../../Drivers/STM32F7xx_HAL_Driver/Src/stm32f7xx_hal_ltdc.c ****   * @param  LayerIdx:  LTDC Layer index.
1281:../../Drivers/STM32F7xx_HAL_Driver/Src/stm32f7xx_hal_ltdc.c ****   *                   This parameter can be one of the following values:
1282:../../Drivers/STM32F7xx_HAL_Driver/Src/stm32f7xx_hal_ltdc.c ****   *                   0 or 1
1283:../../Drivers/STM32F7xx_HAL_Driver/Src/stm32f7xx_hal_ltdc.c ****   * @retval  HAL status
1284:../../Drivers/STM32F7xx_HAL_Driver/Src/stm32f7xx_hal_ltdc.c ****   */
1285:../../Drivers/STM32F7xx_HAL_Driver/Src/stm32f7xx_hal_ltdc.c **** HAL_StatusTypeDef HAL_LTDC_SetWindowSize_NoReload(LTDC_HandleTypeDef *hltdc, uint32_t XSize, uint32
1286:../../Drivers/STM32F7xx_HAL_Driver/Src/stm32f7xx_hal_ltdc.c **** {
 2608              		.loc 1 1286 0
 2609              		.cfi_startproc
 2610              		@ args = 0, pretend = 0, frame = 24
 2611              		@ frame_needed = 1, uses_anonymous_args = 0
 2612 0000 80B5     		push	{r7, lr}
 2613              	.LCFI146:
 2614              		.cfi_def_cfa_offset 8
 2615              		.cfi_offset 7, -8
 2616              		.cfi_offset 14, -4
 2617 0002 86B0     		sub	sp, sp, #24
 2618              	.LCFI147:
 2619              		.cfi_def_cfa_offset 32
 2620 0004 00AF     		add	r7, sp, #0
 2621              	.LCFI148:
 2622              		.cfi_def_cfa_register 7
 2623 0006 F860     		str	r0, [r7, #12]
 2624 0008 B960     		str	r1, [r7, #8]
 2625 000a 7A60     		str	r2, [r7, #4]
 2626 000c 3B60     		str	r3, [r7]
1287:../../Drivers/STM32F7xx_HAL_Driver/Src/stm32f7xx_hal_ltdc.c ****   LTDC_LayerCfgTypeDef *pLayerCfg;
1288:../../Drivers/STM32F7xx_HAL_Driver/Src/stm32f7xx_hal_ltdc.c **** 
1289:../../Drivers/STM32F7xx_HAL_Driver/Src/stm32f7xx_hal_ltdc.c ****   /* Process locked */
1290:../../Drivers/STM32F7xx_HAL_Driver/Src/stm32f7xx_hal_ltdc.c ****   __HAL_LOCK(hltdc);
 2627              		.loc 1 1290 0
 2628 000e FB68     		ldr	r3, [r7, #12]
 2629 0010 93F8A030 		ldrb	r3, [r3, #160]	@ zero_extendqisi2
 2630 0014 012B     		cmp	r3, #1
 2631 0016 01D1     		bne	.L91
 2632              		.loc 1 1290 0 is_stmt 0 discriminator 1
 2633 0018 0223     		movs	r3, #2
 2634 001a 35E0     		b	.L92
 2635              	.L91:
ARM GAS  /tmp/cc3YVQL6.s 			page 69


 2636              		.loc 1 1290 0 discriminator 2
 2637 001c FB68     		ldr	r3, [r7, #12]
 2638 001e 0122     		movs	r2, #1
 2639 0020 83F8A020 		strb	r2, [r3, #160]
1291:../../Drivers/STM32F7xx_HAL_Driver/Src/stm32f7xx_hal_ltdc.c **** 
1292:../../Drivers/STM32F7xx_HAL_Driver/Src/stm32f7xx_hal_ltdc.c ****   /* Change LTDC peripheral state */
1293:../../Drivers/STM32F7xx_HAL_Driver/Src/stm32f7xx_hal_ltdc.c ****   hltdc->State = HAL_LTDC_STATE_BUSY; 
 2640              		.loc 1 1293 0 is_stmt 1 discriminator 2
 2641 0024 FB68     		ldr	r3, [r7, #12]
 2642 0026 0222     		movs	r2, #2
 2643 0028 83F8A120 		strb	r2, [r3, #161]
1294:../../Drivers/STM32F7xx_HAL_Driver/Src/stm32f7xx_hal_ltdc.c **** 
1295:../../Drivers/STM32F7xx_HAL_Driver/Src/stm32f7xx_hal_ltdc.c ****   /* Get layer configuration from handle structure */
1296:../../Drivers/STM32F7xx_HAL_Driver/Src/stm32f7xx_hal_ltdc.c ****   pLayerCfg = &hltdc->LayerCfg[LayerIdx];
 2644              		.loc 1 1296 0 discriminator 2
 2645 002c 3B68     		ldr	r3, [r7]
 2646 002e 3422     		movs	r2, #52
 2647 0030 02FB03F3 		mul	r3, r2, r3
 2648 0034 3833     		adds	r3, r3, #56
 2649 0036 FA68     		ldr	r2, [r7, #12]
 2650 0038 1344     		add	r3, r3, r2
 2651 003a 7B61     		str	r3, [r7, #20]
1297:../../Drivers/STM32F7xx_HAL_Driver/Src/stm32f7xx_hal_ltdc.c **** 
1298:../../Drivers/STM32F7xx_HAL_Driver/Src/stm32f7xx_hal_ltdc.c ****   /* Check the parameters (Layers parameters)*/
1299:../../Drivers/STM32F7xx_HAL_Driver/Src/stm32f7xx_hal_ltdc.c ****   assert_param(IS_LTDC_LAYER(LayerIdx));
1300:../../Drivers/STM32F7xx_HAL_Driver/Src/stm32f7xx_hal_ltdc.c ****   assert_param(IS_LTDC_HCONFIGST(pLayerCfg->WindowX0));
1301:../../Drivers/STM32F7xx_HAL_Driver/Src/stm32f7xx_hal_ltdc.c ****   assert_param(IS_LTDC_HCONFIGSP(pLayerCfg->WindowX1));
1302:../../Drivers/STM32F7xx_HAL_Driver/Src/stm32f7xx_hal_ltdc.c ****   assert_param(IS_LTDC_VCONFIGST(pLayerCfg->WindowY0));
1303:../../Drivers/STM32F7xx_HAL_Driver/Src/stm32f7xx_hal_ltdc.c ****   assert_param(IS_LTDC_VCONFIGSP(pLayerCfg->WindowY1));
1304:../../Drivers/STM32F7xx_HAL_Driver/Src/stm32f7xx_hal_ltdc.c ****   assert_param(IS_LTDC_CFBLL(XSize));
1305:../../Drivers/STM32F7xx_HAL_Driver/Src/stm32f7xx_hal_ltdc.c ****   assert_param(IS_LTDC_CFBLNBR(YSize));
1306:../../Drivers/STM32F7xx_HAL_Driver/Src/stm32f7xx_hal_ltdc.c **** 
1307:../../Drivers/STM32F7xx_HAL_Driver/Src/stm32f7xx_hal_ltdc.c ****   /* update horizontal start/stop */
1308:../../Drivers/STM32F7xx_HAL_Driver/Src/stm32f7xx_hal_ltdc.c ****   pLayerCfg->WindowX0 = 0;
 2652              		.loc 1 1308 0 discriminator 2
 2653 003c 7B69     		ldr	r3, [r7, #20]
 2654 003e 0022     		movs	r2, #0
 2655 0040 1A60     		str	r2, [r3]
1309:../../Drivers/STM32F7xx_HAL_Driver/Src/stm32f7xx_hal_ltdc.c ****   pLayerCfg->WindowX1 = XSize + pLayerCfg->WindowX0;
 2656              		.loc 1 1309 0 discriminator 2
 2657 0042 7B69     		ldr	r3, [r7, #20]
 2658 0044 1A68     		ldr	r2, [r3]
 2659 0046 BB68     		ldr	r3, [r7, #8]
 2660 0048 1A44     		add	r2, r2, r3
 2661 004a 7B69     		ldr	r3, [r7, #20]
 2662 004c 5A60     		str	r2, [r3, #4]
1310:../../Drivers/STM32F7xx_HAL_Driver/Src/stm32f7xx_hal_ltdc.c **** 
1311:../../Drivers/STM32F7xx_HAL_Driver/Src/stm32f7xx_hal_ltdc.c ****   /* update vertical start/stop */  
1312:../../Drivers/STM32F7xx_HAL_Driver/Src/stm32f7xx_hal_ltdc.c ****   pLayerCfg->WindowY0 = 0;
 2663              		.loc 1 1312 0 discriminator 2
 2664 004e 7B69     		ldr	r3, [r7, #20]
 2665 0050 0022     		movs	r2, #0
 2666 0052 9A60     		str	r2, [r3, #8]
1313:../../Drivers/STM32F7xx_HAL_Driver/Src/stm32f7xx_hal_ltdc.c ****   pLayerCfg->WindowY1 = YSize + pLayerCfg->WindowY0;
 2667              		.loc 1 1313 0 discriminator 2
 2668 0054 7B69     		ldr	r3, [r7, #20]
 2669 0056 9A68     		ldr	r2, [r3, #8]
ARM GAS  /tmp/cc3YVQL6.s 			page 70


 2670 0058 7B68     		ldr	r3, [r7, #4]
 2671 005a 1A44     		add	r2, r2, r3
 2672 005c 7B69     		ldr	r3, [r7, #20]
 2673 005e DA60     		str	r2, [r3, #12]
1314:../../Drivers/STM32F7xx_HAL_Driver/Src/stm32f7xx_hal_ltdc.c **** 
1315:../../Drivers/STM32F7xx_HAL_Driver/Src/stm32f7xx_hal_ltdc.c ****   /* Reconfigures the color frame buffer pitch in byte */
1316:../../Drivers/STM32F7xx_HAL_Driver/Src/stm32f7xx_hal_ltdc.c ****   pLayerCfg->ImageWidth = XSize;
 2674              		.loc 1 1316 0 discriminator 2
 2675 0060 7B69     		ldr	r3, [r7, #20]
 2676 0062 BA68     		ldr	r2, [r7, #8]
 2677 0064 9A62     		str	r2, [r3, #40]
1317:../../Drivers/STM32F7xx_HAL_Driver/Src/stm32f7xx_hal_ltdc.c **** 
1318:../../Drivers/STM32F7xx_HAL_Driver/Src/stm32f7xx_hal_ltdc.c ****   /* Reconfigures the frame buffer line number */
1319:../../Drivers/STM32F7xx_HAL_Driver/Src/stm32f7xx_hal_ltdc.c ****   pLayerCfg->ImageHeight = YSize;
 2678              		.loc 1 1319 0 discriminator 2
 2679 0066 7B69     		ldr	r3, [r7, #20]
 2680 0068 7A68     		ldr	r2, [r7, #4]
 2681 006a DA62     		str	r2, [r3, #44]
1320:../../Drivers/STM32F7xx_HAL_Driver/Src/stm32f7xx_hal_ltdc.c **** 
1321:../../Drivers/STM32F7xx_HAL_Driver/Src/stm32f7xx_hal_ltdc.c ****   /* Set LTDC parameters */
1322:../../Drivers/STM32F7xx_HAL_Driver/Src/stm32f7xx_hal_ltdc.c ****   LTDC_SetConfig(hltdc, pLayerCfg, LayerIdx);
 2682              		.loc 1 1322 0 discriminator 2
 2683 006c F868     		ldr	r0, [r7, #12]
 2684 006e 7969     		ldr	r1, [r7, #20]
 2685 0070 3A68     		ldr	r2, [r7]
 2686 0072 FFF7FEFF 		bl	LTDC_SetConfig
1323:../../Drivers/STM32F7xx_HAL_Driver/Src/stm32f7xx_hal_ltdc.c **** 
1324:../../Drivers/STM32F7xx_HAL_Driver/Src/stm32f7xx_hal_ltdc.c ****   /* Do not Sets the Reload  */
1325:../../Drivers/STM32F7xx_HAL_Driver/Src/stm32f7xx_hal_ltdc.c **** 
1326:../../Drivers/STM32F7xx_HAL_Driver/Src/stm32f7xx_hal_ltdc.c ****   /* Change the LTDC state*/
1327:../../Drivers/STM32F7xx_HAL_Driver/Src/stm32f7xx_hal_ltdc.c ****   hltdc->State = HAL_LTDC_STATE_READY;
 2687              		.loc 1 1327 0 discriminator 2
 2688 0076 FB68     		ldr	r3, [r7, #12]
 2689 0078 0122     		movs	r2, #1
 2690 007a 83F8A120 		strb	r2, [r3, #161]
1328:../../Drivers/STM32F7xx_HAL_Driver/Src/stm32f7xx_hal_ltdc.c **** 
1329:../../Drivers/STM32F7xx_HAL_Driver/Src/stm32f7xx_hal_ltdc.c ****   /* Process unlocked */
1330:../../Drivers/STM32F7xx_HAL_Driver/Src/stm32f7xx_hal_ltdc.c ****   __HAL_UNLOCK(hltdc);
 2691              		.loc 1 1330 0 discriminator 2
 2692 007e FB68     		ldr	r3, [r7, #12]
 2693 0080 0022     		movs	r2, #0
 2694 0082 83F8A020 		strb	r2, [r3, #160]
1331:../../Drivers/STM32F7xx_HAL_Driver/Src/stm32f7xx_hal_ltdc.c **** 
1332:../../Drivers/STM32F7xx_HAL_Driver/Src/stm32f7xx_hal_ltdc.c ****   return HAL_OK;
 2695              		.loc 1 1332 0 discriminator 2
 2696 0086 0023     		movs	r3, #0
 2697              	.L92:
1333:../../Drivers/STM32F7xx_HAL_Driver/Src/stm32f7xx_hal_ltdc.c **** }
 2698              		.loc 1 1333 0
 2699 0088 1846     		mov	r0, r3
 2700 008a 1837     		adds	r7, r7, #24
 2701              	.LCFI149:
 2702              		.cfi_def_cfa_offset 8
 2703 008c BD46     		mov	sp, r7
 2704              	.LCFI150:
 2705              		.cfi_def_cfa_register 13
 2706              		@ sp needed
ARM GAS  /tmp/cc3YVQL6.s 			page 71


 2707 008e 80BD     		pop	{r7, pc}
 2708              		.cfi_endproc
 2709              	.LFE161:
 2711              		.section	.text.HAL_LTDC_SetWindowPosition_NoReload,"ax",%progbits
 2712              		.align	2
 2713              		.global	HAL_LTDC_SetWindowPosition_NoReload
 2714              		.thumb
 2715              		.thumb_func
 2717              	HAL_LTDC_SetWindowPosition_NoReload:
 2718              	.LFB162:
1334:../../Drivers/STM32F7xx_HAL_Driver/Src/stm32f7xx_hal_ltdc.c **** 
1335:../../Drivers/STM32F7xx_HAL_Driver/Src/stm32f7xx_hal_ltdc.c **** /**
1336:../../Drivers/STM32F7xx_HAL_Driver/Src/stm32f7xx_hal_ltdc.c ****   * @brief  Set the LTDC window position without reloading.
1337:../../Drivers/STM32F7xx_HAL_Driver/Src/stm32f7xx_hal_ltdc.c ****   *         Variant of the function HAL_LTDC_SetWindowPosition without immediate reload
1338:../../Drivers/STM32F7xx_HAL_Driver/Src/stm32f7xx_hal_ltdc.c ****   * @param  hltdc:    pointer to a LTDC_HandleTypeDef structure that contains
1339:../../Drivers/STM32F7xx_HAL_Driver/Src/stm32f7xx_hal_ltdc.c ****   *                   the configuration information for the LTDC.
1340:../../Drivers/STM32F7xx_HAL_Driver/Src/stm32f7xx_hal_ltdc.c ****   * @param  X0:       LTDC window X offset
1341:../../Drivers/STM32F7xx_HAL_Driver/Src/stm32f7xx_hal_ltdc.c ****   * @param  Y0:       LTDC window Y offset
1342:../../Drivers/STM32F7xx_HAL_Driver/Src/stm32f7xx_hal_ltdc.c ****   * @param  LayerIdx:  LTDC Layer index.
1343:../../Drivers/STM32F7xx_HAL_Driver/Src/stm32f7xx_hal_ltdc.c ****   *                         This parameter can be one of the following values:
1344:../../Drivers/STM32F7xx_HAL_Driver/Src/stm32f7xx_hal_ltdc.c ****   *                         0 or 1
1345:../../Drivers/STM32F7xx_HAL_Driver/Src/stm32f7xx_hal_ltdc.c ****   * @retval  HAL status
1346:../../Drivers/STM32F7xx_HAL_Driver/Src/stm32f7xx_hal_ltdc.c ****   */
1347:../../Drivers/STM32F7xx_HAL_Driver/Src/stm32f7xx_hal_ltdc.c **** HAL_StatusTypeDef HAL_LTDC_SetWindowPosition_NoReload(LTDC_HandleTypeDef *hltdc, uint32_t X0, uint3
1348:../../Drivers/STM32F7xx_HAL_Driver/Src/stm32f7xx_hal_ltdc.c **** {
 2719              		.loc 1 1348 0
 2720              		.cfi_startproc
 2721              		@ args = 0, pretend = 0, frame = 24
 2722              		@ frame_needed = 1, uses_anonymous_args = 0
 2723 0000 80B5     		push	{r7, lr}
 2724              	.LCFI151:
 2725              		.cfi_def_cfa_offset 8
 2726              		.cfi_offset 7, -8
 2727              		.cfi_offset 14, -4
 2728 0002 86B0     		sub	sp, sp, #24
 2729              	.LCFI152:
 2730              		.cfi_def_cfa_offset 32
 2731 0004 00AF     		add	r7, sp, #0
 2732              	.LCFI153:
 2733              		.cfi_def_cfa_register 7
 2734 0006 F860     		str	r0, [r7, #12]
 2735 0008 B960     		str	r1, [r7, #8]
 2736 000a 7A60     		str	r2, [r7, #4]
 2737 000c 3B60     		str	r3, [r7]
1349:../../Drivers/STM32F7xx_HAL_Driver/Src/stm32f7xx_hal_ltdc.c ****   LTDC_LayerCfgTypeDef *pLayerCfg;
1350:../../Drivers/STM32F7xx_HAL_Driver/Src/stm32f7xx_hal_ltdc.c ****   
1351:../../Drivers/STM32F7xx_HAL_Driver/Src/stm32f7xx_hal_ltdc.c ****   /* Process locked */
1352:../../Drivers/STM32F7xx_HAL_Driver/Src/stm32f7xx_hal_ltdc.c ****   __HAL_LOCK(hltdc);
 2738              		.loc 1 1352 0
 2739 000e FB68     		ldr	r3, [r7, #12]
 2740 0010 93F8A030 		ldrb	r3, [r3, #160]	@ zero_extendqisi2
 2741 0014 012B     		cmp	r3, #1
 2742 0016 01D1     		bne	.L94
 2743              		.loc 1 1352 0 is_stmt 0 discriminator 1
 2744 0018 0223     		movs	r3, #2
 2745 001a 2FE0     		b	.L95
 2746              	.L94:
ARM GAS  /tmp/cc3YVQL6.s 			page 72


 2747              		.loc 1 1352 0 discriminator 2
 2748 001c FB68     		ldr	r3, [r7, #12]
 2749 001e 0122     		movs	r2, #1
 2750 0020 83F8A020 		strb	r2, [r3, #160]
1353:../../Drivers/STM32F7xx_HAL_Driver/Src/stm32f7xx_hal_ltdc.c **** 
1354:../../Drivers/STM32F7xx_HAL_Driver/Src/stm32f7xx_hal_ltdc.c ****   /* Change LTDC peripheral state */
1355:../../Drivers/STM32F7xx_HAL_Driver/Src/stm32f7xx_hal_ltdc.c ****   hltdc->State = HAL_LTDC_STATE_BUSY;
 2751              		.loc 1 1355 0 is_stmt 1 discriminator 2
 2752 0024 FB68     		ldr	r3, [r7, #12]
 2753 0026 0222     		movs	r2, #2
 2754 0028 83F8A120 		strb	r2, [r3, #161]
1356:../../Drivers/STM32F7xx_HAL_Driver/Src/stm32f7xx_hal_ltdc.c **** 
1357:../../Drivers/STM32F7xx_HAL_Driver/Src/stm32f7xx_hal_ltdc.c ****   /* Get layer configuration from handle structure */
1358:../../Drivers/STM32F7xx_HAL_Driver/Src/stm32f7xx_hal_ltdc.c ****   pLayerCfg = &hltdc->LayerCfg[LayerIdx];
 2755              		.loc 1 1358 0 discriminator 2
 2756 002c 3B68     		ldr	r3, [r7]
 2757 002e 3422     		movs	r2, #52
 2758 0030 02FB03F3 		mul	r3, r2, r3
 2759 0034 3833     		adds	r3, r3, #56
 2760 0036 FA68     		ldr	r2, [r7, #12]
 2761 0038 1344     		add	r3, r3, r2
 2762 003a 7B61     		str	r3, [r7, #20]
1359:../../Drivers/STM32F7xx_HAL_Driver/Src/stm32f7xx_hal_ltdc.c **** 
1360:../../Drivers/STM32F7xx_HAL_Driver/Src/stm32f7xx_hal_ltdc.c ****   /* Check the parameters */
1361:../../Drivers/STM32F7xx_HAL_Driver/Src/stm32f7xx_hal_ltdc.c ****   assert_param(IS_LTDC_LAYER(LayerIdx));
1362:../../Drivers/STM32F7xx_HAL_Driver/Src/stm32f7xx_hal_ltdc.c ****   assert_param(IS_LTDC_HCONFIGST(pLayerCfg->WindowX0));
1363:../../Drivers/STM32F7xx_HAL_Driver/Src/stm32f7xx_hal_ltdc.c ****   assert_param(IS_LTDC_HCONFIGSP(pLayerCfg->WindowX1));
1364:../../Drivers/STM32F7xx_HAL_Driver/Src/stm32f7xx_hal_ltdc.c ****   assert_param(IS_LTDC_VCONFIGST(pLayerCfg->WindowY0));
1365:../../Drivers/STM32F7xx_HAL_Driver/Src/stm32f7xx_hal_ltdc.c ****   assert_param(IS_LTDC_VCONFIGSP(pLayerCfg->WindowY1));
1366:../../Drivers/STM32F7xx_HAL_Driver/Src/stm32f7xx_hal_ltdc.c **** 
1367:../../Drivers/STM32F7xx_HAL_Driver/Src/stm32f7xx_hal_ltdc.c ****   /* update horizontal start/stop */
1368:../../Drivers/STM32F7xx_HAL_Driver/Src/stm32f7xx_hal_ltdc.c ****   pLayerCfg->WindowX0 = X0;
 2763              		.loc 1 1368 0 discriminator 2
 2764 003c 7B69     		ldr	r3, [r7, #20]
 2765 003e BA68     		ldr	r2, [r7, #8]
 2766 0040 1A60     		str	r2, [r3]
1369:../../Drivers/STM32F7xx_HAL_Driver/Src/stm32f7xx_hal_ltdc.c ****   pLayerCfg->WindowX1 = X0 + pLayerCfg->ImageWidth;
 2767              		.loc 1 1369 0 discriminator 2
 2768 0042 7B69     		ldr	r3, [r7, #20]
 2769 0044 9A6A     		ldr	r2, [r3, #40]
 2770 0046 BB68     		ldr	r3, [r7, #8]
 2771 0048 1A44     		add	r2, r2, r3
 2772 004a 7B69     		ldr	r3, [r7, #20]
 2773 004c 5A60     		str	r2, [r3, #4]
1370:../../Drivers/STM32F7xx_HAL_Driver/Src/stm32f7xx_hal_ltdc.c **** 
1371:../../Drivers/STM32F7xx_HAL_Driver/Src/stm32f7xx_hal_ltdc.c ****   /* update vertical start/stop */
1372:../../Drivers/STM32F7xx_HAL_Driver/Src/stm32f7xx_hal_ltdc.c ****   pLayerCfg->WindowY0 = Y0;
 2774              		.loc 1 1372 0 discriminator 2
 2775 004e 7B69     		ldr	r3, [r7, #20]
 2776 0050 7A68     		ldr	r2, [r7, #4]
 2777 0052 9A60     		str	r2, [r3, #8]
1373:../../Drivers/STM32F7xx_HAL_Driver/Src/stm32f7xx_hal_ltdc.c ****   pLayerCfg->WindowY1 = Y0 + pLayerCfg->ImageHeight;
 2778              		.loc 1 1373 0 discriminator 2
 2779 0054 7B69     		ldr	r3, [r7, #20]
 2780 0056 DA6A     		ldr	r2, [r3, #44]
 2781 0058 7B68     		ldr	r3, [r7, #4]
 2782 005a 1A44     		add	r2, r2, r3
ARM GAS  /tmp/cc3YVQL6.s 			page 73


 2783 005c 7B69     		ldr	r3, [r7, #20]
 2784 005e DA60     		str	r2, [r3, #12]
1374:../../Drivers/STM32F7xx_HAL_Driver/Src/stm32f7xx_hal_ltdc.c **** 
1375:../../Drivers/STM32F7xx_HAL_Driver/Src/stm32f7xx_hal_ltdc.c ****   /* Set LTDC parameters */
1376:../../Drivers/STM32F7xx_HAL_Driver/Src/stm32f7xx_hal_ltdc.c ****   LTDC_SetConfig(hltdc, pLayerCfg, LayerIdx);
 2785              		.loc 1 1376 0 discriminator 2
 2786 0060 F868     		ldr	r0, [r7, #12]
 2787 0062 7969     		ldr	r1, [r7, #20]
 2788 0064 3A68     		ldr	r2, [r7]
 2789 0066 FFF7FEFF 		bl	LTDC_SetConfig
1377:../../Drivers/STM32F7xx_HAL_Driver/Src/stm32f7xx_hal_ltdc.c **** 
