ARM GAS  /tmp/ccYGdVxC.s 			page 1


   1              		.syntax unified
   2              		.cpu cortex-m7
   3              		.eabi_attribute 27, 1
   4              		.eabi_attribute 28, 1
   5              		.fpu fpv5-sp-d16
   6              		.eabi_attribute 20, 1
   7              		.eabi_attribute 21, 1
   8              		.eabi_attribute 23, 3
   9              		.eabi_attribute 24, 1
  10              		.eabi_attribute 25, 1
  11              		.eabi_attribute 26, 1
  12              		.eabi_attribute 30, 6
  13              		.eabi_attribute 34, 1
  14              		.eabi_attribute 18, 4
  15              		.thumb
  16              		.file	"stm32f7xx_hal_rng.c"
  17              		.text
  18              	.Ltext0:
  19              		.cfi_sections	.debug_frame
  20              		.section	.text.HAL_RNG_Init,"ax",%progbits
  21              		.align	2
  22              		.global	HAL_RNG_Init
  23              		.thumb
  24              		.thumb_func
  26              	HAL_RNG_Init:
  27              	.LFB135:
  28              		.file 1 "../../Drivers/STM32F7xx_HAL_Driver/Src/stm32f7xx_hal_rng.c"
   1:../../Drivers/STM32F7xx_HAL_Driver/Src/stm32f7xx_hal_rng.c **** /**
   2:../../Drivers/STM32F7xx_HAL_Driver/Src/stm32f7xx_hal_rng.c ****   ******************************************************************************
   3:../../Drivers/STM32F7xx_HAL_Driver/Src/stm32f7xx_hal_rng.c ****   * @file    stm32f7xx_hal_rng.c
   4:../../Drivers/STM32F7xx_HAL_Driver/Src/stm32f7xx_hal_rng.c ****   * @author  MCD Application Team
   5:../../Drivers/STM32F7xx_HAL_Driver/Src/stm32f7xx_hal_rng.c ****   * @version V1.1.2
   6:../../Drivers/STM32F7xx_HAL_Driver/Src/stm32f7xx_hal_rng.c ****   * @date    23-September-2016 
   7:../../Drivers/STM32F7xx_HAL_Driver/Src/stm32f7xx_hal_rng.c ****   * @brief   RNG HAL module driver.
   8:../../Drivers/STM32F7xx_HAL_Driver/Src/stm32f7xx_hal_rng.c ****   *          This file provides firmware functions to manage the following 
   9:../../Drivers/STM32F7xx_HAL_Driver/Src/stm32f7xx_hal_rng.c ****   *          functionalities of the Random Number Generator (RNG) peripheral:
  10:../../Drivers/STM32F7xx_HAL_Driver/Src/stm32f7xx_hal_rng.c ****   *           + Initialization/de-initialization functions
  11:../../Drivers/STM32F7xx_HAL_Driver/Src/stm32f7xx_hal_rng.c ****   *           + Peripheral Control functions 
  12:../../Drivers/STM32F7xx_HAL_Driver/Src/stm32f7xx_hal_rng.c ****   *           + Peripheral State functions
  13:../../Drivers/STM32F7xx_HAL_Driver/Src/stm32f7xx_hal_rng.c ****   *         
  14:../../Drivers/STM32F7xx_HAL_Driver/Src/stm32f7xx_hal_rng.c ****   @verbatim
  15:../../Drivers/STM32F7xx_HAL_Driver/Src/stm32f7xx_hal_rng.c ****   ==============================================================================
  16:../../Drivers/STM32F7xx_HAL_Driver/Src/stm32f7xx_hal_rng.c ****                      ##### How to use this driver #####
  17:../../Drivers/STM32F7xx_HAL_Driver/Src/stm32f7xx_hal_rng.c ****   ==============================================================================
  18:../../Drivers/STM32F7xx_HAL_Driver/Src/stm32f7xx_hal_rng.c ****   [..]
  19:../../Drivers/STM32F7xx_HAL_Driver/Src/stm32f7xx_hal_rng.c ****       The RNG HAL driver can be used as follows:
  20:../../Drivers/STM32F7xx_HAL_Driver/Src/stm32f7xx_hal_rng.c **** 
  21:../../Drivers/STM32F7xx_HAL_Driver/Src/stm32f7xx_hal_rng.c ****       (#) Enable the RNG controller clock using __HAL_RCC_RNG_CLK_ENABLE() macro 
  22:../../Drivers/STM32F7xx_HAL_Driver/Src/stm32f7xx_hal_rng.c ****           in HAL_RNG_MspInit().
  23:../../Drivers/STM32F7xx_HAL_Driver/Src/stm32f7xx_hal_rng.c ****       (#) Activate the RNG peripheral using HAL_RNG_Init() function.
  24:../../Drivers/STM32F7xx_HAL_Driver/Src/stm32f7xx_hal_rng.c ****       (#) Wait until the 32 bit Random Number Generator contains a valid 
  25:../../Drivers/STM32F7xx_HAL_Driver/Src/stm32f7xx_hal_rng.c ****           random data using (polling/interrupt) mode.   
  26:../../Drivers/STM32F7xx_HAL_Driver/Src/stm32f7xx_hal_rng.c ****       (#) Get the 32 bit random number using HAL_RNG_GenerateRandomNumber() function.
  27:../../Drivers/STM32F7xx_HAL_Driver/Src/stm32f7xx_hal_rng.c ****   
  28:../../Drivers/STM32F7xx_HAL_Driver/Src/stm32f7xx_hal_rng.c ****   @endverbatim
  29:../../Drivers/STM32F7xx_HAL_Driver/Src/stm32f7xx_hal_rng.c ****   ******************************************************************************
  30:../../Drivers/STM32F7xx_HAL_Driver/Src/stm32f7xx_hal_rng.c ****   * @attention
ARM GAS  /tmp/ccYGdVxC.s 			page 2


  31:../../Drivers/STM32F7xx_HAL_Driver/Src/stm32f7xx_hal_rng.c ****   *
  32:../../Drivers/STM32F7xx_HAL_Driver/Src/stm32f7xx_hal_rng.c ****   * <h2><center>&copy; COPYRIGHT(c) 2016 STMicroelectronics</center></h2>
  33:../../Drivers/STM32F7xx_HAL_Driver/Src/stm32f7xx_hal_rng.c ****   *
  34:../../Drivers/STM32F7xx_HAL_Driver/Src/stm32f7xx_hal_rng.c ****   * Redistribution and use in source and binary forms, with or without modification,
  35:../../Drivers/STM32F7xx_HAL_Driver/Src/stm32f7xx_hal_rng.c ****   * are permitted provided that the following conditions are met:
  36:../../Drivers/STM32F7xx_HAL_Driver/Src/stm32f7xx_hal_rng.c ****   *   1. Redistributions of source code must retain the above copyright notice,
  37:../../Drivers/STM32F7xx_HAL_Driver/Src/stm32f7xx_hal_rng.c ****   *      this list of conditions and the following disclaimer.
  38:../../Drivers/STM32F7xx_HAL_Driver/Src/stm32f7xx_hal_rng.c ****   *   2. Redistributions in binary form must reproduce the above copyright notice,
  39:../../Drivers/STM32F7xx_HAL_Driver/Src/stm32f7xx_hal_rng.c ****   *      this list of conditions and the following disclaimer in the documentation
  40:../../Drivers/STM32F7xx_HAL_Driver/Src/stm32f7xx_hal_rng.c ****   *      and/or other materials provided with the distribution.
  41:../../Drivers/STM32F7xx_HAL_Driver/Src/stm32f7xx_hal_rng.c ****   *   3. Neither the name of STMicroelectronics nor the names of its contributors
  42:../../Drivers/STM32F7xx_HAL_Driver/Src/stm32f7xx_hal_rng.c ****   *      may be used to endorse or promote products derived from this software
  43:../../Drivers/STM32F7xx_HAL_Driver/Src/stm32f7xx_hal_rng.c ****   *      without specific prior written permission.
  44:../../Drivers/STM32F7xx_HAL_Driver/Src/stm32f7xx_hal_rng.c ****   *
  45:../../Drivers/STM32F7xx_HAL_Driver/Src/stm32f7xx_hal_rng.c ****   * THIS SOFTWARE IS PROVIDED BY THE COPYRIGHT HOLDERS AND CONTRIBUTORS "AS IS"
  46:../../Drivers/STM32F7xx_HAL_Driver/Src/stm32f7xx_hal_rng.c ****   * AND ANY EXPRESS OR IMPLIED WARRANTIES, INCLUDING, BUT NOT LIMITED TO, THE
  47:../../Drivers/STM32F7xx_HAL_Driver/Src/stm32f7xx_hal_rng.c ****   * IMPLIED WARRANTIES OF MERCHANTABILITY AND FITNESS FOR A PARTICULAR PURPOSE ARE
  48:../../Drivers/STM32F7xx_HAL_Driver/Src/stm32f7xx_hal_rng.c ****   * DISCLAIMED. IN NO EVENT SHALL THE COPYRIGHT HOLDER OR CONTRIBUTORS BE LIABLE
  49:../../Drivers/STM32F7xx_HAL_Driver/Src/stm32f7xx_hal_rng.c ****   * FOR ANY DIRECT, INDIRECT, INCIDENTAL, SPECIAL, EXEMPLARY, OR CONSEQUENTIAL
  50:../../Drivers/STM32F7xx_HAL_Driver/Src/stm32f7xx_hal_rng.c ****   * DAMAGES (INCLUDING, BUT NOT LIMITED TO, PROCUREMENT OF SUBSTITUTE GOODS OR
  51:../../Drivers/STM32F7xx_HAL_Driver/Src/stm32f7xx_hal_rng.c ****   * SERVICES; LOSS OF USE, DATA, OR PROFITS; OR BUSINESS INTERRUPTION) HOWEVER
  52:../../Drivers/STM32F7xx_HAL_Driver/Src/stm32f7xx_hal_rng.c ****   * CAUSED AND ON ANY THEORY OF LIABILITY, WHETHER IN CONTRACT, STRICT LIABILITY,
  53:../../Drivers/STM32F7xx_HAL_Driver/Src/stm32f7xx_hal_rng.c ****   * OR TORT (INCLUDING NEGLIGENCE OR OTHERWISE) ARISING IN ANY WAY OUT OF THE USE
  54:../../Drivers/STM32F7xx_HAL_Driver/Src/stm32f7xx_hal_rng.c ****   * OF THIS SOFTWARE, EVEN IF ADVISED OF THE POSSIBILITY OF SUCH DAMAGE.
  55:../../Drivers/STM32F7xx_HAL_Driver/Src/stm32f7xx_hal_rng.c ****   *
  56:../../Drivers/STM32F7xx_HAL_Driver/Src/stm32f7xx_hal_rng.c ****   ******************************************************************************
  57:../../Drivers/STM32F7xx_HAL_Driver/Src/stm32f7xx_hal_rng.c ****   */ 
  58:../../Drivers/STM32F7xx_HAL_Driver/Src/stm32f7xx_hal_rng.c **** 
  59:../../Drivers/STM32F7xx_HAL_Driver/Src/stm32f7xx_hal_rng.c **** /* Includes ------------------------------------------------------------------*/
  60:../../Drivers/STM32F7xx_HAL_Driver/Src/stm32f7xx_hal_rng.c **** #include "stm32f7xx_hal.h"
  61:../../Drivers/STM32F7xx_HAL_Driver/Src/stm32f7xx_hal_rng.c **** 
  62:../../Drivers/STM32F7xx_HAL_Driver/Src/stm32f7xx_hal_rng.c **** /** @addtogroup STM32F7xx_HAL_Driver
  63:../../Drivers/STM32F7xx_HAL_Driver/Src/stm32f7xx_hal_rng.c ****   * @{
  64:../../Drivers/STM32F7xx_HAL_Driver/Src/stm32f7xx_hal_rng.c ****   */
  65:../../Drivers/STM32F7xx_HAL_Driver/Src/stm32f7xx_hal_rng.c **** 
  66:../../Drivers/STM32F7xx_HAL_Driver/Src/stm32f7xx_hal_rng.c **** /** @addtogroup RNG 
  67:../../Drivers/STM32F7xx_HAL_Driver/Src/stm32f7xx_hal_rng.c ****   * @{
  68:../../Drivers/STM32F7xx_HAL_Driver/Src/stm32f7xx_hal_rng.c ****   */
  69:../../Drivers/STM32F7xx_HAL_Driver/Src/stm32f7xx_hal_rng.c **** 
  70:../../Drivers/STM32F7xx_HAL_Driver/Src/stm32f7xx_hal_rng.c **** #ifdef HAL_RNG_MODULE_ENABLED
  71:../../Drivers/STM32F7xx_HAL_Driver/Src/stm32f7xx_hal_rng.c **** 
  72:../../Drivers/STM32F7xx_HAL_Driver/Src/stm32f7xx_hal_rng.c **** /* Private types -------------------------------------------------------------*/
  73:../../Drivers/STM32F7xx_HAL_Driver/Src/stm32f7xx_hal_rng.c **** /* Private defines -----------------------------------------------------------*/
  74:../../Drivers/STM32F7xx_HAL_Driver/Src/stm32f7xx_hal_rng.c **** /* Private variables ---------------------------------------------------------*/
  75:../../Drivers/STM32F7xx_HAL_Driver/Src/stm32f7xx_hal_rng.c **** /* Private constants ---------------------------------------------------------*/
  76:../../Drivers/STM32F7xx_HAL_Driver/Src/stm32f7xx_hal_rng.c **** /** @addtogroup RNG_Private_Constants
  77:../../Drivers/STM32F7xx_HAL_Driver/Src/stm32f7xx_hal_rng.c ****   * @{
  78:../../Drivers/STM32F7xx_HAL_Driver/Src/stm32f7xx_hal_rng.c ****   */
  79:../../Drivers/STM32F7xx_HAL_Driver/Src/stm32f7xx_hal_rng.c **** #define RNG_TIMEOUT_VALUE     2
  80:../../Drivers/STM32F7xx_HAL_Driver/Src/stm32f7xx_hal_rng.c **** /**
  81:../../Drivers/STM32F7xx_HAL_Driver/Src/stm32f7xx_hal_rng.c ****   * @}
  82:../../Drivers/STM32F7xx_HAL_Driver/Src/stm32f7xx_hal_rng.c ****   */ 
  83:../../Drivers/STM32F7xx_HAL_Driver/Src/stm32f7xx_hal_rng.c **** /* Private macros ------------------------------------------------------------*/
  84:../../Drivers/STM32F7xx_HAL_Driver/Src/stm32f7xx_hal_rng.c **** /* Private functions prototypes ----------------------------------------------*/
  85:../../Drivers/STM32F7xx_HAL_Driver/Src/stm32f7xx_hal_rng.c **** /* Private functions ---------------------------------------------------------*/
  86:../../Drivers/STM32F7xx_HAL_Driver/Src/stm32f7xx_hal_rng.c **** /* Exported functions --------------------------------------------------------*/
  87:../../Drivers/STM32F7xx_HAL_Driver/Src/stm32f7xx_hal_rng.c **** 
ARM GAS  /tmp/ccYGdVxC.s 			page 3


  88:../../Drivers/STM32F7xx_HAL_Driver/Src/stm32f7xx_hal_rng.c **** /** @addtogroup RNG_Exported_Functions
  89:../../Drivers/STM32F7xx_HAL_Driver/Src/stm32f7xx_hal_rng.c ****   * @{
  90:../../Drivers/STM32F7xx_HAL_Driver/Src/stm32f7xx_hal_rng.c ****   */
  91:../../Drivers/STM32F7xx_HAL_Driver/Src/stm32f7xx_hal_rng.c **** 
  92:../../Drivers/STM32F7xx_HAL_Driver/Src/stm32f7xx_hal_rng.c **** /** @addtogroup RNG_Exported_Functions_Group1
  93:../../Drivers/STM32F7xx_HAL_Driver/Src/stm32f7xx_hal_rng.c ****  *  @brief   Initialization and de-initialization functions
  94:../../Drivers/STM32F7xx_HAL_Driver/Src/stm32f7xx_hal_rng.c ****  *
  95:../../Drivers/STM32F7xx_HAL_Driver/Src/stm32f7xx_hal_rng.c **** @verbatim
  96:../../Drivers/STM32F7xx_HAL_Driver/Src/stm32f7xx_hal_rng.c ****  ===============================================================================
  97:../../Drivers/STM32F7xx_HAL_Driver/Src/stm32f7xx_hal_rng.c ****           ##### Initialization and de-initialization functions #####
  98:../../Drivers/STM32F7xx_HAL_Driver/Src/stm32f7xx_hal_rng.c ****  ===============================================================================
  99:../../Drivers/STM32F7xx_HAL_Driver/Src/stm32f7xx_hal_rng.c ****     [..]  This section provides functions allowing to:
 100:../../Drivers/STM32F7xx_HAL_Driver/Src/stm32f7xx_hal_rng.c ****       (+) Initialize the RNG according to the specified parameters 
 101:../../Drivers/STM32F7xx_HAL_Driver/Src/stm32f7xx_hal_rng.c ****           in the RNG_InitTypeDef and create the associated handle
 102:../../Drivers/STM32F7xx_HAL_Driver/Src/stm32f7xx_hal_rng.c ****       (+) DeInitialize the RNG peripheral
 103:../../Drivers/STM32F7xx_HAL_Driver/Src/stm32f7xx_hal_rng.c ****       (+) Initialize the RNG MSP
 104:../../Drivers/STM32F7xx_HAL_Driver/Src/stm32f7xx_hal_rng.c ****       (+) DeInitialize RNG MSP 
 105:../../Drivers/STM32F7xx_HAL_Driver/Src/stm32f7xx_hal_rng.c **** 
 106:../../Drivers/STM32F7xx_HAL_Driver/Src/stm32f7xx_hal_rng.c **** @endverbatim
 107:../../Drivers/STM32F7xx_HAL_Driver/Src/stm32f7xx_hal_rng.c ****   * @{
 108:../../Drivers/STM32F7xx_HAL_Driver/Src/stm32f7xx_hal_rng.c ****   */
 109:../../Drivers/STM32F7xx_HAL_Driver/Src/stm32f7xx_hal_rng.c ****   
 110:../../Drivers/STM32F7xx_HAL_Driver/Src/stm32f7xx_hal_rng.c **** /**
 111:../../Drivers/STM32F7xx_HAL_Driver/Src/stm32f7xx_hal_rng.c ****   * @brief  Initializes the RNG peripheral and creates the associated handle.
 112:../../Drivers/STM32F7xx_HAL_Driver/Src/stm32f7xx_hal_rng.c ****   * @param  hrng: pointer to a RNG_HandleTypeDef structure that contains
 113:../../Drivers/STM32F7xx_HAL_Driver/Src/stm32f7xx_hal_rng.c ****   *                the configuration information for RNG.
 114:../../Drivers/STM32F7xx_HAL_Driver/Src/stm32f7xx_hal_rng.c ****   * @retval HAL status
 115:../../Drivers/STM32F7xx_HAL_Driver/Src/stm32f7xx_hal_rng.c ****   */
 116:../../Drivers/STM32F7xx_HAL_Driver/Src/stm32f7xx_hal_rng.c **** HAL_StatusTypeDef HAL_RNG_Init(RNG_HandleTypeDef *hrng)
 117:../../Drivers/STM32F7xx_HAL_Driver/Src/stm32f7xx_hal_rng.c **** { 
  29              		.loc 1 117 0
  30              		.cfi_startproc
  31              		@ args = 0, pretend = 0, frame = 8
  32              		@ frame_needed = 1, uses_anonymous_args = 0
  33 0000 80B5     		push	{r7, lr}
  34              	.LCFI0:
  35              		.cfi_def_cfa_offset 8
  36              		.cfi_offset 7, -8
  37              		.cfi_offset 14, -4
  38 0002 82B0     		sub	sp, sp, #8
  39              	.LCFI1:
  40              		.cfi_def_cfa_offset 16
  41 0004 00AF     		add	r7, sp, #0
  42              	.LCFI2:
  43              		.cfi_def_cfa_register 7
  44 0006 7860     		str	r0, [r7, #4]
 118:../../Drivers/STM32F7xx_HAL_Driver/Src/stm32f7xx_hal_rng.c ****   /* Check the RNG handle allocation */
 119:../../Drivers/STM32F7xx_HAL_Driver/Src/stm32f7xx_hal_rng.c ****   if(hrng == NULL)
  45              		.loc 1 119 0
  46 0008 7B68     		ldr	r3, [r7, #4]
  47 000a 002B     		cmp	r3, #0
  48 000c 01D1     		bne	.L2
 120:../../Drivers/STM32F7xx_HAL_Driver/Src/stm32f7xx_hal_rng.c ****   {
 121:../../Drivers/STM32F7xx_HAL_Driver/Src/stm32f7xx_hal_rng.c ****     return HAL_ERROR;
  49              		.loc 1 121 0
  50 000e 0123     		movs	r3, #1
  51 0010 25E0     		b	.L3
ARM GAS  /tmp/ccYGdVxC.s 			page 4


  52              	.L2:
 122:../../Drivers/STM32F7xx_HAL_Driver/Src/stm32f7xx_hal_rng.c ****   }
 123:../../Drivers/STM32F7xx_HAL_Driver/Src/stm32f7xx_hal_rng.c ****   
 124:../../Drivers/STM32F7xx_HAL_Driver/Src/stm32f7xx_hal_rng.c ****   __HAL_LOCK(hrng);
  53              		.loc 1 124 0
  54 0012 7B68     		ldr	r3, [r7, #4]
  55 0014 1B7A     		ldrb	r3, [r3, #8]	@ zero_extendqisi2
  56 0016 012B     		cmp	r3, #1
  57 0018 01D1     		bne	.L4
  58              		.loc 1 124 0 is_stmt 0 discriminator 1
  59 001a 0223     		movs	r3, #2
  60 001c 1FE0     		b	.L3
  61              	.L4:
  62              		.loc 1 124 0 discriminator 2
  63 001e 7B68     		ldr	r3, [r7, #4]
  64 0020 0122     		movs	r2, #1
  65 0022 1A72     		strb	r2, [r3, #8]
 125:../../Drivers/STM32F7xx_HAL_Driver/Src/stm32f7xx_hal_rng.c ****   
 126:../../Drivers/STM32F7xx_HAL_Driver/Src/stm32f7xx_hal_rng.c ****   if(hrng->State == HAL_RNG_STATE_RESET)
  66              		.loc 1 126 0 is_stmt 1 discriminator 2
  67 0024 7B68     		ldr	r3, [r7, #4]
  68 0026 5B7A     		ldrb	r3, [r3, #9]
  69 0028 DBB2     		uxtb	r3, r3
  70 002a 002B     		cmp	r3, #0
  71 002c 05D1     		bne	.L5
 127:../../Drivers/STM32F7xx_HAL_Driver/Src/stm32f7xx_hal_rng.c ****   {  
 128:../../Drivers/STM32F7xx_HAL_Driver/Src/stm32f7xx_hal_rng.c ****     /* Allocate lock resource and initialize it */
 129:../../Drivers/STM32F7xx_HAL_Driver/Src/stm32f7xx_hal_rng.c ****     hrng->Lock = HAL_UNLOCKED;
  72              		.loc 1 129 0
  73 002e 7B68     		ldr	r3, [r7, #4]
  74 0030 0022     		movs	r2, #0
  75 0032 1A72     		strb	r2, [r3, #8]
 130:../../Drivers/STM32F7xx_HAL_Driver/Src/stm32f7xx_hal_rng.c **** 
 131:../../Drivers/STM32F7xx_HAL_Driver/Src/stm32f7xx_hal_rng.c ****     /* Init the low level hardware */
 132:../../Drivers/STM32F7xx_HAL_Driver/Src/stm32f7xx_hal_rng.c ****     HAL_RNG_MspInit(hrng);
  76              		.loc 1 132 0
  77 0034 7868     		ldr	r0, [r7, #4]
  78 0036 FFF7FEFF 		bl	HAL_RNG_MspInit
  79              	.L5:
 133:../../Drivers/STM32F7xx_HAL_Driver/Src/stm32f7xx_hal_rng.c ****   }
 134:../../Drivers/STM32F7xx_HAL_Driver/Src/stm32f7xx_hal_rng.c ****   
 135:../../Drivers/STM32F7xx_HAL_Driver/Src/stm32f7xx_hal_rng.c ****   /* Change RNG peripheral state */
 136:../../Drivers/STM32F7xx_HAL_Driver/Src/stm32f7xx_hal_rng.c ****   hrng->State = HAL_RNG_STATE_BUSY;
  80              		.loc 1 136 0
  81 003a 7B68     		ldr	r3, [r7, #4]
  82 003c 0222     		movs	r2, #2
  83 003e 5A72     		strb	r2, [r3, #9]
 137:../../Drivers/STM32F7xx_HAL_Driver/Src/stm32f7xx_hal_rng.c **** 
 138:../../Drivers/STM32F7xx_HAL_Driver/Src/stm32f7xx_hal_rng.c ****   /* Enable the RNG Peripheral */
 139:../../Drivers/STM32F7xx_HAL_Driver/Src/stm32f7xx_hal_rng.c ****   __HAL_RNG_ENABLE(hrng);
  84              		.loc 1 139 0
  85 0040 7B68     		ldr	r3, [r7, #4]
  86 0042 1B68     		ldr	r3, [r3]
  87 0044 7A68     		ldr	r2, [r7, #4]
  88 0046 1268     		ldr	r2, [r2]
  89 0048 1268     		ldr	r2, [r2]
  90 004a 42F00402 		orr	r2, r2, #4
ARM GAS  /tmp/ccYGdVxC.s 			page 5


  91 004e 1A60     		str	r2, [r3]
 140:../../Drivers/STM32F7xx_HAL_Driver/Src/stm32f7xx_hal_rng.c **** 
 141:../../Drivers/STM32F7xx_HAL_Driver/Src/stm32f7xx_hal_rng.c ****   /* Initialize the RNG state */
 142:../../Drivers/STM32F7xx_HAL_Driver/Src/stm32f7xx_hal_rng.c ****   hrng->State = HAL_RNG_STATE_READY;
  92              		.loc 1 142 0
  93 0050 7B68     		ldr	r3, [r7, #4]
  94 0052 0122     		movs	r2, #1
  95 0054 5A72     		strb	r2, [r3, #9]
 143:../../Drivers/STM32F7xx_HAL_Driver/Src/stm32f7xx_hal_rng.c ****   
 144:../../Drivers/STM32F7xx_HAL_Driver/Src/stm32f7xx_hal_rng.c ****   __HAL_UNLOCK(hrng);
  96              		.loc 1 144 0
  97 0056 7B68     		ldr	r3, [r7, #4]
  98 0058 0022     		movs	r2, #0
  99 005a 1A72     		strb	r2, [r3, #8]
 145:../../Drivers/STM32F7xx_HAL_Driver/Src/stm32f7xx_hal_rng.c ****   
 146:../../Drivers/STM32F7xx_HAL_Driver/Src/stm32f7xx_hal_rng.c ****   /* Return function status */
 147:../../Drivers/STM32F7xx_HAL_Driver/Src/stm32f7xx_hal_rng.c ****   return HAL_OK;
 100              		.loc 1 147 0
 101 005c 0023     		movs	r3, #0
 102              	.L3:
 148:../../Drivers/STM32F7xx_HAL_Driver/Src/stm32f7xx_hal_rng.c **** }
 103              		.loc 1 148 0
 104 005e 1846     		mov	r0, r3
 105 0060 0837     		adds	r7, r7, #8
 106              	.LCFI3:
 107              		.cfi_def_cfa_offset 8
 108 0062 BD46     		mov	sp, r7
 109              	.LCFI4:
 110              		.cfi_def_cfa_register 13
 111              		@ sp needed
 112 0064 80BD     		pop	{r7, pc}
 113              		.cfi_endproc
 114              	.LFE135:
 116 0066 00BF     		.section	.text.HAL_RNG_DeInit,"ax",%progbits
 117              		.align	2
 118              		.global	HAL_RNG_DeInit
 119              		.thumb
 120              		.thumb_func
 122              	HAL_RNG_DeInit:
 123              	.LFB136:
 149:../../Drivers/STM32F7xx_HAL_Driver/Src/stm32f7xx_hal_rng.c **** 
 150:../../Drivers/STM32F7xx_HAL_Driver/Src/stm32f7xx_hal_rng.c **** /**
 151:../../Drivers/STM32F7xx_HAL_Driver/Src/stm32f7xx_hal_rng.c ****   * @brief  DeInitializes the RNG peripheral. 
 152:../../Drivers/STM32F7xx_HAL_Driver/Src/stm32f7xx_hal_rng.c ****   * @param  hrng: pointer to a RNG_HandleTypeDef structure that contains
 153:../../Drivers/STM32F7xx_HAL_Driver/Src/stm32f7xx_hal_rng.c ****   *                the configuration information for RNG.
 154:../../Drivers/STM32F7xx_HAL_Driver/Src/stm32f7xx_hal_rng.c ****   * @retval HAL status
 155:../../Drivers/STM32F7xx_HAL_Driver/Src/stm32f7xx_hal_rng.c ****   */
 156:../../Drivers/STM32F7xx_HAL_Driver/Src/stm32f7xx_hal_rng.c **** HAL_StatusTypeDef HAL_RNG_DeInit(RNG_HandleTypeDef *hrng)
 157:../../Drivers/STM32F7xx_HAL_Driver/Src/stm32f7xx_hal_rng.c **** { 
 124              		.loc 1 157 0
 125              		.cfi_startproc
 126              		@ args = 0, pretend = 0, frame = 8
 127              		@ frame_needed = 1, uses_anonymous_args = 0
 128 0000 80B5     		push	{r7, lr}
 129              	.LCFI5:
 130              		.cfi_def_cfa_offset 8
 131              		.cfi_offset 7, -8
ARM GAS  /tmp/ccYGdVxC.s 			page 6


 132              		.cfi_offset 14, -4
 133 0002 82B0     		sub	sp, sp, #8
 134              	.LCFI6:
 135              		.cfi_def_cfa_offset 16
 136 0004 00AF     		add	r7, sp, #0
 137              	.LCFI7:
 138              		.cfi_def_cfa_register 7
 139 0006 7860     		str	r0, [r7, #4]
 158:../../Drivers/STM32F7xx_HAL_Driver/Src/stm32f7xx_hal_rng.c ****   /* Check the RNG handle allocation */
 159:../../Drivers/STM32F7xx_HAL_Driver/Src/stm32f7xx_hal_rng.c ****   if(hrng == NULL)
 140              		.loc 1 159 0
 141 0008 7B68     		ldr	r3, [r7, #4]
 142 000a 002B     		cmp	r3, #0
 143 000c 01D1     		bne	.L7
 160:../../Drivers/STM32F7xx_HAL_Driver/Src/stm32f7xx_hal_rng.c ****   {
 161:../../Drivers/STM32F7xx_HAL_Driver/Src/stm32f7xx_hal_rng.c ****     return HAL_ERROR;
 144              		.loc 1 161 0
 145 000e 0123     		movs	r3, #1
 146 0010 19E0     		b	.L8
 147              	.L7:
 162:../../Drivers/STM32F7xx_HAL_Driver/Src/stm32f7xx_hal_rng.c ****   }
 163:../../Drivers/STM32F7xx_HAL_Driver/Src/stm32f7xx_hal_rng.c ****   /* Disable the RNG Peripheral */
 164:../../Drivers/STM32F7xx_HAL_Driver/Src/stm32f7xx_hal_rng.c ****   CLEAR_BIT(hrng->Instance->CR, RNG_CR_IE | RNG_CR_RNGEN);
 148              		.loc 1 164 0
 149 0012 7B68     		ldr	r3, [r7, #4]
 150 0014 1B68     		ldr	r3, [r3]
 151 0016 7A68     		ldr	r2, [r7, #4]
 152 0018 1268     		ldr	r2, [r2]
 153 001a 1268     		ldr	r2, [r2]
 154 001c 22F00C02 		bic	r2, r2, #12
 155 0020 1A60     		str	r2, [r3]
 165:../../Drivers/STM32F7xx_HAL_Driver/Src/stm32f7xx_hal_rng.c ****   
 166:../../Drivers/STM32F7xx_HAL_Driver/Src/stm32f7xx_hal_rng.c ****   /* Clear RNG interrupt status flags */
 167:../../Drivers/STM32F7xx_HAL_Driver/Src/stm32f7xx_hal_rng.c ****   CLEAR_BIT(hrng->Instance->SR, RNG_SR_CEIS | RNG_SR_SEIS);
 156              		.loc 1 167 0
 157 0022 7B68     		ldr	r3, [r7, #4]
 158 0024 1B68     		ldr	r3, [r3]
 159 0026 7A68     		ldr	r2, [r7, #4]
 160 0028 1268     		ldr	r2, [r2]
 161 002a 5268     		ldr	r2, [r2, #4]
 162 002c 22F06002 		bic	r2, r2, #96
 163 0030 5A60     		str	r2, [r3, #4]
 168:../../Drivers/STM32F7xx_HAL_Driver/Src/stm32f7xx_hal_rng.c ****   
 169:../../Drivers/STM32F7xx_HAL_Driver/Src/stm32f7xx_hal_rng.c ****   /* DeInit the low level hardware */
 170:../../Drivers/STM32F7xx_HAL_Driver/Src/stm32f7xx_hal_rng.c ****   HAL_RNG_MspDeInit(hrng);
 164              		.loc 1 170 0
 165 0032 7868     		ldr	r0, [r7, #4]
 166 0034 FFF7FEFF 		bl	HAL_RNG_MspDeInit
 171:../../Drivers/STM32F7xx_HAL_Driver/Src/stm32f7xx_hal_rng.c ****   
 172:../../Drivers/STM32F7xx_HAL_Driver/Src/stm32f7xx_hal_rng.c ****   /* Update the RNG state */
 173:../../Drivers/STM32F7xx_HAL_Driver/Src/stm32f7xx_hal_rng.c ****   hrng->State = HAL_RNG_STATE_RESET; 
 167              		.loc 1 173 0
 168 0038 7B68     		ldr	r3, [r7, #4]
 169 003a 0022     		movs	r2, #0
 170 003c 5A72     		strb	r2, [r3, #9]
 174:../../Drivers/STM32F7xx_HAL_Driver/Src/stm32f7xx_hal_rng.c **** 
 175:../../Drivers/STM32F7xx_HAL_Driver/Src/stm32f7xx_hal_rng.c ****   /* Release Lock */
ARM GAS  /tmp/ccYGdVxC.s 			page 7


 176:../../Drivers/STM32F7xx_HAL_Driver/Src/stm32f7xx_hal_rng.c ****   __HAL_UNLOCK(hrng);
 171              		.loc 1 176 0
 172 003e 7B68     		ldr	r3, [r7, #4]
 173 0040 0022     		movs	r2, #0
 174 0042 1A72     		strb	r2, [r3, #8]
 177:../../Drivers/STM32F7xx_HAL_Driver/Src/stm32f7xx_hal_rng.c ****   
 178:../../Drivers/STM32F7xx_HAL_Driver/Src/stm32f7xx_hal_rng.c ****   /* Return the function status */
 179:../../Drivers/STM32F7xx_HAL_Driver/Src/stm32f7xx_hal_rng.c ****   return HAL_OK;
 175              		.loc 1 179 0
 176 0044 0023     		movs	r3, #0
 177              	.L8:
 180:../../Drivers/STM32F7xx_HAL_Driver/Src/stm32f7xx_hal_rng.c **** }
 178              		.loc 1 180 0
 179 0046 1846     		mov	r0, r3
 180 0048 0837     		adds	r7, r7, #8
 181              	.LCFI8:
 182              		.cfi_def_cfa_offset 8
 183 004a BD46     		mov	sp, r7
 184              	.LCFI9:
 185              		.cfi_def_cfa_register 13
 186              		@ sp needed
 187 004c 80BD     		pop	{r7, pc}
 188              		.cfi_endproc
 189              	.LFE136:
 191 004e 00BF     		.section	.text.HAL_RNG_MspInit,"ax",%progbits
 192              		.align	2
 193              		.weak	HAL_RNG_MspInit
 194              		.thumb
 195              		.thumb_func
 197              	HAL_RNG_MspInit:
 198              	.LFB137:
 181:../../Drivers/STM32F7xx_HAL_Driver/Src/stm32f7xx_hal_rng.c **** 
 182:../../Drivers/STM32F7xx_HAL_Driver/Src/stm32f7xx_hal_rng.c **** /**
 183:../../Drivers/STM32F7xx_HAL_Driver/Src/stm32f7xx_hal_rng.c ****   * @brief  Initializes the RNG MSP.
 184:../../Drivers/STM32F7xx_HAL_Driver/Src/stm32f7xx_hal_rng.c ****   * @param  hrng: pointer to a RNG_HandleTypeDef structure that contains
 185:../../Drivers/STM32F7xx_HAL_Driver/Src/stm32f7xx_hal_rng.c ****   *                the configuration information for RNG.
 186:../../Drivers/STM32F7xx_HAL_Driver/Src/stm32f7xx_hal_rng.c ****   * @retval None
 187:../../Drivers/STM32F7xx_HAL_Driver/Src/stm32f7xx_hal_rng.c ****   */
 188:../../Drivers/STM32F7xx_HAL_Driver/Src/stm32f7xx_hal_rng.c **** __weak void HAL_RNG_MspInit(RNG_HandleTypeDef *hrng)
 189:../../Drivers/STM32F7xx_HAL_Driver/Src/stm32f7xx_hal_rng.c **** {
 199              		.loc 1 189 0
 200              		.cfi_startproc
 201              		@ args = 0, pretend = 0, frame = 8
 202              		@ frame_needed = 1, uses_anonymous_args = 0
 203              		@ link register save eliminated.
 204 0000 80B4     		push	{r7}
 205              	.LCFI10:
 206              		.cfi_def_cfa_offset 4
 207              		.cfi_offset 7, -4
 208 0002 83B0     		sub	sp, sp, #12
 209              	.LCFI11:
 210              		.cfi_def_cfa_offset 16
 211 0004 00AF     		add	r7, sp, #0
 212              	.LCFI12:
 213              		.cfi_def_cfa_register 7
 214 0006 7860     		str	r0, [r7, #4]
 190:../../Drivers/STM32F7xx_HAL_Driver/Src/stm32f7xx_hal_rng.c ****   /* Prevent unused argument(s) compilation warning */
ARM GAS  /tmp/ccYGdVxC.s 			page 8


 191:../../Drivers/STM32F7xx_HAL_Driver/Src/stm32f7xx_hal_rng.c ****   UNUSED(hrng);
 192:../../Drivers/STM32F7xx_HAL_Driver/Src/stm32f7xx_hal_rng.c ****   
 193:../../Drivers/STM32F7xx_HAL_Driver/Src/stm32f7xx_hal_rng.c ****   /* NOTE : This function should not be modified. When the callback is needed,
 194:../../Drivers/STM32F7xx_HAL_Driver/Src/stm32f7xx_hal_rng.c ****             function HAL_RNG_MspInit must be implemented in the user file.
 195:../../Drivers/STM32F7xx_HAL_Driver/Src/stm32f7xx_hal_rng.c ****    */
 196:../../Drivers/STM32F7xx_HAL_Driver/Src/stm32f7xx_hal_rng.c **** }
 215              		.loc 1 196 0
 216 0008 0C37     		adds	r7, r7, #12
 217              	.LCFI13:
 218              		.cfi_def_cfa_offset 4
 219 000a BD46     		mov	sp, r7
 220              	.LCFI14:
 221              		.cfi_def_cfa_register 13
 222              		@ sp needed
 223 000c 5DF8047B 		ldr	r7, [sp], #4
 224              	.LCFI15:
 225              		.cfi_restore 7
 226              		.cfi_def_cfa_offset 0
 227 0010 7047     		bx	lr
 228              		.cfi_endproc
 229              	.LFE137:
 231 0012 00BF     		.section	.text.HAL_RNG_MspDeInit,"ax",%progbits
 232              		.align	2
 233              		.weak	HAL_RNG_MspDeInit
 234              		.thumb
 235              		.thumb_func
 237              	HAL_RNG_MspDeInit:
 238              	.LFB138:
 197:../../Drivers/STM32F7xx_HAL_Driver/Src/stm32f7xx_hal_rng.c **** 
 198:../../Drivers/STM32F7xx_HAL_Driver/Src/stm32f7xx_hal_rng.c **** /**
 199:../../Drivers/STM32F7xx_HAL_Driver/Src/stm32f7xx_hal_rng.c ****   * @brief  DeInitializes the RNG MSP.
 200:../../Drivers/STM32F7xx_HAL_Driver/Src/stm32f7xx_hal_rng.c ****   * @param  hrng: pointer to a RNG_HandleTypeDef structure that contains
 201:../../Drivers/STM32F7xx_HAL_Driver/Src/stm32f7xx_hal_rng.c ****   *                the configuration information for RNG.
 202:../../Drivers/STM32F7xx_HAL_Driver/Src/stm32f7xx_hal_rng.c ****   * @retval None
 203:../../Drivers/STM32F7xx_HAL_Driver/Src/stm32f7xx_hal_rng.c ****   */
 204:../../Drivers/STM32F7xx_HAL_Driver/Src/stm32f7xx_hal_rng.c **** __weak void HAL_RNG_MspDeInit(RNG_HandleTypeDef *hrng)
 205:../../Drivers/STM32F7xx_HAL_Driver/Src/stm32f7xx_hal_rng.c **** {
 239              		.loc 1 205 0
 240              		.cfi_startproc
 241              		@ args = 0, pretend = 0, frame = 8
 242              		@ frame_needed = 1, uses_anonymous_args = 0
 243              		@ link register save eliminated.
 244 0000 80B4     		push	{r7}
 245              	.LCFI16:
 246              		.cfi_def_cfa_offset 4
 247              		.cfi_offset 7, -4
 248 0002 83B0     		sub	sp, sp, #12
 249              	.LCFI17:
 250              		.cfi_def_cfa_offset 16
 251 0004 00AF     		add	r7, sp, #0
 252              	.LCFI18:
 253              		.cfi_def_cfa_register 7
 254 0006 7860     		str	r0, [r7, #4]
 206:../../Drivers/STM32F7xx_HAL_Driver/Src/stm32f7xx_hal_rng.c ****   /* Prevent unused argument(s) compilation warning */
 207:../../Drivers/STM32F7xx_HAL_Driver/Src/stm32f7xx_hal_rng.c ****   UNUSED(hrng);
 208:../../Drivers/STM32F7xx_HAL_Driver/Src/stm32f7xx_hal_rng.c ****   
 209:../../Drivers/STM32F7xx_HAL_Driver/Src/stm32f7xx_hal_rng.c ****   /* NOTE : This function should not be modified. When the callback is needed,
ARM GAS  /tmp/ccYGdVxC.s 			page 9


 210:../../Drivers/STM32F7xx_HAL_Driver/Src/stm32f7xx_hal_rng.c ****             function HAL_RNG_MspDeInit must be implemented in the user file.
 211:../../Drivers/STM32F7xx_HAL_Driver/Src/stm32f7xx_hal_rng.c ****    */
 212:../../Drivers/STM32F7xx_HAL_Driver/Src/stm32f7xx_hal_rng.c **** }
 255              		.loc 1 212 0
 256 0008 0C37     		adds	r7, r7, #12
 257              	.LCFI19:
 258              		.cfi_def_cfa_offset 4
 259 000a BD46     		mov	sp, r7
 260              	.LCFI20:
 261              		.cfi_def_cfa_register 13
 262              		@ sp needed
 263 000c 5DF8047B 		ldr	r7, [sp], #4
 264              	.LCFI21:
 265              		.cfi_restore 7
 266              		.cfi_def_cfa_offset 0
 267 0010 7047     		bx	lr
 268              		.cfi_endproc
 269              	.LFE138:
 271 0012 00BF     		.section	.text.HAL_RNG_GenerateRandomNumber,"ax",%progbits
 272              		.align	2
 273              		.global	HAL_RNG_GenerateRandomNumber
 274              		.thumb
 275              		.thumb_func
 277              	HAL_RNG_GenerateRandomNumber:
 278              	.LFB139:
 213:../../Drivers/STM32F7xx_HAL_Driver/Src/stm32f7xx_hal_rng.c **** 
 214:../../Drivers/STM32F7xx_HAL_Driver/Src/stm32f7xx_hal_rng.c **** /**
 215:../../Drivers/STM32F7xx_HAL_Driver/Src/stm32f7xx_hal_rng.c ****   * @}
 216:../../Drivers/STM32F7xx_HAL_Driver/Src/stm32f7xx_hal_rng.c ****   */
 217:../../Drivers/STM32F7xx_HAL_Driver/Src/stm32f7xx_hal_rng.c **** 
 218:../../Drivers/STM32F7xx_HAL_Driver/Src/stm32f7xx_hal_rng.c **** /** @addtogroup RNG_Exported_Functions_Group2
 219:../../Drivers/STM32F7xx_HAL_Driver/Src/stm32f7xx_hal_rng.c ****  *  @brief   Peripheral Control functions 
 220:../../Drivers/STM32F7xx_HAL_Driver/Src/stm32f7xx_hal_rng.c ****  *
 221:../../Drivers/STM32F7xx_HAL_Driver/Src/stm32f7xx_hal_rng.c **** @verbatim   
 222:../../Drivers/STM32F7xx_HAL_Driver/Src/stm32f7xx_hal_rng.c ****  ===============================================================================
 223:../../Drivers/STM32F7xx_HAL_Driver/Src/stm32f7xx_hal_rng.c ****                       ##### Peripheral Control functions #####
 224:../../Drivers/STM32F7xx_HAL_Driver/Src/stm32f7xx_hal_rng.c ****  ===============================================================================  
 225:../../Drivers/STM32F7xx_HAL_Driver/Src/stm32f7xx_hal_rng.c ****     [..]  This section provides functions allowing to:
 226:../../Drivers/STM32F7xx_HAL_Driver/Src/stm32f7xx_hal_rng.c ****       (+) Get the 32 bit Random number
 227:../../Drivers/STM32F7xx_HAL_Driver/Src/stm32f7xx_hal_rng.c ****       (+) Get the 32 bit Random number with interrupt enabled
 228:../../Drivers/STM32F7xx_HAL_Driver/Src/stm32f7xx_hal_rng.c ****       (+) Handle RNG interrupt request 
 229:../../Drivers/STM32F7xx_HAL_Driver/Src/stm32f7xx_hal_rng.c **** 
 230:../../Drivers/STM32F7xx_HAL_Driver/Src/stm32f7xx_hal_rng.c **** @endverbatim
 231:../../Drivers/STM32F7xx_HAL_Driver/Src/stm32f7xx_hal_rng.c ****   * @{
 232:../../Drivers/STM32F7xx_HAL_Driver/Src/stm32f7xx_hal_rng.c ****   */
 233:../../Drivers/STM32F7xx_HAL_Driver/Src/stm32f7xx_hal_rng.c ****    
 234:../../Drivers/STM32F7xx_HAL_Driver/Src/stm32f7xx_hal_rng.c **** /**
 235:../../Drivers/STM32F7xx_HAL_Driver/Src/stm32f7xx_hal_rng.c ****   * @brief  Generates a 32-bit random number.
 236:../../Drivers/STM32F7xx_HAL_Driver/Src/stm32f7xx_hal_rng.c ****   * @note   Each time the random number data is read the RNG_FLAG_DRDY flag 
 237:../../Drivers/STM32F7xx_HAL_Driver/Src/stm32f7xx_hal_rng.c ****   *         is automatically cleared.
 238:../../Drivers/STM32F7xx_HAL_Driver/Src/stm32f7xx_hal_rng.c ****   * @param  hrng: pointer to a RNG_HandleTypeDef structure that contains
 239:../../Drivers/STM32F7xx_HAL_Driver/Src/stm32f7xx_hal_rng.c ****   *                the configuration information for RNG.
 240:../../Drivers/STM32F7xx_HAL_Driver/Src/stm32f7xx_hal_rng.c ****   * @param  random32bit: pointer to generated random number variable if successful.
 241:../../Drivers/STM32F7xx_HAL_Driver/Src/stm32f7xx_hal_rng.c ****   * @retval HAL status
 242:../../Drivers/STM32F7xx_HAL_Driver/Src/stm32f7xx_hal_rng.c ****   */
 243:../../Drivers/STM32F7xx_HAL_Driver/Src/stm32f7xx_hal_rng.c **** 
 244:../../Drivers/STM32F7xx_HAL_Driver/Src/stm32f7xx_hal_rng.c **** HAL_StatusTypeDef HAL_RNG_GenerateRandomNumber(RNG_HandleTypeDef *hrng, uint32_t *random32bit)
ARM GAS  /tmp/ccYGdVxC.s 			page 10


 245:../../Drivers/STM32F7xx_HAL_Driver/Src/stm32f7xx_hal_rng.c **** {
 279              		.loc 1 245 0
 280              		.cfi_startproc
 281              		@ args = 0, pretend = 0, frame = 16
 282              		@ frame_needed = 1, uses_anonymous_args = 0
 283 0000 80B5     		push	{r7, lr}
 284              	.LCFI22:
 285              		.cfi_def_cfa_offset 8
 286              		.cfi_offset 7, -8
 287              		.cfi_offset 14, -4
 288 0002 84B0     		sub	sp, sp, #16
 289              	.LCFI23:
 290              		.cfi_def_cfa_offset 24
 291 0004 00AF     		add	r7, sp, #0
 292              	.LCFI24:
 293              		.cfi_def_cfa_register 7
 294 0006 7860     		str	r0, [r7, #4]
 295 0008 3960     		str	r1, [r7]
 246:../../Drivers/STM32F7xx_HAL_Driver/Src/stm32f7xx_hal_rng.c ****   uint32_t tickstart = 0;    
 296              		.loc 1 246 0
 297 000a 0023     		movs	r3, #0
 298 000c BB60     		str	r3, [r7, #8]
 247:../../Drivers/STM32F7xx_HAL_Driver/Src/stm32f7xx_hal_rng.c ****   HAL_StatusTypeDef status = HAL_OK;
 299              		.loc 1 247 0
 300 000e 0023     		movs	r3, #0
 301 0010 FB73     		strb	r3, [r7, #15]
 248:../../Drivers/STM32F7xx_HAL_Driver/Src/stm32f7xx_hal_rng.c **** 
 249:../../Drivers/STM32F7xx_HAL_Driver/Src/stm32f7xx_hal_rng.c ****   /* Process Locked */
 250:../../Drivers/STM32F7xx_HAL_Driver/Src/stm32f7xx_hal_rng.c ****   __HAL_LOCK(hrng); 
 302              		.loc 1 250 0
 303 0012 7B68     		ldr	r3, [r7, #4]
 304 0014 1B7A     		ldrb	r3, [r3, #8]	@ zero_extendqisi2
 305 0016 012B     		cmp	r3, #1
 306 0018 01D1     		bne	.L12
 307              		.loc 1 250 0 is_stmt 0 discriminator 1
 308 001a 0223     		movs	r3, #2
 309 001c 37E0     		b	.L13
 310              	.L12:
 311              		.loc 1 250 0 discriminator 2
 312 001e 7B68     		ldr	r3, [r7, #4]
 313 0020 0122     		movs	r2, #1
 314 0022 1A72     		strb	r2, [r3, #8]
 251:../../Drivers/STM32F7xx_HAL_Driver/Src/stm32f7xx_hal_rng.c ****   
 252:../../Drivers/STM32F7xx_HAL_Driver/Src/stm32f7xx_hal_rng.c ****   /* Check RNG peripheral state */
 253:../../Drivers/STM32F7xx_HAL_Driver/Src/stm32f7xx_hal_rng.c ****   if(hrng->State == HAL_RNG_STATE_READY)
 315              		.loc 1 253 0 is_stmt 1 discriminator 2
 316 0024 7B68     		ldr	r3, [r7, #4]
 317 0026 5B7A     		ldrb	r3, [r3, #9]
 318 0028 DBB2     		uxtb	r3, r3
 319 002a 012B     		cmp	r3, #1
 320 002c 29D1     		bne	.L14
 254:../../Drivers/STM32F7xx_HAL_Driver/Src/stm32f7xx_hal_rng.c ****   {
 255:../../Drivers/STM32F7xx_HAL_Driver/Src/stm32f7xx_hal_rng.c ****     /* Change RNG peripheral state */  
 256:../../Drivers/STM32F7xx_HAL_Driver/Src/stm32f7xx_hal_rng.c ****     hrng->State = HAL_RNG_STATE_BUSY;  
 321              		.loc 1 256 0
 322 002e 7B68     		ldr	r3, [r7, #4]
 323 0030 0222     		movs	r2, #2
ARM GAS  /tmp/ccYGdVxC.s 			page 11


 324 0032 5A72     		strb	r2, [r3, #9]
 257:../../Drivers/STM32F7xx_HAL_Driver/Src/stm32f7xx_hal_rng.c **** 
 258:../../Drivers/STM32F7xx_HAL_Driver/Src/stm32f7xx_hal_rng.c ****     /* Get tick */
 259:../../Drivers/STM32F7xx_HAL_Driver/Src/stm32f7xx_hal_rng.c ****     tickstart = HAL_GetTick();
 325              		.loc 1 259 0
 326 0034 FFF7FEFF 		bl	HAL_GetTick
 327 0038 B860     		str	r0, [r7, #8]
 260:../../Drivers/STM32F7xx_HAL_Driver/Src/stm32f7xx_hal_rng.c ****   
 261:../../Drivers/STM32F7xx_HAL_Driver/Src/stm32f7xx_hal_rng.c ****     /* Check if data register contains valid random data */
 262:../../Drivers/STM32F7xx_HAL_Driver/Src/stm32f7xx_hal_rng.c ****     while(__HAL_RNG_GET_FLAG(hrng, RNG_FLAG_DRDY) == RESET)
 328              		.loc 1 262 0
 329 003a 0EE0     		b	.L15
 330              	.L16:
 263:../../Drivers/STM32F7xx_HAL_Driver/Src/stm32f7xx_hal_rng.c ****     {
 264:../../Drivers/STM32F7xx_HAL_Driver/Src/stm32f7xx_hal_rng.c ****       if((HAL_GetTick() - tickstart ) > RNG_TIMEOUT_VALUE)
 331              		.loc 1 264 0
 332 003c FFF7FEFF 		bl	HAL_GetTick
 333 0040 0246     		mov	r2, r0
 334 0042 BB68     		ldr	r3, [r7, #8]
 335 0044 D31A     		subs	r3, r2, r3
 336 0046 022B     		cmp	r3, #2
 337 0048 07D9     		bls	.L15
 265:../../Drivers/STM32F7xx_HAL_Driver/Src/stm32f7xx_hal_rng.c ****       {    
 266:../../Drivers/STM32F7xx_HAL_Driver/Src/stm32f7xx_hal_rng.c ****         hrng->State = HAL_RNG_STATE_ERROR;
 338              		.loc 1 266 0
 339 004a 7B68     		ldr	r3, [r7, #4]
 340 004c 0422     		movs	r2, #4
 341 004e 5A72     		strb	r2, [r3, #9]
 267:../../Drivers/STM32F7xx_HAL_Driver/Src/stm32f7xx_hal_rng.c **** 
 268:../../Drivers/STM32F7xx_HAL_Driver/Src/stm32f7xx_hal_rng.c ****         /* Process Unlocked */
 269:../../Drivers/STM32F7xx_HAL_Driver/Src/stm32f7xx_hal_rng.c ****         __HAL_UNLOCK(hrng);
 342              		.loc 1 269 0
 343 0050 7B68     		ldr	r3, [r7, #4]
 344 0052 0022     		movs	r2, #0
 345 0054 1A72     		strb	r2, [r3, #8]
 270:../../Drivers/STM32F7xx_HAL_Driver/Src/stm32f7xx_hal_rng.c ****       
 271:../../Drivers/STM32F7xx_HAL_Driver/Src/stm32f7xx_hal_rng.c ****         return HAL_TIMEOUT;
 346              		.loc 1 271 0
 347 0056 0323     		movs	r3, #3
 348 0058 19E0     		b	.L13
 349              	.L15:
 262:../../Drivers/STM32F7xx_HAL_Driver/Src/stm32f7xx_hal_rng.c ****     {
 350              		.loc 1 262 0
 351 005a 7B68     		ldr	r3, [r7, #4]
 352 005c 1B68     		ldr	r3, [r3]
 353 005e 5B68     		ldr	r3, [r3, #4]
 354 0060 03F00103 		and	r3, r3, #1
 355 0064 002B     		cmp	r3, #0
 356 0066 E9D0     		beq	.L16
 272:../../Drivers/STM32F7xx_HAL_Driver/Src/stm32f7xx_hal_rng.c ****       } 
 273:../../Drivers/STM32F7xx_HAL_Driver/Src/stm32f7xx_hal_rng.c ****     }
 274:../../Drivers/STM32F7xx_HAL_Driver/Src/stm32f7xx_hal_rng.c ****   
 275:../../Drivers/STM32F7xx_HAL_Driver/Src/stm32f7xx_hal_rng.c ****     /* Get a 32bit Random number */
 276:../../Drivers/STM32F7xx_HAL_Driver/Src/stm32f7xx_hal_rng.c ****     hrng->RandomNumber = hrng->Instance->DR;
 357              		.loc 1 276 0
 358 0068 7B68     		ldr	r3, [r7, #4]
 359 006a 1B68     		ldr	r3, [r3]
ARM GAS  /tmp/ccYGdVxC.s 			page 12


 360 006c 9A68     		ldr	r2, [r3, #8]
 361 006e 7B68     		ldr	r3, [r7, #4]
 362 0070 5A60     		str	r2, [r3, #4]
 277:../../Drivers/STM32F7xx_HAL_Driver/Src/stm32f7xx_hal_rng.c ****     *random32bit = hrng->RandomNumber;
 363              		.loc 1 277 0
 364 0072 7B68     		ldr	r3, [r7, #4]
 365 0074 5A68     		ldr	r2, [r3, #4]
 366 0076 3B68     		ldr	r3, [r7]
 367 0078 1A60     		str	r2, [r3]
 278:../../Drivers/STM32F7xx_HAL_Driver/Src/stm32f7xx_hal_rng.c ****   
 279:../../Drivers/STM32F7xx_HAL_Driver/Src/stm32f7xx_hal_rng.c ****     hrng->State = HAL_RNG_STATE_READY;
 368              		.loc 1 279 0
 369 007a 7B68     		ldr	r3, [r7, #4]
 370 007c 0122     		movs	r2, #1
 371 007e 5A72     		strb	r2, [r3, #9]
 372 0080 01E0     		b	.L17
 373              	.L14:
 280:../../Drivers/STM32F7xx_HAL_Driver/Src/stm32f7xx_hal_rng.c ****   }
 281:../../Drivers/STM32F7xx_HAL_Driver/Src/stm32f7xx_hal_rng.c ****   else
 282:../../Drivers/STM32F7xx_HAL_Driver/Src/stm32f7xx_hal_rng.c ****   {
 283:../../Drivers/STM32F7xx_HAL_Driver/Src/stm32f7xx_hal_rng.c ****     status = HAL_ERROR;
 374              		.loc 1 283 0
 375 0082 0123     		movs	r3, #1
 376 0084 FB73     		strb	r3, [r7, #15]
 377              	.L17:
 284:../../Drivers/STM32F7xx_HAL_Driver/Src/stm32f7xx_hal_rng.c ****   }
 285:../../Drivers/STM32F7xx_HAL_Driver/Src/stm32f7xx_hal_rng.c ****   
 286:../../Drivers/STM32F7xx_HAL_Driver/Src/stm32f7xx_hal_rng.c ****   /* Process Unlocked */
 287:../../Drivers/STM32F7xx_HAL_Driver/Src/stm32f7xx_hal_rng.c ****   __HAL_UNLOCK(hrng);
 378              		.loc 1 287 0
 379 0086 7B68     		ldr	r3, [r7, #4]
 380 0088 0022     		movs	r2, #0
 381 008a 1A72     		strb	r2, [r3, #8]
 288:../../Drivers/STM32F7xx_HAL_Driver/Src/stm32f7xx_hal_rng.c ****   
 289:../../Drivers/STM32F7xx_HAL_Driver/Src/stm32f7xx_hal_rng.c ****   return status;
 382              		.loc 1 289 0
 383 008c FB7B     		ldrb	r3, [r7, #15]	@ zero_extendqisi2
 384              	.L13:
 290:../../Drivers/STM32F7xx_HAL_Driver/Src/stm32f7xx_hal_rng.c **** }
 385              		.loc 1 290 0
 386 008e 1846     		mov	r0, r3
 387 0090 1037     		adds	r7, r7, #16
 388              	.LCFI25:
 389              		.cfi_def_cfa_offset 8
 390 0092 BD46     		mov	sp, r7
 391              	.LCFI26:
 392              		.cfi_def_cfa_register 13
 393              		@ sp needed
 394 0094 80BD     		pop	{r7, pc}
 395              		.cfi_endproc
 396              	.LFE139:
 398 0096 00BF     		.section	.text.HAL_RNG_GenerateRandomNumber_IT,"ax",%progbits
 399              		.align	2
 400              		.global	HAL_RNG_GenerateRandomNumber_IT
 401              		.thumb
 402              		.thumb_func
 404              	HAL_RNG_GenerateRandomNumber_IT:
ARM GAS  /tmp/ccYGdVxC.s 			page 13


 405              	.LFB140:
 291:../../Drivers/STM32F7xx_HAL_Driver/Src/stm32f7xx_hal_rng.c **** 
 292:../../Drivers/STM32F7xx_HAL_Driver/Src/stm32f7xx_hal_rng.c **** /**
 293:../../Drivers/STM32F7xx_HAL_Driver/Src/stm32f7xx_hal_rng.c ****   * @brief  Generates a 32-bit random number in interrupt mode.
 294:../../Drivers/STM32F7xx_HAL_Driver/Src/stm32f7xx_hal_rng.c ****   * @param  hrng: pointer to a RNG_HandleTypeDef structure that contains
 295:../../Drivers/STM32F7xx_HAL_Driver/Src/stm32f7xx_hal_rng.c ****   *                the configuration information for RNG.
 296:../../Drivers/STM32F7xx_HAL_Driver/Src/stm32f7xx_hal_rng.c ****   * @retval HAL status
 297:../../Drivers/STM32F7xx_HAL_Driver/Src/stm32f7xx_hal_rng.c ****   */
 298:../../Drivers/STM32F7xx_HAL_Driver/Src/stm32f7xx_hal_rng.c **** HAL_StatusTypeDef HAL_RNG_GenerateRandomNumber_IT(RNG_HandleTypeDef *hrng)
 299:../../Drivers/STM32F7xx_HAL_Driver/Src/stm32f7xx_hal_rng.c **** {
 406              		.loc 1 299 0
 407              		.cfi_startproc
 408              		@ args = 0, pretend = 0, frame = 16
 409              		@ frame_needed = 1, uses_anonymous_args = 0
 410              		@ link register save eliminated.
 411 0000 80B4     		push	{r7}
 412              	.LCFI27:
 413              		.cfi_def_cfa_offset 4
 414              		.cfi_offset 7, -4
 415 0002 85B0     		sub	sp, sp, #20
 416              	.LCFI28:
 417              		.cfi_def_cfa_offset 24
 418 0004 00AF     		add	r7, sp, #0
 419              	.LCFI29:
 420              		.cfi_def_cfa_register 7
 421 0006 7860     		str	r0, [r7, #4]
 300:../../Drivers/STM32F7xx_HAL_Driver/Src/stm32f7xx_hal_rng.c ****   HAL_StatusTypeDef status = HAL_OK;
 422              		.loc 1 300 0
 423 0008 0023     		movs	r3, #0
 424 000a FB73     		strb	r3, [r7, #15]
 301:../../Drivers/STM32F7xx_HAL_Driver/Src/stm32f7xx_hal_rng.c ****   
 302:../../Drivers/STM32F7xx_HAL_Driver/Src/stm32f7xx_hal_rng.c ****   /* Process Locked */
 303:../../Drivers/STM32F7xx_HAL_Driver/Src/stm32f7xx_hal_rng.c ****   __HAL_LOCK(hrng);
 425              		.loc 1 303 0
 426 000c 7B68     		ldr	r3, [r7, #4]
 427 000e 1B7A     		ldrb	r3, [r3, #8]	@ zero_extendqisi2
 428 0010 012B     		cmp	r3, #1
 429 0012 01D1     		bne	.L19
 430              		.loc 1 303 0 is_stmt 0 discriminator 1
 431 0014 0223     		movs	r3, #2
 432 0016 1CE0     		b	.L20
 433              	.L19:
 434              		.loc 1 303 0 discriminator 2
 435 0018 7B68     		ldr	r3, [r7, #4]
 436 001a 0122     		movs	r2, #1
 437 001c 1A72     		strb	r2, [r3, #8]
 304:../../Drivers/STM32F7xx_HAL_Driver/Src/stm32f7xx_hal_rng.c ****   
 305:../../Drivers/STM32F7xx_HAL_Driver/Src/stm32f7xx_hal_rng.c ****   /* Check RNG peripheral state */
 306:../../Drivers/STM32F7xx_HAL_Driver/Src/stm32f7xx_hal_rng.c ****   if(hrng->State == HAL_RNG_STATE_READY)
 438              		.loc 1 306 0 is_stmt 1 discriminator 2
 439 001e 7B68     		ldr	r3, [r7, #4]
 440 0020 5B7A     		ldrb	r3, [r3, #9]
 441 0022 DBB2     		uxtb	r3, r3
 442 0024 012B     		cmp	r3, #1
 443 0026 0ED1     		bne	.L21
 307:../../Drivers/STM32F7xx_HAL_Driver/Src/stm32f7xx_hal_rng.c ****   {
 308:../../Drivers/STM32F7xx_HAL_Driver/Src/stm32f7xx_hal_rng.c ****     /* Change RNG peripheral state */  
ARM GAS  /tmp/ccYGdVxC.s 			page 14


 309:../../Drivers/STM32F7xx_HAL_Driver/Src/stm32f7xx_hal_rng.c ****     hrng->State = HAL_RNG_STATE_BUSY;  
 444              		.loc 1 309 0
 445 0028 7B68     		ldr	r3, [r7, #4]
 446 002a 0222     		movs	r2, #2
 447 002c 5A72     		strb	r2, [r3, #9]
 310:../../Drivers/STM32F7xx_HAL_Driver/Src/stm32f7xx_hal_rng.c ****   
 311:../../Drivers/STM32F7xx_HAL_Driver/Src/stm32f7xx_hal_rng.c ****     /* Process Unlocked */
 312:../../Drivers/STM32F7xx_HAL_Driver/Src/stm32f7xx_hal_rng.c ****     __HAL_UNLOCK(hrng);
 448              		.loc 1 312 0
 449 002e 7B68     		ldr	r3, [r7, #4]
 450 0030 0022     		movs	r2, #0
 451 0032 1A72     		strb	r2, [r3, #8]
 313:../../Drivers/STM32F7xx_HAL_Driver/Src/stm32f7xx_hal_rng.c ****     
 314:../../Drivers/STM32F7xx_HAL_Driver/Src/stm32f7xx_hal_rng.c ****     /* Enable the RNG Interrupts: Data Ready, Clock error, Seed error */ 
 315:../../Drivers/STM32F7xx_HAL_Driver/Src/stm32f7xx_hal_rng.c ****     __HAL_RNG_ENABLE_IT(hrng);
 452              		.loc 1 315 0
 453 0034 7B68     		ldr	r3, [r7, #4]
 454 0036 1B68     		ldr	r3, [r3]
 455 0038 7A68     		ldr	r2, [r7, #4]
 456 003a 1268     		ldr	r2, [r2]
 457 003c 1268     		ldr	r2, [r2]
 458 003e 42F00802 		orr	r2, r2, #8
 459 0042 1A60     		str	r2, [r3]
 460 0044 04E0     		b	.L22
 461              	.L21:
 316:../../Drivers/STM32F7xx_HAL_Driver/Src/stm32f7xx_hal_rng.c ****   }
 317:../../Drivers/STM32F7xx_HAL_Driver/Src/stm32f7xx_hal_rng.c ****   else
 318:../../Drivers/STM32F7xx_HAL_Driver/Src/stm32f7xx_hal_rng.c ****   {
 319:../../Drivers/STM32F7xx_HAL_Driver/Src/stm32f7xx_hal_rng.c ****     /* Process Unlocked */
 320:../../Drivers/STM32F7xx_HAL_Driver/Src/stm32f7xx_hal_rng.c ****     __HAL_UNLOCK(hrng);
 462              		.loc 1 320 0
 463 0046 7B68     		ldr	r3, [r7, #4]
 464 0048 0022     		movs	r2, #0
 465 004a 1A72     		strb	r2, [r3, #8]
 321:../../Drivers/STM32F7xx_HAL_Driver/Src/stm32f7xx_hal_rng.c ****     
 322:../../Drivers/STM32F7xx_HAL_Driver/Src/stm32f7xx_hal_rng.c ****     status = HAL_ERROR;
 466              		.loc 1 322 0
 467 004c 0123     		movs	r3, #1
 468 004e FB73     		strb	r3, [r7, #15]
 469              	.L22:
 323:../../Drivers/STM32F7xx_HAL_Driver/Src/stm32f7xx_hal_rng.c ****   }
 324:../../Drivers/STM32F7xx_HAL_Driver/Src/stm32f7xx_hal_rng.c ****   
 325:../../Drivers/STM32F7xx_HAL_Driver/Src/stm32f7xx_hal_rng.c ****   return status;
 470              		.loc 1 325 0
 471 0050 FB7B     		ldrb	r3, [r7, #15]	@ zero_extendqisi2
 472              	.L20:
 326:../../Drivers/STM32F7xx_HAL_Driver/Src/stm32f7xx_hal_rng.c **** }
 473              		.loc 1 326 0
 474 0052 1846     		mov	r0, r3
 475 0054 1437     		adds	r7, r7, #20
 476              	.LCFI30:
 477              		.cfi_def_cfa_offset 4
 478 0056 BD46     		mov	sp, r7
 479              	.LCFI31:
 480              		.cfi_def_cfa_register 13
 481              		@ sp needed
 482 0058 5DF8047B 		ldr	r7, [sp], #4
ARM GAS  /tmp/ccYGdVxC.s 			page 15


 483              	.LCFI32:
 484              		.cfi_restore 7
 485              		.cfi_def_cfa_offset 0
 486 005c 7047     		bx	lr
 487              		.cfi_endproc
 488              	.LFE140:
 490 005e 00BF     		.section	.text.HAL_RNG_IRQHandler,"ax",%progbits
 491              		.align	2
 492              		.global	HAL_RNG_IRQHandler
 493              		.thumb
 494              		.thumb_func
 496              	HAL_RNG_IRQHandler:
 497              	.LFB141:
 327:../../Drivers/STM32F7xx_HAL_Driver/Src/stm32f7xx_hal_rng.c **** 
 328:../../Drivers/STM32F7xx_HAL_Driver/Src/stm32f7xx_hal_rng.c **** /**
 329:../../Drivers/STM32F7xx_HAL_Driver/Src/stm32f7xx_hal_rng.c ****   * @brief  Handles RNG interrupt request.
 330:../../Drivers/STM32F7xx_HAL_Driver/Src/stm32f7xx_hal_rng.c ****   * @note   In the case of a clock error, the RNG is no more able to generate 
 331:../../Drivers/STM32F7xx_HAL_Driver/Src/stm32f7xx_hal_rng.c ****   *         random numbers because the PLL48CLK clock is not correct. User has 
 332:../../Drivers/STM32F7xx_HAL_Driver/Src/stm32f7xx_hal_rng.c ****   *         to check that the clock controller is correctly configured to provide
 333:../../Drivers/STM32F7xx_HAL_Driver/Src/stm32f7xx_hal_rng.c ****   *         the RNG clock and clear the CEIS bit using __HAL_RNG_CLEAR_IT(). 
 334:../../Drivers/STM32F7xx_HAL_Driver/Src/stm32f7xx_hal_rng.c ****   *         The clock error has no impact on the previously generated 
 335:../../Drivers/STM32F7xx_HAL_Driver/Src/stm32f7xx_hal_rng.c ****   *         random numbers, and the RNG_DR register contents can be used.
 336:../../Drivers/STM32F7xx_HAL_Driver/Src/stm32f7xx_hal_rng.c ****   * @note   In the case of a seed error, the generation of random numbers is 
 337:../../Drivers/STM32F7xx_HAL_Driver/Src/stm32f7xx_hal_rng.c ****   *         interrupted as long as the SECS bit is '1'. If a number is 
 338:../../Drivers/STM32F7xx_HAL_Driver/Src/stm32f7xx_hal_rng.c ****   *         available in the RNG_DR register, it must not be used because it may 
 339:../../Drivers/STM32F7xx_HAL_Driver/Src/stm32f7xx_hal_rng.c ****   *         not have enough entropy. In this case, it is recommended to clear the 
 340:../../Drivers/STM32F7xx_HAL_Driver/Src/stm32f7xx_hal_rng.c ****   *         SEIS bit using __HAL_RNG_CLEAR_IT(), then disable and enable 
 341:../../Drivers/STM32F7xx_HAL_Driver/Src/stm32f7xx_hal_rng.c ****   *         the RNG peripheral to reinitialize and restart the RNG.
 342:../../Drivers/STM32F7xx_HAL_Driver/Src/stm32f7xx_hal_rng.c ****   * @note   User-written HAL_RNG_ErrorCallback() API is called once whether SEIS
 343:../../Drivers/STM32F7xx_HAL_Driver/Src/stm32f7xx_hal_rng.c ****   *         or CEIS are set.  
 344:../../Drivers/STM32F7xx_HAL_Driver/Src/stm32f7xx_hal_rng.c ****   * @param  hrng: pointer to a RNG_HandleTypeDef structure that contains
 345:../../Drivers/STM32F7xx_HAL_Driver/Src/stm32f7xx_hal_rng.c ****   *                the configuration information for RNG.
 346:../../Drivers/STM32F7xx_HAL_Driver/Src/stm32f7xx_hal_rng.c ****   * @retval None
 347:../../Drivers/STM32F7xx_HAL_Driver/Src/stm32f7xx_hal_rng.c **** 
 348:../../Drivers/STM32F7xx_HAL_Driver/Src/stm32f7xx_hal_rng.c ****   */
 349:../../Drivers/STM32F7xx_HAL_Driver/Src/stm32f7xx_hal_rng.c **** void HAL_RNG_IRQHandler(RNG_HandleTypeDef *hrng)
 350:../../Drivers/STM32F7xx_HAL_Driver/Src/stm32f7xx_hal_rng.c **** {
 498              		.loc 1 350 0
 499              		.cfi_startproc
 500              		@ args = 0, pretend = 0, frame = 8
 501              		@ frame_needed = 1, uses_anonymous_args = 0
 502 0000 80B5     		push	{r7, lr}
 503              	.LCFI33:
 504              		.cfi_def_cfa_offset 8
 505              		.cfi_offset 7, -8
 506              		.cfi_offset 14, -4
 507 0002 82B0     		sub	sp, sp, #8
 508              	.LCFI34:
 509              		.cfi_def_cfa_offset 16
 510 0004 00AF     		add	r7, sp, #0
 511              	.LCFI35:
 512              		.cfi_def_cfa_register 7
 513 0006 7860     		str	r0, [r7, #4]
 351:../../Drivers/STM32F7xx_HAL_Driver/Src/stm32f7xx_hal_rng.c ****   /* RNG clock error interrupt occurred */
 352:../../Drivers/STM32F7xx_HAL_Driver/Src/stm32f7xx_hal_rng.c ****   if((__HAL_RNG_GET_IT(hrng, RNG_IT_CEI) != RESET) ||  (__HAL_RNG_GET_IT(hrng, RNG_IT_SEI) != RESET
 514              		.loc 1 352 0
 515 0008 7B68     		ldr	r3, [r7, #4]
ARM GAS  /tmp/ccYGdVxC.s 			page 16


 516 000a 1B68     		ldr	r3, [r3]
 517 000c 5B68     		ldr	r3, [r3, #4]
 518 000e 03F02003 		and	r3, r3, #32
 519 0012 002B     		cmp	r3, #0
 520 0014 06D1     		bne	.L24
 521              		.loc 1 352 0 is_stmt 0 discriminator 1
 522 0016 7B68     		ldr	r3, [r7, #4]
 523 0018 1B68     		ldr	r3, [r3]
 524 001a 5B68     		ldr	r3, [r3, #4]
 525 001c 03F04003 		and	r3, r3, #64
 526 0020 002B     		cmp	r3, #0
 527 0022 0AD0     		beq	.L25
 528              	.L24:
 353:../../Drivers/STM32F7xx_HAL_Driver/Src/stm32f7xx_hal_rng.c ****   { 
 354:../../Drivers/STM32F7xx_HAL_Driver/Src/stm32f7xx_hal_rng.c ****     /* Change RNG peripheral state */
 355:../../Drivers/STM32F7xx_HAL_Driver/Src/stm32f7xx_hal_rng.c ****     hrng->State = HAL_RNG_STATE_ERROR;
 529              		.loc 1 355 0 is_stmt 1
 530 0024 7B68     		ldr	r3, [r7, #4]
 531 0026 0422     		movs	r2, #4
 532 0028 5A72     		strb	r2, [r3, #9]
 356:../../Drivers/STM32F7xx_HAL_Driver/Src/stm32f7xx_hal_rng.c ****   
 357:../../Drivers/STM32F7xx_HAL_Driver/Src/stm32f7xx_hal_rng.c ****     HAL_RNG_ErrorCallback(hrng);
 533              		.loc 1 357 0
 534 002a 7868     		ldr	r0, [r7, #4]
 535 002c FFF7FEFF 		bl	HAL_RNG_ErrorCallback
 358:../../Drivers/STM32F7xx_HAL_Driver/Src/stm32f7xx_hal_rng.c ****     
 359:../../Drivers/STM32F7xx_HAL_Driver/Src/stm32f7xx_hal_rng.c ****     /* Clear the clock error flag */
 360:../../Drivers/STM32F7xx_HAL_Driver/Src/stm32f7xx_hal_rng.c ****     __HAL_RNG_CLEAR_IT(hrng, RNG_IT_CEI|RNG_IT_SEI);
 536              		.loc 1 360 0
 537 0030 7B68     		ldr	r3, [r7, #4]
 538 0032 1B68     		ldr	r3, [r3]
 539 0034 6FF06002 		mvn	r2, #96
 540 0038 5A60     		str	r2, [r3, #4]
 541              	.L25:
 361:../../Drivers/STM32F7xx_HAL_Driver/Src/stm32f7xx_hal_rng.c ****     
 362:../../Drivers/STM32F7xx_HAL_Driver/Src/stm32f7xx_hal_rng.c ****   }
 363:../../Drivers/STM32F7xx_HAL_Driver/Src/stm32f7xx_hal_rng.c ****   
 364:../../Drivers/STM32F7xx_HAL_Driver/Src/stm32f7xx_hal_rng.c ****   /* Check RNG data ready interrupt occurred */    
 365:../../Drivers/STM32F7xx_HAL_Driver/Src/stm32f7xx_hal_rng.c ****   if(__HAL_RNG_GET_IT(hrng, RNG_IT_DRDY) != RESET)
 542              		.loc 1 365 0
 543 003a 7B68     		ldr	r3, [r7, #4]
 544 003c 1B68     		ldr	r3, [r3]
 545 003e 5B68     		ldr	r3, [r3, #4]
 546 0040 03F00103 		and	r3, r3, #1
 547 0044 002B     		cmp	r3, #0
 548 0046 1AD0     		beq	.L23
 366:../../Drivers/STM32F7xx_HAL_Driver/Src/stm32f7xx_hal_rng.c ****   {
 367:../../Drivers/STM32F7xx_HAL_Driver/Src/stm32f7xx_hal_rng.c ****     /* Generate random number once, so disable the IT */
 368:../../Drivers/STM32F7xx_HAL_Driver/Src/stm32f7xx_hal_rng.c ****     __HAL_RNG_DISABLE_IT(hrng);
 549              		.loc 1 368 0
 550 0048 7B68     		ldr	r3, [r7, #4]
 551 004a 1B68     		ldr	r3, [r3]
 552 004c 7A68     		ldr	r2, [r7, #4]
 553 004e 1268     		ldr	r2, [r2]
 554 0050 1268     		ldr	r2, [r2]
 555 0052 22F00802 		bic	r2, r2, #8
 556 0056 1A60     		str	r2, [r3]
ARM GAS  /tmp/ccYGdVxC.s 			page 17


 369:../../Drivers/STM32F7xx_HAL_Driver/Src/stm32f7xx_hal_rng.c ****     
 370:../../Drivers/STM32F7xx_HAL_Driver/Src/stm32f7xx_hal_rng.c ****     /* Get the 32bit Random number (DRDY flag automatically cleared) */ 
 371:../../Drivers/STM32F7xx_HAL_Driver/Src/stm32f7xx_hal_rng.c ****     hrng->RandomNumber = hrng->Instance->DR;
 557              		.loc 1 371 0
 558 0058 7B68     		ldr	r3, [r7, #4]
 559 005a 1B68     		ldr	r3, [r3]
 560 005c 9A68     		ldr	r2, [r3, #8]
 561 005e 7B68     		ldr	r3, [r7, #4]
 562 0060 5A60     		str	r2, [r3, #4]
 372:../../Drivers/STM32F7xx_HAL_Driver/Src/stm32f7xx_hal_rng.c ****     
 373:../../Drivers/STM32F7xx_HAL_Driver/Src/stm32f7xx_hal_rng.c ****     if(hrng->State != HAL_RNG_STATE_ERROR)
 563              		.loc 1 373 0
 564 0062 7B68     		ldr	r3, [r7, #4]
 565 0064 5B7A     		ldrb	r3, [r3, #9]
 566 0066 DBB2     		uxtb	r3, r3
 567 0068 042B     		cmp	r3, #4
 568 006a 08D0     		beq	.L23
 374:../../Drivers/STM32F7xx_HAL_Driver/Src/stm32f7xx_hal_rng.c ****     {
 375:../../Drivers/STM32F7xx_HAL_Driver/Src/stm32f7xx_hal_rng.c ****       /* Change RNG peripheral state */
 376:../../Drivers/STM32F7xx_HAL_Driver/Src/stm32f7xx_hal_rng.c ****       hrng->State = HAL_RNG_STATE_READY; 
 569              		.loc 1 376 0
 570 006c 7B68     		ldr	r3, [r7, #4]
 571 006e 0122     		movs	r2, #1
 572 0070 5A72     		strb	r2, [r3, #9]
 377:../../Drivers/STM32F7xx_HAL_Driver/Src/stm32f7xx_hal_rng.c ****       
 378:../../Drivers/STM32F7xx_HAL_Driver/Src/stm32f7xx_hal_rng.c ****       /* Data Ready callback */ 
 379:../../Drivers/STM32F7xx_HAL_Driver/Src/stm32f7xx_hal_rng.c ****       HAL_RNG_ReadyDataCallback(hrng, hrng->RandomNumber);
 573              		.loc 1 379 0
 574 0072 7B68     		ldr	r3, [r7, #4]
 575 0074 5B68     		ldr	r3, [r3, #4]
 576 0076 7868     		ldr	r0, [r7, #4]
 577 0078 1946     		mov	r1, r3
 578 007a FFF7FEFF 		bl	HAL_RNG_ReadyDataCallback
 579              	.L23:
 380:../../Drivers/STM32F7xx_HAL_Driver/Src/stm32f7xx_hal_rng.c ****     } 
 381:../../Drivers/STM32F7xx_HAL_Driver/Src/stm32f7xx_hal_rng.c ****   }
 382:../../Drivers/STM32F7xx_HAL_Driver/Src/stm32f7xx_hal_rng.c **** } 
 580              		.loc 1 382 0
 581 007e 0837     		adds	r7, r7, #8
 582              	.LCFI36:
 583              		.cfi_def_cfa_offset 8
 584 0080 BD46     		mov	sp, r7
 585              	.LCFI37:
 586              		.cfi_def_cfa_register 13
 587              		@ sp needed
 588 0082 80BD     		pop	{r7, pc}
 589              		.cfi_endproc
 590              	.LFE141:
 592              		.section	.text.HAL_RNG_GetRandomNumber,"ax",%progbits
 593              		.align	2
 594              		.global	HAL_RNG_GetRandomNumber
 595              		.thumb
 596              		.thumb_func
 598              	HAL_RNG_GetRandomNumber:
 599              	.LFB142:
 383:../../Drivers/STM32F7xx_HAL_Driver/Src/stm32f7xx_hal_rng.c **** 
 384:../../Drivers/STM32F7xx_HAL_Driver/Src/stm32f7xx_hal_rng.c **** /**
ARM GAS  /tmp/ccYGdVxC.s 			page 18


 385:../../Drivers/STM32F7xx_HAL_Driver/Src/stm32f7xx_hal_rng.c ****   * @brief  Returns generated random number in polling mode (Obsolete)
 386:../../Drivers/STM32F7xx_HAL_Driver/Src/stm32f7xx_hal_rng.c ****   *         Use HAL_RNG_GenerateRandomNumber() API instead.
 387:../../Drivers/STM32F7xx_HAL_Driver/Src/stm32f7xx_hal_rng.c ****   * @param  hrng: pointer to a RNG_HandleTypeDef structure that contains
 388:../../Drivers/STM32F7xx_HAL_Driver/Src/stm32f7xx_hal_rng.c ****   *                the configuration information for RNG.
 389:../../Drivers/STM32F7xx_HAL_Driver/Src/stm32f7xx_hal_rng.c ****   * @retval Random value
 390:../../Drivers/STM32F7xx_HAL_Driver/Src/stm32f7xx_hal_rng.c ****   */
 391:../../Drivers/STM32F7xx_HAL_Driver/Src/stm32f7xx_hal_rng.c **** uint32_t HAL_RNG_GetRandomNumber(RNG_HandleTypeDef *hrng)
 392:../../Drivers/STM32F7xx_HAL_Driver/Src/stm32f7xx_hal_rng.c **** {
 600              		.loc 1 392 0
 601              		.cfi_startproc
 602              		@ args = 0, pretend = 0, frame = 8
 603              		@ frame_needed = 1, uses_anonymous_args = 0
 604 0000 80B5     		push	{r7, lr}
 605              	.LCFI38:
 606              		.cfi_def_cfa_offset 8
 607              		.cfi_offset 7, -8
 608              		.cfi_offset 14, -4
 609 0002 82B0     		sub	sp, sp, #8
 610              	.LCFI39:
 611              		.cfi_def_cfa_offset 16
 612 0004 00AF     		add	r7, sp, #0
 613              	.LCFI40:
 614              		.cfi_def_cfa_register 7
 615 0006 7860     		str	r0, [r7, #4]
 393:../../Drivers/STM32F7xx_HAL_Driver/Src/stm32f7xx_hal_rng.c ****   if(HAL_RNG_GenerateRandomNumber(hrng, &(hrng->RandomNumber)) == HAL_OK)
 616              		.loc 1 393 0
 617 0008 7B68     		ldr	r3, [r7, #4]
 618 000a 0433     		adds	r3, r3, #4
 619 000c 7868     		ldr	r0, [r7, #4]
 620 000e 1946     		mov	r1, r3
 621 0010 FFF7FEFF 		bl	HAL_RNG_GenerateRandomNumber
 622 0014 0346     		mov	r3, r0
 623 0016 002B     		cmp	r3, #0
 624 0018 02D1     		bne	.L28
 394:../../Drivers/STM32F7xx_HAL_Driver/Src/stm32f7xx_hal_rng.c ****   {
 395:../../Drivers/STM32F7xx_HAL_Driver/Src/stm32f7xx_hal_rng.c ****     return hrng->RandomNumber; 
 625              		.loc 1 395 0
 626 001a 7B68     		ldr	r3, [r7, #4]
 627 001c 5B68     		ldr	r3, [r3, #4]
 628 001e 00E0     		b	.L29
 629              	.L28:
 396:../../Drivers/STM32F7xx_HAL_Driver/Src/stm32f7xx_hal_rng.c ****   }
 397:../../Drivers/STM32F7xx_HAL_Driver/Src/stm32f7xx_hal_rng.c ****   else
 398:../../Drivers/STM32F7xx_HAL_Driver/Src/stm32f7xx_hal_rng.c ****   {
 399:../../Drivers/STM32F7xx_HAL_Driver/Src/stm32f7xx_hal_rng.c ****     return 0;
 630              		.loc 1 399 0
 631 0020 0023     		movs	r3, #0
 632              	.L29:
 400:../../Drivers/STM32F7xx_HAL_Driver/Src/stm32f7xx_hal_rng.c ****   }
 401:../../Drivers/STM32F7xx_HAL_Driver/Src/stm32f7xx_hal_rng.c **** }
 633              		.loc 1 401 0
 634 0022 1846     		mov	r0, r3
 635 0024 0837     		adds	r7, r7, #8
 636              	.LCFI41:
 637              		.cfi_def_cfa_offset 8
 638 0026 BD46     		mov	sp, r7
 639              	.LCFI42:
ARM GAS  /tmp/ccYGdVxC.s 			page 19


 640              		.cfi_def_cfa_register 13
 641              		@ sp needed
 642 0028 80BD     		pop	{r7, pc}
 643              		.cfi_endproc
 644              	.LFE142:
 646 002a 00BF     		.section	.text.HAL_RNG_GetRandomNumber_IT,"ax",%progbits
 647              		.align	2
 648              		.global	HAL_RNG_GetRandomNumber_IT
 649              		.thumb
 650              		.thumb_func
 652              	HAL_RNG_GetRandomNumber_IT:
 653              	.LFB143:
 402:../../Drivers/STM32F7xx_HAL_Driver/Src/stm32f7xx_hal_rng.c **** 
 403:../../Drivers/STM32F7xx_HAL_Driver/Src/stm32f7xx_hal_rng.c **** /**
 404:../../Drivers/STM32F7xx_HAL_Driver/Src/stm32f7xx_hal_rng.c ****   * @brief  Returns a 32-bit random number with interrupt enabled (Obsolete),
 405:../../Drivers/STM32F7xx_HAL_Driver/Src/stm32f7xx_hal_rng.c ****   *         Use HAL_RNG_GenerateRandomNumber_IT() API instead.
 406:../../Drivers/STM32F7xx_HAL_Driver/Src/stm32f7xx_hal_rng.c ****   * @param  hrng: pointer to a RNG_HandleTypeDef structure that contains
 407:../../Drivers/STM32F7xx_HAL_Driver/Src/stm32f7xx_hal_rng.c ****   *                the configuration information for RNG.
 408:../../Drivers/STM32F7xx_HAL_Driver/Src/stm32f7xx_hal_rng.c ****   * @retval 32-bit random number
 409:../../Drivers/STM32F7xx_HAL_Driver/Src/stm32f7xx_hal_rng.c ****   */
 410:../../Drivers/STM32F7xx_HAL_Driver/Src/stm32f7xx_hal_rng.c **** uint32_t HAL_RNG_GetRandomNumber_IT(RNG_HandleTypeDef *hrng)
 411:../../Drivers/STM32F7xx_HAL_Driver/Src/stm32f7xx_hal_rng.c **** {
 654              		.loc 1 411 0
 655              		.cfi_startproc
 656              		@ args = 0, pretend = 0, frame = 16
 657              		@ frame_needed = 1, uses_anonymous_args = 0
 658              		@ link register save eliminated.
 659 0000 80B4     		push	{r7}
 660              	.LCFI43:
 661              		.cfi_def_cfa_offset 4
 662              		.cfi_offset 7, -4
 663 0002 85B0     		sub	sp, sp, #20
 664              	.LCFI44:
 665              		.cfi_def_cfa_offset 24
 666 0004 00AF     		add	r7, sp, #0
 667              	.LCFI45:
 668              		.cfi_def_cfa_register 7
 669 0006 7860     		str	r0, [r7, #4]
 412:../../Drivers/STM32F7xx_HAL_Driver/Src/stm32f7xx_hal_rng.c ****   uint32_t random32bit = 0;
 670              		.loc 1 412 0
 671 0008 0023     		movs	r3, #0
 672 000a FB60     		str	r3, [r7, #12]
 413:../../Drivers/STM32F7xx_HAL_Driver/Src/stm32f7xx_hal_rng.c ****   
 414:../../Drivers/STM32F7xx_HAL_Driver/Src/stm32f7xx_hal_rng.c ****   /* Process locked */
 415:../../Drivers/STM32F7xx_HAL_Driver/Src/stm32f7xx_hal_rng.c ****   __HAL_LOCK(hrng);
 673              		.loc 1 415 0
 674 000c 7B68     		ldr	r3, [r7, #4]
 675 000e 1B7A     		ldrb	r3, [r3, #8]	@ zero_extendqisi2
 676 0010 012B     		cmp	r3, #1
 677 0012 01D1     		bne	.L31
 678              		.loc 1 415 0 is_stmt 0 discriminator 1
 679 0014 0223     		movs	r3, #2
 680 0016 12E0     		b	.L32
 681              	.L31:
 682              		.loc 1 415 0 discriminator 2
 683 0018 7B68     		ldr	r3, [r7, #4]
 684 001a 0122     		movs	r2, #1
ARM GAS  /tmp/ccYGdVxC.s 			page 20


 685 001c 1A72     		strb	r2, [r3, #8]
 416:../../Drivers/STM32F7xx_HAL_Driver/Src/stm32f7xx_hal_rng.c ****   
 417:../../Drivers/STM32F7xx_HAL_Driver/Src/stm32f7xx_hal_rng.c ****   /* Change RNG peripheral state */  
 418:../../Drivers/STM32F7xx_HAL_Driver/Src/stm32f7xx_hal_rng.c ****   hrng->State = HAL_RNG_STATE_BUSY;  
 686              		.loc 1 418 0 is_stmt 1 discriminator 2
 687 001e 7B68     		ldr	r3, [r7, #4]
 688 0020 0222     		movs	r2, #2
 689 0022 5A72     		strb	r2, [r3, #9]
 419:../../Drivers/STM32F7xx_HAL_Driver/Src/stm32f7xx_hal_rng.c ****   
 420:../../Drivers/STM32F7xx_HAL_Driver/Src/stm32f7xx_hal_rng.c ****   /* Get a 32bit Random number */ 
 421:../../Drivers/STM32F7xx_HAL_Driver/Src/stm32f7xx_hal_rng.c ****   random32bit = hrng->Instance->DR;
 690              		.loc 1 421 0 discriminator 2
 691 0024 7B68     		ldr	r3, [r7, #4]
 692 0026 1B68     		ldr	r3, [r3]
 693 0028 9B68     		ldr	r3, [r3, #8]
 694 002a FB60     		str	r3, [r7, #12]
 422:../../Drivers/STM32F7xx_HAL_Driver/Src/stm32f7xx_hal_rng.c ****   
 423:../../Drivers/STM32F7xx_HAL_Driver/Src/stm32f7xx_hal_rng.c ****   /* Enable the RNG Interrupts: Data Ready, Clock error, Seed error */ 
 424:../../Drivers/STM32F7xx_HAL_Driver/Src/stm32f7xx_hal_rng.c ****   __HAL_RNG_ENABLE_IT(hrng); 
 695              		.loc 1 424 0 discriminator 2
 696 002c 7B68     		ldr	r3, [r7, #4]
 697 002e 1B68     		ldr	r3, [r3]
 698 0030 7A68     		ldr	r2, [r7, #4]
 699 0032 1268     		ldr	r2, [r2]
 700 0034 1268     		ldr	r2, [r2]
 701 0036 42F00802 		orr	r2, r2, #8
 702 003a 1A60     		str	r2, [r3]
 425:../../Drivers/STM32F7xx_HAL_Driver/Src/stm32f7xx_hal_rng.c ****   
 426:../../Drivers/STM32F7xx_HAL_Driver/Src/stm32f7xx_hal_rng.c ****   /* Return the 32 bit random number */   
 427:../../Drivers/STM32F7xx_HAL_Driver/Src/stm32f7xx_hal_rng.c ****   return random32bit;
 703              		.loc 1 427 0 discriminator 2
 704 003c FB68     		ldr	r3, [r7, #12]
 705              	.L32:
 428:../../Drivers/STM32F7xx_HAL_Driver/Src/stm32f7xx_hal_rng.c **** }
 706              		.loc 1 428 0
 707 003e 1846     		mov	r0, r3
 708 0040 1437     		adds	r7, r7, #20
 709              	.LCFI46:
 710              		.cfi_def_cfa_offset 4
 711 0042 BD46     		mov	sp, r7
 712              	.LCFI47:
 713              		.cfi_def_cfa_register 13
 714              		@ sp needed
 715 0044 5DF8047B 		ldr	r7, [sp], #4
 716              	.LCFI48:
 717              		.cfi_restore 7
 718              		.cfi_def_cfa_offset 0
 719 0048 7047     		bx	lr
 720              		.cfi_endproc
 721              	.LFE143:
 723 004a 00BF     		.section	.text.HAL_RNG_ReadLastRandomNumber,"ax",%progbits
 724              		.align	2
 725              		.global	HAL_RNG_ReadLastRandomNumber
 726              		.thumb
 727              		.thumb_func
 729              	HAL_RNG_ReadLastRandomNumber:
 730              	.LFB144:
ARM GAS  /tmp/ccYGdVxC.s 			page 21


 429:../../Drivers/STM32F7xx_HAL_Driver/Src/stm32f7xx_hal_rng.c **** 
 430:../../Drivers/STM32F7xx_HAL_Driver/Src/stm32f7xx_hal_rng.c **** /**
 431:../../Drivers/STM32F7xx_HAL_Driver/Src/stm32f7xx_hal_rng.c ****   * @brief  Read latest generated random number. 
 432:../../Drivers/STM32F7xx_HAL_Driver/Src/stm32f7xx_hal_rng.c ****   * @param  hrng: pointer to a RNG_HandleTypeDef structure that contains
 433:../../Drivers/STM32F7xx_HAL_Driver/Src/stm32f7xx_hal_rng.c ****   *                the configuration information for RNG.
 434:../../Drivers/STM32F7xx_HAL_Driver/Src/stm32f7xx_hal_rng.c ****   * @retval random value
 435:../../Drivers/STM32F7xx_HAL_Driver/Src/stm32f7xx_hal_rng.c ****   */
 436:../../Drivers/STM32F7xx_HAL_Driver/Src/stm32f7xx_hal_rng.c **** uint32_t HAL_RNG_ReadLastRandomNumber(RNG_HandleTypeDef *hrng)
 437:../../Drivers/STM32F7xx_HAL_Driver/Src/stm32f7xx_hal_rng.c **** {
 731              		.loc 1 437 0
 732              		.cfi_startproc
 733              		@ args = 0, pretend = 0, frame = 8
 734              		@ frame_needed = 1, uses_anonymous_args = 0
 735              		@ link register save eliminated.
 736 0000 80B4     		push	{r7}
 737              	.LCFI49:
 738              		.cfi_def_cfa_offset 4
 739              		.cfi_offset 7, -4
 740 0002 83B0     		sub	sp, sp, #12
 741              	.LCFI50:
 742              		.cfi_def_cfa_offset 16
 743 0004 00AF     		add	r7, sp, #0
 744              	.LCFI51:
 745              		.cfi_def_cfa_register 7
 746 0006 7860     		str	r0, [r7, #4]
 438:../../Drivers/STM32F7xx_HAL_Driver/Src/stm32f7xx_hal_rng.c ****   return(hrng->RandomNumber);
 747              		.loc 1 438 0
 748 0008 7B68     		ldr	r3, [r7, #4]
 749 000a 5B68     		ldr	r3, [r3, #4]
 439:../../Drivers/STM32F7xx_HAL_Driver/Src/stm32f7xx_hal_rng.c **** }
 750              		.loc 1 439 0
 751 000c 1846     		mov	r0, r3
 752 000e 0C37     		adds	r7, r7, #12
 753              	.LCFI52:
 754              		.cfi_def_cfa_offset 4
 755 0010 BD46     		mov	sp, r7
 756              	.LCFI53:
 757              		.cfi_def_cfa_register 13
 758              		@ sp needed
 759 0012 5DF8047B 		ldr	r7, [sp], #4
 760              	.LCFI54:
 761              		.cfi_restore 7
 762              		.cfi_def_cfa_offset 0
 763 0016 7047     		bx	lr
 764              		.cfi_endproc
 765              	.LFE144:
 767              		.section	.text.HAL_RNG_ReadyDataCallback,"ax",%progbits
 768              		.align	2
 769              		.weak	HAL_RNG_ReadyDataCallback
 770              		.thumb
 771              		.thumb_func
 773              	HAL_RNG_ReadyDataCallback:
 774              	.LFB145:
 440:../../Drivers/STM32F7xx_HAL_Driver/Src/stm32f7xx_hal_rng.c **** 
 441:../../Drivers/STM32F7xx_HAL_Driver/Src/stm32f7xx_hal_rng.c **** /**
 442:../../Drivers/STM32F7xx_HAL_Driver/Src/stm32f7xx_hal_rng.c ****   * @brief  Data Ready callback in non-blocking mode. 
 443:../../Drivers/STM32F7xx_HAL_Driver/Src/stm32f7xx_hal_rng.c ****   * @param  hrng: pointer to a RNG_HandleTypeDef structure that contains
ARM GAS  /tmp/ccYGdVxC.s 			page 22


 444:../../Drivers/STM32F7xx_HAL_Driver/Src/stm32f7xx_hal_rng.c ****   *                the configuration information for RNG.
 445:../../Drivers/STM32F7xx_HAL_Driver/Src/stm32f7xx_hal_rng.c ****   * @param  random32bit: generated random number.
 446:../../Drivers/STM32F7xx_HAL_Driver/Src/stm32f7xx_hal_rng.c ****   * @retval None
 447:../../Drivers/STM32F7xx_HAL_Driver/Src/stm32f7xx_hal_rng.c ****   */
 448:../../Drivers/STM32F7xx_HAL_Driver/Src/stm32f7xx_hal_rng.c **** __weak void HAL_RNG_ReadyDataCallback(RNG_HandleTypeDef *hrng, uint32_t random32bit)
 449:../../Drivers/STM32F7xx_HAL_Driver/Src/stm32f7xx_hal_rng.c **** {
 775              		.loc 1 449 0
 776              		.cfi_startproc
 777              		@ args = 0, pretend = 0, frame = 8
 778              		@ frame_needed = 1, uses_anonymous_args = 0
 779              		@ link register save eliminated.
 780 0000 80B4     		push	{r7}
 781              	.LCFI55:
 782              		.cfi_def_cfa_offset 4
 783              		.cfi_offset 7, -4
 784 0002 83B0     		sub	sp, sp, #12
 785              	.LCFI56:
 786              		.cfi_def_cfa_offset 16
 787 0004 00AF     		add	r7, sp, #0
 788              	.LCFI57:
 789              		.cfi_def_cfa_register 7
 790 0006 7860     		str	r0, [r7, #4]
 791 0008 3960     		str	r1, [r7]
 450:../../Drivers/STM32F7xx_HAL_Driver/Src/stm32f7xx_hal_rng.c ****   /* Prevent unused argument(s) compilation warning */
 451:../../Drivers/STM32F7xx_HAL_Driver/Src/stm32f7xx_hal_rng.c ****   UNUSED(hrng);
 452:../../Drivers/STM32F7xx_HAL_Driver/Src/stm32f7xx_hal_rng.c ****   
 453:../../Drivers/STM32F7xx_HAL_Driver/Src/stm32f7xx_hal_rng.c ****   /* NOTE : This function should not be modified. When the callback is needed,
 454:../../Drivers/STM32F7xx_HAL_Driver/Src/stm32f7xx_hal_rng.c ****             function HAL_RNG_ReadyDataCallback must be implemented in the user file.
 455:../../Drivers/STM32F7xx_HAL_Driver/Src/stm32f7xx_hal_rng.c ****    */
 456:../../Drivers/STM32F7xx_HAL_Driver/Src/stm32f7xx_hal_rng.c **** }
 792              		.loc 1 456 0
 793 000a 0C37     		adds	r7, r7, #12
 794              	.LCFI58:
 795              		.cfi_def_cfa_offset 4
 796 000c BD46     		mov	sp, r7
 797              	.LCFI59:
 798              		.cfi_def_cfa_register 13
 799              		@ sp needed
 800 000e 5DF8047B 		ldr	r7, [sp], #4
 801              	.LCFI60:
 802              		.cfi_restore 7
 803              		.cfi_def_cfa_offset 0
 804 0012 7047     		bx	lr
 805              		.cfi_endproc
 806              	.LFE145:
 808              		.section	.text.HAL_RNG_ErrorCallback,"ax",%progbits
 809              		.align	2
 810              		.weak	HAL_RNG_ErrorCallback
 811              		.thumb
 812              		.thumb_func
 814              	HAL_RNG_ErrorCallback:
 815              	.LFB146:
 457:../../Drivers/STM32F7xx_HAL_Driver/Src/stm32f7xx_hal_rng.c **** 
 458:../../Drivers/STM32F7xx_HAL_Driver/Src/stm32f7xx_hal_rng.c **** /**
 459:../../Drivers/STM32F7xx_HAL_Driver/Src/stm32f7xx_hal_rng.c ****   * @brief  RNG error callbacks.
 460:../../Drivers/STM32F7xx_HAL_Driver/Src/stm32f7xx_hal_rng.c ****   * @param  hrng: pointer to a RNG_HandleTypeDef structure that contains
 461:../../Drivers/STM32F7xx_HAL_Driver/Src/stm32f7xx_hal_rng.c ****   *                the configuration information for RNG.
ARM GAS  /tmp/ccYGdVxC.s 			page 23


 462:../../Drivers/STM32F7xx_HAL_Driver/Src/stm32f7xx_hal_rng.c ****   * @retval None
 463:../../Drivers/STM32F7xx_HAL_Driver/Src/stm32f7xx_hal_rng.c ****   */
 464:../../Drivers/STM32F7xx_HAL_Driver/Src/stm32f7xx_hal_rng.c **** __weak void HAL_RNG_ErrorCallback(RNG_HandleTypeDef *hrng)
 465:../../Drivers/STM32F7xx_HAL_Driver/Src/stm32f7xx_hal_rng.c **** {
 816              		.loc 1 465 0
 817              		.cfi_startproc
 818              		@ args = 0, pretend = 0, frame = 8
 819              		@ frame_needed = 1, uses_anonymous_args = 0
 820              		@ link register save eliminated.
 821 0000 80B4     		push	{r7}
 822              	.LCFI61:
 823              		.cfi_def_cfa_offset 4
 824              		.cfi_offset 7, -4
 825 0002 83B0     		sub	sp, sp, #12
 826              	.LCFI62:
 827              		.cfi_def_cfa_offset 16
 828 0004 00AF     		add	r7, sp, #0
 829              	.LCFI63:
 830              		.cfi_def_cfa_register 7
 831 0006 7860     		str	r0, [r7, #4]
 466:../../Drivers/STM32F7xx_HAL_Driver/Src/stm32f7xx_hal_rng.c ****   /* Prevent unused argument(s) compilation warning */
 467:../../Drivers/STM32F7xx_HAL_Driver/Src/stm32f7xx_hal_rng.c ****   UNUSED(hrng);
 468:../../Drivers/STM32F7xx_HAL_Driver/Src/stm32f7xx_hal_rng.c ****   
 469:../../Drivers/STM32F7xx_HAL_Driver/Src/stm32f7xx_hal_rng.c ****   /* NOTE : This function should not be modified. When the callback is needed,
 470:../../Drivers/STM32F7xx_HAL_Driver/Src/stm32f7xx_hal_rng.c ****             function HAL_RNG_ErrorCallback must be implemented in the user file.
 471:../../Drivers/STM32F7xx_HAL_Driver/Src/stm32f7xx_hal_rng.c ****    */
 472:../../Drivers/STM32F7xx_HAL_Driver/Src/stm32f7xx_hal_rng.c **** }
 832              		.loc 1 472 0
 833 0008 0C37     		adds	r7, r7, #12
 834              	.LCFI64:
 835              		.cfi_def_cfa_offset 4
 836 000a BD46     		mov	sp, r7
 837              	.LCFI65:
 838              		.cfi_def_cfa_register 13
 839              		@ sp needed
 840 000c 5DF8047B 		ldr	r7, [sp], #4
 841              	.LCFI66:
 842              		.cfi_restore 7
 843              		.cfi_def_cfa_offset 0
 844 0010 7047     		bx	lr
 845              		.cfi_endproc
 846              	.LFE146:
 848 0012 00BF     		.section	.text.HAL_RNG_GetState,"ax",%progbits
 849              		.align	2
 850              		.global	HAL_RNG_GetState
 851              		.thumb
 852              		.thumb_func
 854              	HAL_RNG_GetState:
 855              	.LFB147:
 473:../../Drivers/STM32F7xx_HAL_Driver/Src/stm32f7xx_hal_rng.c **** /**
 474:../../Drivers/STM32F7xx_HAL_Driver/Src/stm32f7xx_hal_rng.c ****   * @}
 475:../../Drivers/STM32F7xx_HAL_Driver/Src/stm32f7xx_hal_rng.c ****   */ 
 476:../../Drivers/STM32F7xx_HAL_Driver/Src/stm32f7xx_hal_rng.c **** 
 477:../../Drivers/STM32F7xx_HAL_Driver/Src/stm32f7xx_hal_rng.c ****   
 478:../../Drivers/STM32F7xx_HAL_Driver/Src/stm32f7xx_hal_rng.c **** /** @addtogroup RNG_Exported_Functions_Group3
 479:../../Drivers/STM32F7xx_HAL_Driver/Src/stm32f7xx_hal_rng.c ****  *  @brief   Peripheral State functions 
 480:../../Drivers/STM32F7xx_HAL_Driver/Src/stm32f7xx_hal_rng.c ****  *
ARM GAS  /tmp/ccYGdVxC.s 			page 24


 481:../../Drivers/STM32F7xx_HAL_Driver/Src/stm32f7xx_hal_rng.c **** @verbatim   
 482:../../Drivers/STM32F7xx_HAL_Driver/Src/stm32f7xx_hal_rng.c ****  ===============================================================================
 483:../../Drivers/STM32F7xx_HAL_Driver/Src/stm32f7xx_hal_rng.c ****                       ##### Peripheral State functions #####
 484:../../Drivers/STM32F7xx_HAL_Driver/Src/stm32f7xx_hal_rng.c ****  ===============================================================================  
 485:../../Drivers/STM32F7xx_HAL_Driver/Src/stm32f7xx_hal_rng.c ****     [..]
 486:../../Drivers/STM32F7xx_HAL_Driver/Src/stm32f7xx_hal_rng.c ****     This subsection permits to get in run-time the status of the peripheral 
 487:../../Drivers/STM32F7xx_HAL_Driver/Src/stm32f7xx_hal_rng.c ****     and the data flow.
 488:../../Drivers/STM32F7xx_HAL_Driver/Src/stm32f7xx_hal_rng.c **** 
 489:../../Drivers/STM32F7xx_HAL_Driver/Src/stm32f7xx_hal_rng.c **** @endverbatim
 490:../../Drivers/STM32F7xx_HAL_Driver/Src/stm32f7xx_hal_rng.c ****   * @{
 491:../../Drivers/STM32F7xx_HAL_Driver/Src/stm32f7xx_hal_rng.c ****   */
 492:../../Drivers/STM32F7xx_HAL_Driver/Src/stm32f7xx_hal_rng.c ****   
 493:../../Drivers/STM32F7xx_HAL_Driver/Src/stm32f7xx_hal_rng.c **** /**
 494:../../Drivers/STM32F7xx_HAL_Driver/Src/stm32f7xx_hal_rng.c ****   * @brief  Returns the RNG state.
 495:../../Drivers/STM32F7xx_HAL_Driver/Src/stm32f7xx_hal_rng.c ****   * @param  hrng: pointer to a RNG_HandleTypeDef structure that contains
 496:../../Drivers/STM32F7xx_HAL_Driver/Src/stm32f7xx_hal_rng.c ****   *                the configuration information for RNG.
 497:../../Drivers/STM32F7xx_HAL_Driver/Src/stm32f7xx_hal_rng.c ****   * @retval HAL state
 498:../../Drivers/STM32F7xx_HAL_Driver/Src/stm32f7xx_hal_rng.c ****   */
 499:../../Drivers/STM32F7xx_HAL_Driver/Src/stm32f7xx_hal_rng.c **** HAL_RNG_StateTypeDef HAL_RNG_GetState(RNG_HandleTypeDef *hrng)
 500:../../Drivers/STM32F7xx_HAL_Driver/Src/stm32f7xx_hal_rng.c **** {
 856              		.loc 1 500 0
 857              		.cfi_startproc
 858              		@ args = 0, pretend = 0, frame = 8
 859              		@ frame_needed = 1, uses_anonymous_args = 0
 860              		@ link register save eliminated.
 861 0000 80B4     		push	{r7}
 862              	.LCFI67:
 863              		.cfi_def_cfa_offset 4
 864              		.cfi_offset 7, -4
 865 0002 83B0     		sub	sp, sp, #12
 866              	.LCFI68:
 867              		.cfi_def_cfa_offset 16
 868 0004 00AF     		add	r7, sp, #0
 869              	.LCFI69:
 870              		.cfi_def_cfa_register 7
 871 0006 7860     		str	r0, [r7, #4]
 501:../../Drivers/STM32F7xx_HAL_Driver/Src/stm32f7xx_hal_rng.c ****   return hrng->State;
 872              		.loc 1 501 0
 873 0008 7B68     		ldr	r3, [r7, #4]
 874 000a 5B7A     		ldrb	r3, [r3, #9]
 875 000c DBB2     		uxtb	r3, r3
 502:../../Drivers/STM32F7xx_HAL_Driver/Src/stm32f7xx_hal_rng.c **** }
 876              		.loc 1 502 0
 877 000e 1846     		mov	r0, r3
 878 0010 0C37     		adds	r7, r7, #12
 879              	.LCFI70:
 880              		.cfi_def_cfa_offset 4
 881 0012 BD46     		mov	sp, r7
 882              	.LCFI71:
 883              		.cfi_def_cfa_register 13
 884              		@ sp needed
 885 0014 5DF8047B 		ldr	r7, [sp], #4
 886              	.LCFI72:
 887              		.cfi_restore 7
 888              		.cfi_def_cfa_offset 0
 889 0018 7047     		bx	lr
 890              		.cfi_endproc
ARM GAS  /tmp/ccYGdVxC.s 			page 25


 891              	.LFE147:
 893 001a 00BF     		.text
 894              	.Letext0:
 895              		.file 2 "/usr/arm-none-eabi/include/machine/_default_types.h"
 896              		.file 3 "/usr/arm-none-eabi/include/sys/_stdint.h"
 897              		.file 4 "../../Drivers/CMSIS/Device/ST/STM32F7xx/Include/stm32f769xx.h"
 898              		.file 5 "../../Drivers/CMSIS/Device/ST/STM32F7xx/Include/stm32f7xx.h"
 899              		.file 6 "../../Drivers/STM32F7xx_HAL_Driver/Inc/stm32f7xx_hal_def.h"
 900              		.file 7 "../../Drivers/STM32F7xx_HAL_Driver/Inc/stm32f7xx_hal_rng.h"
 901              		.file 8 "../../Drivers/CMSIS/Include/core_cm7.h"
ARM GAS  /tmp/ccYGdVxC.s 			page 26

