ARM GAS  /tmp/cczIhzQ0.s 			page 1


   1              		.syntax unified
   2              		.cpu cortex-m7
   3              		.eabi_attribute 27, 1
   4              		.eabi_attribute 28, 1
   5              		.fpu fpv5-sp-d16
   6              		.eabi_attribute 20, 1
   7              		.eabi_attribute 21, 1
   8              		.eabi_attribute 23, 3
   9              		.eabi_attribute 24, 1
  10              		.eabi_attribute 25, 1
  11              		.eabi_attribute 26, 1
  12              		.eabi_attribute 30, 6
  13              		.eabi_attribute 34, 1
  14              		.eabi_attribute 18, 4
  15              		.thumb
  16              		.file	"stm32f7xx_hal_i2c.c"
  17              		.text
  18              	.Ltext0:
  19              		.cfi_sections	.debug_frame
  20              		.section	.text.HAL_I2C_Init,"ax",%progbits
  21              		.align	2
  22              		.global	HAL_I2C_Init
  23              		.thumb
  24              		.thumb_func
  26              	HAL_I2C_Init:
  27              	.LFB135:
  28              		.file 1 "../../Drivers/STM32F7xx_HAL_Driver/Src/stm32f7xx_hal_i2c.c"
   1:../../Drivers/STM32F7xx_HAL_Driver/Src/stm32f7xx_hal_i2c.c **** /**
   2:../../Drivers/STM32F7xx_HAL_Driver/Src/stm32f7xx_hal_i2c.c ****   ******************************************************************************
   3:../../Drivers/STM32F7xx_HAL_Driver/Src/stm32f7xx_hal_i2c.c ****   * @file    stm32f7xx_hal_i2c.c
   4:../../Drivers/STM32F7xx_HAL_Driver/Src/stm32f7xx_hal_i2c.c ****   * @author  MCD Application Team
   5:../../Drivers/STM32F7xx_HAL_Driver/Src/stm32f7xx_hal_i2c.c ****   * @version V1.1.2
   6:../../Drivers/STM32F7xx_HAL_Driver/Src/stm32f7xx_hal_i2c.c ****   * @date    23-September-2016 
   7:../../Drivers/STM32F7xx_HAL_Driver/Src/stm32f7xx_hal_i2c.c ****   * @brief   I2C HAL module driver.
   8:../../Drivers/STM32F7xx_HAL_Driver/Src/stm32f7xx_hal_i2c.c ****   *          This file provides firmware functions to manage the following
   9:../../Drivers/STM32F7xx_HAL_Driver/Src/stm32f7xx_hal_i2c.c ****   *          functionalities of the Inter Integrated Circuit (I2C) peripheral:
  10:../../Drivers/STM32F7xx_HAL_Driver/Src/stm32f7xx_hal_i2c.c ****   *           + Initialization and de-initialization functions
  11:../../Drivers/STM32F7xx_HAL_Driver/Src/stm32f7xx_hal_i2c.c ****   *           + IO operation functions
  12:../../Drivers/STM32F7xx_HAL_Driver/Src/stm32f7xx_hal_i2c.c ****   *           + Peripheral State and Errors functions
  13:../../Drivers/STM32F7xx_HAL_Driver/Src/stm32f7xx_hal_i2c.c ****   *
  14:../../Drivers/STM32F7xx_HAL_Driver/Src/stm32f7xx_hal_i2c.c ****   @verbatim
  15:../../Drivers/STM32F7xx_HAL_Driver/Src/stm32f7xx_hal_i2c.c ****   ==============================================================================
  16:../../Drivers/STM32F7xx_HAL_Driver/Src/stm32f7xx_hal_i2c.c ****                         ##### How to use this driver #####
  17:../../Drivers/STM32F7xx_HAL_Driver/Src/stm32f7xx_hal_i2c.c ****   ==============================================================================
  18:../../Drivers/STM32F7xx_HAL_Driver/Src/stm32f7xx_hal_i2c.c ****     [..]
  19:../../Drivers/STM32F7xx_HAL_Driver/Src/stm32f7xx_hal_i2c.c ****     The I2C HAL driver can be used as follows:
  20:../../Drivers/STM32F7xx_HAL_Driver/Src/stm32f7xx_hal_i2c.c ****     
  21:../../Drivers/STM32F7xx_HAL_Driver/Src/stm32f7xx_hal_i2c.c ****     (#) Declare a I2C_HandleTypeDef handle structure, for example:
  22:../../Drivers/STM32F7xx_HAL_Driver/Src/stm32f7xx_hal_i2c.c ****         I2C_HandleTypeDef  hi2c;
  23:../../Drivers/STM32F7xx_HAL_Driver/Src/stm32f7xx_hal_i2c.c **** 
  24:../../Drivers/STM32F7xx_HAL_Driver/Src/stm32f7xx_hal_i2c.c ****     (#)Initialize the I2C low level resources by implementing the HAL_I2C_MspInit() API:
  25:../../Drivers/STM32F7xx_HAL_Driver/Src/stm32f7xx_hal_i2c.c ****         (##) Enable the I2Cx interface clock
  26:../../Drivers/STM32F7xx_HAL_Driver/Src/stm32f7xx_hal_i2c.c ****         (##) I2C pins configuration
  27:../../Drivers/STM32F7xx_HAL_Driver/Src/stm32f7xx_hal_i2c.c ****             (+++) Enable the clock for the I2C GPIOs
  28:../../Drivers/STM32F7xx_HAL_Driver/Src/stm32f7xx_hal_i2c.c ****             (+++) Configure I2C pins as alternate function open-drain
  29:../../Drivers/STM32F7xx_HAL_Driver/Src/stm32f7xx_hal_i2c.c ****         (##) NVIC configuration if you need to use interrupt process
  30:../../Drivers/STM32F7xx_HAL_Driver/Src/stm32f7xx_hal_i2c.c ****             (+++) Configure the I2Cx interrupt priority
ARM GAS  /tmp/cczIhzQ0.s 			page 2


  31:../../Drivers/STM32F7xx_HAL_Driver/Src/stm32f7xx_hal_i2c.c ****             (+++) Enable the NVIC I2C IRQ Channel
  32:../../Drivers/STM32F7xx_HAL_Driver/Src/stm32f7xx_hal_i2c.c ****         (##) DMA Configuration if you need to use DMA process
  33:../../Drivers/STM32F7xx_HAL_Driver/Src/stm32f7xx_hal_i2c.c ****             (+++) Declare a DMA_HandleTypeDef handle structure for the transmit or receive stream
  34:../../Drivers/STM32F7xx_HAL_Driver/Src/stm32f7xx_hal_i2c.c ****             (+++) Enable the DMAx interface clock using
  35:../../Drivers/STM32F7xx_HAL_Driver/Src/stm32f7xx_hal_i2c.c ****             (+++) Configure the DMA handle parameters
  36:../../Drivers/STM32F7xx_HAL_Driver/Src/stm32f7xx_hal_i2c.c ****             (+++) Configure the DMA Tx or Rx stream
  37:../../Drivers/STM32F7xx_HAL_Driver/Src/stm32f7xx_hal_i2c.c ****             (+++) Associate the initialized DMA handle to the hi2c DMA Tx or Rx handle
  38:../../Drivers/STM32F7xx_HAL_Driver/Src/stm32f7xx_hal_i2c.c ****             (+++) Configure the priority and enable the NVIC for the transfer complete interrupt on
  39:../../Drivers/STM32F7xx_HAL_Driver/Src/stm32f7xx_hal_i2c.c ****                   the DMA Tx or Rx stream
  40:../../Drivers/STM32F7xx_HAL_Driver/Src/stm32f7xx_hal_i2c.c **** 
  41:../../Drivers/STM32F7xx_HAL_Driver/Src/stm32f7xx_hal_i2c.c ****     (#) Configure the Communication Clock Timing, Own Address1, Master Addressing mode, Dual Addres
  42:../../Drivers/STM32F7xx_HAL_Driver/Src/stm32f7xx_hal_i2c.c ****         Own Address2, Own Address2 Mask, General call and Nostretch mode in the hi2c Init structure
  43:../../Drivers/STM32F7xx_HAL_Driver/Src/stm32f7xx_hal_i2c.c **** 
  44:../../Drivers/STM32F7xx_HAL_Driver/Src/stm32f7xx_hal_i2c.c ****     (#) Initialize the I2C registers by calling the HAL_I2C_Init(), configures also the low level H
  45:../../Drivers/STM32F7xx_HAL_Driver/Src/stm32f7xx_hal_i2c.c ****         (GPIO, CLOCK, NVIC...etc) by calling the customized HAL_I2C_MspInit(&hi2c) API.
  46:../../Drivers/STM32F7xx_HAL_Driver/Src/stm32f7xx_hal_i2c.c **** 
  47:../../Drivers/STM32F7xx_HAL_Driver/Src/stm32f7xx_hal_i2c.c ****     (#) To check if target device is ready for communication, use the function HAL_I2C_IsDeviceRead
  48:../../Drivers/STM32F7xx_HAL_Driver/Src/stm32f7xx_hal_i2c.c **** 
  49:../../Drivers/STM32F7xx_HAL_Driver/Src/stm32f7xx_hal_i2c.c ****     (#) For I2C IO and IO MEM operations, three operation modes are available within this driver :
  50:../../Drivers/STM32F7xx_HAL_Driver/Src/stm32f7xx_hal_i2c.c **** 
  51:../../Drivers/STM32F7xx_HAL_Driver/Src/stm32f7xx_hal_i2c.c ****     *** Polling mode IO operation ***
  52:../../Drivers/STM32F7xx_HAL_Driver/Src/stm32f7xx_hal_i2c.c ****     =================================
  53:../../Drivers/STM32F7xx_HAL_Driver/Src/stm32f7xx_hal_i2c.c ****     [..]
  54:../../Drivers/STM32F7xx_HAL_Driver/Src/stm32f7xx_hal_i2c.c ****       (+) Transmit in master mode an amount of data in blocking mode using HAL_I2C_Master_Transmit(
  55:../../Drivers/STM32F7xx_HAL_Driver/Src/stm32f7xx_hal_i2c.c ****       (+) Receive in master mode an amount of data in blocking mode using HAL_I2C_Master_Receive()
  56:../../Drivers/STM32F7xx_HAL_Driver/Src/stm32f7xx_hal_i2c.c ****       (+) Transmit in slave mode an amount of data in blocking mode using HAL_I2C_Slave_Transmit()
  57:../../Drivers/STM32F7xx_HAL_Driver/Src/stm32f7xx_hal_i2c.c ****       (+) Receive in slave mode an amount of data in blocking mode using HAL_I2C_Slave_Receive()
  58:../../Drivers/STM32F7xx_HAL_Driver/Src/stm32f7xx_hal_i2c.c **** 
  59:../../Drivers/STM32F7xx_HAL_Driver/Src/stm32f7xx_hal_i2c.c ****     *** Polling mode IO MEM operation ***
  60:../../Drivers/STM32F7xx_HAL_Driver/Src/stm32f7xx_hal_i2c.c ****     =====================================
  61:../../Drivers/STM32F7xx_HAL_Driver/Src/stm32f7xx_hal_i2c.c ****     [..]
  62:../../Drivers/STM32F7xx_HAL_Driver/Src/stm32f7xx_hal_i2c.c ****       (+) Write an amount of data in blocking mode to a specific memory address using HAL_I2C_Mem_W
  63:../../Drivers/STM32F7xx_HAL_Driver/Src/stm32f7xx_hal_i2c.c ****       (+) Read an amount of data in blocking mode from a specific memory address using HAL_I2C_Mem_
  64:../../Drivers/STM32F7xx_HAL_Driver/Src/stm32f7xx_hal_i2c.c **** 
  65:../../Drivers/STM32F7xx_HAL_Driver/Src/stm32f7xx_hal_i2c.c **** 
  66:../../Drivers/STM32F7xx_HAL_Driver/Src/stm32f7xx_hal_i2c.c ****     *** Interrupt mode IO operation ***
  67:../../Drivers/STM32F7xx_HAL_Driver/Src/stm32f7xx_hal_i2c.c ****     ===================================
  68:../../Drivers/STM32F7xx_HAL_Driver/Src/stm32f7xx_hal_i2c.c ****     [..]
  69:../../Drivers/STM32F7xx_HAL_Driver/Src/stm32f7xx_hal_i2c.c ****       (+) Transmit in master mode an amount of data in non-blocking mode using HAL_I2C_Master_Trans
  70:../../Drivers/STM32F7xx_HAL_Driver/Src/stm32f7xx_hal_i2c.c ****       (+) At transmission end of transfer, HAL_I2C_MasterTxCpltCallback() is executed and user can
  71:../../Drivers/STM32F7xx_HAL_Driver/Src/stm32f7xx_hal_i2c.c ****            add his own code by customization of function pointer HAL_I2C_MasterTxCpltCallback()
  72:../../Drivers/STM32F7xx_HAL_Driver/Src/stm32f7xx_hal_i2c.c ****       (+) Receive in master mode an amount of data in non-blocking mode using HAL_I2C_Master_Receiv
  73:../../Drivers/STM32F7xx_HAL_Driver/Src/stm32f7xx_hal_i2c.c ****       (+) At reception end of transfer, HAL_I2C_MasterRxCpltCallback() is executed and user can
  74:../../Drivers/STM32F7xx_HAL_Driver/Src/stm32f7xx_hal_i2c.c ****            add his own code by customization of function pointer HAL_I2C_MasterRxCpltCallback()
  75:../../Drivers/STM32F7xx_HAL_Driver/Src/stm32f7xx_hal_i2c.c ****       (+) Transmit in slave mode an amount of data in non-blocking mode using HAL_I2C_Slave_Transmi
  76:../../Drivers/STM32F7xx_HAL_Driver/Src/stm32f7xx_hal_i2c.c ****       (+) At transmission end of transfer, HAL_I2C_SlaveTxCpltCallback() is executed and user can
  77:../../Drivers/STM32F7xx_HAL_Driver/Src/stm32f7xx_hal_i2c.c ****            add his own code by customization of function pointer HAL_I2C_SlaveTxCpltCallback()
  78:../../Drivers/STM32F7xx_HAL_Driver/Src/stm32f7xx_hal_i2c.c ****       (+) Receive in slave mode an amount of data in non-blocking mode using HAL_I2C_Slave_Receive_
  79:../../Drivers/STM32F7xx_HAL_Driver/Src/stm32f7xx_hal_i2c.c ****       (+) At reception end of transfer, HAL_I2C_SlaveRxCpltCallback() is executed and user can
  80:../../Drivers/STM32F7xx_HAL_Driver/Src/stm32f7xx_hal_i2c.c ****            add his own code by customization of function pointer HAL_I2C_SlaveRxCpltCallback()
  81:../../Drivers/STM32F7xx_HAL_Driver/Src/stm32f7xx_hal_i2c.c ****       (+) In case of transfer Error, HAL_I2C_ErrorCallback() function is executed and user can
  82:../../Drivers/STM32F7xx_HAL_Driver/Src/stm32f7xx_hal_i2c.c ****            add his own code by customization of function pointer HAL_I2C_ErrorCallback()
  83:../../Drivers/STM32F7xx_HAL_Driver/Src/stm32f7xx_hal_i2c.c ****       (+) Abort a master I2C process communication with Interrupt using HAL_I2C_Master_Abort_IT()
  84:../../Drivers/STM32F7xx_HAL_Driver/Src/stm32f7xx_hal_i2c.c ****       (+) End of abort process, HAL_I2C_MasterRxCpltCallback() or HAL_I2C_MasterTxCpltCallback() is
  85:../../Drivers/STM32F7xx_HAL_Driver/Src/stm32f7xx_hal_i2c.c ****            add his own code by customization of function pointer HAL_I2C_MasterRxCpltCallback() or 
  86:../../Drivers/STM32F7xx_HAL_Driver/Src/stm32f7xx_hal_i2c.c ****       (+) Discard a slave I2C process communication using __HAL_I2C_GENERATE_NACK() macro.
  87:../../Drivers/STM32F7xx_HAL_Driver/Src/stm32f7xx_hal_i2c.c ****            This action will inform Master to generate a Stop condition to discard the communication
ARM GAS  /tmp/cczIhzQ0.s 			page 3


  88:../../Drivers/STM32F7xx_HAL_Driver/Src/stm32f7xx_hal_i2c.c **** 
  89:../../Drivers/STM32F7xx_HAL_Driver/Src/stm32f7xx_hal_i2c.c **** 
  90:../../Drivers/STM32F7xx_HAL_Driver/Src/stm32f7xx_hal_i2c.c ****     *** Interrupt mode IO sequential operation ***
  91:../../Drivers/STM32F7xx_HAL_Driver/Src/stm32f7xx_hal_i2c.c ****     ===================================
  92:../../Drivers/STM32F7xx_HAL_Driver/Src/stm32f7xx_hal_i2c.c ****     [..]
  93:../../Drivers/STM32F7xx_HAL_Driver/Src/stm32f7xx_hal_i2c.c ****       (@) These interfaces allow to manage a sequential transfer with a repeated start condition
  94:../../Drivers/STM32F7xx_HAL_Driver/Src/stm32f7xx_hal_i2c.c ****           when a direction change during transfer
  95:../../Drivers/STM32F7xx_HAL_Driver/Src/stm32f7xx_hal_i2c.c ****     [..]
  96:../../Drivers/STM32F7xx_HAL_Driver/Src/stm32f7xx_hal_i2c.c ****       (+) A specific option field manage the different steps of a sequential transfer
  97:../../Drivers/STM32F7xx_HAL_Driver/Src/stm32f7xx_hal_i2c.c ****       (+) Option field values are defined through I2C_XFEROPTIONS and are listed below:
  98:../../Drivers/STM32F7xx_HAL_Driver/Src/stm32f7xx_hal_i2c.c ****       (++) I2C_FIRST_AND_LAST_FRAME: No sequential usage, functionnal is same as associated interfa
  99:../../Drivers/STM32F7xx_HAL_Driver/Src/stm32f7xx_hal_i2c.c ****       (++) I2C_FIRST_FRAME: Sequential usage, this option allow to manage a sequence with start con
 100:../../Drivers/STM32F7xx_HAL_Driver/Src/stm32f7xx_hal_i2c.c ****                             and data to transfer without a final stop condition
 101:../../Drivers/STM32F7xx_HAL_Driver/Src/stm32f7xx_hal_i2c.c **** 	  (++) I2C_FIRST_AND_NEXT_FRAME: Sequential usage (Master only), this option allow to manage a seq
 102:../../Drivers/STM32F7xx_HAL_Driver/Src/stm32f7xx_hal_i2c.c ****                             and data to transfer without a final stop condition, an then permit a c
 103:../../Drivers/STM32F7xx_HAL_Driver/Src/stm32f7xx_hal_i2c.c ****                             several times (like HAL_I2C_Master_Sequential_Transmit_IT() then HAL_I2
 104:../../Drivers/STM32F7xx_HAL_Driver/Src/stm32f7xx_hal_i2c.c ****       (++) I2C_NEXT_FRAME: Sequential usage, this option allow to manage a sequence with a restart 
 105:../../Drivers/STM32F7xx_HAL_Driver/Src/stm32f7xx_hal_i2c.c ****                             and with new data to transfer if the direction change or manage only th
 106:../../Drivers/STM32F7xx_HAL_Driver/Src/stm32f7xx_hal_i2c.c ****                             if no direction change and without a final stop condition in both cases
 107:../../Drivers/STM32F7xx_HAL_Driver/Src/stm32f7xx_hal_i2c.c ****       (++) I2C_LAST_FRAME: Sequential usage, this option allow to manage a sequance with a restart 
 108:../../Drivers/STM32F7xx_HAL_Driver/Src/stm32f7xx_hal_i2c.c ****                             and with new data to transfer if the direction change or manage only th
 109:../../Drivers/STM32F7xx_HAL_Driver/Src/stm32f7xx_hal_i2c.c ****                             if no direction change and with a final stop condition in both cases
 110:../../Drivers/STM32F7xx_HAL_Driver/Src/stm32f7xx_hal_i2c.c **** 
 111:../../Drivers/STM32F7xx_HAL_Driver/Src/stm32f7xx_hal_i2c.c ****       (+) Differents sequential I2C interfaces are listed below:
 112:../../Drivers/STM32F7xx_HAL_Driver/Src/stm32f7xx_hal_i2c.c ****       (++) Sequential transmit in master I2C mode an amount of data in non-blocking mode using HAL_
 113:../../Drivers/STM32F7xx_HAL_Driver/Src/stm32f7xx_hal_i2c.c ****       (+++) At transmission end of current frame transfer, HAL_I2C_MasterTxCpltCallback() is execut
 114:../../Drivers/STM32F7xx_HAL_Driver/Src/stm32f7xx_hal_i2c.c ****            add his own code by customization of function pointer HAL_I2C_MasterTxCpltCallback()
 115:../../Drivers/STM32F7xx_HAL_Driver/Src/stm32f7xx_hal_i2c.c ****       (++) Sequential receive in master I2C mode an amount of data in non-blocking mode using HAL_I
 116:../../Drivers/STM32F7xx_HAL_Driver/Src/stm32f7xx_hal_i2c.c ****       (+++) At reception end of current frame transfer, HAL_I2C_MasterRxCpltCallback() is executed 
 117:../../Drivers/STM32F7xx_HAL_Driver/Src/stm32f7xx_hal_i2c.c ****            add his own code by customization of function pointer HAL_I2C_MasterRxCpltCallback()
 118:../../Drivers/STM32F7xx_HAL_Driver/Src/stm32f7xx_hal_i2c.c ****       (++) Abort a master I2C process communication with Interrupt using HAL_I2C_Master_Abort_IT()
 119:../../Drivers/STM32F7xx_HAL_Driver/Src/stm32f7xx_hal_i2c.c ****       (+++) End of abort process, HAL_I2C_AbortCpltCallback() is executed and user can
 120:../../Drivers/STM32F7xx_HAL_Driver/Src/stm32f7xx_hal_i2c.c ****            add his own code by customization of function pointer HAL_I2C_AbortCpltCallback()
 121:../../Drivers/STM32F7xx_HAL_Driver/Src/stm32f7xx_hal_i2c.c ****       (+++) mean HAL_I2C_MasterTxCpltCallback() in case of previous state was master transmit
 122:../../Drivers/STM32F7xx_HAL_Driver/Src/stm32f7xx_hal_i2c.c ****       (+++) mean HAL_I2c_MasterRxCpltCallback() in case of previous state was master receive
 123:../../Drivers/STM32F7xx_HAL_Driver/Src/stm32f7xx_hal_i2c.c ****       (++) Enable/disable the Address listen mode in slave I2C mode using HAL_I2C_EnableListen_IT()
 124:../../Drivers/STM32F7xx_HAL_Driver/Src/stm32f7xx_hal_i2c.c ****       (+++) When address slave I2C match, HAL_I2C_AddrCallback() is executed and user can
 125:../../Drivers/STM32F7xx_HAL_Driver/Src/stm32f7xx_hal_i2c.c ****            add his own code to check the Address Match Code and the transmission direction request 
 126:../../Drivers/STM32F7xx_HAL_Driver/Src/stm32f7xx_hal_i2c.c ****       (+++) At Listen mode end HAL_I2C_ListenCpltCallback() is executed and user can
 127:../../Drivers/STM32F7xx_HAL_Driver/Src/stm32f7xx_hal_i2c.c ****            add his own code by customization of function pointer HAL_I2C_ListenCpltCallback()
 128:../../Drivers/STM32F7xx_HAL_Driver/Src/stm32f7xx_hal_i2c.c ****       (++) Sequential transmit in slave I2C mode an amount of data in non-blocking mode using HAL_I
 129:../../Drivers/STM32F7xx_HAL_Driver/Src/stm32f7xx_hal_i2c.c ****       (+++) At transmission end of current frame transfer, HAL_I2C_SlaveTxCpltCallback() is execute
 130:../../Drivers/STM32F7xx_HAL_Driver/Src/stm32f7xx_hal_i2c.c ****            add his own code by customization of function pointer HAL_I2C_SlaveTxCpltCallback()
 131:../../Drivers/STM32F7xx_HAL_Driver/Src/stm32f7xx_hal_i2c.c ****       (++) Sequential receive in slave I2C mode an amount of data in non-blocking mode using HAL_I2
 132:../../Drivers/STM32F7xx_HAL_Driver/Src/stm32f7xx_hal_i2c.c ****       (+++) At reception end of current frame transfer, HAL_I2C_SlaveRxCpltCallback() is executed a
 133:../../Drivers/STM32F7xx_HAL_Driver/Src/stm32f7xx_hal_i2c.c ****            add his own code by customization of function pointer HAL_I2C_SlaveRxCpltCallback()
 134:../../Drivers/STM32F7xx_HAL_Driver/Src/stm32f7xx_hal_i2c.c ****       (++) In case of transfer Error, HAL_I2C_ErrorCallback() function is executed and user can
 135:../../Drivers/STM32F7xx_HAL_Driver/Src/stm32f7xx_hal_i2c.c ****            add his own code by customization of function pointer HAL_I2C_ErrorCallback()
 136:../../Drivers/STM32F7xx_HAL_Driver/Src/stm32f7xx_hal_i2c.c ****       (++) Abort a master I2C process communication with Interrupt using HAL_I2C_Master_Abort_IT()
 137:../../Drivers/STM32F7xx_HAL_Driver/Src/stm32f7xx_hal_i2c.c ****       (++) End of abort process, HAL_I2C_AbortCpltCallback() is executed and user can
 138:../../Drivers/STM32F7xx_HAL_Driver/Src/stm32f7xx_hal_i2c.c ****            add his own code by customization of function pointer HAL_I2C_AbortCpltCallback()
 139:../../Drivers/STM32F7xx_HAL_Driver/Src/stm32f7xx_hal_i2c.c ****       (++) Discard a slave I2C process communication using __HAL_I2C_GENERATE_NACK() macro.
 140:../../Drivers/STM32F7xx_HAL_Driver/Src/stm32f7xx_hal_i2c.c ****            This action will inform Master to generate a Stop condition to discard the communication
 141:../../Drivers/STM32F7xx_HAL_Driver/Src/stm32f7xx_hal_i2c.c **** 
 142:../../Drivers/STM32F7xx_HAL_Driver/Src/stm32f7xx_hal_i2c.c ****     *** Interrupt mode IO MEM operation ***
 143:../../Drivers/STM32F7xx_HAL_Driver/Src/stm32f7xx_hal_i2c.c ****     =======================================
 144:../../Drivers/STM32F7xx_HAL_Driver/Src/stm32f7xx_hal_i2c.c ****     [..]
ARM GAS  /tmp/cczIhzQ0.s 			page 4


 145:../../Drivers/STM32F7xx_HAL_Driver/Src/stm32f7xx_hal_i2c.c ****       (+) Write an amount of data in non-blocking mode with Interrupt to a specific memory address 
 146:../../Drivers/STM32F7xx_HAL_Driver/Src/stm32f7xx_hal_i2c.c ****           HAL_I2C_Mem_Write_IT()
 147:../../Drivers/STM32F7xx_HAL_Driver/Src/stm32f7xx_hal_i2c.c ****       (+) At Memory end of write transfer, HAL_I2C_MemTxCpltCallback() is executed and user can
 148:../../Drivers/STM32F7xx_HAL_Driver/Src/stm32f7xx_hal_i2c.c ****            add his own code by customization of function pointer HAL_I2C_MemTxCpltCallback()
 149:../../Drivers/STM32F7xx_HAL_Driver/Src/stm32f7xx_hal_i2c.c ****       (+) Read an amount of data in non-blocking mode with Interrupt from a specific memory address
 150:../../Drivers/STM32F7xx_HAL_Driver/Src/stm32f7xx_hal_i2c.c ****           HAL_I2C_Mem_Read_IT()
 151:../../Drivers/STM32F7xx_HAL_Driver/Src/stm32f7xx_hal_i2c.c ****       (+) At Memory end of read transfer, HAL_I2C_MemRxCpltCallback() is executed and user can
 152:../../Drivers/STM32F7xx_HAL_Driver/Src/stm32f7xx_hal_i2c.c ****            add his own code by customization of function pointer HAL_I2C_MemRxCpltCallback()
 153:../../Drivers/STM32F7xx_HAL_Driver/Src/stm32f7xx_hal_i2c.c ****       (+) In case of transfer Error, HAL_I2C_ErrorCallback() function is executed and user can
 154:../../Drivers/STM32F7xx_HAL_Driver/Src/stm32f7xx_hal_i2c.c ****            add his own code by customization of function pointer HAL_I2C_ErrorCallback()
 155:../../Drivers/STM32F7xx_HAL_Driver/Src/stm32f7xx_hal_i2c.c **** 
 156:../../Drivers/STM32F7xx_HAL_Driver/Src/stm32f7xx_hal_i2c.c ****     *** DMA mode IO operation ***
 157:../../Drivers/STM32F7xx_HAL_Driver/Src/stm32f7xx_hal_i2c.c ****     ==============================
 158:../../Drivers/STM32F7xx_HAL_Driver/Src/stm32f7xx_hal_i2c.c ****     [..]
 159:../../Drivers/STM32F7xx_HAL_Driver/Src/stm32f7xx_hal_i2c.c ****       (+) Transmit in master mode an amount of data in non-blocking mode (DMA) using
 160:../../Drivers/STM32F7xx_HAL_Driver/Src/stm32f7xx_hal_i2c.c ****           HAL_I2C_Master_Transmit_DMA()
 161:../../Drivers/STM32F7xx_HAL_Driver/Src/stm32f7xx_hal_i2c.c ****       (+) At transmission end of transfer, HAL_I2C_MasterTxCpltCallback() is executed and user can
 162:../../Drivers/STM32F7xx_HAL_Driver/Src/stm32f7xx_hal_i2c.c ****            add his own code by customization of function pointer HAL_I2C_MasterTxCpltCallback()
 163:../../Drivers/STM32F7xx_HAL_Driver/Src/stm32f7xx_hal_i2c.c ****       (+) Receive in master mode an amount of data in non-blocking mode (DMA) using
 164:../../Drivers/STM32F7xx_HAL_Driver/Src/stm32f7xx_hal_i2c.c ****           HAL_I2C_Master_Receive_DMA()
 165:../../Drivers/STM32F7xx_HAL_Driver/Src/stm32f7xx_hal_i2c.c ****       (+) At reception end of transfer, HAL_I2C_MasterRxCpltCallback() is executed and user can
 166:../../Drivers/STM32F7xx_HAL_Driver/Src/stm32f7xx_hal_i2c.c ****            add his own code by customization of function pointer HAL_I2C_MasterRxCpltCallback()
 167:../../Drivers/STM32F7xx_HAL_Driver/Src/stm32f7xx_hal_i2c.c ****       (+) Transmit in slave mode an amount of data in non-blocking mode (DMA) using
 168:../../Drivers/STM32F7xx_HAL_Driver/Src/stm32f7xx_hal_i2c.c ****           HAL_I2C_Slave_Transmit_DMA()
 169:../../Drivers/STM32F7xx_HAL_Driver/Src/stm32f7xx_hal_i2c.c ****       (+) At transmission end of transfer, HAL_I2C_SlaveTxCpltCallback() is executed and user can
 170:../../Drivers/STM32F7xx_HAL_Driver/Src/stm32f7xx_hal_i2c.c ****            add his own code by customization of function pointer HAL_I2C_SlaveTxCpltCallback()
 171:../../Drivers/STM32F7xx_HAL_Driver/Src/stm32f7xx_hal_i2c.c ****       (+) Receive in slave mode an amount of data in non-blocking mode (DMA) using
 172:../../Drivers/STM32F7xx_HAL_Driver/Src/stm32f7xx_hal_i2c.c ****           HAL_I2C_Slave_Receive_DMA()
 173:../../Drivers/STM32F7xx_HAL_Driver/Src/stm32f7xx_hal_i2c.c ****       (+) At reception end of transfer, HAL_I2C_SlaveRxCpltCallback() is executed and user can
 174:../../Drivers/STM32F7xx_HAL_Driver/Src/stm32f7xx_hal_i2c.c ****            add his own code by customization of function pointer HAL_I2C_SlaveRxCpltCallback()
 175:../../Drivers/STM32F7xx_HAL_Driver/Src/stm32f7xx_hal_i2c.c ****       (+) In case of transfer Error, HAL_I2C_ErrorCallback() function is executed and user can
 176:../../Drivers/STM32F7xx_HAL_Driver/Src/stm32f7xx_hal_i2c.c ****            add his own code by customization of function pointer HAL_I2C_ErrorCallback()
 177:../../Drivers/STM32F7xx_HAL_Driver/Src/stm32f7xx_hal_i2c.c ****       (+) Abort a master I2C process communication with Interrupt using HAL_I2C_Master_Abort_IT()
 178:../../Drivers/STM32F7xx_HAL_Driver/Src/stm32f7xx_hal_i2c.c ****       (+) End of abort process, HAL_I2C_MasterRxCpltCallback() or HAL_I2C_MasterTxCpltCallback() is
 179:../../Drivers/STM32F7xx_HAL_Driver/Src/stm32f7xx_hal_i2c.c ****            add his own code by customization of function pointer HAL_I2C_MasterRxCpltCallback() or 
 180:../../Drivers/STM32F7xx_HAL_Driver/Src/stm32f7xx_hal_i2c.c ****       (+) Discard a slave I2C process communication using __HAL_I2C_GENERATE_NACK() macro.
 181:../../Drivers/STM32F7xx_HAL_Driver/Src/stm32f7xx_hal_i2c.c ****            This action will inform Master to generate a Stop condition to discard the communication
 182:../../Drivers/STM32F7xx_HAL_Driver/Src/stm32f7xx_hal_i2c.c **** 
 183:../../Drivers/STM32F7xx_HAL_Driver/Src/stm32f7xx_hal_i2c.c ****     *** DMA mode IO MEM operation ***
 184:../../Drivers/STM32F7xx_HAL_Driver/Src/stm32f7xx_hal_i2c.c ****     =================================
 185:../../Drivers/STM32F7xx_HAL_Driver/Src/stm32f7xx_hal_i2c.c ****     [..]
 186:../../Drivers/STM32F7xx_HAL_Driver/Src/stm32f7xx_hal_i2c.c ****       (+) Write an amount of data in non-blocking mode with DMA to a specific memory address using
 187:../../Drivers/STM32F7xx_HAL_Driver/Src/stm32f7xx_hal_i2c.c ****           HAL_I2C_Mem_Write_DMA()
 188:../../Drivers/STM32F7xx_HAL_Driver/Src/stm32f7xx_hal_i2c.c ****       (+) At Memory end of write transfer, HAL_I2C_MemTxCpltCallback() is executed and user can
 189:../../Drivers/STM32F7xx_HAL_Driver/Src/stm32f7xx_hal_i2c.c ****            add his own code by customization of function pointer HAL_I2C_MemTxCpltCallback()
 190:../../Drivers/STM32F7xx_HAL_Driver/Src/stm32f7xx_hal_i2c.c ****       (+) Read an amount of data in non-blocking mode with DMA from a specific memory address using
 191:../../Drivers/STM32F7xx_HAL_Driver/Src/stm32f7xx_hal_i2c.c ****           HAL_I2C_Mem_Read_DMA()
 192:../../Drivers/STM32F7xx_HAL_Driver/Src/stm32f7xx_hal_i2c.c ****       (+) At Memory end of read transfer, HAL_I2C_MemRxCpltCallback() is executed and user can
 193:../../Drivers/STM32F7xx_HAL_Driver/Src/stm32f7xx_hal_i2c.c ****            add his own code by customization of function pointer HAL_I2C_MemRxCpltCallback()
 194:../../Drivers/STM32F7xx_HAL_Driver/Src/stm32f7xx_hal_i2c.c ****       (+) In case of transfer Error, HAL_I2C_ErrorCallback() function is executed and user can
 195:../../Drivers/STM32F7xx_HAL_Driver/Src/stm32f7xx_hal_i2c.c ****            add his own code by customization of function pointer HAL_I2C_ErrorCallback()
 196:../../Drivers/STM32F7xx_HAL_Driver/Src/stm32f7xx_hal_i2c.c **** 
 197:../../Drivers/STM32F7xx_HAL_Driver/Src/stm32f7xx_hal_i2c.c **** 
 198:../../Drivers/STM32F7xx_HAL_Driver/Src/stm32f7xx_hal_i2c.c ****      *** I2C HAL driver macros list ***
 199:../../Drivers/STM32F7xx_HAL_Driver/Src/stm32f7xx_hal_i2c.c ****      ==================================
 200:../../Drivers/STM32F7xx_HAL_Driver/Src/stm32f7xx_hal_i2c.c ****      [..]
 201:../../Drivers/STM32F7xx_HAL_Driver/Src/stm32f7xx_hal_i2c.c ****        Below the list of most used macros in I2C HAL driver.
ARM GAS  /tmp/cczIhzQ0.s 			page 5


 202:../../Drivers/STM32F7xx_HAL_Driver/Src/stm32f7xx_hal_i2c.c **** 
 203:../../Drivers/STM32F7xx_HAL_Driver/Src/stm32f7xx_hal_i2c.c ****       (+) __HAL_I2C_ENABLE: Enable the I2C peripheral
 204:../../Drivers/STM32F7xx_HAL_Driver/Src/stm32f7xx_hal_i2c.c ****       (+) __HAL_I2C_DISABLE: Disable the I2C peripheral
 205:../../Drivers/STM32F7xx_HAL_Driver/Src/stm32f7xx_hal_i2c.c ****       (+) __HAL_I2C_GENERATE_NACK: Generate a Non-Acknowledge I2C peripheral in Slave mode
 206:../../Drivers/STM32F7xx_HAL_Driver/Src/stm32f7xx_hal_i2c.c ****       (+) __HAL_I2C_GET_FLAG: Check whether the specified I2C flag is set or not
 207:../../Drivers/STM32F7xx_HAL_Driver/Src/stm32f7xx_hal_i2c.c ****       (+) __HAL_I2C_CLEAR_FLAG: Clear the specified I2C pending flag
 208:../../Drivers/STM32F7xx_HAL_Driver/Src/stm32f7xx_hal_i2c.c ****       (+) __HAL_I2C_ENABLE_IT: Enable the specified I2C interrupt
 209:../../Drivers/STM32F7xx_HAL_Driver/Src/stm32f7xx_hal_i2c.c ****       (+) __HAL_I2C_DISABLE_IT: Disable the specified I2C interrupt
 210:../../Drivers/STM32F7xx_HAL_Driver/Src/stm32f7xx_hal_i2c.c **** 
 211:../../Drivers/STM32F7xx_HAL_Driver/Src/stm32f7xx_hal_i2c.c ****      [..]
 212:../../Drivers/STM32F7xx_HAL_Driver/Src/stm32f7xx_hal_i2c.c ****        (@) You can refer to the I2C HAL driver header file for more useful macros
 213:../../Drivers/STM32F7xx_HAL_Driver/Src/stm32f7xx_hal_i2c.c **** 
 214:../../Drivers/STM32F7xx_HAL_Driver/Src/stm32f7xx_hal_i2c.c ****   @endverbatim
 215:../../Drivers/STM32F7xx_HAL_Driver/Src/stm32f7xx_hal_i2c.c ****   ******************************************************************************
 216:../../Drivers/STM32F7xx_HAL_Driver/Src/stm32f7xx_hal_i2c.c ****   * @attention
 217:../../Drivers/STM32F7xx_HAL_Driver/Src/stm32f7xx_hal_i2c.c ****   *
 218:../../Drivers/STM32F7xx_HAL_Driver/Src/stm32f7xx_hal_i2c.c ****   * <h2><center>&copy; COPYRIGHT(c) 2016 STMicroelectronics</center></h2>
 219:../../Drivers/STM32F7xx_HAL_Driver/Src/stm32f7xx_hal_i2c.c ****   *
 220:../../Drivers/STM32F7xx_HAL_Driver/Src/stm32f7xx_hal_i2c.c ****   * Redistribution and use in source and binary forms, with or without modification,
 221:../../Drivers/STM32F7xx_HAL_Driver/Src/stm32f7xx_hal_i2c.c ****   * are permitted provided that the following conditions are met:
 222:../../Drivers/STM32F7xx_HAL_Driver/Src/stm32f7xx_hal_i2c.c ****   *   1. Redistributions of source code must retain the above copyright notice,
 223:../../Drivers/STM32F7xx_HAL_Driver/Src/stm32f7xx_hal_i2c.c ****   *      this list of conditions and the following disclaimer.
 224:../../Drivers/STM32F7xx_HAL_Driver/Src/stm32f7xx_hal_i2c.c ****   *   2. Redistributions in binary form must reproduce the above copyright notice,
 225:../../Drivers/STM32F7xx_HAL_Driver/Src/stm32f7xx_hal_i2c.c ****   *      this list of conditions and the following disclaimer in the documentation
 226:../../Drivers/STM32F7xx_HAL_Driver/Src/stm32f7xx_hal_i2c.c ****   *      and/or other materials provided with the distribution.
 227:../../Drivers/STM32F7xx_HAL_Driver/Src/stm32f7xx_hal_i2c.c ****   *   3. Neither the name of STMicroelectronics nor the names of its contributors
 228:../../Drivers/STM32F7xx_HAL_Driver/Src/stm32f7xx_hal_i2c.c ****   *      may be used to endorse or promote products derived from this software
 229:../../Drivers/STM32F7xx_HAL_Driver/Src/stm32f7xx_hal_i2c.c ****   *      without specific prior written permission.
 230:../../Drivers/STM32F7xx_HAL_Driver/Src/stm32f7xx_hal_i2c.c ****   *
 231:../../Drivers/STM32F7xx_HAL_Driver/Src/stm32f7xx_hal_i2c.c ****   * THIS SOFTWARE IS PROVIDED BY THE COPYRIGHT HOLDERS AND CONTRIBUTORS "AS IS"
 232:../../Drivers/STM32F7xx_HAL_Driver/Src/stm32f7xx_hal_i2c.c ****   * AND ANY EXPRESS OR IMPLIED WARRANTIES, INCLUDING, BUT NOT LIMITED TO, THE
 233:../../Drivers/STM32F7xx_HAL_Driver/Src/stm32f7xx_hal_i2c.c ****   * IMPLIED WARRANTIES OF MERCHANTABILITY AND FITNESS FOR A PARTICULAR PURPOSE ARE
 234:../../Drivers/STM32F7xx_HAL_Driver/Src/stm32f7xx_hal_i2c.c ****   * DISCLAIMED. IN NO EVENT SHALL THE COPYRIGHT HOLDER OR CONTRIBUTORS BE LIABLE
 235:../../Drivers/STM32F7xx_HAL_Driver/Src/stm32f7xx_hal_i2c.c ****   * FOR ANY DIRECT, INDIRECT, INCIDENTAL, SPECIAL, EXEMPLARY, OR CONSEQUENTIAL
 236:../../Drivers/STM32F7xx_HAL_Driver/Src/stm32f7xx_hal_i2c.c ****   * DAMAGES (INCLUDING, BUT NOT LIMITED TO, PROCUREMENT OF SUBSTITUTE GOODS OR
 237:../../Drivers/STM32F7xx_HAL_Driver/Src/stm32f7xx_hal_i2c.c ****   * SERVICES; LOSS OF USE, DATA, OR PROFITS; OR BUSINESS INTERRUPTION) HOWEVER
 238:../../Drivers/STM32F7xx_HAL_Driver/Src/stm32f7xx_hal_i2c.c ****   * CAUSED AND ON ANY THEORY OF LIABILITY, WHETHER IN CONTRACT, STRICT LIABILITY,
 239:../../Drivers/STM32F7xx_HAL_Driver/Src/stm32f7xx_hal_i2c.c ****   * OR TORT (INCLUDING NEGLIGENCE OR OTHERWISE) ARISING IN ANY WAY OUT OF THE USE
 240:../../Drivers/STM32F7xx_HAL_Driver/Src/stm32f7xx_hal_i2c.c ****   * OF THIS SOFTWARE, EVEN IF ADVISED OF THE POSSIBILITY OF SUCH DAMAGE.
 241:../../Drivers/STM32F7xx_HAL_Driver/Src/stm32f7xx_hal_i2c.c ****   *
 242:../../Drivers/STM32F7xx_HAL_Driver/Src/stm32f7xx_hal_i2c.c ****   ******************************************************************************
 243:../../Drivers/STM32F7xx_HAL_Driver/Src/stm32f7xx_hal_i2c.c ****   */ 
 244:../../Drivers/STM32F7xx_HAL_Driver/Src/stm32f7xx_hal_i2c.c **** 
 245:../../Drivers/STM32F7xx_HAL_Driver/Src/stm32f7xx_hal_i2c.c **** /* Includes ------------------------------------------------------------------*/
 246:../../Drivers/STM32F7xx_HAL_Driver/Src/stm32f7xx_hal_i2c.c **** #include "stm32f7xx_hal.h"
 247:../../Drivers/STM32F7xx_HAL_Driver/Src/stm32f7xx_hal_i2c.c **** 
 248:../../Drivers/STM32F7xx_HAL_Driver/Src/stm32f7xx_hal_i2c.c **** /** @addtogroup STM32F7xx_HAL_Driver
 249:../../Drivers/STM32F7xx_HAL_Driver/Src/stm32f7xx_hal_i2c.c ****   * @{
 250:../../Drivers/STM32F7xx_HAL_Driver/Src/stm32f7xx_hal_i2c.c ****   */
 251:../../Drivers/STM32F7xx_HAL_Driver/Src/stm32f7xx_hal_i2c.c **** 
 252:../../Drivers/STM32F7xx_HAL_Driver/Src/stm32f7xx_hal_i2c.c **** /** @defgroup I2C I2C
 253:../../Drivers/STM32F7xx_HAL_Driver/Src/stm32f7xx_hal_i2c.c ****   * @brief I2C HAL module driver
 254:../../Drivers/STM32F7xx_HAL_Driver/Src/stm32f7xx_hal_i2c.c ****   * @{
 255:../../Drivers/STM32F7xx_HAL_Driver/Src/stm32f7xx_hal_i2c.c ****   */
 256:../../Drivers/STM32F7xx_HAL_Driver/Src/stm32f7xx_hal_i2c.c **** 
 257:../../Drivers/STM32F7xx_HAL_Driver/Src/stm32f7xx_hal_i2c.c **** #ifdef HAL_I2C_MODULE_ENABLED
 258:../../Drivers/STM32F7xx_HAL_Driver/Src/stm32f7xx_hal_i2c.c **** 
ARM GAS  /tmp/cczIhzQ0.s 			page 6


 259:../../Drivers/STM32F7xx_HAL_Driver/Src/stm32f7xx_hal_i2c.c **** /* Private typedef -----------------------------------------------------------*/
 260:../../Drivers/STM32F7xx_HAL_Driver/Src/stm32f7xx_hal_i2c.c **** /* Private define ------------------------------------------------------------*/
 261:../../Drivers/STM32F7xx_HAL_Driver/Src/stm32f7xx_hal_i2c.c **** 
 262:../../Drivers/STM32F7xx_HAL_Driver/Src/stm32f7xx_hal_i2c.c **** /** @defgroup I2C_Private_Define I2C Private Define
 263:../../Drivers/STM32F7xx_HAL_Driver/Src/stm32f7xx_hal_i2c.c ****   * @{
 264:../../Drivers/STM32F7xx_HAL_Driver/Src/stm32f7xx_hal_i2c.c ****   */
 265:../../Drivers/STM32F7xx_HAL_Driver/Src/stm32f7xx_hal_i2c.c **** #define TIMING_CLEAR_MASK   ((uint32_t)0xF0FFFFFFU)  /*!<  I2C TIMING clear register Mask */
 266:../../Drivers/STM32F7xx_HAL_Driver/Src/stm32f7xx_hal_i2c.c **** #define I2C_TIMEOUT_ADDR    ((uint32_t)10000U)       /*!< 10 s  */
 267:../../Drivers/STM32F7xx_HAL_Driver/Src/stm32f7xx_hal_i2c.c **** #define I2C_TIMEOUT_BUSY    ((uint32_t)25U)          /*!< 25 ms */
 268:../../Drivers/STM32F7xx_HAL_Driver/Src/stm32f7xx_hal_i2c.c **** #define I2C_TIMEOUT_DIR     ((uint32_t)25U)          /*!< 25 ms */
 269:../../Drivers/STM32F7xx_HAL_Driver/Src/stm32f7xx_hal_i2c.c **** #define I2C_TIMEOUT_RXNE    ((uint32_t)25U)          /*!< 25 ms */
 270:../../Drivers/STM32F7xx_HAL_Driver/Src/stm32f7xx_hal_i2c.c **** #define I2C_TIMEOUT_STOPF   ((uint32_t)25U)          /*!< 25 ms */
 271:../../Drivers/STM32F7xx_HAL_Driver/Src/stm32f7xx_hal_i2c.c **** #define I2C_TIMEOUT_TC      ((uint32_t)25U)          /*!< 25 ms */
 272:../../Drivers/STM32F7xx_HAL_Driver/Src/stm32f7xx_hal_i2c.c **** #define I2C_TIMEOUT_TCR     ((uint32_t)25U)          /*!< 25 ms */
 273:../../Drivers/STM32F7xx_HAL_Driver/Src/stm32f7xx_hal_i2c.c **** #define I2C_TIMEOUT_TXIS    ((uint32_t)25U)          /*!< 25 ms */
 274:../../Drivers/STM32F7xx_HAL_Driver/Src/stm32f7xx_hal_i2c.c **** #define I2C_TIMEOUT_FLAG    ((uint32_t)25U)          /*!< 25 ms */
 275:../../Drivers/STM32F7xx_HAL_Driver/Src/stm32f7xx_hal_i2c.c **** 
 276:../../Drivers/STM32F7xx_HAL_Driver/Src/stm32f7xx_hal_i2c.c **** #define MAX_NBYTE_SIZE      255U
 277:../../Drivers/STM32F7xx_HAL_Driver/Src/stm32f7xx_hal_i2c.c **** #define SlaveAddr_SHIFT     7U
 278:../../Drivers/STM32F7xx_HAL_Driver/Src/stm32f7xx_hal_i2c.c **** #define SlaveAddr_MSK       0x06U
 279:../../Drivers/STM32F7xx_HAL_Driver/Src/stm32f7xx_hal_i2c.c **** 
 280:../../Drivers/STM32F7xx_HAL_Driver/Src/stm32f7xx_hal_i2c.c **** /* Private define for @ref PreviousState usage */
 281:../../Drivers/STM32F7xx_HAL_Driver/Src/stm32f7xx_hal_i2c.c **** #define I2C_STATE_MSK             ((uint32_t)((HAL_I2C_STATE_BUSY_TX | HAL_I2C_STATE_BUSY_RX) & (~(
 282:../../Drivers/STM32F7xx_HAL_Driver/Src/stm32f7xx_hal_i2c.c **** #define I2C_STATE_NONE            ((uint32_t)(HAL_I2C_MODE_NONE))                                  
 283:../../Drivers/STM32F7xx_HAL_Driver/Src/stm32f7xx_hal_i2c.c **** #define I2C_STATE_MASTER_BUSY_TX  ((uint32_t)((HAL_I2C_STATE_BUSY_TX & I2C_STATE_MSK) | HAL_I2C_MOD
 284:../../Drivers/STM32F7xx_HAL_Driver/Src/stm32f7xx_hal_i2c.c **** #define I2C_STATE_MASTER_BUSY_RX  ((uint32_t)((HAL_I2C_STATE_BUSY_RX & I2C_STATE_MSK) | HAL_I2C_MOD
 285:../../Drivers/STM32F7xx_HAL_Driver/Src/stm32f7xx_hal_i2c.c **** #define I2C_STATE_SLAVE_BUSY_TX   ((uint32_t)((HAL_I2C_STATE_BUSY_TX & I2C_STATE_MSK) | HAL_I2C_MOD
 286:../../Drivers/STM32F7xx_HAL_Driver/Src/stm32f7xx_hal_i2c.c **** #define I2C_STATE_SLAVE_BUSY_RX   ((uint32_t)((HAL_I2C_STATE_BUSY_RX & I2C_STATE_MSK) | HAL_I2C_MOD
 287:../../Drivers/STM32F7xx_HAL_Driver/Src/stm32f7xx_hal_i2c.c **** #define I2C_STATE_MEM_BUSY_TX     ((uint32_t)((HAL_I2C_STATE_BUSY_TX & I2C_STATE_MSK) | HAL_I2C_MOD
 288:../../Drivers/STM32F7xx_HAL_Driver/Src/stm32f7xx_hal_i2c.c **** #define I2C_STATE_MEM_BUSY_RX     ((uint32_t)((HAL_I2C_STATE_BUSY_RX & I2C_STATE_MSK) | HAL_I2C_MOD
 289:../../Drivers/STM32F7xx_HAL_Driver/Src/stm32f7xx_hal_i2c.c **** 
 290:../../Drivers/STM32F7xx_HAL_Driver/Src/stm32f7xx_hal_i2c.c **** /* Private define to centralize the enable/disable of Interrupts */
 291:../../Drivers/STM32F7xx_HAL_Driver/Src/stm32f7xx_hal_i2c.c **** #define I2C_XFER_TX_IT          ((uint32_t)0x00000001U)
 292:../../Drivers/STM32F7xx_HAL_Driver/Src/stm32f7xx_hal_i2c.c **** #define I2C_XFER_RX_IT          ((uint32_t)0x00000002U)
 293:../../Drivers/STM32F7xx_HAL_Driver/Src/stm32f7xx_hal_i2c.c **** #define I2C_XFER_LISTEN_IT      ((uint32_t)0x00000004U)
 294:../../Drivers/STM32F7xx_HAL_Driver/Src/stm32f7xx_hal_i2c.c **** 
 295:../../Drivers/STM32F7xx_HAL_Driver/Src/stm32f7xx_hal_i2c.c **** #define I2C_XFER_ERROR_IT       ((uint32_t)0x00000011U)
 296:../../Drivers/STM32F7xx_HAL_Driver/Src/stm32f7xx_hal_i2c.c **** #define I2C_XFER_CPLT_IT        ((uint32_t)0x00000012U)
 297:../../Drivers/STM32F7xx_HAL_Driver/Src/stm32f7xx_hal_i2c.c **** #define I2C_XFER_RELOAD_IT      ((uint32_t)0x00000012U)
 298:../../Drivers/STM32F7xx_HAL_Driver/Src/stm32f7xx_hal_i2c.c **** 
 299:../../Drivers/STM32F7xx_HAL_Driver/Src/stm32f7xx_hal_i2c.c **** /* Private define Sequential Transfer Options default/reset value */
 300:../../Drivers/STM32F7xx_HAL_Driver/Src/stm32f7xx_hal_i2c.c **** #define I2C_NO_OPTION_FRAME     ((uint32_t)0xFFFF0000U)
 301:../../Drivers/STM32F7xx_HAL_Driver/Src/stm32f7xx_hal_i2c.c **** /**
 302:../../Drivers/STM32F7xx_HAL_Driver/Src/stm32f7xx_hal_i2c.c ****   * @}
 303:../../Drivers/STM32F7xx_HAL_Driver/Src/stm32f7xx_hal_i2c.c ****   */
 304:../../Drivers/STM32F7xx_HAL_Driver/Src/stm32f7xx_hal_i2c.c **** 
 305:../../Drivers/STM32F7xx_HAL_Driver/Src/stm32f7xx_hal_i2c.c **** /* Private macro -------------------------------------------------------------*/
 306:../../Drivers/STM32F7xx_HAL_Driver/Src/stm32f7xx_hal_i2c.c **** #define I2C_GET_DMA_REMAIN_DATA(__HANDLE__) ((((__HANDLE__)->State) == HAL_I2C_STATE_BUSY_TX)   ? \
 307:../../Drivers/STM32F7xx_HAL_Driver/Src/stm32f7xx_hal_i2c.c ****                                             ((uint32_t)((__HANDLE__)->hdmatx->Instance->NDTR)) : \
 308:../../Drivers/STM32F7xx_HAL_Driver/Src/stm32f7xx_hal_i2c.c ****                                             ((uint32_t)((__HANDLE__)->hdmarx->Instance->NDTR)))
 309:../../Drivers/STM32F7xx_HAL_Driver/Src/stm32f7xx_hal_i2c.c **** 
 310:../../Drivers/STM32F7xx_HAL_Driver/Src/stm32f7xx_hal_i2c.c **** /* Private variables ---------------------------------------------------------*/
 311:../../Drivers/STM32F7xx_HAL_Driver/Src/stm32f7xx_hal_i2c.c **** /* Private function prototypes -----------------------------------------------*/
 312:../../Drivers/STM32F7xx_HAL_Driver/Src/stm32f7xx_hal_i2c.c **** 
 313:../../Drivers/STM32F7xx_HAL_Driver/Src/stm32f7xx_hal_i2c.c **** /** @defgroup I2C_Private_Functions I2C Private Functions
 314:../../Drivers/STM32F7xx_HAL_Driver/Src/stm32f7xx_hal_i2c.c ****   * @{
 315:../../Drivers/STM32F7xx_HAL_Driver/Src/stm32f7xx_hal_i2c.c ****   */
ARM GAS  /tmp/cczIhzQ0.s 			page 7


 316:../../Drivers/STM32F7xx_HAL_Driver/Src/stm32f7xx_hal_i2c.c **** /* Private functions to handle DMA transfer */
 317:../../Drivers/STM32F7xx_HAL_Driver/Src/stm32f7xx_hal_i2c.c **** static void I2C_DMAMasterTransmitCplt(DMA_HandleTypeDef *hdma);
 318:../../Drivers/STM32F7xx_HAL_Driver/Src/stm32f7xx_hal_i2c.c **** static void I2C_DMAMasterReceiveCplt(DMA_HandleTypeDef *hdma);
 319:../../Drivers/STM32F7xx_HAL_Driver/Src/stm32f7xx_hal_i2c.c **** static void I2C_DMASlaveTransmitCplt(DMA_HandleTypeDef *hdma);
 320:../../Drivers/STM32F7xx_HAL_Driver/Src/stm32f7xx_hal_i2c.c **** static void I2C_DMASlaveReceiveCplt(DMA_HandleTypeDef *hdma);
 321:../../Drivers/STM32F7xx_HAL_Driver/Src/stm32f7xx_hal_i2c.c **** static void I2C_DMAError(DMA_HandleTypeDef *hdma);
 322:../../Drivers/STM32F7xx_HAL_Driver/Src/stm32f7xx_hal_i2c.c **** static void I2C_DMAAbort(DMA_HandleTypeDef *hdma);
 323:../../Drivers/STM32F7xx_HAL_Driver/Src/stm32f7xx_hal_i2c.c **** 
 324:../../Drivers/STM32F7xx_HAL_Driver/Src/stm32f7xx_hal_i2c.c **** /* Private functions to handle IT transfer */
 325:../../Drivers/STM32F7xx_HAL_Driver/Src/stm32f7xx_hal_i2c.c **** static void I2C_ITAddrCplt(I2C_HandleTypeDef *hi2c, uint32_t ITFlags);
 326:../../Drivers/STM32F7xx_HAL_Driver/Src/stm32f7xx_hal_i2c.c **** static void I2C_ITMasterSequentialCplt(I2C_HandleTypeDef *hi2c);
 327:../../Drivers/STM32F7xx_HAL_Driver/Src/stm32f7xx_hal_i2c.c **** static void I2C_ITSlaveSequentialCplt(I2C_HandleTypeDef *hi2c);
 328:../../Drivers/STM32F7xx_HAL_Driver/Src/stm32f7xx_hal_i2c.c **** static void I2C_ITMasterCplt(I2C_HandleTypeDef *hi2c, uint32_t ITFlags);
 329:../../Drivers/STM32F7xx_HAL_Driver/Src/stm32f7xx_hal_i2c.c **** static void I2C_ITSlaveCplt(I2C_HandleTypeDef *hi2c, uint32_t ITFlags);
 330:../../Drivers/STM32F7xx_HAL_Driver/Src/stm32f7xx_hal_i2c.c **** static void I2C_ITListenCplt(I2C_HandleTypeDef *hi2c, uint32_t ITFlags);
 331:../../Drivers/STM32F7xx_HAL_Driver/Src/stm32f7xx_hal_i2c.c **** static void I2C_ITError(I2C_HandleTypeDef *hi2c, uint32_t ErrorCode);
 332:../../Drivers/STM32F7xx_HAL_Driver/Src/stm32f7xx_hal_i2c.c **** 
 333:../../Drivers/STM32F7xx_HAL_Driver/Src/stm32f7xx_hal_i2c.c **** /* Private functions to handle IT transfer */
 334:../../Drivers/STM32F7xx_HAL_Driver/Src/stm32f7xx_hal_i2c.c **** static HAL_StatusTypeDef I2C_RequestMemoryWrite(I2C_HandleTypeDef *hi2c, uint16_t DevAddress, uint1
 335:../../Drivers/STM32F7xx_HAL_Driver/Src/stm32f7xx_hal_i2c.c **** static HAL_StatusTypeDef I2C_RequestMemoryRead(I2C_HandleTypeDef *hi2c, uint16_t DevAddress, uint16
 336:../../Drivers/STM32F7xx_HAL_Driver/Src/stm32f7xx_hal_i2c.c **** 
 337:../../Drivers/STM32F7xx_HAL_Driver/Src/stm32f7xx_hal_i2c.c **** /* Private functions for I2C transfer IRQ handler */
 338:../../Drivers/STM32F7xx_HAL_Driver/Src/stm32f7xx_hal_i2c.c **** static HAL_StatusTypeDef I2C_Master_ISR_IT(struct __I2C_HandleTypeDef *hi2c, uint32_t ITFlags, uint
 339:../../Drivers/STM32F7xx_HAL_Driver/Src/stm32f7xx_hal_i2c.c **** static HAL_StatusTypeDef I2C_Slave_ISR_IT(struct __I2C_HandleTypeDef *hi2c, uint32_t ITFlags, uint3
 340:../../Drivers/STM32F7xx_HAL_Driver/Src/stm32f7xx_hal_i2c.c **** static HAL_StatusTypeDef I2C_Master_ISR_DMA(struct __I2C_HandleTypeDef *hi2c, uint32_t ITFlags, uin
 341:../../Drivers/STM32F7xx_HAL_Driver/Src/stm32f7xx_hal_i2c.c **** static HAL_StatusTypeDef I2C_Slave_ISR_DMA(struct __I2C_HandleTypeDef *hi2c, uint32_t ITFlags, uint
 342:../../Drivers/STM32F7xx_HAL_Driver/Src/stm32f7xx_hal_i2c.c **** 
 343:../../Drivers/STM32F7xx_HAL_Driver/Src/stm32f7xx_hal_i2c.c **** /* Private functions to handle flags during polling transfer */
 344:../../Drivers/STM32F7xx_HAL_Driver/Src/stm32f7xx_hal_i2c.c **** static HAL_StatusTypeDef I2C_WaitOnFlagUntilTimeout(I2C_HandleTypeDef *hi2c, uint32_t Flag, FlagSta
 345:../../Drivers/STM32F7xx_HAL_Driver/Src/stm32f7xx_hal_i2c.c **** static HAL_StatusTypeDef I2C_WaitOnTXISFlagUntilTimeout(I2C_HandleTypeDef *hi2c, uint32_t Timeout, 
 346:../../Drivers/STM32F7xx_HAL_Driver/Src/stm32f7xx_hal_i2c.c **** static HAL_StatusTypeDef I2C_WaitOnRXNEFlagUntilTimeout(I2C_HandleTypeDef *hi2c, uint32_t Timeout, 
 347:../../Drivers/STM32F7xx_HAL_Driver/Src/stm32f7xx_hal_i2c.c **** static HAL_StatusTypeDef I2C_WaitOnSTOPFlagUntilTimeout(I2C_HandleTypeDef *hi2c, uint32_t Timeout, 
 348:../../Drivers/STM32F7xx_HAL_Driver/Src/stm32f7xx_hal_i2c.c **** static HAL_StatusTypeDef I2C_IsAcknowledgeFailed(I2C_HandleTypeDef *hi2c, uint32_t Timeout, uint32_
 349:../../Drivers/STM32F7xx_HAL_Driver/Src/stm32f7xx_hal_i2c.c **** 
 350:../../Drivers/STM32F7xx_HAL_Driver/Src/stm32f7xx_hal_i2c.c **** /* Private functions to centralize the enable/disable of Interrupts */
 351:../../Drivers/STM32F7xx_HAL_Driver/Src/stm32f7xx_hal_i2c.c **** static HAL_StatusTypeDef I2C_Enable_IRQ(I2C_HandleTypeDef *hi2c, uint16_t InterruptRequest);
 352:../../Drivers/STM32F7xx_HAL_Driver/Src/stm32f7xx_hal_i2c.c **** static HAL_StatusTypeDef I2C_Disable_IRQ(I2C_HandleTypeDef *hi2c, uint16_t InterruptRequest);
 353:../../Drivers/STM32F7xx_HAL_Driver/Src/stm32f7xx_hal_i2c.c **** 
 354:../../Drivers/STM32F7xx_HAL_Driver/Src/stm32f7xx_hal_i2c.c **** /* Private functions to flush TXDR register */
 355:../../Drivers/STM32F7xx_HAL_Driver/Src/stm32f7xx_hal_i2c.c **** static void I2C_Flush_TXDR(I2C_HandleTypeDef *hi2c);
 356:../../Drivers/STM32F7xx_HAL_Driver/Src/stm32f7xx_hal_i2c.c **** 
 357:../../Drivers/STM32F7xx_HAL_Driver/Src/stm32f7xx_hal_i2c.c **** /* Private functions to handle  start, restart or stop a transfer */
 358:../../Drivers/STM32F7xx_HAL_Driver/Src/stm32f7xx_hal_i2c.c **** static void I2C_TransferConfig(I2C_HandleTypeDef *hi2c,  uint16_t DevAddress, uint8_t Size, uint32_
 359:../../Drivers/STM32F7xx_HAL_Driver/Src/stm32f7xx_hal_i2c.c **** /**
 360:../../Drivers/STM32F7xx_HAL_Driver/Src/stm32f7xx_hal_i2c.c ****   * @}
 361:../../Drivers/STM32F7xx_HAL_Driver/Src/stm32f7xx_hal_i2c.c ****   */
 362:../../Drivers/STM32F7xx_HAL_Driver/Src/stm32f7xx_hal_i2c.c **** 
 363:../../Drivers/STM32F7xx_HAL_Driver/Src/stm32f7xx_hal_i2c.c **** /* Exported functions --------------------------------------------------------*/
 364:../../Drivers/STM32F7xx_HAL_Driver/Src/stm32f7xx_hal_i2c.c **** 
 365:../../Drivers/STM32F7xx_HAL_Driver/Src/stm32f7xx_hal_i2c.c **** /** @defgroup I2C_Exported_Functions I2C Exported Functions
 366:../../Drivers/STM32F7xx_HAL_Driver/Src/stm32f7xx_hal_i2c.c ****   * @{
 367:../../Drivers/STM32F7xx_HAL_Driver/Src/stm32f7xx_hal_i2c.c ****   */
 368:../../Drivers/STM32F7xx_HAL_Driver/Src/stm32f7xx_hal_i2c.c **** 
 369:../../Drivers/STM32F7xx_HAL_Driver/Src/stm32f7xx_hal_i2c.c **** /** @defgroup I2C_Exported_Functions_Group1 Initialization and de-initialization functions
 370:../../Drivers/STM32F7xx_HAL_Driver/Src/stm32f7xx_hal_i2c.c ****  *  @brief    Initialization and Configuration functions 
 371:../../Drivers/STM32F7xx_HAL_Driver/Src/stm32f7xx_hal_i2c.c ****  *
 372:../../Drivers/STM32F7xx_HAL_Driver/Src/stm32f7xx_hal_i2c.c **** @verbatim
ARM GAS  /tmp/cczIhzQ0.s 			page 8


 373:../../Drivers/STM32F7xx_HAL_Driver/Src/stm32f7xx_hal_i2c.c ****  ===============================================================================
 374:../../Drivers/STM32F7xx_HAL_Driver/Src/stm32f7xx_hal_i2c.c ****               ##### Initialization and de-initialization functions #####
 375:../../Drivers/STM32F7xx_HAL_Driver/Src/stm32f7xx_hal_i2c.c ****  ===============================================================================
 376:../../Drivers/STM32F7xx_HAL_Driver/Src/stm32f7xx_hal_i2c.c ****     [..]  This subsection provides a set of functions allowing to initialize and
 377:../../Drivers/STM32F7xx_HAL_Driver/Src/stm32f7xx_hal_i2c.c ****           deinitialize the I2Cx peripheral:
 378:../../Drivers/STM32F7xx_HAL_Driver/Src/stm32f7xx_hal_i2c.c **** 
 379:../../Drivers/STM32F7xx_HAL_Driver/Src/stm32f7xx_hal_i2c.c ****       (+) User must Implement HAL_I2C_MspInit() function in which he configures
 380:../../Drivers/STM32F7xx_HAL_Driver/Src/stm32f7xx_hal_i2c.c ****           all related peripherals resources (CLOCK, GPIO, DMA, IT and NVIC ).
 381:../../Drivers/STM32F7xx_HAL_Driver/Src/stm32f7xx_hal_i2c.c **** 
 382:../../Drivers/STM32F7xx_HAL_Driver/Src/stm32f7xx_hal_i2c.c ****       (+) Call the function HAL_I2C_Init() to configure the selected device with
 383:../../Drivers/STM32F7xx_HAL_Driver/Src/stm32f7xx_hal_i2c.c ****           the selected configuration:
 384:../../Drivers/STM32F7xx_HAL_Driver/Src/stm32f7xx_hal_i2c.c ****         (++) Clock Timing
 385:../../Drivers/STM32F7xx_HAL_Driver/Src/stm32f7xx_hal_i2c.c ****         (++) Own Address 1
 386:../../Drivers/STM32F7xx_HAL_Driver/Src/stm32f7xx_hal_i2c.c ****         (++) Addressing mode (Master, Slave)
 387:../../Drivers/STM32F7xx_HAL_Driver/Src/stm32f7xx_hal_i2c.c ****         (++) Dual Addressing mode
 388:../../Drivers/STM32F7xx_HAL_Driver/Src/stm32f7xx_hal_i2c.c ****         (++) Own Address 2
 389:../../Drivers/STM32F7xx_HAL_Driver/Src/stm32f7xx_hal_i2c.c ****         (++) Own Address 2 Mask
 390:../../Drivers/STM32F7xx_HAL_Driver/Src/stm32f7xx_hal_i2c.c ****         (++) General call mode
 391:../../Drivers/STM32F7xx_HAL_Driver/Src/stm32f7xx_hal_i2c.c ****         (++) Nostretch mode
 392:../../Drivers/STM32F7xx_HAL_Driver/Src/stm32f7xx_hal_i2c.c **** 
 393:../../Drivers/STM32F7xx_HAL_Driver/Src/stm32f7xx_hal_i2c.c ****       (+) Call the function HAL_I2C_DeInit() to restore the default configuration
 394:../../Drivers/STM32F7xx_HAL_Driver/Src/stm32f7xx_hal_i2c.c ****           of the selected I2Cx peripheral.
 395:../../Drivers/STM32F7xx_HAL_Driver/Src/stm32f7xx_hal_i2c.c **** 
 396:../../Drivers/STM32F7xx_HAL_Driver/Src/stm32f7xx_hal_i2c.c **** @endverbatim
 397:../../Drivers/STM32F7xx_HAL_Driver/Src/stm32f7xx_hal_i2c.c ****   * @{
 398:../../Drivers/STM32F7xx_HAL_Driver/Src/stm32f7xx_hal_i2c.c ****   */
 399:../../Drivers/STM32F7xx_HAL_Driver/Src/stm32f7xx_hal_i2c.c **** 
 400:../../Drivers/STM32F7xx_HAL_Driver/Src/stm32f7xx_hal_i2c.c **** /**
 401:../../Drivers/STM32F7xx_HAL_Driver/Src/stm32f7xx_hal_i2c.c ****   * @brief  Initializes the I2C according to the specified parameters
 402:../../Drivers/STM32F7xx_HAL_Driver/Src/stm32f7xx_hal_i2c.c ****   *         in the I2C_InitTypeDef and initialize the associated handle.
 403:../../Drivers/STM32F7xx_HAL_Driver/Src/stm32f7xx_hal_i2c.c ****   * @param  hi2c: Pointer to a I2C_HandleTypeDef structure that contains
 404:../../Drivers/STM32F7xx_HAL_Driver/Src/stm32f7xx_hal_i2c.c ****   *               the configuration information for the specified I2C.
 405:../../Drivers/STM32F7xx_HAL_Driver/Src/stm32f7xx_hal_i2c.c ****   * @retval HAL status
 406:../../Drivers/STM32F7xx_HAL_Driver/Src/stm32f7xx_hal_i2c.c ****   */
 407:../../Drivers/STM32F7xx_HAL_Driver/Src/stm32f7xx_hal_i2c.c **** HAL_StatusTypeDef HAL_I2C_Init(I2C_HandleTypeDef *hi2c)
 408:../../Drivers/STM32F7xx_HAL_Driver/Src/stm32f7xx_hal_i2c.c **** {
  29              		.loc 1 408 0
  30              		.cfi_startproc
  31              		@ args = 0, pretend = 0, frame = 8
  32              		@ frame_needed = 1, uses_anonymous_args = 0
  33 0000 80B5     		push	{r7, lr}
  34              	.LCFI0:
  35              		.cfi_def_cfa_offset 8
  36              		.cfi_offset 7, -8
  37              		.cfi_offset 14, -4
  38 0002 82B0     		sub	sp, sp, #8
  39              	.LCFI1:
  40              		.cfi_def_cfa_offset 16
  41 0004 00AF     		add	r7, sp, #0
  42              	.LCFI2:
  43              		.cfi_def_cfa_register 7
  44 0006 7860     		str	r0, [r7, #4]
 409:../../Drivers/STM32F7xx_HAL_Driver/Src/stm32f7xx_hal_i2c.c ****   /* Check the I2C handle allocation */
 410:../../Drivers/STM32F7xx_HAL_Driver/Src/stm32f7xx_hal_i2c.c ****   if(hi2c == NULL)
  45              		.loc 1 410 0
  46 0008 7B68     		ldr	r3, [r7, #4]
  47 000a 002B     		cmp	r3, #0
ARM GAS  /tmp/cczIhzQ0.s 			page 9


  48 000c 01D1     		bne	.L2
 411:../../Drivers/STM32F7xx_HAL_Driver/Src/stm32f7xx_hal_i2c.c ****   {
 412:../../Drivers/STM32F7xx_HAL_Driver/Src/stm32f7xx_hal_i2c.c ****     return HAL_ERROR;
  49              		.loc 1 412 0
  50 000e 0123     		movs	r3, #1
  51 0010 7EE0     		b	.L3
  52              	.L2:
 413:../../Drivers/STM32F7xx_HAL_Driver/Src/stm32f7xx_hal_i2c.c ****   }
 414:../../Drivers/STM32F7xx_HAL_Driver/Src/stm32f7xx_hal_i2c.c **** 
 415:../../Drivers/STM32F7xx_HAL_Driver/Src/stm32f7xx_hal_i2c.c ****   /* Check the parameters */
 416:../../Drivers/STM32F7xx_HAL_Driver/Src/stm32f7xx_hal_i2c.c ****   assert_param(IS_I2C_ALL_INSTANCE(hi2c->Instance));
 417:../../Drivers/STM32F7xx_HAL_Driver/Src/stm32f7xx_hal_i2c.c ****   assert_param(IS_I2C_OWN_ADDRESS1(hi2c->Init.OwnAddress1));
 418:../../Drivers/STM32F7xx_HAL_Driver/Src/stm32f7xx_hal_i2c.c ****   assert_param(IS_I2C_ADDRESSING_MODE(hi2c->Init.AddressingMode));
 419:../../Drivers/STM32F7xx_HAL_Driver/Src/stm32f7xx_hal_i2c.c ****   assert_param(IS_I2C_DUAL_ADDRESS(hi2c->Init.DualAddressMode));
 420:../../Drivers/STM32F7xx_HAL_Driver/Src/stm32f7xx_hal_i2c.c ****   assert_param(IS_I2C_OWN_ADDRESS2(hi2c->Init.OwnAddress2));
 421:../../Drivers/STM32F7xx_HAL_Driver/Src/stm32f7xx_hal_i2c.c ****   assert_param(IS_I2C_OWN_ADDRESS2_MASK(hi2c->Init.OwnAddress2Masks));
 422:../../Drivers/STM32F7xx_HAL_Driver/Src/stm32f7xx_hal_i2c.c ****   assert_param(IS_I2C_GENERAL_CALL(hi2c->Init.GeneralCallMode));
 423:../../Drivers/STM32F7xx_HAL_Driver/Src/stm32f7xx_hal_i2c.c ****   assert_param(IS_I2C_NO_STRETCH(hi2c->Init.NoStretchMode));
 424:../../Drivers/STM32F7xx_HAL_Driver/Src/stm32f7xx_hal_i2c.c **** 
 425:../../Drivers/STM32F7xx_HAL_Driver/Src/stm32f7xx_hal_i2c.c ****   if(hi2c->State == HAL_I2C_STATE_RESET)
  53              		.loc 1 425 0
  54 0012 7B68     		ldr	r3, [r7, #4]
  55 0014 93F84130 		ldrb	r3, [r3, #65]
  56 0018 DBB2     		uxtb	r3, r3
  57 001a 002B     		cmp	r3, #0
  58 001c 06D1     		bne	.L4
 426:../../Drivers/STM32F7xx_HAL_Driver/Src/stm32f7xx_hal_i2c.c ****   {
 427:../../Drivers/STM32F7xx_HAL_Driver/Src/stm32f7xx_hal_i2c.c ****     /* Allocate lock resource and initialize it */
 428:../../Drivers/STM32F7xx_HAL_Driver/Src/stm32f7xx_hal_i2c.c ****     hi2c->Lock = HAL_UNLOCKED;
  59              		.loc 1 428 0
  60 001e 7B68     		ldr	r3, [r7, #4]
  61 0020 0022     		movs	r2, #0
  62 0022 83F84020 		strb	r2, [r3, #64]
 429:../../Drivers/STM32F7xx_HAL_Driver/Src/stm32f7xx_hal_i2c.c **** 
 430:../../Drivers/STM32F7xx_HAL_Driver/Src/stm32f7xx_hal_i2c.c ****     /* Init the low level hardware : GPIO, CLOCK, CORTEX...etc */
 431:../../Drivers/STM32F7xx_HAL_Driver/Src/stm32f7xx_hal_i2c.c ****     HAL_I2C_MspInit(hi2c);
  63              		.loc 1 431 0
  64 0026 7868     		ldr	r0, [r7, #4]
  65 0028 FFF7FEFF 		bl	HAL_I2C_MspInit
  66              	.L4:
 432:../../Drivers/STM32F7xx_HAL_Driver/Src/stm32f7xx_hal_i2c.c ****   }
 433:../../Drivers/STM32F7xx_HAL_Driver/Src/stm32f7xx_hal_i2c.c **** 
 434:../../Drivers/STM32F7xx_HAL_Driver/Src/stm32f7xx_hal_i2c.c ****   hi2c->State = HAL_I2C_STATE_BUSY;
  67              		.loc 1 434 0
  68 002c 7B68     		ldr	r3, [r7, #4]
  69 002e 2422     		movs	r2, #36
  70 0030 83F84120 		strb	r2, [r3, #65]
 435:../../Drivers/STM32F7xx_HAL_Driver/Src/stm32f7xx_hal_i2c.c **** 
 436:../../Drivers/STM32F7xx_HAL_Driver/Src/stm32f7xx_hal_i2c.c ****   /* Disable the selected I2C peripheral */
 437:../../Drivers/STM32F7xx_HAL_Driver/Src/stm32f7xx_hal_i2c.c ****   __HAL_I2C_DISABLE(hi2c);
  71              		.loc 1 437 0
  72 0034 7B68     		ldr	r3, [r7, #4]
  73 0036 1B68     		ldr	r3, [r3]
  74 0038 7A68     		ldr	r2, [r7, #4]
  75 003a 1268     		ldr	r2, [r2]
  76 003c 1268     		ldr	r2, [r2]
  77 003e 22F00102 		bic	r2, r2, #1
ARM GAS  /tmp/cczIhzQ0.s 			page 10


  78 0042 1A60     		str	r2, [r3]
 438:../../Drivers/STM32F7xx_HAL_Driver/Src/stm32f7xx_hal_i2c.c **** 
 439:../../Drivers/STM32F7xx_HAL_Driver/Src/stm32f7xx_hal_i2c.c ****   /*---------------------------- I2Cx TIMINGR Configuration ------------------*/
 440:../../Drivers/STM32F7xx_HAL_Driver/Src/stm32f7xx_hal_i2c.c ****   /* Configure I2Cx: Frequency range */
 441:../../Drivers/STM32F7xx_HAL_Driver/Src/stm32f7xx_hal_i2c.c ****   hi2c->Instance->TIMINGR = hi2c->Init.Timing & TIMING_CLEAR_MASK;
  79              		.loc 1 441 0
  80 0044 7B68     		ldr	r3, [r7, #4]
  81 0046 1B68     		ldr	r3, [r3]
  82 0048 7A68     		ldr	r2, [r7, #4]
  83 004a 5268     		ldr	r2, [r2, #4]
  84 004c 22F07062 		bic	r2, r2, #251658240
  85 0050 1A61     		str	r2, [r3, #16]
 442:../../Drivers/STM32F7xx_HAL_Driver/Src/stm32f7xx_hal_i2c.c **** 
 443:../../Drivers/STM32F7xx_HAL_Driver/Src/stm32f7xx_hal_i2c.c ****   /*---------------------------- I2Cx OAR1 Configuration ---------------------*/
 444:../../Drivers/STM32F7xx_HAL_Driver/Src/stm32f7xx_hal_i2c.c ****   /* Disable Own Address1 before set the Own Address1 configuration */
 445:../../Drivers/STM32F7xx_HAL_Driver/Src/stm32f7xx_hal_i2c.c ****   hi2c->Instance->OAR1 &= ~I2C_OAR1_OA1EN;
  86              		.loc 1 445 0
  87 0052 7B68     		ldr	r3, [r7, #4]
  88 0054 1B68     		ldr	r3, [r3]
  89 0056 7A68     		ldr	r2, [r7, #4]
  90 0058 1268     		ldr	r2, [r2]
  91 005a 9268     		ldr	r2, [r2, #8]
  92 005c 22F40042 		bic	r2, r2, #32768
  93 0060 9A60     		str	r2, [r3, #8]
 446:../../Drivers/STM32F7xx_HAL_Driver/Src/stm32f7xx_hal_i2c.c **** 
 447:../../Drivers/STM32F7xx_HAL_Driver/Src/stm32f7xx_hal_i2c.c ****   /* Configure I2Cx: Own Address1 and ack own address1 mode */
 448:../../Drivers/STM32F7xx_HAL_Driver/Src/stm32f7xx_hal_i2c.c ****   if(hi2c->Init.AddressingMode == I2C_ADDRESSINGMODE_7BIT)
  94              		.loc 1 448 0
  95 0062 7B68     		ldr	r3, [r7, #4]
  96 0064 DB68     		ldr	r3, [r3, #12]
  97 0066 012B     		cmp	r3, #1
  98 0068 07D1     		bne	.L5
 449:../../Drivers/STM32F7xx_HAL_Driver/Src/stm32f7xx_hal_i2c.c ****   {
 450:../../Drivers/STM32F7xx_HAL_Driver/Src/stm32f7xx_hal_i2c.c ****     hi2c->Instance->OAR1 = (I2C_OAR1_OA1EN | hi2c->Init.OwnAddress1);
  99              		.loc 1 450 0
 100 006a 7B68     		ldr	r3, [r7, #4]
 101 006c 1B68     		ldr	r3, [r3]
 102 006e 7A68     		ldr	r2, [r7, #4]
 103 0070 9268     		ldr	r2, [r2, #8]
 104 0072 42F40042 		orr	r2, r2, #32768
 105 0076 9A60     		str	r2, [r3, #8]
 106 0078 06E0     		b	.L6
 107              	.L5:
 451:../../Drivers/STM32F7xx_HAL_Driver/Src/stm32f7xx_hal_i2c.c ****   }
 452:../../Drivers/STM32F7xx_HAL_Driver/Src/stm32f7xx_hal_i2c.c ****   else /* I2C_ADDRESSINGMODE_10BIT */
 453:../../Drivers/STM32F7xx_HAL_Driver/Src/stm32f7xx_hal_i2c.c ****   {
 454:../../Drivers/STM32F7xx_HAL_Driver/Src/stm32f7xx_hal_i2c.c ****     hi2c->Instance->OAR1 = (I2C_OAR1_OA1EN | I2C_OAR1_OA1MODE | hi2c->Init.OwnAddress1);
 108              		.loc 1 454 0
 109 007a 7B68     		ldr	r3, [r7, #4]
 110 007c 1B68     		ldr	r3, [r3]
 111 007e 7A68     		ldr	r2, [r7, #4]
 112 0080 9268     		ldr	r2, [r2, #8]
 113 0082 42F40442 		orr	r2, r2, #33792
 114 0086 9A60     		str	r2, [r3, #8]
 115              	.L6:
 455:../../Drivers/STM32F7xx_HAL_Driver/Src/stm32f7xx_hal_i2c.c ****   }
 456:../../Drivers/STM32F7xx_HAL_Driver/Src/stm32f7xx_hal_i2c.c **** 
ARM GAS  /tmp/cczIhzQ0.s 			page 11


 457:../../Drivers/STM32F7xx_HAL_Driver/Src/stm32f7xx_hal_i2c.c ****   /*---------------------------- I2Cx CR2 Configuration ----------------------*/
 458:../../Drivers/STM32F7xx_HAL_Driver/Src/stm32f7xx_hal_i2c.c ****   /* Configure I2Cx: Addressing Master mode */
 459:../../Drivers/STM32F7xx_HAL_Driver/Src/stm32f7xx_hal_i2c.c ****   if(hi2c->Init.AddressingMode == I2C_ADDRESSINGMODE_10BIT)
 116              		.loc 1 459 0
 117 0088 7B68     		ldr	r3, [r7, #4]
 118 008a DB68     		ldr	r3, [r3, #12]
 119 008c 022B     		cmp	r3, #2
 120 008e 04D1     		bne	.L7
 460:../../Drivers/STM32F7xx_HAL_Driver/Src/stm32f7xx_hal_i2c.c ****   {
 461:../../Drivers/STM32F7xx_HAL_Driver/Src/stm32f7xx_hal_i2c.c ****     hi2c->Instance->CR2 = (I2C_CR2_ADD10);
 121              		.loc 1 461 0
 122 0090 7B68     		ldr	r3, [r7, #4]
 123 0092 1B68     		ldr	r3, [r3]
 124 0094 4FF40062 		mov	r2, #2048
 125 0098 5A60     		str	r2, [r3, #4]
 126              	.L7:
 462:../../Drivers/STM32F7xx_HAL_Driver/Src/stm32f7xx_hal_i2c.c ****   }
 463:../../Drivers/STM32F7xx_HAL_Driver/Src/stm32f7xx_hal_i2c.c ****   /* Enable the AUTOEND by default, and enable NACK (should be disable only during Slave process */
 464:../../Drivers/STM32F7xx_HAL_Driver/Src/stm32f7xx_hal_i2c.c ****   hi2c->Instance->CR2 |= (I2C_CR2_AUTOEND | I2C_CR2_NACK);
 127              		.loc 1 464 0
 128 009a 7B68     		ldr	r3, [r7, #4]
 129 009c 1A68     		ldr	r2, [r3]
 130 009e 7B68     		ldr	r3, [r7, #4]
 131 00a0 1B68     		ldr	r3, [r3]
 132 00a2 5968     		ldr	r1, [r3, #4]
 133 00a4 1C4B     		ldr	r3, .L8
 134 00a6 0B43     		orrs	r3, r3, r1
 135 00a8 5360     		str	r3, [r2, #4]
 465:../../Drivers/STM32F7xx_HAL_Driver/Src/stm32f7xx_hal_i2c.c **** 
 466:../../Drivers/STM32F7xx_HAL_Driver/Src/stm32f7xx_hal_i2c.c ****   /*---------------------------- I2Cx OAR2 Configuration ---------------------*/
 467:../../Drivers/STM32F7xx_HAL_Driver/Src/stm32f7xx_hal_i2c.c ****   /* Disable Own Address2 before set the Own Address2 configuration */
 468:../../Drivers/STM32F7xx_HAL_Driver/Src/stm32f7xx_hal_i2c.c ****   hi2c->Instance->OAR2 &= ~I2C_DUALADDRESS_ENABLE;
 136              		.loc 1 468 0
 137 00aa 7B68     		ldr	r3, [r7, #4]
 138 00ac 1B68     		ldr	r3, [r3]
 139 00ae 7A68     		ldr	r2, [r7, #4]
 140 00b0 1268     		ldr	r2, [r2]
 141 00b2 D268     		ldr	r2, [r2, #12]
 142 00b4 22F40042 		bic	r2, r2, #32768
 143 00b8 DA60     		str	r2, [r3, #12]
 469:../../Drivers/STM32F7xx_HAL_Driver/Src/stm32f7xx_hal_i2c.c **** 
 470:../../Drivers/STM32F7xx_HAL_Driver/Src/stm32f7xx_hal_i2c.c ****   /* Configure I2Cx: Dual mode and Own Address2 */
 471:../../Drivers/STM32F7xx_HAL_Driver/Src/stm32f7xx_hal_i2c.c ****   hi2c->Instance->OAR2 = (hi2c->Init.DualAddressMode | hi2c->Init.OwnAddress2 | (hi2c->Init.OwnAddr
 144              		.loc 1 471 0
 145 00ba 7B68     		ldr	r3, [r7, #4]
 146 00bc 1B68     		ldr	r3, [r3]
 147 00be 7A68     		ldr	r2, [r7, #4]
 148 00c0 1169     		ldr	r1, [r2, #16]
 149 00c2 7A68     		ldr	r2, [r7, #4]
 150 00c4 5269     		ldr	r2, [r2, #20]
 151 00c6 1143     		orrs	r1, r1, r2
 152 00c8 7A68     		ldr	r2, [r7, #4]
 153 00ca 9269     		ldr	r2, [r2, #24]
 154 00cc 1202     		lsls	r2, r2, #8
 155 00ce 0A43     		orrs	r2, r2, r1
 156 00d0 DA60     		str	r2, [r3, #12]
 472:../../Drivers/STM32F7xx_HAL_Driver/Src/stm32f7xx_hal_i2c.c **** 
ARM GAS  /tmp/cczIhzQ0.s 			page 12


 473:../../Drivers/STM32F7xx_HAL_Driver/Src/stm32f7xx_hal_i2c.c ****   /*---------------------------- I2Cx CR1 Configuration ----------------------*/
 474:../../Drivers/STM32F7xx_HAL_Driver/Src/stm32f7xx_hal_i2c.c ****   /* Configure I2Cx: Generalcall and NoStretch mode */
 475:../../Drivers/STM32F7xx_HAL_Driver/Src/stm32f7xx_hal_i2c.c ****   hi2c->Instance->CR1 = (hi2c->Init.GeneralCallMode | hi2c->Init.NoStretchMode);
 157              		.loc 1 475 0
 158 00d2 7B68     		ldr	r3, [r7, #4]
 159 00d4 1B68     		ldr	r3, [r3]
 160 00d6 7A68     		ldr	r2, [r7, #4]
 161 00d8 D169     		ldr	r1, [r2, #28]
 162 00da 7A68     		ldr	r2, [r7, #4]
 163 00dc 126A     		ldr	r2, [r2, #32]
 164 00de 0A43     		orrs	r2, r2, r1
 165 00e0 1A60     		str	r2, [r3]
 476:../../Drivers/STM32F7xx_HAL_Driver/Src/stm32f7xx_hal_i2c.c **** 
 477:../../Drivers/STM32F7xx_HAL_Driver/Src/stm32f7xx_hal_i2c.c ****   /* Enable the selected I2C peripheral */
 478:../../Drivers/STM32F7xx_HAL_Driver/Src/stm32f7xx_hal_i2c.c ****   __HAL_I2C_ENABLE(hi2c);
 166              		.loc 1 478 0
 167 00e2 7B68     		ldr	r3, [r7, #4]
 168 00e4 1B68     		ldr	r3, [r3]
 169 00e6 7A68     		ldr	r2, [r7, #4]
 170 00e8 1268     		ldr	r2, [r2]
 171 00ea 1268     		ldr	r2, [r2]
 172 00ec 42F00102 		orr	r2, r2, #1
 173 00f0 1A60     		str	r2, [r3]
 479:../../Drivers/STM32F7xx_HAL_Driver/Src/stm32f7xx_hal_i2c.c ****   
 480:../../Drivers/STM32F7xx_HAL_Driver/Src/stm32f7xx_hal_i2c.c ****   hi2c->ErrorCode = HAL_I2C_ERROR_NONE;
 174              		.loc 1 480 0
 175 00f2 7B68     		ldr	r3, [r7, #4]
 176 00f4 0022     		movs	r2, #0
 177 00f6 5A64     		str	r2, [r3, #68]
 481:../../Drivers/STM32F7xx_HAL_Driver/Src/stm32f7xx_hal_i2c.c ****   hi2c->State = HAL_I2C_STATE_READY;
 178              		.loc 1 481 0
 179 00f8 7B68     		ldr	r3, [r7, #4]
 180 00fa 2022     		movs	r2, #32
 181 00fc 83F84120 		strb	r2, [r3, #65]
 482:../../Drivers/STM32F7xx_HAL_Driver/Src/stm32f7xx_hal_i2c.c ****   hi2c->PreviousState = I2C_STATE_NONE;
 182              		.loc 1 482 0
 183 0100 7B68     		ldr	r3, [r7, #4]
 184 0102 0022     		movs	r2, #0
 185 0104 1A63     		str	r2, [r3, #48]
 483:../../Drivers/STM32F7xx_HAL_Driver/Src/stm32f7xx_hal_i2c.c ****   hi2c->Mode = HAL_I2C_MODE_NONE;
 186              		.loc 1 483 0
 187 0106 7B68     		ldr	r3, [r7, #4]
 188 0108 0022     		movs	r2, #0
 189 010a 83F84220 		strb	r2, [r3, #66]
 484:../../Drivers/STM32F7xx_HAL_Driver/Src/stm32f7xx_hal_i2c.c ****   
 485:../../Drivers/STM32F7xx_HAL_Driver/Src/stm32f7xx_hal_i2c.c ****   return HAL_OK;
 190              		.loc 1 485 0
 191 010e 0023     		movs	r3, #0
 192              	.L3:
 486:../../Drivers/STM32F7xx_HAL_Driver/Src/stm32f7xx_hal_i2c.c **** }
 193              		.loc 1 486 0
 194 0110 1846     		mov	r0, r3
 195 0112 0837     		adds	r7, r7, #8
 196              	.LCFI3:
 197              		.cfi_def_cfa_offset 8
 198 0114 BD46     		mov	sp, r7
 199              	.LCFI4:
ARM GAS  /tmp/cczIhzQ0.s 			page 13


 200              		.cfi_def_cfa_register 13
 201              		@ sp needed
 202 0116 80BD     		pop	{r7, pc}
 203              	.L9:
 204              		.align	2
 205              	.L8:
 206 0118 00800002 		.word	33587200
 207              		.cfi_endproc
 208              	.LFE135:
 210              		.section	.text.HAL_I2C_DeInit,"ax",%progbits
 211              		.align	2
 212              		.global	HAL_I2C_DeInit
 213              		.thumb
 214              		.thumb_func
 216              	HAL_I2C_DeInit:
 217              	.LFB136:
 487:../../Drivers/STM32F7xx_HAL_Driver/Src/stm32f7xx_hal_i2c.c **** 
 488:../../Drivers/STM32F7xx_HAL_Driver/Src/stm32f7xx_hal_i2c.c **** /**
 489:../../Drivers/STM32F7xx_HAL_Driver/Src/stm32f7xx_hal_i2c.c ****   * @brief  DeInitialize the I2C peripheral.
 490:../../Drivers/STM32F7xx_HAL_Driver/Src/stm32f7xx_hal_i2c.c ****   * @param  hi2c: Pointer to a I2C_HandleTypeDef structure that contains
 491:../../Drivers/STM32F7xx_HAL_Driver/Src/stm32f7xx_hal_i2c.c ****   *               the configuration information for the specified I2C.
 492:../../Drivers/STM32F7xx_HAL_Driver/Src/stm32f7xx_hal_i2c.c ****   * @retval HAL status
 493:../../Drivers/STM32F7xx_HAL_Driver/Src/stm32f7xx_hal_i2c.c ****   */
 494:../../Drivers/STM32F7xx_HAL_Driver/Src/stm32f7xx_hal_i2c.c **** HAL_StatusTypeDef HAL_I2C_DeInit(I2C_HandleTypeDef *hi2c)
 495:../../Drivers/STM32F7xx_HAL_Driver/Src/stm32f7xx_hal_i2c.c **** {
 218              		.loc 1 495 0
 219              		.cfi_startproc
 220              		@ args = 0, pretend = 0, frame = 8
 221              		@ frame_needed = 1, uses_anonymous_args = 0
 222 0000 80B5     		push	{r7, lr}
 223              	.LCFI5:
 224              		.cfi_def_cfa_offset 8
 225              		.cfi_offset 7, -8
 226              		.cfi_offset 14, -4
 227 0002 82B0     		sub	sp, sp, #8
 228              	.LCFI6:
 229              		.cfi_def_cfa_offset 16
 230 0004 00AF     		add	r7, sp, #0
 231              	.LCFI7:
 232              		.cfi_def_cfa_register 7
 233 0006 7860     		str	r0, [r7, #4]
 496:../../Drivers/STM32F7xx_HAL_Driver/Src/stm32f7xx_hal_i2c.c ****   /* Check the I2C handle allocation */
 497:../../Drivers/STM32F7xx_HAL_Driver/Src/stm32f7xx_hal_i2c.c ****   if(hi2c == NULL)
 234              		.loc 1 497 0
 235 0008 7B68     		ldr	r3, [r7, #4]
 236 000a 002B     		cmp	r3, #0
 237 000c 01D1     		bne	.L11
 498:../../Drivers/STM32F7xx_HAL_Driver/Src/stm32f7xx_hal_i2c.c ****   {
 499:../../Drivers/STM32F7xx_HAL_Driver/Src/stm32f7xx_hal_i2c.c ****     return HAL_ERROR;
 238              		.loc 1 499 0
 239 000e 0123     		movs	r3, #1
 240 0010 21E0     		b	.L12
 241              	.L11:
 500:../../Drivers/STM32F7xx_HAL_Driver/Src/stm32f7xx_hal_i2c.c ****   }
 501:../../Drivers/STM32F7xx_HAL_Driver/Src/stm32f7xx_hal_i2c.c ****   
 502:../../Drivers/STM32F7xx_HAL_Driver/Src/stm32f7xx_hal_i2c.c ****   /* Check the parameters */
 503:../../Drivers/STM32F7xx_HAL_Driver/Src/stm32f7xx_hal_i2c.c ****   assert_param(IS_I2C_ALL_INSTANCE(hi2c->Instance));
ARM GAS  /tmp/cczIhzQ0.s 			page 14


 504:../../Drivers/STM32F7xx_HAL_Driver/Src/stm32f7xx_hal_i2c.c ****   
 505:../../Drivers/STM32F7xx_HAL_Driver/Src/stm32f7xx_hal_i2c.c ****   hi2c->State = HAL_I2C_STATE_BUSY;
 242              		.loc 1 505 0
 243 0012 7B68     		ldr	r3, [r7, #4]
 244 0014 2422     		movs	r2, #36
 245 0016 83F84120 		strb	r2, [r3, #65]
 506:../../Drivers/STM32F7xx_HAL_Driver/Src/stm32f7xx_hal_i2c.c ****   
 507:../../Drivers/STM32F7xx_HAL_Driver/Src/stm32f7xx_hal_i2c.c ****   /* Disable the I2C Peripheral Clock */
 508:../../Drivers/STM32F7xx_HAL_Driver/Src/stm32f7xx_hal_i2c.c ****   __HAL_I2C_DISABLE(hi2c);
 246              		.loc 1 508 0
 247 001a 7B68     		ldr	r3, [r7, #4]
 248 001c 1B68     		ldr	r3, [r3]
 249 001e 7A68     		ldr	r2, [r7, #4]
 250 0020 1268     		ldr	r2, [r2]
 251 0022 1268     		ldr	r2, [r2]
 252 0024 22F00102 		bic	r2, r2, #1
 253 0028 1A60     		str	r2, [r3]
 509:../../Drivers/STM32F7xx_HAL_Driver/Src/stm32f7xx_hal_i2c.c ****   
 510:../../Drivers/STM32F7xx_HAL_Driver/Src/stm32f7xx_hal_i2c.c ****   /* DeInit the low level hardware: GPIO, CLOCK, NVIC */
 511:../../Drivers/STM32F7xx_HAL_Driver/Src/stm32f7xx_hal_i2c.c ****   HAL_I2C_MspDeInit(hi2c);
 254              		.loc 1 511 0
 255 002a 7868     		ldr	r0, [r7, #4]
 256 002c FFF7FEFF 		bl	HAL_I2C_MspDeInit
 512:../../Drivers/STM32F7xx_HAL_Driver/Src/stm32f7xx_hal_i2c.c ****   
 513:../../Drivers/STM32F7xx_HAL_Driver/Src/stm32f7xx_hal_i2c.c ****   hi2c->ErrorCode = HAL_I2C_ERROR_NONE;
 257              		.loc 1 513 0
 258 0030 7B68     		ldr	r3, [r7, #4]
 259 0032 0022     		movs	r2, #0
 260 0034 5A64     		str	r2, [r3, #68]
 514:../../Drivers/STM32F7xx_HAL_Driver/Src/stm32f7xx_hal_i2c.c ****   hi2c->State = HAL_I2C_STATE_RESET;
 261              		.loc 1 514 0
 262 0036 7B68     		ldr	r3, [r7, #4]
 263 0038 0022     		movs	r2, #0
 264 003a 83F84120 		strb	r2, [r3, #65]
 515:../../Drivers/STM32F7xx_HAL_Driver/Src/stm32f7xx_hal_i2c.c ****   hi2c->PreviousState = I2C_STATE_NONE;
 265              		.loc 1 515 0
 266 003e 7B68     		ldr	r3, [r7, #4]
 267 0040 0022     		movs	r2, #0
 268 0042 1A63     		str	r2, [r3, #48]
 516:../../Drivers/STM32F7xx_HAL_Driver/Src/stm32f7xx_hal_i2c.c ****   hi2c->Mode = HAL_I2C_MODE_NONE;
 269              		.loc 1 516 0
 270 0044 7B68     		ldr	r3, [r7, #4]
 271 0046 0022     		movs	r2, #0
 272 0048 83F84220 		strb	r2, [r3, #66]
 517:../../Drivers/STM32F7xx_HAL_Driver/Src/stm32f7xx_hal_i2c.c ****   
 518:../../Drivers/STM32F7xx_HAL_Driver/Src/stm32f7xx_hal_i2c.c ****   /* Release Lock */
 519:../../Drivers/STM32F7xx_HAL_Driver/Src/stm32f7xx_hal_i2c.c ****   __HAL_UNLOCK(hi2c);
 273              		.loc 1 519 0
 274 004c 7B68     		ldr	r3, [r7, #4]
 275 004e 0022     		movs	r2, #0
 276 0050 83F84020 		strb	r2, [r3, #64]
 520:../../Drivers/STM32F7xx_HAL_Driver/Src/stm32f7xx_hal_i2c.c **** 
 521:../../Drivers/STM32F7xx_HAL_Driver/Src/stm32f7xx_hal_i2c.c ****   return HAL_OK;
 277              		.loc 1 521 0
 278 0054 0023     		movs	r3, #0
 279              	.L12:
 522:../../Drivers/STM32F7xx_HAL_Driver/Src/stm32f7xx_hal_i2c.c **** }
ARM GAS  /tmp/cczIhzQ0.s 			page 15


 280              		.loc 1 522 0
 281 0056 1846     		mov	r0, r3
 282 0058 0837     		adds	r7, r7, #8
 283              	.LCFI8:
 284              		.cfi_def_cfa_offset 8
 285 005a BD46     		mov	sp, r7
 286              	.LCFI9:
 287              		.cfi_def_cfa_register 13
 288              		@ sp needed
 289 005c 80BD     		pop	{r7, pc}
 290              		.cfi_endproc
 291              	.LFE136:
 293 005e 00BF     		.section	.text.HAL_I2C_MspInit,"ax",%progbits
 294              		.align	2
 295              		.weak	HAL_I2C_MspInit
 296              		.thumb
 297              		.thumb_func
 299              	HAL_I2C_MspInit:
 300              	.LFB137:
 523:../../Drivers/STM32F7xx_HAL_Driver/Src/stm32f7xx_hal_i2c.c **** 
 524:../../Drivers/STM32F7xx_HAL_Driver/Src/stm32f7xx_hal_i2c.c **** /**
 525:../../Drivers/STM32F7xx_HAL_Driver/Src/stm32f7xx_hal_i2c.c ****   * @brief Initialize the I2C MSP.
 526:../../Drivers/STM32F7xx_HAL_Driver/Src/stm32f7xx_hal_i2c.c ****   * @param  hi2c: Pointer to a I2C_HandleTypeDef structure that contains
 527:../../Drivers/STM32F7xx_HAL_Driver/Src/stm32f7xx_hal_i2c.c ****   *               the configuration information for the specified I2C.
 528:../../Drivers/STM32F7xx_HAL_Driver/Src/stm32f7xx_hal_i2c.c ****   * @retval None
 529:../../Drivers/STM32F7xx_HAL_Driver/Src/stm32f7xx_hal_i2c.c ****   */
 530:../../Drivers/STM32F7xx_HAL_Driver/Src/stm32f7xx_hal_i2c.c **** __weak void HAL_I2C_MspInit(I2C_HandleTypeDef *hi2c)
 531:../../Drivers/STM32F7xx_HAL_Driver/Src/stm32f7xx_hal_i2c.c **** {
 301              		.loc 1 531 0
 302              		.cfi_startproc
 303              		@ args = 0, pretend = 0, frame = 8
 304              		@ frame_needed = 1, uses_anonymous_args = 0
 305              		@ link register save eliminated.
 306 0000 80B4     		push	{r7}
 307              	.LCFI10:
 308              		.cfi_def_cfa_offset 4
 309              		.cfi_offset 7, -4
 310 0002 83B0     		sub	sp, sp, #12
 311              	.LCFI11:
 312              		.cfi_def_cfa_offset 16
 313 0004 00AF     		add	r7, sp, #0
 314              	.LCFI12:
 315              		.cfi_def_cfa_register 7
 316 0006 7860     		str	r0, [r7, #4]
 532:../../Drivers/STM32F7xx_HAL_Driver/Src/stm32f7xx_hal_i2c.c ****   /* Prevent unused argument(s) compilation warning */
 533:../../Drivers/STM32F7xx_HAL_Driver/Src/stm32f7xx_hal_i2c.c ****   UNUSED(hi2c);
 534:../../Drivers/STM32F7xx_HAL_Driver/Src/stm32f7xx_hal_i2c.c ****   
 535:../../Drivers/STM32F7xx_HAL_Driver/Src/stm32f7xx_hal_i2c.c ****   /* NOTE : This function should not be modified, when the callback is needed,
 536:../../Drivers/STM32F7xx_HAL_Driver/Src/stm32f7xx_hal_i2c.c ****             the HAL_I2C_MspInit could be implemented in the user file
 537:../../Drivers/STM32F7xx_HAL_Driver/Src/stm32f7xx_hal_i2c.c ****    */
 538:../../Drivers/STM32F7xx_HAL_Driver/Src/stm32f7xx_hal_i2c.c **** }
 317              		.loc 1 538 0
 318 0008 0C37     		adds	r7, r7, #12
 319              	.LCFI13:
 320              		.cfi_def_cfa_offset 4
 321 000a BD46     		mov	sp, r7
 322              	.LCFI14:
ARM GAS  /tmp/cczIhzQ0.s 			page 16


 323              		.cfi_def_cfa_register 13
 324              		@ sp needed
 325 000c 5DF8047B 		ldr	r7, [sp], #4
 326              	.LCFI15:
 327              		.cfi_restore 7
 328              		.cfi_def_cfa_offset 0
 329 0010 7047     		bx	lr
 330              		.cfi_endproc
 331              	.LFE137:
 333 0012 00BF     		.section	.text.HAL_I2C_MspDeInit,"ax",%progbits
 334              		.align	2
 335              		.weak	HAL_I2C_MspDeInit
 336              		.thumb
 337              		.thumb_func
 339              	HAL_I2C_MspDeInit:
 340              	.LFB138:
 539:../../Drivers/STM32F7xx_HAL_Driver/Src/stm32f7xx_hal_i2c.c **** 
 540:../../Drivers/STM32F7xx_HAL_Driver/Src/stm32f7xx_hal_i2c.c **** /**
 541:../../Drivers/STM32F7xx_HAL_Driver/Src/stm32f7xx_hal_i2c.c ****   * @brief DeInitialize the I2C MSP.
 542:../../Drivers/STM32F7xx_HAL_Driver/Src/stm32f7xx_hal_i2c.c ****   * @param  hi2c: Pointer to a I2C_HandleTypeDef structure that contains
 543:../../Drivers/STM32F7xx_HAL_Driver/Src/stm32f7xx_hal_i2c.c ****   *               the configuration information for the specified I2C.
 544:../../Drivers/STM32F7xx_HAL_Driver/Src/stm32f7xx_hal_i2c.c ****   * @retval None
 545:../../Drivers/STM32F7xx_HAL_Driver/Src/stm32f7xx_hal_i2c.c ****   */
 546:../../Drivers/STM32F7xx_HAL_Driver/Src/stm32f7xx_hal_i2c.c **** __weak void HAL_I2C_MspDeInit(I2C_HandleTypeDef *hi2c)
 547:../../Drivers/STM32F7xx_HAL_Driver/Src/stm32f7xx_hal_i2c.c **** {
 341              		.loc 1 547 0
 342              		.cfi_startproc
 343              		@ args = 0, pretend = 0, frame = 8
 344              		@ frame_needed = 1, uses_anonymous_args = 0
 345              		@ link register save eliminated.
 346 0000 80B4     		push	{r7}
 347              	.LCFI16:
 348              		.cfi_def_cfa_offset 4
 349              		.cfi_offset 7, -4
 350 0002 83B0     		sub	sp, sp, #12
 351              	.LCFI17:
 352              		.cfi_def_cfa_offset 16
 353 0004 00AF     		add	r7, sp, #0
 354              	.LCFI18:
 355              		.cfi_def_cfa_register 7
 356 0006 7860     		str	r0, [r7, #4]
 548:../../Drivers/STM32F7xx_HAL_Driver/Src/stm32f7xx_hal_i2c.c ****   /* Prevent unused argument(s) compilation warning */
 549:../../Drivers/STM32F7xx_HAL_Driver/Src/stm32f7xx_hal_i2c.c ****   UNUSED(hi2c);
 550:../../Drivers/STM32F7xx_HAL_Driver/Src/stm32f7xx_hal_i2c.c ****   
 551:../../Drivers/STM32F7xx_HAL_Driver/Src/stm32f7xx_hal_i2c.c ****   /* NOTE : This function should not be modified, when the callback is needed,
 552:../../Drivers/STM32F7xx_HAL_Driver/Src/stm32f7xx_hal_i2c.c ****             the HAL_I2C_MspDeInit could be implemented in the user file
 553:../../Drivers/STM32F7xx_HAL_Driver/Src/stm32f7xx_hal_i2c.c ****    */
 554:../../Drivers/STM32F7xx_HAL_Driver/Src/stm32f7xx_hal_i2c.c **** }
 357              		.loc 1 554 0
 358 0008 0C37     		adds	r7, r7, #12
 359              	.LCFI19:
 360              		.cfi_def_cfa_offset 4
 361 000a BD46     		mov	sp, r7
 362              	.LCFI20:
 363              		.cfi_def_cfa_register 13
 364              		@ sp needed
 365 000c 5DF8047B 		ldr	r7, [sp], #4
ARM GAS  /tmp/cczIhzQ0.s 			page 17


 366              	.LCFI21:
 367              		.cfi_restore 7
 368              		.cfi_def_cfa_offset 0
 369 0010 7047     		bx	lr
 370              		.cfi_endproc
 371              	.LFE138:
 373 0012 00BF     		.section	.text.HAL_I2C_Master_Transmit,"ax",%progbits
 374              		.align	2
 375              		.global	HAL_I2C_Master_Transmit
 376              		.thumb
 377              		.thumb_func
 379              	HAL_I2C_Master_Transmit:
 380              	.LFB139:
 555:../../Drivers/STM32F7xx_HAL_Driver/Src/stm32f7xx_hal_i2c.c **** 
 556:../../Drivers/STM32F7xx_HAL_Driver/Src/stm32f7xx_hal_i2c.c **** /**
 557:../../Drivers/STM32F7xx_HAL_Driver/Src/stm32f7xx_hal_i2c.c ****   * @}
 558:../../Drivers/STM32F7xx_HAL_Driver/Src/stm32f7xx_hal_i2c.c ****   */
 559:../../Drivers/STM32F7xx_HAL_Driver/Src/stm32f7xx_hal_i2c.c **** 
 560:../../Drivers/STM32F7xx_HAL_Driver/Src/stm32f7xx_hal_i2c.c **** /** @defgroup I2C_Exported_Functions_Group2 Input and Output operation functions
 561:../../Drivers/STM32F7xx_HAL_Driver/Src/stm32f7xx_hal_i2c.c ****  *  @brief   Data transfers functions 
 562:../../Drivers/STM32F7xx_HAL_Driver/Src/stm32f7xx_hal_i2c.c ****  *
 563:../../Drivers/STM32F7xx_HAL_Driver/Src/stm32f7xx_hal_i2c.c **** @verbatim
 564:../../Drivers/STM32F7xx_HAL_Driver/Src/stm32f7xx_hal_i2c.c ****  ===============================================================================
 565:../../Drivers/STM32F7xx_HAL_Driver/Src/stm32f7xx_hal_i2c.c ****                       ##### IO operation functions #####
 566:../../Drivers/STM32F7xx_HAL_Driver/Src/stm32f7xx_hal_i2c.c ****  ===============================================================================
 567:../../Drivers/STM32F7xx_HAL_Driver/Src/stm32f7xx_hal_i2c.c ****     [..]
 568:../../Drivers/STM32F7xx_HAL_Driver/Src/stm32f7xx_hal_i2c.c ****     This subsection provides a set of functions allowing to manage the I2C data
 569:../../Drivers/STM32F7xx_HAL_Driver/Src/stm32f7xx_hal_i2c.c ****     transfers.
 570:../../Drivers/STM32F7xx_HAL_Driver/Src/stm32f7xx_hal_i2c.c **** 
 571:../../Drivers/STM32F7xx_HAL_Driver/Src/stm32f7xx_hal_i2c.c ****     (#) There are two modes of transfer:
 572:../../Drivers/STM32F7xx_HAL_Driver/Src/stm32f7xx_hal_i2c.c ****        (++) Blocking mode : The communication is performed in the polling mode.
 573:../../Drivers/STM32F7xx_HAL_Driver/Src/stm32f7xx_hal_i2c.c ****             The status of all data processing is returned by the same function 
 574:../../Drivers/STM32F7xx_HAL_Driver/Src/stm32f7xx_hal_i2c.c ****             after finishing transfer.
 575:../../Drivers/STM32F7xx_HAL_Driver/Src/stm32f7xx_hal_i2c.c ****        (++) No-Blocking mode : The communication is performed using Interrupts
 576:../../Drivers/STM32F7xx_HAL_Driver/Src/stm32f7xx_hal_i2c.c ****             or DMA. These functions return the status of the transfer startup.
 577:../../Drivers/STM32F7xx_HAL_Driver/Src/stm32f7xx_hal_i2c.c ****             The end of the data processing will be indicated through the
 578:../../Drivers/STM32F7xx_HAL_Driver/Src/stm32f7xx_hal_i2c.c ****             dedicated I2C IRQ when using Interrupt mode or the DMA IRQ when
 579:../../Drivers/STM32F7xx_HAL_Driver/Src/stm32f7xx_hal_i2c.c ****             using DMA mode.
 580:../../Drivers/STM32F7xx_HAL_Driver/Src/stm32f7xx_hal_i2c.c **** 
 581:../../Drivers/STM32F7xx_HAL_Driver/Src/stm32f7xx_hal_i2c.c ****     (#) Blocking mode functions are :
 582:../../Drivers/STM32F7xx_HAL_Driver/Src/stm32f7xx_hal_i2c.c ****         (++) HAL_I2C_Master_Transmit()
 583:../../Drivers/STM32F7xx_HAL_Driver/Src/stm32f7xx_hal_i2c.c ****         (++) HAL_I2C_Master_Receive()
 584:../../Drivers/STM32F7xx_HAL_Driver/Src/stm32f7xx_hal_i2c.c ****         (++) HAL_I2C_Slave_Transmit()
 585:../../Drivers/STM32F7xx_HAL_Driver/Src/stm32f7xx_hal_i2c.c ****         (++) HAL_I2C_Slave_Receive()
 586:../../Drivers/STM32F7xx_HAL_Driver/Src/stm32f7xx_hal_i2c.c ****         (++) HAL_I2C_Mem_Write()
 587:../../Drivers/STM32F7xx_HAL_Driver/Src/stm32f7xx_hal_i2c.c ****         (++) HAL_I2C_Mem_Read()
 588:../../Drivers/STM32F7xx_HAL_Driver/Src/stm32f7xx_hal_i2c.c ****         (++) HAL_I2C_IsDeviceReady()
 589:../../Drivers/STM32F7xx_HAL_Driver/Src/stm32f7xx_hal_i2c.c **** 
 590:../../Drivers/STM32F7xx_HAL_Driver/Src/stm32f7xx_hal_i2c.c ****     (#) No-Blocking mode functions with Interrupt are :
 591:../../Drivers/STM32F7xx_HAL_Driver/Src/stm32f7xx_hal_i2c.c ****         (++) HAL_I2C_Master_Transmit_IT()
 592:../../Drivers/STM32F7xx_HAL_Driver/Src/stm32f7xx_hal_i2c.c ****         (++) HAL_I2C_Master_Receive_IT()
 593:../../Drivers/STM32F7xx_HAL_Driver/Src/stm32f7xx_hal_i2c.c ****         (++) HAL_I2C_Slave_Transmit_IT()
 594:../../Drivers/STM32F7xx_HAL_Driver/Src/stm32f7xx_hal_i2c.c ****         (++) HAL_I2C_Slave_Receive_IT()
 595:../../Drivers/STM32F7xx_HAL_Driver/Src/stm32f7xx_hal_i2c.c ****         (++) HAL_I2C_Mem_Write_IT()
 596:../../Drivers/STM32F7xx_HAL_Driver/Src/stm32f7xx_hal_i2c.c ****         (++) HAL_I2C_Mem_Read_IT()
 597:../../Drivers/STM32F7xx_HAL_Driver/Src/stm32f7xx_hal_i2c.c **** 
 598:../../Drivers/STM32F7xx_HAL_Driver/Src/stm32f7xx_hal_i2c.c ****     (#) No-Blocking mode functions with DMA are :
ARM GAS  /tmp/cczIhzQ0.s 			page 18


 599:../../Drivers/STM32F7xx_HAL_Driver/Src/stm32f7xx_hal_i2c.c ****         (++) HAL_I2C_Master_Transmit_DMA()
 600:../../Drivers/STM32F7xx_HAL_Driver/Src/stm32f7xx_hal_i2c.c ****         (++) HAL_I2C_Master_Receive_DMA()
 601:../../Drivers/STM32F7xx_HAL_Driver/Src/stm32f7xx_hal_i2c.c ****         (++) HAL_I2C_Slave_Transmit_DMA()
 602:../../Drivers/STM32F7xx_HAL_Driver/Src/stm32f7xx_hal_i2c.c ****         (++) HAL_I2C_Slave_Receive_DMA()
 603:../../Drivers/STM32F7xx_HAL_Driver/Src/stm32f7xx_hal_i2c.c ****         (++) HAL_I2C_Mem_Write_DMA()
 604:../../Drivers/STM32F7xx_HAL_Driver/Src/stm32f7xx_hal_i2c.c ****         (++) HAL_I2C_Mem_Read_DMA()
 605:../../Drivers/STM32F7xx_HAL_Driver/Src/stm32f7xx_hal_i2c.c **** 
 606:../../Drivers/STM32F7xx_HAL_Driver/Src/stm32f7xx_hal_i2c.c ****     (#) A set of Transfer Complete Callbacks are provided in non Blocking mode:
 607:../../Drivers/STM32F7xx_HAL_Driver/Src/stm32f7xx_hal_i2c.c ****         (++) HAL_I2C_MemTxCpltCallback()
 608:../../Drivers/STM32F7xx_HAL_Driver/Src/stm32f7xx_hal_i2c.c ****         (++) HAL_I2C_MemRxCpltCallback()
 609:../../Drivers/STM32F7xx_HAL_Driver/Src/stm32f7xx_hal_i2c.c ****         (++) HAL_I2C_MasterTxCpltCallback()
 610:../../Drivers/STM32F7xx_HAL_Driver/Src/stm32f7xx_hal_i2c.c ****         (++) HAL_I2C_MasterRxCpltCallback()
 611:../../Drivers/STM32F7xx_HAL_Driver/Src/stm32f7xx_hal_i2c.c ****         (++) HAL_I2C_SlaveTxCpltCallback()
 612:../../Drivers/STM32F7xx_HAL_Driver/Src/stm32f7xx_hal_i2c.c ****         (++) HAL_I2C_SlaveRxCpltCallback()
 613:../../Drivers/STM32F7xx_HAL_Driver/Src/stm32f7xx_hal_i2c.c ****         (++) HAL_I2C_ErrorCallback()
 614:../../Drivers/STM32F7xx_HAL_Driver/Src/stm32f7xx_hal_i2c.c **** 
 615:../../Drivers/STM32F7xx_HAL_Driver/Src/stm32f7xx_hal_i2c.c **** @endverbatim
 616:../../Drivers/STM32F7xx_HAL_Driver/Src/stm32f7xx_hal_i2c.c ****   * @{
 617:../../Drivers/STM32F7xx_HAL_Driver/Src/stm32f7xx_hal_i2c.c ****   */
 618:../../Drivers/STM32F7xx_HAL_Driver/Src/stm32f7xx_hal_i2c.c **** 
 619:../../Drivers/STM32F7xx_HAL_Driver/Src/stm32f7xx_hal_i2c.c **** /**
 620:../../Drivers/STM32F7xx_HAL_Driver/Src/stm32f7xx_hal_i2c.c ****   * @brief  Transmits in master mode an amount of data in blocking mode.
 621:../../Drivers/STM32F7xx_HAL_Driver/Src/stm32f7xx_hal_i2c.c ****   * @param  hi2c: Pointer to a I2C_HandleTypeDef structure that contains
 622:../../Drivers/STM32F7xx_HAL_Driver/Src/stm32f7xx_hal_i2c.c ****   *               the configuration information for the specified I2C.
 623:../../Drivers/STM32F7xx_HAL_Driver/Src/stm32f7xx_hal_i2c.c ****   * @param  DevAddress: Target device address. The device 7 bits address value
 624:../../Drivers/STM32F7xx_HAL_Driver/Src/stm32f7xx_hal_i2c.c ****   *         in datasheet must be shift at right before call interface
 625:../../Drivers/STM32F7xx_HAL_Driver/Src/stm32f7xx_hal_i2c.c ****   * @param  pData: Pointer to data buffer
 626:../../Drivers/STM32F7xx_HAL_Driver/Src/stm32f7xx_hal_i2c.c ****   * @param  Size: Amount of data to be sent
 627:../../Drivers/STM32F7xx_HAL_Driver/Src/stm32f7xx_hal_i2c.c ****   * @param  Timeout: Timeout duration
 628:../../Drivers/STM32F7xx_HAL_Driver/Src/stm32f7xx_hal_i2c.c ****   * @retval HAL status
 629:../../Drivers/STM32F7xx_HAL_Driver/Src/stm32f7xx_hal_i2c.c ****   */
 630:../../Drivers/STM32F7xx_HAL_Driver/Src/stm32f7xx_hal_i2c.c **** HAL_StatusTypeDef HAL_I2C_Master_Transmit(I2C_HandleTypeDef *hi2c, uint16_t DevAddress, uint8_t *pD
 631:../../Drivers/STM32F7xx_HAL_Driver/Src/stm32f7xx_hal_i2c.c **** {
 381              		.loc 1 631 0
 382              		.cfi_startproc
 383              		@ args = 4, pretend = 0, frame = 24
 384              		@ frame_needed = 1, uses_anonymous_args = 0
 385 0000 80B5     		push	{r7, lr}
 386              	.LCFI22:
 387              		.cfi_def_cfa_offset 8
 388              		.cfi_offset 7, -8
 389              		.cfi_offset 14, -4
 390 0002 88B0     		sub	sp, sp, #32
 391              	.LCFI23:
 392              		.cfi_def_cfa_offset 40
 393 0004 02AF     		add	r7, sp, #8
 394              	.LCFI24:
 395              		.cfi_def_cfa 7, 32
 396 0006 F860     		str	r0, [r7, #12]
 397 0008 7A60     		str	r2, [r7, #4]
 398 000a 1A46     		mov	r2, r3
 399 000c 0B46     		mov	r3, r1	@ movhi
 400 000e 7B81     		strh	r3, [r7, #10]	@ movhi
 401 0010 1346     		mov	r3, r2	@ movhi
 402 0012 3B81     		strh	r3, [r7, #8]	@ movhi
 632:../../Drivers/STM32F7xx_HAL_Driver/Src/stm32f7xx_hal_i2c.c ****   uint32_t tickstart = 0;
 403              		.loc 1 632 0
ARM GAS  /tmp/cczIhzQ0.s 			page 19


 404 0014 0023     		movs	r3, #0
 405 0016 7B61     		str	r3, [r7, #20]
 633:../../Drivers/STM32F7xx_HAL_Driver/Src/stm32f7xx_hal_i2c.c ****   
 634:../../Drivers/STM32F7xx_HAL_Driver/Src/stm32f7xx_hal_i2c.c ****   if(hi2c->State == HAL_I2C_STATE_READY)
 406              		.loc 1 634 0
 407 0018 FB68     		ldr	r3, [r7, #12]
 408 001a 93F84130 		ldrb	r3, [r3, #65]
 409 001e DBB2     		uxtb	r3, r3
 410 0020 202B     		cmp	r3, #32
 411 0022 40F0E580 		bne	.L16
 635:../../Drivers/STM32F7xx_HAL_Driver/Src/stm32f7xx_hal_i2c.c ****   {
 636:../../Drivers/STM32F7xx_HAL_Driver/Src/stm32f7xx_hal_i2c.c ****     /* Process Locked */
 637:../../Drivers/STM32F7xx_HAL_Driver/Src/stm32f7xx_hal_i2c.c ****     __HAL_LOCK(hi2c);
 412              		.loc 1 637 0
 413 0026 FB68     		ldr	r3, [r7, #12]
 414 0028 93F84030 		ldrb	r3, [r3, #64]	@ zero_extendqisi2
 415 002c 012B     		cmp	r3, #1
 416 002e 01D1     		bne	.L17
 417              		.loc 1 637 0 is_stmt 0 discriminator 1
 418 0030 0223     		movs	r3, #2
 419 0032 DEE0     		b	.L18
 420              	.L17:
 421              		.loc 1 637 0 discriminator 2
 422 0034 FB68     		ldr	r3, [r7, #12]
 423 0036 0122     		movs	r2, #1
 424 0038 83F84020 		strb	r2, [r3, #64]
 638:../../Drivers/STM32F7xx_HAL_Driver/Src/stm32f7xx_hal_i2c.c ****     
 639:../../Drivers/STM32F7xx_HAL_Driver/Src/stm32f7xx_hal_i2c.c ****     /* Init tickstart for timeout management*/
 640:../../Drivers/STM32F7xx_HAL_Driver/Src/stm32f7xx_hal_i2c.c ****     tickstart = HAL_GetTick();
 425              		.loc 1 640 0 is_stmt 1 discriminator 2
 426 003c FFF7FEFF 		bl	HAL_GetTick
 427 0040 7861     		str	r0, [r7, #20]
 641:../../Drivers/STM32F7xx_HAL_Driver/Src/stm32f7xx_hal_i2c.c ****     
 642:../../Drivers/STM32F7xx_HAL_Driver/Src/stm32f7xx_hal_i2c.c ****     if(I2C_WaitOnFlagUntilTimeout(hi2c, I2C_FLAG_BUSY, SET, I2C_TIMEOUT_BUSY, tickstart) != HAL_OK)
 428              		.loc 1 642 0 discriminator 2
 429 0042 7B69     		ldr	r3, [r7, #20]
 430 0044 0093     		str	r3, [sp]
 431 0046 F868     		ldr	r0, [r7, #12]
 432 0048 4FF40041 		mov	r1, #32768
 433 004c 0122     		movs	r2, #1
 434 004e 1923     		movs	r3, #25
 435 0050 FFF7FEFF 		bl	I2C_WaitOnFlagUntilTimeout
 436 0054 0346     		mov	r3, r0
 437 0056 002B     		cmp	r3, #0
 438 0058 01D0     		beq	.L19
 643:../../Drivers/STM32F7xx_HAL_Driver/Src/stm32f7xx_hal_i2c.c ****     {
 644:../../Drivers/STM32F7xx_HAL_Driver/Src/stm32f7xx_hal_i2c.c ****       return HAL_TIMEOUT;
 439              		.loc 1 644 0
 440 005a 0323     		movs	r3, #3
 441 005c C9E0     		b	.L18
 442              	.L19:
 645:../../Drivers/STM32F7xx_HAL_Driver/Src/stm32f7xx_hal_i2c.c ****     }
 646:../../Drivers/STM32F7xx_HAL_Driver/Src/stm32f7xx_hal_i2c.c ****     
 647:../../Drivers/STM32F7xx_HAL_Driver/Src/stm32f7xx_hal_i2c.c ****     hi2c->State     = HAL_I2C_STATE_BUSY_TX;
 443              		.loc 1 647 0
 444 005e FB68     		ldr	r3, [r7, #12]
 445 0060 2122     		movs	r2, #33
ARM GAS  /tmp/cczIhzQ0.s 			page 20


 446 0062 83F84120 		strb	r2, [r3, #65]
 648:../../Drivers/STM32F7xx_HAL_Driver/Src/stm32f7xx_hal_i2c.c ****     hi2c->Mode      = HAL_I2C_MODE_MASTER;
 447              		.loc 1 648 0
 448 0066 FB68     		ldr	r3, [r7, #12]
 449 0068 1022     		movs	r2, #16
 450 006a 83F84220 		strb	r2, [r3, #66]
 649:../../Drivers/STM32F7xx_HAL_Driver/Src/stm32f7xx_hal_i2c.c ****     hi2c->ErrorCode = HAL_I2C_ERROR_NONE;
 451              		.loc 1 649 0
 452 006e FB68     		ldr	r3, [r7, #12]
 453 0070 0022     		movs	r2, #0
 454 0072 5A64     		str	r2, [r3, #68]
 650:../../Drivers/STM32F7xx_HAL_Driver/Src/stm32f7xx_hal_i2c.c ****     
 651:../../Drivers/STM32F7xx_HAL_Driver/Src/stm32f7xx_hal_i2c.c ****     /* Prepare transfer parameters */
 652:../../Drivers/STM32F7xx_HAL_Driver/Src/stm32f7xx_hal_i2c.c ****     hi2c->pBuffPtr  = pData;
 455              		.loc 1 652 0
 456 0074 FB68     		ldr	r3, [r7, #12]
 457 0076 7A68     		ldr	r2, [r7, #4]
 458 0078 5A62     		str	r2, [r3, #36]
 653:../../Drivers/STM32F7xx_HAL_Driver/Src/stm32f7xx_hal_i2c.c ****     hi2c->XferCount = Size;
 459              		.loc 1 653 0
 460 007a FB68     		ldr	r3, [r7, #12]
 461 007c 3A89     		ldrh	r2, [r7, #8]	@ movhi
 462 007e 5A85     		strh	r2, [r3, #42]	@ movhi
 654:../../Drivers/STM32F7xx_HAL_Driver/Src/stm32f7xx_hal_i2c.c ****     hi2c->XferISR   = NULL;
 463              		.loc 1 654 0
 464 0080 FB68     		ldr	r3, [r7, #12]
 465 0082 0022     		movs	r2, #0
 466 0084 5A63     		str	r2, [r3, #52]
 655:../../Drivers/STM32F7xx_HAL_Driver/Src/stm32f7xx_hal_i2c.c ****     
 656:../../Drivers/STM32F7xx_HAL_Driver/Src/stm32f7xx_hal_i2c.c ****     /* Send Slave Address */
 657:../../Drivers/STM32F7xx_HAL_Driver/Src/stm32f7xx_hal_i2c.c ****     /* Set NBYTES to write and reload if hi2c->XferCount > MAX_NBYTE_SIZE and generate RESTART */
 658:../../Drivers/STM32F7xx_HAL_Driver/Src/stm32f7xx_hal_i2c.c ****     if(hi2c->XferCount > MAX_NBYTE_SIZE)
 467              		.loc 1 658 0
 468 0086 FB68     		ldr	r3, [r7, #12]
 469 0088 5B8D     		ldrh	r3, [r3, #42]	@ movhi
 470 008a 9BB2     		uxth	r3, r3
 471 008c FF2B     		cmp	r3, #255
 472 008e 0FD9     		bls	.L20
 659:../../Drivers/STM32F7xx_HAL_Driver/Src/stm32f7xx_hal_i2c.c ****     {
 660:../../Drivers/STM32F7xx_HAL_Driver/Src/stm32f7xx_hal_i2c.c ****       hi2c->XferSize = MAX_NBYTE_SIZE;
 473              		.loc 1 660 0
 474 0090 FB68     		ldr	r3, [r7, #12]
 475 0092 FF22     		movs	r2, #255
 476 0094 1A85     		strh	r2, [r3, #40]	@ movhi
 661:../../Drivers/STM32F7xx_HAL_Driver/Src/stm32f7xx_hal_i2c.c ****       I2C_TransferConfig(hi2c, DevAddress, hi2c->XferSize, I2C_RELOAD_MODE, I2C_GENERATE_START_WRIT
 477              		.loc 1 661 0
 478 0096 FB68     		ldr	r3, [r7, #12]
 479 0098 1B8D     		ldrh	r3, [r3, #40]
 480 009a DAB2     		uxtb	r2, r3
 481 009c 7989     		ldrh	r1, [r7, #10]
 482 009e 4FF40053 		mov	r3, #8192
 483 00a2 0093     		str	r3, [sp]
 484 00a4 F868     		ldr	r0, [r7, #12]
 485 00a6 4FF08073 		mov	r3, #16777216
 486 00aa FFF7FEFF 		bl	I2C_TransferConfig
 487 00ae 10E0     		b	.L21
 488              	.L20:
ARM GAS  /tmp/cczIhzQ0.s 			page 21


 662:../../Drivers/STM32F7xx_HAL_Driver/Src/stm32f7xx_hal_i2c.c ****     }
 663:../../Drivers/STM32F7xx_HAL_Driver/Src/stm32f7xx_hal_i2c.c ****     else
 664:../../Drivers/STM32F7xx_HAL_Driver/Src/stm32f7xx_hal_i2c.c ****     {
 665:../../Drivers/STM32F7xx_HAL_Driver/Src/stm32f7xx_hal_i2c.c ****       hi2c->XferSize = hi2c->XferCount;
 489              		.loc 1 665 0
 490 00b0 FB68     		ldr	r3, [r7, #12]
 491 00b2 5B8D     		ldrh	r3, [r3, #42]	@ movhi
 492 00b4 9AB2     		uxth	r2, r3
 493 00b6 FB68     		ldr	r3, [r7, #12]
 494 00b8 1A85     		strh	r2, [r3, #40]	@ movhi
 666:../../Drivers/STM32F7xx_HAL_Driver/Src/stm32f7xx_hal_i2c.c ****       I2C_TransferConfig(hi2c, DevAddress, hi2c->XferSize, I2C_AUTOEND_MODE, I2C_GENERATE_START_WRI
 495              		.loc 1 666 0
 496 00ba FB68     		ldr	r3, [r7, #12]
 497 00bc 1B8D     		ldrh	r3, [r3, #40]
 498 00be DAB2     		uxtb	r2, r3
 499 00c0 7989     		ldrh	r1, [r7, #10]
 500 00c2 4FF40053 		mov	r3, #8192
 501 00c6 0093     		str	r3, [sp]
 502 00c8 F868     		ldr	r0, [r7, #12]
 503 00ca 4FF00073 		mov	r3, #33554432
 504 00ce FFF7FEFF 		bl	I2C_TransferConfig
 505              	.L21:
 667:../../Drivers/STM32F7xx_HAL_Driver/Src/stm32f7xx_hal_i2c.c ****     }
 668:../../Drivers/STM32F7xx_HAL_Driver/Src/stm32f7xx_hal_i2c.c ****     
 669:../../Drivers/STM32F7xx_HAL_Driver/Src/stm32f7xx_hal_i2c.c ****     while(hi2c->XferSize > 0)
 506              		.loc 1 669 0
 507 00d2 5FE0     		b	.L22
 508              	.L27:
 670:../../Drivers/STM32F7xx_HAL_Driver/Src/stm32f7xx_hal_i2c.c ****     {
 671:../../Drivers/STM32F7xx_HAL_Driver/Src/stm32f7xx_hal_i2c.c ****       /* Wait until TXIS flag is set */
 672:../../Drivers/STM32F7xx_HAL_Driver/Src/stm32f7xx_hal_i2c.c ****       if(I2C_WaitOnTXISFlagUntilTimeout(hi2c, Timeout, tickstart) != HAL_OK)
 509              		.loc 1 672 0
 510 00d4 F868     		ldr	r0, [r7, #12]
 511 00d6 396A     		ldr	r1, [r7, #32]
 512 00d8 7A69     		ldr	r2, [r7, #20]
 513 00da FFF7FEFF 		bl	I2C_WaitOnTXISFlagUntilTimeout
 514 00de 0346     		mov	r3, r0
 515 00e0 002B     		cmp	r3, #0
 516 00e2 07D0     		beq	.L23
 673:../../Drivers/STM32F7xx_HAL_Driver/Src/stm32f7xx_hal_i2c.c ****       {
 674:../../Drivers/STM32F7xx_HAL_Driver/Src/stm32f7xx_hal_i2c.c ****         if(hi2c->ErrorCode == HAL_I2C_ERROR_AF)
 517              		.loc 1 674 0
 518 00e4 FB68     		ldr	r3, [r7, #12]
 519 00e6 5B6C     		ldr	r3, [r3, #68]
 520 00e8 042B     		cmp	r3, #4
 521 00ea 01D1     		bne	.L24
 675:../../Drivers/STM32F7xx_HAL_Driver/Src/stm32f7xx_hal_i2c.c ****         {
 676:../../Drivers/STM32F7xx_HAL_Driver/Src/stm32f7xx_hal_i2c.c ****           return HAL_ERROR;
 522              		.loc 1 676 0
 523 00ec 0123     		movs	r3, #1
 524 00ee 80E0     		b	.L18
 525              	.L24:
 677:../../Drivers/STM32F7xx_HAL_Driver/Src/stm32f7xx_hal_i2c.c ****         }
 678:../../Drivers/STM32F7xx_HAL_Driver/Src/stm32f7xx_hal_i2c.c ****         else
 679:../../Drivers/STM32F7xx_HAL_Driver/Src/stm32f7xx_hal_i2c.c ****         {
 680:../../Drivers/STM32F7xx_HAL_Driver/Src/stm32f7xx_hal_i2c.c ****           return HAL_TIMEOUT;
 526              		.loc 1 680 0
ARM GAS  /tmp/cczIhzQ0.s 			page 22


 527 00f0 0323     		movs	r3, #3
 528 00f2 7EE0     		b	.L18
 529              	.L23:
 681:../../Drivers/STM32F7xx_HAL_Driver/Src/stm32f7xx_hal_i2c.c ****         }
 682:../../Drivers/STM32F7xx_HAL_Driver/Src/stm32f7xx_hal_i2c.c ****       }
 683:../../Drivers/STM32F7xx_HAL_Driver/Src/stm32f7xx_hal_i2c.c ****       /* Write data to TXDR */
 684:../../Drivers/STM32F7xx_HAL_Driver/Src/stm32f7xx_hal_i2c.c ****       hi2c->Instance->TXDR = (*hi2c->pBuffPtr++);
 530              		.loc 1 684 0
 531 00f4 FB68     		ldr	r3, [r7, #12]
 532 00f6 1A68     		ldr	r2, [r3]
 533 00f8 FB68     		ldr	r3, [r7, #12]
 534 00fa 5B6A     		ldr	r3, [r3, #36]
 535 00fc 581C     		adds	r0, r3, #1
 536 00fe F968     		ldr	r1, [r7, #12]
 537 0100 4862     		str	r0, [r1, #36]
 538 0102 1B78     		ldrb	r3, [r3]	@ zero_extendqisi2
 539 0104 9362     		str	r3, [r2, #40]
 685:../../Drivers/STM32F7xx_HAL_Driver/Src/stm32f7xx_hal_i2c.c ****       hi2c->XferCount--;
 540              		.loc 1 685 0
 541 0106 FB68     		ldr	r3, [r7, #12]
 542 0108 5B8D     		ldrh	r3, [r3, #42]	@ movhi
 543 010a 9BB2     		uxth	r3, r3
 544 010c 013B     		subs	r3, r3, #1
 545 010e 9AB2     		uxth	r2, r3
 546 0110 FB68     		ldr	r3, [r7, #12]
 547 0112 5A85     		strh	r2, [r3, #42]	@ movhi
 686:../../Drivers/STM32F7xx_HAL_Driver/Src/stm32f7xx_hal_i2c.c ****       hi2c->XferSize--;
 548              		.loc 1 686 0
 549 0114 FB68     		ldr	r3, [r7, #12]
 550 0116 1B8D     		ldrh	r3, [r3, #40]
 551 0118 013B     		subs	r3, r3, #1
 552 011a 9AB2     		uxth	r2, r3
 553 011c FB68     		ldr	r3, [r7, #12]
 554 011e 1A85     		strh	r2, [r3, #40]	@ movhi
 687:../../Drivers/STM32F7xx_HAL_Driver/Src/stm32f7xx_hal_i2c.c ****       
 688:../../Drivers/STM32F7xx_HAL_Driver/Src/stm32f7xx_hal_i2c.c ****       if((hi2c->XferSize == 0) && (hi2c->XferCount!=0))
 555              		.loc 1 688 0
 556 0120 FB68     		ldr	r3, [r7, #12]
 557 0122 1B8D     		ldrh	r3, [r3, #40]
 558 0124 002B     		cmp	r3, #0
 559 0126 35D1     		bne	.L22
 560              		.loc 1 688 0 is_stmt 0 discriminator 1
 561 0128 FB68     		ldr	r3, [r7, #12]
 562 012a 5B8D     		ldrh	r3, [r3, #42]	@ movhi
 563 012c 9BB2     		uxth	r3, r3
 564 012e 002B     		cmp	r3, #0
 565 0130 30D0     		beq	.L22
 689:../../Drivers/STM32F7xx_HAL_Driver/Src/stm32f7xx_hal_i2c.c ****       {
 690:../../Drivers/STM32F7xx_HAL_Driver/Src/stm32f7xx_hal_i2c.c ****         /* Wait until TCR flag is set */
 691:../../Drivers/STM32F7xx_HAL_Driver/Src/stm32f7xx_hal_i2c.c ****         if(I2C_WaitOnFlagUntilTimeout(hi2c, I2C_FLAG_TCR, RESET, Timeout, tickstart) != HAL_OK)
 566              		.loc 1 691 0 is_stmt 1
 567 0132 7B69     		ldr	r3, [r7, #20]
 568 0134 0093     		str	r3, [sp]
 569 0136 F868     		ldr	r0, [r7, #12]
 570 0138 8021     		movs	r1, #128
 571 013a 0022     		movs	r2, #0
 572 013c 3B6A     		ldr	r3, [r7, #32]
ARM GAS  /tmp/cczIhzQ0.s 			page 23


 573 013e FFF7FEFF 		bl	I2C_WaitOnFlagUntilTimeout
 574 0142 0346     		mov	r3, r0
 575 0144 002B     		cmp	r3, #0
 576 0146 01D0     		beq	.L25
 692:../../Drivers/STM32F7xx_HAL_Driver/Src/stm32f7xx_hal_i2c.c ****         {
 693:../../Drivers/STM32F7xx_HAL_Driver/Src/stm32f7xx_hal_i2c.c ****           return HAL_TIMEOUT;
 577              		.loc 1 693 0
 578 0148 0323     		movs	r3, #3
 579 014a 52E0     		b	.L18
 580              	.L25:
 694:../../Drivers/STM32F7xx_HAL_Driver/Src/stm32f7xx_hal_i2c.c ****         }
 695:../../Drivers/STM32F7xx_HAL_Driver/Src/stm32f7xx_hal_i2c.c ****         
 696:../../Drivers/STM32F7xx_HAL_Driver/Src/stm32f7xx_hal_i2c.c ****         if(hi2c->XferCount > MAX_NBYTE_SIZE)
 581              		.loc 1 696 0
 582 014c FB68     		ldr	r3, [r7, #12]
 583 014e 5B8D     		ldrh	r3, [r3, #42]	@ movhi
 584 0150 9BB2     		uxth	r3, r3
 585 0152 FF2B     		cmp	r3, #255
 586 0154 0ED9     		bls	.L26
 697:../../Drivers/STM32F7xx_HAL_Driver/Src/stm32f7xx_hal_i2c.c ****         {
 698:../../Drivers/STM32F7xx_HAL_Driver/Src/stm32f7xx_hal_i2c.c ****           hi2c->XferSize = MAX_NBYTE_SIZE;
 587              		.loc 1 698 0
 588 0156 FB68     		ldr	r3, [r7, #12]
 589 0158 FF22     		movs	r2, #255
 590 015a 1A85     		strh	r2, [r3, #40]	@ movhi
 699:../../Drivers/STM32F7xx_HAL_Driver/Src/stm32f7xx_hal_i2c.c ****           I2C_TransferConfig(hi2c, DevAddress, hi2c->XferSize, I2C_RELOAD_MODE, I2C_NO_STARTSTOP);
 591              		.loc 1 699 0
 592 015c FB68     		ldr	r3, [r7, #12]
 593 015e 1B8D     		ldrh	r3, [r3, #40]
 594 0160 DAB2     		uxtb	r2, r3
 595 0162 7989     		ldrh	r1, [r7, #10]
 596 0164 0023     		movs	r3, #0
 597 0166 0093     		str	r3, [sp]
 598 0168 F868     		ldr	r0, [r7, #12]
 599 016a 4FF08073 		mov	r3, #16777216
 600 016e FFF7FEFF 		bl	I2C_TransferConfig
 601 0172 0FE0     		b	.L22
 602              	.L26:
 700:../../Drivers/STM32F7xx_HAL_Driver/Src/stm32f7xx_hal_i2c.c ****         }
 701:../../Drivers/STM32F7xx_HAL_Driver/Src/stm32f7xx_hal_i2c.c ****         else
 702:../../Drivers/STM32F7xx_HAL_Driver/Src/stm32f7xx_hal_i2c.c ****         {
 703:../../Drivers/STM32F7xx_HAL_Driver/Src/stm32f7xx_hal_i2c.c ****           hi2c->XferSize = hi2c->XferCount;
 603              		.loc 1 703 0
 604 0174 FB68     		ldr	r3, [r7, #12]
 605 0176 5B8D     		ldrh	r3, [r3, #42]	@ movhi
 606 0178 9AB2     		uxth	r2, r3
 607 017a FB68     		ldr	r3, [r7, #12]
 608 017c 1A85     		strh	r2, [r3, #40]	@ movhi
 704:../../Drivers/STM32F7xx_HAL_Driver/Src/stm32f7xx_hal_i2c.c ****           I2C_TransferConfig(hi2c, DevAddress, hi2c->XferSize, I2C_AUTOEND_MODE, I2C_NO_STARTSTOP);
 609              		.loc 1 704 0
 610 017e FB68     		ldr	r3, [r7, #12]
 611 0180 1B8D     		ldrh	r3, [r3, #40]
 612 0182 DAB2     		uxtb	r2, r3
 613 0184 7989     		ldrh	r1, [r7, #10]
 614 0186 0023     		movs	r3, #0
 615 0188 0093     		str	r3, [sp]
 616 018a F868     		ldr	r0, [r7, #12]
ARM GAS  /tmp/cczIhzQ0.s 			page 24


 617 018c 4FF00073 		mov	r3, #33554432
 618 0190 FFF7FEFF 		bl	I2C_TransferConfig
 619              	.L22:
 669:../../Drivers/STM32F7xx_HAL_Driver/Src/stm32f7xx_hal_i2c.c ****     {
 620              		.loc 1 669 0
 621 0194 FB68     		ldr	r3, [r7, #12]
 622 0196 1B8D     		ldrh	r3, [r3, #40]
 623 0198 002B     		cmp	r3, #0
 624 019a 9BD1     		bne	.L27
 705:../../Drivers/STM32F7xx_HAL_Driver/Src/stm32f7xx_hal_i2c.c ****         }
 706:../../Drivers/STM32F7xx_HAL_Driver/Src/stm32f7xx_hal_i2c.c ****       }
 707:../../Drivers/STM32F7xx_HAL_Driver/Src/stm32f7xx_hal_i2c.c ****     }
 708:../../Drivers/STM32F7xx_HAL_Driver/Src/stm32f7xx_hal_i2c.c ****     
 709:../../Drivers/STM32F7xx_HAL_Driver/Src/stm32f7xx_hal_i2c.c ****     /* No need to Check TC flag, with AUTOEND mode the stop is automatically generated */
 710:../../Drivers/STM32F7xx_HAL_Driver/Src/stm32f7xx_hal_i2c.c ****     /* Wait until STOPF flag is set */
 711:../../Drivers/STM32F7xx_HAL_Driver/Src/stm32f7xx_hal_i2c.c ****     if(I2C_WaitOnSTOPFlagUntilTimeout(hi2c, Timeout, tickstart) != HAL_OK)
 625              		.loc 1 711 0
 626 019c F868     		ldr	r0, [r7, #12]
 627 019e 396A     		ldr	r1, [r7, #32]
 628 01a0 7A69     		ldr	r2, [r7, #20]
 629 01a2 FFF7FEFF 		bl	I2C_WaitOnSTOPFlagUntilTimeout
 630 01a6 0346     		mov	r3, r0
 631 01a8 002B     		cmp	r3, #0
 632 01aa 07D0     		beq	.L28
 712:../../Drivers/STM32F7xx_HAL_Driver/Src/stm32f7xx_hal_i2c.c ****     {
 713:../../Drivers/STM32F7xx_HAL_Driver/Src/stm32f7xx_hal_i2c.c ****       if(hi2c->ErrorCode == HAL_I2C_ERROR_AF)
 633              		.loc 1 713 0
 634 01ac FB68     		ldr	r3, [r7, #12]
 635 01ae 5B6C     		ldr	r3, [r3, #68]
 636 01b0 042B     		cmp	r3, #4
 637 01b2 01D1     		bne	.L29
 714:../../Drivers/STM32F7xx_HAL_Driver/Src/stm32f7xx_hal_i2c.c ****       {
 715:../../Drivers/STM32F7xx_HAL_Driver/Src/stm32f7xx_hal_i2c.c ****         return HAL_ERROR;
 638              		.loc 1 715 0
 639 01b4 0123     		movs	r3, #1
 640 01b6 1CE0     		b	.L18
 641              	.L29:
 716:../../Drivers/STM32F7xx_HAL_Driver/Src/stm32f7xx_hal_i2c.c ****       }
 717:../../Drivers/STM32F7xx_HAL_Driver/Src/stm32f7xx_hal_i2c.c ****       else
 718:../../Drivers/STM32F7xx_HAL_Driver/Src/stm32f7xx_hal_i2c.c ****       {
 719:../../Drivers/STM32F7xx_HAL_Driver/Src/stm32f7xx_hal_i2c.c ****         return HAL_TIMEOUT;
 642              		.loc 1 719 0
 643 01b8 0323     		movs	r3, #3
 644 01ba 1AE0     		b	.L18
 645              	.L28:
 720:../../Drivers/STM32F7xx_HAL_Driver/Src/stm32f7xx_hal_i2c.c ****       }
 721:../../Drivers/STM32F7xx_HAL_Driver/Src/stm32f7xx_hal_i2c.c ****     }
 722:../../Drivers/STM32F7xx_HAL_Driver/Src/stm32f7xx_hal_i2c.c ****     
 723:../../Drivers/STM32F7xx_HAL_Driver/Src/stm32f7xx_hal_i2c.c ****     /* Clear STOP Flag */
 724:../../Drivers/STM32F7xx_HAL_Driver/Src/stm32f7xx_hal_i2c.c ****     __HAL_I2C_CLEAR_FLAG(hi2c, I2C_FLAG_STOPF);
 646              		.loc 1 724 0
 647 01bc FB68     		ldr	r3, [r7, #12]
 648 01be 1B68     		ldr	r3, [r3]
 649 01c0 2022     		movs	r2, #32
 650 01c2 DA61     		str	r2, [r3, #28]
 725:../../Drivers/STM32F7xx_HAL_Driver/Src/stm32f7xx_hal_i2c.c ****     
 726:../../Drivers/STM32F7xx_HAL_Driver/Src/stm32f7xx_hal_i2c.c ****     /* Clear Configuration Register 2 */
ARM GAS  /tmp/cczIhzQ0.s 			page 25


 727:../../Drivers/STM32F7xx_HAL_Driver/Src/stm32f7xx_hal_i2c.c ****     I2C_RESET_CR2(hi2c);
 651              		.loc 1 727 0
 652 01c4 FB68     		ldr	r3, [r7, #12]
 653 01c6 1A68     		ldr	r2, [r3]
 654 01c8 FB68     		ldr	r3, [r7, #12]
 655 01ca 1B68     		ldr	r3, [r3]
 656 01cc 5968     		ldr	r1, [r3, #4]
 657 01ce 0B4B     		ldr	r3, .L30
 658 01d0 0B40     		ands	r3, r3, r1
 659 01d2 5360     		str	r3, [r2, #4]
 728:../../Drivers/STM32F7xx_HAL_Driver/Src/stm32f7xx_hal_i2c.c ****     
 729:../../Drivers/STM32F7xx_HAL_Driver/Src/stm32f7xx_hal_i2c.c ****     hi2c->State = HAL_I2C_STATE_READY;
 660              		.loc 1 729 0
 661 01d4 FB68     		ldr	r3, [r7, #12]
 662 01d6 2022     		movs	r2, #32
 663 01d8 83F84120 		strb	r2, [r3, #65]
 730:../../Drivers/STM32F7xx_HAL_Driver/Src/stm32f7xx_hal_i2c.c ****     hi2c->Mode  = HAL_I2C_MODE_NONE;
 664              		.loc 1 730 0
 665 01dc FB68     		ldr	r3, [r7, #12]
 666 01de 0022     		movs	r2, #0
 667 01e0 83F84220 		strb	r2, [r3, #66]
 731:../../Drivers/STM32F7xx_HAL_Driver/Src/stm32f7xx_hal_i2c.c ****     
 732:../../Drivers/STM32F7xx_HAL_Driver/Src/stm32f7xx_hal_i2c.c ****     /* Process Unlocked */
 733:../../Drivers/STM32F7xx_HAL_Driver/Src/stm32f7xx_hal_i2c.c ****     __HAL_UNLOCK(hi2c);
 668              		.loc 1 733 0
 669 01e4 FB68     		ldr	r3, [r7, #12]
 670 01e6 0022     		movs	r2, #0
 671 01e8 83F84020 		strb	r2, [r3, #64]
 734:../../Drivers/STM32F7xx_HAL_Driver/Src/stm32f7xx_hal_i2c.c ****     
 735:../../Drivers/STM32F7xx_HAL_Driver/Src/stm32f7xx_hal_i2c.c ****     return HAL_OK;
 672              		.loc 1 735 0
 673 01ec 0023     		movs	r3, #0
 674 01ee 00E0     		b	.L18
 675              	.L16:
 736:../../Drivers/STM32F7xx_HAL_Driver/Src/stm32f7xx_hal_i2c.c ****   }
 737:../../Drivers/STM32F7xx_HAL_Driver/Src/stm32f7xx_hal_i2c.c ****   else
 738:../../Drivers/STM32F7xx_HAL_Driver/Src/stm32f7xx_hal_i2c.c ****   {
 739:../../Drivers/STM32F7xx_HAL_Driver/Src/stm32f7xx_hal_i2c.c ****     return HAL_BUSY;
 676              		.loc 1 739 0
 677 01f0 0223     		movs	r3, #2
 678              	.L18:
 740:../../Drivers/STM32F7xx_HAL_Driver/Src/stm32f7xx_hal_i2c.c ****   }
 741:../../Drivers/STM32F7xx_HAL_Driver/Src/stm32f7xx_hal_i2c.c **** }
 679              		.loc 1 741 0
 680 01f2 1846     		mov	r0, r3
 681 01f4 1837     		adds	r7, r7, #24
 682              	.LCFI25:
 683              		.cfi_def_cfa_offset 8
 684 01f6 BD46     		mov	sp, r7
 685              	.LCFI26:
 686              		.cfi_def_cfa_register 13
 687              		@ sp needed
 688 01f8 80BD     		pop	{r7, pc}
 689              	.L31:
 690 01fa 00BF     		.align	2
 691              	.L30:
 692 01fc 00E800FE 		.word	-33495040
ARM GAS  /tmp/cczIhzQ0.s 			page 26


 693              		.cfi_endproc
 694              	.LFE139:
 696              		.section	.text.HAL_I2C_Master_Receive,"ax",%progbits
 697              		.align	2
 698              		.global	HAL_I2C_Master_Receive
 699              		.thumb
 700              		.thumb_func
 702              	HAL_I2C_Master_Receive:
 703              	.LFB140:
 742:../../Drivers/STM32F7xx_HAL_Driver/Src/stm32f7xx_hal_i2c.c **** 
 743:../../Drivers/STM32F7xx_HAL_Driver/Src/stm32f7xx_hal_i2c.c **** /**
 744:../../Drivers/STM32F7xx_HAL_Driver/Src/stm32f7xx_hal_i2c.c ****   * @brief  Receives in master mode an amount of data in blocking mode.
 745:../../Drivers/STM32F7xx_HAL_Driver/Src/stm32f7xx_hal_i2c.c ****   * @param  hi2c: Pointer to a I2C_HandleTypeDef structure that contains
 746:../../Drivers/STM32F7xx_HAL_Driver/Src/stm32f7xx_hal_i2c.c ****   *               the configuration information for the specified I2C.
 747:../../Drivers/STM32F7xx_HAL_Driver/Src/stm32f7xx_hal_i2c.c ****   * @param  DevAddress: Target device address. The device 7 bits address value
 748:../../Drivers/STM32F7xx_HAL_Driver/Src/stm32f7xx_hal_i2c.c ****   *         in datasheet must be shift at right before call interface
 749:../../Drivers/STM32F7xx_HAL_Driver/Src/stm32f7xx_hal_i2c.c ****   * @param  pData: Pointer to data buffer
 750:../../Drivers/STM32F7xx_HAL_Driver/Src/stm32f7xx_hal_i2c.c ****   * @param  Size: Amount of data to be sent
 751:../../Drivers/STM32F7xx_HAL_Driver/Src/stm32f7xx_hal_i2c.c ****   * @param  Timeout: Timeout duration
 752:../../Drivers/STM32F7xx_HAL_Driver/Src/stm32f7xx_hal_i2c.c ****   * @retval HAL status
 753:../../Drivers/STM32F7xx_HAL_Driver/Src/stm32f7xx_hal_i2c.c ****   */
 754:../../Drivers/STM32F7xx_HAL_Driver/Src/stm32f7xx_hal_i2c.c **** HAL_StatusTypeDef HAL_I2C_Master_Receive(I2C_HandleTypeDef *hi2c, uint16_t DevAddress, uint8_t *pDa
 755:../../Drivers/STM32F7xx_HAL_Driver/Src/stm32f7xx_hal_i2c.c **** {
 704              		.loc 1 755 0
 705              		.cfi_startproc
 706              		@ args = 4, pretend = 0, frame = 24
 707              		@ frame_needed = 1, uses_anonymous_args = 0
 708 0000 80B5     		push	{r7, lr}
 709              	.LCFI27:
 710              		.cfi_def_cfa_offset 8
 711              		.cfi_offset 7, -8
 712              		.cfi_offset 14, -4
 713 0002 88B0     		sub	sp, sp, #32
 714              	.LCFI28:
 715              		.cfi_def_cfa_offset 40
 716 0004 02AF     		add	r7, sp, #8
 717              	.LCFI29:
 718              		.cfi_def_cfa 7, 32
 719 0006 F860     		str	r0, [r7, #12]
 720 0008 7A60     		str	r2, [r7, #4]
 721 000a 1A46     		mov	r2, r3
 722 000c 0B46     		mov	r3, r1	@ movhi
 723 000e 7B81     		strh	r3, [r7, #10]	@ movhi
 724 0010 1346     		mov	r3, r2	@ movhi
 725 0012 3B81     		strh	r3, [r7, #8]	@ movhi
 756:../../Drivers/STM32F7xx_HAL_Driver/Src/stm32f7xx_hal_i2c.c ****   uint32_t tickstart = 0;
 726              		.loc 1 756 0
 727 0014 0023     		movs	r3, #0
 728 0016 7B61     		str	r3, [r7, #20]
 757:../../Drivers/STM32F7xx_HAL_Driver/Src/stm32f7xx_hal_i2c.c ****   
 758:../../Drivers/STM32F7xx_HAL_Driver/Src/stm32f7xx_hal_i2c.c ****   if(hi2c->State == HAL_I2C_STATE_READY)
 729              		.loc 1 758 0
 730 0018 FB68     		ldr	r3, [r7, #12]
 731 001a 93F84130 		ldrb	r3, [r3, #65]
 732 001e DBB2     		uxtb	r3, r3
 733 0020 202B     		cmp	r3, #32
 734 0022 40F0E680 		bne	.L33
ARM GAS  /tmp/cczIhzQ0.s 			page 27


 759:../../Drivers/STM32F7xx_HAL_Driver/Src/stm32f7xx_hal_i2c.c ****   {    
 760:../../Drivers/STM32F7xx_HAL_Driver/Src/stm32f7xx_hal_i2c.c ****     /* Process Locked */
 761:../../Drivers/STM32F7xx_HAL_Driver/Src/stm32f7xx_hal_i2c.c ****     __HAL_LOCK(hi2c);
 735              		.loc 1 761 0
 736 0026 FB68     		ldr	r3, [r7, #12]
 737 0028 93F84030 		ldrb	r3, [r3, #64]	@ zero_extendqisi2
 738 002c 012B     		cmp	r3, #1
 739 002e 01D1     		bne	.L34
 740              		.loc 1 761 0 is_stmt 0 discriminator 1
 741 0030 0223     		movs	r3, #2
 742 0032 DFE0     		b	.L35
 743              	.L34:
 744              		.loc 1 761 0 discriminator 2
 745 0034 FB68     		ldr	r3, [r7, #12]
 746 0036 0122     		movs	r2, #1
 747 0038 83F84020 		strb	r2, [r3, #64]
 762:../../Drivers/STM32F7xx_HAL_Driver/Src/stm32f7xx_hal_i2c.c ****     
 763:../../Drivers/STM32F7xx_HAL_Driver/Src/stm32f7xx_hal_i2c.c ****     /* Init tickstart for timeout management*/
 764:../../Drivers/STM32F7xx_HAL_Driver/Src/stm32f7xx_hal_i2c.c ****     tickstart = HAL_GetTick();
 748              		.loc 1 764 0 is_stmt 1 discriminator 2
 749 003c FFF7FEFF 		bl	HAL_GetTick
 750 0040 7861     		str	r0, [r7, #20]
 765:../../Drivers/STM32F7xx_HAL_Driver/Src/stm32f7xx_hal_i2c.c ****     
 766:../../Drivers/STM32F7xx_HAL_Driver/Src/stm32f7xx_hal_i2c.c ****     if(I2C_WaitOnFlagUntilTimeout(hi2c, I2C_FLAG_BUSY, SET, I2C_TIMEOUT_BUSY, tickstart) != HAL_OK)
 751              		.loc 1 766 0 discriminator 2
 752 0042 7B69     		ldr	r3, [r7, #20]
 753 0044 0093     		str	r3, [sp]
 754 0046 F868     		ldr	r0, [r7, #12]
 755 0048 4FF40041 		mov	r1, #32768
 756 004c 0122     		movs	r2, #1
 757 004e 1923     		movs	r3, #25
 758 0050 FFF7FEFF 		bl	I2C_WaitOnFlagUntilTimeout
 759 0054 0346     		mov	r3, r0
 760 0056 002B     		cmp	r3, #0
 761 0058 01D0     		beq	.L36
 767:../../Drivers/STM32F7xx_HAL_Driver/Src/stm32f7xx_hal_i2c.c ****     {
 768:../../Drivers/STM32F7xx_HAL_Driver/Src/stm32f7xx_hal_i2c.c ****       return HAL_TIMEOUT;
 762              		.loc 1 768 0
 763 005a 0323     		movs	r3, #3
 764 005c CAE0     		b	.L35
 765              	.L36:
 769:../../Drivers/STM32F7xx_HAL_Driver/Src/stm32f7xx_hal_i2c.c ****     }
 770:../../Drivers/STM32F7xx_HAL_Driver/Src/stm32f7xx_hal_i2c.c ****     
 771:../../Drivers/STM32F7xx_HAL_Driver/Src/stm32f7xx_hal_i2c.c ****     hi2c->State     = HAL_I2C_STATE_BUSY_RX;
 766              		.loc 1 771 0
 767 005e FB68     		ldr	r3, [r7, #12]
 768 0060 2222     		movs	r2, #34
 769 0062 83F84120 		strb	r2, [r3, #65]
 772:../../Drivers/STM32F7xx_HAL_Driver/Src/stm32f7xx_hal_i2c.c ****     hi2c->Mode      = HAL_I2C_MODE_MASTER;
 770              		.loc 1 772 0
 771 0066 FB68     		ldr	r3, [r7, #12]
 772 0068 1022     		movs	r2, #16
 773 006a 83F84220 		strb	r2, [r3, #66]
 773:../../Drivers/STM32F7xx_HAL_Driver/Src/stm32f7xx_hal_i2c.c ****     hi2c->ErrorCode = HAL_I2C_ERROR_NONE;
 774              		.loc 1 773 0
 775 006e FB68     		ldr	r3, [r7, #12]
 776 0070 0022     		movs	r2, #0
ARM GAS  /tmp/cczIhzQ0.s 			page 28


 777 0072 5A64     		str	r2, [r3, #68]
 774:../../Drivers/STM32F7xx_HAL_Driver/Src/stm32f7xx_hal_i2c.c ****     
 775:../../Drivers/STM32F7xx_HAL_Driver/Src/stm32f7xx_hal_i2c.c ****     /* Prepare transfer parameters */
 776:../../Drivers/STM32F7xx_HAL_Driver/Src/stm32f7xx_hal_i2c.c ****     hi2c->pBuffPtr  = pData;
 778              		.loc 1 776 0
 779 0074 FB68     		ldr	r3, [r7, #12]
 780 0076 7A68     		ldr	r2, [r7, #4]
 781 0078 5A62     		str	r2, [r3, #36]
 777:../../Drivers/STM32F7xx_HAL_Driver/Src/stm32f7xx_hal_i2c.c ****     hi2c->XferCount = Size;
 782              		.loc 1 777 0
 783 007a FB68     		ldr	r3, [r7, #12]
 784 007c 3A89     		ldrh	r2, [r7, #8]	@ movhi
 785 007e 5A85     		strh	r2, [r3, #42]	@ movhi
 778:../../Drivers/STM32F7xx_HAL_Driver/Src/stm32f7xx_hal_i2c.c ****     hi2c->XferISR   = NULL;
 786              		.loc 1 778 0
 787 0080 FB68     		ldr	r3, [r7, #12]
 788 0082 0022     		movs	r2, #0
 789 0084 5A63     		str	r2, [r3, #52]
 779:../../Drivers/STM32F7xx_HAL_Driver/Src/stm32f7xx_hal_i2c.c ****     
 780:../../Drivers/STM32F7xx_HAL_Driver/Src/stm32f7xx_hal_i2c.c ****     /* Send Slave Address */
 781:../../Drivers/STM32F7xx_HAL_Driver/Src/stm32f7xx_hal_i2c.c ****     /* Set NBYTES to write and reload if hi2c->XferCount > MAX_NBYTE_SIZE and generate RESTART */
 782:../../Drivers/STM32F7xx_HAL_Driver/Src/stm32f7xx_hal_i2c.c ****     if(hi2c->XferCount > MAX_NBYTE_SIZE)
 790              		.loc 1 782 0
 791 0086 FB68     		ldr	r3, [r7, #12]
 792 0088 5B8D     		ldrh	r3, [r3, #42]	@ movhi
 793 008a 9BB2     		uxth	r3, r3
 794 008c FF2B     		cmp	r3, #255
 795 008e 0FD9     		bls	.L37
 783:../../Drivers/STM32F7xx_HAL_Driver/Src/stm32f7xx_hal_i2c.c ****     {
 784:../../Drivers/STM32F7xx_HAL_Driver/Src/stm32f7xx_hal_i2c.c ****       hi2c->XferSize = MAX_NBYTE_SIZE;
 796              		.loc 1 784 0
 797 0090 FB68     		ldr	r3, [r7, #12]
 798 0092 FF22     		movs	r2, #255
 799 0094 1A85     		strh	r2, [r3, #40]	@ movhi
 785:../../Drivers/STM32F7xx_HAL_Driver/Src/stm32f7xx_hal_i2c.c ****       I2C_TransferConfig(hi2c, DevAddress, hi2c->XferSize, I2C_RELOAD_MODE, I2C_GENERATE_START_READ
 800              		.loc 1 785 0
 801 0096 FB68     		ldr	r3, [r7, #12]
 802 0098 1B8D     		ldrh	r3, [r3, #40]
 803 009a DAB2     		uxtb	r2, r3
 804 009c 7989     		ldrh	r1, [r7, #10]
 805 009e 4FF41053 		mov	r3, #9216
 806 00a2 0093     		str	r3, [sp]
 807 00a4 F868     		ldr	r0, [r7, #12]
 808 00a6 4FF08073 		mov	r3, #16777216
 809 00aa FFF7FEFF 		bl	I2C_TransferConfig
 810 00ae 10E0     		b	.L38
 811              	.L37:
 786:../../Drivers/STM32F7xx_HAL_Driver/Src/stm32f7xx_hal_i2c.c ****     }
 787:../../Drivers/STM32F7xx_HAL_Driver/Src/stm32f7xx_hal_i2c.c ****     else
 788:../../Drivers/STM32F7xx_HAL_Driver/Src/stm32f7xx_hal_i2c.c ****     {
 789:../../Drivers/STM32F7xx_HAL_Driver/Src/stm32f7xx_hal_i2c.c ****       hi2c->XferSize = hi2c->XferCount;
 812              		.loc 1 789 0
 813 00b0 FB68     		ldr	r3, [r7, #12]
 814 00b2 5B8D     		ldrh	r3, [r3, #42]	@ movhi
 815 00b4 9AB2     		uxth	r2, r3
 816 00b6 FB68     		ldr	r3, [r7, #12]
 817 00b8 1A85     		strh	r2, [r3, #40]	@ movhi
ARM GAS  /tmp/cczIhzQ0.s 			page 29


 790:../../Drivers/STM32F7xx_HAL_Driver/Src/stm32f7xx_hal_i2c.c ****       I2C_TransferConfig(hi2c, DevAddress, hi2c->XferSize, I2C_AUTOEND_MODE, I2C_GENERATE_START_REA
 818              		.loc 1 790 0
 819 00ba FB68     		ldr	r3, [r7, #12]
 820 00bc 1B8D     		ldrh	r3, [r3, #40]
 821 00be DAB2     		uxtb	r2, r3
 822 00c0 7989     		ldrh	r1, [r7, #10]
 823 00c2 4FF41053 		mov	r3, #9216
 824 00c6 0093     		str	r3, [sp]
 825 00c8 F868     		ldr	r0, [r7, #12]
 826 00ca 4FF00073 		mov	r3, #33554432
 827 00ce FFF7FEFF 		bl	I2C_TransferConfig
 828              	.L38:
 791:../../Drivers/STM32F7xx_HAL_Driver/Src/stm32f7xx_hal_i2c.c ****     }
 792:../../Drivers/STM32F7xx_HAL_Driver/Src/stm32f7xx_hal_i2c.c ****     
 793:../../Drivers/STM32F7xx_HAL_Driver/Src/stm32f7xx_hal_i2c.c ****     while(hi2c->XferSize > 0)
 829              		.loc 1 793 0
 830 00d2 60E0     		b	.L39
 831              	.L44:
 794:../../Drivers/STM32F7xx_HAL_Driver/Src/stm32f7xx_hal_i2c.c ****     {
 795:../../Drivers/STM32F7xx_HAL_Driver/Src/stm32f7xx_hal_i2c.c ****       /* Wait until RXNE flag is set */
 796:../../Drivers/STM32F7xx_HAL_Driver/Src/stm32f7xx_hal_i2c.c ****       if(I2C_WaitOnRXNEFlagUntilTimeout(hi2c, Timeout, tickstart) != HAL_OK)
 832              		.loc 1 796 0
 833 00d4 F868     		ldr	r0, [r7, #12]
 834 00d6 396A     		ldr	r1, [r7, #32]
 835 00d8 7A69     		ldr	r2, [r7, #20]
 836 00da FFF7FEFF 		bl	I2C_WaitOnRXNEFlagUntilTimeout
 837 00de 0346     		mov	r3, r0
 838 00e0 002B     		cmp	r3, #0
 839 00e2 07D0     		beq	.L40
 797:../../Drivers/STM32F7xx_HAL_Driver/Src/stm32f7xx_hal_i2c.c ****       {
 798:../../Drivers/STM32F7xx_HAL_Driver/Src/stm32f7xx_hal_i2c.c ****         if(hi2c->ErrorCode == HAL_I2C_ERROR_AF)
 840              		.loc 1 798 0
 841 00e4 FB68     		ldr	r3, [r7, #12]
 842 00e6 5B6C     		ldr	r3, [r3, #68]
 843 00e8 042B     		cmp	r3, #4
 844 00ea 01D1     		bne	.L41
 799:../../Drivers/STM32F7xx_HAL_Driver/Src/stm32f7xx_hal_i2c.c ****         {
 800:../../Drivers/STM32F7xx_HAL_Driver/Src/stm32f7xx_hal_i2c.c ****           return HAL_ERROR;
 845              		.loc 1 800 0
 846 00ec 0123     		movs	r3, #1
 847 00ee 81E0     		b	.L35
 848              	.L41:
 801:../../Drivers/STM32F7xx_HAL_Driver/Src/stm32f7xx_hal_i2c.c ****         }
 802:../../Drivers/STM32F7xx_HAL_Driver/Src/stm32f7xx_hal_i2c.c ****         else
 803:../../Drivers/STM32F7xx_HAL_Driver/Src/stm32f7xx_hal_i2c.c ****         {
 804:../../Drivers/STM32F7xx_HAL_Driver/Src/stm32f7xx_hal_i2c.c ****           return HAL_TIMEOUT;
 849              		.loc 1 804 0
 850 00f0 0323     		movs	r3, #3
 851 00f2 7FE0     		b	.L35
 852              	.L40:
 805:../../Drivers/STM32F7xx_HAL_Driver/Src/stm32f7xx_hal_i2c.c ****         }
 806:../../Drivers/STM32F7xx_HAL_Driver/Src/stm32f7xx_hal_i2c.c ****       }
 807:../../Drivers/STM32F7xx_HAL_Driver/Src/stm32f7xx_hal_i2c.c ****       
 808:../../Drivers/STM32F7xx_HAL_Driver/Src/stm32f7xx_hal_i2c.c ****       /* Read data from RXDR */
 809:../../Drivers/STM32F7xx_HAL_Driver/Src/stm32f7xx_hal_i2c.c ****       (*hi2c->pBuffPtr++) = hi2c->Instance->RXDR;
 853              		.loc 1 809 0
 854 00f4 FB68     		ldr	r3, [r7, #12]
ARM GAS  /tmp/cczIhzQ0.s 			page 30


 855 00f6 5B6A     		ldr	r3, [r3, #36]
 856 00f8 591C     		adds	r1, r3, #1
 857 00fa FA68     		ldr	r2, [r7, #12]
 858 00fc 5162     		str	r1, [r2, #36]
 859 00fe FA68     		ldr	r2, [r7, #12]
 860 0100 1268     		ldr	r2, [r2]
 861 0102 526A     		ldr	r2, [r2, #36]
 862 0104 D2B2     		uxtb	r2, r2
 863 0106 1A70     		strb	r2, [r3]
 810:../../Drivers/STM32F7xx_HAL_Driver/Src/stm32f7xx_hal_i2c.c ****       hi2c->XferSize--;
 864              		.loc 1 810 0
 865 0108 FB68     		ldr	r3, [r7, #12]
 866 010a 1B8D     		ldrh	r3, [r3, #40]
 867 010c 013B     		subs	r3, r3, #1
 868 010e 9AB2     		uxth	r2, r3
 869 0110 FB68     		ldr	r3, [r7, #12]
 870 0112 1A85     		strh	r2, [r3, #40]	@ movhi
 811:../../Drivers/STM32F7xx_HAL_Driver/Src/stm32f7xx_hal_i2c.c ****       hi2c->XferCount--;
 871              		.loc 1 811 0
 872 0114 FB68     		ldr	r3, [r7, #12]
 873 0116 5B8D     		ldrh	r3, [r3, #42]	@ movhi
 874 0118 9BB2     		uxth	r3, r3
 875 011a 013B     		subs	r3, r3, #1
 876 011c 9AB2     		uxth	r2, r3
 877 011e FB68     		ldr	r3, [r7, #12]
 878 0120 5A85     		strh	r2, [r3, #42]	@ movhi
 812:../../Drivers/STM32F7xx_HAL_Driver/Src/stm32f7xx_hal_i2c.c ****       
 813:../../Drivers/STM32F7xx_HAL_Driver/Src/stm32f7xx_hal_i2c.c ****       if((hi2c->XferSize == 0) && (hi2c->XferCount != 0))
 879              		.loc 1 813 0
 880 0122 FB68     		ldr	r3, [r7, #12]
 881 0124 1B8D     		ldrh	r3, [r3, #40]
 882 0126 002B     		cmp	r3, #0
 883 0128 35D1     		bne	.L39
 884              		.loc 1 813 0 is_stmt 0 discriminator 1
 885 012a FB68     		ldr	r3, [r7, #12]
 886 012c 5B8D     		ldrh	r3, [r3, #42]	@ movhi
 887 012e 9BB2     		uxth	r3, r3
 888 0130 002B     		cmp	r3, #0
 889 0132 30D0     		beq	.L39
 814:../../Drivers/STM32F7xx_HAL_Driver/Src/stm32f7xx_hal_i2c.c ****       {
 815:../../Drivers/STM32F7xx_HAL_Driver/Src/stm32f7xx_hal_i2c.c ****         /* Wait until TCR flag is set */
 816:../../Drivers/STM32F7xx_HAL_Driver/Src/stm32f7xx_hal_i2c.c ****         if(I2C_WaitOnFlagUntilTimeout(hi2c, I2C_FLAG_TCR, RESET, Timeout, tickstart) != HAL_OK)
 890              		.loc 1 816 0 is_stmt 1
 891 0134 7B69     		ldr	r3, [r7, #20]
 892 0136 0093     		str	r3, [sp]
 893 0138 F868     		ldr	r0, [r7, #12]
 894 013a 8021     		movs	r1, #128
 895 013c 0022     		movs	r2, #0
 896 013e 3B6A     		ldr	r3, [r7, #32]
 897 0140 FFF7FEFF 		bl	I2C_WaitOnFlagUntilTimeout
 898 0144 0346     		mov	r3, r0
 899 0146 002B     		cmp	r3, #0
 900 0148 01D0     		beq	.L42
 817:../../Drivers/STM32F7xx_HAL_Driver/Src/stm32f7xx_hal_i2c.c ****         {
 818:../../Drivers/STM32F7xx_HAL_Driver/Src/stm32f7xx_hal_i2c.c ****           return HAL_TIMEOUT;
 901              		.loc 1 818 0
 902 014a 0323     		movs	r3, #3
ARM GAS  /tmp/cczIhzQ0.s 			page 31


 903 014c 52E0     		b	.L35
 904              	.L42:
 819:../../Drivers/STM32F7xx_HAL_Driver/Src/stm32f7xx_hal_i2c.c ****         }
 820:../../Drivers/STM32F7xx_HAL_Driver/Src/stm32f7xx_hal_i2c.c ****         
 821:../../Drivers/STM32F7xx_HAL_Driver/Src/stm32f7xx_hal_i2c.c ****         if(hi2c->XferCount > MAX_NBYTE_SIZE)
 905              		.loc 1 821 0
 906 014e FB68     		ldr	r3, [r7, #12]
 907 0150 5B8D     		ldrh	r3, [r3, #42]	@ movhi
 908 0152 9BB2     		uxth	r3, r3
 909 0154 FF2B     		cmp	r3, #255
 910 0156 0ED9     		bls	.L43
 822:../../Drivers/STM32F7xx_HAL_Driver/Src/stm32f7xx_hal_i2c.c ****         {
 823:../../Drivers/STM32F7xx_HAL_Driver/Src/stm32f7xx_hal_i2c.c ****           hi2c->XferSize = MAX_NBYTE_SIZE;
 911              		.loc 1 823 0
 912 0158 FB68     		ldr	r3, [r7, #12]
 913 015a FF22     		movs	r2, #255
 914 015c 1A85     		strh	r2, [r3, #40]	@ movhi
 824:../../Drivers/STM32F7xx_HAL_Driver/Src/stm32f7xx_hal_i2c.c ****           I2C_TransferConfig(hi2c, DevAddress, hi2c->XferSize, I2C_RELOAD_MODE, I2C_NO_STARTSTOP);
 915              		.loc 1 824 0
 916 015e FB68     		ldr	r3, [r7, #12]
 917 0160 1B8D     		ldrh	r3, [r3, #40]
 918 0162 DAB2     		uxtb	r2, r3
 919 0164 7989     		ldrh	r1, [r7, #10]
 920 0166 0023     		movs	r3, #0
 921 0168 0093     		str	r3, [sp]
 922 016a F868     		ldr	r0, [r7, #12]
 923 016c 4FF08073 		mov	r3, #16777216
 924 0170 FFF7FEFF 		bl	I2C_TransferConfig
 925 0174 0FE0     		b	.L39
 926              	.L43:
 825:../../Drivers/STM32F7xx_HAL_Driver/Src/stm32f7xx_hal_i2c.c ****         }
 826:../../Drivers/STM32F7xx_HAL_Driver/Src/stm32f7xx_hal_i2c.c ****         else
 827:../../Drivers/STM32F7xx_HAL_Driver/Src/stm32f7xx_hal_i2c.c ****         {
 828:../../Drivers/STM32F7xx_HAL_Driver/Src/stm32f7xx_hal_i2c.c ****           hi2c->XferSize = hi2c->XferCount;
 927              		.loc 1 828 0
 928 0176 FB68     		ldr	r3, [r7, #12]
 929 0178 5B8D     		ldrh	r3, [r3, #42]	@ movhi
 930 017a 9AB2     		uxth	r2, r3
 931 017c FB68     		ldr	r3, [r7, #12]
 932 017e 1A85     		strh	r2, [r3, #40]	@ movhi
 829:../../Drivers/STM32F7xx_HAL_Driver/Src/stm32f7xx_hal_i2c.c ****           I2C_TransferConfig(hi2c, DevAddress, hi2c->XferSize, I2C_AUTOEND_MODE, I2C_NO_STARTSTOP);
 933              		.loc 1 829 0
 934 0180 FB68     		ldr	r3, [r7, #12]
 935 0182 1B8D     		ldrh	r3, [r3, #40]
 936 0184 DAB2     		uxtb	r2, r3
 937 0186 7989     		ldrh	r1, [r7, #10]
 938 0188 0023     		movs	r3, #0
 939 018a 0093     		str	r3, [sp]
 940 018c F868     		ldr	r0, [r7, #12]
 941 018e 4FF00073 		mov	r3, #33554432
 942 0192 FFF7FEFF 		bl	I2C_TransferConfig
 943              	.L39:
 793:../../Drivers/STM32F7xx_HAL_Driver/Src/stm32f7xx_hal_i2c.c ****     {
 944              		.loc 1 793 0
 945 0196 FB68     		ldr	r3, [r7, #12]
 946 0198 1B8D     		ldrh	r3, [r3, #40]
 947 019a 002B     		cmp	r3, #0
ARM GAS  /tmp/cczIhzQ0.s 			page 32


 948 019c 9AD1     		bne	.L44
 830:../../Drivers/STM32F7xx_HAL_Driver/Src/stm32f7xx_hal_i2c.c ****         }
 831:../../Drivers/STM32F7xx_HAL_Driver/Src/stm32f7xx_hal_i2c.c ****       }
 832:../../Drivers/STM32F7xx_HAL_Driver/Src/stm32f7xx_hal_i2c.c ****     }
 833:../../Drivers/STM32F7xx_HAL_Driver/Src/stm32f7xx_hal_i2c.c ****     
 834:../../Drivers/STM32F7xx_HAL_Driver/Src/stm32f7xx_hal_i2c.c ****     /* No need to Check TC flag, with AUTOEND mode the stop is automatically generated */
 835:../../Drivers/STM32F7xx_HAL_Driver/Src/stm32f7xx_hal_i2c.c ****     /* Wait until STOPF flag is set */
 836:../../Drivers/STM32F7xx_HAL_Driver/Src/stm32f7xx_hal_i2c.c ****     if(I2C_WaitOnSTOPFlagUntilTimeout(hi2c, Timeout, tickstart) != HAL_OK)
 949              		.loc 1 836 0
 950 019e F868     		ldr	r0, [r7, #12]
 951 01a0 396A     		ldr	r1, [r7, #32]
 952 01a2 7A69     		ldr	r2, [r7, #20]
 953 01a4 FFF7FEFF 		bl	I2C_WaitOnSTOPFlagUntilTimeout
 954 01a8 0346     		mov	r3, r0
 955 01aa 002B     		cmp	r3, #0
 956 01ac 07D0     		beq	.L45
 837:../../Drivers/STM32F7xx_HAL_Driver/Src/stm32f7xx_hal_i2c.c ****     {
 838:../../Drivers/STM32F7xx_HAL_Driver/Src/stm32f7xx_hal_i2c.c ****       if(hi2c->ErrorCode == HAL_I2C_ERROR_AF)
 957              		.loc 1 838 0
 958 01ae FB68     		ldr	r3, [r7, #12]
 959 01b0 5B6C     		ldr	r3, [r3, #68]
 960 01b2 042B     		cmp	r3, #4
 961 01b4 01D1     		bne	.L46
 839:../../Drivers/STM32F7xx_HAL_Driver/Src/stm32f7xx_hal_i2c.c ****       {
 840:../../Drivers/STM32F7xx_HAL_Driver/Src/stm32f7xx_hal_i2c.c ****         return HAL_ERROR;
 962              		.loc 1 840 0
 963 01b6 0123     		movs	r3, #1
 964 01b8 1CE0     		b	.L35
 965              	.L46:
 841:../../Drivers/STM32F7xx_HAL_Driver/Src/stm32f7xx_hal_i2c.c ****       }
 842:../../Drivers/STM32F7xx_HAL_Driver/Src/stm32f7xx_hal_i2c.c ****       else
 843:../../Drivers/STM32F7xx_HAL_Driver/Src/stm32f7xx_hal_i2c.c ****       {
 844:../../Drivers/STM32F7xx_HAL_Driver/Src/stm32f7xx_hal_i2c.c ****         return HAL_TIMEOUT;
 966              		.loc 1 844 0
 967 01ba 0323     		movs	r3, #3
 968 01bc 1AE0     		b	.L35
 969              	.L45:
 845:../../Drivers/STM32F7xx_HAL_Driver/Src/stm32f7xx_hal_i2c.c ****       }
 846:../../Drivers/STM32F7xx_HAL_Driver/Src/stm32f7xx_hal_i2c.c ****     }
 847:../../Drivers/STM32F7xx_HAL_Driver/Src/stm32f7xx_hal_i2c.c ****     
 848:../../Drivers/STM32F7xx_HAL_Driver/Src/stm32f7xx_hal_i2c.c ****     /* Clear STOP Flag */
 849:../../Drivers/STM32F7xx_HAL_Driver/Src/stm32f7xx_hal_i2c.c ****     __HAL_I2C_CLEAR_FLAG(hi2c, I2C_FLAG_STOPF);
 970              		.loc 1 849 0
 971 01be FB68     		ldr	r3, [r7, #12]
 972 01c0 1B68     		ldr	r3, [r3]
 973 01c2 2022     		movs	r2, #32
 974 01c4 DA61     		str	r2, [r3, #28]
 850:../../Drivers/STM32F7xx_HAL_Driver/Src/stm32f7xx_hal_i2c.c ****     
 851:../../Drivers/STM32F7xx_HAL_Driver/Src/stm32f7xx_hal_i2c.c ****     /* Clear Configuration Register 2 */
 852:../../Drivers/STM32F7xx_HAL_Driver/Src/stm32f7xx_hal_i2c.c ****     I2C_RESET_CR2(hi2c);
 975              		.loc 1 852 0
 976 01c6 FB68     		ldr	r3, [r7, #12]
 977 01c8 1A68     		ldr	r2, [r3]
 978 01ca FB68     		ldr	r3, [r7, #12]
 979 01cc 1B68     		ldr	r3, [r3]
 980 01ce 5968     		ldr	r1, [r3, #4]
 981 01d0 0A4B     		ldr	r3, .L47
ARM GAS  /tmp/cczIhzQ0.s 			page 33


 982 01d2 0B40     		ands	r3, r3, r1
 983 01d4 5360     		str	r3, [r2, #4]
 853:../../Drivers/STM32F7xx_HAL_Driver/Src/stm32f7xx_hal_i2c.c ****     
 854:../../Drivers/STM32F7xx_HAL_Driver/Src/stm32f7xx_hal_i2c.c ****     hi2c->State = HAL_I2C_STATE_READY;
 984              		.loc 1 854 0
 985 01d6 FB68     		ldr	r3, [r7, #12]
 986 01d8 2022     		movs	r2, #32
 987 01da 83F84120 		strb	r2, [r3, #65]
 855:../../Drivers/STM32F7xx_HAL_Driver/Src/stm32f7xx_hal_i2c.c ****     hi2c->Mode  = HAL_I2C_MODE_NONE;
 988              		.loc 1 855 0
 989 01de FB68     		ldr	r3, [r7, #12]
 990 01e0 0022     		movs	r2, #0
 991 01e2 83F84220 		strb	r2, [r3, #66]
 856:../../Drivers/STM32F7xx_HAL_Driver/Src/stm32f7xx_hal_i2c.c ****     
 857:../../Drivers/STM32F7xx_HAL_Driver/Src/stm32f7xx_hal_i2c.c ****     /* Process Unlocked */
 858:../../Drivers/STM32F7xx_HAL_Driver/Src/stm32f7xx_hal_i2c.c ****     __HAL_UNLOCK(hi2c);
 992              		.loc 1 858 0
 993 01e6 FB68     		ldr	r3, [r7, #12]
 994 01e8 0022     		movs	r2, #0
 995 01ea 83F84020 		strb	r2, [r3, #64]
 859:../../Drivers/STM32F7xx_HAL_Driver/Src/stm32f7xx_hal_i2c.c ****     
 860:../../Drivers/STM32F7xx_HAL_Driver/Src/stm32f7xx_hal_i2c.c ****     return HAL_OK;
 996              		.loc 1 860 0
 997 01ee 0023     		movs	r3, #0
 998 01f0 00E0     		b	.L35
 999              	.L33:
 861:../../Drivers/STM32F7xx_HAL_Driver/Src/stm32f7xx_hal_i2c.c ****   }
 862:../../Drivers/STM32F7xx_HAL_Driver/Src/stm32f7xx_hal_i2c.c ****   else
 863:../../Drivers/STM32F7xx_HAL_Driver/Src/stm32f7xx_hal_i2c.c ****   {
 864:../../Drivers/STM32F7xx_HAL_Driver/Src/stm32f7xx_hal_i2c.c ****     return HAL_BUSY;
 1000              		.loc 1 864 0
 1001 01f2 0223     		movs	r3, #2
 1002              	.L35:
 865:../../Drivers/STM32F7xx_HAL_Driver/Src/stm32f7xx_hal_i2c.c ****   }
 866:../../Drivers/STM32F7xx_HAL_Driver/Src/stm32f7xx_hal_i2c.c **** }
 1003              		.loc 1 866 0
 1004 01f4 1846     		mov	r0, r3
 1005 01f6 1837     		adds	r7, r7, #24
 1006              	.LCFI30:
 1007              		.cfi_def_cfa_offset 8
 1008 01f8 BD46     		mov	sp, r7
 1009              	.LCFI31:
 1010              		.cfi_def_cfa_register 13
 1011              		@ sp needed
 1012 01fa 80BD     		pop	{r7, pc}
 1013              	.L48:
 1014              		.align	2
 1015              	.L47:
 1016 01fc 00E800FE 		.word	-33495040
 1017              		.cfi_endproc
 1018              	.LFE140:
 1020              		.section	.text.HAL_I2C_Slave_Transmit,"ax",%progbits
 1021              		.align	2
 1022              		.global	HAL_I2C_Slave_Transmit
 1023              		.thumb
 1024              		.thumb_func
 1026              	HAL_I2C_Slave_Transmit:
ARM GAS  /tmp/cczIhzQ0.s 			page 34


 1027              	.LFB141:
 867:../../Drivers/STM32F7xx_HAL_Driver/Src/stm32f7xx_hal_i2c.c **** 
 868:../../Drivers/STM32F7xx_HAL_Driver/Src/stm32f7xx_hal_i2c.c **** /**
 869:../../Drivers/STM32F7xx_HAL_Driver/Src/stm32f7xx_hal_i2c.c ****   * @brief  Transmits in slave mode an amount of data in blocking mode. 
 870:../../Drivers/STM32F7xx_HAL_Driver/Src/stm32f7xx_hal_i2c.c ****   * @param  hi2c: Pointer to a I2C_HandleTypeDef structure that contains
 871:../../Drivers/STM32F7xx_HAL_Driver/Src/stm32f7xx_hal_i2c.c ****   *               the configuration information for the specified I2C.
 872:../../Drivers/STM32F7xx_HAL_Driver/Src/stm32f7xx_hal_i2c.c ****   * @param  pData: Pointer to data buffer
 873:../../Drivers/STM32F7xx_HAL_Driver/Src/stm32f7xx_hal_i2c.c ****   * @param  Size: Amount of data to be sent
 874:../../Drivers/STM32F7xx_HAL_Driver/Src/stm32f7xx_hal_i2c.c ****   * @param  Timeout: Timeout duration
 875:../../Drivers/STM32F7xx_HAL_Driver/Src/stm32f7xx_hal_i2c.c ****   * @retval HAL status
 876:../../Drivers/STM32F7xx_HAL_Driver/Src/stm32f7xx_hal_i2c.c ****   */
 877:../../Drivers/STM32F7xx_HAL_Driver/Src/stm32f7xx_hal_i2c.c **** HAL_StatusTypeDef HAL_I2C_Slave_Transmit(I2C_HandleTypeDef *hi2c, uint8_t *pData, uint16_t Size, ui
 878:../../Drivers/STM32F7xx_HAL_Driver/Src/stm32f7xx_hal_i2c.c **** {
 1028              		.loc 1 878 0
 1029              		.cfi_startproc
 1030              		@ args = 0, pretend = 0, frame = 24
 1031              		@ frame_needed = 1, uses_anonymous_args = 0
 1032 0000 80B5     		push	{r7, lr}
 1033              	.LCFI32:
 1034              		.cfi_def_cfa_offset 8
 1035              		.cfi_offset 7, -8
 1036              		.cfi_offset 14, -4
 1037 0002 88B0     		sub	sp, sp, #32
 1038              	.LCFI33:
 1039              		.cfi_def_cfa_offset 40
 1040 0004 02AF     		add	r7, sp, #8
 1041              	.LCFI34:
 1042              		.cfi_def_cfa 7, 32
 1043 0006 F860     		str	r0, [r7, #12]
 1044 0008 B960     		str	r1, [r7, #8]
 1045 000a 3B60     		str	r3, [r7]
 1046 000c 1346     		mov	r3, r2	@ movhi
 1047 000e FB80     		strh	r3, [r7, #6]	@ movhi
 879:../../Drivers/STM32F7xx_HAL_Driver/Src/stm32f7xx_hal_i2c.c ****   uint32_t tickstart = 0;
 1048              		.loc 1 879 0
 1049 0010 0023     		movs	r3, #0
 1050 0012 7B61     		str	r3, [r7, #20]
 880:../../Drivers/STM32F7xx_HAL_Driver/Src/stm32f7xx_hal_i2c.c ****   
 881:../../Drivers/STM32F7xx_HAL_Driver/Src/stm32f7xx_hal_i2c.c ****   if(hi2c->State == HAL_I2C_STATE_READY)
 1051              		.loc 1 881 0
 1052 0014 FB68     		ldr	r3, [r7, #12]
 1053 0016 93F84130 		ldrb	r3, [r3, #65]
 1054 001a DBB2     		uxtb	r3, r3
 1055 001c 202B     		cmp	r3, #32
 1056 001e 40F0F680 		bne	.L50
 882:../../Drivers/STM32F7xx_HAL_Driver/Src/stm32f7xx_hal_i2c.c ****   {
 883:../../Drivers/STM32F7xx_HAL_Driver/Src/stm32f7xx_hal_i2c.c ****     if((pData == NULL ) || (Size == 0))
 1057              		.loc 1 883 0
 1058 0022 BB68     		ldr	r3, [r7, #8]
 1059 0024 002B     		cmp	r3, #0
 1060 0026 02D0     		beq	.L51
 1061              		.loc 1 883 0 is_stmt 0 discriminator 1
 1062 0028 FB88     		ldrh	r3, [r7, #6]
 1063 002a 002B     		cmp	r3, #0
 1064 002c 01D1     		bne	.L52
 1065              	.L51:
 884:../../Drivers/STM32F7xx_HAL_Driver/Src/stm32f7xx_hal_i2c.c ****     {
ARM GAS  /tmp/cczIhzQ0.s 			page 35


 885:../../Drivers/STM32F7xx_HAL_Driver/Src/stm32f7xx_hal_i2c.c ****       return  HAL_ERROR;
 1066              		.loc 1 885 0 is_stmt 1
 1067 002e 0123     		movs	r3, #1
 1068 0030 EEE0     		b	.L53
 1069              	.L52:
 886:../../Drivers/STM32F7xx_HAL_Driver/Src/stm32f7xx_hal_i2c.c ****     }
 887:../../Drivers/STM32F7xx_HAL_Driver/Src/stm32f7xx_hal_i2c.c ****     /* Process Locked */
 888:../../Drivers/STM32F7xx_HAL_Driver/Src/stm32f7xx_hal_i2c.c ****     __HAL_LOCK(hi2c);
 1070              		.loc 1 888 0
 1071 0032 FB68     		ldr	r3, [r7, #12]
 1072 0034 93F84030 		ldrb	r3, [r3, #64]	@ zero_extendqisi2
 1073 0038 012B     		cmp	r3, #1
 1074 003a 01D1     		bne	.L54
 1075              		.loc 1 888 0 is_stmt 0 discriminator 1
 1076 003c 0223     		movs	r3, #2
 1077 003e E7E0     		b	.L53
 1078              	.L54:
 1079              		.loc 1 888 0 discriminator 2
 1080 0040 FB68     		ldr	r3, [r7, #12]
 1081 0042 0122     		movs	r2, #1
 1082 0044 83F84020 		strb	r2, [r3, #64]
 889:../../Drivers/STM32F7xx_HAL_Driver/Src/stm32f7xx_hal_i2c.c ****     
 890:../../Drivers/STM32F7xx_HAL_Driver/Src/stm32f7xx_hal_i2c.c ****     /* Init tickstart for timeout management*/
 891:../../Drivers/STM32F7xx_HAL_Driver/Src/stm32f7xx_hal_i2c.c ****     tickstart = HAL_GetTick();
 1083              		.loc 1 891 0 is_stmt 1 discriminator 2
 1084 0048 FFF7FEFF 		bl	HAL_GetTick
 1085 004c 7861     		str	r0, [r7, #20]
 892:../../Drivers/STM32F7xx_HAL_Driver/Src/stm32f7xx_hal_i2c.c ****     
 893:../../Drivers/STM32F7xx_HAL_Driver/Src/stm32f7xx_hal_i2c.c ****     hi2c->State     = HAL_I2C_STATE_BUSY_TX;
 1086              		.loc 1 893 0 discriminator 2
 1087 004e FB68     		ldr	r3, [r7, #12]
 1088 0050 2122     		movs	r2, #33
 1089 0052 83F84120 		strb	r2, [r3, #65]
 894:../../Drivers/STM32F7xx_HAL_Driver/Src/stm32f7xx_hal_i2c.c ****     hi2c->Mode      = HAL_I2C_MODE_SLAVE;
 1090              		.loc 1 894 0 discriminator 2
 1091 0056 FB68     		ldr	r3, [r7, #12]
 1092 0058 2022     		movs	r2, #32
 1093 005a 83F84220 		strb	r2, [r3, #66]
 895:../../Drivers/STM32F7xx_HAL_Driver/Src/stm32f7xx_hal_i2c.c ****     hi2c->ErrorCode = HAL_I2C_ERROR_NONE;
 1094              		.loc 1 895 0 discriminator 2
 1095 005e FB68     		ldr	r3, [r7, #12]
 1096 0060 0022     		movs	r2, #0
 1097 0062 5A64     		str	r2, [r3, #68]
 896:../../Drivers/STM32F7xx_HAL_Driver/Src/stm32f7xx_hal_i2c.c ****     
 897:../../Drivers/STM32F7xx_HAL_Driver/Src/stm32f7xx_hal_i2c.c ****     /* Prepare transfer parameters */
 898:../../Drivers/STM32F7xx_HAL_Driver/Src/stm32f7xx_hal_i2c.c ****     hi2c->pBuffPtr  = pData;
 1098              		.loc 1 898 0 discriminator 2
 1099 0064 FB68     		ldr	r3, [r7, #12]
 1100 0066 BA68     		ldr	r2, [r7, #8]
 1101 0068 5A62     		str	r2, [r3, #36]
 899:../../Drivers/STM32F7xx_HAL_Driver/Src/stm32f7xx_hal_i2c.c ****     hi2c->XferCount = Size;
 1102              		.loc 1 899 0 discriminator 2
 1103 006a FB68     		ldr	r3, [r7, #12]
 1104 006c FA88     		ldrh	r2, [r7, #6]	@ movhi
 1105 006e 5A85     		strh	r2, [r3, #42]	@ movhi
 900:../../Drivers/STM32F7xx_HAL_Driver/Src/stm32f7xx_hal_i2c.c ****     hi2c->XferISR   = NULL;
 1106              		.loc 1 900 0 discriminator 2
ARM GAS  /tmp/cczIhzQ0.s 			page 36


 1107 0070 FB68     		ldr	r3, [r7, #12]
 1108 0072 0022     		movs	r2, #0
 1109 0074 5A63     		str	r2, [r3, #52]
 901:../../Drivers/STM32F7xx_HAL_Driver/Src/stm32f7xx_hal_i2c.c ****     
 902:../../Drivers/STM32F7xx_HAL_Driver/Src/stm32f7xx_hal_i2c.c ****     /* Enable Address Acknowledge */
 903:../../Drivers/STM32F7xx_HAL_Driver/Src/stm32f7xx_hal_i2c.c ****     hi2c->Instance->CR2 &= ~I2C_CR2_NACK;
 1110              		.loc 1 903 0 discriminator 2
 1111 0076 FB68     		ldr	r3, [r7, #12]
 1112 0078 1B68     		ldr	r3, [r3]
 1113 007a FA68     		ldr	r2, [r7, #12]
 1114 007c 1268     		ldr	r2, [r2]
 1115 007e 5268     		ldr	r2, [r2, #4]
 1116 0080 22F40042 		bic	r2, r2, #32768
 1117 0084 5A60     		str	r2, [r3, #4]
 904:../../Drivers/STM32F7xx_HAL_Driver/Src/stm32f7xx_hal_i2c.c ****     
 905:../../Drivers/STM32F7xx_HAL_Driver/Src/stm32f7xx_hal_i2c.c ****     /* Wait until ADDR flag is set */
 906:../../Drivers/STM32F7xx_HAL_Driver/Src/stm32f7xx_hal_i2c.c ****     if(I2C_WaitOnFlagUntilTimeout(hi2c, I2C_FLAG_ADDR, RESET, Timeout, tickstart) != HAL_OK)
 1118              		.loc 1 906 0 discriminator 2
 1119 0086 7B69     		ldr	r3, [r7, #20]
 1120 0088 0093     		str	r3, [sp]
 1121 008a F868     		ldr	r0, [r7, #12]
 1122 008c 0821     		movs	r1, #8
 1123 008e 0022     		movs	r2, #0
 1124 0090 3B68     		ldr	r3, [r7]
 1125 0092 FFF7FEFF 		bl	I2C_WaitOnFlagUntilTimeout
 1126 0096 0346     		mov	r3, r0
 1127 0098 002B     		cmp	r3, #0
 1128 009a 09D0     		beq	.L55
 907:../../Drivers/STM32F7xx_HAL_Driver/Src/stm32f7xx_hal_i2c.c ****     {
 908:../../Drivers/STM32F7xx_HAL_Driver/Src/stm32f7xx_hal_i2c.c ****       /* Disable Address Acknowledge */
 909:../../Drivers/STM32F7xx_HAL_Driver/Src/stm32f7xx_hal_i2c.c ****       hi2c->Instance->CR2 |= I2C_CR2_NACK;
 1129              		.loc 1 909 0
 1130 009c FB68     		ldr	r3, [r7, #12]
 1131 009e 1B68     		ldr	r3, [r3]
 1132 00a0 FA68     		ldr	r2, [r7, #12]
 1133 00a2 1268     		ldr	r2, [r2]
 1134 00a4 5268     		ldr	r2, [r2, #4]
 1135 00a6 42F40042 		orr	r2, r2, #32768
 1136 00aa 5A60     		str	r2, [r3, #4]
 910:../../Drivers/STM32F7xx_HAL_Driver/Src/stm32f7xx_hal_i2c.c ****       return HAL_TIMEOUT;
 1137              		.loc 1 910 0
 1138 00ac 0323     		movs	r3, #3
 1139 00ae AFE0     		b	.L53
 1140              	.L55:
 911:../../Drivers/STM32F7xx_HAL_Driver/Src/stm32f7xx_hal_i2c.c ****     }
 912:../../Drivers/STM32F7xx_HAL_Driver/Src/stm32f7xx_hal_i2c.c ****     
 913:../../Drivers/STM32F7xx_HAL_Driver/Src/stm32f7xx_hal_i2c.c ****     /* Clear ADDR flag */
 914:../../Drivers/STM32F7xx_HAL_Driver/Src/stm32f7xx_hal_i2c.c ****     __HAL_I2C_CLEAR_FLAG(hi2c,I2C_FLAG_ADDR);
 1141              		.loc 1 914 0
 1142 00b0 FB68     		ldr	r3, [r7, #12]
 1143 00b2 1B68     		ldr	r3, [r3]
 1144 00b4 0822     		movs	r2, #8
 1145 00b6 DA61     		str	r2, [r3, #28]
 915:../../Drivers/STM32F7xx_HAL_Driver/Src/stm32f7xx_hal_i2c.c ****     
 916:../../Drivers/STM32F7xx_HAL_Driver/Src/stm32f7xx_hal_i2c.c ****     /* If 10bit addressing mode is selected */
 917:../../Drivers/STM32F7xx_HAL_Driver/Src/stm32f7xx_hal_i2c.c ****     if(hi2c->Init.AddressingMode == I2C_ADDRESSINGMODE_10BIT)
 1146              		.loc 1 917 0
ARM GAS  /tmp/cczIhzQ0.s 			page 37


 1147 00b8 FB68     		ldr	r3, [r7, #12]
 1148 00ba DB68     		ldr	r3, [r3, #12]
 1149 00bc 022B     		cmp	r3, #2
 1150 00be 18D1     		bne	.L56
 918:../../Drivers/STM32F7xx_HAL_Driver/Src/stm32f7xx_hal_i2c.c ****     {
 919:../../Drivers/STM32F7xx_HAL_Driver/Src/stm32f7xx_hal_i2c.c ****       /* Wait until ADDR flag is set */
 920:../../Drivers/STM32F7xx_HAL_Driver/Src/stm32f7xx_hal_i2c.c ****       if(I2C_WaitOnFlagUntilTimeout(hi2c, I2C_FLAG_ADDR, RESET, Timeout, tickstart) != HAL_OK)
 1151              		.loc 1 920 0
 1152 00c0 7B69     		ldr	r3, [r7, #20]
 1153 00c2 0093     		str	r3, [sp]
 1154 00c4 F868     		ldr	r0, [r7, #12]
 1155 00c6 0821     		movs	r1, #8
 1156 00c8 0022     		movs	r2, #0
 1157 00ca 3B68     		ldr	r3, [r7]
 1158 00cc FFF7FEFF 		bl	I2C_WaitOnFlagUntilTimeout
 1159 00d0 0346     		mov	r3, r0
 1160 00d2 002B     		cmp	r3, #0
 1161 00d4 09D0     		beq	.L57
 921:../../Drivers/STM32F7xx_HAL_Driver/Src/stm32f7xx_hal_i2c.c ****       {
 922:../../Drivers/STM32F7xx_HAL_Driver/Src/stm32f7xx_hal_i2c.c ****         /* Disable Address Acknowledge */
 923:../../Drivers/STM32F7xx_HAL_Driver/Src/stm32f7xx_hal_i2c.c ****         hi2c->Instance->CR2 |= I2C_CR2_NACK;
 1162              		.loc 1 923 0
 1163 00d6 FB68     		ldr	r3, [r7, #12]
 1164 00d8 1B68     		ldr	r3, [r3]
 1165 00da FA68     		ldr	r2, [r7, #12]
 1166 00dc 1268     		ldr	r2, [r2]
 1167 00de 5268     		ldr	r2, [r2, #4]
 1168 00e0 42F40042 		orr	r2, r2, #32768
 1169 00e4 5A60     		str	r2, [r3, #4]
 924:../../Drivers/STM32F7xx_HAL_Driver/Src/stm32f7xx_hal_i2c.c ****         return HAL_TIMEOUT;
 1170              		.loc 1 924 0
 1171 00e6 0323     		movs	r3, #3
 1172 00e8 92E0     		b	.L53
 1173              	.L57:
 925:../../Drivers/STM32F7xx_HAL_Driver/Src/stm32f7xx_hal_i2c.c ****       }
 926:../../Drivers/STM32F7xx_HAL_Driver/Src/stm32f7xx_hal_i2c.c ****       
 927:../../Drivers/STM32F7xx_HAL_Driver/Src/stm32f7xx_hal_i2c.c ****       /* Clear ADDR flag */
 928:../../Drivers/STM32F7xx_HAL_Driver/Src/stm32f7xx_hal_i2c.c ****       __HAL_I2C_CLEAR_FLAG(hi2c,I2C_FLAG_ADDR);
 1174              		.loc 1 928 0
 1175 00ea FB68     		ldr	r3, [r7, #12]
 1176 00ec 1B68     		ldr	r3, [r3]
 1177 00ee 0822     		movs	r2, #8
 1178 00f0 DA61     		str	r2, [r3, #28]
 1179              	.L56:
 929:../../Drivers/STM32F7xx_HAL_Driver/Src/stm32f7xx_hal_i2c.c ****     }
 930:../../Drivers/STM32F7xx_HAL_Driver/Src/stm32f7xx_hal_i2c.c ****     
 931:../../Drivers/STM32F7xx_HAL_Driver/Src/stm32f7xx_hal_i2c.c ****     /* Wait until DIR flag is set Transmitter mode */
 932:../../Drivers/STM32F7xx_HAL_Driver/Src/stm32f7xx_hal_i2c.c ****     if(I2C_WaitOnFlagUntilTimeout(hi2c, I2C_FLAG_DIR, RESET, Timeout, tickstart) != HAL_OK)
 1180              		.loc 1 932 0
 1181 00f2 7B69     		ldr	r3, [r7, #20]
 1182 00f4 0093     		str	r3, [sp]
 1183 00f6 F868     		ldr	r0, [r7, #12]
 1184 00f8 4FF48031 		mov	r1, #65536
 1185 00fc 0022     		movs	r2, #0
 1186 00fe 3B68     		ldr	r3, [r7]
 1187 0100 FFF7FEFF 		bl	I2C_WaitOnFlagUntilTimeout
 1188 0104 0346     		mov	r3, r0
ARM GAS  /tmp/cczIhzQ0.s 			page 38


 1189 0106 002B     		cmp	r3, #0
 1190 0108 09D0     		beq	.L58
 933:../../Drivers/STM32F7xx_HAL_Driver/Src/stm32f7xx_hal_i2c.c ****     {
 934:../../Drivers/STM32F7xx_HAL_Driver/Src/stm32f7xx_hal_i2c.c ****       /* Disable Address Acknowledge */
 935:../../Drivers/STM32F7xx_HAL_Driver/Src/stm32f7xx_hal_i2c.c ****       hi2c->Instance->CR2 |= I2C_CR2_NACK;
 1191              		.loc 1 935 0
 1192 010a FB68     		ldr	r3, [r7, #12]
 1193 010c 1B68     		ldr	r3, [r3]
 1194 010e FA68     		ldr	r2, [r7, #12]
 1195 0110 1268     		ldr	r2, [r2]
 1196 0112 5268     		ldr	r2, [r2, #4]
 1197 0114 42F40042 		orr	r2, r2, #32768
 1198 0118 5A60     		str	r2, [r3, #4]
 936:../../Drivers/STM32F7xx_HAL_Driver/Src/stm32f7xx_hal_i2c.c ****       return HAL_TIMEOUT;
 1199              		.loc 1 936 0
 1200 011a 0323     		movs	r3, #3
 1201 011c 78E0     		b	.L53
 1202              	.L58:
 937:../../Drivers/STM32F7xx_HAL_Driver/Src/stm32f7xx_hal_i2c.c ****     }
 938:../../Drivers/STM32F7xx_HAL_Driver/Src/stm32f7xx_hal_i2c.c ****     
 939:../../Drivers/STM32F7xx_HAL_Driver/Src/stm32f7xx_hal_i2c.c ****     while(hi2c->XferCount > 0)
 1203              		.loc 1 939 0
 1204 011e 27E0     		b	.L59
 1205              	.L62:
 940:../../Drivers/STM32F7xx_HAL_Driver/Src/stm32f7xx_hal_i2c.c ****     {
 941:../../Drivers/STM32F7xx_HAL_Driver/Src/stm32f7xx_hal_i2c.c ****       /* Wait until TXIS flag is set */
 942:../../Drivers/STM32F7xx_HAL_Driver/Src/stm32f7xx_hal_i2c.c ****       if(I2C_WaitOnTXISFlagUntilTimeout(hi2c, Timeout, tickstart) != HAL_OK)
 1206              		.loc 1 942 0
 1207 0120 F868     		ldr	r0, [r7, #12]
 1208 0122 3968     		ldr	r1, [r7]
 1209 0124 7A69     		ldr	r2, [r7, #20]
 1210 0126 FFF7FEFF 		bl	I2C_WaitOnTXISFlagUntilTimeout
 1211 012a 0346     		mov	r3, r0
 1212 012c 002B     		cmp	r3, #0
 1213 012e 0FD0     		beq	.L60
 943:../../Drivers/STM32F7xx_HAL_Driver/Src/stm32f7xx_hal_i2c.c ****       {
 944:../../Drivers/STM32F7xx_HAL_Driver/Src/stm32f7xx_hal_i2c.c ****         /* Disable Address Acknowledge */
 945:../../Drivers/STM32F7xx_HAL_Driver/Src/stm32f7xx_hal_i2c.c ****         hi2c->Instance->CR2 |= I2C_CR2_NACK;
 1214              		.loc 1 945 0
 1215 0130 FB68     		ldr	r3, [r7, #12]
 1216 0132 1B68     		ldr	r3, [r3]
 1217 0134 FA68     		ldr	r2, [r7, #12]
 1218 0136 1268     		ldr	r2, [r2]
 1219 0138 5268     		ldr	r2, [r2, #4]
 1220 013a 42F40042 		orr	r2, r2, #32768
 1221 013e 5A60     		str	r2, [r3, #4]
 946:../../Drivers/STM32F7xx_HAL_Driver/Src/stm32f7xx_hal_i2c.c ****         
 947:../../Drivers/STM32F7xx_HAL_Driver/Src/stm32f7xx_hal_i2c.c ****         if(hi2c->ErrorCode == HAL_I2C_ERROR_AF)
 1222              		.loc 1 947 0
 1223 0140 FB68     		ldr	r3, [r7, #12]
 1224 0142 5B6C     		ldr	r3, [r3, #68]
 1225 0144 042B     		cmp	r3, #4
 1226 0146 01D1     		bne	.L61
 948:../../Drivers/STM32F7xx_HAL_Driver/Src/stm32f7xx_hal_i2c.c ****         {
 949:../../Drivers/STM32F7xx_HAL_Driver/Src/stm32f7xx_hal_i2c.c ****           return HAL_ERROR;
 1227              		.loc 1 949 0
 1228 0148 0123     		movs	r3, #1
ARM GAS  /tmp/cczIhzQ0.s 			page 39


 1229 014a 61E0     		b	.L53
 1230              	.L61:
 950:../../Drivers/STM32F7xx_HAL_Driver/Src/stm32f7xx_hal_i2c.c ****         }
 951:../../Drivers/STM32F7xx_HAL_Driver/Src/stm32f7xx_hal_i2c.c ****         else
 952:../../Drivers/STM32F7xx_HAL_Driver/Src/stm32f7xx_hal_i2c.c ****         {
 953:../../Drivers/STM32F7xx_HAL_Driver/Src/stm32f7xx_hal_i2c.c ****           return HAL_TIMEOUT;
 1231              		.loc 1 953 0
 1232 014c 0323     		movs	r3, #3
 1233 014e 5FE0     		b	.L53
 1234              	.L60:
 954:../../Drivers/STM32F7xx_HAL_Driver/Src/stm32f7xx_hal_i2c.c ****         }
 955:../../Drivers/STM32F7xx_HAL_Driver/Src/stm32f7xx_hal_i2c.c ****       }
 956:../../Drivers/STM32F7xx_HAL_Driver/Src/stm32f7xx_hal_i2c.c ****       
 957:../../Drivers/STM32F7xx_HAL_Driver/Src/stm32f7xx_hal_i2c.c ****       /* Write data to TXDR */
 958:../../Drivers/STM32F7xx_HAL_Driver/Src/stm32f7xx_hal_i2c.c ****       hi2c->Instance->TXDR = (*hi2c->pBuffPtr++);
 1235              		.loc 1 958 0
 1236 0150 FB68     		ldr	r3, [r7, #12]
 1237 0152 1A68     		ldr	r2, [r3]
 1238 0154 FB68     		ldr	r3, [r7, #12]
 1239 0156 5B6A     		ldr	r3, [r3, #36]
 1240 0158 581C     		adds	r0, r3, #1
 1241 015a F968     		ldr	r1, [r7, #12]
 1242 015c 4862     		str	r0, [r1, #36]
 1243 015e 1B78     		ldrb	r3, [r3]	@ zero_extendqisi2
 1244 0160 9362     		str	r3, [r2, #40]
 959:../../Drivers/STM32F7xx_HAL_Driver/Src/stm32f7xx_hal_i2c.c ****       hi2c->XferCount--;
 1245              		.loc 1 959 0
 1246 0162 FB68     		ldr	r3, [r7, #12]
 1247 0164 5B8D     		ldrh	r3, [r3, #42]	@ movhi
 1248 0166 9BB2     		uxth	r3, r3
 1249 0168 013B     		subs	r3, r3, #1
 1250 016a 9AB2     		uxth	r2, r3
 1251 016c FB68     		ldr	r3, [r7, #12]
 1252 016e 5A85     		strh	r2, [r3, #42]	@ movhi
 1253              	.L59:
 939:../../Drivers/STM32F7xx_HAL_Driver/Src/stm32f7xx_hal_i2c.c ****     {
 1254              		.loc 1 939 0
 1255 0170 FB68     		ldr	r3, [r7, #12]
 1256 0172 5B8D     		ldrh	r3, [r3, #42]	@ movhi
 1257 0174 9BB2     		uxth	r3, r3
 1258 0176 002B     		cmp	r3, #0
 1259 0178 D2D1     		bne	.L62
 960:../../Drivers/STM32F7xx_HAL_Driver/Src/stm32f7xx_hal_i2c.c ****     }
 961:../../Drivers/STM32F7xx_HAL_Driver/Src/stm32f7xx_hal_i2c.c ****     
 962:../../Drivers/STM32F7xx_HAL_Driver/Src/stm32f7xx_hal_i2c.c ****     /* Wait until STOP flag is set */
 963:../../Drivers/STM32F7xx_HAL_Driver/Src/stm32f7xx_hal_i2c.c ****     if(I2C_WaitOnSTOPFlagUntilTimeout(hi2c, Timeout, tickstart) != HAL_OK)
 1260              		.loc 1 963 0
 1261 017a F868     		ldr	r0, [r7, #12]
 1262 017c 3968     		ldr	r1, [r7]
 1263 017e 7A69     		ldr	r2, [r7, #20]
 1264 0180 FFF7FEFF 		bl	I2C_WaitOnSTOPFlagUntilTimeout
 1265 0184 0346     		mov	r3, r0
 1266 0186 002B     		cmp	r3, #0
 1267 0188 11D0     		beq	.L63
 964:../../Drivers/STM32F7xx_HAL_Driver/Src/stm32f7xx_hal_i2c.c ****     {
 965:../../Drivers/STM32F7xx_HAL_Driver/Src/stm32f7xx_hal_i2c.c ****       /* Disable Address Acknowledge */
 966:../../Drivers/STM32F7xx_HAL_Driver/Src/stm32f7xx_hal_i2c.c ****       hi2c->Instance->CR2 |= I2C_CR2_NACK;
ARM GAS  /tmp/cczIhzQ0.s 			page 40


 1268              		.loc 1 966 0
 1269 018a FB68     		ldr	r3, [r7, #12]
 1270 018c 1B68     		ldr	r3, [r3]
 1271 018e FA68     		ldr	r2, [r7, #12]
 1272 0190 1268     		ldr	r2, [r2]
 1273 0192 5268     		ldr	r2, [r2, #4]
 1274 0194 42F40042 		orr	r2, r2, #32768
 1275 0198 5A60     		str	r2, [r3, #4]
 967:../../Drivers/STM32F7xx_HAL_Driver/Src/stm32f7xx_hal_i2c.c ****       
 968:../../Drivers/STM32F7xx_HAL_Driver/Src/stm32f7xx_hal_i2c.c ****       if(hi2c->ErrorCode == HAL_I2C_ERROR_AF)
 1276              		.loc 1 968 0
 1277 019a FB68     		ldr	r3, [r7, #12]
 1278 019c 5B6C     		ldr	r3, [r3, #68]
 1279 019e 042B     		cmp	r3, #4
 1280 01a0 03D1     		bne	.L64
 969:../../Drivers/STM32F7xx_HAL_Driver/Src/stm32f7xx_hal_i2c.c ****       {
 970:../../Drivers/STM32F7xx_HAL_Driver/Src/stm32f7xx_hal_i2c.c ****         /* Normal use case for Transmitter mode */
 971:../../Drivers/STM32F7xx_HAL_Driver/Src/stm32f7xx_hal_i2c.c ****         /* A NACK is generated to confirm the end of transfer */
 972:../../Drivers/STM32F7xx_HAL_Driver/Src/stm32f7xx_hal_i2c.c ****         hi2c->ErrorCode = HAL_I2C_ERROR_NONE;
 1281              		.loc 1 972 0
 1282 01a2 FB68     		ldr	r3, [r7, #12]
 1283 01a4 0022     		movs	r2, #0
 1284 01a6 5A64     		str	r2, [r3, #68]
 1285 01a8 01E0     		b	.L63
 1286              	.L64:
 973:../../Drivers/STM32F7xx_HAL_Driver/Src/stm32f7xx_hal_i2c.c ****       }
 974:../../Drivers/STM32F7xx_HAL_Driver/Src/stm32f7xx_hal_i2c.c ****       else
 975:../../Drivers/STM32F7xx_HAL_Driver/Src/stm32f7xx_hal_i2c.c ****       {
 976:../../Drivers/STM32F7xx_HAL_Driver/Src/stm32f7xx_hal_i2c.c ****         return HAL_TIMEOUT;
 1287              		.loc 1 976 0
 1288 01aa 0323     		movs	r3, #3
 1289 01ac 30E0     		b	.L53
 1290              	.L63:
 977:../../Drivers/STM32F7xx_HAL_Driver/Src/stm32f7xx_hal_i2c.c ****       }
 978:../../Drivers/STM32F7xx_HAL_Driver/Src/stm32f7xx_hal_i2c.c ****     }
 979:../../Drivers/STM32F7xx_HAL_Driver/Src/stm32f7xx_hal_i2c.c ****     
 980:../../Drivers/STM32F7xx_HAL_Driver/Src/stm32f7xx_hal_i2c.c ****     /* Clear STOP flag */
 981:../../Drivers/STM32F7xx_HAL_Driver/Src/stm32f7xx_hal_i2c.c ****     __HAL_I2C_CLEAR_FLAG(hi2c,I2C_FLAG_STOPF);
 1291              		.loc 1 981 0
 1292 01ae FB68     		ldr	r3, [r7, #12]
 1293 01b0 1B68     		ldr	r3, [r3]
 1294 01b2 2022     		movs	r2, #32
 1295 01b4 DA61     		str	r2, [r3, #28]
 982:../../Drivers/STM32F7xx_HAL_Driver/Src/stm32f7xx_hal_i2c.c ****     
 983:../../Drivers/STM32F7xx_HAL_Driver/Src/stm32f7xx_hal_i2c.c ****     /* Wait until BUSY flag is reset */ 
 984:../../Drivers/STM32F7xx_HAL_Driver/Src/stm32f7xx_hal_i2c.c ****     if(I2C_WaitOnFlagUntilTimeout(hi2c, I2C_FLAG_BUSY, SET, Timeout, tickstart) != HAL_OK)
 1296              		.loc 1 984 0
 1297 01b6 7B69     		ldr	r3, [r7, #20]
 1298 01b8 0093     		str	r3, [sp]
 1299 01ba F868     		ldr	r0, [r7, #12]
 1300 01bc 4FF40041 		mov	r1, #32768
 1301 01c0 0122     		movs	r2, #1
 1302 01c2 3B68     		ldr	r3, [r7]
 1303 01c4 FFF7FEFF 		bl	I2C_WaitOnFlagUntilTimeout
 1304 01c8 0346     		mov	r3, r0
 1305 01ca 002B     		cmp	r3, #0
 1306 01cc 09D0     		beq	.L65
ARM GAS  /tmp/cczIhzQ0.s 			page 41


 985:../../Drivers/STM32F7xx_HAL_Driver/Src/stm32f7xx_hal_i2c.c ****     {
 986:../../Drivers/STM32F7xx_HAL_Driver/Src/stm32f7xx_hal_i2c.c ****       /* Disable Address Acknowledge */
 987:../../Drivers/STM32F7xx_HAL_Driver/Src/stm32f7xx_hal_i2c.c ****       hi2c->Instance->CR2 |= I2C_CR2_NACK;
 1307              		.loc 1 987 0
 1308 01ce FB68     		ldr	r3, [r7, #12]
 1309 01d0 1B68     		ldr	r3, [r3]
 1310 01d2 FA68     		ldr	r2, [r7, #12]
 1311 01d4 1268     		ldr	r2, [r2]
 1312 01d6 5268     		ldr	r2, [r2, #4]
 1313 01d8 42F40042 		orr	r2, r2, #32768
 1314 01dc 5A60     		str	r2, [r3, #4]
 988:../../Drivers/STM32F7xx_HAL_Driver/Src/stm32f7xx_hal_i2c.c ****       return HAL_TIMEOUT;
 1315              		.loc 1 988 0
 1316 01de 0323     		movs	r3, #3
 1317 01e0 16E0     		b	.L53
 1318              	.L65:
 989:../../Drivers/STM32F7xx_HAL_Driver/Src/stm32f7xx_hal_i2c.c ****     }
 990:../../Drivers/STM32F7xx_HAL_Driver/Src/stm32f7xx_hal_i2c.c ****     
 991:../../Drivers/STM32F7xx_HAL_Driver/Src/stm32f7xx_hal_i2c.c ****     /* Disable Address Acknowledge */
 992:../../Drivers/STM32F7xx_HAL_Driver/Src/stm32f7xx_hal_i2c.c ****     hi2c->Instance->CR2 |= I2C_CR2_NACK;
 1319              		.loc 1 992 0
 1320 01e2 FB68     		ldr	r3, [r7, #12]
 1321 01e4 1B68     		ldr	r3, [r3]
 1322 01e6 FA68     		ldr	r2, [r7, #12]
 1323 01e8 1268     		ldr	r2, [r2]
 1324 01ea 5268     		ldr	r2, [r2, #4]
 1325 01ec 42F40042 		orr	r2, r2, #32768
 1326 01f0 5A60     		str	r2, [r3, #4]
 993:../../Drivers/STM32F7xx_HAL_Driver/Src/stm32f7xx_hal_i2c.c ****     
 994:../../Drivers/STM32F7xx_HAL_Driver/Src/stm32f7xx_hal_i2c.c ****     hi2c->State = HAL_I2C_STATE_READY;
 1327              		.loc 1 994 0
 1328 01f2 FB68     		ldr	r3, [r7, #12]
 1329 01f4 2022     		movs	r2, #32
 1330 01f6 83F84120 		strb	r2, [r3, #65]
 995:../../Drivers/STM32F7xx_HAL_Driver/Src/stm32f7xx_hal_i2c.c ****     hi2c->Mode  = HAL_I2C_MODE_NONE;
 1331              		.loc 1 995 0
 1332 01fa FB68     		ldr	r3, [r7, #12]
 1333 01fc 0022     		movs	r2, #0
 1334 01fe 83F84220 		strb	r2, [r3, #66]
 996:../../Drivers/STM32F7xx_HAL_Driver/Src/stm32f7xx_hal_i2c.c ****     
 997:../../Drivers/STM32F7xx_HAL_Driver/Src/stm32f7xx_hal_i2c.c ****     /* Process Unlocked */
 998:../../Drivers/STM32F7xx_HAL_Driver/Src/stm32f7xx_hal_i2c.c ****     __HAL_UNLOCK(hi2c);
 1335              		.loc 1 998 0
 1336 0202 FB68     		ldr	r3, [r7, #12]
 1337 0204 0022     		movs	r2, #0
 1338 0206 83F84020 		strb	r2, [r3, #64]
 999:../../Drivers/STM32F7xx_HAL_Driver/Src/stm32f7xx_hal_i2c.c ****     
1000:../../Drivers/STM32F7xx_HAL_Driver/Src/stm32f7xx_hal_i2c.c ****     return HAL_OK;
 1339              		.loc 1 1000 0
 1340 020a 0023     		movs	r3, #0
 1341 020c 00E0     		b	.L53
 1342              	.L50:
1001:../../Drivers/STM32F7xx_HAL_Driver/Src/stm32f7xx_hal_i2c.c ****   }
1002:../../Drivers/STM32F7xx_HAL_Driver/Src/stm32f7xx_hal_i2c.c ****   else
1003:../../Drivers/STM32F7xx_HAL_Driver/Src/stm32f7xx_hal_i2c.c ****   {
1004:../../Drivers/STM32F7xx_HAL_Driver/Src/stm32f7xx_hal_i2c.c ****     return HAL_BUSY;
 1343              		.loc 1 1004 0
ARM GAS  /tmp/cczIhzQ0.s 			page 42


 1344 020e 0223     		movs	r3, #2
 1345              	.L53:
1005:../../Drivers/STM32F7xx_HAL_Driver/Src/stm32f7xx_hal_i2c.c ****   }
1006:../../Drivers/STM32F7xx_HAL_Driver/Src/stm32f7xx_hal_i2c.c **** }
 1346              		.loc 1 1006 0
 1347 0210 1846     		mov	r0, r3
 1348 0212 1837     		adds	r7, r7, #24
 1349              	.LCFI35:
 1350              		.cfi_def_cfa_offset 8
 1351 0214 BD46     		mov	sp, r7
 1352              	.LCFI36:
 1353              		.cfi_def_cfa_register 13
 1354              		@ sp needed
 1355 0216 80BD     		pop	{r7, pc}
 1356              		.cfi_endproc
 1357              	.LFE141:
 1359              		.section	.text.HAL_I2C_Slave_Receive,"ax",%progbits
 1360              		.align	2
 1361              		.global	HAL_I2C_Slave_Receive
 1362              		.thumb
 1363              		.thumb_func
 1365              	HAL_I2C_Slave_Receive:
 1366              	.LFB142:
1007:../../Drivers/STM32F7xx_HAL_Driver/Src/stm32f7xx_hal_i2c.c **** 
1008:../../Drivers/STM32F7xx_HAL_Driver/Src/stm32f7xx_hal_i2c.c **** /**
1009:../../Drivers/STM32F7xx_HAL_Driver/Src/stm32f7xx_hal_i2c.c ****   * @brief  Receive in slave mode an amount of data in blocking mode
1010:../../Drivers/STM32F7xx_HAL_Driver/Src/stm32f7xx_hal_i2c.c ****   * @param  hi2c: Pointer to a I2C_HandleTypeDef structure that contains
1011:../../Drivers/STM32F7xx_HAL_Driver/Src/stm32f7xx_hal_i2c.c ****   *               the configuration information for the specified I2C.
1012:../../Drivers/STM32F7xx_HAL_Driver/Src/stm32f7xx_hal_i2c.c ****   * @param  pData: Pointer to data buffer
1013:../../Drivers/STM32F7xx_HAL_Driver/Src/stm32f7xx_hal_i2c.c ****   * @param  Size: Amount of data to be sent
1014:../../Drivers/STM32F7xx_HAL_Driver/Src/stm32f7xx_hal_i2c.c ****   * @param  Timeout: Timeout duration
1015:../../Drivers/STM32F7xx_HAL_Driver/Src/stm32f7xx_hal_i2c.c ****   * @retval HAL status
1016:../../Drivers/STM32F7xx_HAL_Driver/Src/stm32f7xx_hal_i2c.c ****   */
1017:../../Drivers/STM32F7xx_HAL_Driver/Src/stm32f7xx_hal_i2c.c **** HAL_StatusTypeDef HAL_I2C_Slave_Receive(I2C_HandleTypeDef *hi2c, uint8_t *pData, uint16_t Size, uin
1018:../../Drivers/STM32F7xx_HAL_Driver/Src/stm32f7xx_hal_i2c.c **** {
 1367              		.loc 1 1018 0
 1368              		.cfi_startproc
 1369              		@ args = 0, pretend = 0, frame = 24
 1370              		@ frame_needed = 1, uses_anonymous_args = 0
 1371 0000 80B5     		push	{r7, lr}
 1372              	.LCFI37:
 1373              		.cfi_def_cfa_offset 8
 1374              		.cfi_offset 7, -8
 1375              		.cfi_offset 14, -4
 1376 0002 88B0     		sub	sp, sp, #32
 1377              	.LCFI38:
 1378              		.cfi_def_cfa_offset 40
 1379 0004 02AF     		add	r7, sp, #8
 1380              	.LCFI39:
 1381              		.cfi_def_cfa 7, 32
 1382 0006 F860     		str	r0, [r7, #12]
 1383 0008 B960     		str	r1, [r7, #8]
 1384 000a 3B60     		str	r3, [r7]
 1385 000c 1346     		mov	r3, r2	@ movhi
 1386 000e FB80     		strh	r3, [r7, #6]	@ movhi
1019:../../Drivers/STM32F7xx_HAL_Driver/Src/stm32f7xx_hal_i2c.c ****   uint32_t tickstart = 0;
 1387              		.loc 1 1019 0
ARM GAS  /tmp/cczIhzQ0.s 			page 43


 1388 0010 0023     		movs	r3, #0
 1389 0012 7B61     		str	r3, [r7, #20]
1020:../../Drivers/STM32F7xx_HAL_Driver/Src/stm32f7xx_hal_i2c.c ****   
1021:../../Drivers/STM32F7xx_HAL_Driver/Src/stm32f7xx_hal_i2c.c ****   if(hi2c->State == HAL_I2C_STATE_READY)
 1390              		.loc 1 1021 0
 1391 0014 FB68     		ldr	r3, [r7, #12]
 1392 0016 93F84130 		ldrb	r3, [r3, #65]
 1393 001a DBB2     		uxtb	r3, r3
 1394 001c 202B     		cmp	r3, #32
 1395 001e 40F0F080 		bne	.L67
1022:../../Drivers/STM32F7xx_HAL_Driver/Src/stm32f7xx_hal_i2c.c ****   {  
1023:../../Drivers/STM32F7xx_HAL_Driver/Src/stm32f7xx_hal_i2c.c ****     if((pData == NULL ) || (Size == 0))
 1396              		.loc 1 1023 0
 1397 0022 BB68     		ldr	r3, [r7, #8]
 1398 0024 002B     		cmp	r3, #0
 1399 0026 02D0     		beq	.L68
 1400              		.loc 1 1023 0 is_stmt 0 discriminator 1
 1401 0028 FB88     		ldrh	r3, [r7, #6]
 1402 002a 002B     		cmp	r3, #0
 1403 002c 01D1     		bne	.L69
 1404              	.L68:
1024:../../Drivers/STM32F7xx_HAL_Driver/Src/stm32f7xx_hal_i2c.c ****     {
1025:../../Drivers/STM32F7xx_HAL_Driver/Src/stm32f7xx_hal_i2c.c ****       return  HAL_ERROR;
 1405              		.loc 1 1025 0 is_stmt 1
 1406 002e 0123     		movs	r3, #1
 1407 0030 E8E0     		b	.L70
 1408              	.L69:
1026:../../Drivers/STM32F7xx_HAL_Driver/Src/stm32f7xx_hal_i2c.c ****     }
1027:../../Drivers/STM32F7xx_HAL_Driver/Src/stm32f7xx_hal_i2c.c ****         /* Process Locked */
1028:../../Drivers/STM32F7xx_HAL_Driver/Src/stm32f7xx_hal_i2c.c ****     __HAL_LOCK(hi2c);
 1409              		.loc 1 1028 0
 1410 0032 FB68     		ldr	r3, [r7, #12]
 1411 0034 93F84030 		ldrb	r3, [r3, #64]	@ zero_extendqisi2
 1412 0038 012B     		cmp	r3, #1
 1413 003a 01D1     		bne	.L71
 1414              		.loc 1 1028 0 is_stmt 0 discriminator 1
 1415 003c 0223     		movs	r3, #2
 1416 003e E1E0     		b	.L70
 1417              	.L71:
 1418              		.loc 1 1028 0 discriminator 2
 1419 0040 FB68     		ldr	r3, [r7, #12]
 1420 0042 0122     		movs	r2, #1
 1421 0044 83F84020 		strb	r2, [r3, #64]
1029:../../Drivers/STM32F7xx_HAL_Driver/Src/stm32f7xx_hal_i2c.c ****     
1030:../../Drivers/STM32F7xx_HAL_Driver/Src/stm32f7xx_hal_i2c.c ****     /* Init tickstart for timeout management*/
1031:../../Drivers/STM32F7xx_HAL_Driver/Src/stm32f7xx_hal_i2c.c ****     tickstart = HAL_GetTick();
 1422              		.loc 1 1031 0 is_stmt 1 discriminator 2
 1423 0048 FFF7FEFF 		bl	HAL_GetTick
 1424 004c 7861     		str	r0, [r7, #20]
1032:../../Drivers/STM32F7xx_HAL_Driver/Src/stm32f7xx_hal_i2c.c ****     
1033:../../Drivers/STM32F7xx_HAL_Driver/Src/stm32f7xx_hal_i2c.c ****     hi2c->State     = HAL_I2C_STATE_BUSY_RX;
 1425              		.loc 1 1033 0 discriminator 2
 1426 004e FB68     		ldr	r3, [r7, #12]
 1427 0050 2222     		movs	r2, #34
 1428 0052 83F84120 		strb	r2, [r3, #65]
1034:../../Drivers/STM32F7xx_HAL_Driver/Src/stm32f7xx_hal_i2c.c ****     hi2c->Mode      = HAL_I2C_MODE_SLAVE;
 1429              		.loc 1 1034 0 discriminator 2
ARM GAS  /tmp/cczIhzQ0.s 			page 44


 1430 0056 FB68     		ldr	r3, [r7, #12]
 1431 0058 2022     		movs	r2, #32
 1432 005a 83F84220 		strb	r2, [r3, #66]
1035:../../Drivers/STM32F7xx_HAL_Driver/Src/stm32f7xx_hal_i2c.c ****     hi2c->ErrorCode = HAL_I2C_ERROR_NONE;
 1433              		.loc 1 1035 0 discriminator 2
 1434 005e FB68     		ldr	r3, [r7, #12]
 1435 0060 0022     		movs	r2, #0
 1436 0062 5A64     		str	r2, [r3, #68]
1036:../../Drivers/STM32F7xx_HAL_Driver/Src/stm32f7xx_hal_i2c.c ****     
1037:../../Drivers/STM32F7xx_HAL_Driver/Src/stm32f7xx_hal_i2c.c ****     /* Prepare transfer parameters */
1038:../../Drivers/STM32F7xx_HAL_Driver/Src/stm32f7xx_hal_i2c.c ****     hi2c->pBuffPtr  = pData;
 1437              		.loc 1 1038 0 discriminator 2
 1438 0064 FB68     		ldr	r3, [r7, #12]
 1439 0066 BA68     		ldr	r2, [r7, #8]
 1440 0068 5A62     		str	r2, [r3, #36]
1039:../../Drivers/STM32F7xx_HAL_Driver/Src/stm32f7xx_hal_i2c.c ****     hi2c->XferCount = Size;
 1441              		.loc 1 1039 0 discriminator 2
 1442 006a FB68     		ldr	r3, [r7, #12]
 1443 006c FA88     		ldrh	r2, [r7, #6]	@ movhi
 1444 006e 5A85     		strh	r2, [r3, #42]	@ movhi
1040:../../Drivers/STM32F7xx_HAL_Driver/Src/stm32f7xx_hal_i2c.c ****     hi2c->XferISR   = NULL;
 1445              		.loc 1 1040 0 discriminator 2
 1446 0070 FB68     		ldr	r3, [r7, #12]
 1447 0072 0022     		movs	r2, #0
 1448 0074 5A63     		str	r2, [r3, #52]
1041:../../Drivers/STM32F7xx_HAL_Driver/Src/stm32f7xx_hal_i2c.c ****     
1042:../../Drivers/STM32F7xx_HAL_Driver/Src/stm32f7xx_hal_i2c.c ****     /* Enable Address Acknowledge */
1043:../../Drivers/STM32F7xx_HAL_Driver/Src/stm32f7xx_hal_i2c.c ****     hi2c->Instance->CR2 &= ~I2C_CR2_NACK;
 1449              		.loc 1 1043 0 discriminator 2
 1450 0076 FB68     		ldr	r3, [r7, #12]
 1451 0078 1B68     		ldr	r3, [r3]
 1452 007a FA68     		ldr	r2, [r7, #12]
 1453 007c 1268     		ldr	r2, [r2]
 1454 007e 5268     		ldr	r2, [r2, #4]
 1455 0080 22F40042 		bic	r2, r2, #32768
 1456 0084 5A60     		str	r2, [r3, #4]
1044:../../Drivers/STM32F7xx_HAL_Driver/Src/stm32f7xx_hal_i2c.c ****     
1045:../../Drivers/STM32F7xx_HAL_Driver/Src/stm32f7xx_hal_i2c.c ****     /* Wait until ADDR flag is set */
1046:../../Drivers/STM32F7xx_HAL_Driver/Src/stm32f7xx_hal_i2c.c ****     if(I2C_WaitOnFlagUntilTimeout(hi2c, I2C_FLAG_ADDR, RESET, Timeout, tickstart) != HAL_OK)
 1457              		.loc 1 1046 0 discriminator 2
 1458 0086 7B69     		ldr	r3, [r7, #20]
 1459 0088 0093     		str	r3, [sp]
 1460 008a F868     		ldr	r0, [r7, #12]
 1461 008c 0821     		movs	r1, #8
 1462 008e 0022     		movs	r2, #0
 1463 0090 3B68     		ldr	r3, [r7]
 1464 0092 FFF7FEFF 		bl	I2C_WaitOnFlagUntilTimeout
 1465 0096 0346     		mov	r3, r0
 1466 0098 002B     		cmp	r3, #0
 1467 009a 09D0     		beq	.L72
1047:../../Drivers/STM32F7xx_HAL_Driver/Src/stm32f7xx_hal_i2c.c ****     {
1048:../../Drivers/STM32F7xx_HAL_Driver/Src/stm32f7xx_hal_i2c.c ****       /* Disable Address Acknowledge */
1049:../../Drivers/STM32F7xx_HAL_Driver/Src/stm32f7xx_hal_i2c.c ****       hi2c->Instance->CR2 |= I2C_CR2_NACK;
 1468              		.loc 1 1049 0
 1469 009c FB68     		ldr	r3, [r7, #12]
 1470 009e 1B68     		ldr	r3, [r3]
 1471 00a0 FA68     		ldr	r2, [r7, #12]
ARM GAS  /tmp/cczIhzQ0.s 			page 45


 1472 00a2 1268     		ldr	r2, [r2]
 1473 00a4 5268     		ldr	r2, [r2, #4]
 1474 00a6 42F40042 		orr	r2, r2, #32768
 1475 00aa 5A60     		str	r2, [r3, #4]
1050:../../Drivers/STM32F7xx_HAL_Driver/Src/stm32f7xx_hal_i2c.c ****       return HAL_TIMEOUT;
 1476              		.loc 1 1050 0
 1477 00ac 0323     		movs	r3, #3
 1478 00ae A9E0     		b	.L70
 1479              	.L72:
1051:../../Drivers/STM32F7xx_HAL_Driver/Src/stm32f7xx_hal_i2c.c ****     }
1052:../../Drivers/STM32F7xx_HAL_Driver/Src/stm32f7xx_hal_i2c.c ****     
1053:../../Drivers/STM32F7xx_HAL_Driver/Src/stm32f7xx_hal_i2c.c ****     /* Clear ADDR flag */
1054:../../Drivers/STM32F7xx_HAL_Driver/Src/stm32f7xx_hal_i2c.c ****     __HAL_I2C_CLEAR_FLAG(hi2c,I2C_FLAG_ADDR);
 1480              		.loc 1 1054 0
 1481 00b0 FB68     		ldr	r3, [r7, #12]
 1482 00b2 1B68     		ldr	r3, [r3]
 1483 00b4 0822     		movs	r2, #8
 1484 00b6 DA61     		str	r2, [r3, #28]
1055:../../Drivers/STM32F7xx_HAL_Driver/Src/stm32f7xx_hal_i2c.c ****     
1056:../../Drivers/STM32F7xx_HAL_Driver/Src/stm32f7xx_hal_i2c.c ****     /* Wait until DIR flag is reset Receiver mode */
1057:../../Drivers/STM32F7xx_HAL_Driver/Src/stm32f7xx_hal_i2c.c ****     if(I2C_WaitOnFlagUntilTimeout(hi2c, I2C_FLAG_DIR, SET, Timeout, tickstart) != HAL_OK)
 1485              		.loc 1 1057 0
 1486 00b8 7B69     		ldr	r3, [r7, #20]
 1487 00ba 0093     		str	r3, [sp]
 1488 00bc F868     		ldr	r0, [r7, #12]
 1489 00be 4FF48031 		mov	r1, #65536
 1490 00c2 0122     		movs	r2, #1
 1491 00c4 3B68     		ldr	r3, [r7]
 1492 00c6 FFF7FEFF 		bl	I2C_WaitOnFlagUntilTimeout
 1493 00ca 0346     		mov	r3, r0
 1494 00cc 002B     		cmp	r3, #0
 1495 00ce 09D0     		beq	.L73
1058:../../Drivers/STM32F7xx_HAL_Driver/Src/stm32f7xx_hal_i2c.c ****     {
1059:../../Drivers/STM32F7xx_HAL_Driver/Src/stm32f7xx_hal_i2c.c ****       /* Disable Address Acknowledge */
1060:../../Drivers/STM32F7xx_HAL_Driver/Src/stm32f7xx_hal_i2c.c ****       hi2c->Instance->CR2 |= I2C_CR2_NACK;
 1496              		.loc 1 1060 0
 1497 00d0 FB68     		ldr	r3, [r7, #12]
 1498 00d2 1B68     		ldr	r3, [r3]
 1499 00d4 FA68     		ldr	r2, [r7, #12]
 1500 00d6 1268     		ldr	r2, [r2]
 1501 00d8 5268     		ldr	r2, [r2, #4]
 1502 00da 42F40042 		orr	r2, r2, #32768
 1503 00de 5A60     		str	r2, [r3, #4]
1061:../../Drivers/STM32F7xx_HAL_Driver/Src/stm32f7xx_hal_i2c.c ****       return HAL_TIMEOUT;
 1504              		.loc 1 1061 0
 1505 00e0 0323     		movs	r3, #3
 1506 00e2 8FE0     		b	.L70
 1507              	.L73:
1062:../../Drivers/STM32F7xx_HAL_Driver/Src/stm32f7xx_hal_i2c.c ****     }
1063:../../Drivers/STM32F7xx_HAL_Driver/Src/stm32f7xx_hal_i2c.c ****     
1064:../../Drivers/STM32F7xx_HAL_Driver/Src/stm32f7xx_hal_i2c.c ****     while(hi2c->XferCount > 0)
 1508              		.loc 1 1064 0
 1509 00e4 40E0     		b	.L74
 1510              	.L78:
1065:../../Drivers/STM32F7xx_HAL_Driver/Src/stm32f7xx_hal_i2c.c ****     {
1066:../../Drivers/STM32F7xx_HAL_Driver/Src/stm32f7xx_hal_i2c.c ****       /* Wait until RXNE flag is set */
1067:../../Drivers/STM32F7xx_HAL_Driver/Src/stm32f7xx_hal_i2c.c ****       if(I2C_WaitOnRXNEFlagUntilTimeout(hi2c, Timeout, tickstart) != HAL_OK)
ARM GAS  /tmp/cczIhzQ0.s 			page 46


 1511              		.loc 1 1067 0
 1512 00e6 F868     		ldr	r0, [r7, #12]
 1513 00e8 3968     		ldr	r1, [r7]
 1514 00ea 7A69     		ldr	r2, [r7, #20]
 1515 00ec FFF7FEFF 		bl	I2C_WaitOnRXNEFlagUntilTimeout
 1516 00f0 0346     		mov	r3, r0
 1517 00f2 002B     		cmp	r3, #0
 1518 00f4 27D0     		beq	.L75
1068:../../Drivers/STM32F7xx_HAL_Driver/Src/stm32f7xx_hal_i2c.c ****       {
1069:../../Drivers/STM32F7xx_HAL_Driver/Src/stm32f7xx_hal_i2c.c ****         /* Disable Address Acknowledge */
1070:../../Drivers/STM32F7xx_HAL_Driver/Src/stm32f7xx_hal_i2c.c ****         hi2c->Instance->CR2 |= I2C_CR2_NACK;
 1519              		.loc 1 1070 0
 1520 00f6 FB68     		ldr	r3, [r7, #12]
 1521 00f8 1B68     		ldr	r3, [r3]
 1522 00fa FA68     		ldr	r2, [r7, #12]
 1523 00fc 1268     		ldr	r2, [r2]
 1524 00fe 5268     		ldr	r2, [r2, #4]
 1525 0100 42F40042 		orr	r2, r2, #32768
 1526 0104 5A60     		str	r2, [r3, #4]
1071:../../Drivers/STM32F7xx_HAL_Driver/Src/stm32f7xx_hal_i2c.c ****     
1072:../../Drivers/STM32F7xx_HAL_Driver/Src/stm32f7xx_hal_i2c.c ****         /* Store Last receive data if any */
1073:../../Drivers/STM32F7xx_HAL_Driver/Src/stm32f7xx_hal_i2c.c ****         if(__HAL_I2C_GET_FLAG(hi2c, I2C_FLAG_RXNE) == SET)
 1527              		.loc 1 1073 0
 1528 0106 FB68     		ldr	r3, [r7, #12]
 1529 0108 1B68     		ldr	r3, [r3]
 1530 010a 9B69     		ldr	r3, [r3, #24]
 1531 010c 03F00403 		and	r3, r3, #4
 1532 0110 002B     		cmp	r3, #0
 1533 0112 10D0     		beq	.L76
1074:../../Drivers/STM32F7xx_HAL_Driver/Src/stm32f7xx_hal_i2c.c ****         {
1075:../../Drivers/STM32F7xx_HAL_Driver/Src/stm32f7xx_hal_i2c.c ****           /* Read data from RXDR */
1076:../../Drivers/STM32F7xx_HAL_Driver/Src/stm32f7xx_hal_i2c.c ****           (*hi2c->pBuffPtr++) = hi2c->Instance->RXDR;
 1534              		.loc 1 1076 0
 1535 0114 FB68     		ldr	r3, [r7, #12]
 1536 0116 5B6A     		ldr	r3, [r3, #36]
 1537 0118 591C     		adds	r1, r3, #1
 1538 011a FA68     		ldr	r2, [r7, #12]
 1539 011c 5162     		str	r1, [r2, #36]
 1540 011e FA68     		ldr	r2, [r7, #12]
 1541 0120 1268     		ldr	r2, [r2]
 1542 0122 526A     		ldr	r2, [r2, #36]
 1543 0124 D2B2     		uxtb	r2, r2
 1544 0126 1A70     		strb	r2, [r3]
1077:../../Drivers/STM32F7xx_HAL_Driver/Src/stm32f7xx_hal_i2c.c ****           hi2c->XferCount--;
 1545              		.loc 1 1077 0
 1546 0128 FB68     		ldr	r3, [r7, #12]
 1547 012a 5B8D     		ldrh	r3, [r3, #42]	@ movhi
 1548 012c 9BB2     		uxth	r3, r3
 1549 012e 013B     		subs	r3, r3, #1
 1550 0130 9AB2     		uxth	r2, r3
 1551 0132 FB68     		ldr	r3, [r7, #12]
 1552 0134 5A85     		strh	r2, [r3, #42]	@ movhi
 1553              	.L76:
1078:../../Drivers/STM32F7xx_HAL_Driver/Src/stm32f7xx_hal_i2c.c ****         }
1079:../../Drivers/STM32F7xx_HAL_Driver/Src/stm32f7xx_hal_i2c.c **** 
1080:../../Drivers/STM32F7xx_HAL_Driver/Src/stm32f7xx_hal_i2c.c ****         if(hi2c->ErrorCode == HAL_I2C_ERROR_TIMEOUT)
 1554              		.loc 1 1080 0
ARM GAS  /tmp/cczIhzQ0.s 			page 47


 1555 0136 FB68     		ldr	r3, [r7, #12]
 1556 0138 5B6C     		ldr	r3, [r3, #68]
 1557 013a 202B     		cmp	r3, #32
 1558 013c 01D1     		bne	.L77
1081:../../Drivers/STM32F7xx_HAL_Driver/Src/stm32f7xx_hal_i2c.c ****         {
1082:../../Drivers/STM32F7xx_HAL_Driver/Src/stm32f7xx_hal_i2c.c ****           return HAL_TIMEOUT;
 1559              		.loc 1 1082 0
 1560 013e 0323     		movs	r3, #3
 1561 0140 60E0     		b	.L70
 1562              	.L77:
1083:../../Drivers/STM32F7xx_HAL_Driver/Src/stm32f7xx_hal_i2c.c ****         }
1084:../../Drivers/STM32F7xx_HAL_Driver/Src/stm32f7xx_hal_i2c.c ****         else
1085:../../Drivers/STM32F7xx_HAL_Driver/Src/stm32f7xx_hal_i2c.c ****         {
1086:../../Drivers/STM32F7xx_HAL_Driver/Src/stm32f7xx_hal_i2c.c ****           return HAL_ERROR;
 1563              		.loc 1 1086 0
 1564 0142 0123     		movs	r3, #1
 1565 0144 5EE0     		b	.L70
 1566              	.L75:
1087:../../Drivers/STM32F7xx_HAL_Driver/Src/stm32f7xx_hal_i2c.c ****         }
1088:../../Drivers/STM32F7xx_HAL_Driver/Src/stm32f7xx_hal_i2c.c ****       }
1089:../../Drivers/STM32F7xx_HAL_Driver/Src/stm32f7xx_hal_i2c.c ****       
1090:../../Drivers/STM32F7xx_HAL_Driver/Src/stm32f7xx_hal_i2c.c ****       /* Read data from RXDR */
1091:../../Drivers/STM32F7xx_HAL_Driver/Src/stm32f7xx_hal_i2c.c ****       (*hi2c->pBuffPtr++) = hi2c->Instance->RXDR;
 1567              		.loc 1 1091 0
 1568 0146 FB68     		ldr	r3, [r7, #12]
 1569 0148 5B6A     		ldr	r3, [r3, #36]
 1570 014a 591C     		adds	r1, r3, #1
 1571 014c FA68     		ldr	r2, [r7, #12]
 1572 014e 5162     		str	r1, [r2, #36]
 1573 0150 FA68     		ldr	r2, [r7, #12]
 1574 0152 1268     		ldr	r2, [r2]
 1575 0154 526A     		ldr	r2, [r2, #36]
 1576 0156 D2B2     		uxtb	r2, r2
 1577 0158 1A70     		strb	r2, [r3]
1092:../../Drivers/STM32F7xx_HAL_Driver/Src/stm32f7xx_hal_i2c.c ****       hi2c->XferCount--;
 1578              		.loc 1 1092 0
 1579 015a FB68     		ldr	r3, [r7, #12]
 1580 015c 5B8D     		ldrh	r3, [r3, #42]	@ movhi
 1581 015e 9BB2     		uxth	r3, r3
 1582 0160 013B     		subs	r3, r3, #1
 1583 0162 9AB2     		uxth	r2, r3
 1584 0164 FB68     		ldr	r3, [r7, #12]
 1585 0166 5A85     		strh	r2, [r3, #42]	@ movhi
 1586              	.L74:
1064:../../Drivers/STM32F7xx_HAL_Driver/Src/stm32f7xx_hal_i2c.c ****     {
 1587              		.loc 1 1064 0
 1588 0168 FB68     		ldr	r3, [r7, #12]
 1589 016a 5B8D     		ldrh	r3, [r3, #42]	@ movhi
 1590 016c 9BB2     		uxth	r3, r3
 1591 016e 002B     		cmp	r3, #0
 1592 0170 B9D1     		bne	.L78
1093:../../Drivers/STM32F7xx_HAL_Driver/Src/stm32f7xx_hal_i2c.c ****     }
1094:../../Drivers/STM32F7xx_HAL_Driver/Src/stm32f7xx_hal_i2c.c ****     
1095:../../Drivers/STM32F7xx_HAL_Driver/Src/stm32f7xx_hal_i2c.c ****     /* Wait until STOP flag is set */
1096:../../Drivers/STM32F7xx_HAL_Driver/Src/stm32f7xx_hal_i2c.c ****     if(I2C_WaitOnSTOPFlagUntilTimeout(hi2c, Timeout, tickstart) != HAL_OK)
 1593              		.loc 1 1096 0
 1594 0172 F868     		ldr	r0, [r7, #12]
ARM GAS  /tmp/cczIhzQ0.s 			page 48


 1595 0174 3968     		ldr	r1, [r7]
 1596 0176 7A69     		ldr	r2, [r7, #20]
 1597 0178 FFF7FEFF 		bl	I2C_WaitOnSTOPFlagUntilTimeout
 1598 017c 0346     		mov	r3, r0
 1599 017e 002B     		cmp	r3, #0
 1600 0180 0FD0     		beq	.L79
1097:../../Drivers/STM32F7xx_HAL_Driver/Src/stm32f7xx_hal_i2c.c ****     {
1098:../../Drivers/STM32F7xx_HAL_Driver/Src/stm32f7xx_hal_i2c.c ****       /* Disable Address Acknowledge */
1099:../../Drivers/STM32F7xx_HAL_Driver/Src/stm32f7xx_hal_i2c.c ****       hi2c->Instance->CR2 |= I2C_CR2_NACK;
 1601              		.loc 1 1099 0
 1602 0182 FB68     		ldr	r3, [r7, #12]
 1603 0184 1B68     		ldr	r3, [r3]
 1604 0186 FA68     		ldr	r2, [r7, #12]
 1605 0188 1268     		ldr	r2, [r2]
 1606 018a 5268     		ldr	r2, [r2, #4]
 1607 018c 42F40042 		orr	r2, r2, #32768
 1608 0190 5A60     		str	r2, [r3, #4]
1100:../../Drivers/STM32F7xx_HAL_Driver/Src/stm32f7xx_hal_i2c.c ****       
1101:../../Drivers/STM32F7xx_HAL_Driver/Src/stm32f7xx_hal_i2c.c ****       if(hi2c->ErrorCode == HAL_I2C_ERROR_AF)
 1609              		.loc 1 1101 0
 1610 0192 FB68     		ldr	r3, [r7, #12]
 1611 0194 5B6C     		ldr	r3, [r3, #68]
 1612 0196 042B     		cmp	r3, #4
 1613 0198 01D1     		bne	.L80
1102:../../Drivers/STM32F7xx_HAL_Driver/Src/stm32f7xx_hal_i2c.c ****       {
1103:../../Drivers/STM32F7xx_HAL_Driver/Src/stm32f7xx_hal_i2c.c ****         return HAL_ERROR;
 1614              		.loc 1 1103 0
 1615 019a 0123     		movs	r3, #1
 1616 019c 32E0     		b	.L70
 1617              	.L80:
1104:../../Drivers/STM32F7xx_HAL_Driver/Src/stm32f7xx_hal_i2c.c ****       }
1105:../../Drivers/STM32F7xx_HAL_Driver/Src/stm32f7xx_hal_i2c.c ****       else
1106:../../Drivers/STM32F7xx_HAL_Driver/Src/stm32f7xx_hal_i2c.c ****       {
1107:../../Drivers/STM32F7xx_HAL_Driver/Src/stm32f7xx_hal_i2c.c ****         return HAL_TIMEOUT;
 1618              		.loc 1 1107 0
 1619 019e 0323     		movs	r3, #3
 1620 01a0 30E0     		b	.L70
 1621              	.L79:
1108:../../Drivers/STM32F7xx_HAL_Driver/Src/stm32f7xx_hal_i2c.c ****       }
1109:../../Drivers/STM32F7xx_HAL_Driver/Src/stm32f7xx_hal_i2c.c ****     }
1110:../../Drivers/STM32F7xx_HAL_Driver/Src/stm32f7xx_hal_i2c.c ****     
1111:../../Drivers/STM32F7xx_HAL_Driver/Src/stm32f7xx_hal_i2c.c ****     /* Clear STOP flag */
1112:../../Drivers/STM32F7xx_HAL_Driver/Src/stm32f7xx_hal_i2c.c ****     __HAL_I2C_CLEAR_FLAG(hi2c,I2C_FLAG_STOPF);
 1622              		.loc 1 1112 0
 1623 01a2 FB68     		ldr	r3, [r7, #12]
 1624 01a4 1B68     		ldr	r3, [r3]
 1625 01a6 2022     		movs	r2, #32
 1626 01a8 DA61     		str	r2, [r3, #28]
1113:../../Drivers/STM32F7xx_HAL_Driver/Src/stm32f7xx_hal_i2c.c ****     
1114:../../Drivers/STM32F7xx_HAL_Driver/Src/stm32f7xx_hal_i2c.c ****     /* Wait until BUSY flag is reset */
1115:../../Drivers/STM32F7xx_HAL_Driver/Src/stm32f7xx_hal_i2c.c ****     if(I2C_WaitOnFlagUntilTimeout(hi2c, I2C_FLAG_BUSY, SET, Timeout, tickstart) != HAL_OK)
 1627              		.loc 1 1115 0
 1628 01aa 7B69     		ldr	r3, [r7, #20]
 1629 01ac 0093     		str	r3, [sp]
 1630 01ae F868     		ldr	r0, [r7, #12]
 1631 01b0 4FF40041 		mov	r1, #32768
 1632 01b4 0122     		movs	r2, #1
ARM GAS  /tmp/cczIhzQ0.s 			page 49


 1633 01b6 3B68     		ldr	r3, [r7]
 1634 01b8 FFF7FEFF 		bl	I2C_WaitOnFlagUntilTimeout
 1635 01bc 0346     		mov	r3, r0
 1636 01be 002B     		cmp	r3, #0
 1637 01c0 09D0     		beq	.L81
1116:../../Drivers/STM32F7xx_HAL_Driver/Src/stm32f7xx_hal_i2c.c ****     {
1117:../../Drivers/STM32F7xx_HAL_Driver/Src/stm32f7xx_hal_i2c.c ****       /* Disable Address Acknowledge */
1118:../../Drivers/STM32F7xx_HAL_Driver/Src/stm32f7xx_hal_i2c.c ****       hi2c->Instance->CR2 |= I2C_CR2_NACK;
 1638              		.loc 1 1118 0
 1639 01c2 FB68     		ldr	r3, [r7, #12]
 1640 01c4 1B68     		ldr	r3, [r3]
 1641 01c6 FA68     		ldr	r2, [r7, #12]
 1642 01c8 1268     		ldr	r2, [r2]
 1643 01ca 5268     		ldr	r2, [r2, #4]
 1644 01cc 42F40042 		orr	r2, r2, #32768
 1645 01d0 5A60     		str	r2, [r3, #4]
1119:../../Drivers/STM32F7xx_HAL_Driver/Src/stm32f7xx_hal_i2c.c ****       return HAL_TIMEOUT;
 1646              		.loc 1 1119 0
 1647 01d2 0323     		movs	r3, #3
 1648 01d4 16E0     		b	.L70
 1649              	.L81:
1120:../../Drivers/STM32F7xx_HAL_Driver/Src/stm32f7xx_hal_i2c.c ****     }
1121:../../Drivers/STM32F7xx_HAL_Driver/Src/stm32f7xx_hal_i2c.c ****     
1122:../../Drivers/STM32F7xx_HAL_Driver/Src/stm32f7xx_hal_i2c.c ****     /* Disable Address Acknowledge */
1123:../../Drivers/STM32F7xx_HAL_Driver/Src/stm32f7xx_hal_i2c.c ****     hi2c->Instance->CR2 |= I2C_CR2_NACK;
 1650              		.loc 1 1123 0
 1651 01d6 FB68     		ldr	r3, [r7, #12]
 1652 01d8 1B68     		ldr	r3, [r3]
 1653 01da FA68     		ldr	r2, [r7, #12]
 1654 01dc 1268     		ldr	r2, [r2]
 1655 01de 5268     		ldr	r2, [r2, #4]
 1656 01e0 42F40042 		orr	r2, r2, #32768
 1657 01e4 5A60     		str	r2, [r3, #4]
1124:../../Drivers/STM32F7xx_HAL_Driver/Src/stm32f7xx_hal_i2c.c ****     
1125:../../Drivers/STM32F7xx_HAL_Driver/Src/stm32f7xx_hal_i2c.c ****     hi2c->State = HAL_I2C_STATE_READY;
 1658              		.loc 1 1125 0
 1659 01e6 FB68     		ldr	r3, [r7, #12]
 1660 01e8 2022     		movs	r2, #32
 1661 01ea 83F84120 		strb	r2, [r3, #65]
1126:../../Drivers/STM32F7xx_HAL_Driver/Src/stm32f7xx_hal_i2c.c ****     hi2c->Mode  = HAL_I2C_MODE_NONE;
 1662              		.loc 1 1126 0
 1663 01ee FB68     		ldr	r3, [r7, #12]
 1664 01f0 0022     		movs	r2, #0
 1665 01f2 83F84220 		strb	r2, [r3, #66]
1127:../../Drivers/STM32F7xx_HAL_Driver/Src/stm32f7xx_hal_i2c.c ****     
1128:../../Drivers/STM32F7xx_HAL_Driver/Src/stm32f7xx_hal_i2c.c ****     /* Process Unlocked */
1129:../../Drivers/STM32F7xx_HAL_Driver/Src/stm32f7xx_hal_i2c.c ****     __HAL_UNLOCK(hi2c);
 1666              		.loc 1 1129 0
 1667 01f6 FB68     		ldr	r3, [r7, #12]
 1668 01f8 0022     		movs	r2, #0
 1669 01fa 83F84020 		strb	r2, [r3, #64]
1130:../../Drivers/STM32F7xx_HAL_Driver/Src/stm32f7xx_hal_i2c.c ****     
1131:../../Drivers/STM32F7xx_HAL_Driver/Src/stm32f7xx_hal_i2c.c ****     return HAL_OK;
 1670              		.loc 1 1131 0
 1671 01fe 0023     		movs	r3, #0
 1672 0200 00E0     		b	.L70
 1673              	.L67:
ARM GAS  /tmp/cczIhzQ0.s 			page 50


1132:../../Drivers/STM32F7xx_HAL_Driver/Src/stm32f7xx_hal_i2c.c ****   }
1133:../../Drivers/STM32F7xx_HAL_Driver/Src/stm32f7xx_hal_i2c.c ****   else
1134:../../Drivers/STM32F7xx_HAL_Driver/Src/stm32f7xx_hal_i2c.c ****   {
1135:../../Drivers/STM32F7xx_HAL_Driver/Src/stm32f7xx_hal_i2c.c ****     return HAL_BUSY;
 1674              		.loc 1 1135 0
 1675 0202 0223     		movs	r3, #2
 1676              	.L70:
1136:../../Drivers/STM32F7xx_HAL_Driver/Src/stm32f7xx_hal_i2c.c ****   }
1137:../../Drivers/STM32F7xx_HAL_Driver/Src/stm32f7xx_hal_i2c.c **** }
 1677              		.loc 1 1137 0
 1678 0204 1846     		mov	r0, r3
 1679 0206 1837     		adds	r7, r7, #24
 1680              	.LCFI40:
 1681              		.cfi_def_cfa_offset 8
 1682 0208 BD46     		mov	sp, r7
 1683              	.LCFI41:
 1684              		.cfi_def_cfa_register 13
 1685              		@ sp needed
 1686 020a 80BD     		pop	{r7, pc}
 1687              		.cfi_endproc
 1688              	.LFE142:
 1690              		.section	.text.HAL_I2C_Master_Transmit_IT,"ax",%progbits
 1691              		.align	2
 1692              		.global	HAL_I2C_Master_Transmit_IT
 1693              		.thumb
 1694              		.thumb_func
 1696              	HAL_I2C_Master_Transmit_IT:
 1697              	.LFB143:
1138:../../Drivers/STM32F7xx_HAL_Driver/Src/stm32f7xx_hal_i2c.c **** 
1139:../../Drivers/STM32F7xx_HAL_Driver/Src/stm32f7xx_hal_i2c.c **** /**
1140:../../Drivers/STM32F7xx_HAL_Driver/Src/stm32f7xx_hal_i2c.c ****   * @brief  Transmit in master mode an amount of data in non-blocking mode with Interrupt
1141:../../Drivers/STM32F7xx_HAL_Driver/Src/stm32f7xx_hal_i2c.c ****   * @param  hi2c: Pointer to a I2C_HandleTypeDef structure that contains
1142:../../Drivers/STM32F7xx_HAL_Driver/Src/stm32f7xx_hal_i2c.c ****   *               the configuration information for the specified I2C.
1143:../../Drivers/STM32F7xx_HAL_Driver/Src/stm32f7xx_hal_i2c.c ****   * @param  DevAddress: Target device address. The device 7 bits address value
1144:../../Drivers/STM32F7xx_HAL_Driver/Src/stm32f7xx_hal_i2c.c ****   *         in datasheet must be shift at right before call interface
1145:../../Drivers/STM32F7xx_HAL_Driver/Src/stm32f7xx_hal_i2c.c ****   * @param  pData: Pointer to data buffer
1146:../../Drivers/STM32F7xx_HAL_Driver/Src/stm32f7xx_hal_i2c.c ****   * @param  Size: Amount of data to be sent
1147:../../Drivers/STM32F7xx_HAL_Driver/Src/stm32f7xx_hal_i2c.c ****   * @retval HAL status
1148:../../Drivers/STM32F7xx_HAL_Driver/Src/stm32f7xx_hal_i2c.c ****   */
1149:../../Drivers/STM32F7xx_HAL_Driver/Src/stm32f7xx_hal_i2c.c **** HAL_StatusTypeDef HAL_I2C_Master_Transmit_IT(I2C_HandleTypeDef *hi2c, uint16_t DevAddress, uint8_t 
1150:../../Drivers/STM32F7xx_HAL_Driver/Src/stm32f7xx_hal_i2c.c **** {
 1698              		.loc 1 1150 0
 1699              		.cfi_startproc
 1700              		@ args = 0, pretend = 0, frame = 24
 1701              		@ frame_needed = 1, uses_anonymous_args = 0
 1702 0000 80B5     		push	{r7, lr}
 1703              	.LCFI42:
 1704              		.cfi_def_cfa_offset 8
 1705              		.cfi_offset 7, -8
 1706              		.cfi_offset 14, -4
 1707 0002 88B0     		sub	sp, sp, #32
 1708              	.LCFI43:
 1709              		.cfi_def_cfa_offset 40
 1710 0004 02AF     		add	r7, sp, #8
 1711              	.LCFI44:
 1712              		.cfi_def_cfa 7, 32
 1713 0006 F860     		str	r0, [r7, #12]
ARM GAS  /tmp/cczIhzQ0.s 			page 51


 1714 0008 7A60     		str	r2, [r7, #4]
 1715 000a 1A46     		mov	r2, r3
 1716 000c 0B46     		mov	r3, r1	@ movhi
 1717 000e 7B81     		strh	r3, [r7, #10]	@ movhi
 1718 0010 1346     		mov	r3, r2	@ movhi
 1719 0012 3B81     		strh	r3, [r7, #8]	@ movhi
1151:../../Drivers/STM32F7xx_HAL_Driver/Src/stm32f7xx_hal_i2c.c ****   uint32_t xfermode = 0;
 1720              		.loc 1 1151 0
 1721 0014 0023     		movs	r3, #0
 1722 0016 7B61     		str	r3, [r7, #20]
1152:../../Drivers/STM32F7xx_HAL_Driver/Src/stm32f7xx_hal_i2c.c ****   
1153:../../Drivers/STM32F7xx_HAL_Driver/Src/stm32f7xx_hal_i2c.c ****   if(hi2c->State == HAL_I2C_STATE_READY)
 1723              		.loc 1 1153 0
 1724 0018 FB68     		ldr	r3, [r7, #12]
 1725 001a 93F84130 		ldrb	r3, [r3, #65]
 1726 001e DBB2     		uxtb	r3, r3
 1727 0020 202B     		cmp	r3, #32
 1728 0022 53D1     		bne	.L83
1154:../../Drivers/STM32F7xx_HAL_Driver/Src/stm32f7xx_hal_i2c.c ****   {
1155:../../Drivers/STM32F7xx_HAL_Driver/Src/stm32f7xx_hal_i2c.c ****     if(__HAL_I2C_GET_FLAG(hi2c, I2C_FLAG_BUSY) == SET)
 1729              		.loc 1 1155 0
 1730 0024 FB68     		ldr	r3, [r7, #12]
 1731 0026 1B68     		ldr	r3, [r3]
 1732 0028 9B69     		ldr	r3, [r3, #24]
 1733 002a 03F40043 		and	r3, r3, #32768
 1734 002e 002B     		cmp	r3, #0
 1735 0030 01D0     		beq	.L84
1156:../../Drivers/STM32F7xx_HAL_Driver/Src/stm32f7xx_hal_i2c.c ****     {
1157:../../Drivers/STM32F7xx_HAL_Driver/Src/stm32f7xx_hal_i2c.c ****       return HAL_BUSY;
 1736              		.loc 1 1157 0
 1737 0032 0223     		movs	r3, #2
 1738 0034 4BE0     		b	.L85
 1739              	.L84:
1158:../../Drivers/STM32F7xx_HAL_Driver/Src/stm32f7xx_hal_i2c.c ****     }
1159:../../Drivers/STM32F7xx_HAL_Driver/Src/stm32f7xx_hal_i2c.c ****     
1160:../../Drivers/STM32F7xx_HAL_Driver/Src/stm32f7xx_hal_i2c.c ****     /* Process Locked */
1161:../../Drivers/STM32F7xx_HAL_Driver/Src/stm32f7xx_hal_i2c.c ****     __HAL_LOCK(hi2c);
 1740              		.loc 1 1161 0
 1741 0036 FB68     		ldr	r3, [r7, #12]
 1742 0038 93F84030 		ldrb	r3, [r3, #64]	@ zero_extendqisi2
 1743 003c 012B     		cmp	r3, #1
 1744 003e 01D1     		bne	.L86
 1745              		.loc 1 1161 0 is_stmt 0 discriminator 1
 1746 0040 0223     		movs	r3, #2
 1747 0042 44E0     		b	.L85
 1748              	.L86:
 1749              		.loc 1 1161 0 discriminator 2
 1750 0044 FB68     		ldr	r3, [r7, #12]
 1751 0046 0122     		movs	r2, #1
 1752 0048 83F84020 		strb	r2, [r3, #64]
1162:../../Drivers/STM32F7xx_HAL_Driver/Src/stm32f7xx_hal_i2c.c ****     
1163:../../Drivers/STM32F7xx_HAL_Driver/Src/stm32f7xx_hal_i2c.c ****     hi2c->State       = HAL_I2C_STATE_BUSY_TX;
 1753              		.loc 1 1163 0 is_stmt 1 discriminator 2
 1754 004c FB68     		ldr	r3, [r7, #12]
 1755 004e 2122     		movs	r2, #33
 1756 0050 83F84120 		strb	r2, [r3, #65]
1164:../../Drivers/STM32F7xx_HAL_Driver/Src/stm32f7xx_hal_i2c.c ****     hi2c->Mode        = HAL_I2C_MODE_MASTER;
ARM GAS  /tmp/cczIhzQ0.s 			page 52


 1757              		.loc 1 1164 0 discriminator 2
 1758 0054 FB68     		ldr	r3, [r7, #12]
 1759 0056 1022     		movs	r2, #16
 1760 0058 83F84220 		strb	r2, [r3, #66]
1165:../../Drivers/STM32F7xx_HAL_Driver/Src/stm32f7xx_hal_i2c.c ****     hi2c->ErrorCode   = HAL_I2C_ERROR_NONE;
 1761              		.loc 1 1165 0 discriminator 2
 1762 005c FB68     		ldr	r3, [r7, #12]
 1763 005e 0022     		movs	r2, #0
 1764 0060 5A64     		str	r2, [r3, #68]
1166:../../Drivers/STM32F7xx_HAL_Driver/Src/stm32f7xx_hal_i2c.c ****     
1167:../../Drivers/STM32F7xx_HAL_Driver/Src/stm32f7xx_hal_i2c.c ****     /* Prepare transfer parameters */
1168:../../Drivers/STM32F7xx_HAL_Driver/Src/stm32f7xx_hal_i2c.c ****     hi2c->pBuffPtr    = pData;
 1765              		.loc 1 1168 0 discriminator 2
 1766 0062 FB68     		ldr	r3, [r7, #12]
 1767 0064 7A68     		ldr	r2, [r7, #4]
 1768 0066 5A62     		str	r2, [r3, #36]
1169:../../Drivers/STM32F7xx_HAL_Driver/Src/stm32f7xx_hal_i2c.c ****     hi2c->XferCount   = Size;
 1769              		.loc 1 1169 0 discriminator 2
 1770 0068 FB68     		ldr	r3, [r7, #12]
 1771 006a 3A89     		ldrh	r2, [r7, #8]	@ movhi
 1772 006c 5A85     		strh	r2, [r3, #42]	@ movhi
1170:../../Drivers/STM32F7xx_HAL_Driver/Src/stm32f7xx_hal_i2c.c ****     hi2c->XferOptions = I2C_NO_OPTION_FRAME;
 1773              		.loc 1 1170 0 discriminator 2
 1774 006e FB68     		ldr	r3, [r7, #12]
 1775 0070 194A     		ldr	r2, .L89
 1776 0072 DA62     		str	r2, [r3, #44]
1171:../../Drivers/STM32F7xx_HAL_Driver/Src/stm32f7xx_hal_i2c.c ****     hi2c->XferISR     = I2C_Master_ISR_IT;
 1777              		.loc 1 1171 0 discriminator 2
 1778 0074 FB68     		ldr	r3, [r7, #12]
 1779 0076 194A     		ldr	r2, .L89+4
 1780 0078 5A63     		str	r2, [r3, #52]
1172:../../Drivers/STM32F7xx_HAL_Driver/Src/stm32f7xx_hal_i2c.c ****     
1173:../../Drivers/STM32F7xx_HAL_Driver/Src/stm32f7xx_hal_i2c.c ****     if(hi2c->XferCount > MAX_NBYTE_SIZE)
 1781              		.loc 1 1173 0 discriminator 2
 1782 007a FB68     		ldr	r3, [r7, #12]
 1783 007c 5B8D     		ldrh	r3, [r3, #42]	@ movhi
 1784 007e 9BB2     		uxth	r3, r3
 1785 0080 FF2B     		cmp	r3, #255
 1786 0082 06D9     		bls	.L87
1174:../../Drivers/STM32F7xx_HAL_Driver/Src/stm32f7xx_hal_i2c.c ****     {
1175:../../Drivers/STM32F7xx_HAL_Driver/Src/stm32f7xx_hal_i2c.c ****       hi2c->XferSize = MAX_NBYTE_SIZE;
 1787              		.loc 1 1175 0
 1788 0084 FB68     		ldr	r3, [r7, #12]
 1789 0086 FF22     		movs	r2, #255
 1790 0088 1A85     		strh	r2, [r3, #40]	@ movhi
1176:../../Drivers/STM32F7xx_HAL_Driver/Src/stm32f7xx_hal_i2c.c ****       xfermode = I2C_RELOAD_MODE;
 1791              		.loc 1 1176 0
 1792 008a 4FF08073 		mov	r3, #16777216
 1793 008e 7B61     		str	r3, [r7, #20]
 1794 0090 07E0     		b	.L88
 1795              	.L87:
1177:../../Drivers/STM32F7xx_HAL_Driver/Src/stm32f7xx_hal_i2c.c ****     }
1178:../../Drivers/STM32F7xx_HAL_Driver/Src/stm32f7xx_hal_i2c.c ****     else
1179:../../Drivers/STM32F7xx_HAL_Driver/Src/stm32f7xx_hal_i2c.c ****     {
1180:../../Drivers/STM32F7xx_HAL_Driver/Src/stm32f7xx_hal_i2c.c ****       hi2c->XferSize = hi2c->XferCount;
 1796              		.loc 1 1180 0
 1797 0092 FB68     		ldr	r3, [r7, #12]
ARM GAS  /tmp/cczIhzQ0.s 			page 53


 1798 0094 5B8D     		ldrh	r3, [r3, #42]	@ movhi
 1799 0096 9AB2     		uxth	r2, r3
 1800 0098 FB68     		ldr	r3, [r7, #12]
 1801 009a 1A85     		strh	r2, [r3, #40]	@ movhi
1181:../../Drivers/STM32F7xx_HAL_Driver/Src/stm32f7xx_hal_i2c.c ****       xfermode = I2C_AUTOEND_MODE;
 1802              		.loc 1 1181 0
 1803 009c 4FF00073 		mov	r3, #33554432
 1804 00a0 7B61     		str	r3, [r7, #20]
 1805              	.L88:
1182:../../Drivers/STM32F7xx_HAL_Driver/Src/stm32f7xx_hal_i2c.c ****     }
1183:../../Drivers/STM32F7xx_HAL_Driver/Src/stm32f7xx_hal_i2c.c ****     
1184:../../Drivers/STM32F7xx_HAL_Driver/Src/stm32f7xx_hal_i2c.c ****     /* Send Slave Address */
1185:../../Drivers/STM32F7xx_HAL_Driver/Src/stm32f7xx_hal_i2c.c ****     /* Set NBYTES to write and reload if hi2c->XferCount > MAX_NBYTE_SIZE */
1186:../../Drivers/STM32F7xx_HAL_Driver/Src/stm32f7xx_hal_i2c.c ****     I2C_TransferConfig(hi2c, DevAddress, hi2c->XferSize, xfermode, I2C_GENERATE_START_WRITE);
 1806              		.loc 1 1186 0
 1807 00a2 FB68     		ldr	r3, [r7, #12]
 1808 00a4 1B8D     		ldrh	r3, [r3, #40]
 1809 00a6 DAB2     		uxtb	r2, r3
 1810 00a8 7989     		ldrh	r1, [r7, #10]
 1811 00aa 4FF40053 		mov	r3, #8192
 1812 00ae 0093     		str	r3, [sp]
 1813 00b0 F868     		ldr	r0, [r7, #12]
 1814 00b2 7B69     		ldr	r3, [r7, #20]
 1815 00b4 FFF7FEFF 		bl	I2C_TransferConfig
1187:../../Drivers/STM32F7xx_HAL_Driver/Src/stm32f7xx_hal_i2c.c ****     
1188:../../Drivers/STM32F7xx_HAL_Driver/Src/stm32f7xx_hal_i2c.c ****     /* Process Unlocked */
1189:../../Drivers/STM32F7xx_HAL_Driver/Src/stm32f7xx_hal_i2c.c ****     __HAL_UNLOCK(hi2c); 
 1816              		.loc 1 1189 0
 1817 00b8 FB68     		ldr	r3, [r7, #12]
 1818 00ba 0022     		movs	r2, #0
 1819 00bc 83F84020 		strb	r2, [r3, #64]
1190:../../Drivers/STM32F7xx_HAL_Driver/Src/stm32f7xx_hal_i2c.c ****     
1191:../../Drivers/STM32F7xx_HAL_Driver/Src/stm32f7xx_hal_i2c.c ****     /* Note : The I2C interrupts must be enabled after unlocking current process
1192:../../Drivers/STM32F7xx_HAL_Driver/Src/stm32f7xx_hal_i2c.c ****               to avoid the risk of I2C interrupt handle execution before current
1193:../../Drivers/STM32F7xx_HAL_Driver/Src/stm32f7xx_hal_i2c.c ****               process unlock */
1194:../../Drivers/STM32F7xx_HAL_Driver/Src/stm32f7xx_hal_i2c.c ****     
1195:../../Drivers/STM32F7xx_HAL_Driver/Src/stm32f7xx_hal_i2c.c ****     /* Enable ERR, TC, STOP, NACK, TXI interrupt */
1196:../../Drivers/STM32F7xx_HAL_Driver/Src/stm32f7xx_hal_i2c.c ****     /* possible to enable all of these */
1197:../../Drivers/STM32F7xx_HAL_Driver/Src/stm32f7xx_hal_i2c.c ****     /* I2C_IT_ERRI | I2C_IT_TCI| I2C_IT_STOPI| I2C_IT_NACKI | I2C_IT_ADDRI | I2C_IT_RXI | I2C_IT_TX
1198:../../Drivers/STM32F7xx_HAL_Driver/Src/stm32f7xx_hal_i2c.c ****     I2C_Enable_IRQ(hi2c, I2C_XFER_TX_IT);
 1820              		.loc 1 1198 0
 1821 00c0 F868     		ldr	r0, [r7, #12]
 1822 00c2 0121     		movs	r1, #1
 1823 00c4 FFF7FEFF 		bl	I2C_Enable_IRQ
1199:../../Drivers/STM32F7xx_HAL_Driver/Src/stm32f7xx_hal_i2c.c ****     
1200:../../Drivers/STM32F7xx_HAL_Driver/Src/stm32f7xx_hal_i2c.c ****     return HAL_OK;
 1824              		.loc 1 1200 0
 1825 00c8 0023     		movs	r3, #0
 1826 00ca 00E0     		b	.L85
 1827              	.L83:
1201:../../Drivers/STM32F7xx_HAL_Driver/Src/stm32f7xx_hal_i2c.c ****   }
1202:../../Drivers/STM32F7xx_HAL_Driver/Src/stm32f7xx_hal_i2c.c ****   else
1203:../../Drivers/STM32F7xx_HAL_Driver/Src/stm32f7xx_hal_i2c.c ****   {
1204:../../Drivers/STM32F7xx_HAL_Driver/Src/stm32f7xx_hal_i2c.c ****     return HAL_BUSY;
 1828              		.loc 1 1204 0
 1829 00cc 0223     		movs	r3, #2
 1830              	.L85:
ARM GAS  /tmp/cczIhzQ0.s 			page 54


1205:../../Drivers/STM32F7xx_HAL_Driver/Src/stm32f7xx_hal_i2c.c ****   }
1206:../../Drivers/STM32F7xx_HAL_Driver/Src/stm32f7xx_hal_i2c.c **** }
 1831              		.loc 1 1206 0
 1832 00ce 1846     		mov	r0, r3
 1833 00d0 1837     		adds	r7, r7, #24
 1834              	.LCFI45:
 1835              		.cfi_def_cfa_offset 8
 1836 00d2 BD46     		mov	sp, r7
 1837              	.LCFI46:
 1838              		.cfi_def_cfa_register 13
 1839              		@ sp needed
 1840 00d4 80BD     		pop	{r7, pc}
 1841              	.L90:
 1842 00d6 00BF     		.align	2
 1843              	.L89:
 1844 00d8 0000FFFF 		.word	-65536
 1845 00dc 00000000 		.word	I2C_Master_ISR_IT
 1846              		.cfi_endproc
 1847              	.LFE143:
 1849              		.section	.text.HAL_I2C_Master_Receive_IT,"ax",%progbits
 1850              		.align	2
 1851              		.global	HAL_I2C_Master_Receive_IT
 1852              		.thumb
 1853              		.thumb_func
 1855              	HAL_I2C_Master_Receive_IT:
 1856              	.LFB144:
1207:../../Drivers/STM32F7xx_HAL_Driver/Src/stm32f7xx_hal_i2c.c **** 
1208:../../Drivers/STM32F7xx_HAL_Driver/Src/stm32f7xx_hal_i2c.c **** /**
1209:../../Drivers/STM32F7xx_HAL_Driver/Src/stm32f7xx_hal_i2c.c ****   * @brief  Receive in master mode an amount of data in non-blocking mode with Interrupt
1210:../../Drivers/STM32F7xx_HAL_Driver/Src/stm32f7xx_hal_i2c.c ****   * @param  hi2c: Pointer to a I2C_HandleTypeDef structure that contains
1211:../../Drivers/STM32F7xx_HAL_Driver/Src/stm32f7xx_hal_i2c.c ****   *               the configuration information for the specified I2C.
1212:../../Drivers/STM32F7xx_HAL_Driver/Src/stm32f7xx_hal_i2c.c ****   * @param  DevAddress: Target device address. The device 7 bits address value
1213:../../Drivers/STM32F7xx_HAL_Driver/Src/stm32f7xx_hal_i2c.c ****   *         in datasheet must be shift at right before call interface
1214:../../Drivers/STM32F7xx_HAL_Driver/Src/stm32f7xx_hal_i2c.c ****   * @param  pData: Pointer to data buffer
1215:../../Drivers/STM32F7xx_HAL_Driver/Src/stm32f7xx_hal_i2c.c ****   * @param  Size: Amount of data to be sent
1216:../../Drivers/STM32F7xx_HAL_Driver/Src/stm32f7xx_hal_i2c.c ****   * @retval HAL status
1217:../../Drivers/STM32F7xx_HAL_Driver/Src/stm32f7xx_hal_i2c.c ****   */
1218:../../Drivers/STM32F7xx_HAL_Driver/Src/stm32f7xx_hal_i2c.c **** HAL_StatusTypeDef HAL_I2C_Master_Receive_IT(I2C_HandleTypeDef *hi2c, uint16_t DevAddress, uint8_t *
1219:../../Drivers/STM32F7xx_HAL_Driver/Src/stm32f7xx_hal_i2c.c **** {
 1857              		.loc 1 1219 0
 1858              		.cfi_startproc
 1859              		@ args = 0, pretend = 0, frame = 24
 1860              		@ frame_needed = 1, uses_anonymous_args = 0
 1861 0000 80B5     		push	{r7, lr}
 1862              	.LCFI47:
 1863              		.cfi_def_cfa_offset 8
 1864              		.cfi_offset 7, -8
 1865              		.cfi_offset 14, -4
 1866 0002 88B0     		sub	sp, sp, #32
 1867              	.LCFI48:
 1868              		.cfi_def_cfa_offset 40
 1869 0004 02AF     		add	r7, sp, #8
 1870              	.LCFI49:
 1871              		.cfi_def_cfa 7, 32
 1872 0006 F860     		str	r0, [r7, #12]
 1873 0008 7A60     		str	r2, [r7, #4]
 1874 000a 1A46     		mov	r2, r3
ARM GAS  /tmp/cczIhzQ0.s 			page 55


 1875 000c 0B46     		mov	r3, r1	@ movhi
 1876 000e 7B81     		strh	r3, [r7, #10]	@ movhi
 1877 0010 1346     		mov	r3, r2	@ movhi
 1878 0012 3B81     		strh	r3, [r7, #8]	@ movhi
1220:../../Drivers/STM32F7xx_HAL_Driver/Src/stm32f7xx_hal_i2c.c ****   uint32_t xfermode = 0;
 1879              		.loc 1 1220 0
 1880 0014 0023     		movs	r3, #0
 1881 0016 7B61     		str	r3, [r7, #20]
1221:../../Drivers/STM32F7xx_HAL_Driver/Src/stm32f7xx_hal_i2c.c ****   
1222:../../Drivers/STM32F7xx_HAL_Driver/Src/stm32f7xx_hal_i2c.c ****   if(hi2c->State == HAL_I2C_STATE_READY)
 1882              		.loc 1 1222 0
 1883 0018 FB68     		ldr	r3, [r7, #12]
 1884 001a 93F84130 		ldrb	r3, [r3, #65]
 1885 001e DBB2     		uxtb	r3, r3
 1886 0020 202B     		cmp	r3, #32
 1887 0022 53D1     		bne	.L92
1223:../../Drivers/STM32F7xx_HAL_Driver/Src/stm32f7xx_hal_i2c.c ****   {
1224:../../Drivers/STM32F7xx_HAL_Driver/Src/stm32f7xx_hal_i2c.c ****     if(__HAL_I2C_GET_FLAG(hi2c, I2C_FLAG_BUSY) == SET)
 1888              		.loc 1 1224 0
 1889 0024 FB68     		ldr	r3, [r7, #12]
 1890 0026 1B68     		ldr	r3, [r3]
 1891 0028 9B69     		ldr	r3, [r3, #24]
 1892 002a 03F40043 		and	r3, r3, #32768
 1893 002e 002B     		cmp	r3, #0
 1894 0030 01D0     		beq	.L93
1225:../../Drivers/STM32F7xx_HAL_Driver/Src/stm32f7xx_hal_i2c.c ****     {
1226:../../Drivers/STM32F7xx_HAL_Driver/Src/stm32f7xx_hal_i2c.c ****       return HAL_BUSY;
 1895              		.loc 1 1226 0
 1896 0032 0223     		movs	r3, #2
 1897 0034 4BE0     		b	.L94
 1898              	.L93:
1227:../../Drivers/STM32F7xx_HAL_Driver/Src/stm32f7xx_hal_i2c.c ****     }
1228:../../Drivers/STM32F7xx_HAL_Driver/Src/stm32f7xx_hal_i2c.c ****     
1229:../../Drivers/STM32F7xx_HAL_Driver/Src/stm32f7xx_hal_i2c.c ****     /* Process Locked */
1230:../../Drivers/STM32F7xx_HAL_Driver/Src/stm32f7xx_hal_i2c.c ****     __HAL_LOCK(hi2c);
 1899              		.loc 1 1230 0
 1900 0036 FB68     		ldr	r3, [r7, #12]
 1901 0038 93F84030 		ldrb	r3, [r3, #64]	@ zero_extendqisi2
 1902 003c 012B     		cmp	r3, #1
 1903 003e 01D1     		bne	.L95
 1904              		.loc 1 1230 0 is_stmt 0 discriminator 1
 1905 0040 0223     		movs	r3, #2
 1906 0042 44E0     		b	.L94
 1907              	.L95:
 1908              		.loc 1 1230 0 discriminator 2
 1909 0044 FB68     		ldr	r3, [r7, #12]
 1910 0046 0122     		movs	r2, #1
 1911 0048 83F84020 		strb	r2, [r3, #64]
1231:../../Drivers/STM32F7xx_HAL_Driver/Src/stm32f7xx_hal_i2c.c ****     
1232:../../Drivers/STM32F7xx_HAL_Driver/Src/stm32f7xx_hal_i2c.c ****     hi2c->State       = HAL_I2C_STATE_BUSY_RX;
 1912              		.loc 1 1232 0 is_stmt 1 discriminator 2
 1913 004c FB68     		ldr	r3, [r7, #12]
 1914 004e 2222     		movs	r2, #34
 1915 0050 83F84120 		strb	r2, [r3, #65]
1233:../../Drivers/STM32F7xx_HAL_Driver/Src/stm32f7xx_hal_i2c.c ****     hi2c->Mode        = HAL_I2C_MODE_MASTER;
 1916              		.loc 1 1233 0 discriminator 2
 1917 0054 FB68     		ldr	r3, [r7, #12]
ARM GAS  /tmp/cczIhzQ0.s 			page 56


 1918 0056 1022     		movs	r2, #16
 1919 0058 83F84220 		strb	r2, [r3, #66]
1234:../../Drivers/STM32F7xx_HAL_Driver/Src/stm32f7xx_hal_i2c.c ****     hi2c->ErrorCode   = HAL_I2C_ERROR_NONE;
 1920              		.loc 1 1234 0 discriminator 2
 1921 005c FB68     		ldr	r3, [r7, #12]
 1922 005e 0022     		movs	r2, #0
 1923 0060 5A64     		str	r2, [r3, #68]
1235:../../Drivers/STM32F7xx_HAL_Driver/Src/stm32f7xx_hal_i2c.c ****     
1236:../../Drivers/STM32F7xx_HAL_Driver/Src/stm32f7xx_hal_i2c.c ****     /* Prepare transfer parameters */
1237:../../Drivers/STM32F7xx_HAL_Driver/Src/stm32f7xx_hal_i2c.c ****     hi2c->pBuffPtr    = pData;
 1924              		.loc 1 1237 0 discriminator 2
 1925 0062 FB68     		ldr	r3, [r7, #12]
 1926 0064 7A68     		ldr	r2, [r7, #4]
 1927 0066 5A62     		str	r2, [r3, #36]
1238:../../Drivers/STM32F7xx_HAL_Driver/Src/stm32f7xx_hal_i2c.c ****     hi2c->XferCount   = Size;
 1928              		.loc 1 1238 0 discriminator 2
 1929 0068 FB68     		ldr	r3, [r7, #12]
 1930 006a 3A89     		ldrh	r2, [r7, #8]	@ movhi
 1931 006c 5A85     		strh	r2, [r3, #42]	@ movhi
1239:../../Drivers/STM32F7xx_HAL_Driver/Src/stm32f7xx_hal_i2c.c ****     hi2c->XferOptions = I2C_NO_OPTION_FRAME;
 1932              		.loc 1 1239 0 discriminator 2
 1933 006e FB68     		ldr	r3, [r7, #12]
 1934 0070 194A     		ldr	r2, .L98
 1935 0072 DA62     		str	r2, [r3, #44]
1240:../../Drivers/STM32F7xx_HAL_Driver/Src/stm32f7xx_hal_i2c.c ****     hi2c->XferISR     = I2C_Master_ISR_IT;
 1936              		.loc 1 1240 0 discriminator 2
 1937 0074 FB68     		ldr	r3, [r7, #12]
 1938 0076 194A     		ldr	r2, .L98+4
 1939 0078 5A63     		str	r2, [r3, #52]
1241:../../Drivers/STM32F7xx_HAL_Driver/Src/stm32f7xx_hal_i2c.c ****     
1242:../../Drivers/STM32F7xx_HAL_Driver/Src/stm32f7xx_hal_i2c.c ****     if(hi2c->XferCount > MAX_NBYTE_SIZE)
 1940              		.loc 1 1242 0 discriminator 2
 1941 007a FB68     		ldr	r3, [r7, #12]
 1942 007c 5B8D     		ldrh	r3, [r3, #42]	@ movhi
 1943 007e 9BB2     		uxth	r3, r3
 1944 0080 FF2B     		cmp	r3, #255
 1945 0082 06D9     		bls	.L96
1243:../../Drivers/STM32F7xx_HAL_Driver/Src/stm32f7xx_hal_i2c.c ****     {
1244:../../Drivers/STM32F7xx_HAL_Driver/Src/stm32f7xx_hal_i2c.c ****       hi2c->XferSize = MAX_NBYTE_SIZE;
 1946              		.loc 1 1244 0
 1947 0084 FB68     		ldr	r3, [r7, #12]
 1948 0086 FF22     		movs	r2, #255
 1949 0088 1A85     		strh	r2, [r3, #40]	@ movhi
1245:../../Drivers/STM32F7xx_HAL_Driver/Src/stm32f7xx_hal_i2c.c ****       xfermode = I2C_RELOAD_MODE;
 1950              		.loc 1 1245 0
 1951 008a 4FF08073 		mov	r3, #16777216
 1952 008e 7B61     		str	r3, [r7, #20]
 1953 0090 07E0     		b	.L97
 1954              	.L96:
1246:../../Drivers/STM32F7xx_HAL_Driver/Src/stm32f7xx_hal_i2c.c ****     }
1247:../../Drivers/STM32F7xx_HAL_Driver/Src/stm32f7xx_hal_i2c.c ****     else
1248:../../Drivers/STM32F7xx_HAL_Driver/Src/stm32f7xx_hal_i2c.c ****     {
1249:../../Drivers/STM32F7xx_HAL_Driver/Src/stm32f7xx_hal_i2c.c ****       hi2c->XferSize = hi2c->XferCount;
 1955              		.loc 1 1249 0
 1956 0092 FB68     		ldr	r3, [r7, #12]
 1957 0094 5B8D     		ldrh	r3, [r3, #42]	@ movhi
 1958 0096 9AB2     		uxth	r2, r3
ARM GAS  /tmp/cczIhzQ0.s 			page 57


 1959 0098 FB68     		ldr	r3, [r7, #12]
 1960 009a 1A85     		strh	r2, [r3, #40]	@ movhi
1250:../../Drivers/STM32F7xx_HAL_Driver/Src/stm32f7xx_hal_i2c.c ****       xfermode = I2C_AUTOEND_MODE;
 1961              		.loc 1 1250 0
 1962 009c 4FF00073 		mov	r3, #33554432
 1963 00a0 7B61     		str	r3, [r7, #20]
 1964              	.L97:
1251:../../Drivers/STM32F7xx_HAL_Driver/Src/stm32f7xx_hal_i2c.c ****     }
1252:../../Drivers/STM32F7xx_HAL_Driver/Src/stm32f7xx_hal_i2c.c ****     
1253:../../Drivers/STM32F7xx_HAL_Driver/Src/stm32f7xx_hal_i2c.c ****     /* Send Slave Address */
1254:../../Drivers/STM32F7xx_HAL_Driver/Src/stm32f7xx_hal_i2c.c ****     /* Set NBYTES to write and reload if hi2c->XferCount > MAX_NBYTE_SIZE */
1255:../../Drivers/STM32F7xx_HAL_Driver/Src/stm32f7xx_hal_i2c.c ****     I2C_TransferConfig(hi2c, DevAddress, hi2c->XferSize, xfermode, I2C_GENERATE_START_READ);
 1965              		.loc 1 1255 0
 1966 00a2 FB68     		ldr	r3, [r7, #12]
 1967 00a4 1B8D     		ldrh	r3, [r3, #40]
 1968 00a6 DAB2     		uxtb	r2, r3
 1969 00a8 7989     		ldrh	r1, [r7, #10]
 1970 00aa 4FF41053 		mov	r3, #9216
 1971 00ae 0093     		str	r3, [sp]
 1972 00b0 F868     		ldr	r0, [r7, #12]
 1973 00b2 7B69     		ldr	r3, [r7, #20]
 1974 00b4 FFF7FEFF 		bl	I2C_TransferConfig
1256:../../Drivers/STM32F7xx_HAL_Driver/Src/stm32f7xx_hal_i2c.c ****     
1257:../../Drivers/STM32F7xx_HAL_Driver/Src/stm32f7xx_hal_i2c.c ****     /* Process Unlocked */
1258:../../Drivers/STM32F7xx_HAL_Driver/Src/stm32f7xx_hal_i2c.c ****     __HAL_UNLOCK(hi2c);
 1975              		.loc 1 1258 0
 1976 00b8 FB68     		ldr	r3, [r7, #12]
 1977 00ba 0022     		movs	r2, #0
 1978 00bc 83F84020 		strb	r2, [r3, #64]
1259:../../Drivers/STM32F7xx_HAL_Driver/Src/stm32f7xx_hal_i2c.c **** 
1260:../../Drivers/STM32F7xx_HAL_Driver/Src/stm32f7xx_hal_i2c.c ****     /* Note : The I2C interrupts must be enabled after unlocking current process
1261:../../Drivers/STM32F7xx_HAL_Driver/Src/stm32f7xx_hal_i2c.c ****               to avoid the risk of I2C interrupt handle execution before current
1262:../../Drivers/STM32F7xx_HAL_Driver/Src/stm32f7xx_hal_i2c.c ****               process unlock */
1263:../../Drivers/STM32F7xx_HAL_Driver/Src/stm32f7xx_hal_i2c.c ****     
1264:../../Drivers/STM32F7xx_HAL_Driver/Src/stm32f7xx_hal_i2c.c ****     /* Enable ERR, TC, STOP, NACK, RXI interrupt */
1265:../../Drivers/STM32F7xx_HAL_Driver/Src/stm32f7xx_hal_i2c.c ****     /* possible to enable all of these */
1266:../../Drivers/STM32F7xx_HAL_Driver/Src/stm32f7xx_hal_i2c.c ****     /* I2C_IT_ERRI | I2C_IT_TCI| I2C_IT_STOPI| I2C_IT_NACKI | I2C_IT_ADDRI | I2C_IT_RXI | I2C_IT_TX
1267:../../Drivers/STM32F7xx_HAL_Driver/Src/stm32f7xx_hal_i2c.c ****     I2C_Enable_IRQ(hi2c, I2C_XFER_RX_IT);
 1979              		.loc 1 1267 0
 1980 00c0 F868     		ldr	r0, [r7, #12]
 1981 00c2 0221     		movs	r1, #2
 1982 00c4 FFF7FEFF 		bl	I2C_Enable_IRQ
1268:../../Drivers/STM32F7xx_HAL_Driver/Src/stm32f7xx_hal_i2c.c ****     
1269:../../Drivers/STM32F7xx_HAL_Driver/Src/stm32f7xx_hal_i2c.c ****     return HAL_OK;
 1983              		.loc 1 1269 0
 1984 00c8 0023     		movs	r3, #0
 1985 00ca 00E0     		b	.L94
 1986              	.L92:
1270:../../Drivers/STM32F7xx_HAL_Driver/Src/stm32f7xx_hal_i2c.c ****   }
1271:../../Drivers/STM32F7xx_HAL_Driver/Src/stm32f7xx_hal_i2c.c ****   else
1272:../../Drivers/STM32F7xx_HAL_Driver/Src/stm32f7xx_hal_i2c.c ****   {
1273:../../Drivers/STM32F7xx_HAL_Driver/Src/stm32f7xx_hal_i2c.c ****     return HAL_BUSY;
 1987              		.loc 1 1273 0
 1988 00cc 0223     		movs	r3, #2
 1989              	.L94:
1274:../../Drivers/STM32F7xx_HAL_Driver/Src/stm32f7xx_hal_i2c.c ****   }
1275:../../Drivers/STM32F7xx_HAL_Driver/Src/stm32f7xx_hal_i2c.c **** }
ARM GAS  /tmp/cczIhzQ0.s 			page 58


 1990              		.loc 1 1275 0
 1991 00ce 1846     		mov	r0, r3
 1992 00d0 1837     		adds	r7, r7, #24
 1993              	.LCFI50:
 1994              		.cfi_def_cfa_offset 8
 1995 00d2 BD46     		mov	sp, r7
 1996              	.LCFI51:
 1997              		.cfi_def_cfa_register 13
 1998              		@ sp needed
 1999 00d4 80BD     		pop	{r7, pc}
 2000              	.L99:
 2001 00d6 00BF     		.align	2
 2002              	.L98:
 2003 00d8 0000FFFF 		.word	-65536
 2004 00dc 00000000 		.word	I2C_Master_ISR_IT
 2005              		.cfi_endproc
 2006              	.LFE144:
 2008              		.section	.text.HAL_I2C_Slave_Transmit_IT,"ax",%progbits
 2009              		.align	2
 2010              		.global	HAL_I2C_Slave_Transmit_IT
 2011              		.thumb
 2012              		.thumb_func
 2014              	HAL_I2C_Slave_Transmit_IT:
 2015              	.LFB145:
1276:../../Drivers/STM32F7xx_HAL_Driver/Src/stm32f7xx_hal_i2c.c **** 
1277:../../Drivers/STM32F7xx_HAL_Driver/Src/stm32f7xx_hal_i2c.c **** /**
1278:../../Drivers/STM32F7xx_HAL_Driver/Src/stm32f7xx_hal_i2c.c ****   * @brief  Transmit in slave mode an amount of data in non-blocking mode with Interrupt
1279:../../Drivers/STM32F7xx_HAL_Driver/Src/stm32f7xx_hal_i2c.c ****   * @param  hi2c: Pointer to a I2C_HandleTypeDef structure that contains
1280:../../Drivers/STM32F7xx_HAL_Driver/Src/stm32f7xx_hal_i2c.c ****   *               the configuration information for the specified I2C.
1281:../../Drivers/STM32F7xx_HAL_Driver/Src/stm32f7xx_hal_i2c.c ****   * @param  pData: Pointer to data buffer
1282:../../Drivers/STM32F7xx_HAL_Driver/Src/stm32f7xx_hal_i2c.c ****   * @param  Size: Amount of data to be sent
1283:../../Drivers/STM32F7xx_HAL_Driver/Src/stm32f7xx_hal_i2c.c ****   * @retval HAL status
1284:../../Drivers/STM32F7xx_HAL_Driver/Src/stm32f7xx_hal_i2c.c ****   */
1285:../../Drivers/STM32F7xx_HAL_Driver/Src/stm32f7xx_hal_i2c.c **** HAL_StatusTypeDef HAL_I2C_Slave_Transmit_IT(I2C_HandleTypeDef *hi2c, uint8_t *pData, uint16_t Size)
1286:../../Drivers/STM32F7xx_HAL_Driver/Src/stm32f7xx_hal_i2c.c **** {
 2016              		.loc 1 1286 0
 2017              		.cfi_startproc
 2018              		@ args = 0, pretend = 0, frame = 16
 2019              		@ frame_needed = 1, uses_anonymous_args = 0
 2020 0000 80B5     		push	{r7, lr}
 2021              	.LCFI52:
 2022              		.cfi_def_cfa_offset 8
 2023              		.cfi_offset 7, -8
 2024              		.cfi_offset 14, -4
 2025 0002 84B0     		sub	sp, sp, #16
 2026              	.LCFI53:
 2027              		.cfi_def_cfa_offset 24
 2028 0004 00AF     		add	r7, sp, #0
 2029              	.LCFI54:
 2030              		.cfi_def_cfa_register 7
 2031 0006 F860     		str	r0, [r7, #12]
 2032 0008 B960     		str	r1, [r7, #8]
 2033 000a 1346     		mov	r3, r2
 2034 000c FB80     		strh	r3, [r7, #6]	@ movhi
1287:../../Drivers/STM32F7xx_HAL_Driver/Src/stm32f7xx_hal_i2c.c ****   if(hi2c->State == HAL_I2C_STATE_READY)
 2035              		.loc 1 1287 0
 2036 000e FB68     		ldr	r3, [r7, #12]
ARM GAS  /tmp/cczIhzQ0.s 			page 59


 2037 0010 93F84130 		ldrb	r3, [r3, #65]
 2038 0014 DBB2     		uxtb	r3, r3
 2039 0016 202B     		cmp	r3, #32
 2040 0018 38D1     		bne	.L101
1288:../../Drivers/STM32F7xx_HAL_Driver/Src/stm32f7xx_hal_i2c.c ****   {
1289:../../Drivers/STM32F7xx_HAL_Driver/Src/stm32f7xx_hal_i2c.c ****     /* Process Locked */
1290:../../Drivers/STM32F7xx_HAL_Driver/Src/stm32f7xx_hal_i2c.c ****     __HAL_LOCK(hi2c);
 2041              		.loc 1 1290 0
 2042 001a FB68     		ldr	r3, [r7, #12]
 2043 001c 93F84030 		ldrb	r3, [r3, #64]	@ zero_extendqisi2
 2044 0020 012B     		cmp	r3, #1
 2045 0022 01D1     		bne	.L102
 2046              		.loc 1 1290 0 is_stmt 0 discriminator 1
 2047 0024 0223     		movs	r3, #2
 2048 0026 32E0     		b	.L103
 2049              	.L102:
 2050              		.loc 1 1290 0 discriminator 2
 2051 0028 FB68     		ldr	r3, [r7, #12]
 2052 002a 0122     		movs	r2, #1
 2053 002c 83F84020 		strb	r2, [r3, #64]
1291:../../Drivers/STM32F7xx_HAL_Driver/Src/stm32f7xx_hal_i2c.c ****     
1292:../../Drivers/STM32F7xx_HAL_Driver/Src/stm32f7xx_hal_i2c.c ****     hi2c->State       = HAL_I2C_STATE_BUSY_TX;
 2054              		.loc 1 1292 0 is_stmt 1 discriminator 2
 2055 0030 FB68     		ldr	r3, [r7, #12]
 2056 0032 2122     		movs	r2, #33
 2057 0034 83F84120 		strb	r2, [r3, #65]
1293:../../Drivers/STM32F7xx_HAL_Driver/Src/stm32f7xx_hal_i2c.c ****     hi2c->Mode        = HAL_I2C_MODE_SLAVE;
 2058              		.loc 1 1293 0 discriminator 2
 2059 0038 FB68     		ldr	r3, [r7, #12]
 2060 003a 2022     		movs	r2, #32
 2061 003c 83F84220 		strb	r2, [r3, #66]
1294:../../Drivers/STM32F7xx_HAL_Driver/Src/stm32f7xx_hal_i2c.c ****     hi2c->ErrorCode   = HAL_I2C_ERROR_NONE;
 2062              		.loc 1 1294 0 discriminator 2
 2063 0040 FB68     		ldr	r3, [r7, #12]
 2064 0042 0022     		movs	r2, #0
 2065 0044 5A64     		str	r2, [r3, #68]
1295:../../Drivers/STM32F7xx_HAL_Driver/Src/stm32f7xx_hal_i2c.c ****     
1296:../../Drivers/STM32F7xx_HAL_Driver/Src/stm32f7xx_hal_i2c.c ****     /* Enable Address Acknowledge */
1297:../../Drivers/STM32F7xx_HAL_Driver/Src/stm32f7xx_hal_i2c.c ****     hi2c->Instance->CR2 &= ~I2C_CR2_NACK;
 2066              		.loc 1 1297 0 discriminator 2
 2067 0046 FB68     		ldr	r3, [r7, #12]
 2068 0048 1B68     		ldr	r3, [r3]
 2069 004a FA68     		ldr	r2, [r7, #12]
 2070 004c 1268     		ldr	r2, [r2]
 2071 004e 5268     		ldr	r2, [r2, #4]
 2072 0050 22F40042 		bic	r2, r2, #32768
 2073 0054 5A60     		str	r2, [r3, #4]
1298:../../Drivers/STM32F7xx_HAL_Driver/Src/stm32f7xx_hal_i2c.c ****     
1299:../../Drivers/STM32F7xx_HAL_Driver/Src/stm32f7xx_hal_i2c.c ****     /* Prepare transfer parameters */
1300:../../Drivers/STM32F7xx_HAL_Driver/Src/stm32f7xx_hal_i2c.c ****     hi2c->pBuffPtr    = pData;
 2074              		.loc 1 1300 0 discriminator 2
 2075 0056 FB68     		ldr	r3, [r7, #12]
 2076 0058 BA68     		ldr	r2, [r7, #8]
 2077 005a 5A62     		str	r2, [r3, #36]
1301:../../Drivers/STM32F7xx_HAL_Driver/Src/stm32f7xx_hal_i2c.c ****     hi2c->XferCount   = Size;
 2078              		.loc 1 1301 0 discriminator 2
 2079 005c FB68     		ldr	r3, [r7, #12]
ARM GAS  /tmp/cczIhzQ0.s 			page 60


 2080 005e FA88     		ldrh	r2, [r7, #6]	@ movhi
 2081 0060 5A85     		strh	r2, [r3, #42]	@ movhi
1302:../../Drivers/STM32F7xx_HAL_Driver/Src/stm32f7xx_hal_i2c.c ****     hi2c->XferSize    = hi2c->XferCount;
 2082              		.loc 1 1302 0 discriminator 2
 2083 0062 FB68     		ldr	r3, [r7, #12]
 2084 0064 5B8D     		ldrh	r3, [r3, #42]	@ movhi
 2085 0066 9AB2     		uxth	r2, r3
 2086 0068 FB68     		ldr	r3, [r7, #12]
 2087 006a 1A85     		strh	r2, [r3, #40]	@ movhi
1303:../../Drivers/STM32F7xx_HAL_Driver/Src/stm32f7xx_hal_i2c.c ****     hi2c->XferOptions = I2C_NO_OPTION_FRAME;
 2088              		.loc 1 1303 0 discriminator 2
 2089 006c FB68     		ldr	r3, [r7, #12]
 2090 006e 0A4A     		ldr	r2, .L104
 2091 0070 DA62     		str	r2, [r3, #44]
1304:../../Drivers/STM32F7xx_HAL_Driver/Src/stm32f7xx_hal_i2c.c ****     hi2c->XferISR     = I2C_Slave_ISR_IT;
 2092              		.loc 1 1304 0 discriminator 2
 2093 0072 FB68     		ldr	r3, [r7, #12]
 2094 0074 094A     		ldr	r2, .L104+4
 2095 0076 5A63     		str	r2, [r3, #52]
1305:../../Drivers/STM32F7xx_HAL_Driver/Src/stm32f7xx_hal_i2c.c ****     
1306:../../Drivers/STM32F7xx_HAL_Driver/Src/stm32f7xx_hal_i2c.c ****     /* Process Unlocked */
1307:../../Drivers/STM32F7xx_HAL_Driver/Src/stm32f7xx_hal_i2c.c ****     __HAL_UNLOCK(hi2c);
 2096              		.loc 1 1307 0 discriminator 2
 2097 0078 FB68     		ldr	r3, [r7, #12]
 2098 007a 0022     		movs	r2, #0
 2099 007c 83F84020 		strb	r2, [r3, #64]
1308:../../Drivers/STM32F7xx_HAL_Driver/Src/stm32f7xx_hal_i2c.c ****     
1309:../../Drivers/STM32F7xx_HAL_Driver/Src/stm32f7xx_hal_i2c.c ****     /* Note : The I2C interrupts must be enabled after unlocking current process
1310:../../Drivers/STM32F7xx_HAL_Driver/Src/stm32f7xx_hal_i2c.c ****               to avoid the risk of I2C interrupt handle execution before current
1311:../../Drivers/STM32F7xx_HAL_Driver/Src/stm32f7xx_hal_i2c.c ****               process unlock */
1312:../../Drivers/STM32F7xx_HAL_Driver/Src/stm32f7xx_hal_i2c.c ****     
1313:../../Drivers/STM32F7xx_HAL_Driver/Src/stm32f7xx_hal_i2c.c ****     /* Enable ERR, TC, STOP, NACK, TXI interrupt */
1314:../../Drivers/STM32F7xx_HAL_Driver/Src/stm32f7xx_hal_i2c.c ****     /* possible to enable all of these */
1315:../../Drivers/STM32F7xx_HAL_Driver/Src/stm32f7xx_hal_i2c.c ****     /* I2C_IT_ERRI | I2C_IT_TCI| I2C_IT_STOPI| I2C_IT_NACKI | I2C_IT_ADDRI | I2C_IT_RXI | I2C_IT_TX
1316:../../Drivers/STM32F7xx_HAL_Driver/Src/stm32f7xx_hal_i2c.c ****     I2C_Enable_IRQ(hi2c, I2C_XFER_TX_IT | I2C_XFER_LISTEN_IT);
 2100              		.loc 1 1316 0 discriminator 2
 2101 0080 F868     		ldr	r0, [r7, #12]
 2102 0082 0521     		movs	r1, #5
 2103 0084 FFF7FEFF 		bl	I2C_Enable_IRQ
1317:../../Drivers/STM32F7xx_HAL_Driver/Src/stm32f7xx_hal_i2c.c ****     
1318:../../Drivers/STM32F7xx_HAL_Driver/Src/stm32f7xx_hal_i2c.c ****     return HAL_OK;
 2104              		.loc 1 1318 0 discriminator 2
 2105 0088 0023     		movs	r3, #0
 2106 008a 00E0     		b	.L103
 2107              	.L101:
1319:../../Drivers/STM32F7xx_HAL_Driver/Src/stm32f7xx_hal_i2c.c ****   }
1320:../../Drivers/STM32F7xx_HAL_Driver/Src/stm32f7xx_hal_i2c.c ****   else
1321:../../Drivers/STM32F7xx_HAL_Driver/Src/stm32f7xx_hal_i2c.c ****   {
1322:../../Drivers/STM32F7xx_HAL_Driver/Src/stm32f7xx_hal_i2c.c ****     return HAL_BUSY;
 2108              		.loc 1 1322 0
 2109 008c 0223     		movs	r3, #2
 2110              	.L103:
1323:../../Drivers/STM32F7xx_HAL_Driver/Src/stm32f7xx_hal_i2c.c ****   }
1324:../../Drivers/STM32F7xx_HAL_Driver/Src/stm32f7xx_hal_i2c.c **** }
 2111              		.loc 1 1324 0
 2112 008e 1846     		mov	r0, r3
 2113 0090 1037     		adds	r7, r7, #16
ARM GAS  /tmp/cczIhzQ0.s 			page 61


 2114              	.LCFI55:
 2115              		.cfi_def_cfa_offset 8
 2116 0092 BD46     		mov	sp, r7
 2117              	.LCFI56:
 2118              		.cfi_def_cfa_register 13
 2119              		@ sp needed
 2120 0094 80BD     		pop	{r7, pc}
 2121              	.L105:
 2122 0096 00BF     		.align	2
 2123              	.L104:
 2124 0098 0000FFFF 		.word	-65536
 2125 009c 00000000 		.word	I2C_Slave_ISR_IT
 2126              		.cfi_endproc
 2127              	.LFE145:
 2129              		.section	.text.HAL_I2C_Slave_Receive_IT,"ax",%progbits
 2130              		.align	2
 2131              		.global	HAL_I2C_Slave_Receive_IT
 2132              		.thumb
 2133              		.thumb_func
 2135              	HAL_I2C_Slave_Receive_IT:
 2136              	.LFB146:
1325:../../Drivers/STM32F7xx_HAL_Driver/Src/stm32f7xx_hal_i2c.c **** 
1326:../../Drivers/STM32F7xx_HAL_Driver/Src/stm32f7xx_hal_i2c.c **** /**
1327:../../Drivers/STM32F7xx_HAL_Driver/Src/stm32f7xx_hal_i2c.c ****   * @brief  Receive in slave mode an amount of data in non-blocking mode with Interrupt 
1328:../../Drivers/STM32F7xx_HAL_Driver/Src/stm32f7xx_hal_i2c.c ****   * @param  hi2c: Pointer to a I2C_HandleTypeDef structure that contains
1329:../../Drivers/STM32F7xx_HAL_Driver/Src/stm32f7xx_hal_i2c.c ****   *               the configuration information for the specified I2C.
1330:../../Drivers/STM32F7xx_HAL_Driver/Src/stm32f7xx_hal_i2c.c ****   * @param  pData: Pointer to data buffer
1331:../../Drivers/STM32F7xx_HAL_Driver/Src/stm32f7xx_hal_i2c.c ****   * @param  Size: Amount of data to be sent
1332:../../Drivers/STM32F7xx_HAL_Driver/Src/stm32f7xx_hal_i2c.c ****   * @retval HAL status
1333:../../Drivers/STM32F7xx_HAL_Driver/Src/stm32f7xx_hal_i2c.c ****   */
1334:../../Drivers/STM32F7xx_HAL_Driver/Src/stm32f7xx_hal_i2c.c **** HAL_StatusTypeDef HAL_I2C_Slave_Receive_IT(I2C_HandleTypeDef *hi2c, uint8_t *pData, uint16_t Size)
1335:../../Drivers/STM32F7xx_HAL_Driver/Src/stm32f7xx_hal_i2c.c **** {
 2137              		.loc 1 1335 0
 2138              		.cfi_startproc
 2139              		@ args = 0, pretend = 0, frame = 16
 2140              		@ frame_needed = 1, uses_anonymous_args = 0
 2141 0000 80B5     		push	{r7, lr}
 2142              	.LCFI57:
 2143              		.cfi_def_cfa_offset 8
 2144              		.cfi_offset 7, -8
 2145              		.cfi_offset 14, -4
 2146 0002 84B0     		sub	sp, sp, #16
 2147              	.LCFI58:
 2148              		.cfi_def_cfa_offset 24
 2149 0004 00AF     		add	r7, sp, #0
 2150              	.LCFI59:
 2151              		.cfi_def_cfa_register 7
 2152 0006 F860     		str	r0, [r7, #12]
 2153 0008 B960     		str	r1, [r7, #8]
 2154 000a 1346     		mov	r3, r2
 2155 000c FB80     		strh	r3, [r7, #6]	@ movhi
1336:../../Drivers/STM32F7xx_HAL_Driver/Src/stm32f7xx_hal_i2c.c ****   if(hi2c->State == HAL_I2C_STATE_READY)
 2156              		.loc 1 1336 0
 2157 000e FB68     		ldr	r3, [r7, #12]
 2158 0010 93F84130 		ldrb	r3, [r3, #65]
 2159 0014 DBB2     		uxtb	r3, r3
 2160 0016 202B     		cmp	r3, #32
ARM GAS  /tmp/cczIhzQ0.s 			page 62


 2161 0018 38D1     		bne	.L107
1337:../../Drivers/STM32F7xx_HAL_Driver/Src/stm32f7xx_hal_i2c.c ****   {
1338:../../Drivers/STM32F7xx_HAL_Driver/Src/stm32f7xx_hal_i2c.c ****     /* Process Locked */
1339:../../Drivers/STM32F7xx_HAL_Driver/Src/stm32f7xx_hal_i2c.c ****     __HAL_LOCK(hi2c);
 2162              		.loc 1 1339 0
 2163 001a FB68     		ldr	r3, [r7, #12]
 2164 001c 93F84030 		ldrb	r3, [r3, #64]	@ zero_extendqisi2
 2165 0020 012B     		cmp	r3, #1
 2166 0022 01D1     		bne	.L108
 2167              		.loc 1 1339 0 is_stmt 0 discriminator 1
 2168 0024 0223     		movs	r3, #2
 2169 0026 32E0     		b	.L109
 2170              	.L108:
 2171              		.loc 1 1339 0 discriminator 2
 2172 0028 FB68     		ldr	r3, [r7, #12]
 2173 002a 0122     		movs	r2, #1
 2174 002c 83F84020 		strb	r2, [r3, #64]
1340:../../Drivers/STM32F7xx_HAL_Driver/Src/stm32f7xx_hal_i2c.c ****     
1341:../../Drivers/STM32F7xx_HAL_Driver/Src/stm32f7xx_hal_i2c.c ****     hi2c->State       = HAL_I2C_STATE_BUSY_RX;
 2175              		.loc 1 1341 0 is_stmt 1 discriminator 2
 2176 0030 FB68     		ldr	r3, [r7, #12]
 2177 0032 2222     		movs	r2, #34
 2178 0034 83F84120 		strb	r2, [r3, #65]
1342:../../Drivers/STM32F7xx_HAL_Driver/Src/stm32f7xx_hal_i2c.c ****     hi2c->Mode        = HAL_I2C_MODE_SLAVE;
 2179              		.loc 1 1342 0 discriminator 2
 2180 0038 FB68     		ldr	r3, [r7, #12]
 2181 003a 2022     		movs	r2, #32
 2182 003c 83F84220 		strb	r2, [r3, #66]
1343:../../Drivers/STM32F7xx_HAL_Driver/Src/stm32f7xx_hal_i2c.c ****     hi2c->ErrorCode   = HAL_I2C_ERROR_NONE;
 2183              		.loc 1 1343 0 discriminator 2
 2184 0040 FB68     		ldr	r3, [r7, #12]
 2185 0042 0022     		movs	r2, #0
 2186 0044 5A64     		str	r2, [r3, #68]
1344:../../Drivers/STM32F7xx_HAL_Driver/Src/stm32f7xx_hal_i2c.c ****     
1345:../../Drivers/STM32F7xx_HAL_Driver/Src/stm32f7xx_hal_i2c.c ****     /* Enable Address Acknowledge */
1346:../../Drivers/STM32F7xx_HAL_Driver/Src/stm32f7xx_hal_i2c.c ****     hi2c->Instance->CR2 &= ~I2C_CR2_NACK;
 2187              		.loc 1 1346 0 discriminator 2
 2188 0046 FB68     		ldr	r3, [r7, #12]
 2189 0048 1B68     		ldr	r3, [r3]
 2190 004a FA68     		ldr	r2, [r7, #12]
 2191 004c 1268     		ldr	r2, [r2]
 2192 004e 5268     		ldr	r2, [r2, #4]
 2193 0050 22F40042 		bic	r2, r2, #32768
 2194 0054 5A60     		str	r2, [r3, #4]
1347:../../Drivers/STM32F7xx_HAL_Driver/Src/stm32f7xx_hal_i2c.c ****     
1348:../../Drivers/STM32F7xx_HAL_Driver/Src/stm32f7xx_hal_i2c.c ****     /* Prepare transfer parameters */
1349:../../Drivers/STM32F7xx_HAL_Driver/Src/stm32f7xx_hal_i2c.c ****     hi2c->pBuffPtr    = pData;
 2195              		.loc 1 1349 0 discriminator 2
 2196 0056 FB68     		ldr	r3, [r7, #12]
 2197 0058 BA68     		ldr	r2, [r7, #8]
 2198 005a 5A62     		str	r2, [r3, #36]
1350:../../Drivers/STM32F7xx_HAL_Driver/Src/stm32f7xx_hal_i2c.c ****     hi2c->XferCount   = Size;
 2199              		.loc 1 1350 0 discriminator 2
 2200 005c FB68     		ldr	r3, [r7, #12]
 2201 005e FA88     		ldrh	r2, [r7, #6]	@ movhi
 2202 0060 5A85     		strh	r2, [r3, #42]	@ movhi
1351:../../Drivers/STM32F7xx_HAL_Driver/Src/stm32f7xx_hal_i2c.c ****     hi2c->XferSize    = hi2c->XferCount;
ARM GAS  /tmp/cczIhzQ0.s 			page 63


 2203              		.loc 1 1351 0 discriminator 2
 2204 0062 FB68     		ldr	r3, [r7, #12]
 2205 0064 5B8D     		ldrh	r3, [r3, #42]	@ movhi
 2206 0066 9AB2     		uxth	r2, r3
 2207 0068 FB68     		ldr	r3, [r7, #12]
 2208 006a 1A85     		strh	r2, [r3, #40]	@ movhi
1352:../../Drivers/STM32F7xx_HAL_Driver/Src/stm32f7xx_hal_i2c.c ****     hi2c->XferOptions = I2C_NO_OPTION_FRAME;
 2209              		.loc 1 1352 0 discriminator 2
 2210 006c FB68     		ldr	r3, [r7, #12]
 2211 006e 0A4A     		ldr	r2, .L110
 2212 0070 DA62     		str	r2, [r3, #44]
1353:../../Drivers/STM32F7xx_HAL_Driver/Src/stm32f7xx_hal_i2c.c ****     hi2c->XferISR     = I2C_Slave_ISR_IT;
 2213              		.loc 1 1353 0 discriminator 2
 2214 0072 FB68     		ldr	r3, [r7, #12]
 2215 0074 094A     		ldr	r2, .L110+4
 2216 0076 5A63     		str	r2, [r3, #52]
1354:../../Drivers/STM32F7xx_HAL_Driver/Src/stm32f7xx_hal_i2c.c ****     
1355:../../Drivers/STM32F7xx_HAL_Driver/Src/stm32f7xx_hal_i2c.c ****     /* Process Unlocked */
1356:../../Drivers/STM32F7xx_HAL_Driver/Src/stm32f7xx_hal_i2c.c ****     __HAL_UNLOCK(hi2c);
 2217              		.loc 1 1356 0 discriminator 2
 2218 0078 FB68     		ldr	r3, [r7, #12]
 2219 007a 0022     		movs	r2, #0
 2220 007c 83F84020 		strb	r2, [r3, #64]
1357:../../Drivers/STM32F7xx_HAL_Driver/Src/stm32f7xx_hal_i2c.c ****     
1358:../../Drivers/STM32F7xx_HAL_Driver/Src/stm32f7xx_hal_i2c.c ****     /* Note : The I2C interrupts must be enabled after unlocking current process
1359:../../Drivers/STM32F7xx_HAL_Driver/Src/stm32f7xx_hal_i2c.c ****               to avoid the risk of I2C interrupt handle execution before current
1360:../../Drivers/STM32F7xx_HAL_Driver/Src/stm32f7xx_hal_i2c.c ****               process unlock */
1361:../../Drivers/STM32F7xx_HAL_Driver/Src/stm32f7xx_hal_i2c.c ****     
1362:../../Drivers/STM32F7xx_HAL_Driver/Src/stm32f7xx_hal_i2c.c ****     /* Enable ERR, TC, STOP, NACK, RXI interrupt */
1363:../../Drivers/STM32F7xx_HAL_Driver/Src/stm32f7xx_hal_i2c.c ****     /* possible to enable all of these */
1364:../../Drivers/STM32F7xx_HAL_Driver/Src/stm32f7xx_hal_i2c.c ****     /* I2C_IT_ERRI | I2C_IT_TCI| I2C_IT_STOPI| I2C_IT_NACKI | I2C_IT_ADDRI | I2C_IT_RXI | I2C_IT_TX
1365:../../Drivers/STM32F7xx_HAL_Driver/Src/stm32f7xx_hal_i2c.c ****     I2C_Enable_IRQ(hi2c, I2C_XFER_RX_IT | I2C_XFER_LISTEN_IT);
 2221              		.loc 1 1365 0 discriminator 2
 2222 0080 F868     		ldr	r0, [r7, #12]
 2223 0082 0621     		movs	r1, #6
 2224 0084 FFF7FEFF 		bl	I2C_Enable_IRQ
1366:../../Drivers/STM32F7xx_HAL_Driver/Src/stm32f7xx_hal_i2c.c ****     
1367:../../Drivers/STM32F7xx_HAL_Driver/Src/stm32f7xx_hal_i2c.c ****     return HAL_OK;
 2225              		.loc 1 1367 0 discriminator 2
 2226 0088 0023     		movs	r3, #0
 2227 008a 00E0     		b	.L109
 2228              	.L107:
1368:../../Drivers/STM32F7xx_HAL_Driver/Src/stm32f7xx_hal_i2c.c ****   }
1369:../../Drivers/STM32F7xx_HAL_Driver/Src/stm32f7xx_hal_i2c.c ****   else
1370:../../Drivers/STM32F7xx_HAL_Driver/Src/stm32f7xx_hal_i2c.c ****   {
1371:../../Drivers/STM32F7xx_HAL_Driver/Src/stm32f7xx_hal_i2c.c ****     return HAL_BUSY;
 2229              		.loc 1 1371 0
 2230 008c 0223     		movs	r3, #2
 2231              	.L109:
1372:../../Drivers/STM32F7xx_HAL_Driver/Src/stm32f7xx_hal_i2c.c ****   }
1373:../../Drivers/STM32F7xx_HAL_Driver/Src/stm32f7xx_hal_i2c.c **** }
 2232              		.loc 1 1373 0
 2233 008e 1846     		mov	r0, r3
 2234 0090 1037     		adds	r7, r7, #16
 2235              	.LCFI60:
 2236              		.cfi_def_cfa_offset 8
 2237 0092 BD46     		mov	sp, r7
ARM GAS  /tmp/cczIhzQ0.s 			page 64


 2238              	.LCFI61:
 2239              		.cfi_def_cfa_register 13
 2240              		@ sp needed
 2241 0094 80BD     		pop	{r7, pc}
 2242              	.L111:
 2243 0096 00BF     		.align	2
 2244              	.L110:
 2245 0098 0000FFFF 		.word	-65536
 2246 009c 00000000 		.word	I2C_Slave_ISR_IT
 2247              		.cfi_endproc
 2248              	.LFE146:
 2250              		.section	.text.HAL_I2C_Master_Transmit_DMA,"ax",%progbits
 2251              		.align	2
 2252              		.global	HAL_I2C_Master_Transmit_DMA
 2253              		.thumb
 2254              		.thumb_func
 2256              	HAL_I2C_Master_Transmit_DMA:
 2257              	.LFB147:
1374:../../Drivers/STM32F7xx_HAL_Driver/Src/stm32f7xx_hal_i2c.c **** 
1375:../../Drivers/STM32F7xx_HAL_Driver/Src/stm32f7xx_hal_i2c.c **** /**
1376:../../Drivers/STM32F7xx_HAL_Driver/Src/stm32f7xx_hal_i2c.c ****   * @brief  Transmit in master mode an amount of data in non-blocking mode with DMA
1377:../../Drivers/STM32F7xx_HAL_Driver/Src/stm32f7xx_hal_i2c.c ****   * @param  hi2c: Pointer to a I2C_HandleTypeDef structure that contains
1378:../../Drivers/STM32F7xx_HAL_Driver/Src/stm32f7xx_hal_i2c.c ****   *               the configuration information for the specified I2C.
1379:../../Drivers/STM32F7xx_HAL_Driver/Src/stm32f7xx_hal_i2c.c ****   * @param  DevAddress: Target device address. The device 7 bits address value
1380:../../Drivers/STM32F7xx_HAL_Driver/Src/stm32f7xx_hal_i2c.c ****   *         in datasheet must be shift at right before call interface
1381:../../Drivers/STM32F7xx_HAL_Driver/Src/stm32f7xx_hal_i2c.c ****   * @param  pData: Pointer to data buffer
1382:../../Drivers/STM32F7xx_HAL_Driver/Src/stm32f7xx_hal_i2c.c ****   * @param  Size: Amount of data to be sent
1383:../../Drivers/STM32F7xx_HAL_Driver/Src/stm32f7xx_hal_i2c.c ****   * @retval HAL status
1384:../../Drivers/STM32F7xx_HAL_Driver/Src/stm32f7xx_hal_i2c.c ****   */
1385:../../Drivers/STM32F7xx_HAL_Driver/Src/stm32f7xx_hal_i2c.c **** HAL_StatusTypeDef HAL_I2C_Master_Transmit_DMA(I2C_HandleTypeDef *hi2c, uint16_t DevAddress, uint8_t
1386:../../Drivers/STM32F7xx_HAL_Driver/Src/stm32f7xx_hal_i2c.c **** {
 2258              		.loc 1 1386 0
 2259              		.cfi_startproc
 2260              		@ args = 0, pretend = 0, frame = 24
 2261              		@ frame_needed = 1, uses_anonymous_args = 0
 2262 0000 90B5     		push	{r4, r7, lr}
 2263              	.LCFI62:
 2264              		.cfi_def_cfa_offset 12
 2265              		.cfi_offset 4, -12
 2266              		.cfi_offset 7, -8
 2267              		.cfi_offset 14, -4
 2268 0002 89B0     		sub	sp, sp, #36
 2269              	.LCFI63:
 2270              		.cfi_def_cfa_offset 48
 2271 0004 02AF     		add	r7, sp, #8
 2272              	.LCFI64:
 2273              		.cfi_def_cfa 7, 40
 2274 0006 F860     		str	r0, [r7, #12]
 2275 0008 7A60     		str	r2, [r7, #4]
 2276 000a 1A46     		mov	r2, r3
 2277 000c 0B46     		mov	r3, r1	@ movhi
 2278 000e 7B81     		strh	r3, [r7, #10]	@ movhi
 2279 0010 1346     		mov	r3, r2	@ movhi
 2280 0012 3B81     		strh	r3, [r7, #8]	@ movhi
1387:../../Drivers/STM32F7xx_HAL_Driver/Src/stm32f7xx_hal_i2c.c ****   uint32_t xfermode = 0;
 2281              		.loc 1 1387 0
 2282 0014 0023     		movs	r3, #0
ARM GAS  /tmp/cczIhzQ0.s 			page 65


 2283 0016 7B61     		str	r3, [r7, #20]
1388:../../Drivers/STM32F7xx_HAL_Driver/Src/stm32f7xx_hal_i2c.c ****   
1389:../../Drivers/STM32F7xx_HAL_Driver/Src/stm32f7xx_hal_i2c.c ****   if(hi2c->State == HAL_I2C_STATE_READY)
 2284              		.loc 1 1389 0
 2285 0018 FB68     		ldr	r3, [r7, #12]
 2286 001a 93F84130 		ldrb	r3, [r3, #65]
 2287 001e DBB2     		uxtb	r3, r3
 2288 0020 202B     		cmp	r3, #32
 2289 0022 40F08380 		bne	.L113
1390:../../Drivers/STM32F7xx_HAL_Driver/Src/stm32f7xx_hal_i2c.c ****   {
1391:../../Drivers/STM32F7xx_HAL_Driver/Src/stm32f7xx_hal_i2c.c ****     if(__HAL_I2C_GET_FLAG(hi2c, I2C_FLAG_BUSY) == SET)
 2290              		.loc 1 1391 0
 2291 0026 FB68     		ldr	r3, [r7, #12]
 2292 0028 1B68     		ldr	r3, [r3]
 2293 002a 9B69     		ldr	r3, [r3, #24]
 2294 002c 03F40043 		and	r3, r3, #32768
 2295 0030 002B     		cmp	r3, #0
 2296 0032 01D0     		beq	.L114
1392:../../Drivers/STM32F7xx_HAL_Driver/Src/stm32f7xx_hal_i2c.c ****     {
1393:../../Drivers/STM32F7xx_HAL_Driver/Src/stm32f7xx_hal_i2c.c ****       return HAL_BUSY;
 2297              		.loc 1 1393 0
 2298 0034 0223     		movs	r3, #2
 2299 0036 7AE0     		b	.L115
 2300              	.L114:
1394:../../Drivers/STM32F7xx_HAL_Driver/Src/stm32f7xx_hal_i2c.c ****     }
1395:../../Drivers/STM32F7xx_HAL_Driver/Src/stm32f7xx_hal_i2c.c ****     
1396:../../Drivers/STM32F7xx_HAL_Driver/Src/stm32f7xx_hal_i2c.c ****     /* Process Locked */
1397:../../Drivers/STM32F7xx_HAL_Driver/Src/stm32f7xx_hal_i2c.c ****     __HAL_LOCK(hi2c);
 2301              		.loc 1 1397 0
 2302 0038 FB68     		ldr	r3, [r7, #12]
 2303 003a 93F84030 		ldrb	r3, [r3, #64]	@ zero_extendqisi2
 2304 003e 012B     		cmp	r3, #1
 2305 0040 01D1     		bne	.L116
 2306              		.loc 1 1397 0 is_stmt 0 discriminator 1
 2307 0042 0223     		movs	r3, #2
 2308 0044 73E0     		b	.L115
 2309              	.L116:
 2310              		.loc 1 1397 0 discriminator 2
 2311 0046 FB68     		ldr	r3, [r7, #12]
 2312 0048 0122     		movs	r2, #1
 2313 004a 83F84020 		strb	r2, [r3, #64]
1398:../../Drivers/STM32F7xx_HAL_Driver/Src/stm32f7xx_hal_i2c.c ****     
1399:../../Drivers/STM32F7xx_HAL_Driver/Src/stm32f7xx_hal_i2c.c ****     hi2c->State       = HAL_I2C_STATE_BUSY_TX;
 2314              		.loc 1 1399 0 is_stmt 1 discriminator 2
 2315 004e FB68     		ldr	r3, [r7, #12]
 2316 0050 2122     		movs	r2, #33
 2317 0052 83F84120 		strb	r2, [r3, #65]
1400:../../Drivers/STM32F7xx_HAL_Driver/Src/stm32f7xx_hal_i2c.c ****     hi2c->Mode        = HAL_I2C_MODE_MASTER;
 2318              		.loc 1 1400 0 discriminator 2
 2319 0056 FB68     		ldr	r3, [r7, #12]
 2320 0058 1022     		movs	r2, #16
 2321 005a 83F84220 		strb	r2, [r3, #66]
1401:../../Drivers/STM32F7xx_HAL_Driver/Src/stm32f7xx_hal_i2c.c ****     hi2c->ErrorCode   = HAL_I2C_ERROR_NONE;
 2322              		.loc 1 1401 0 discriminator 2
 2323 005e FB68     		ldr	r3, [r7, #12]
 2324 0060 0022     		movs	r2, #0
 2325 0062 5A64     		str	r2, [r3, #68]
ARM GAS  /tmp/cczIhzQ0.s 			page 66


1402:../../Drivers/STM32F7xx_HAL_Driver/Src/stm32f7xx_hal_i2c.c ****     
1403:../../Drivers/STM32F7xx_HAL_Driver/Src/stm32f7xx_hal_i2c.c ****     /* Prepare transfer parameters */
1404:../../Drivers/STM32F7xx_HAL_Driver/Src/stm32f7xx_hal_i2c.c ****     hi2c->pBuffPtr    = pData;
 2326              		.loc 1 1404 0 discriminator 2
 2327 0064 FB68     		ldr	r3, [r7, #12]
 2328 0066 7A68     		ldr	r2, [r7, #4]
 2329 0068 5A62     		str	r2, [r3, #36]
1405:../../Drivers/STM32F7xx_HAL_Driver/Src/stm32f7xx_hal_i2c.c ****     hi2c->XferCount   = Size;
 2330              		.loc 1 1405 0 discriminator 2
 2331 006a FB68     		ldr	r3, [r7, #12]
 2332 006c 3A89     		ldrh	r2, [r7, #8]	@ movhi
 2333 006e 5A85     		strh	r2, [r3, #42]	@ movhi
1406:../../Drivers/STM32F7xx_HAL_Driver/Src/stm32f7xx_hal_i2c.c ****     hi2c->XferOptions = I2C_NO_OPTION_FRAME;
 2334              		.loc 1 1406 0 discriminator 2
 2335 0070 FB68     		ldr	r3, [r7, #12]
 2336 0072 314A     		ldr	r2, .L119
 2337 0074 DA62     		str	r2, [r3, #44]
1407:../../Drivers/STM32F7xx_HAL_Driver/Src/stm32f7xx_hal_i2c.c ****     hi2c->XferISR     = I2C_Master_ISR_DMA;
 2338              		.loc 1 1407 0 discriminator 2
 2339 0076 FB68     		ldr	r3, [r7, #12]
 2340 0078 304A     		ldr	r2, .L119+4
 2341 007a 5A63     		str	r2, [r3, #52]
1408:../../Drivers/STM32F7xx_HAL_Driver/Src/stm32f7xx_hal_i2c.c ****     
1409:../../Drivers/STM32F7xx_HAL_Driver/Src/stm32f7xx_hal_i2c.c ****     if(hi2c->XferCount > MAX_NBYTE_SIZE)
 2342              		.loc 1 1409 0 discriminator 2
 2343 007c FB68     		ldr	r3, [r7, #12]
 2344 007e 5B8D     		ldrh	r3, [r3, #42]	@ movhi
 2345 0080 9BB2     		uxth	r3, r3
 2346 0082 FF2B     		cmp	r3, #255
 2347 0084 06D9     		bls	.L117
1410:../../Drivers/STM32F7xx_HAL_Driver/Src/stm32f7xx_hal_i2c.c ****     {
1411:../../Drivers/STM32F7xx_HAL_Driver/Src/stm32f7xx_hal_i2c.c ****       hi2c->XferSize = MAX_NBYTE_SIZE;
 2348              		.loc 1 1411 0
 2349 0086 FB68     		ldr	r3, [r7, #12]
 2350 0088 FF22     		movs	r2, #255
 2351 008a 1A85     		strh	r2, [r3, #40]	@ movhi
1412:../../Drivers/STM32F7xx_HAL_Driver/Src/stm32f7xx_hal_i2c.c ****       xfermode = I2C_RELOAD_MODE;
 2352              		.loc 1 1412 0
 2353 008c 4FF08073 		mov	r3, #16777216
 2354 0090 7B61     		str	r3, [r7, #20]
 2355 0092 07E0     		b	.L118
 2356              	.L117:
1413:../../Drivers/STM32F7xx_HAL_Driver/Src/stm32f7xx_hal_i2c.c ****     }
1414:../../Drivers/STM32F7xx_HAL_Driver/Src/stm32f7xx_hal_i2c.c ****     else
1415:../../Drivers/STM32F7xx_HAL_Driver/Src/stm32f7xx_hal_i2c.c ****     {
1416:../../Drivers/STM32F7xx_HAL_Driver/Src/stm32f7xx_hal_i2c.c ****       hi2c->XferSize = hi2c->XferCount;
 2357              		.loc 1 1416 0
 2358 0094 FB68     		ldr	r3, [r7, #12]
 2359 0096 5B8D     		ldrh	r3, [r3, #42]	@ movhi
 2360 0098 9AB2     		uxth	r2, r3
 2361 009a FB68     		ldr	r3, [r7, #12]
 2362 009c 1A85     		strh	r2, [r3, #40]	@ movhi
1417:../../Drivers/STM32F7xx_HAL_Driver/Src/stm32f7xx_hal_i2c.c ****       xfermode = I2C_AUTOEND_MODE;
 2363              		.loc 1 1417 0
 2364 009e 4FF00073 		mov	r3, #33554432
 2365 00a2 7B61     		str	r3, [r7, #20]
 2366              	.L118:
ARM GAS  /tmp/cczIhzQ0.s 			page 67


1418:../../Drivers/STM32F7xx_HAL_Driver/Src/stm32f7xx_hal_i2c.c ****     }
1419:../../Drivers/STM32F7xx_HAL_Driver/Src/stm32f7xx_hal_i2c.c ****     
1420:../../Drivers/STM32F7xx_HAL_Driver/Src/stm32f7xx_hal_i2c.c ****     /* Set the I2C DMA transfer complete callback */
1421:../../Drivers/STM32F7xx_HAL_Driver/Src/stm32f7xx_hal_i2c.c ****     hi2c->hdmatx->XferCpltCallback = I2C_DMAMasterTransmitCplt;
 2367              		.loc 1 1421 0
 2368 00a4 FB68     		ldr	r3, [r7, #12]
 2369 00a6 9B6B     		ldr	r3, [r3, #56]
 2370 00a8 254A     		ldr	r2, .L119+8
 2371 00aa DA63     		str	r2, [r3, #60]
1422:../../Drivers/STM32F7xx_HAL_Driver/Src/stm32f7xx_hal_i2c.c ****     
1423:../../Drivers/STM32F7xx_HAL_Driver/Src/stm32f7xx_hal_i2c.c ****     /* Set the DMA error callback */
1424:../../Drivers/STM32F7xx_HAL_Driver/Src/stm32f7xx_hal_i2c.c ****     hi2c->hdmatx->XferErrorCallback = I2C_DMAError;
 2372              		.loc 1 1424 0
 2373 00ac FB68     		ldr	r3, [r7, #12]
 2374 00ae 9B6B     		ldr	r3, [r3, #56]
 2375 00b0 244A     		ldr	r2, .L119+12
 2376 00b2 DA64     		str	r2, [r3, #76]
1425:../../Drivers/STM32F7xx_HAL_Driver/Src/stm32f7xx_hal_i2c.c ****     
1426:../../Drivers/STM32F7xx_HAL_Driver/Src/stm32f7xx_hal_i2c.c ****     /* Set the unused DMA callbacks to NULL */
1427:../../Drivers/STM32F7xx_HAL_Driver/Src/stm32f7xx_hal_i2c.c ****     hi2c->hdmatx->XferHalfCpltCallback = NULL;
 2377              		.loc 1 1427 0
 2378 00b4 FB68     		ldr	r3, [r7, #12]
 2379 00b6 9B6B     		ldr	r3, [r3, #56]
 2380 00b8 0022     		movs	r2, #0
 2381 00ba 1A64     		str	r2, [r3, #64]
1428:../../Drivers/STM32F7xx_HAL_Driver/Src/stm32f7xx_hal_i2c.c ****     hi2c->hdmatx->XferAbortCallback = NULL;
 2382              		.loc 1 1428 0
 2383 00bc FB68     		ldr	r3, [r7, #12]
 2384 00be 9B6B     		ldr	r3, [r3, #56]
 2385 00c0 0022     		movs	r2, #0
 2386 00c2 1A65     		str	r2, [r3, #80]
1429:../../Drivers/STM32F7xx_HAL_Driver/Src/stm32f7xx_hal_i2c.c ****     
1430:../../Drivers/STM32F7xx_HAL_Driver/Src/stm32f7xx_hal_i2c.c ****     /* Enable the DMA channel */
1431:../../Drivers/STM32F7xx_HAL_Driver/Src/stm32f7xx_hal_i2c.c ****     HAL_DMA_Start_IT(hi2c->hdmatx, (uint32_t)pData, (uint32_t)&hi2c->Instance->TXDR, hi2c->XferSize
 2387              		.loc 1 1431 0
 2388 00c4 FB68     		ldr	r3, [r7, #12]
 2389 00c6 996B     		ldr	r1, [r3, #56]
 2390 00c8 7A68     		ldr	r2, [r7, #4]
 2391 00ca FB68     		ldr	r3, [r7, #12]
 2392 00cc 1B68     		ldr	r3, [r3]
 2393 00ce 2833     		adds	r3, r3, #40
 2394 00d0 1C46     		mov	r4, r3
 2395 00d2 FB68     		ldr	r3, [r7, #12]
 2396 00d4 1B8D     		ldrh	r3, [r3, #40]
 2397 00d6 0846     		mov	r0, r1
 2398 00d8 1146     		mov	r1, r2
 2399 00da 2246     		mov	r2, r4
 2400 00dc FFF7FEFF 		bl	HAL_DMA_Start_IT
1432:../../Drivers/STM32F7xx_HAL_Driver/Src/stm32f7xx_hal_i2c.c ****     
1433:../../Drivers/STM32F7xx_HAL_Driver/Src/stm32f7xx_hal_i2c.c ****     /* Send Slave Address */
1434:../../Drivers/STM32F7xx_HAL_Driver/Src/stm32f7xx_hal_i2c.c ****     /* Set NBYTES to write and reload if hi2c->XferCount > MAX_NBYTE_SIZE and generate RESTART */
1435:../../Drivers/STM32F7xx_HAL_Driver/Src/stm32f7xx_hal_i2c.c ****     I2C_TransferConfig(hi2c, DevAddress, hi2c->XferSize, xfermode, I2C_GENERATE_START_WRITE);
 2401              		.loc 1 1435 0
 2402 00e0 FB68     		ldr	r3, [r7, #12]
 2403 00e2 1B8D     		ldrh	r3, [r3, #40]
 2404 00e4 DAB2     		uxtb	r2, r3
 2405 00e6 7989     		ldrh	r1, [r7, #10]
ARM GAS  /tmp/cczIhzQ0.s 			page 68


 2406 00e8 4FF40053 		mov	r3, #8192
 2407 00ec 0093     		str	r3, [sp]
 2408 00ee F868     		ldr	r0, [r7, #12]
 2409 00f0 7B69     		ldr	r3, [r7, #20]
 2410 00f2 FFF7FEFF 		bl	I2C_TransferConfig
1436:../../Drivers/STM32F7xx_HAL_Driver/Src/stm32f7xx_hal_i2c.c ****     
1437:../../Drivers/STM32F7xx_HAL_Driver/Src/stm32f7xx_hal_i2c.c ****     /* Update XferCount value */
1438:../../Drivers/STM32F7xx_HAL_Driver/Src/stm32f7xx_hal_i2c.c ****     hi2c->XferCount -= hi2c->XferSize;
 2411              		.loc 1 1438 0
 2412 00f6 FB68     		ldr	r3, [r7, #12]
 2413 00f8 5B8D     		ldrh	r3, [r3, #42]	@ movhi
 2414 00fa 9AB2     		uxth	r2, r3
 2415 00fc FB68     		ldr	r3, [r7, #12]
 2416 00fe 1B8D     		ldrh	r3, [r3, #40]
 2417 0100 D31A     		subs	r3, r2, r3
 2418 0102 9AB2     		uxth	r2, r3
 2419 0104 FB68     		ldr	r3, [r7, #12]
 2420 0106 5A85     		strh	r2, [r3, #42]	@ movhi
1439:../../Drivers/STM32F7xx_HAL_Driver/Src/stm32f7xx_hal_i2c.c ****     
1440:../../Drivers/STM32F7xx_HAL_Driver/Src/stm32f7xx_hal_i2c.c ****     /* Process Unlocked */
1441:../../Drivers/STM32F7xx_HAL_Driver/Src/stm32f7xx_hal_i2c.c ****     __HAL_UNLOCK(hi2c);
 2421              		.loc 1 1441 0
 2422 0108 FB68     		ldr	r3, [r7, #12]
 2423 010a 0022     		movs	r2, #0
 2424 010c 83F84020 		strb	r2, [r3, #64]
1442:../../Drivers/STM32F7xx_HAL_Driver/Src/stm32f7xx_hal_i2c.c ****     
1443:../../Drivers/STM32F7xx_HAL_Driver/Src/stm32f7xx_hal_i2c.c ****     /* Note : The I2C interrupts must be enabled after unlocking current process
1444:../../Drivers/STM32F7xx_HAL_Driver/Src/stm32f7xx_hal_i2c.c ****               to avoid the risk of I2C interrupt handle execution before current
1445:../../Drivers/STM32F7xx_HAL_Driver/Src/stm32f7xx_hal_i2c.c ****               process unlock */
1446:../../Drivers/STM32F7xx_HAL_Driver/Src/stm32f7xx_hal_i2c.c ****     /* Enable ERR and NACK interrupts */
1447:../../Drivers/STM32F7xx_HAL_Driver/Src/stm32f7xx_hal_i2c.c ****     I2C_Enable_IRQ(hi2c, I2C_XFER_ERROR_IT);
 2425              		.loc 1 1447 0
 2426 0110 F868     		ldr	r0, [r7, #12]
 2427 0112 1121     		movs	r1, #17
 2428 0114 FFF7FEFF 		bl	I2C_Enable_IRQ
1448:../../Drivers/STM32F7xx_HAL_Driver/Src/stm32f7xx_hal_i2c.c ****     
1449:../../Drivers/STM32F7xx_HAL_Driver/Src/stm32f7xx_hal_i2c.c ****     /* Enable DMA Request */
1450:../../Drivers/STM32F7xx_HAL_Driver/Src/stm32f7xx_hal_i2c.c ****     hi2c->Instance->CR1 |= I2C_CR1_TXDMAEN;
 2429              		.loc 1 1450 0
 2430 0118 FB68     		ldr	r3, [r7, #12]
 2431 011a 1B68     		ldr	r3, [r3]
 2432 011c FA68     		ldr	r2, [r7, #12]
 2433 011e 1268     		ldr	r2, [r2]
 2434 0120 1268     		ldr	r2, [r2]
 2435 0122 42F48042 		orr	r2, r2, #16384
 2436 0126 1A60     		str	r2, [r3]
1451:../../Drivers/STM32F7xx_HAL_Driver/Src/stm32f7xx_hal_i2c.c ****     
1452:../../Drivers/STM32F7xx_HAL_Driver/Src/stm32f7xx_hal_i2c.c ****     return HAL_OK;
 2437              		.loc 1 1452 0
 2438 0128 0023     		movs	r3, #0
 2439 012a 00E0     		b	.L115
 2440              	.L113:
1453:../../Drivers/STM32F7xx_HAL_Driver/Src/stm32f7xx_hal_i2c.c ****   }
1454:../../Drivers/STM32F7xx_HAL_Driver/Src/stm32f7xx_hal_i2c.c ****   else
1455:../../Drivers/STM32F7xx_HAL_Driver/Src/stm32f7xx_hal_i2c.c ****   {
1456:../../Drivers/STM32F7xx_HAL_Driver/Src/stm32f7xx_hal_i2c.c ****     return HAL_BUSY;
 2441              		.loc 1 1456 0
ARM GAS  /tmp/cczIhzQ0.s 			page 69


 2442 012c 0223     		movs	r3, #2
 2443              	.L115:
1457:../../Drivers/STM32F7xx_HAL_Driver/Src/stm32f7xx_hal_i2c.c ****   }
1458:../../Drivers/STM32F7xx_HAL_Driver/Src/stm32f7xx_hal_i2c.c **** }
 2444              		.loc 1 1458 0
 2445 012e 1846     		mov	r0, r3
 2446 0130 1C37     		adds	r7, r7, #28
 2447              	.LCFI65:
 2448              		.cfi_def_cfa_offset 12
 2449 0132 BD46     		mov	sp, r7
 2450              	.LCFI66:
 2451              		.cfi_def_cfa_register 13
 2452              		@ sp needed
 2453 0134 90BD     		pop	{r4, r7, pc}
 2454              	.L120:
 2455 0136 00BF     		.align	2
