ARM GAS  /tmp/cczIhzQ0.s 			page 1


   1              		.syntax unified
   2              		.cpu cortex-m7
   3              		.eabi_attribute 27, 1
   4              		.eabi_attribute 28, 1
   5              		.fpu fpv5-sp-d16
   6              		.eabi_attribute 20, 1
   7              		.eabi_attribute 21, 1
   8              		.eabi_attribute 23, 3
   9              		.eabi_attribute 24, 1
  10              		.eabi_attribute 25, 1
  11              		.eabi_attribute 26, 1
  12              		.eabi_attribute 30, 6
  13              		.eabi_attribute 34, 1
  14              		.eabi_attribute 18, 4
  15              		.thumb
  16              		.file	"stm32f7xx_hal_i2c.c"
  17              		.text
  18              	.Ltext0:
  19              		.cfi_sections	.debug_frame
  20              		.section	.text.HAL_I2C_Init,"ax",%progbits
  21              		.align	2
  22              		.global	HAL_I2C_Init
  23              		.thumb
  24              		.thumb_func
  26              	HAL_I2C_Init:
  27              	.LFB135:
  28              		.file 1 "../../Drivers/STM32F7xx_HAL_Driver/Src/stm32f7xx_hal_i2c.c"
   1:../../Drivers/STM32F7xx_HAL_Driver/Src/stm32f7xx_hal_i2c.c **** /**
   2:../../Drivers/STM32F7xx_HAL_Driver/Src/stm32f7xx_hal_i2c.c ****   ******************************************************************************
   3:../../Drivers/STM32F7xx_HAL_Driver/Src/stm32f7xx_hal_i2c.c ****   * @file    stm32f7xx_hal_i2c.c
   4:../../Drivers/STM32F7xx_HAL_Driver/Src/stm32f7xx_hal_i2c.c ****   * @author  MCD Application Team
   5:../../Drivers/STM32F7xx_HAL_Driver/Src/stm32f7xx_hal_i2c.c ****   * @version V1.1.2
   6:../../Drivers/STM32F7xx_HAL_Driver/Src/stm32f7xx_hal_i2c.c ****   * @date    23-September-2016 
   7:../../Drivers/STM32F7xx_HAL_Driver/Src/stm32f7xx_hal_i2c.c ****   * @brief   I2C HAL module driver.
   8:../../Drivers/STM32F7xx_HAL_Driver/Src/stm32f7xx_hal_i2c.c ****   *          This file provides firmware functions to manage the following
   9:../../Drivers/STM32F7xx_HAL_Driver/Src/stm32f7xx_hal_i2c.c ****   *          functionalities of the Inter Integrated Circuit (I2C) peripheral:
  10:../../Drivers/STM32F7xx_HAL_Driver/Src/stm32f7xx_hal_i2c.c ****   *           + Initialization and de-initialization functions
  11:../../Drivers/STM32F7xx_HAL_Driver/Src/stm32f7xx_hal_i2c.c ****   *           + IO operation functions
  12:../../Drivers/STM32F7xx_HAL_Driver/Src/stm32f7xx_hal_i2c.c ****   *           + Peripheral State and Errors functions
  13:../../Drivers/STM32F7xx_HAL_Driver/Src/stm32f7xx_hal_i2c.c ****   *
  14:../../Drivers/STM32F7xx_HAL_Driver/Src/stm32f7xx_hal_i2c.c ****   @verbatim
  15:../../Drivers/STM32F7xx_HAL_Driver/Src/stm32f7xx_hal_i2c.c ****   ==============================================================================
  16:../../Drivers/STM32F7xx_HAL_Driver/Src/stm32f7xx_hal_i2c.c ****                         ##### How to use this driver #####
  17:../../Drivers/STM32F7xx_HAL_Driver/Src/stm32f7xx_hal_i2c.c ****   ==============================================================================
  18:../../Drivers/STM32F7xx_HAL_Driver/Src/stm32f7xx_hal_i2c.c ****     [..]
  19:../../Drivers/STM32F7xx_HAL_Driver/Src/stm32f7xx_hal_i2c.c ****     The I2C HAL driver can be used as follows:
  20:../../Drivers/STM32F7xx_HAL_Driver/Src/stm32f7xx_hal_i2c.c ****     
  21:../../Drivers/STM32F7xx_HAL_Driver/Src/stm32f7xx_hal_i2c.c ****     (#) Declare a I2C_HandleTypeDef handle structure, for example:
  22:../../Drivers/STM32F7xx_HAL_Driver/Src/stm32f7xx_hal_i2c.c ****         I2C_HandleTypeDef  hi2c;
  23:../../Drivers/STM32F7xx_HAL_Driver/Src/stm32f7xx_hal_i2c.c **** 
  24:../../Drivers/STM32F7xx_HAL_Driver/Src/stm32f7xx_hal_i2c.c ****     (#)Initialize the I2C low level resources by implementing the HAL_I2C_MspInit() API:
  25:../../Drivers/STM32F7xx_HAL_Driver/Src/stm32f7xx_hal_i2c.c ****         (##) Enable the I2Cx interface clock
  26:../../Drivers/STM32F7xx_HAL_Driver/Src/stm32f7xx_hal_i2c.c ****         (##) I2C pins configuration
  27:../../Drivers/STM32F7xx_HAL_Driver/Src/stm32f7xx_hal_i2c.c ****             (+++) Enable the clock for the I2C GPIOs
  28:../../Drivers/STM32F7xx_HAL_Driver/Src/stm32f7xx_hal_i2c.c ****             (+++) Configure I2C pins as alternate function open-drain
  29:../../Drivers/STM32F7xx_HAL_Driver/Src/stm32f7xx_hal_i2c.c ****         (##) NVIC configuration if you need to use interrupt process
  30:../../Drivers/STM32F7xx_HAL_Driver/Src/stm32f7xx_hal_i2c.c ****             (+++) Configure the I2Cx interrupt priority
ARM GAS  /tmp/cczIhzQ0.s 			page 2


  31:../../Drivers/STM32F7xx_HAL_Driver/Src/stm32f7xx_hal_i2c.c ****             (+++) Enable the NVIC I2C IRQ Channel
  32:../../Drivers/STM32F7xx_HAL_Driver/Src/stm32f7xx_hal_i2c.c ****         (##) DMA Configuration if you need to use DMA process
  33:../../Drivers/STM32F7xx_HAL_Driver/Src/stm32f7xx_hal_i2c.c ****             (+++) Declare a DMA_HandleTypeDef handle structure for the transmit or receive stream
  34:../../Drivers/STM32F7xx_HAL_Driver/Src/stm32f7xx_hal_i2c.c ****             (+++) Enable the DMAx interface clock using
  35:../../Drivers/STM32F7xx_HAL_Driver/Src/stm32f7xx_hal_i2c.c ****             (+++) Configure the DMA handle parameters
  36:../../Drivers/STM32F7xx_HAL_Driver/Src/stm32f7xx_hal_i2c.c ****             (+++) Configure the DMA Tx or Rx stream
  37:../../Drivers/STM32F7xx_HAL_Driver/Src/stm32f7xx_hal_i2c.c ****             (+++) Associate the initialized DMA handle to the hi2c DMA Tx or Rx handle
  38:../../Drivers/STM32F7xx_HAL_Driver/Src/stm32f7xx_hal_i2c.c ****             (+++) Configure the priority and enable the NVIC for the transfer complete interrupt on
  39:../../Drivers/STM32F7xx_HAL_Driver/Src/stm32f7xx_hal_i2c.c ****                   the DMA Tx or Rx stream
  40:../../Drivers/STM32F7xx_HAL_Driver/Src/stm32f7xx_hal_i2c.c **** 
  41:../../Drivers/STM32F7xx_HAL_Driver/Src/stm32f7xx_hal_i2c.c ****     (#) Configure the Communication Clock Timing, Own Address1, Master Addressing mode, Dual Addres
  42:../../Drivers/STM32F7xx_HAL_Driver/Src/stm32f7xx_hal_i2c.c ****         Own Address2, Own Address2 Mask, General call and Nostretch mode in the hi2c Init structure
  43:../../Drivers/STM32F7xx_HAL_Driver/Src/stm32f7xx_hal_i2c.c **** 
  44:../../Drivers/STM32F7xx_HAL_Driver/Src/stm32f7xx_hal_i2c.c ****     (#) Initialize the I2C registers by calling the HAL_I2C_Init(), configures also the low level H
  45:../../Drivers/STM32F7xx_HAL_Driver/Src/stm32f7xx_hal_i2c.c ****         (GPIO, CLOCK, NVIC...etc) by calling the customized HAL_I2C_MspInit(&hi2c) API.
  46:../../Drivers/STM32F7xx_HAL_Driver/Src/stm32f7xx_hal_i2c.c **** 
  47:../../Drivers/STM32F7xx_HAL_Driver/Src/stm32f7xx_hal_i2c.c ****     (#) To check if target device is ready for communication, use the function HAL_I2C_IsDeviceRead
  48:../../Drivers/STM32F7xx_HAL_Driver/Src/stm32f7xx_hal_i2c.c **** 
  49:../../Drivers/STM32F7xx_HAL_Driver/Src/stm32f7xx_hal_i2c.c ****     (#) For I2C IO and IO MEM operations, three operation modes are available within this driver :
  50:../../Drivers/STM32F7xx_HAL_Driver/Src/stm32f7xx_hal_i2c.c **** 
  51:../../Drivers/STM32F7xx_HAL_Driver/Src/stm32f7xx_hal_i2c.c ****     *** Polling mode IO operation ***
  52:../../Drivers/STM32F7xx_HAL_Driver/Src/stm32f7xx_hal_i2c.c ****     =================================
  53:../../Drivers/STM32F7xx_HAL_Driver/Src/stm32f7xx_hal_i2c.c ****     [..]
  54:../../Drivers/STM32F7xx_HAL_Driver/Src/stm32f7xx_hal_i2c.c ****       (+) Transmit in master mode an amount of data in blocking mode using HAL_I2C_Master_Transmit(
  55:../../Drivers/STM32F7xx_HAL_Driver/Src/stm32f7xx_hal_i2c.c ****       (+) Receive in master mode an amount of data in blocking mode using HAL_I2C_Master_Receive()
  56:../../Drivers/STM32F7xx_HAL_Driver/Src/stm32f7xx_hal_i2c.c ****       (+) Transmit in slave mode an amount of data in blocking mode using HAL_I2C_Slave_Transmit()
  57:../../Drivers/STM32F7xx_HAL_Driver/Src/stm32f7xx_hal_i2c.c ****       (+) Receive in slave mode an amount of data in blocking mode using HAL_I2C_Slave_Receive()
  58:../../Drivers/STM32F7xx_HAL_Driver/Src/stm32f7xx_hal_i2c.c **** 
  59:../../Drivers/STM32F7xx_HAL_Driver/Src/stm32f7xx_hal_i2c.c ****     *** Polling mode IO MEM operation ***
  60:../../Drivers/STM32F7xx_HAL_Driver/Src/stm32f7xx_hal_i2c.c ****     =====================================
  61:../../Drivers/STM32F7xx_HAL_Driver/Src/stm32f7xx_hal_i2c.c ****     [..]
  62:../../Drivers/STM32F7xx_HAL_Driver/Src/stm32f7xx_hal_i2c.c ****       (+) Write an amount of data in blocking mode to a specific memory address using HAL_I2C_Mem_W
  63:../../Drivers/STM32F7xx_HAL_Driver/Src/stm32f7xx_hal_i2c.c ****       (+) Read an amount of data in blocking mode from a specific memory address using HAL_I2C_Mem_
  64:../../Drivers/STM32F7xx_HAL_Driver/Src/stm32f7xx_hal_i2c.c **** 
  65:../../Drivers/STM32F7xx_HAL_Driver/Src/stm32f7xx_hal_i2c.c **** 
  66:../../Drivers/STM32F7xx_HAL_Driver/Src/stm32f7xx_hal_i2c.c ****     *** Interrupt mode IO operation ***
  67:../../Drivers/STM32F7xx_HAL_Driver/Src/stm32f7xx_hal_i2c.c ****     ===================================
  68:../../Drivers/STM32F7xx_HAL_Driver/Src/stm32f7xx_hal_i2c.c ****     [..]
  69:../../Drivers/STM32F7xx_HAL_Driver/Src/stm32f7xx_hal_i2c.c ****       (+) Transmit in master mode an amount of data in non-blocking mode using HAL_I2C_Master_Trans
  70:../../Drivers/STM32F7xx_HAL_Driver/Src/stm32f7xx_hal_i2c.c ****       (+) At transmission end of transfer, HAL_I2C_MasterTxCpltCallback() is executed and user can
  71:../../Drivers/STM32F7xx_HAL_Driver/Src/stm32f7xx_hal_i2c.c ****            add his own code by customization of function pointer HAL_I2C_MasterTxCpltCallback()
  72:../../Drivers/STM32F7xx_HAL_Driver/Src/stm32f7xx_hal_i2c.c ****       (+) Receive in master mode an amount of data in non-blocking mode using HAL_I2C_Master_Receiv
  73:../../Drivers/STM32F7xx_HAL_Driver/Src/stm32f7xx_hal_i2c.c ****       (+) At reception end of transfer, HAL_I2C_MasterRxCpltCallback() is executed and user can
  74:../../Drivers/STM32F7xx_HAL_Driver/Src/stm32f7xx_hal_i2c.c ****            add his own code by customization of function pointer HAL_I2C_MasterRxCpltCallback()
  75:../../Drivers/STM32F7xx_HAL_Driver/Src/stm32f7xx_hal_i2c.c ****       (+) Transmit in slave mode an amount of data in non-blocking mode using HAL_I2C_Slave_Transmi
  76:../../Drivers/STM32F7xx_HAL_Driver/Src/stm32f7xx_hal_i2c.c ****       (+) At transmission end of transfer, HAL_I2C_SlaveTxCpltCallback() is executed and user can
  77:../../Drivers/STM32F7xx_HAL_Driver/Src/stm32f7xx_hal_i2c.c ****            add his own code by customization of function pointer HAL_I2C_SlaveTxCpltCallback()
  78:../../Drivers/STM32F7xx_HAL_Driver/Src/stm32f7xx_hal_i2c.c ****       (+) Receive in slave mode an amount of data in non-blocking mode using HAL_I2C_Slave_Receive_
  79:../../Drivers/STM32F7xx_HAL_Driver/Src/stm32f7xx_hal_i2c.c ****       (+) At reception end of transfer, HAL_I2C_SlaveRxCpltCallback() is executed and user can
  80:../../Drivers/STM32F7xx_HAL_Driver/Src/stm32f7xx_hal_i2c.c ****            add his own code by customization of function pointer HAL_I2C_SlaveRxCpltCallback()
  81:../../Drivers/STM32F7xx_HAL_Driver/Src/stm32f7xx_hal_i2c.c ****       (+) In case of transfer Error, HAL_I2C_ErrorCallback() function is executed and user can
  82:../../Drivers/STM32F7xx_HAL_Driver/Src/stm32f7xx_hal_i2c.c ****            add his own code by customization of function pointer HAL_I2C_ErrorCallback()
  83:../../Drivers/STM32F7xx_HAL_Driver/Src/stm32f7xx_hal_i2c.c ****       (+) Abort a master I2C process communication with Interrupt using HAL_I2C_Master_Abort_IT()
  84:../../Drivers/STM32F7xx_HAL_Driver/Src/stm32f7xx_hal_i2c.c ****       (+) End of abort process, HAL_I2C_MasterRxCpltCallback() or HAL_I2C_MasterTxCpltCallback() is
  85:../../Drivers/STM32F7xx_HAL_Driver/Src/stm32f7xx_hal_i2c.c ****            add his own code by customization of function pointer HAL_I2C_MasterRxCpltCallback() or 
  86:../../Drivers/STM32F7xx_HAL_Driver/Src/stm32f7xx_hal_i2c.c ****       (+) Discard a slave I2C process communication using __HAL_I2C_GENERATE_NACK() macro.
  87:../../Drivers/STM32F7xx_HAL_Driver/Src/stm32f7xx_hal_i2c.c ****            This action will inform Master to generate a Stop condition to discard the communication
ARM GAS  /tmp/cczIhzQ0.s 			page 3


  88:../../Drivers/STM32F7xx_HAL_Driver/Src/stm32f7xx_hal_i2c.c **** 
  89:../../Drivers/STM32F7xx_HAL_Driver/Src/stm32f7xx_hal_i2c.c **** 
  90:../../Drivers/STM32F7xx_HAL_Driver/Src/stm32f7xx_hal_i2c.c ****     *** Interrupt mode IO sequential operation ***
  91:../../Drivers/STM32F7xx_HAL_Driver/Src/stm32f7xx_hal_i2c.c ****     ===================================
  92:../../Drivers/STM32F7xx_HAL_Driver/Src/stm32f7xx_hal_i2c.c ****     [..]
  93:../../Drivers/STM32F7xx_HAL_Driver/Src/stm32f7xx_hal_i2c.c ****       (@) These interfaces allow to manage a sequential transfer with a repeated start condition
  94:../../Drivers/STM32F7xx_HAL_Driver/Src/stm32f7xx_hal_i2c.c ****           when a direction change during transfer
  95:../../Drivers/STM32F7xx_HAL_Driver/Src/stm32f7xx_hal_i2c.c ****     [..]
  96:../../Drivers/STM32F7xx_HAL_Driver/Src/stm32f7xx_hal_i2c.c ****       (+) A specific option field manage the different steps of a sequential transfer
  97:../../Drivers/STM32F7xx_HAL_Driver/Src/stm32f7xx_hal_i2c.c ****       (+) Option field values are defined through I2C_XFEROPTIONS and are listed below:
  98:../../Drivers/STM32F7xx_HAL_Driver/Src/stm32f7xx_hal_i2c.c ****       (++) I2C_FIRST_AND_LAST_FRAME: No sequential usage, functionnal is same as associated interfa
  99:../../Drivers/STM32F7xx_HAL_Driver/Src/stm32f7xx_hal_i2c.c ****       (++) I2C_FIRST_FRAME: Sequential usage, this option allow to manage a sequence with start con
 100:../../Drivers/STM32F7xx_HAL_Driver/Src/stm32f7xx_hal_i2c.c ****                             and data to transfer without a final stop condition
 101:../../Drivers/STM32F7xx_HAL_Driver/Src/stm32f7xx_hal_i2c.c **** 	  (++) I2C_FIRST_AND_NEXT_FRAME: Sequential usage (Master only), this option allow to manage a seq
 102:../../Drivers/STM32F7xx_HAL_Driver/Src/stm32f7xx_hal_i2c.c ****                             and data to transfer without a final stop condition, an then permit a c
 103:../../Drivers/STM32F7xx_HAL_Driver/Src/stm32f7xx_hal_i2c.c ****                             several times (like HAL_I2C_Master_Sequential_Transmit_IT() then HAL_I2
 104:../../Drivers/STM32F7xx_HAL_Driver/Src/stm32f7xx_hal_i2c.c ****       (++) I2C_NEXT_FRAME: Sequential usage, this option allow to manage a sequence with a restart 
 105:../../Drivers/STM32F7xx_HAL_Driver/Src/stm32f7xx_hal_i2c.c ****                             and with new data to transfer if the direction change or manage only th
 106:../../Drivers/STM32F7xx_HAL_Driver/Src/stm32f7xx_hal_i2c.c ****                             if no direction change and without a final stop condition in both cases
 107:../../Drivers/STM32F7xx_HAL_Driver/Src/stm32f7xx_hal_i2c.c ****       (++) I2C_LAST_FRAME: Sequential usage, this option allow to manage a sequance with a restart 
 108:../../Drivers/STM32F7xx_HAL_Driver/Src/stm32f7xx_hal_i2c.c ****                             and with new data to transfer if the direction change or manage only th
 109:../../Drivers/STM32F7xx_HAL_Driver/Src/stm32f7xx_hal_i2c.c ****                             if no direction change and with a final stop condition in both cases
 110:../../Drivers/STM32F7xx_HAL_Driver/Src/stm32f7xx_hal_i2c.c **** 
 111:../../Drivers/STM32F7xx_HAL_Driver/Src/stm32f7xx_hal_i2c.c ****       (+) Differents sequential I2C interfaces are listed below:
 112:../../Drivers/STM32F7xx_HAL_Driver/Src/stm32f7xx_hal_i2c.c ****       (++) Sequential transmit in master I2C mode an amount of data in non-blocking mode using HAL_
 113:../../Drivers/STM32F7xx_HAL_Driver/Src/stm32f7xx_hal_i2c.c ****       (+++) At transmission end of current frame transfer, HAL_I2C_MasterTxCpltCallback() is execut
 114:../../Drivers/STM32F7xx_HAL_Driver/Src/stm32f7xx_hal_i2c.c ****            add his own code by customization of function pointer HAL_I2C_MasterTxCpltCallback()
 115:../../Drivers/STM32F7xx_HAL_Driver/Src/stm32f7xx_hal_i2c.c ****       (++) Sequential receive in master I2C mode an amount of data in non-blocking mode using HAL_I
 116:../../Drivers/STM32F7xx_HAL_Driver/Src/stm32f7xx_hal_i2c.c ****       (+++) At reception end of current frame transfer, HAL_I2C_MasterRxCpltCallback() is executed 
 117:../../Drivers/STM32F7xx_HAL_Driver/Src/stm32f7xx_hal_i2c.c ****            add his own code by customization of function pointer HAL_I2C_MasterRxCpltCallback()
 118:../../Drivers/STM32F7xx_HAL_Driver/Src/stm32f7xx_hal_i2c.c ****       (++) Abort a master I2C process communication with Interrupt using HAL_I2C_Master_Abort_IT()
 119:../../Drivers/STM32F7xx_HAL_Driver/Src/stm32f7xx_hal_i2c.c ****       (+++) End of abort process, HAL_I2C_AbortCpltCallback() is executed and user can
 120:../../Drivers/STM32F7xx_HAL_Driver/Src/stm32f7xx_hal_i2c.c ****            add his own code by customization of function pointer HAL_I2C_AbortCpltCallback()
 121:../../Drivers/STM32F7xx_HAL_Driver/Src/stm32f7xx_hal_i2c.c ****       (+++) mean HAL_I2C_MasterTxCpltCallback() in case of previous state was master transmit
 122:../../Drivers/STM32F7xx_HAL_Driver/Src/stm32f7xx_hal_i2c.c ****       (+++) mean HAL_I2c_MasterRxCpltCallback() in case of previous state was master receive
 123:../../Drivers/STM32F7xx_HAL_Driver/Src/stm32f7xx_hal_i2c.c ****       (++) Enable/disable the Address listen mode in slave I2C mode using HAL_I2C_EnableListen_IT()
 124:../../Drivers/STM32F7xx_HAL_Driver/Src/stm32f7xx_hal_i2c.c ****       (+++) When address slave I2C match, HAL_I2C_AddrCallback() is executed and user can
 125:../../Drivers/STM32F7xx_HAL_Driver/Src/stm32f7xx_hal_i2c.c ****            add his own code to check the Address Match Code and the transmission direction request 
 126:../../Drivers/STM32F7xx_HAL_Driver/Src/stm32f7xx_hal_i2c.c ****       (+++) At Listen mode end HAL_I2C_ListenCpltCallback() is executed and user can
 127:../../Drivers/STM32F7xx_HAL_Driver/Src/stm32f7xx_hal_i2c.c ****            add his own code by customization of function pointer HAL_I2C_ListenCpltCallback()
 128:../../Drivers/STM32F7xx_HAL_Driver/Src/stm32f7xx_hal_i2c.c ****       (++) Sequential transmit in slave I2C mode an amount of data in non-blocking mode using HAL_I
 129:../../Drivers/STM32F7xx_HAL_Driver/Src/stm32f7xx_hal_i2c.c ****       (+++) At transmission end of current frame transfer, HAL_I2C_SlaveTxCpltCallback() is execute
 130:../../Drivers/STM32F7xx_HAL_Driver/Src/stm32f7xx_hal_i2c.c ****            add his own code by customization of function pointer HAL_I2C_SlaveTxCpltCallback()
 131:../../Drivers/STM32F7xx_HAL_Driver/Src/stm32f7xx_hal_i2c.c ****       (++) Sequential receive in slave I2C mode an amount of data in non-blocking mode using HAL_I2
 132:../../Drivers/STM32F7xx_HAL_Driver/Src/stm32f7xx_hal_i2c.c ****       (+++) At reception end of current frame transfer, HAL_I2C_SlaveRxCpltCallback() is executed a
 133:../../Drivers/STM32F7xx_HAL_Driver/Src/stm32f7xx_hal_i2c.c ****            add his own code by customization of function pointer HAL_I2C_SlaveRxCpltCallback()
 134:../../Drivers/STM32F7xx_HAL_Driver/Src/stm32f7xx_hal_i2c.c ****       (++) In case of transfer Error, HAL_I2C_ErrorCallback() function is executed and user can
 135:../../Drivers/STM32F7xx_HAL_Driver/Src/stm32f7xx_hal_i2c.c ****            add his own code by customization of function pointer HAL_I2C_ErrorCallback()
 136:../../Drivers/STM32F7xx_HAL_Driver/Src/stm32f7xx_hal_i2c.c ****       (++) Abort a master I2C process communication with Interrupt using HAL_I2C_Master_Abort_IT()
 137:../../Drivers/STM32F7xx_HAL_Driver/Src/stm32f7xx_hal_i2c.c ****       (++) End of abort process, HAL_I2C_AbortCpltCallback() is executed and user can
 138:../../Drivers/STM32F7xx_HAL_Driver/Src/stm32f7xx_hal_i2c.c ****            add his own code by customization of function pointer HAL_I2C_AbortCpltCallback()
 139:../../Drivers/STM32F7xx_HAL_Driver/Src/stm32f7xx_hal_i2c.c ****       (++) Discard a slave I2C process communication using __HAL_I2C_GENERATE_NACK() macro.
 140:../../Drivers/STM32F7xx_HAL_Driver/Src/stm32f7xx_hal_i2c.c ****            This action will inform Master to generate a Stop condition to discard the communication
 141:../../Drivers/STM32F7xx_HAL_Driver/Src/stm32f7xx_hal_i2c.c **** 
 142:../../Drivers/STM32F7xx_HAL_Driver/Src/stm32f7xx_hal_i2c.c ****     *** Interrupt mode IO MEM operation ***
 143:../../Drivers/STM32F7xx_HAL_Driver/Src/stm32f7xx_hal_i2c.c ****     =======================================
 144:../../Drivers/STM32F7xx_HAL_Driver/Src/stm32f7xx_hal_i2c.c ****     [..]
ARM GAS  /tmp/cczIhzQ0.s 			page 4


 145:../../Drivers/STM32F7xx_HAL_Driver/Src/stm32f7xx_hal_i2c.c ****       (+) Write an amount of data in non-blocking mode with Interrupt to a specific memory address 
 146:../../Drivers/STM32F7xx_HAL_Driver/Src/stm32f7xx_hal_i2c.c ****           HAL_I2C_Mem_Write_IT()
 147:../../Drivers/STM32F7xx_HAL_Driver/Src/stm32f7xx_hal_i2c.c ****       (+) At Memory end of write transfer, HAL_I2C_MemTxCpltCallback() is executed and user can
 148:../../Drivers/STM32F7xx_HAL_Driver/Src/stm32f7xx_hal_i2c.c ****            add his own code by customization of function pointer HAL_I2C_MemTxCpltCallback()
 149:../../Drivers/STM32F7xx_HAL_Driver/Src/stm32f7xx_hal_i2c.c ****       (+) Read an amount of data in non-blocking mode with Interrupt from a specific memory address
 150:../../Drivers/STM32F7xx_HAL_Driver/Src/stm32f7xx_hal_i2c.c ****           HAL_I2C_Mem_Read_IT()
 151:../../Drivers/STM32F7xx_HAL_Driver/Src/stm32f7xx_hal_i2c.c ****       (+) At Memory end of read transfer, HAL_I2C_MemRxCpltCallback() is executed and user can
 152:../../Drivers/STM32F7xx_HAL_Driver/Src/stm32f7xx_hal_i2c.c ****            add his own code by customization of function pointer HAL_I2C_MemRxCpltCallback()
 153:../../Drivers/STM32F7xx_HAL_Driver/Src/stm32f7xx_hal_i2c.c ****       (+) In case of transfer Error, HAL_I2C_ErrorCallback() function is executed and user can
 154:../../Drivers/STM32F7xx_HAL_Driver/Src/stm32f7xx_hal_i2c.c ****            add his own code by customization of function pointer HAL_I2C_ErrorCallback()
 155:../../Drivers/STM32F7xx_HAL_Driver/Src/stm32f7xx_hal_i2c.c **** 
 156:../../Drivers/STM32F7xx_HAL_Driver/Src/stm32f7xx_hal_i2c.c ****     *** DMA mode IO operation ***
 157:../../Drivers/STM32F7xx_HAL_Driver/Src/stm32f7xx_hal_i2c.c ****     ==============================
 158:../../Drivers/STM32F7xx_HAL_Driver/Src/stm32f7xx_hal_i2c.c ****     [..]
 159:../../Drivers/STM32F7xx_HAL_Driver/Src/stm32f7xx_hal_i2c.c ****       (+) Transmit in master mode an amount of data in non-blocking mode (DMA) using
 160:../../Drivers/STM32F7xx_HAL_Driver/Src/stm32f7xx_hal_i2c.c ****           HAL_I2C_Master_Transmit_DMA()
 161:../../Drivers/STM32F7xx_HAL_Driver/Src/stm32f7xx_hal_i2c.c ****       (+) At transmission end of transfer, HAL_I2C_MasterTxCpltCallback() is executed and user can
 162:../../Drivers/STM32F7xx_HAL_Driver/Src/stm32f7xx_hal_i2c.c ****            add his own code by customization of function pointer HAL_I2C_MasterTxCpltCallback()
 163:../../Drivers/STM32F7xx_HAL_Driver/Src/stm32f7xx_hal_i2c.c ****       (+) Receive in master mode an amount of data in non-blocking mode (DMA) using
 164:../../Drivers/STM32F7xx_HAL_Driver/Src/stm32f7xx_hal_i2c.c ****           HAL_I2C_Master_Receive_DMA()
 165:../../Drivers/STM32F7xx_HAL_Driver/Src/stm32f7xx_hal_i2c.c ****       (+) At reception end of transfer, HAL_I2C_MasterRxCpltCallback() is executed and user can
 166:../../Drivers/STM32F7xx_HAL_Driver/Src/stm32f7xx_hal_i2c.c ****            add his own code by customization of function pointer HAL_I2C_MasterRxCpltCallback()
 167:../../Drivers/STM32F7xx_HAL_Driver/Src/stm32f7xx_hal_i2c.c ****       (+) Transmit in slave mode an amount of data in non-blocking mode (DMA) using
 168:../../Drivers/STM32F7xx_HAL_Driver/Src/stm32f7xx_hal_i2c.c ****           HAL_I2C_Slave_Transmit_DMA()
 169:../../Drivers/STM32F7xx_HAL_Driver/Src/stm32f7xx_hal_i2c.c ****       (+) At transmission end of transfer, HAL_I2C_SlaveTxCpltCallback() is executed and user can
 170:../../Drivers/STM32F7xx_HAL_Driver/Src/stm32f7xx_hal_i2c.c ****            add his own code by customization of function pointer HAL_I2C_SlaveTxCpltCallback()
 171:../../Drivers/STM32F7xx_HAL_Driver/Src/stm32f7xx_hal_i2c.c ****       (+) Receive in slave mode an amount of data in non-blocking mode (DMA) using
 172:../../Drivers/STM32F7xx_HAL_Driver/Src/stm32f7xx_hal_i2c.c ****           HAL_I2C_Slave_Receive_DMA()
 173:../../Drivers/STM32F7xx_HAL_Driver/Src/stm32f7xx_hal_i2c.c ****       (+) At reception end of transfer, HAL_I2C_SlaveRxCpltCallback() is executed and user can
 174:../../Drivers/STM32F7xx_HAL_Driver/Src/stm32f7xx_hal_i2c.c ****            add his own code by customization of function pointer HAL_I2C_SlaveRxCpltCallback()
 175:../../Drivers/STM32F7xx_HAL_Driver/Src/stm32f7xx_hal_i2c.c ****       (+) In case of transfer Error, HAL_I2C_ErrorCallback() function is executed and user can
 176:../../Drivers/STM32F7xx_HAL_Driver/Src/stm32f7xx_hal_i2c.c ****            add his own code by customization of function pointer HAL_I2C_ErrorCallback()
 177:../../Drivers/STM32F7xx_HAL_Driver/Src/stm32f7xx_hal_i2c.c ****       (+) Abort a master I2C process communication with Interrupt using HAL_I2C_Master_Abort_IT()
 178:../../Drivers/STM32F7xx_HAL_Driver/Src/stm32f7xx_hal_i2c.c ****       (+) End of abort process, HAL_I2C_MasterRxCpltCallback() or HAL_I2C_MasterTxCpltCallback() is
 179:../../Drivers/STM32F7xx_HAL_Driver/Src/stm32f7xx_hal_i2c.c ****            add his own code by customization of function pointer HAL_I2C_MasterRxCpltCallback() or 
 180:../../Drivers/STM32F7xx_HAL_Driver/Src/stm32f7xx_hal_i2c.c ****       (+) Discard a slave I2C process communication using __HAL_I2C_GENERATE_NACK() macro.
 181:../../Drivers/STM32F7xx_HAL_Driver/Src/stm32f7xx_hal_i2c.c ****            This action will inform Master to generate a Stop condition to discard the communication
 182:../../Drivers/STM32F7xx_HAL_Driver/Src/stm32f7xx_hal_i2c.c **** 
 183:../../Drivers/STM32F7xx_HAL_Driver/Src/stm32f7xx_hal_i2c.c ****     *** DMA mode IO MEM operation ***
 184:../../Drivers/STM32F7xx_HAL_Driver/Src/stm32f7xx_hal_i2c.c ****     =================================
 185:../../Drivers/STM32F7xx_HAL_Driver/Src/stm32f7xx_hal_i2c.c ****     [..]
 186:../../Drivers/STM32F7xx_HAL_Driver/Src/stm32f7xx_hal_i2c.c ****       (+) Write an amount of data in non-blocking mode with DMA to a specific memory address using
 187:../../Drivers/STM32F7xx_HAL_Driver/Src/stm32f7xx_hal_i2c.c ****           HAL_I2C_Mem_Write_DMA()
 188:../../Drivers/STM32F7xx_HAL_Driver/Src/stm32f7xx_hal_i2c.c ****       (+) At Memory end of write transfer, HAL_I2C_MemTxCpltCallback() is executed and user can
 189:../../Drivers/STM32F7xx_HAL_Driver/Src/stm32f7xx_hal_i2c.c ****            add his own code by customization of function pointer HAL_I2C_MemTxCpltCallback()
 190:../../Drivers/STM32F7xx_HAL_Driver/Src/stm32f7xx_hal_i2c.c ****       (+) Read an amount of data in non-blocking mode with DMA from a specific memory address using
 191:../../Drivers/STM32F7xx_HAL_Driver/Src/stm32f7xx_hal_i2c.c ****           HAL_I2C_Mem_Read_DMA()
 192:../../Drivers/STM32F7xx_HAL_Driver/Src/stm32f7xx_hal_i2c.c ****       (+) At Memory end of read transfer, HAL_I2C_MemRxCpltCallback() is executed and user can
 193:../../Drivers/STM32F7xx_HAL_Driver/Src/stm32f7xx_hal_i2c.c ****            add his own code by customization of function pointer HAL_I2C_MemRxCpltCallback()
 194:../../Drivers/STM32F7xx_HAL_Driver/Src/stm32f7xx_hal_i2c.c ****       (+) In case of transfer Error, HAL_I2C_ErrorCallback() function is executed and user can
 195:../../Drivers/STM32F7xx_HAL_Driver/Src/stm32f7xx_hal_i2c.c ****            add his own code by customization of function pointer HAL_I2C_ErrorCallback()
 196:../../Drivers/STM32F7xx_HAL_Driver/Src/stm32f7xx_hal_i2c.c **** 
 197:../../Drivers/STM32F7xx_HAL_Driver/Src/stm32f7xx_hal_i2c.c **** 
 198:../../Drivers/STM32F7xx_HAL_Driver/Src/stm32f7xx_hal_i2c.c ****      *** I2C HAL driver macros list ***
 199:../../Drivers/STM32F7xx_HAL_Driver/Src/stm32f7xx_hal_i2c.c ****      ==================================
 200:../../Drivers/STM32F7xx_HAL_Driver/Src/stm32f7xx_hal_i2c.c ****      [..]
 201:../../Drivers/STM32F7xx_HAL_Driver/Src/stm32f7xx_hal_i2c.c ****        Below the list of most used macros in I2C HAL driver.
ARM GAS  /tmp/cczIhzQ0.s 			page 5


 202:../../Drivers/STM32F7xx_HAL_Driver/Src/stm32f7xx_hal_i2c.c **** 
 203:../../Drivers/STM32F7xx_HAL_Driver/Src/stm32f7xx_hal_i2c.c ****       (+) __HAL_I2C_ENABLE: Enable the I2C peripheral
 204:../../Drivers/STM32F7xx_HAL_Driver/Src/stm32f7xx_hal_i2c.c ****       (+) __HAL_I2C_DISABLE: Disable the I2C peripheral
 205:../../Drivers/STM32F7xx_HAL_Driver/Src/stm32f7xx_hal_i2c.c ****       (+) __HAL_I2C_GENERATE_NACK: Generate a Non-Acknowledge I2C peripheral in Slave mode
 206:../../Drivers/STM32F7xx_HAL_Driver/Src/stm32f7xx_hal_i2c.c ****       (+) __HAL_I2C_GET_FLAG: Check whether the specified I2C flag is set or not
 207:../../Drivers/STM32F7xx_HAL_Driver/Src/stm32f7xx_hal_i2c.c ****       (+) __HAL_I2C_CLEAR_FLAG: Clear the specified I2C pending flag
 208:../../Drivers/STM32F7xx_HAL_Driver/Src/stm32f7xx_hal_i2c.c ****       (+) __HAL_I2C_ENABLE_IT: Enable the specified I2C interrupt
 209:../../Drivers/STM32F7xx_HAL_Driver/Src/stm32f7xx_hal_i2c.c ****       (+) __HAL_I2C_DISABLE_IT: Disable the specified I2C interrupt
 210:../../Drivers/STM32F7xx_HAL_Driver/Src/stm32f7xx_hal_i2c.c **** 
 211:../../Drivers/STM32F7xx_HAL_Driver/Src/stm32f7xx_hal_i2c.c ****      [..]
 212:../../Drivers/STM32F7xx_HAL_Driver/Src/stm32f7xx_hal_i2c.c ****        (@) You can refer to the I2C HAL driver header file for more useful macros
 213:../../Drivers/STM32F7xx_HAL_Driver/Src/stm32f7xx_hal_i2c.c **** 
 214:../../Drivers/STM32F7xx_HAL_Driver/Src/stm32f7xx_hal_i2c.c ****   @endverbatim
 215:../../Drivers/STM32F7xx_HAL_Driver/Src/stm32f7xx_hal_i2c.c ****   ******************************************************************************
 216:../../Drivers/STM32F7xx_HAL_Driver/Src/stm32f7xx_hal_i2c.c ****   * @attention
 217:../../Drivers/STM32F7xx_HAL_Driver/Src/stm32f7xx_hal_i2c.c ****   *
 218:../../Drivers/STM32F7xx_HAL_Driver/Src/stm32f7xx_hal_i2c.c ****   * <h2><center>&copy; COPYRIGHT(c) 2016 STMicroelectronics</center></h2>
 219:../../Drivers/STM32F7xx_HAL_Driver/Src/stm32f7xx_hal_i2c.c ****   *
 220:../../Drivers/STM32F7xx_HAL_Driver/Src/stm32f7xx_hal_i2c.c ****   * Redistribution and use in source and binary forms, with or without modification,
 221:../../Drivers/STM32F7xx_HAL_Driver/Src/stm32f7xx_hal_i2c.c ****   * are permitted provided that the following conditions are met:
 222:../../Drivers/STM32F7xx_HAL_Driver/Src/stm32f7xx_hal_i2c.c ****   *   1. Redistributions of source code must retain the above copyright notice,
 223:../../Drivers/STM32F7xx_HAL_Driver/Src/stm32f7xx_hal_i2c.c ****   *      this list of conditions and the following disclaimer.
 224:../../Drivers/STM32F7xx_HAL_Driver/Src/stm32f7xx_hal_i2c.c ****   *   2. Redistributions in binary form must reproduce the above copyright notice,
 225:../../Drivers/STM32F7xx_HAL_Driver/Src/stm32f7xx_hal_i2c.c ****   *      this list of conditions and the following disclaimer in the documentation
 226:../../Drivers/STM32F7xx_HAL_Driver/Src/stm32f7xx_hal_i2c.c ****   *      and/or other materials provided with the distribution.
 227:../../Drivers/STM32F7xx_HAL_Driver/Src/stm32f7xx_hal_i2c.c ****   *   3. Neither the name of STMicroelectronics nor the names of its contributors
 228:../../Drivers/STM32F7xx_HAL_Driver/Src/stm32f7xx_hal_i2c.c ****   *      may be used to endorse or promote products derived from this software
 229:../../Drivers/STM32F7xx_HAL_Driver/Src/stm32f7xx_hal_i2c.c ****   *      without specific prior written permission.
 230:../../Drivers/STM32F7xx_HAL_Driver/Src/stm32f7xx_hal_i2c.c ****   *
 231:../../Drivers/STM32F7xx_HAL_Driver/Src/stm32f7xx_hal_i2c.c ****   * THIS SOFTWARE IS PROVIDED BY THE COPYRIGHT HOLDERS AND CONTRIBUTORS "AS IS"
 232:../../Drivers/STM32F7xx_HAL_Driver/Src/stm32f7xx_hal_i2c.c ****   * AND ANY EXPRESS OR IMPLIED WARRANTIES, INCLUDING, BUT NOT LIMITED TO, THE
 233:../../Drivers/STM32F7xx_HAL_Driver/Src/stm32f7xx_hal_i2c.c ****   * IMPLIED WARRANTIES OF MERCHANTABILITY AND FITNESS FOR A PARTICULAR PURPOSE ARE
 234:../../Drivers/STM32F7xx_HAL_Driver/Src/stm32f7xx_hal_i2c.c ****   * DISCLAIMED. IN NO EVENT SHALL THE COPYRIGHT HOLDER OR CONTRIBUTORS BE LIABLE
 235:../../Drivers/STM32F7xx_HAL_Driver/Src/stm32f7xx_hal_i2c.c ****   * FOR ANY DIRECT, INDIRECT, INCIDENTAL, SPECIAL, EXEMPLARY, OR CONSEQUENTIAL
 236:../../Drivers/STM32F7xx_HAL_Driver/Src/stm32f7xx_hal_i2c.c ****   * DAMAGES (INCLUDING, BUT NOT LIMITED TO, PROCUREMENT OF SUBSTITUTE GOODS OR
 237:../../Drivers/STM32F7xx_HAL_Driver/Src/stm32f7xx_hal_i2c.c ****   * SERVICES; LOSS OF USE, DATA, OR PROFITS; OR BUSINESS INTERRUPTION) HOWEVER
 238:../../Drivers/STM32F7xx_HAL_Driver/Src/stm32f7xx_hal_i2c.c ****   * CAUSED AND ON ANY THEORY OF LIABILITY, WHETHER IN CONTRACT, STRICT LIABILITY,
 239:../../Drivers/STM32F7xx_HAL_Driver/Src/stm32f7xx_hal_i2c.c ****   * OR TORT (INCLUDING NEGLIGENCE OR OTHERWISE) ARISING IN ANY WAY OUT OF THE USE
 240:../../Drivers/STM32F7xx_HAL_Driver/Src/stm32f7xx_hal_i2c.c ****   * OF THIS SOFTWARE, EVEN IF ADVISED OF THE POSSIBILITY OF SUCH DAMAGE.
 241:../../Drivers/STM32F7xx_HAL_Driver/Src/stm32f7xx_hal_i2c.c ****   *
 242:../../Drivers/STM32F7xx_HAL_Driver/Src/stm32f7xx_hal_i2c.c ****   ******************************************************************************
 243:../../Drivers/STM32F7xx_HAL_Driver/Src/stm32f7xx_hal_i2c.c ****   */ 
 244:../../Drivers/STM32F7xx_HAL_Driver/Src/stm32f7xx_hal_i2c.c **** 
 245:../../Drivers/STM32F7xx_HAL_Driver/Src/stm32f7xx_hal_i2c.c **** /* Includes ------------------------------------------------------------------*/
 246:../../Drivers/STM32F7xx_HAL_Driver/Src/stm32f7xx_hal_i2c.c **** #include "stm32f7xx_hal.h"
 247:../../Drivers/STM32F7xx_HAL_Driver/Src/stm32f7xx_hal_i2c.c **** 
 248:../../Drivers/STM32F7xx_HAL_Driver/Src/stm32f7xx_hal_i2c.c **** /** @addtogroup STM32F7xx_HAL_Driver
 249:../../Drivers/STM32F7xx_HAL_Driver/Src/stm32f7xx_hal_i2c.c ****   * @{
 250:../../Drivers/STM32F7xx_HAL_Driver/Src/stm32f7xx_hal_i2c.c ****   */
 251:../../Drivers/STM32F7xx_HAL_Driver/Src/stm32f7xx_hal_i2c.c **** 
 252:../../Drivers/STM32F7xx_HAL_Driver/Src/stm32f7xx_hal_i2c.c **** /** @defgroup I2C I2C
 253:../../Drivers/STM32F7xx_HAL_Driver/Src/stm32f7xx_hal_i2c.c ****   * @brief I2C HAL module driver
 254:../../Drivers/STM32F7xx_HAL_Driver/Src/stm32f7xx_hal_i2c.c ****   * @{
 255:../../Drivers/STM32F7xx_HAL_Driver/Src/stm32f7xx_hal_i2c.c ****   */
 256:../../Drivers/STM32F7xx_HAL_Driver/Src/stm32f7xx_hal_i2c.c **** 
 257:../../Drivers/STM32F7xx_HAL_Driver/Src/stm32f7xx_hal_i2c.c **** #ifdef HAL_I2C_MODULE_ENABLED
 258:../../Drivers/STM32F7xx_HAL_Driver/Src/stm32f7xx_hal_i2c.c **** 
ARM GAS  /tmp/cczIhzQ0.s 			page 6


 259:../../Drivers/STM32F7xx_HAL_Driver/Src/stm32f7xx_hal_i2c.c **** /* Private typedef -----------------------------------------------------------*/
 260:../../Drivers/STM32F7xx_HAL_Driver/Src/stm32f7xx_hal_i2c.c **** /* Private define ------------------------------------------------------------*/
 261:../../Drivers/STM32F7xx_HAL_Driver/Src/stm32f7xx_hal_i2c.c **** 
 262:../../Drivers/STM32F7xx_HAL_Driver/Src/stm32f7xx_hal_i2c.c **** /** @defgroup I2C_Private_Define I2C Private Define
 263:../../Drivers/STM32F7xx_HAL_Driver/Src/stm32f7xx_hal_i2c.c ****   * @{
 264:../../Drivers/STM32F7xx_HAL_Driver/Src/stm32f7xx_hal_i2c.c ****   */
 265:../../Drivers/STM32F7xx_HAL_Driver/Src/stm32f7xx_hal_i2c.c **** #define TIMING_CLEAR_MASK   ((uint32_t)0xF0FFFFFFU)  /*!<  I2C TIMING clear register Mask */
 266:../../Drivers/STM32F7xx_HAL_Driver/Src/stm32f7xx_hal_i2c.c **** #define I2C_TIMEOUT_ADDR    ((uint32_t)10000U)       /*!< 10 s  */
 267:../../Drivers/STM32F7xx_HAL_Driver/Src/stm32f7xx_hal_i2c.c **** #define I2C_TIMEOUT_BUSY    ((uint32_t)25U)          /*!< 25 ms */
 268:../../Drivers/STM32F7xx_HAL_Driver/Src/stm32f7xx_hal_i2c.c **** #define I2C_TIMEOUT_DIR     ((uint32_t)25U)          /*!< 25 ms */
 269:../../Drivers/STM32F7xx_HAL_Driver/Src/stm32f7xx_hal_i2c.c **** #define I2C_TIMEOUT_RXNE    ((uint32_t)25U)          /*!< 25 ms */
 270:../../Drivers/STM32F7xx_HAL_Driver/Src/stm32f7xx_hal_i2c.c **** #define I2C_TIMEOUT_STOPF   ((uint32_t)25U)          /*!< 25 ms */
 271:../../Drivers/STM32F7xx_HAL_Driver/Src/stm32f7xx_hal_i2c.c **** #define I2C_TIMEOUT_TC      ((uint32_t)25U)          /*!< 25 ms */
 272:../../Drivers/STM32F7xx_HAL_Driver/Src/stm32f7xx_hal_i2c.c **** #define I2C_TIMEOUT_TCR     ((uint32_t)25U)          /*!< 25 ms */
 273:../../Drivers/STM32F7xx_HAL_Driver/Src/stm32f7xx_hal_i2c.c **** #define I2C_TIMEOUT_TXIS    ((uint32_t)25U)          /*!< 25 ms */
 274:../../Drivers/STM32F7xx_HAL_Driver/Src/stm32f7xx_hal_i2c.c **** #define I2C_TIMEOUT_FLAG    ((uint32_t)25U)          /*!< 25 ms */
 275:../../Drivers/STM32F7xx_HAL_Driver/Src/stm32f7xx_hal_i2c.c **** 
 276:../../Drivers/STM32F7xx_HAL_Driver/Src/stm32f7xx_hal_i2c.c **** #define MAX_NBYTE_SIZE      255U
 277:../../Drivers/STM32F7xx_HAL_Driver/Src/stm32f7xx_hal_i2c.c **** #define SlaveAddr_SHIFT     7U
 278:../../Drivers/STM32F7xx_HAL_Driver/Src/stm32f7xx_hal_i2c.c **** #define SlaveAddr_MSK       0x06U
 279:../../Drivers/STM32F7xx_HAL_Driver/Src/stm32f7xx_hal_i2c.c **** 
 280:../../Drivers/STM32F7xx_HAL_Driver/Src/stm32f7xx_hal_i2c.c **** /* Private define for @ref PreviousState usage */
 281:../../Drivers/STM32F7xx_HAL_Driver/Src/stm32f7xx_hal_i2c.c **** #define I2C_STATE_MSK             ((uint32_t)((HAL_I2C_STATE_BUSY_TX | HAL_I2C_STATE_BUSY_RX) & (~(
 282:../../Drivers/STM32F7xx_HAL_Driver/Src/stm32f7xx_hal_i2c.c **** #define I2C_STATE_NONE            ((uint32_t)(HAL_I2C_MODE_NONE))                                  
 283:../../Drivers/STM32F7xx_HAL_Driver/Src/stm32f7xx_hal_i2c.c **** #define I2C_STATE_MASTER_BUSY_TX  ((uint32_t)((HAL_I2C_STATE_BUSY_TX & I2C_STATE_MSK) | HAL_I2C_MOD
 284:../../Drivers/STM32F7xx_HAL_Driver/Src/stm32f7xx_hal_i2c.c **** #define I2C_STATE_MASTER_BUSY_RX  ((uint32_t)((HAL_I2C_STATE_BUSY_RX & I2C_STATE_MSK) | HAL_I2C_MOD
 285:../../Drivers/STM32F7xx_HAL_Driver/Src/stm32f7xx_hal_i2c.c **** #define I2C_STATE_SLAVE_BUSY_TX   ((uint32_t)((HAL_I2C_STATE_BUSY_TX & I2C_STATE_MSK) | HAL_I2C_MOD
 286:../../Drivers/STM32F7xx_HAL_Driver/Src/stm32f7xx_hal_i2c.c **** #define I2C_STATE_SLAVE_BUSY_RX   ((uint32_t)((HAL_I2C_STATE_BUSY_RX & I2C_STATE_MSK) | HAL_I2C_MOD
 287:../../Drivers/STM32F7xx_HAL_Driver/Src/stm32f7xx_hal_i2c.c **** #define I2C_STATE_MEM_BUSY_TX     ((uint32_t)((HAL_I2C_STATE_BUSY_TX & I2C_STATE_MSK) | HAL_I2C_MOD
 288:../../Drivers/STM32F7xx_HAL_Driver/Src/stm32f7xx_hal_i2c.c **** #define I2C_STATE_MEM_BUSY_RX     ((uint32_t)((HAL_I2C_STATE_BUSY_RX & I2C_STATE_MSK) | HAL_I2C_MOD
 289:../../Drivers/STM32F7xx_HAL_Driver/Src/stm32f7xx_hal_i2c.c **** 
 290:../../Drivers/STM32F7xx_HAL_Driver/Src/stm32f7xx_hal_i2c.c **** /* Private define to centralize the enable/disable of Interrupts */
 291:../../Drivers/STM32F7xx_HAL_Driver/Src/stm32f7xx_hal_i2c.c **** #define I2C_XFER_TX_IT          ((uint32_t)0x00000001U)
 292:../../Drivers/STM32F7xx_HAL_Driver/Src/stm32f7xx_hal_i2c.c **** #define I2C_XFER_RX_IT          ((uint32_t)0x00000002U)
 293:../../Drivers/STM32F7xx_HAL_Driver/Src/stm32f7xx_hal_i2c.c **** #define I2C_XFER_LISTEN_IT      ((uint32_t)0x00000004U)
 294:../../Drivers/STM32F7xx_HAL_Driver/Src/stm32f7xx_hal_i2c.c **** 
 295:../../Drivers/STM32F7xx_HAL_Driver/Src/stm32f7xx_hal_i2c.c **** #define I2C_XFER_ERROR_IT       ((uint32_t)0x00000011U)
 296:../../Drivers/STM32F7xx_HAL_Driver/Src/stm32f7xx_hal_i2c.c **** #define I2C_XFER_CPLT_IT        ((uint32_t)0x00000012U)
 297:../../Drivers/STM32F7xx_HAL_Driver/Src/stm32f7xx_hal_i2c.c **** #define I2C_XFER_RELOAD_IT      ((uint32_t)0x00000012U)
 298:../../Drivers/STM32F7xx_HAL_Driver/Src/stm32f7xx_hal_i2c.c **** 
 299:../../Drivers/STM32F7xx_HAL_Driver/Src/stm32f7xx_hal_i2c.c **** /* Private define Sequential Transfer Options default/reset value */
 300:../../Drivers/STM32F7xx_HAL_Driver/Src/stm32f7xx_hal_i2c.c **** #define I2C_NO_OPTION_FRAME     ((uint32_t)0xFFFF0000U)
 301:../../Drivers/STM32F7xx_HAL_Driver/Src/stm32f7xx_hal_i2c.c **** /**
 302:../../Drivers/STM32F7xx_HAL_Driver/Src/stm32f7xx_hal_i2c.c ****   * @}
 303:../../Drivers/STM32F7xx_HAL_Driver/Src/stm32f7xx_hal_i2c.c ****   */
 304:../../Drivers/STM32F7xx_HAL_Driver/Src/stm32f7xx_hal_i2c.c **** 
 305:../../Drivers/STM32F7xx_HAL_Driver/Src/stm32f7xx_hal_i2c.c **** /* Private macro -------------------------------------------------------------*/
 306:../../Drivers/STM32F7xx_HAL_Driver/Src/stm32f7xx_hal_i2c.c **** #define I2C_GET_DMA_REMAIN_DATA(__HANDLE__) ((((__HANDLE__)->State) == HAL_I2C_STATE_BUSY_TX)   ? \
 307:../../Drivers/STM32F7xx_HAL_Driver/Src/stm32f7xx_hal_i2c.c ****                                             ((uint32_t)((__HANDLE__)->hdmatx->Instance->NDTR)) : \
 308:../../Drivers/STM32F7xx_HAL_Driver/Src/stm32f7xx_hal_i2c.c ****                                             ((uint32_t)((__HANDLE__)->hdmarx->Instance->NDTR)))
 309:../../Drivers/STM32F7xx_HAL_Driver/Src/stm32f7xx_hal_i2c.c **** 
 310:../../Drivers/STM32F7xx_HAL_Driver/Src/stm32f7xx_hal_i2c.c **** /* Private variables ---------------------------------------------------------*/
 311:../../Drivers/STM32F7xx_HAL_Driver/Src/stm32f7xx_hal_i2c.c **** /* Private function prototypes -----------------------------------------------*/
 312:../../Drivers/STM32F7xx_HAL_Driver/Src/stm32f7xx_hal_i2c.c **** 
 313:../../Drivers/STM32F7xx_HAL_Driver/Src/stm32f7xx_hal_i2c.c **** /** @defgroup I2C_Private_Functions I2C Private Functions
 314:../../Drivers/STM32F7xx_HAL_Driver/Src/stm32f7xx_hal_i2c.c ****   * @{
 315:../../Drivers/STM32F7xx_HAL_Driver/Src/stm32f7xx_hal_i2c.c ****   */
ARM GAS  /tmp/cczIhzQ0.s 			page 7


 316:../../Drivers/STM32F7xx_HAL_Driver/Src/stm32f7xx_hal_i2c.c **** /* Private functions to handle DMA transfer */
 317:../../Drivers/STM32F7xx_HAL_Driver/Src/stm32f7xx_hal_i2c.c **** static void I2C_DMAMasterTransmitCplt(DMA_HandleTypeDef *hdma);
 318:../../Drivers/STM32F7xx_HAL_Driver/Src/stm32f7xx_hal_i2c.c **** static void I2C_DMAMasterReceiveCplt(DMA_HandleTypeDef *hdma);
 319:../../Drivers/STM32F7xx_HAL_Driver/Src/stm32f7xx_hal_i2c.c **** static void I2C_DMASlaveTransmitCplt(DMA_HandleTypeDef *hdma);
 320:../../Drivers/STM32F7xx_HAL_Driver/Src/stm32f7xx_hal_i2c.c **** static void I2C_DMASlaveReceiveCplt(DMA_HandleTypeDef *hdma);
 321:../../Drivers/STM32F7xx_HAL_Driver/Src/stm32f7xx_hal_i2c.c **** static void I2C_DMAError(DMA_HandleTypeDef *hdma);
 322:../../Drivers/STM32F7xx_HAL_Driver/Src/stm32f7xx_hal_i2c.c **** static void I2C_DMAAbort(DMA_HandleTypeDef *hdma);
 323:../../Drivers/STM32F7xx_HAL_Driver/Src/stm32f7xx_hal_i2c.c **** 
 324:../../Drivers/STM32F7xx_HAL_Driver/Src/stm32f7xx_hal_i2c.c **** /* Private functions to handle IT transfer */
 325:../../Drivers/STM32F7xx_HAL_Driver/Src/stm32f7xx_hal_i2c.c **** static void I2C_ITAddrCplt(I2C_HandleTypeDef *hi2c, uint32_t ITFlags);
 326:../../Drivers/STM32F7xx_HAL_Driver/Src/stm32f7xx_hal_i2c.c **** static void I2C_ITMasterSequentialCplt(I2C_HandleTypeDef *hi2c);
 327:../../Drivers/STM32F7xx_HAL_Driver/Src/stm32f7xx_hal_i2c.c **** static void I2C_ITSlaveSequentialCplt(I2C_HandleTypeDef *hi2c);
 328:../../Drivers/STM32F7xx_HAL_Driver/Src/stm32f7xx_hal_i2c.c **** static void I2C_ITMasterCplt(I2C_HandleTypeDef *hi2c, uint32_t ITFlags);
 329:../../Drivers/STM32F7xx_HAL_Driver/Src/stm32f7xx_hal_i2c.c **** static void I2C_ITSlaveCplt(I2C_HandleTypeDef *hi2c, uint32_t ITFlags);
 330:../../Drivers/STM32F7xx_HAL_Driver/Src/stm32f7xx_hal_i2c.c **** static void I2C_ITListenCplt(I2C_HandleTypeDef *hi2c, uint32_t ITFlags);
 331:../../Drivers/STM32F7xx_HAL_Driver/Src/stm32f7xx_hal_i2c.c **** static void I2C_ITError(I2C_HandleTypeDef *hi2c, uint32_t ErrorCode);
 332:../../Drivers/STM32F7xx_HAL_Driver/Src/stm32f7xx_hal_i2c.c **** 
 333:../../Drivers/STM32F7xx_HAL_Driver/Src/stm32f7xx_hal_i2c.c **** /* Private functions to handle IT transfer */
 334:../../Drivers/STM32F7xx_HAL_Driver/Src/stm32f7xx_hal_i2c.c **** static HAL_StatusTypeDef I2C_RequestMemoryWrite(I2C_HandleTypeDef *hi2c, uint16_t DevAddress, uint1
 335:../../Drivers/STM32F7xx_HAL_Driver/Src/stm32f7xx_hal_i2c.c **** static HAL_StatusTypeDef I2C_RequestMemoryRead(I2C_HandleTypeDef *hi2c, uint16_t DevAddress, uint16
 336:../../Drivers/STM32F7xx_HAL_Driver/Src/stm32f7xx_hal_i2c.c **** 
 337:../../Drivers/STM32F7xx_HAL_Driver/Src/stm32f7xx_hal_i2c.c **** /* Private functions for I2C transfer IRQ handler */
 338:../../Drivers/STM32F7xx_HAL_Driver/Src/stm32f7xx_hal_i2c.c **** static HAL_StatusTypeDef I2C_Master_ISR_IT(struct __I2C_HandleTypeDef *hi2c, uint32_t ITFlags, uint
 339:../../Drivers/STM32F7xx_HAL_Driver/Src/stm32f7xx_hal_i2c.c **** static HAL_StatusTypeDef I2C_Slave_ISR_IT(struct __I2C_HandleTypeDef *hi2c, uint32_t ITFlags, uint3
 340:../../Drivers/STM32F7xx_HAL_Driver/Src/stm32f7xx_hal_i2c.c **** static HAL_StatusTypeDef I2C_Master_ISR_DMA(struct __I2C_HandleTypeDef *hi2c, uint32_t ITFlags, uin
 341:../../Drivers/STM32F7xx_HAL_Driver/Src/stm32f7xx_hal_i2c.c **** static HAL_StatusTypeDef I2C_Slave_ISR_DMA(struct __I2C_HandleTypeDef *hi2c, uint32_t ITFlags, uint
 342:../../Drivers/STM32F7xx_HAL_Driver/Src/stm32f7xx_hal_i2c.c **** 
 343:../../Drivers/STM32F7xx_HAL_Driver/Src/stm32f7xx_hal_i2c.c **** /* Private functions to handle flags during polling transfer */
 344:../../Drivers/STM32F7xx_HAL_Driver/Src/stm32f7xx_hal_i2c.c **** static HAL_StatusTypeDef I2C_WaitOnFlagUntilTimeout(I2C_HandleTypeDef *hi2c, uint32_t Flag, FlagSta
 345:../../Drivers/STM32F7xx_HAL_Driver/Src/stm32f7xx_hal_i2c.c **** static HAL_StatusTypeDef I2C_WaitOnTXISFlagUntilTimeout(I2C_HandleTypeDef *hi2c, uint32_t Timeout, 
 346:../../Drivers/STM32F7xx_HAL_Driver/Src/stm32f7xx_hal_i2c.c **** static HAL_StatusTypeDef I2C_WaitOnRXNEFlagUntilTimeout(I2C_HandleTypeDef *hi2c, uint32_t Timeout, 
 347:../../Drivers/STM32F7xx_HAL_Driver/Src/stm32f7xx_hal_i2c.c **** static HAL_StatusTypeDef I2C_WaitOnSTOPFlagUntilTimeout(I2C_HandleTypeDef *hi2c, uint32_t Timeout, 
 348:../../Drivers/STM32F7xx_HAL_Driver/Src/stm32f7xx_hal_i2c.c **** static HAL_StatusTypeDef I2C_IsAcknowledgeFailed(I2C_HandleTypeDef *hi2c, uint32_t Timeout, uint32_
 349:../../Drivers/STM32F7xx_HAL_Driver/Src/stm32f7xx_hal_i2c.c **** 
 350:../../Drivers/STM32F7xx_HAL_Driver/Src/stm32f7xx_hal_i2c.c **** /* Private functions to centralize the enable/disable of Interrupts */
 351:../../Drivers/STM32F7xx_HAL_Driver/Src/stm32f7xx_hal_i2c.c **** static HAL_StatusTypeDef I2C_Enable_IRQ(I2C_HandleTypeDef *hi2c, uint16_t InterruptRequest);
 352:../../Drivers/STM32F7xx_HAL_Driver/Src/stm32f7xx_hal_i2c.c **** static HAL_StatusTypeDef I2C_Disable_IRQ(I2C_HandleTypeDef *hi2c, uint16_t InterruptRequest);
 353:../../Drivers/STM32F7xx_HAL_Driver/Src/stm32f7xx_hal_i2c.c **** 
 354:../../Drivers/STM32F7xx_HAL_Driver/Src/stm32f7xx_hal_i2c.c **** /* Private functions to flush TXDR register */
 355:../../Drivers/STM32F7xx_HAL_Driver/Src/stm32f7xx_hal_i2c.c **** static void I2C_Flush_TXDR(I2C_HandleTypeDef *hi2c);
 356:../../Drivers/STM32F7xx_HAL_Driver/Src/stm32f7xx_hal_i2c.c **** 
 357:../../Drivers/STM32F7xx_HAL_Driver/Src/stm32f7xx_hal_i2c.c **** /* Private functions to handle  start, restart or stop a transfer */
 358:../../Drivers/STM32F7xx_HAL_Driver/Src/stm32f7xx_hal_i2c.c **** static void I2C_TransferConfig(I2C_HandleTypeDef *hi2c,  uint16_t DevAddress, uint8_t Size, uint32_
 359:../../Drivers/STM32F7xx_HAL_Driver/Src/stm32f7xx_hal_i2c.c **** /**
 360:../../Drivers/STM32F7xx_HAL_Driver/Src/stm32f7xx_hal_i2c.c ****   * @}
 361:../../Drivers/STM32F7xx_HAL_Driver/Src/stm32f7xx_hal_i2c.c ****   */
 362:../../Drivers/STM32F7xx_HAL_Driver/Src/stm32f7xx_hal_i2c.c **** 
 363:../../Drivers/STM32F7xx_HAL_Driver/Src/stm32f7xx_hal_i2c.c **** /* Exported functions --------------------------------------------------------*/
 364:../../Drivers/STM32F7xx_HAL_Driver/Src/stm32f7xx_hal_i2c.c **** 
 365:../../Drivers/STM32F7xx_HAL_Driver/Src/stm32f7xx_hal_i2c.c **** /** @defgroup I2C_Exported_Functions I2C Exported Functions
 366:../../Drivers/STM32F7xx_HAL_Driver/Src/stm32f7xx_hal_i2c.c ****   * @{
 367:../../Drivers/STM32F7xx_HAL_Driver/Src/stm32f7xx_hal_i2c.c ****   */
 368:../../Drivers/STM32F7xx_HAL_Driver/Src/stm32f7xx_hal_i2c.c **** 
 369:../../Drivers/STM32F7xx_HAL_Driver/Src/stm32f7xx_hal_i2c.c **** /** @defgroup I2C_Exported_Functions_Group1 Initialization and de-initialization functions
 370:../../Drivers/STM32F7xx_HAL_Driver/Src/stm32f7xx_hal_i2c.c ****  *  @brief    Initialization and Configuration functions 
 371:../../Drivers/STM32F7xx_HAL_Driver/Src/stm32f7xx_hal_i2c.c ****  *
 372:../../Drivers/STM32F7xx_HAL_Driver/Src/stm32f7xx_hal_i2c.c **** @verbatim
ARM GAS  /tmp/cczIhzQ0.s 			page 8


 373:../../Drivers/STM32F7xx_HAL_Driver/Src/stm32f7xx_hal_i2c.c ****  ===============================================================================
 374:../../Drivers/STM32F7xx_HAL_Driver/Src/stm32f7xx_hal_i2c.c ****               ##### Initialization and de-initialization functions #####
 375:../../Drivers/STM32F7xx_HAL_Driver/Src/stm32f7xx_hal_i2c.c ****  ===============================================================================
 376:../../Drivers/STM32F7xx_HAL_Driver/Src/stm32f7xx_hal_i2c.c ****     [..]  This subsection provides a set of functions allowing to initialize and
 377:../../Drivers/STM32F7xx_HAL_Driver/Src/stm32f7xx_hal_i2c.c ****           deinitialize the I2Cx peripheral:
 378:../../Drivers/STM32F7xx_HAL_Driver/Src/stm32f7xx_hal_i2c.c **** 
 379:../../Drivers/STM32F7xx_HAL_Driver/Src/stm32f7xx_hal_i2c.c ****       (+) User must Implement HAL_I2C_MspInit() function in which he configures
 380:../../Drivers/STM32F7xx_HAL_Driver/Src/stm32f7xx_hal_i2c.c ****           all related peripherals resources (CLOCK, GPIO, DMA, IT and NVIC ).
 381:../../Drivers/STM32F7xx_HAL_Driver/Src/stm32f7xx_hal_i2c.c **** 
 382:../../Drivers/STM32F7xx_HAL_Driver/Src/stm32f7xx_hal_i2c.c ****       (+) Call the function HAL_I2C_Init() to configure the selected device with
 383:../../Drivers/STM32F7xx_HAL_Driver/Src/stm32f7xx_hal_i2c.c ****           the selected configuration:
 384:../../Drivers/STM32F7xx_HAL_Driver/Src/stm32f7xx_hal_i2c.c ****         (++) Clock Timing
 385:../../Drivers/STM32F7xx_HAL_Driver/Src/stm32f7xx_hal_i2c.c ****         (++) Own Address 1
 386:../../Drivers/STM32F7xx_HAL_Driver/Src/stm32f7xx_hal_i2c.c ****         (++) Addressing mode (Master, Slave)
 387:../../Drivers/STM32F7xx_HAL_Driver/Src/stm32f7xx_hal_i2c.c ****         (++) Dual Addressing mode
 388:../../Drivers/STM32F7xx_HAL_Driver/Src/stm32f7xx_hal_i2c.c ****         (++) Own Address 2
 389:../../Drivers/STM32F7xx_HAL_Driver/Src/stm32f7xx_hal_i2c.c ****         (++) Own Address 2 Mask
 390:../../Drivers/STM32F7xx_HAL_Driver/Src/stm32f7xx_hal_i2c.c ****         (++) General call mode
 391:../../Drivers/STM32F7xx_HAL_Driver/Src/stm32f7xx_hal_i2c.c ****         (++) Nostretch mode
 392:../../Drivers/STM32F7xx_HAL_Driver/Src/stm32f7xx_hal_i2c.c **** 
 393:../../Drivers/STM32F7xx_HAL_Driver/Src/stm32f7xx_hal_i2c.c ****       (+) Call the function HAL_I2C_DeInit() to restore the default configuration
 394:../../Drivers/STM32F7xx_HAL_Driver/Src/stm32f7xx_hal_i2c.c ****           of the selected I2Cx peripheral.
 395:../../Drivers/STM32F7xx_HAL_Driver/Src/stm32f7xx_hal_i2c.c **** 
 396:../../Drivers/STM32F7xx_HAL_Driver/Src/stm32f7xx_hal_i2c.c **** @endverbatim
 397:../../Drivers/STM32F7xx_HAL_Driver/Src/stm32f7xx_hal_i2c.c ****   * @{
 398:../../Drivers/STM32F7xx_HAL_Driver/Src/stm32f7xx_hal_i2c.c ****   */
 399:../../Drivers/STM32F7xx_HAL_Driver/Src/stm32f7xx_hal_i2c.c **** 
 400:../../Drivers/STM32F7xx_HAL_Driver/Src/stm32f7xx_hal_i2c.c **** /**
 401:../../Drivers/STM32F7xx_HAL_Driver/Src/stm32f7xx_hal_i2c.c ****   * @brief  Initializes the I2C according to the specified parameters
 402:../../Drivers/STM32F7xx_HAL_Driver/Src/stm32f7xx_hal_i2c.c ****   *         in the I2C_InitTypeDef and initialize the associated handle.
 403:../../Drivers/STM32F7xx_HAL_Driver/Src/stm32f7xx_hal_i2c.c ****   * @param  hi2c: Pointer to a I2C_HandleTypeDef structure that contains
 404:../../Drivers/STM32F7xx_HAL_Driver/Src/stm32f7xx_hal_i2c.c ****   *               the configuration information for the specified I2C.
 405:../../Drivers/STM32F7xx_HAL_Driver/Src/stm32f7xx_hal_i2c.c ****   * @retval HAL status
 406:../../Drivers/STM32F7xx_HAL_Driver/Src/stm32f7xx_hal_i2c.c ****   */
 407:../../Drivers/STM32F7xx_HAL_Driver/Src/stm32f7xx_hal_i2c.c **** HAL_StatusTypeDef HAL_I2C_Init(I2C_HandleTypeDef *hi2c)
 408:../../Drivers/STM32F7xx_HAL_Driver/Src/stm32f7xx_hal_i2c.c **** {
  29              		.loc 1 408 0
  30              		.cfi_startproc
  31              		@ args = 0, pretend = 0, frame = 8
  32              		@ frame_needed = 1, uses_anonymous_args = 0
  33 0000 80B5     		push	{r7, lr}
  34              	.LCFI0:
  35              		.cfi_def_cfa_offset 8
  36              		.cfi_offset 7, -8
  37              		.cfi_offset 14, -4
  38 0002 82B0     		sub	sp, sp, #8
  39              	.LCFI1:
  40              		.cfi_def_cfa_offset 16
  41 0004 00AF     		add	r7, sp, #0
  42              	.LCFI2:
  43              		.cfi_def_cfa_register 7
  44 0006 7860     		str	r0, [r7, #4]
 409:../../Drivers/STM32F7xx_HAL_Driver/Src/stm32f7xx_hal_i2c.c ****   /* Check the I2C handle allocation */
 410:../../Drivers/STM32F7xx_HAL_Driver/Src/stm32f7xx_hal_i2c.c ****   if(hi2c == NULL)
  45              		.loc 1 410 0
  46 0008 7B68     		ldr	r3, [r7, #4]
  47 000a 002B     		cmp	r3, #0
ARM GAS  /tmp/cczIhzQ0.s 			page 9


  48 000c 01D1     		bne	.L2
 411:../../Drivers/STM32F7xx_HAL_Driver/Src/stm32f7xx_hal_i2c.c ****   {
 412:../../Drivers/STM32F7xx_HAL_Driver/Src/stm32f7xx_hal_i2c.c ****     return HAL_ERROR;
  49              		.loc 1 412 0
  50 000e 0123     		movs	r3, #1
  51 0010 7EE0     		b	.L3
  52              	.L2:
 413:../../Drivers/STM32F7xx_HAL_Driver/Src/stm32f7xx_hal_i2c.c ****   }
 414:../../Drivers/STM32F7xx_HAL_Driver/Src/stm32f7xx_hal_i2c.c **** 
 415:../../Drivers/STM32F7xx_HAL_Driver/Src/stm32f7xx_hal_i2c.c ****   /* Check the parameters */
 416:../../Drivers/STM32F7xx_HAL_Driver/Src/stm32f7xx_hal_i2c.c ****   assert_param(IS_I2C_ALL_INSTANCE(hi2c->Instance));
 417:../../Drivers/STM32F7xx_HAL_Driver/Src/stm32f7xx_hal_i2c.c ****   assert_param(IS_I2C_OWN_ADDRESS1(hi2c->Init.OwnAddress1));
 418:../../Drivers/STM32F7xx_HAL_Driver/Src/stm32f7xx_hal_i2c.c ****   assert_param(IS_I2C_ADDRESSING_MODE(hi2c->Init.AddressingMode));
 419:../../Drivers/STM32F7xx_HAL_Driver/Src/stm32f7xx_hal_i2c.c ****   assert_param(IS_I2C_DUAL_ADDRESS(hi2c->Init.DualAddressMode));
 420:../../Drivers/STM32F7xx_HAL_Driver/Src/stm32f7xx_hal_i2c.c ****   assert_param(IS_I2C_OWN_ADDRESS2(hi2c->Init.OwnAddress2));
 421:../../Drivers/STM32F7xx_HAL_Driver/Src/stm32f7xx_hal_i2c.c ****   assert_param(IS_I2C_OWN_ADDRESS2_MASK(hi2c->Init.OwnAddress2Masks));
 422:../../Drivers/STM32F7xx_HAL_Driver/Src/stm32f7xx_hal_i2c.c ****   assert_param(IS_I2C_GENERAL_CALL(hi2c->Init.GeneralCallMode));
 423:../../Drivers/STM32F7xx_HAL_Driver/Src/stm32f7xx_hal_i2c.c ****   assert_param(IS_I2C_NO_STRETCH(hi2c->Init.NoStretchMode));
 424:../../Drivers/STM32F7xx_HAL_Driver/Src/stm32f7xx_hal_i2c.c **** 
 425:../../Drivers/STM32F7xx_HAL_Driver/Src/stm32f7xx_hal_i2c.c ****   if(hi2c->State == HAL_I2C_STATE_RESET)
  53              		.loc 1 425 0
  54 0012 7B68     		ldr	r3, [r7, #4]
  55 0014 93F84130 		ldrb	r3, [r3, #65]
  56 0018 DBB2     		uxtb	r3, r3
  57 001a 002B     		cmp	r3, #0
  58 001c 06D1     		bne	.L4
 426:../../Drivers/STM32F7xx_HAL_Driver/Src/stm32f7xx_hal_i2c.c ****   {
 427:../../Drivers/STM32F7xx_HAL_Driver/Src/stm32f7xx_hal_i2c.c ****     /* Allocate lock resource and initialize it */
 428:../../Drivers/STM32F7xx_HAL_Driver/Src/stm32f7xx_hal_i2c.c ****     hi2c->Lock = HAL_UNLOCKED;
  59              		.loc 1 428 0
  60 001e 7B68     		ldr	r3, [r7, #4]
  61 0020 0022     		movs	r2, #0
  62 0022 83F84020 		strb	r2, [r3, #64]
 429:../../Drivers/STM32F7xx_HAL_Driver/Src/stm32f7xx_hal_i2c.c **** 
 430:../../Drivers/STM32F7xx_HAL_Driver/Src/stm32f7xx_hal_i2c.c ****     /* Init the low level hardware : GPIO, CLOCK, CORTEX...etc */
 431:../../Drivers/STM32F7xx_HAL_Driver/Src/stm32f7xx_hal_i2c.c ****     HAL_I2C_MspInit(hi2c);
  63              		.loc 1 431 0
  64 0026 7868     		ldr	r0, [r7, #4]
  65 0028 FFF7FEFF 		bl	HAL_I2C_MspInit
  66              	.L4:
 432:../../Drivers/STM32F7xx_HAL_Driver/Src/stm32f7xx_hal_i2c.c ****   }
 433:../../Drivers/STM32F7xx_HAL_Driver/Src/stm32f7xx_hal_i2c.c **** 
 434:../../Drivers/STM32F7xx_HAL_Driver/Src/stm32f7xx_hal_i2c.c ****   hi2c->State = HAL_I2C_STATE_BUSY;
  67              		.loc 1 434 0
  68 002c 7B68     		ldr	r3, [r7, #4]
  69 002e 2422     		movs	r2, #36
  70 0030 83F84120 		strb	r2, [r3, #65]
 435:../../Drivers/STM32F7xx_HAL_Driver/Src/stm32f7xx_hal_i2c.c **** 
 436:../../Drivers/STM32F7xx_HAL_Driver/Src/stm32f7xx_hal_i2c.c ****   /* Disable the selected I2C peripheral */
 437:../../Drivers/STM32F7xx_HAL_Driver/Src/stm32f7xx_hal_i2c.c ****   __HAL_I2C_DISABLE(hi2c);
  71              		.loc 1 437 0
  72 0034 7B68     		ldr	r3, [r7, #4]
  73 0036 1B68     		ldr	r3, [r3]
  74 0038 7A68     		ldr	r2, [r7, #4]
  75 003a 1268     		ldr	r2, [r2]
  76 003c 1268     		ldr	r2, [r2]
  77 003e 22F00102 		bic	r2, r2, #1
ARM GAS  /tmp/cczIhzQ0.s 			page 10


  78 0042 1A60     		str	r2, [r3]
 438:../../Drivers/STM32F7xx_HAL_Driver/Src/stm32f7xx_hal_i2c.c **** 
 439:../../Drivers/STM32F7xx_HAL_Driver/Src/stm32f7xx_hal_i2c.c ****   /*---------------------------- I2Cx TIMINGR Configuration ------------------*/
 440:../../Drivers/STM32F7xx_HAL_Driver/Src/stm32f7xx_hal_i2c.c ****   /* Configure I2Cx: Frequency range */
 441:../../Drivers/STM32F7xx_HAL_Driver/Src/stm32f7xx_hal_i2c.c ****   hi2c->Instance->TIMINGR = hi2c->Init.Timing & TIMING_CLEAR_MASK;
  79              		.loc 1 441 0
  80 0044 7B68     		ldr	r3, [r7, #4]
  81 0046 1B68     		ldr	r3, [r3]
  82 0048 7A68     		ldr	r2, [r7, #4]
  83 004a 5268     		ldr	r2, [r2, #4]
  84 004c 22F07062 		bic	r2, r2, #251658240
  85 0050 1A61     		str	r2, [r3, #16]
 442:../../Drivers/STM32F7xx_HAL_Driver/Src/stm32f7xx_hal_i2c.c **** 
 443:../../Drivers/STM32F7xx_HAL_Driver/Src/stm32f7xx_hal_i2c.c ****   /*---------------------------- I2Cx OAR1 Configuration ---------------------*/
 444:../../Drivers/STM32F7xx_HAL_Driver/Src/stm32f7xx_hal_i2c.c ****   /* Disable Own Address1 before set the Own Address1 configuration */
 445:../../Drivers/STM32F7xx_HAL_Driver/Src/stm32f7xx_hal_i2c.c ****   hi2c->Instance->OAR1 &= ~I2C_OAR1_OA1EN;
  86              		.loc 1 445 0
  87 0052 7B68     		ldr	r3, [r7, #4]
  88 0054 1B68     		ldr	r3, [r3]
  89 0056 7A68     		ldr	r2, [r7, #4]
  90 0058 1268     		ldr	r2, [r2]
  91 005a 9268     		ldr	r2, [r2, #8]
  92 005c 22F40042 		bic	r2, r2, #32768
  93 0060 9A60     		str	r2, [r3, #8]
 446:../../Drivers/STM32F7xx_HAL_Driver/Src/stm32f7xx_hal_i2c.c **** 
 447:../../Drivers/STM32F7xx_HAL_Driver/Src/stm32f7xx_hal_i2c.c ****   /* Configure I2Cx: Own Address1 and ack own address1 mode */
 448:../../Drivers/STM32F7xx_HAL_Driver/Src/stm32f7xx_hal_i2c.c ****   if(hi2c->Init.AddressingMode == I2C_ADDRESSINGMODE_7BIT)
  94              		.loc 1 448 0
  95 0062 7B68     		ldr	r3, [r7, #4]
  96 0064 DB68     		ldr	r3, [r3, #12]
  97 0066 012B     		cmp	r3, #1
  98 0068 07D1     		bne	.L5
 449:../../Drivers/STM32F7xx_HAL_Driver/Src/stm32f7xx_hal_i2c.c ****   {
 450:../../Drivers/STM32F7xx_HAL_Driver/Src/stm32f7xx_hal_i2c.c ****     hi2c->Instance->OAR1 = (I2C_OAR1_OA1EN | hi2c->Init.OwnAddress1);
  99              		.loc 1 450 0
 100 006a 7B68     		ldr	r3, [r7, #4]
 101 006c 1B68     		ldr	r3, [r3]
 102 006e 7A68     		ldr	r2, [r7, #4]
 103 0070 9268     		ldr	r2, [r2, #8]
 104 0072 42F40042 		orr	r2, r2, #32768
 105 0076 9A60     		str	r2, [r3, #8]
 106 0078 06E0     		b	.L6
 107              	.L5:
 451:../../Drivers/STM32F7xx_HAL_Driver/Src/stm32f7xx_hal_i2c.c ****   }
 452:../../Drivers/STM32F7xx_HAL_Driver/Src/stm32f7xx_hal_i2c.c ****   else /* I2C_ADDRESSINGMODE_10BIT */
 453:../../Drivers/STM32F7xx_HAL_Driver/Src/stm32f7xx_hal_i2c.c ****   {
 454:../../Drivers/STM32F7xx_HAL_Driver/Src/stm32f7xx_hal_i2c.c ****     hi2c->Instance->OAR1 = (I2C_OAR1_OA1EN | I2C_OAR1_OA1MODE | hi2c->Init.OwnAddress1);
 108              		.loc 1 454 0
 109 007a 7B68     		ldr	r3, [r7, #4]
 110 007c 1B68     		ldr	r3, [r3]
 111 007e 7A68     		ldr	r2, [r7, #4]
 112 0080 9268     		ldr	r2, [r2, #8]
 113 0082 42F40442 		orr	r2, r2, #33792
 114 0086 9A60     		str	r2, [r3, #8]
 115              	.L6:
 455:../../Drivers/STM32F7xx_HAL_Driver/Src/stm32f7xx_hal_i2c.c ****   }
 456:../../Drivers/STM32F7xx_HAL_Driver/Src/stm32f7xx_hal_i2c.c **** 
ARM GAS  /tmp/cczIhzQ0.s 			page 11


 457:../../Drivers/STM32F7xx_HAL_Driver/Src/stm32f7xx_hal_i2c.c ****   /*---------------------------- I2Cx CR2 Configuration ----------------------*/
 458:../../Drivers/STM32F7xx_HAL_Driver/Src/stm32f7xx_hal_i2c.c ****   /* Configure I2Cx: Addressing Master mode */
 459:../../Drivers/STM32F7xx_HAL_Driver/Src/stm32f7xx_hal_i2c.c ****   if(hi2c->Init.AddressingMode == I2C_ADDRESSINGMODE_10BIT)
 116              		.loc 1 459 0
 117 0088 7B68     		ldr	r3, [r7, #4]
 118 008a DB68     		ldr	r3, [r3, #12]
 119 008c 022B     		cmp	r3, #2
 120 008e 04D1     		bne	.L7
 460:../../Drivers/STM32F7xx_HAL_Driver/Src/stm32f7xx_hal_i2c.c ****   {
 461:../../Drivers/STM32F7xx_HAL_Driver/Src/stm32f7xx_hal_i2c.c ****     hi2c->Instance->CR2 = (I2C_CR2_ADD10);
 121              		.loc 1 461 0
 122 0090 7B68     		ldr	r3, [r7, #4]
 123 0092 1B68     		ldr	r3, [r3]
 124 0094 4FF40062 		mov	r2, #2048
 125 0098 5A60     		str	r2, [r3, #4]
 126              	.L7:
 462:../../Drivers/STM32F7xx_HAL_Driver/Src/stm32f7xx_hal_i2c.c ****   }
 463:../../Drivers/STM32F7xx_HAL_Driver/Src/stm32f7xx_hal_i2c.c ****   /* Enable the AUTOEND by default, and enable NACK (should be disable only during Slave process */
 464:../../Drivers/STM32F7xx_HAL_Driver/Src/stm32f7xx_hal_i2c.c ****   hi2c->Instance->CR2 |= (I2C_CR2_AUTOEND | I2C_CR2_NACK);
 127              		.loc 1 464 0
 128 009a 7B68     		ldr	r3, [r7, #4]
 129 009c 1A68     		ldr	r2, [r3]
 130 009e 7B68     		ldr	r3, [r7, #4]
 131 00a0 1B68     		ldr	r3, [r3]
 132 00a2 5968     		ldr	r1, [r3, #4]
 133 00a4 1C4B     		ldr	r3, .L8
 134 00a6 0B43     		orrs	r3, r3, r1
 135 00a8 5360     		str	r3, [r2, #4]
 465:../../Drivers/STM32F7xx_HAL_Driver/Src/stm32f7xx_hal_i2c.c **** 
 466:../../Drivers/STM32F7xx_HAL_Driver/Src/stm32f7xx_hal_i2c.c ****   /*---------------------------- I2Cx OAR2 Configuration ---------------------*/
 467:../../Drivers/STM32F7xx_HAL_Driver/Src/stm32f7xx_hal_i2c.c ****   /* Disable Own Address2 before set the Own Address2 configuration */
 468:../../Drivers/STM32F7xx_HAL_Driver/Src/stm32f7xx_hal_i2c.c ****   hi2c->Instance->OAR2 &= ~I2C_DUALADDRESS_ENABLE;
 136              		.loc 1 468 0
 137 00aa 7B68     		ldr	r3, [r7, #4]
 138 00ac 1B68     		ldr	r3, [r3]
 139 00ae 7A68     		ldr	r2, [r7, #4]
 140 00b0 1268     		ldr	r2, [r2]
 141 00b2 D268     		ldr	r2, [r2, #12]
 142 00b4 22F40042 		bic	r2, r2, #32768
 143 00b8 DA60     		str	r2, [r3, #12]
 469:../../Drivers/STM32F7xx_HAL_Driver/Src/stm32f7xx_hal_i2c.c **** 
 470:../../Drivers/STM32F7xx_HAL_Driver/Src/stm32f7xx_hal_i2c.c ****   /* Configure I2Cx: Dual mode and Own Address2 */
 471:../../Drivers/STM32F7xx_HAL_Driver/Src/stm32f7xx_hal_i2c.c ****   hi2c->Instance->OAR2 = (hi2c->Init.DualAddressMode | hi2c->Init.OwnAddress2 | (hi2c->Init.OwnAddr
 144              		.loc 1 471 0
 145 00ba 7B68     		ldr	r3, [r7, #4]
 146 00bc 1B68     		ldr	r3, [r3]
 147 00be 7A68     		ldr	r2, [r7, #4]
 148 00c0 1169     		ldr	r1, [r2, #16]
 149 00c2 7A68     		ldr	r2, [r7, #4]
 150 00c4 5269     		ldr	r2, [r2, #20]
 151 00c6 1143     		orrs	r1, r1, r2
 152 00c8 7A68     		ldr	r2, [r7, #4]
 153 00ca 9269     		ldr	r2, [r2, #24]
 154 00cc 1202     		lsls	r2, r2, #8
 155 00ce 0A43     		orrs	r2, r2, r1
 156 00d0 DA60     		str	r2, [r3, #12]
 472:../../Drivers/STM32F7xx_HAL_Driver/Src/stm32f7xx_hal_i2c.c **** 
ARM GAS  /tmp/cczIhzQ0.s 			page 12


 473:../../Drivers/STM32F7xx_HAL_Driver/Src/stm32f7xx_hal_i2c.c ****   /*---------------------------- I2Cx CR1 Configuration ----------------------*/
 474:../../Drivers/STM32F7xx_HAL_Driver/Src/stm32f7xx_hal_i2c.c ****   /* Configure I2Cx: Generalcall and NoStretch mode */
 475:../../Drivers/STM32F7xx_HAL_Driver/Src/stm32f7xx_hal_i2c.c ****   hi2c->Instance->CR1 = (hi2c->Init.GeneralCallMode | hi2c->Init.NoStretchMode);
 157              		.loc 1 475 0
 158 00d2 7B68     		ldr	r3, [r7, #4]
 159 00d4 1B68     		ldr	r3, [r3]
 160 00d6 7A68     		ldr	r2, [r7, #4]
 161 00d8 D169     		ldr	r1, [r2, #28]
 162 00da 7A68     		ldr	r2, [r7, #4]
 163 00dc 126A     		ldr	r2, [r2, #32]
 164 00de 0A43     		orrs	r2, r2, r1
 165 00e0 1A60     		str	r2, [r3]
 476:../../Drivers/STM32F7xx_HAL_Driver/Src/stm32f7xx_hal_i2c.c **** 
 477:../../Drivers/STM32F7xx_HAL_Driver/Src/stm32f7xx_hal_i2c.c ****   /* Enable the selected I2C peripheral */
 478:../../Drivers/STM32F7xx_HAL_Driver/Src/stm32f7xx_hal_i2c.c ****   __HAL_I2C_ENABLE(hi2c);
 166              		.loc 1 478 0
 167 00e2 7B68     		ldr	r3, [r7, #4]
 168 00e4 1B68     		ldr	r3, [r3]
 169 00e6 7A68     		ldr	r2, [r7, #4]
 170 00e8 1268     		ldr	r2, [r2]
 171 00ea 1268     		ldr	r2, [r2]
 172 00ec 42F00102 		orr	r2, r2, #1
 173 00f0 1A60     		str	r2, [r3]
 479:../../Drivers/STM32F7xx_HAL_Driver/Src/stm32f7xx_hal_i2c.c ****   
 480:../../Drivers/STM32F7xx_HAL_Driver/Src/stm32f7xx_hal_i2c.c ****   hi2c->ErrorCode = HAL_I2C_ERROR_NONE;
 174              		.loc 1 480 0
 175 00f2 7B68     		ldr	r3, [r7, #4]
 176 00f4 0022     		movs	r2, #0
 177 00f6 5A64     		str	r2, [r3, #68]
 481:../../Drivers/STM32F7xx_HAL_Driver/Src/stm32f7xx_hal_i2c.c ****   hi2c->State = HAL_I2C_STATE_READY;
 178              		.loc 1 481 0
 179 00f8 7B68     		ldr	r3, [r7, #4]
 180 00fa 2022     		movs	r2, #32
 181 00fc 83F84120 		strb	r2, [r3, #65]
 482:../../Drivers/STM32F7xx_HAL_Driver/Src/stm32f7xx_hal_i2c.c ****   hi2c->PreviousState = I2C_STATE_NONE;
 182              		.loc 1 482 0
 183 0100 7B68     		ldr	r3, [r7, #4]
 184 0102 0022     		movs	r2, #0
 185 0104 1A63     		str	r2, [r3, #48]
 483:../../Drivers/STM32F7xx_HAL_Driver/Src/stm32f7xx_hal_i2c.c ****   hi2c->Mode = HAL_I2C_MODE_NONE;
 186              		.loc 1 483 0
 187 0106 7B68     		ldr	r3, [r7, #4]
 188 0108 0022     		movs	r2, #0
 189 010a 83F84220 		strb	r2, [r3, #66]
 484:../../Drivers/STM32F7xx_HAL_Driver/Src/stm32f7xx_hal_i2c.c ****   
 485:../../Drivers/STM32F7xx_HAL_Driver/Src/stm32f7xx_hal_i2c.c ****   return HAL_OK;
 190              		.loc 1 485 0
 191 010e 0023     		movs	r3, #0
 192              	.L3:
 486:../../Drivers/STM32F7xx_HAL_Driver/Src/stm32f7xx_hal_i2c.c **** }
 193              		.loc 1 486 0
 194 0110 1846     		mov	r0, r3
 195 0112 0837     		adds	r7, r7, #8
 196              	.LCFI3:
 197              		.cfi_def_cfa_offset 8
 198 0114 BD46     		mov	sp, r7
 199              	.LCFI4:
ARM GAS  /tmp/cczIhzQ0.s 			page 13


 200              		.cfi_def_cfa_register 13
 201              		@ sp needed
 202 0116 80BD     		pop	{r7, pc}
 203              	.L9:
 204              		.align	2
 205              	.L8:
 206 0118 00800002 		.word	33587200
 207              		.cfi_endproc
 208              	.LFE135:
 210              		.section	.text.HAL_I2C_DeInit,"ax",%progbits
 211              		.align	2
 212              		.global	HAL_I2C_DeInit
 213              		.thumb
 214              		.thumb_func
 216              	HAL_I2C_DeInit:
 217              	.LFB136:
 487:../../Drivers/STM32F7xx_HAL_Driver/Src/stm32f7xx_hal_i2c.c **** 
 488:../../Drivers/STM32F7xx_HAL_Driver/Src/stm32f7xx_hal_i2c.c **** /**
 489:../../Drivers/STM32F7xx_HAL_Driver/Src/stm32f7xx_hal_i2c.c ****   * @brief  DeInitialize the I2C peripheral.
 490:../../Drivers/STM32F7xx_HAL_Driver/Src/stm32f7xx_hal_i2c.c ****   * @param  hi2c: Pointer to a I2C_HandleTypeDef structure that contains
 491:../../Drivers/STM32F7xx_HAL_Driver/Src/stm32f7xx_hal_i2c.c ****   *               the configuration information for the specified I2C.
 492:../../Drivers/STM32F7xx_HAL_Driver/Src/stm32f7xx_hal_i2c.c ****   * @retval HAL status
 493:../../Drivers/STM32F7xx_HAL_Driver/Src/stm32f7xx_hal_i2c.c ****   */
 494:../../Drivers/STM32F7xx_HAL_Driver/Src/stm32f7xx_hal_i2c.c **** HAL_StatusTypeDef HAL_I2C_DeInit(I2C_HandleTypeDef *hi2c)
 495:../../Drivers/STM32F7xx_HAL_Driver/Src/stm32f7xx_hal_i2c.c **** {
 218              		.loc 1 495 0
 219              		.cfi_startproc
 220              		@ args = 0, pretend = 0, frame = 8
 221              		@ frame_needed = 1, uses_anonymous_args = 0
 222 0000 80B5     		push	{r7, lr}
 223              	.LCFI5:
 224              		.cfi_def_cfa_offset 8
 225              		.cfi_offset 7, -8
 226              		.cfi_offset 14, -4
 227 0002 82B0     		sub	sp, sp, #8
 228              	.LCFI6:
 229              		.cfi_def_cfa_offset 16
 230 0004 00AF     		add	r7, sp, #0
 231              	.LCFI7:
 232              		.cfi_def_cfa_register 7
 233 0006 7860     		str	r0, [r7, #4]
 496:../../Drivers/STM32F7xx_HAL_Driver/Src/stm32f7xx_hal_i2c.c ****   /* Check the I2C handle allocation */
 497:../../Drivers/STM32F7xx_HAL_Driver/Src/stm32f7xx_hal_i2c.c ****   if(hi2c == NULL)
 234              		.loc 1 497 0
 235 0008 7B68     		ldr	r3, [r7, #4]
 236 000a 002B     		cmp	r3, #0
 237 000c 01D1     		bne	.L11
 498:../../Drivers/STM32F7xx_HAL_Driver/Src/stm32f7xx_hal_i2c.c ****   {
 499:../../Drivers/STM32F7xx_HAL_Driver/Src/stm32f7xx_hal_i2c.c ****     return HAL_ERROR;
 238              		.loc 1 499 0
 239 000e 0123     		movs	r3, #1
 240 0010 21E0     		b	.L12
 241              	.L11:
 500:../../Drivers/STM32F7xx_HAL_Driver/Src/stm32f7xx_hal_i2c.c ****   }
 501:../../Drivers/STM32F7xx_HAL_Driver/Src/stm32f7xx_hal_i2c.c ****   
 502:../../Drivers/STM32F7xx_HAL_Driver/Src/stm32f7xx_hal_i2c.c ****   /* Check the parameters */
 503:../../Drivers/STM32F7xx_HAL_Driver/Src/stm32f7xx_hal_i2c.c ****   assert_param(IS_I2C_ALL_INSTANCE(hi2c->Instance));
ARM GAS  /tmp/cczIhzQ0.s 			page 14


 504:../../Drivers/STM32F7xx_HAL_Driver/Src/stm32f7xx_hal_i2c.c ****   
 505:../../Drivers/STM32F7xx_HAL_Driver/Src/stm32f7xx_hal_i2c.c ****   hi2c->State = HAL_I2C_STATE_BUSY;
 242              		.loc 1 505 0
 243 0012 7B68     		ldr	r3, [r7, #4]
 244 0014 2422     		movs	r2, #36
 245 0016 83F84120 		strb	r2, [r3, #65]
 506:../../Drivers/STM32F7xx_HAL_Driver/Src/stm32f7xx_hal_i2c.c ****   
 507:../../Drivers/STM32F7xx_HAL_Driver/Src/stm32f7xx_hal_i2c.c ****   /* Disable the I2C Peripheral Clock */
 508:../../Drivers/STM32F7xx_HAL_Driver/Src/stm32f7xx_hal_i2c.c ****   __HAL_I2C_DISABLE(hi2c);
 246              		.loc 1 508 0
 247 001a 7B68     		ldr	r3, [r7, #4]
 248 001c 1B68     		ldr	r3, [r3]
 249 001e 7A68     		ldr	r2, [r7, #4]
 250 0020 1268     		ldr	r2, [r2]
 251 0022 1268     		ldr	r2, [r2]
 252 0024 22F00102 		bic	r2, r2, #1
 253 0028 1A60     		str	r2, [r3]
 509:../../Drivers/STM32F7xx_HAL_Driver/Src/stm32f7xx_hal_i2c.c ****   
 510:../../Drivers/STM32F7xx_HAL_Driver/Src/stm32f7xx_hal_i2c.c ****   /* DeInit the low level hardware: GPIO, CLOCK, NVIC */
 511:../../Drivers/STM32F7xx_HAL_Driver/Src/stm32f7xx_hal_i2c.c ****   HAL_I2C_MspDeInit(hi2c);
 254              		.loc 1 511 0
 255 002a 7868     		ldr	r0, [r7, #4]
 256 002c FFF7FEFF 		bl	HAL_I2C_MspDeInit
 512:../../Drivers/STM32F7xx_HAL_Driver/Src/stm32f7xx_hal_i2c.c ****   
 513:../../Drivers/STM32F7xx_HAL_Driver/Src/stm32f7xx_hal_i2c.c ****   hi2c->ErrorCode = HAL_I2C_ERROR_NONE;
 257              		.loc 1 513 0
 258 0030 7B68     		ldr	r3, [r7, #4]
 259 0032 0022     		movs	r2, #0
 260 0034 5A64     		str	r2, [r3, #68]
 514:../../Drivers/STM32F7xx_HAL_Driver/Src/stm32f7xx_hal_i2c.c ****   hi2c->State = HAL_I2C_STATE_RESET;
 261              		.loc 1 514 0
 262 0036 7B68     		ldr	r3, [r7, #4]
 263 0038 0022     		movs	r2, #0
 264 003a 83F84120 		strb	r2, [r3, #65]
 515:../../Drivers/STM32F7xx_HAL_Driver/Src/stm32f7xx_hal_i2c.c ****   hi2c->PreviousState = I2C_STATE_NONE;
 265              		.loc 1 515 0
 266 003e 7B68     		ldr	r3, [r7, #4]
 267 0040 0022     		movs	r2, #0
 268 0042 1A63     		str	r2, [r3, #48]
 516:../../Drivers/STM32F7xx_HAL_Driver/Src/stm32f7xx_hal_i2c.c ****   hi2c->Mode = HAL_I2C_MODE_NONE;
 269              		.loc 1 516 0
 270 0044 7B68     		ldr	r3, [r7, #4]
 271 0046 0022     		movs	r2, #0
 272 0048 83F84220 		strb	r2, [r3, #66]
 517:../../Drivers/STM32F7xx_HAL_Driver/Src/stm32f7xx_hal_i2c.c ****   
 518:../../Drivers/STM32F7xx_HAL_Driver/Src/stm32f7xx_hal_i2c.c ****   /* Release Lock */
 519:../../Drivers/STM32F7xx_HAL_Driver/Src/stm32f7xx_hal_i2c.c ****   __HAL_UNLOCK(hi2c);
 273              		.loc 1 519 0
 274 004c 7B68     		ldr	r3, [r7, #4]
 275 004e 0022     		movs	r2, #0
 276 0050 83F84020 		strb	r2, [r3, #64]
 520:../../Drivers/STM32F7xx_HAL_Driver/Src/stm32f7xx_hal_i2c.c **** 
 521:../../Drivers/STM32F7xx_HAL_Driver/Src/stm32f7xx_hal_i2c.c ****   return HAL_OK;
 277              		.loc 1 521 0
 278 0054 0023     		movs	r3, #0
 279              	.L12:
 522:../../Drivers/STM32F7xx_HAL_Driver/Src/stm32f7xx_hal_i2c.c **** }
ARM GAS  /tmp/cczIhzQ0.s 			page 15


 280              		.loc 1 522 0
 281 0056 1846     		mov	r0, r3
 282 0058 0837     		adds	r7, r7, #8
 283              	.LCFI8:
 284              		.cfi_def_cfa_offset 8
 285 005a BD46     		mov	sp, r7
 286              	.LCFI9:
 287              		.cfi_def_cfa_register 13
 288              		@ sp needed
 289 005c 80BD     		pop	{r7, pc}
 290              		.cfi_endproc
 291              	.LFE136:
 293 005e 00BF     		.section	.text.HAL_I2C_MspInit,"ax",%progbits
 294              		.align	2
 295              		.weak	HAL_I2C_MspInit
 296              		.thumb
 297              		.thumb_func
 299              	HAL_I2C_MspInit:
 300              	.LFB137:
 523:../../Drivers/STM32F7xx_HAL_Driver/Src/stm32f7xx_hal_i2c.c **** 
 524:../../Drivers/STM32F7xx_HAL_Driver/Src/stm32f7xx_hal_i2c.c **** /**
 525:../../Drivers/STM32F7xx_HAL_Driver/Src/stm32f7xx_hal_i2c.c ****   * @brief Initialize the I2C MSP.
 526:../../Drivers/STM32F7xx_HAL_Driver/Src/stm32f7xx_hal_i2c.c ****   * @param  hi2c: Pointer to a I2C_HandleTypeDef structure that contains
 527:../../Drivers/STM32F7xx_HAL_Driver/Src/stm32f7xx_hal_i2c.c ****   *               the configuration information for the specified I2C.
 528:../../Drivers/STM32F7xx_HAL_Driver/Src/stm32f7xx_hal_i2c.c ****   * @retval None
 529:../../Drivers/STM32F7xx_HAL_Driver/Src/stm32f7xx_hal_i2c.c ****   */
 530:../../Drivers/STM32F7xx_HAL_Driver/Src/stm32f7xx_hal_i2c.c **** __weak void HAL_I2C_MspInit(I2C_HandleTypeDef *hi2c)
 531:../../Drivers/STM32F7xx_HAL_Driver/Src/stm32f7xx_hal_i2c.c **** {
 301              		.loc 1 531 0
 302              		.cfi_startproc
 303              		@ args = 0, pretend = 0, frame = 8
 304              		@ frame_needed = 1, uses_anonymous_args = 0
 305              		@ link register save eliminated.
 306 0000 80B4     		push	{r7}
 307              	.LCFI10:
 308              		.cfi_def_cfa_offset 4
 309              		.cfi_offset 7, -4
 310 0002 83B0     		sub	sp, sp, #12
 311              	.LCFI11:
 312              		.cfi_def_cfa_offset 16
 313 0004 00AF     		add	r7, sp, #0
 314              	.LCFI12:
 315              		.cfi_def_cfa_register 7
 316 0006 7860     		str	r0, [r7, #4]
 532:../../Drivers/STM32F7xx_HAL_Driver/Src/stm32f7xx_hal_i2c.c ****   /* Prevent unused argument(s) compilation warning */
 533:../../Drivers/STM32F7xx_HAL_Driver/Src/stm32f7xx_hal_i2c.c ****   UNUSED(hi2c);
 534:../../Drivers/STM32F7xx_HAL_Driver/Src/stm32f7xx_hal_i2c.c ****   
 535:../../Drivers/STM32F7xx_HAL_Driver/Src/stm32f7xx_hal_i2c.c ****   /* NOTE : This function should not be modified, when the callback is needed,
 536:../../Drivers/STM32F7xx_HAL_Driver/Src/stm32f7xx_hal_i2c.c ****             the HAL_I2C_MspInit could be implemented in the user file
 537:../../Drivers/STM32F7xx_HAL_Driver/Src/stm32f7xx_hal_i2c.c ****    */
 538:../../Drivers/STM32F7xx_HAL_Driver/Src/stm32f7xx_hal_i2c.c **** }
 317              		.loc 1 538 0
 318 0008 0C37     		adds	r7, r7, #12
 319              	.LCFI13:
 320              		.cfi_def_cfa_offset 4
 321 000a BD46     		mov	sp, r7
 322              	.LCFI14:
ARM GAS  /tmp/cczIhzQ0.s 			page 16


 323              		.cfi_def_cfa_register 13
 324              		@ sp needed
 325 000c 5DF8047B 		ldr	r7, [sp], #4
 326              	.LCFI15:
 327              		.cfi_restore 7
 328              		.cfi_def_cfa_offset 0
 329 0010 7047     		bx	lr
 330              		.cfi_endproc
 331              	.LFE137:
 333 0012 00BF     		.section	.text.HAL_I2C_MspDeInit,"ax",%progbits
 334              		.align	2
 335              		.weak	HAL_I2C_MspDeInit
 336              		.thumb
 337              		.thumb_func
 339              	HAL_I2C_MspDeInit:
 340              	.LFB138:
 539:../../Drivers/STM32F7xx_HAL_Driver/Src/stm32f7xx_hal_i2c.c **** 
 540:../../Drivers/STM32F7xx_HAL_Driver/Src/stm32f7xx_hal_i2c.c **** /**
 541:../../Drivers/STM32F7xx_HAL_Driver/Src/stm32f7xx_hal_i2c.c ****   * @brief DeInitialize the I2C MSP.
 542:../../Drivers/STM32F7xx_HAL_Driver/Src/stm32f7xx_hal_i2c.c ****   * @param  hi2c: Pointer to a I2C_HandleTypeDef structure that contains
 543:../../Drivers/STM32F7xx_HAL_Driver/Src/stm32f7xx_hal_i2c.c ****   *               the configuration information for the specified I2C.
 544:../../Drivers/STM32F7xx_HAL_Driver/Src/stm32f7xx_hal_i2c.c ****   * @retval None
 545:../../Drivers/STM32F7xx_HAL_Driver/Src/stm32f7xx_hal_i2c.c ****   */
 546:../../Drivers/STM32F7xx_HAL_Driver/Src/stm32f7xx_hal_i2c.c **** __weak void HAL_I2C_MspDeInit(I2C_HandleTypeDef *hi2c)
 547:../../Drivers/STM32F7xx_HAL_Driver/Src/stm32f7xx_hal_i2c.c **** {
 341              		.loc 1 547 0
 342              		.cfi_startproc
 343              		@ args = 0, pretend = 0, frame = 8
 344              		@ frame_needed = 1, uses_anonymous_args = 0
 345              		@ link register save eliminated.
 346 0000 80B4     		push	{r7}
 347              	.LCFI16:
 348              		.cfi_def_cfa_offset 4
 349              		.cfi_offset 7, -4
 350 0002 83B0     		sub	sp, sp, #12
 351              	.LCFI17:
 352              		.cfi_def_cfa_offset 16
 353 0004 00AF     		add	r7, sp, #0
 354              	.LCFI18:
 355              		.cfi_def_cfa_register 7
 356 0006 7860     		str	r0, [r7, #4]
 548:../../Drivers/STM32F7xx_HAL_Driver/Src/stm32f7xx_hal_i2c.c ****   /* Prevent unused argument(s) compilation warning */
 549:../../Drivers/STM32F7xx_HAL_Driver/Src/stm32f7xx_hal_i2c.c ****   UNUSED(hi2c);
 550:../../Drivers/STM32F7xx_HAL_Driver/Src/stm32f7xx_hal_i2c.c ****   
 551:../../Drivers/STM32F7xx_HAL_Driver/Src/stm32f7xx_hal_i2c.c ****   /* NOTE : This function should not be modified, when the callback is needed,
 552:../../Drivers/STM32F7xx_HAL_Driver/Src/stm32f7xx_hal_i2c.c ****             the HAL_I2C_MspDeInit could be implemented in the user file
 553:../../Drivers/STM32F7xx_HAL_Driver/Src/stm32f7xx_hal_i2c.c ****    */
 554:../../Drivers/STM32F7xx_HAL_Driver/Src/stm32f7xx_hal_i2c.c **** }
 357              		.loc 1 554 0
 358 0008 0C37     		adds	r7, r7, #12
 359              	.LCFI19:
 360              		.cfi_def_cfa_offset 4
 361 000a BD46     		mov	sp, r7
 362              	.LCFI20:
 363              		.cfi_def_cfa_register 13
 364              		@ sp needed
 365 000c 5DF8047B 		ldr	r7, [sp], #4
ARM GAS  /tmp/cczIhzQ0.s 			page 17


 366              	.LCFI21:
 367              		.cfi_restore 7
 368              		.cfi_def_cfa_offset 0
 369 0010 7047     		bx	lr
 370              		.cfi_endproc
 371              	.LFE138:
 373 0012 00BF     		.section	.text.HAL_I2C_Master_Transmit,"ax",%progbits
 374              		.align	2
 375              		.global	HAL_I2C_Master_Transmit
 376              		.thumb
 377              		.thumb_func
 379              	HAL_I2C_Master_Transmit:
 380              	.LFB139:
 555:../../Drivers/STM32F7xx_HAL_Driver/Src/stm32f7xx_hal_i2c.c **** 
 556:../../Drivers/STM32F7xx_HAL_Driver/Src/stm32f7xx_hal_i2c.c **** /**
 557:../../Drivers/STM32F7xx_HAL_Driver/Src/stm32f7xx_hal_i2c.c ****   * @}
 558:../../Drivers/STM32F7xx_HAL_Driver/Src/stm32f7xx_hal_i2c.c ****   */
 559:../../Drivers/STM32F7xx_HAL_Driver/Src/stm32f7xx_hal_i2c.c **** 
 560:../../Drivers/STM32F7xx_HAL_Driver/Src/stm32f7xx_hal_i2c.c **** /** @defgroup I2C_Exported_Functions_Group2 Input and Output operation functions
 561:../../Drivers/STM32F7xx_HAL_Driver/Src/stm32f7xx_hal_i2c.c ****  *  @brief   Data transfers functions 
 562:../../Drivers/STM32F7xx_HAL_Driver/Src/stm32f7xx_hal_i2c.c ****  *
 563:../../Drivers/STM32F7xx_HAL_Driver/Src/stm32f7xx_hal_i2c.c **** @verbatim
 564:../../Drivers/STM32F7xx_HAL_Driver/Src/stm32f7xx_hal_i2c.c ****  ===============================================================================
 565:../../Drivers/STM32F7xx_HAL_Driver/Src/stm32f7xx_hal_i2c.c ****                       ##### IO operation functions #####
 566:../../Drivers/STM32F7xx_HAL_Driver/Src/stm32f7xx_hal_i2c.c ****  ===============================================================================
 567:../../Drivers/STM32F7xx_HAL_Driver/Src/stm32f7xx_hal_i2c.c ****     [..]
 568:../../Drivers/STM32F7xx_HAL_Driver/Src/stm32f7xx_hal_i2c.c ****     This subsection provides a set of functions allowing to manage the I2C data
 569:../../Drivers/STM32F7xx_HAL_Driver/Src/stm32f7xx_hal_i2c.c ****     transfers.
 570:../../Drivers/STM32F7xx_HAL_Driver/Src/stm32f7xx_hal_i2c.c **** 
 571:../../Drivers/STM32F7xx_HAL_Driver/Src/stm32f7xx_hal_i2c.c ****     (#) There are two modes of transfer:
 572:../../Drivers/STM32F7xx_HAL_Driver/Src/stm32f7xx_hal_i2c.c ****        (++) Blocking mode : The communication is performed in the polling mode.
 573:../../Drivers/STM32F7xx_HAL_Driver/Src/stm32f7xx_hal_i2c.c ****             The status of all data processing is returned by the same function 
 574:../../Drivers/STM32F7xx_HAL_Driver/Src/stm32f7xx_hal_i2c.c ****             after finishing transfer.
 575:../../Drivers/STM32F7xx_HAL_Driver/Src/stm32f7xx_hal_i2c.c ****        (++) No-Blocking mode : The communication is performed using Interrupts
 576:../../Drivers/STM32F7xx_HAL_Driver/Src/stm32f7xx_hal_i2c.c ****             or DMA. These functions return the status of the transfer startup.
 577:../../Drivers/STM32F7xx_HAL_Driver/Src/stm32f7xx_hal_i2c.c ****             The end of the data processing will be indicated through the
 578:../../Drivers/STM32F7xx_HAL_Driver/Src/stm32f7xx_hal_i2c.c ****             dedicated I2C IRQ when using Interrupt mode or the DMA IRQ when
 579:../../Drivers/STM32F7xx_HAL_Driver/Src/stm32f7xx_hal_i2c.c ****             using DMA mode.
 580:../../Drivers/STM32F7xx_HAL_Driver/Src/stm32f7xx_hal_i2c.c **** 
 581:../../Drivers/STM32F7xx_HAL_Driver/Src/stm32f7xx_hal_i2c.c ****     (#) Blocking mode functions are :
 582:../../Drivers/STM32F7xx_HAL_Driver/Src/stm32f7xx_hal_i2c.c ****         (++) HAL_I2C_Master_Transmit()
 583:../../Drivers/STM32F7xx_HAL_Driver/Src/stm32f7xx_hal_i2c.c ****         (++) HAL_I2C_Master_Receive()
 584:../../Drivers/STM32F7xx_HAL_Driver/Src/stm32f7xx_hal_i2c.c ****         (++) HAL_I2C_Slave_Transmit()
 585:../../Drivers/STM32F7xx_HAL_Driver/Src/stm32f7xx_hal_i2c.c ****         (++) HAL_I2C_Slave_Receive()
 586:../../Drivers/STM32F7xx_HAL_Driver/Src/stm32f7xx_hal_i2c.c ****         (++) HAL_I2C_Mem_Write()
 587:../../Drivers/STM32F7xx_HAL_Driver/Src/stm32f7xx_hal_i2c.c ****         (++) HAL_I2C_Mem_Read()
 588:../../Drivers/STM32F7xx_HAL_Driver/Src/stm32f7xx_hal_i2c.c ****         (++) HAL_I2C_IsDeviceReady()
 589:../../Drivers/STM32F7xx_HAL_Driver/Src/stm32f7xx_hal_i2c.c **** 
 590:../../Drivers/STM32F7xx_HAL_Driver/Src/stm32f7xx_hal_i2c.c ****     (#) No-Blocking mode functions with Interrupt are :
 591:../../Drivers/STM32F7xx_HAL_Driver/Src/stm32f7xx_hal_i2c.c ****         (++) HAL_I2C_Master_Transmit_IT()
 592:../../Drivers/STM32F7xx_HAL_Driver/Src/stm32f7xx_hal_i2c.c ****         (++) HAL_I2C_Master_Receive_IT()
 593:../../Drivers/STM32F7xx_HAL_Driver/Src/stm32f7xx_hal_i2c.c ****         (++) HAL_I2C_Slave_Transmit_IT()
 594:../../Drivers/STM32F7xx_HAL_Driver/Src/stm32f7xx_hal_i2c.c ****         (++) HAL_I2C_Slave_Receive_IT()
 595:../../Drivers/STM32F7xx_HAL_Driver/Src/stm32f7xx_hal_i2c.c ****         (++) HAL_I2C_Mem_Write_IT()
 596:../../Drivers/STM32F7xx_HAL_Driver/Src/stm32f7xx_hal_i2c.c ****         (++) HAL_I2C_Mem_Read_IT()
 597:../../Drivers/STM32F7xx_HAL_Driver/Src/stm32f7xx_hal_i2c.c **** 
 598:../../Drivers/STM32F7xx_HAL_Driver/Src/stm32f7xx_hal_i2c.c ****     (#) No-Blocking mode functions with DMA are :
ARM GAS  /tmp/cczIhzQ0.s 			page 18


 599:../../Drivers/STM32F7xx_HAL_Driver/Src/stm32f7xx_hal_i2c.c ****         (++) HAL_I2C_Master_Transmit_DMA()
 600:../../Drivers/STM32F7xx_HAL_Driver/Src/stm32f7xx_hal_i2c.c ****         (++) HAL_I2C_Master_Receive_DMA()
 601:../../Drivers/STM32F7xx_HAL_Driver/Src/stm32f7xx_hal_i2c.c ****         (++) HAL_I2C_Slave_Transmit_DMA()
 602:../../Drivers/STM32F7xx_HAL_Driver/Src/stm32f7xx_hal_i2c.c ****         (++) HAL_I2C_Slave_Receive_DMA()
 603:../../Drivers/STM32F7xx_HAL_Driver/Src/stm32f7xx_hal_i2c.c ****         (++) HAL_I2C_Mem_Write_DMA()
 604:../../Drivers/STM32F7xx_HAL_Driver/Src/stm32f7xx_hal_i2c.c ****         (++) HAL_I2C_Mem_Read_DMA()
 605:../../Drivers/STM32F7xx_HAL_Driver/Src/stm32f7xx_hal_i2c.c **** 
 606:../../Drivers/STM32F7xx_HAL_Driver/Src/stm32f7xx_hal_i2c.c ****     (#) A set of Transfer Complete Callbacks are provided in non Blocking mode:
 607:../../Drivers/STM32F7xx_HAL_Driver/Src/stm32f7xx_hal_i2c.c ****         (++) HAL_I2C_MemTxCpltCallback()
 608:../../Drivers/STM32F7xx_HAL_Driver/Src/stm32f7xx_hal_i2c.c ****         (++) HAL_I2C_MemRxCpltCallback()
 609:../../Drivers/STM32F7xx_HAL_Driver/Src/stm32f7xx_hal_i2c.c ****         (++) HAL_I2C_MasterTxCpltCallback()
 610:../../Drivers/STM32F7xx_HAL_Driver/Src/stm32f7xx_hal_i2c.c ****         (++) HAL_I2C_MasterRxCpltCallback()
 611:../../Drivers/STM32F7xx_HAL_Driver/Src/stm32f7xx_hal_i2c.c ****         (++) HAL_I2C_SlaveTxCpltCallback()
 612:../../Drivers/STM32F7xx_HAL_Driver/Src/stm32f7xx_hal_i2c.c ****         (++) HAL_I2C_SlaveRxCpltCallback()
 613:../../Drivers/STM32F7xx_HAL_Driver/Src/stm32f7xx_hal_i2c.c ****         (++) HAL_I2C_ErrorCallback()
 614:../../Drivers/STM32F7xx_HAL_Driver/Src/stm32f7xx_hal_i2c.c **** 
 615:../../Drivers/STM32F7xx_HAL_Driver/Src/stm32f7xx_hal_i2c.c **** @endverbatim
 616:../../Drivers/STM32F7xx_HAL_Driver/Src/stm32f7xx_hal_i2c.c ****   * @{
 617:../../Drivers/STM32F7xx_HAL_Driver/Src/stm32f7xx_hal_i2c.c ****   */
 618:../../Drivers/STM32F7xx_HAL_Driver/Src/stm32f7xx_hal_i2c.c **** 
 619:../../Drivers/STM32F7xx_HAL_Driver/Src/stm32f7xx_hal_i2c.c **** /**
 620:../../Drivers/STM32F7xx_HAL_Driver/Src/stm32f7xx_hal_i2c.c ****   * @brief  Transmits in master mode an amount of data in blocking mode.
 621:../../Drivers/STM32F7xx_HAL_Driver/Src/stm32f7xx_hal_i2c.c ****   * @param  hi2c: Pointer to a I2C_HandleTypeDef structure that contains
 622:../../Drivers/STM32F7xx_HAL_Driver/Src/stm32f7xx_hal_i2c.c ****   *               the configuration information for the specified I2C.
 623:../../Drivers/STM32F7xx_HAL_Driver/Src/stm32f7xx_hal_i2c.c ****   * @param  DevAddress: Target device address. The device 7 bits address value
 624:../../Drivers/STM32F7xx_HAL_Driver/Src/stm32f7xx_hal_i2c.c ****   *         in datasheet must be shift at right before call interface
 625:../../Drivers/STM32F7xx_HAL_Driver/Src/stm32f7xx_hal_i2c.c ****   * @param  pData: Pointer to data buffer
 626:../../Drivers/STM32F7xx_HAL_Driver/Src/stm32f7xx_hal_i2c.c ****   * @param  Size: Amount of data to be sent
 627:../../Drivers/STM32F7xx_HAL_Driver/Src/stm32f7xx_hal_i2c.c ****   * @param  Timeout: Timeout duration
 628:../../Drivers/STM32F7xx_HAL_Driver/Src/stm32f7xx_hal_i2c.c ****   * @retval HAL status
 629:../../Drivers/STM32F7xx_HAL_Driver/Src/stm32f7xx_hal_i2c.c ****   */
 630:../../Drivers/STM32F7xx_HAL_Driver/Src/stm32f7xx_hal_i2c.c **** HAL_StatusTypeDef HAL_I2C_Master_Transmit(I2C_HandleTypeDef *hi2c, uint16_t DevAddress, uint8_t *pD
 631:../../Drivers/STM32F7xx_HAL_Driver/Src/stm32f7xx_hal_i2c.c **** {
 381              		.loc 1 631 0
 382              		.cfi_startproc
 383              		@ args = 4, pretend = 0, frame = 24
 384              		@ frame_needed = 1, uses_anonymous_args = 0
 385 0000 80B5     		push	{r7, lr}
 386              	.LCFI22:
 387              		.cfi_def_cfa_offset 8
 388              		.cfi_offset 7, -8
 389              		.cfi_offset 14, -4
 390 0002 88B0     		sub	sp, sp, #32
 391              	.LCFI23:
 392              		.cfi_def_cfa_offset 40
 393 0004 02AF     		add	r7, sp, #8
 394              	.LCFI24:
 395              		.cfi_def_cfa 7, 32
 396 0006 F860     		str	r0, [r7, #12]
 397 0008 7A60     		str	r2, [r7, #4]
 398 000a 1A46     		mov	r2, r3
 399 000c 0B46     		mov	r3, r1	@ movhi
 400 000e 7B81     		strh	r3, [r7, #10]	@ movhi
 401 0010 1346     		mov	r3, r2	@ movhi
 402 0012 3B81     		strh	r3, [r7, #8]	@ movhi
 632:../../Drivers/STM32F7xx_HAL_Driver/Src/stm32f7xx_hal_i2c.c ****   uint32_t tickstart = 0;
 403              		.loc 1 632 0
ARM GAS  /tmp/cczIhzQ0.s 			page 19


 404 0014 0023     		movs	r3, #0
 405 0016 7B61     		str	r3, [r7, #20]
 633:../../Drivers/STM32F7xx_HAL_Driver/Src/stm32f7xx_hal_i2c.c ****   
 634:../../Drivers/STM32F7xx_HAL_Driver/Src/stm32f7xx_hal_i2c.c ****   if(hi2c->State == HAL_I2C_STATE_READY)
 406              		.loc 1 634 0
 407 0018 FB68     		ldr	r3, [r7, #12]
 408 001a 93F84130 		ldrb	r3, [r3, #65]
 409 001e DBB2     		uxtb	r3, r3
 410 0020 202B     		cmp	r3, #32
 411 0022 40F0E580 		bne	.L16
 635:../../Drivers/STM32F7xx_HAL_Driver/Src/stm32f7xx_hal_i2c.c ****   {
 636:../../Drivers/STM32F7xx_HAL_Driver/Src/stm32f7xx_hal_i2c.c ****     /* Process Locked */
 637:../../Drivers/STM32F7xx_HAL_Driver/Src/stm32f7xx_hal_i2c.c ****     __HAL_LOCK(hi2c);
 412              		.loc 1 637 0
 413 0026 FB68     		ldr	r3, [r7, #12]
 414 0028 93F84030 		ldrb	r3, [r3, #64]	@ zero_extendqisi2
 415 002c 012B     		cmp	r3, #1
 416 002e 01D1     		bne	.L17
 417              		.loc 1 637 0 is_stmt 0 discriminator 1
 418 0030 0223     		movs	r3, #2
 419 0032 DEE0     		b	.L18
 420              	.L17:
 421              		.loc 1 637 0 discriminator 2
 422 0034 FB68     		ldr	r3, [r7, #12]
 423 0036 0122     		movs	r2, #1
 424 0038 83F84020 		strb	r2, [r3, #64]
 638:../../Drivers/STM32F7xx_HAL_Driver/Src/stm32f7xx_hal_i2c.c ****     
 639:../../Drivers/STM32F7xx_HAL_Driver/Src/stm32f7xx_hal_i2c.c ****     /* Init tickstart for timeout management*/
 640:../../Drivers/STM32F7xx_HAL_Driver/Src/stm32f7xx_hal_i2c.c ****     tickstart = HAL_GetTick();
 425              		.loc 1 640 0 is_stmt 1 discriminator 2
 426 003c FFF7FEFF 		bl	HAL_GetTick
 427 0040 7861     		str	r0, [r7, #20]
 641:../../Drivers/STM32F7xx_HAL_Driver/Src/stm32f7xx_hal_i2c.c ****     
 642:../../Drivers/STM32F7xx_HAL_Driver/Src/stm32f7xx_hal_i2c.c ****     if(I2C_WaitOnFlagUntilTimeout(hi2c, I2C_FLAG_BUSY, SET, I2C_TIMEOUT_BUSY, tickstart) != HAL_OK)
 428              		.loc 1 642 0 discriminator 2
 429 0042 7B69     		ldr	r3, [r7, #20]
 430 0044 0093     		str	r3, [sp]
 431 0046 F868     		ldr	r0, [r7, #12]
 432 0048 4FF40041 		mov	r1, #32768
 433 004c 0122     		movs	r2, #1
 434 004e 1923     		movs	r3, #25
 435 0050 FFF7FEFF 		bl	I2C_WaitOnFlagUntilTimeout
 436 0054 0346     		mov	r3, r0
 437 0056 002B     		cmp	r3, #0
 438 0058 01D0     		beq	.L19
 643:../../Drivers/STM32F7xx_HAL_Driver/Src/stm32f7xx_hal_i2c.c ****     {
 644:../../Drivers/STM32F7xx_HAL_Driver/Src/stm32f7xx_hal_i2c.c ****       return HAL_TIMEOUT;
 439              		.loc 1 644 0
 440 005a 0323     		movs	r3, #3
 441 005c C9E0     		b	.L18
 442              	.L19:
 645:../../Drivers/STM32F7xx_HAL_Driver/Src/stm32f7xx_hal_i2c.c ****     }
 646:../../Drivers/STM32F7xx_HAL_Driver/Src/stm32f7xx_hal_i2c.c ****     
 647:../../Drivers/STM32F7xx_HAL_Driver/Src/stm32f7xx_hal_i2c.c ****     hi2c->State     = HAL_I2C_STATE_BUSY_TX;
 443              		.loc 1 647 0
 444 005e FB68     		ldr	r3, [r7, #12]
 445 0060 2122     		movs	r2, #33
ARM GAS  /tmp/cczIhzQ0.s 			page 20


 446 0062 83F84120 		strb	r2, [r3, #65]
 648:../../Drivers/STM32F7xx_HAL_Driver/Src/stm32f7xx_hal_i2c.c ****     hi2c->Mode      = HAL_I2C_MODE_MASTER;
 447              		.loc 1 648 0
 448 0066 FB68     		ldr	r3, [r7, #12]
 449 0068 1022     		movs	r2, #16
 450 006a 83F84220 		strb	r2, [r3, #66]
 649:../../Drivers/STM32F7xx_HAL_Driver/Src/stm32f7xx_hal_i2c.c ****     hi2c->ErrorCode = HAL_I2C_ERROR_NONE;
 451              		.loc 1 649 0
 452 006e FB68     		ldr	r3, [r7, #12]
 453 0070 0022     		movs	r2, #0
 454 0072 5A64     		str	r2, [r3, #68]
 650:../../Drivers/STM32F7xx_HAL_Driver/Src/stm32f7xx_hal_i2c.c ****     
 651:../../Drivers/STM32F7xx_HAL_Driver/Src/stm32f7xx_hal_i2c.c ****     /* Prepare transfer parameters */
 652:../../Drivers/STM32F7xx_HAL_Driver/Src/stm32f7xx_hal_i2c.c ****     hi2c->pBuffPtr  = pData;
 455              		.loc 1 652 0
 456 0074 FB68     		ldr	r3, [r7, #12]
 457 0076 7A68     		ldr	r2, [r7, #4]
 458 0078 5A62     		str	r2, [r3, #36]
 653:../../Drivers/STM32F7xx_HAL_Driver/Src/stm32f7xx_hal_i2c.c ****     hi2c->XferCount = Size;
 459              		.loc 1 653 0
 460 007a FB68     		ldr	r3, [r7, #12]
 461 007c 3A89     		ldrh	r2, [r7, #8]	@ movhi
 462 007e 5A85     		strh	r2, [r3, #42]	@ movhi
 654:../../Drivers/STM32F7xx_HAL_Driver/Src/stm32f7xx_hal_i2c.c ****     hi2c->XferISR   = NULL;
 463              		.loc 1 654 0
 464 0080 FB68     		ldr	r3, [r7, #12]
 465 0082 0022     		movs	r2, #0
 466 0084 5A63     		str	r2, [r3, #52]
 655:../../Drivers/STM32F7xx_HAL_Driver/Src/stm32f7xx_hal_i2c.c ****     
 656:../../Drivers/STM32F7xx_HAL_Driver/Src/stm32f7xx_hal_i2c.c ****     /* Send Slave Address */
 657:../../Drivers/STM32F7xx_HAL_Driver/Src/stm32f7xx_hal_i2c.c ****     /* Set NBYTES to write and reload if hi2c->XferCount > MAX_NBYTE_SIZE and generate RESTART */
 658:../../Drivers/STM32F7xx_HAL_Driver/Src/stm32f7xx_hal_i2c.c ****     if(hi2c->XferCount > MAX_NBYTE_SIZE)
 467              		.loc 1 658 0
 468 0086 FB68     		ldr	r3, [r7, #12]
 469 0088 5B8D     		ldrh	r3, [r3, #42]	@ movhi
 470 008a 9BB2     		uxth	r3, r3
 471 008c FF2B     		cmp	r3, #255
 472 008e 0FD9     		bls	.L20
 659:../../Drivers/STM32F7xx_HAL_Driver/Src/stm32f7xx_hal_i2c.c ****     {
 660:../../Drivers/STM32F7xx_HAL_Driver/Src/stm32f7xx_hal_i2c.c ****       hi2c->XferSize = MAX_NBYTE_SIZE;
 473              		.loc 1 660 0
 474 0090 FB68     		ldr	r3, [r7, #12]
 475 0092 FF22     		movs	r2, #255
 476 0094 1A85     		strh	r2, [r3, #40]	@ movhi
 661:../../Drivers/STM32F7xx_HAL_Driver/Src/stm32f7xx_hal_i2c.c ****       I2C_TransferConfig(hi2c, DevAddress, hi2c->XferSize, I2C_RELOAD_MODE, I2C_GENERATE_START_WRIT
 477              		.loc 1 661 0
 478 0096 FB68     		ldr	r3, [r7, #12]
 479 0098 1B8D     		ldrh	r3, [r3, #40]
 480 009a DAB2     		uxtb	r2, r3
 481 009c 7989     		ldrh	r1, [r7, #10]
 482 009e 4FF40053 		mov	r3, #8192
 483 00a2 0093     		str	r3, [sp]
 484 00a4 F868     		ldr	r0, [r7, #12]
 485 00a6 4FF08073 		mov	r3, #16777216
 486 00aa FFF7FEFF 		bl	I2C_TransferConfig
 487 00ae 10E0     		b	.L21
 488              	.L20:
ARM GAS  /tmp/cczIhzQ0.s 			page 21


 662:../../Drivers/STM32F7xx_HAL_Driver/Src/stm32f7xx_hal_i2c.c ****     }
 663:../../Drivers/STM32F7xx_HAL_Driver/Src/stm32f7xx_hal_i2c.c ****     else
 664:../../Drivers/STM32F7xx_HAL_Driver/Src/stm32f7xx_hal_i2c.c ****     {
 665:../../Drivers/STM32F7xx_HAL_Driver/Src/stm32f7xx_hal_i2c.c ****       hi2c->XferSize = hi2c->XferCount;
 489              		.loc 1 665 0
 490 00b0 FB68     		ldr	r3, [r7, #12]
 491 00b2 5B8D     		ldrh	r3, [r3, #42]	@ movhi
 492 00b4 9AB2     		uxth	r2, r3
 493 00b6 FB68     		ldr	r3, [r7, #12]
 494 00b8 1A85     		strh	r2, [r3, #40]	@ movhi
 666:../../Drivers/STM32F7xx_HAL_Driver/Src/stm32f7xx_hal_i2c.c ****       I2C_TransferConfig(hi2c, DevAddress, hi2c->XferSize, I2C_AUTOEND_MODE, I2C_GENERATE_START_WRI
 495              		.loc 1 666 0
 496 00ba FB68     		ldr	r3, [r7, #12]
 497 00bc 1B8D     		ldrh	r3, [r3, #40]
 498 00be DAB2     		uxtb	r2, r3
 499 00c0 7989     		ldrh	r1, [r7, #10]
 500 00c2 4FF40053 		mov	r3, #8192
 501 00c6 0093     		str	r3, [sp]
 502 00c8 F868     		ldr	r0, [r7, #12]
 503 00ca 4FF00073 		mov	r3, #33554432
 504 00ce FFF7FEFF 		bl	I2C_TransferConfig
 505              	.L21:
 667:../../Drivers/STM32F7xx_HAL_Driver/Src/stm32f7xx_hal_i2c.c ****     }
 668:../../Drivers/STM32F7xx_HAL_Driver/Src/stm32f7xx_hal_i2c.c ****     
 669:../../Drivers/STM32F7xx_HAL_Driver/Src/stm32f7xx_hal_i2c.c ****     while(hi2c->XferSize > 0)
 506              		.loc 1 669 0
 507 00d2 5FE0     		b	.L22
 508              	.L27:
 670:../../Drivers/STM32F7xx_HAL_Driver/Src/stm32f7xx_hal_i2c.c ****     {
 671:../../Drivers/STM32F7xx_HAL_Driver/Src/stm32f7xx_hal_i2c.c ****       /* Wait until TXIS flag is set */
 672:../../Drivers/STM32F7xx_HAL_Driver/Src/stm32f7xx_hal_i2c.c ****       if(I2C_WaitOnTXISFlagUntilTimeout(hi2c, Timeout, tickstart) != HAL_OK)
 509              		.loc 1 672 0
 510 00d4 F868     		ldr	r0, [r7, #12]
 511 00d6 396A     		ldr	r1, [r7, #32]
 512 00d8 7A69     		ldr	r2, [r7, #20]
 513 00da FFF7FEFF 		bl	I2C_WaitOnTXISFlagUntilTimeout
 514 00de 0346     		mov	r3, r0
 515 00e0 002B     		cmp	r3, #0
 516 00e2 07D0     		beq	.L23
 673:../../Drivers/STM32F7xx_HAL_Driver/Src/stm32f7xx_hal_i2c.c ****       {
 674:../../Drivers/STM32F7xx_HAL_Driver/Src/stm32f7xx_hal_i2c.c ****         if(hi2c->ErrorCode == HAL_I2C_ERROR_AF)
 517              		.loc 1 674 0
 518 00e4 FB68     		ldr	r3, [r7, #12]
 519 00e6 5B6C     		ldr	r3, [r3, #68]
 520 00e8 042B     		cmp	r3, #4
 521 00ea 01D1     		bne	.L24
 675:../../Drivers/STM32F7xx_HAL_Driver/Src/stm32f7xx_hal_i2c.c ****         {
 676:../../Drivers/STM32F7xx_HAL_Driver/Src/stm32f7xx_hal_i2c.c ****           return HAL_ERROR;
 522              		.loc 1 676 0
 523 00ec 0123     		movs	r3, #1
 524 00ee 80E0     		b	.L18
 525              	.L24:
 677:../../Drivers/STM32F7xx_HAL_Driver/Src/stm32f7xx_hal_i2c.c ****         }
 678:../../Drivers/STM32F7xx_HAL_Driver/Src/stm32f7xx_hal_i2c.c ****         else
 679:../../Drivers/STM32F7xx_HAL_Driver/Src/stm32f7xx_hal_i2c.c ****         {
 680:../../Drivers/STM32F7xx_HAL_Driver/Src/stm32f7xx_hal_i2c.c ****           return HAL_TIMEOUT;
 526              		.loc 1 680 0
ARM GAS  /tmp/cczIhzQ0.s 			page 22


 527 00f0 0323     		movs	r3, #3
 528 00f2 7EE0     		b	.L18
 529              	.L23:
 681:../../Drivers/STM32F7xx_HAL_Driver/Src/stm32f7xx_hal_i2c.c ****         }
 682:../../Drivers/STM32F7xx_HAL_Driver/Src/stm32f7xx_hal_i2c.c ****       }
 683:../../Drivers/STM32F7xx_HAL_Driver/Src/stm32f7xx_hal_i2c.c ****       /* Write data to TXDR */
 684:../../Drivers/STM32F7xx_HAL_Driver/Src/stm32f7xx_hal_i2c.c ****       hi2c->Instance->TXDR = (*hi2c->pBuffPtr++);
 530              		.loc 1 684 0
 531 00f4 FB68     		ldr	r3, [r7, #12]
 532 00f6 1A68     		ldr	r2, [r3]
 533 00f8 FB68     		ldr	r3, [r7, #12]
 534 00fa 5B6A     		ldr	r3, [r3, #36]
 535 00fc 581C     		adds	r0, r3, #1
 536 00fe F968     		ldr	r1, [r7, #12]
 537 0100 4862     		str	r0, [r1, #36]
 538 0102 1B78     		ldrb	r3, [r3]	@ zero_extendqisi2
 539 0104 9362     		str	r3, [r2, #40]
 685:../../Drivers/STM32F7xx_HAL_Driver/Src/stm32f7xx_hal_i2c.c ****       hi2c->XferCount--;
 540              		.loc 1 685 0
 541 0106 FB68     		ldr	r3, [r7, #12]
 542 0108 5B8D     		ldrh	r3, [r3, #42]	@ movhi
 543 010a 9BB2     		uxth	r3, r3
 544 010c 013B     		subs	r3, r3, #1
 545 010e 9AB2     		uxth	r2, r3
 546 0110 FB68     		ldr	r3, [r7, #12]
 547 0112 5A85     		strh	r2, [r3, #42]	@ movhi
 686:../../Drivers/STM32F7xx_HAL_Driver/Src/stm32f7xx_hal_i2c.c ****       hi2c->XferSize--;
 548              		.loc 1 686 0
 549 0114 FB68     		ldr	r3, [r7, #12]
 550 0116 1B8D     		ldrh	r3, [r3, #40]
 551 0118 013B     		subs	r3, r3, #1
 552 011a 9AB2     		uxth	r2, r3
 553 011c FB68     		ldr	r3, [r7, #12]
 554 011e 1A85     		strh	r2, [r3, #40]	@ movhi
 687:../../Drivers/STM32F7xx_HAL_Driver/Src/stm32f7xx_hal_i2c.c ****       
 688:../../Drivers/STM32F7xx_HAL_Driver/Src/stm32f7xx_hal_i2c.c ****       if((hi2c->XferSize == 0) && (hi2c->XferCount!=0))
 555              		.loc 1 688 0
 556 0120 FB68     		ldr	r3, [r7, #12]
 557 0122 1B8D     		ldrh	r3, [r3, #40]
 558 0124 002B     		cmp	r3, #0
 559 0126 35D1     		bne	.L22
 560              		.loc 1 688 0 is_stmt 0 discriminator 1
 561 0128 FB68     		ldr	r3, [r7, #12]
 562 012a 5B8D     		ldrh	r3, [r3, #42]	@ movhi
 563 012c 9BB2     		uxth	r3, r3
 564 012e 002B     		cmp	r3, #0
 565 0130 30D0     		beq	.L22
 689:../../Drivers/STM32F7xx_HAL_Driver/Src/stm32f7xx_hal_i2c.c ****       {
 690:../../Drivers/STM32F7xx_HAL_Driver/Src/stm32f7xx_hal_i2c.c ****         /* Wait until TCR flag is set */
 691:../../Drivers/STM32F7xx_HAL_Driver/Src/stm32f7xx_hal_i2c.c ****         if(I2C_WaitOnFlagUntilTimeout(hi2c, I2C_FLAG_TCR, RESET, Timeout, tickstart) != HAL_OK)
 566              		.loc 1 691 0 is_stmt 1
 567 0132 7B69     		ldr	r3, [r7, #20]
 568 0134 0093     		str	r3, [sp]
 569 0136 F868     		ldr	r0, [r7, #12]
 570 0138 8021     		movs	r1, #128
 571 013a 0022     		movs	r2, #0
 572 013c 3B6A     		ldr	r3, [r7, #32]
ARM GAS  /tmp/cczIhzQ0.s 			page 23


 573 013e FFF7FEFF 		bl	I2C_WaitOnFlagUntilTimeout
 574 0142 0346     		mov	r3, r0
 575 0144 002B     		cmp	r3, #0
 576 0146 01D0     		beq	.L25
 692:../../Drivers/STM32F7xx_HAL_Driver/Src/stm32f7xx_hal_i2c.c ****         {
 693:../../Drivers/STM32F7xx_HAL_Driver/Src/stm32f7xx_hal_i2c.c ****           return HAL_TIMEOUT;
 577              		.loc 1 693 0
 578 0148 0323     		movs	r3, #3
 579 014a 52E0     		b	.L18
 580              	.L25:
 694:../../Drivers/STM32F7xx_HAL_Driver/Src/stm32f7xx_hal_i2c.c ****         }
 695:../../Drivers/STM32F7xx_HAL_Driver/Src/stm32f7xx_hal_i2c.c ****         
 696:../../Drivers/STM32F7xx_HAL_Driver/Src/stm32f7xx_hal_i2c.c ****         if(hi2c->XferCount > MAX_NBYTE_SIZE)
 581              		.loc 1 696 0
 582 014c FB68     		ldr	r3, [r7, #12]
 583 014e 5B8D     		ldrh	r3, [r3, #42]	@ movhi
 584 0150 9BB2     		uxth	r3, r3
 585 0152 FF2B     		cmp	r3, #255
 586 0154 0ED9     		bls	.L26
 697:../../Drivers/STM32F7xx_HAL_Driver/Src/stm32f7xx_hal_i2c.c ****         {
 698:../../Drivers/STM32F7xx_HAL_Driver/Src/stm32f7xx_hal_i2c.c ****           hi2c->XferSize = MAX_NBYTE_SIZE;
 587              		.loc 1 698 0
 588 0156 FB68     		ldr	r3, [r7, #12]
 589 0158 FF22     		movs	r2, #255
 590 015a 1A85     		strh	r2, [r3, #40]	@ movhi
 699:../../Drivers/STM32F7xx_HAL_Driver/Src/stm32f7xx_hal_i2c.c ****           I2C_TransferConfig(hi2c, DevAddress, hi2c->XferSize, I2C_RELOAD_MODE, I2C_NO_STARTSTOP);
 591              		.loc 1 699 0
 592 015c FB68     		ldr	r3, [r7, #12]
 593 015e 1B8D     		ldrh	r3, [r3, #40]
 594 0160 DAB2     		uxtb	r2, r3
 595 0162 7989     		ldrh	r1, [r7, #10]
 596 0164 0023     		movs	r3, #0
 597 0166 0093     		str	r3, [sp]
 598 0168 F868     		ldr	r0, [r7, #12]
 599 016a 4FF08073 		mov	r3, #16777216
 600 016e FFF7FEFF 		bl	I2C_TransferConfig
 601 0172 0FE0     		b	.L22
 602              	.L26:
 700:../../Drivers/STM32F7xx_HAL_Driver/Src/stm32f7xx_hal_i2c.c ****         }
 701:../../Drivers/STM32F7xx_HAL_Driver/Src/stm32f7xx_hal_i2c.c ****         else
 702:../../Drivers/STM32F7xx_HAL_Driver/Src/stm32f7xx_hal_i2c.c ****         {
 703:../../Drivers/STM32F7xx_HAL_Driver/Src/stm32f7xx_hal_i2c.c ****           hi2c->XferSize = hi2c->XferCount;
 603              		.loc 1 703 0
 604 0174 FB68     		ldr	r3, [r7, #12]
 605 0176 5B8D     		ldrh	r3, [r3, #42]	@ movhi
 606 0178 9AB2     		uxth	r2, r3
 607 017a FB68     		ldr	r3, [r7, #12]
 608 017c 1A85     		strh	r2, [r3, #40]	@ movhi
 704:../../Drivers/STM32F7xx_HAL_Driver/Src/stm32f7xx_hal_i2c.c ****           I2C_TransferConfig(hi2c, DevAddress, hi2c->XferSize, I2C_AUTOEND_MODE, I2C_NO_STARTSTOP);
 609              		.loc 1 704 0
 610 017e FB68     		ldr	r3, [r7, #12]
 611 0180 1B8D     		ldrh	r3, [r3, #40]
 612 0182 DAB2     		uxtb	r2, r3
 613 0184 7989     		ldrh	r1, [r7, #10]
 614 0186 0023     		movs	r3, #0
 615 0188 0093     		str	r3, [sp]
 616 018a F868     		ldr	r0, [r7, #12]
ARM GAS  /tmp/cczIhzQ0.s 			page 24


 617 018c 4FF00073 		mov	r3, #33554432
 618 0190 FFF7FEFF 		bl	I2C_TransferConfig
 619              	.L22:
 669:../../Drivers/STM32F7xx_HAL_Driver/Src/stm32f7xx_hal_i2c.c ****     {
 620              		.loc 1 669 0
 621 0194 FB68     		ldr	r3, [r7, #12]
 622 0196 1B8D     		ldrh	r3, [r3, #40]
 623 0198 002B     		cmp	r3, #0
 624 019a 9BD1     		bne	.L27
 705:../../Drivers/STM32F7xx_HAL_Driver/Src/stm32f7xx_hal_i2c.c ****         }
 706:../../Drivers/STM32F7xx_HAL_Driver/Src/stm32f7xx_hal_i2c.c ****       }
 707:../../Drivers/STM32F7xx_HAL_Driver/Src/stm32f7xx_hal_i2c.c ****     }
 708:../../Drivers/STM32F7xx_HAL_Driver/Src/stm32f7xx_hal_i2c.c ****     
 709:../../Drivers/STM32F7xx_HAL_Driver/Src/stm32f7xx_hal_i2c.c ****     /* No need to Check TC flag, with AUTOEND mode the stop is automatically generated */
 710:../../Drivers/STM32F7xx_HAL_Driver/Src/stm32f7xx_hal_i2c.c ****     /* Wait until STOPF flag is set */
 711:../../Drivers/STM32F7xx_HAL_Driver/Src/stm32f7xx_hal_i2c.c ****     if(I2C_WaitOnSTOPFlagUntilTimeout(hi2c, Timeout, tickstart) != HAL_OK)
 625              		.loc 1 711 0
 626 019c F868     		ldr	r0, [r7, #12]
 627 019e 396A     		ldr	r1, [r7, #32]
 628 01a0 7A69     		ldr	r2, [r7, #20]
 629 01a2 FFF7FEFF 		bl	I2C_WaitOnSTOPFlagUntilTimeout
 630 01a6 0346     		mov	r3, r0
 631 01a8 002B     		cmp	r3, #0
 632 01aa 07D0     		beq	.L28
 712:../../Drivers/STM32F7xx_HAL_Driver/Src/stm32f7xx_hal_i2c.c ****     {
 713:../../Drivers/STM32F7xx_HAL_Driver/Src/stm32f7xx_hal_i2c.c ****       if(hi2c->ErrorCode == HAL_I2C_ERROR_AF)
 633              		.loc 1 713 0
 634 01ac FB68     		ldr	r3, [r7, #12]
 635 01ae 5B6C     		ldr	r3, [r3, #68]
 636 01b0 042B     		cmp	r3, #4
 637 01b2 01D1     		bne	.L29
 714:../../Drivers/STM32F7xx_HAL_Driver/Src/stm32f7xx_hal_i2c.c ****       {
 715:../../Drivers/STM32F7xx_HAL_Driver/Src/stm32f7xx_hal_i2c.c ****         return HAL_ERROR;
 638              		.loc 1 715 0
 639 01b4 0123     		movs	r3, #1
 640 01b6 1CE0     		b	.L18
 641              	.L29:
 716:../../Drivers/STM32F7xx_HAL_Driver/Src/stm32f7xx_hal_i2c.c ****       }
 717:../../Drivers/STM32F7xx_HAL_Driver/Src/stm32f7xx_hal_i2c.c ****       else
 718:../../Drivers/STM32F7xx_HAL_Driver/Src/stm32f7xx_hal_i2c.c ****       {
 719:../../Drivers/STM32F7xx_HAL_Driver/Src/stm32f7xx_hal_i2c.c ****         return HAL_TIMEOUT;
 642              		.loc 1 719 0
 643 01b8 0323     		movs	r3, #3
 644 01ba 1AE0     		b	.L18
 645              	.L28:
 720:../../Drivers/STM32F7xx_HAL_Driver/Src/stm32f7xx_hal_i2c.c ****       }
 721:../../Drivers/STM32F7xx_HAL_Driver/Src/stm32f7xx_hal_i2c.c ****     }
 722:../../Drivers/STM32F7xx_HAL_Driver/Src/stm32f7xx_hal_i2c.c ****     
 723:../../Drivers/STM32F7xx_HAL_Driver/Src/stm32f7xx_hal_i2c.c ****     /* Clear STOP Flag */
 724:../../Drivers/STM32F7xx_HAL_Driver/Src/stm32f7xx_hal_i2c.c ****     __HAL_I2C_CLEAR_FLAG(hi2c, I2C_FLAG_STOPF);
 646              		.loc 1 724 0
 647 01bc FB68     		ldr	r3, [r7, #12]
 648 01be 1B68     		ldr	r3, [r3]
 649 01c0 2022     		movs	r2, #32
 650 01c2 DA61     		str	r2, [r3, #28]
 725:../../Drivers/STM32F7xx_HAL_Driver/Src/stm32f7xx_hal_i2c.c ****     
 726:../../Drivers/STM32F7xx_HAL_Driver/Src/stm32f7xx_hal_i2c.c ****     /* Clear Configuration Register 2 */
ARM GAS  /tmp/cczIhzQ0.s 			page 25


 727:../../Drivers/STM32F7xx_HAL_Driver/Src/stm32f7xx_hal_i2c.c ****     I2C_RESET_CR2(hi2c);
 651              		.loc 1 727 0
 652 01c4 FB68     		ldr	r3, [r7, #12]
 653 01c6 1A68     		ldr	r2, [r3]
 654 01c8 FB68     		ldr	r3, [r7, #12]
 655 01ca 1B68     		ldr	r3, [r3]
 656 01cc 5968     		ldr	r1, [r3, #4]
 657 01ce 0B4B     		ldr	r3, .L30
 658 01d0 0B40     		ands	r3, r3, r1
 659 01d2 5360     		str	r3, [r2, #4]
 728:../../Drivers/STM32F7xx_HAL_Driver/Src/stm32f7xx_hal_i2c.c ****     
 729:../../Drivers/STM32F7xx_HAL_Driver/Src/stm32f7xx_hal_i2c.c ****     hi2c->State = HAL_I2C_STATE_READY;
 660              		.loc 1 729 0
 661 01d4 FB68     		ldr	r3, [r7, #12]
 662 01d6 2022     		movs	r2, #32
 663 01d8 83F84120 		strb	r2, [r3, #65]
 730:../../Drivers/STM32F7xx_HAL_Driver/Src/stm32f7xx_hal_i2c.c ****     hi2c->Mode  = HAL_I2C_MODE_NONE;
 664              		.loc 1 730 0
 665 01dc FB68     		ldr	r3, [r7, #12]
 666 01de 0022     		movs	r2, #0
 667 01e0 83F84220 		strb	r2, [r3, #66]
 731:../../Drivers/STM32F7xx_HAL_Driver/Src/stm32f7xx_hal_i2c.c ****     
 732:../../Drivers/STM32F7xx_HAL_Driver/Src/stm32f7xx_hal_i2c.c ****     /* Process Unlocked */
 733:../../Drivers/STM32F7xx_HAL_Driver/Src/stm32f7xx_hal_i2c.c ****     __HAL_UNLOCK(hi2c);
 668              		.loc 1 733 0
 669 01e4 FB68     		ldr	r3, [r7, #12]
 670 01e6 0022     		movs	r2, #0
 671 01e8 83F84020 		strb	r2, [r3, #64]
 734:../../Drivers/STM32F7xx_HAL_Driver/Src/stm32f7xx_hal_i2c.c ****     
 735:../../Drivers/STM32F7xx_HAL_Driver/Src/stm32f7xx_hal_i2c.c ****     return HAL_OK;
 672              		.loc 1 735 0
 673 01ec 0023     		movs	r3, #0
 674 01ee 00E0     		b	.L18
 675              	.L16:
 736:../../Drivers/STM32F7xx_HAL_Driver/Src/stm32f7xx_hal_i2c.c ****   }
 737:../../Drivers/STM32F7xx_HAL_Driver/Src/stm32f7xx_hal_i2c.c ****   else
 738:../../Drivers/STM32F7xx_HAL_Driver/Src/stm32f7xx_hal_i2c.c ****   {
 739:../../Drivers/STM32F7xx_HAL_Driver/Src/stm32f7xx_hal_i2c.c ****     return HAL_BUSY;
 676              		.loc 1 739 0
 677 01f0 0223     		movs	r3, #2
 678              	.L18:
 740:../../Drivers/STM32F7xx_HAL_Driver/Src/stm32f7xx_hal_i2c.c ****   }
 741:../../Drivers/STM32F7xx_HAL_Driver/Src/stm32f7xx_hal_i2c.c **** }
 679              		.loc 1 741 0
 680 01f2 1846     		mov	r0, r3
 681 01f4 1837     		adds	r7, r7, #24
 682              	.LCFI25:
 683              		.cfi_def_cfa_offset 8
 684 01f6 BD46     		mov	sp, r7
 685              	.LCFI26:
 686              		.cfi_def_cfa_register 13
 687              		@ sp needed
 688 01f8 80BD     		pop	{r7, pc}
 689              	.L31:
 690 01fa 00BF     		.align	2
 691              	.L30:
 692 01fc 00E800FE 		.word	-33495040
ARM GAS  /tmp/cczIhzQ0.s 			page 26


 693              		.cfi_endproc
 694              	.LFE139:
 696              		.section	.text.HAL_I2C_Master_Receive,"ax",%progbits
 697              		.align	2
 698              		.global	HAL_I2C_Master_Receive
 699              		.thumb
 700              		.thumb_func
 702              	HAL_I2C_Master_Receive:
 703              	.LFB140:
 742:../../Drivers/STM32F7xx_HAL_Driver/Src/stm32f7xx_hal_i2c.c **** 
 743:../../Drivers/STM32F7xx_HAL_Driver/Src/stm32f7xx_hal_i2c.c **** /**
 744:../../Drivers/STM32F7xx_HAL_Driver/Src/stm32f7xx_hal_i2c.c ****   * @brief  Receives in master mode an amount of data in blocking mode.
 745:../../Drivers/STM32F7xx_HAL_Driver/Src/stm32f7xx_hal_i2c.c ****   * @param  hi2c: Pointer to a I2C_HandleTypeDef structure that contains
 746:../../Drivers/STM32F7xx_HAL_Driver/Src/stm32f7xx_hal_i2c.c ****   *               the configuration information for the specified I2C.
 747:../../Drivers/STM32F7xx_HAL_Driver/Src/stm32f7xx_hal_i2c.c ****   * @param  DevAddress: Target device address. The device 7 bits address value
 748:../../Drivers/STM32F7xx_HAL_Driver/Src/stm32f7xx_hal_i2c.c ****   *         in datasheet must be shift at right before call interface
 749:../../Drivers/STM32F7xx_HAL_Driver/Src/stm32f7xx_hal_i2c.c ****   * @param  pData: Pointer to data buffer
 750:../../Drivers/STM32F7xx_HAL_Driver/Src/stm32f7xx_hal_i2c.c ****   * @param  Size: Amount of data to be sent
 751:../../Drivers/STM32F7xx_HAL_Driver/Src/stm32f7xx_hal_i2c.c ****   * @param  Timeout: Timeout duration
 752:../../Drivers/STM32F7xx_HAL_Driver/Src/stm32f7xx_hal_i2c.c ****   * @retval HAL status
 753:../../Drivers/STM32F7xx_HAL_Driver/Src/stm32f7xx_hal_i2c.c ****   */
 754:../../Drivers/STM32F7xx_HAL_Driver/Src/stm32f7xx_hal_i2c.c **** HAL_StatusTypeDef HAL_I2C_Master_Receive(I2C_HandleTypeDef *hi2c, uint16_t DevAddress, uint8_t *pDa
 755:../../Drivers/STM32F7xx_HAL_Driver/Src/stm32f7xx_hal_i2c.c **** {
 704              		.loc 1 755 0
 705              		.cfi_startproc
 706              		@ args = 4, pretend = 0, frame = 24
 707              		@ frame_needed = 1, uses_anonymous_args = 0
 708 0000 80B5     		push	{r7, lr}
 709              	.LCFI27:
 710              		.cfi_def_cfa_offset 8
 711              		.cfi_offset 7, -8
 712              		.cfi_offset 14, -4
 713 0002 88B0     		sub	sp, sp, #32
 714              	.LCFI28:
 715              		.cfi_def_cfa_offset 40
 716 0004 02AF     		add	r7, sp, #8
 717              	.LCFI29:
 718              		.cfi_def_cfa 7, 32
 719 0006 F860     		str	r0, [r7, #12]
 720 0008 7A60     		str	r2, [r7, #4]
 721 000a 1A46     		mov	r2, r3
 722 000c 0B46     		mov	r3, r1	@ movhi
 723 000e 7B81     		strh	r3, [r7, #10]	@ movhi
 724 0010 1346     		mov	r3, r2	@ movhi
 725 0012 3B81     		strh	r3, [r7, #8]	@ movhi
 756:../../Drivers/STM32F7xx_HAL_Driver/Src/stm32f7xx_hal_i2c.c ****   uint32_t tickstart = 0;
 726              		.loc 1 756 0
 727 0014 0023     		movs	r3, #0
 728 0016 7B61     		str	r3, [r7, #20]
 757:../../Drivers/STM32F7xx_HAL_Driver/Src/stm32f7xx_hal_i2c.c ****   
 758:../../Drivers/STM32F7xx_HAL_Driver/Src/stm32f7xx_hal_i2c.c ****   if(hi2c->State == HAL_I2C_STATE_READY)
 729              		.loc 1 758 0
 730 0018 FB68     		ldr	r3, [r7, #12]
 731 001a 93F84130 		ldrb	r3, [r3, #65]
 732 001e DBB2     		uxtb	r3, r3
 733 0020 202B     		cmp	r3, #32
 734 0022 40F0E680 		bne	.L33
ARM GAS  /tmp/cczIhzQ0.s 			page 27


 759:../../Drivers/STM32F7xx_HAL_Driver/Src/stm32f7xx_hal_i2c.c ****   {    
 760:../../Drivers/STM32F7xx_HAL_Driver/Src/stm32f7xx_hal_i2c.c ****     /* Process Locked */
 761:../../Drivers/STM32F7xx_HAL_Driver/Src/stm32f7xx_hal_i2c.c ****     __HAL_LOCK(hi2c);
 735              		.loc 1 761 0
 736 0026 FB68     		ldr	r3, [r7, #12]
 737 0028 93F84030 		ldrb	r3, [r3, #64]	@ zero_extendqisi2
 738 002c 012B     		cmp	r3, #1
 739 002e 01D1     		bne	.L34
 740              		.loc 1 761 0 is_stmt 0 discriminator 1
 741 0030 0223     		movs	r3, #2
 742 0032 DFE0     		b	.L35
 743              	.L34:
 744              		.loc 1 761 0 discriminator 2
 745 0034 FB68     		ldr	r3, [r7, #12]
 746 0036 0122     		movs	r2, #1
 747 0038 83F84020 		strb	r2, [r3, #64]
 762:../../Drivers/STM32F7xx_HAL_Driver/Src/stm32f7xx_hal_i2c.c ****     
 763:../../Drivers/STM32F7xx_HAL_Driver/Src/stm32f7xx_hal_i2c.c ****     /* Init tickstart for timeout management*/
 764:../../Drivers/STM32F7xx_HAL_Driver/Src/stm32f7xx_hal_i2c.c ****     tickstart = HAL_GetTick();
 748              		.loc 1 764 0 is_stmt 1 discriminator 2
 749 003c FFF7FEFF 		bl	HAL_GetTick
 750 0040 7861     		str	r0, [r7, #20]
 765:../../Drivers/STM32F7xx_HAL_Driver/Src/stm32f7xx_hal_i2c.c ****     
 766:../../Drivers/STM32F7xx_HAL_Driver/Src/stm32f7xx_hal_i2c.c ****     if(I2C_WaitOnFlagUntilTimeout(hi2c, I2C_FLAG_BUSY, SET, I2C_TIMEOUT_BUSY, tickstart) != HAL_OK)
 751              		.loc 1 766 0 discriminator 2
 752 0042 7B69     		ldr	r3, [r7, #20]
 753 0044 0093     		str	r3, [sp]
 754 0046 F868     		ldr	r0, [r7, #12]
 755 0048 4FF40041 		mov	r1, #32768
 756 004c 0122     		movs	r2, #1
 757 004e 1923     		movs	r3, #25
 758 0050 FFF7FEFF 		bl	I2C_WaitOnFlagUntilTimeout
 759 0054 0346     		mov	r3, r0
 760 0056 002B     		cmp	r3, #0
 761 0058 01D0     		beq	.L36
 767:../../Drivers/STM32F7xx_HAL_Driver/Src/stm32f7xx_hal_i2c.c ****     {
 768:../../Drivers/STM32F7xx_HAL_Driver/Src/stm32f7xx_hal_i2c.c ****       return HAL_TIMEOUT;
 762              		.loc 1 768 0
 763 005a 0323     		movs	r3, #3
 764 005c CAE0     		b	.L35
 765              	.L36:
 769:../../Drivers/STM32F7xx_HAL_Driver/Src/stm32f7xx_hal_i2c.c ****     }
 770:../../Drivers/STM32F7xx_HAL_Driver/Src/stm32f7xx_hal_i2c.c ****     
 771:../../Drivers/STM32F7xx_HAL_Driver/Src/stm32f7xx_hal_i2c.c ****     hi2c->State     = HAL_I2C_STATE_BUSY_RX;
 766              		.loc 1 771 0
 767 005e FB68     		ldr	r3, [r7, #12]
 768 0060 2222     		movs	r2, #34
 769 0062 83F84120 		strb	r2, [r3, #65]
 772:../../Drivers/STM32F7xx_HAL_Driver/Src/stm32f7xx_hal_i2c.c ****     hi2c->Mode      = HAL_I2C_MODE_MASTER;
 770              		.loc 1 772 0
 771 0066 FB68     		ldr	r3, [r7, #12]
 772 0068 1022     		movs	r2, #16
 773 006a 83F84220 		strb	r2, [r3, #66]
 773:../../Drivers/STM32F7xx_HAL_Driver/Src/stm32f7xx_hal_i2c.c ****     hi2c->ErrorCode = HAL_I2C_ERROR_NONE;
 774              		.loc 1 773 0
 775 006e FB68     		ldr	r3, [r7, #12]
 776 0070 0022     		movs	r2, #0
ARM GAS  /tmp/cczIhzQ0.s 			page 28


 777 0072 5A64     		str	r2, [r3, #68]
 774:../../Drivers/STM32F7xx_HAL_Driver/Src/stm32f7xx_hal_i2c.c ****     
 775:../../Drivers/STM32F7xx_HAL_Driver/Src/stm32f7xx_hal_i2c.c ****     /* Prepare transfer parameters */
 776:../../Drivers/STM32F7xx_HAL_Driver/Src/stm32f7xx_hal_i2c.c ****     hi2c->pBuffPtr  = pData;
 778              		.loc 1 776 0
 779 0074 FB68     		ldr	r3, [r7, #12]
 780 0076 7A68     		ldr	r2, [r7, #4]
 781 0078 5A62     		str	r2, [r3, #36]
 777:../../Drivers/STM32F7xx_HAL_Driver/Src/stm32f7xx_hal_i2c.c ****     hi2c->XferCount = Size;
 782              		.loc 1 777 0
 783 007a FB68     		ldr	r3, [r7, #12]
 784 007c 3A89     		ldrh	r2, [r7, #8]	@ movhi
 785 007e 5A85     		strh	r2, [r3, #42]	@ movhi
 778:../../Drivers/STM32F7xx_HAL_Driver/Src/stm32f7xx_hal_i2c.c ****     hi2c->XferISR   = NULL;
 786              		.loc 1 778 0
 787 0080 FB68     		ldr	r3, [r7, #12]
 788 0082 0022     		movs	r2, #0
 789 0084 5A63     		str	r2, [r3, #52]
 779:../../Drivers/STM32F7xx_HAL_Driver/Src/stm32f7xx_hal_i2c.c ****     
 780:../../Drivers/STM32F7xx_HAL_Driver/Src/stm32f7xx_hal_i2c.c ****     /* Send Slave Address */
 781:../../Drivers/STM32F7xx_HAL_Driver/Src/stm32f7xx_hal_i2c.c ****     /* Set NBYTES to write and reload if hi2c->XferCount > MAX_NBYTE_SIZE and generate RESTART */
 782:../../Drivers/STM32F7xx_HAL_Driver/Src/stm32f7xx_hal_i2c.c ****     if(hi2c->XferCount > MAX_NBYTE_SIZE)
 790              		.loc 1 782 0
 791 0086 FB68     		ldr	r3, [r7, #12]
 792 0088 5B8D     		ldrh	r3, [r3, #42]	@ movhi
 793 008a 9BB2     		uxth	r3, r3
 794 008c FF2B     		cmp	r3, #255
 795 008e 0FD9     		bls	.L37
 783:../../Drivers/STM32F7xx_HAL_Driver/Src/stm32f7xx_hal_i2c.c ****     {
 784:../../Drivers/STM32F7xx_HAL_Driver/Src/stm32f7xx_hal_i2c.c ****       hi2c->XferSize = MAX_NBYTE_SIZE;
 796              		.loc 1 784 0
 797 0090 FB68     		ldr	r3, [r7, #12]
 798 0092 FF22     		movs	r2, #255
 799 0094 1A85     		strh	r2, [r3, #40]	@ movhi
 785:../../Drivers/STM32F7xx_HAL_Driver/Src/stm32f7xx_hal_i2c.c ****       I2C_TransferConfig(hi2c, DevAddress, hi2c->XferSize, I2C_RELOAD_MODE, I2C_GENERATE_START_READ
 800              		.loc 1 785 0
 801 0096 FB68     		ldr	r3, [r7, #12]
 802 0098 1B8D     		ldrh	r3, [r3, #40]
 803 009a DAB2     		uxtb	r2, r3
 804 009c 7989     		ldrh	r1, [r7, #10]
 805 009e 4FF41053 		mov	r3, #9216
 806 00a2 0093     		str	r3, [sp]
 807 00a4 F868     		ldr	r0, [r7, #12]
 808 00a6 4FF08073 		mov	r3, #16777216
 809 00aa FFF7FEFF 		bl	I2C_TransferConfig
 810 00ae 10E0     		b	.L38
 811              	.L37:
 786:../../Drivers/STM32F7xx_HAL_Driver/Src/stm32f7xx_hal_i2c.c ****     }
 787:../../Drivers/STM32F7xx_HAL_Driver/Src/stm32f7xx_hal_i2c.c ****     else
 788:../../Drivers/STM32F7xx_HAL_Driver/Src/stm32f7xx_hal_i2c.c ****     {
 789:../../Drivers/STM32F7xx_HAL_Driver/Src/stm32f7xx_hal_i2c.c ****       hi2c->XferSize = hi2c->XferCount;
 812              		.loc 1 789 0
 813 00b0 FB68     		ldr	r3, [r7, #12]
 814 00b2 5B8D     		ldrh	r3, [r3, #42]	@ movhi
 815 00b4 9AB2     		uxth	r2, r3
 816 00b6 FB68     		ldr	r3, [r7, #12]
 817 00b8 1A85     		strh	r2, [r3, #40]	@ movhi
ARM GAS  /tmp/cczIhzQ0.s 			page 29


 790:../../Drivers/STM32F7xx_HAL_Driver/Src/stm32f7xx_hal_i2c.c ****       I2C_TransferConfig(hi2c, DevAddress, hi2c->XferSize, I2C_AUTOEND_MODE, I2C_GENERATE_START_REA
 818              		.loc 1 790 0
 819 00ba FB68     		ldr	r3, [r7, #12]
 820 00bc 1B8D     		ldrh	r3, [r3, #40]
 821 00be DAB2     		uxtb	r2, r3
 822 00c0 7989     		ldrh	r1, [r7, #10]
 823 00c2 4FF41053 		mov	r3, #9216
 824 00c6 0093     		str	r3, [sp]
 825 00c8 F868     		ldr	r0, [r7, #12]
 826 00ca 4FF00073 		mov	r3, #33554432
 827 00ce FFF7FEFF 		bl	I2C_TransferConfig
 828              	.L38:
 791:../../Drivers/STM32F7xx_HAL_Driver/Src/stm32f7xx_hal_i2c.c ****     }
 792:../../Drivers/STM32F7xx_HAL_Driver/Src/stm32f7xx_hal_i2c.c ****     
 793:../../Drivers/STM32F7xx_HAL_Driver/Src/stm32f7xx_hal_i2c.c ****     while(hi2c->XferSize > 0)
 829              		.loc 1 793 0
 830 00d2 60E0     		b	.L39
 831              	.L44:
 794:../../Drivers/STM32F7xx_HAL_Driver/Src/stm32f7xx_hal_i2c.c ****     {
 795:../../Drivers/STM32F7xx_HAL_Driver/Src/stm32f7xx_hal_i2c.c ****       /* Wait until RXNE flag is set */
 796:../../Drivers/STM32F7xx_HAL_Driver/Src/stm32f7xx_hal_i2c.c ****       if(I2C_WaitOnRXNEFlagUntilTimeout(hi2c, Timeout, tickstart) != HAL_OK)
 832              		.loc 1 796 0
 833 00d4 F868     		ldr	r0, [r7, #12]
 834 00d6 396A     		ldr	r1, [r7, #32]
 835 00d8 7A69     		ldr	r2, [r7, #20]
 836 00da FFF7FEFF 		bl	I2C_WaitOnRXNEFlagUntilTimeout
 837 00de 0346     		mov	r3, r0
 838 00e0 002B     		cmp	r3, #0
 839 00e2 07D0     		beq	.L40
 797:../../Drivers/STM32F7xx_HAL_Driver/Src/stm32f7xx_hal_i2c.c ****       {
 798:../../Drivers/STM32F7xx_HAL_Driver/Src/stm32f7xx_hal_i2c.c ****         if(hi2c->ErrorCode == HAL_I2C_ERROR_AF)
 840              		.loc 1 798 0
 841 00e4 FB68     		ldr	r3, [r7, #12]
 842 00e6 5B6C     		ldr	r3, [r3, #68]
 843 00e8 042B     		cmp	r3, #4
 844 00ea 01D1     		bne	.L41
 799:../../Drivers/STM32F7xx_HAL_Driver/Src/stm32f7xx_hal_i2c.c ****         {
 800:../../Drivers/STM32F7xx_HAL_Driver/Src/stm32f7xx_hal_i2c.c ****           return HAL_ERROR;
 845              		.loc 1 800 0
 846 00ec 0123     		movs	r3, #1
 847 00ee 81E0     		b	.L35
 848              	.L41:
 801:../../Drivers/STM32F7xx_HAL_Driver/Src/stm32f7xx_hal_i2c.c ****         }
 802:../../Drivers/STM32F7xx_HAL_Driver/Src/stm32f7xx_hal_i2c.c ****         else
 803:../../Drivers/STM32F7xx_HAL_Driver/Src/stm32f7xx_hal_i2c.c ****         {
 804:../../Drivers/STM32F7xx_HAL_Driver/Src/stm32f7xx_hal_i2c.c ****           return HAL_TIMEOUT;
 849              		.loc 1 804 0
 850 00f0 0323     		movs	r3, #3
 851 00f2 7FE0     		b	.L35
 852              	.L40:
 805:../../Drivers/STM32F7xx_HAL_Driver/Src/stm32f7xx_hal_i2c.c ****         }
 806:../../Drivers/STM32F7xx_HAL_Driver/Src/stm32f7xx_hal_i2c.c ****       }
 807:../../Drivers/STM32F7xx_HAL_Driver/Src/stm32f7xx_hal_i2c.c ****       
 808:../../Drivers/STM32F7xx_HAL_Driver/Src/stm32f7xx_hal_i2c.c ****       /* Read data from RXDR */
 809:../../Drivers/STM32F7xx_HAL_Driver/Src/stm32f7xx_hal_i2c.c ****       (*hi2c->pBuffPtr++) = hi2c->Instance->RXDR;
 853              		.loc 1 809 0
 854 00f4 FB68     		ldr	r3, [r7, #12]
ARM GAS  /tmp/cczIhzQ0.s 			page 30


 855 00f6 5B6A     		ldr	r3, [r3, #36]
 856 00f8 591C     		adds	r1, r3, #1
 857 00fa FA68     		ldr	r2, [r7, #12]
 858 00fc 5162     		str	r1, [r2, #36]
 859 00fe FA68     		ldr	r2, [r7, #12]
 860 0100 1268     		ldr	r2, [r2]
 861 0102 526A     		ldr	r2, [r2, #36]
 862 0104 D2B2     		uxtb	r2, r2
 863 0106 1A70     		strb	r2, [r3]
 810:../../Drivers/STM32F7xx_HAL_Driver/Src/stm32f7xx_hal_i2c.c ****       hi2c->XferSize--;
 864              		.loc 1 810 0
 865 0108 FB68     		ldr	r3, [r7, #12]
 866 010a 1B8D     		ldrh	r3, [r3, #40]
 867 010c 013B     		subs	r3, r3, #1
 868 010e 9AB2     		uxth	r2, r3
 869 0110 FB68     		ldr	r3, [r7, #12]
 870 0112 1A85     		strh	r2, [r3, #40]	@ movhi
 811:../../Drivers/STM32F7xx_HAL_Driver/Src/stm32f7xx_hal_i2c.c ****       hi2c->XferCount--;
 871              		.loc 1 811 0
 872 0114 FB68     		ldr	r3, [r7, #12]
 873 0116 5B8D     		ldrh	r3, [r3, #42]	@ movhi
 874 0118 9BB2     		uxth	r3, r3
 875 011a 013B     		subs	r3, r3, #1
 876 011c 9AB2     		uxth	r2, r3
 877 011e FB68     		ldr	r3, [r7, #12]
 878 0120 5A85     		strh	r2, [r3, #42]	@ movhi
 812:../../Drivers/STM32F7xx_HAL_Driver/Src/stm32f7xx_hal_i2c.c ****       
 813:../../Drivers/STM32F7xx_HAL_Driver/Src/stm32f7xx_hal_i2c.c ****       if((hi2c->XferSize == 0) && (hi2c->XferCount != 0))
 879              		.loc 1 813 0
 880 0122 FB68     		ldr	r3, [r7, #12]
 881 0124 1B8D     		ldrh	r3, [r3, #40]
 882 0126 002B     		cmp	r3, #0
 883 0128 35D1     		bne	.L39
 884              		.loc 1 813 0 is_stmt 0 discriminator 1
 885 012a FB68     		ldr	r3, [r7, #12]
 886 012c 5B8D     		ldrh	r3, [r3, #42]	@ movhi
 887 012e 9BB2     		uxth	r3, r3
 888 0130 002B     		cmp	r3, #0
 889 0132 30D0     		beq	.L39
 814:../../Drivers/STM32F7xx_HAL_Driver/Src/stm32f7xx_hal_i2c.c ****       {
 815:../../Drivers/STM32F7xx_HAL_Driver/Src/stm32f7xx_hal_i2c.c ****         /* Wait until TCR flag is set */
 816:../../Drivers/STM32F7xx_HAL_Driver/Src/stm32f7xx_hal_i2c.c ****         if(I2C_WaitOnFlagUntilTimeout(hi2c, I2C_FLAG_TCR, RESET, Timeout, tickstart) != HAL_OK)
 890              		.loc 1 816 0 is_stmt 1
 891 0134 7B69     		ldr	r3, [r7, #20]
 892 0136 0093     		str	r3, [sp]
 893 0138 F868     		ldr	r0, [r7, #12]
 894 013a 8021     		movs	r1, #128
 895 013c 0022     		movs	r2, #0
 896 013e 3B6A     		ldr	r3, [r7, #32]
 897 0140 FFF7FEFF 		bl	I2C_WaitOnFlagUntilTimeout
 898 0144 0346     		mov	r3, r0
 899 0146 002B     		cmp	r3, #0
 900 0148 01D0     		beq	.L42
 817:../../Drivers/STM32F7xx_HAL_Driver/Src/stm32f7xx_hal_i2c.c ****         {
 818:../../Drivers/STM32F7xx_HAL_Driver/Src/stm32f7xx_hal_i2c.c ****           return HAL_TIMEOUT;
 901              		.loc 1 818 0
 902 014a 0323     		movs	r3, #3
ARM GAS  /tmp/cczIhzQ0.s 			page 31


 903 014c 52E0     		b	.L35
 904              	.L42:
 819:../../Drivers/STM32F7xx_HAL_Driver/Src/stm32f7xx_hal_i2c.c ****         }
 820:../../Drivers/STM32F7xx_HAL_Driver/Src/stm32f7xx_hal_i2c.c ****         
 821:../../Drivers/STM32F7xx_HAL_Driver/Src/stm32f7xx_hal_i2c.c ****         if(hi2c->XferCount > MAX_NBYTE_SIZE)
 905              		.loc 1 821 0
 906 014e FB68     		ldr	r3, [r7, #12]
 907 0150 5B8D     		ldrh	r3, [r3, #42]	@ movhi
 908 0152 9BB2     		uxth	r3, r3
 909 0154 FF2B     		cmp	r3, #255
 910 0156 0ED9     		bls	.L43
 822:../../Drivers/STM32F7xx_HAL_Driver/Src/stm32f7xx_hal_i2c.c ****         {
 823:../../Drivers/STM32F7xx_HAL_Driver/Src/stm32f7xx_hal_i2c.c ****           hi2c->XferSize = MAX_NBYTE_SIZE;
 911              		.loc 1 823 0
 912 0158 FB68     		ldr	r3, [r7, #12]
 913 015a FF22     		movs	r2, #255
 914 015c 1A85     		strh	r2, [r3, #40]	@ movhi
 824:../../Drivers/STM32F7xx_HAL_Driver/Src/stm32f7xx_hal_i2c.c ****           I2C_TransferConfig(hi2c, DevAddress, hi2c->XferSize, I2C_RELOAD_MODE, I2C_NO_STARTSTOP);
 915              		.loc 1 824 0
 916 015e FB68     		ldr	r3, [r7, #12]
 917 0160 1B8D     		ldrh	r3, [r3, #40]
 918 0162 DAB2     		uxtb	r2, r3
 919 0164 7989     		ldrh	r1, [r7, #10]
 920 0166 0023     		movs	r3, #0
 921 0168 0093     		str	r3, [sp]
 922 016a F868     		ldr	r0, [r7, #12]
 923 016c 4FF08073 		mov	r3, #16777216
 924 0170 FFF7FEFF 		bl	I2C_TransferConfig
 925 0174 0FE0     		b	.L39
 926              	.L43:
 825:../../Drivers/STM32F7xx_HAL_Driver/Src/stm32f7xx_hal_i2c.c ****         }
 826:../../Drivers/STM32F7xx_HAL_Driver/Src/stm32f7xx_hal_i2c.c ****         else
 827:../../Drivers/STM32F7xx_HAL_Driver/Src/stm32f7xx_hal_i2c.c ****         {
 828:../../Drivers/STM32F7xx_HAL_Driver/Src/stm32f7xx_hal_i2c.c ****           hi2c->XferSize = hi2c->XferCount;
 927              		.loc 1 828 0
 928 0176 FB68     		ldr	r3, [r7, #12]
 929 0178 5B8D     		ldrh	r3, [r3, #42]	@ movhi
 930 017a 9AB2     		uxth	r2, r3
 931 017c FB68     		ldr	r3, [r7, #12]
 932 017e 1A85     		strh	r2, [r3, #40]	@ movhi
 829:../../Drivers/STM32F7xx_HAL_Driver/Src/stm32f7xx_hal_i2c.c ****           I2C_TransferConfig(hi2c, DevAddress, hi2c->XferSize, I2C_AUTOEND_MODE, I2C_NO_STARTSTOP);
 933              		.loc 1 829 0
 934 0180 FB68     		ldr	r3, [r7, #12]
 935 0182 1B8D     		ldrh	r3, [r3, #40]
 936 0184 DAB2     		uxtb	r2, r3
 937 0186 7989     		ldrh	r1, [r7, #10]
 938 0188 0023     		movs	r3, #0
 939 018a 0093     		str	r3, [sp]
 940 018c F868     		ldr	r0, [r7, #12]
 941 018e 4FF00073 		mov	r3, #33554432
 942 0192 FFF7FEFF 		bl	I2C_TransferConfig
 943              	.L39:
 793:../../Drivers/STM32F7xx_HAL_Driver/Src/stm32f7xx_hal_i2c.c ****     {
 944              		.loc 1 793 0
 945 0196 FB68     		ldr	r3, [r7, #12]
 946 0198 1B8D     		ldrh	r3, [r3, #40]
 947 019a 002B     		cmp	r3, #0
ARM GAS  /tmp/cczIhzQ0.s 			page 32


 948 019c 9AD1     		bne	.L44
 830:../../Drivers/STM32F7xx_HAL_Driver/Src/stm32f7xx_hal_i2c.c ****         }
 831:../../Drivers/STM32F7xx_HAL_Driver/Src/stm32f7xx_hal_i2c.c ****       }
 832:../../Drivers/STM32F7xx_HAL_Driver/Src/stm32f7xx_hal_i2c.c ****     }
 833:../../Drivers/STM32F7xx_HAL_Driver/Src/stm32f7xx_hal_i2c.c ****     
 834:../../Drivers/STM32F7xx_HAL_Driver/Src/stm32f7xx_hal_i2c.c ****     /* No need to Check TC flag, with AUTOEND mode the stop is automatically generated */
 835:../../Drivers/STM32F7xx_HAL_Driver/Src/stm32f7xx_hal_i2c.c ****     /* Wait until STOPF flag is set */
 836:../../Drivers/STM32F7xx_HAL_Driver/Src/stm32f7xx_hal_i2c.c ****     if(I2C_WaitOnSTOPFlagUntilTimeout(hi2c, Timeout, tickstart) != HAL_OK)
 949              		.loc 1 836 0
 950 019e F868     		ldr	r0, [r7, #12]
 951 01a0 396A     		ldr	r1, [r7, #32]
 952 01a2 7A69     		ldr	r2, [r7, #20]
 953 01a4 FFF7FEFF 		bl	I2C_WaitOnSTOPFlagUntilTimeout
 954 01a8 0346     		mov	r3, r0
 955 01aa 002B     		cmp	r3, #0
 956 01ac 07D0     		beq	.L45
 837:../../Drivers/STM32F7xx_HAL_Driver/Src/stm32f7xx_hal_i2c.c ****     {
 838:../../Drivers/STM32F7xx_HAL_Driver/Src/stm32f7xx_hal_i2c.c ****       if(hi2c->ErrorCode == HAL_I2C_ERROR_AF)
 957              		.loc 1 838 0
 958 01ae FB68     		ldr	r3, [r7, #12]
 959 01b0 5B6C     		ldr	r3, [r3, #68]
 960 01b2 042B     		cmp	r3, #4
 961 01b4 01D1     		bne	.L46
 839:../../Drivers/STM32F7xx_HAL_Driver/Src/stm32f7xx_hal_i2c.c ****       {
 840:../../Drivers/STM32F7xx_HAL_Driver/Src/stm32f7xx_hal_i2c.c ****         return HAL_ERROR;
 962              		.loc 1 840 0
 963 01b6 0123     		movs	r3, #1
 964 01b8 1CE0     		b	.L35
 965              	.L46:
 841:../../Drivers/STM32F7xx_HAL_Driver/Src/stm32f7xx_hal_i2c.c ****       }
 842:../../Drivers/STM32F7xx_HAL_Driver/Src/stm32f7xx_hal_i2c.c ****       else
 843:../../Drivers/STM32F7xx_HAL_Driver/Src/stm32f7xx_hal_i2c.c ****       {
 844:../../Drivers/STM32F7xx_HAL_Driver/Src/stm32f7xx_hal_i2c.c ****         return HAL_TIMEOUT;
 966              		.loc 1 844 0
 967 01ba 0323     		movs	r3, #3
 968 01bc 1AE0     		b	.L35
 969              	.L45:
 845:../../Drivers/STM32F7xx_HAL_Driver/Src/stm32f7xx_hal_i2c.c ****       }
 846:../../Drivers/STM32F7xx_HAL_Driver/Src/stm32f7xx_hal_i2c.c ****     }
 847:../../Drivers/STM32F7xx_HAL_Driver/Src/stm32f7xx_hal_i2c.c ****     
 848:../../Drivers/STM32F7xx_HAL_Driver/Src/stm32f7xx_hal_i2c.c ****     /* Clear STOP Flag */
 849:../../Drivers/STM32F7xx_HAL_Driver/Src/stm32f7xx_hal_i2c.c ****     __HAL_I2C_CLEAR_FLAG(hi2c, I2C_FLAG_STOPF);
 970              		.loc 1 849 0
 971 01be FB68     		ldr	r3, [r7, #12]
 972 01c0 1B68     		ldr	r3, [r3]
 973 01c2 2022     		movs	r2, #32
 974 01c4 DA61     		str	r2, [r3, #28]
 850:../../Drivers/STM32F7xx_HAL_Driver/Src/stm32f7xx_hal_i2c.c ****     
 851:../../Drivers/STM32F7xx_HAL_Driver/Src/stm32f7xx_hal_i2c.c ****     /* Clear Configuration Register 2 */
 852:../../Drivers/STM32F7xx_HAL_Driver/Src/stm32f7xx_hal_i2c.c ****     I2C_RESET_CR2(hi2c);
 975              		.loc 1 852 0
 976 01c6 FB68     		ldr	r3, [r7, #12]
 977 01c8 1A68     		ldr	r2, [r3]
 978 01ca FB68     		ldr	r3, [r7, #12]
 979 01cc 1B68     		ldr	r3, [r3]
 980 01ce 5968     		ldr	r1, [r3, #4]
 981 01d0 0A4B     		ldr	r3, .L47
ARM GAS  /tmp/cczIhzQ0.s 			page 33


 982 01d2 0B40     		ands	r3, r3, r1
 983 01d4 5360     		str	r3, [r2, #4]
 853:../../Drivers/STM32F7xx_HAL_Driver/Src/stm32f7xx_hal_i2c.c ****     
 854:../../Drivers/STM32F7xx_HAL_Driver/Src/stm32f7xx_hal_i2c.c ****     hi2c->State = HAL_I2C_STATE_READY;
 984              		.loc 1 854 0
 985 01d6 FB68     		ldr	r3, [r7, #12]
 986 01d8 2022     		movs	r2, #32
 987 01da 83F84120 		strb	r2, [r3, #65]
 855:../../Drivers/STM32F7xx_HAL_Driver/Src/stm32f7xx_hal_i2c.c ****     hi2c->Mode  = HAL_I2C_MODE_NONE;
 988              		.loc 1 855 0
 989 01de FB68     		ldr	r3, [r7, #12]
 990 01e0 0022     		movs	r2, #0
 991 01e2 83F84220 		strb	r2, [r3, #66]
 856:../../Drivers/STM32F7xx_HAL_Driver/Src/stm32f7xx_hal_i2c.c ****     
 857:../../Drivers/STM32F7xx_HAL_Driver/Src/stm32f7xx_hal_i2c.c ****     /* Process Unlocked */
 858:../../Drivers/STM32F7xx_HAL_Driver/Src/stm32f7xx_hal_i2c.c ****     __HAL_UNLOCK(hi2c);
 992              		.loc 1 858 0
 993 01e6 FB68     		ldr	r3, [r7, #12]
 994 01e8 0022     		movs	r2, #0
 995 01ea 83F84020 		strb	r2, [r3, #64]
 859:../../Drivers/STM32F7xx_HAL_Driver/Src/stm32f7xx_hal_i2c.c ****     
 860:../../Drivers/STM32F7xx_HAL_Driver/Src/stm32f7xx_hal_i2c.c ****     return HAL_OK;
 996              		.loc 1 860 0
 997 01ee 0023     		movs	r3, #0
 998 01f0 00E0     		b	.L35
 999              	.L33:
 861:../../Drivers/STM32F7xx_HAL_Driver/Src/stm32f7xx_hal_i2c.c ****   }
 862:../../Drivers/STM32F7xx_HAL_Driver/Src/stm32f7xx_hal_i2c.c ****   else
 863:../../Drivers/STM32F7xx_HAL_Driver/Src/stm32f7xx_hal_i2c.c ****   {
 864:../../Drivers/STM32F7xx_HAL_Driver/Src/stm32f7xx_hal_i2c.c ****     return HAL_BUSY;
 1000              		.loc 1 864 0
 1001 01f2 0223     		movs	r3, #2
 1002              	.L35:
 865:../../Drivers/STM32F7xx_HAL_Driver/Src/stm32f7xx_hal_i2c.c ****   }
 866:../../Drivers/STM32F7xx_HAL_Driver/Src/stm32f7xx_hal_i2c.c **** }
 1003              		.loc 1 866 0
 1004 01f4 1846     		mov	r0, r3
 1005 01f6 1837     		adds	r7, r7, #24
 1006              	.LCFI30:
 1007              		.cfi_def_cfa_offset 8
 1008 01f8 BD46     		mov	sp, r7
 1009              	.LCFI31:
 1010              		.cfi_def_cfa_register 13
 1011              		@ sp needed
 1012 01fa 80BD     		pop	{r7, pc}
 1013              	.L48:
 1014              		.align	2
 1015              	.L47:
 1016 01fc 00E800FE 		.word	-33495040
 1017              		.cfi_endproc
 1018              	.LFE140:
 1020              		.section	.text.HAL_I2C_Slave_Transmit,"ax",%progbits
 1021              		.align	2
 1022              		.global	HAL_I2C_Slave_Transmit
 1023              		.thumb
 1024              		.thumb_func
 1026              	HAL_I2C_Slave_Transmit:
ARM GAS  /tmp/cczIhzQ0.s 			page 34


 1027              	.LFB141:
 867:../../Drivers/STM32F7xx_HAL_Driver/Src/stm32f7xx_hal_i2c.c **** 
 868:../../Drivers/STM32F7xx_HAL_Driver/Src/stm32f7xx_hal_i2c.c **** /**
 869:../../Drivers/STM32F7xx_HAL_Driver/Src/stm32f7xx_hal_i2c.c ****   * @brief  Transmits in slave mode an amount of data in blocking mode. 
 870:../../Drivers/STM32F7xx_HAL_Driver/Src/stm32f7xx_hal_i2c.c ****   * @param  hi2c: Pointer to a I2C_HandleTypeDef structure that contains
 871:../../Drivers/STM32F7xx_HAL_Driver/Src/stm32f7xx_hal_i2c.c ****   *               the configuration information for the specified I2C.
 872:../../Drivers/STM32F7xx_HAL_Driver/Src/stm32f7xx_hal_i2c.c ****   * @param  pData: Pointer to data buffer
 873:../../Drivers/STM32F7xx_HAL_Driver/Src/stm32f7xx_hal_i2c.c ****   * @param  Size: Amount of data to be sent
 874:../../Drivers/STM32F7xx_HAL_Driver/Src/stm32f7xx_hal_i2c.c ****   * @param  Timeout: Timeout duration
 875:../../Drivers/STM32F7xx_HAL_Driver/Src/stm32f7xx_hal_i2c.c ****   * @retval HAL status
 876:../../Drivers/STM32F7xx_HAL_Driver/Src/stm32f7xx_hal_i2c.c ****   */
 877:../../Drivers/STM32F7xx_HAL_Driver/Src/stm32f7xx_hal_i2c.c **** HAL_StatusTypeDef HAL_I2C_Slave_Transmit(I2C_HandleTypeDef *hi2c, uint8_t *pData, uint16_t Size, ui
 878:../../Drivers/STM32F7xx_HAL_Driver/Src/stm32f7xx_hal_i2c.c **** {
 1028              		.loc 1 878 0
 1029              		.cfi_startproc
 1030              		@ args = 0, pretend = 0, frame = 24
 1031              		@ frame_needed = 1, uses_anonymous_args = 0
 1032 0000 80B5     		push	{r7, lr}
 1033              	.LCFI32:
 1034              		.cfi_def_cfa_offset 8
 1035              		.cfi_offset 7, -8
 1036              		.cfi_offset 14, -4
 1037 0002 88B0     		sub	sp, sp, #32
 1038              	.LCFI33:
 1039              		.cfi_def_cfa_offset 40
 1040 0004 02AF     		add	r7, sp, #8
 1041              	.LCFI34:
 1042              		.cfi_def_cfa 7, 32
 1043 0006 F860     		str	r0, [r7, #12]
 1044 0008 B960     		str	r1, [r7, #8]
 1045 000a 3B60     		str	r3, [r7]
 1046 000c 1346     		mov	r3, r2	@ movhi
 1047 000e FB80     		strh	r3, [r7, #6]	@ movhi
 879:../../Drivers/STM32F7xx_HAL_Driver/Src/stm32f7xx_hal_i2c.c ****   uint32_t tickstart = 0;
 1048              		.loc 1 879 0
 1049 0010 0023     		movs	r3, #0
 1050 0012 7B61     		str	r3, [r7, #20]
 880:../../Drivers/STM32F7xx_HAL_Driver/Src/stm32f7xx_hal_i2c.c ****   
 881:../../Drivers/STM32F7xx_HAL_Driver/Src/stm32f7xx_hal_i2c.c ****   if(hi2c->State == HAL_I2C_STATE_READY)
 1051              		.loc 1 881 0
 1052 0014 FB68     		ldr	r3, [r7, #12]
 1053 0016 93F84130 		ldrb	r3, [r3, #65]
 1054 001a DBB2     		uxtb	r3, r3
 1055 001c 202B     		cmp	r3, #32
 1056 001e 40F0F680 		bne	.L50
 882:../../Drivers/STM32F7xx_HAL_Driver/Src/stm32f7xx_hal_i2c.c ****   {
 883:../../Drivers/STM32F7xx_HAL_Driver/Src/stm32f7xx_hal_i2c.c ****     if((pData == NULL ) || (Size == 0))
 1057              		.loc 1 883 0
 1058 0022 BB68     		ldr	r3, [r7, #8]
 1059 0024 002B     		cmp	r3, #0
 1060 0026 02D0     		beq	.L51
 1061              		.loc 1 883 0 is_stmt 0 discriminator 1
 1062 0028 FB88     		ldrh	r3, [r7, #6]
 1063 002a 002B     		cmp	r3, #0
 1064 002c 01D1     		bne	.L52
 1065              	.L51:
 884:../../Drivers/STM32F7xx_HAL_Driver/Src/stm32f7xx_hal_i2c.c ****     {
ARM GAS  /tmp/cczIhzQ0.s 			page 35


 885:../../Drivers/STM32F7xx_HAL_Driver/Src/stm32f7xx_hal_i2c.c ****       return  HAL_ERROR;
 1066              		.loc 1 885 0 is_stmt 1
 1067 002e 0123     		movs	r3, #1
 1068 0030 EEE0     		b	.L53
 1069              	.L52:
 886:../../Drivers/STM32F7xx_HAL_Driver/Src/stm32f7xx_hal_i2c.c ****     }
 887:../../Drivers/STM32F7xx_HAL_Driver/Src/stm32f7xx_hal_i2c.c ****     /* Process Locked */
 888:../../Drivers/STM32F7xx_HAL_Driver/Src/stm32f7xx_hal_i2c.c ****     __HAL_LOCK(hi2c);
 1070              		.loc 1 888 0
 1071 0032 FB68     		ldr	r3, [r7, #12]
 1072 0034 93F84030 		ldrb	r3, [r3, #64]	@ zero_extendqisi2
 1073 0038 012B     		cmp	r3, #1
 1074 003a 01D1     		bne	.L54
 1075              		.loc 1 888 0 is_stmt 0 discriminator 1
 1076 003c 0223     		movs	r3, #2
 1077 003e E7E0     		b	.L53
 1078              	.L54:
 1079              		.loc 1 888 0 discriminator 2
 1080 0040 FB68     		ldr	r3, [r7, #12]
 1081 0042 0122     		movs	r2, #1
 1082 0044 83F84020 		strb	r2, [r3, #64]
 889:../../Drivers/STM32F7xx_HAL_Driver/Src/stm32f7xx_hal_i2c.c ****     
 890:../../Drivers/STM32F7xx_HAL_Driver/Src/stm32f7xx_hal_i2c.c ****     /* Init tickstart for timeout management*/
 891:../../Drivers/STM32F7xx_HAL_Driver/Src/stm32f7xx_hal_i2c.c ****     tickstart = HAL_GetTick();
 1083              		.loc 1 891 0 is_stmt 1 discriminator 2
 1084 0048 FFF7FEFF 		bl	HAL_GetTick
 1085 004c 7861     		str	r0, [r7, #20]
 892:../../Drivers/STM32F7xx_HAL_Driver/Src/stm32f7xx_hal_i2c.c ****     
 893:../../Drivers/STM32F7xx_HAL_Driver/Src/stm32f7xx_hal_i2c.c ****     hi2c->State     = HAL_I2C_STATE_BUSY_TX;
 1086              		.loc 1 893 0 discriminator 2
 1087 004e FB68     		ldr	r3, [r7, #12]
 1088 0050 2122     		movs	r2, #33
 1089 0052 83F84120 		strb	r2, [r3, #65]
 894:../../Drivers/STM32F7xx_HAL_Driver/Src/stm32f7xx_hal_i2c.c ****     hi2c->Mode      = HAL_I2C_MODE_SLAVE;
 1090              		.loc 1 894 0 discriminator 2
 1091 0056 FB68     		ldr	r3, [r7, #12]
 1092 0058 2022     		movs	r2, #32
 1093 005a 83F84220 		strb	r2, [r3, #66]
 895:../../Drivers/STM32F7xx_HAL_Driver/Src/stm32f7xx_hal_i2c.c ****     hi2c->ErrorCode = HAL_I2C_ERROR_NONE;
 1094              		.loc 1 895 0 discriminator 2
 1095 005e FB68     		ldr	r3, [r7, #12]
 1096 0060 0022     		movs	r2, #0
 1097 0062 5A64     		str	r2, [r3, #68]
 896:../../Drivers/STM32F7xx_HAL_Driver/Src/stm32f7xx_hal_i2c.c ****     
 897:../../Drivers/STM32F7xx_HAL_Driver/Src/stm32f7xx_hal_i2c.c ****     /* Prepare transfer parameters */
 898:../../Drivers/STM32F7xx_HAL_Driver/Src/stm32f7xx_hal_i2c.c ****     hi2c->pBuffPtr  = pData;
 1098              		.loc 1 898 0 discriminator 2
 1099 0064 FB68     		ldr	r3, [r7, #12]
 1100 0066 BA68     		ldr	r2, [r7, #8]
 1101 0068 5A62     		str	r2, [r3, #36]
 899:../../Drivers/STM32F7xx_HAL_Driver/Src/stm32f7xx_hal_i2c.c ****     hi2c->XferCount = Size;
 1102              		.loc 1 899 0 discriminator 2
 1103 006a FB68     		ldr	r3, [r7, #12]
 1104 006c FA88     		ldrh	r2, [r7, #6]	@ movhi
 1105 006e 5A85     		strh	r2, [r3, #42]	@ movhi
 900:../../Drivers/STM32F7xx_HAL_Driver/Src/stm32f7xx_hal_i2c.c ****     hi2c->XferISR   = NULL;
 1106              		.loc 1 900 0 discriminator 2
ARM GAS  /tmp/cczIhzQ0.s 			page 36


 1107 0070 FB68     		ldr	r3, [r7, #12]
 1108 0072 0022     		movs	r2, #0
 1109 0074 5A63     		str	r2, [r3, #52]
 901:../../Drivers/STM32F7xx_HAL_Driver/Src/stm32f7xx_hal_i2c.c ****     
 902:../../Drivers/STM32F7xx_HAL_Driver/Src/stm32f7xx_hal_i2c.c ****     /* Enable Address Acknowledge */
 903:../../Drivers/STM32F7xx_HAL_Driver/Src/stm32f7xx_hal_i2c.c ****     hi2c->Instance->CR2 &= ~I2C_CR2_NACK;
 1110              		.loc 1 903 0 discriminator 2
 1111 0076 FB68     		ldr	r3, [r7, #12]
 1112 0078 1B68     		ldr	r3, [r3]
 1113 007a FA68     		ldr	r2, [r7, #12]
 1114 007c 1268     		ldr	r2, [r2]
 1115 007e 5268     		ldr	r2, [r2, #4]
 1116 0080 22F40042 		bic	r2, r2, #32768
 1117 0084 5A60     		str	r2, [r3, #4]
 904:../../Drivers/STM32F7xx_HAL_Driver/Src/stm32f7xx_hal_i2c.c ****     
 905:../../Drivers/STM32F7xx_HAL_Driver/Src/stm32f7xx_hal_i2c.c ****     /* Wait until ADDR flag is set */
 906:../../Drivers/STM32F7xx_HAL_Driver/Src/stm32f7xx_hal_i2c.c ****     if(I2C_WaitOnFlagUntilTimeout(hi2c, I2C_FLAG_ADDR, RESET, Timeout, tickstart) != HAL_OK)
 1118              		.loc 1 906 0 discriminator 2
 1119 0086 7B69     		ldr	r3, [r7, #20]
 1120 0088 0093     		str	r3, [sp]
 1121 008a F868     		ldr	r0, [r7, #12]
 1122 008c 0821     		movs	r1, #8
 1123 008e 0022     		movs	r2, #0
 1124 0090 3B68     		ldr	r3, [r7]
 1125 0092 FFF7FEFF 		bl	I2C_WaitOnFlagUntilTimeout
 1126 0096 0346     		mov	r3, r0
 1127 0098 002B     		cmp	r3, #0
 1128 009a 09D0     		beq	.L55
 907:../../Drivers/STM32F7xx_HAL_Driver/Src/stm32f7xx_hal_i2c.c ****     {
 908:../../Drivers/STM32F7xx_HAL_Driver/Src/stm32f7xx_hal_i2c.c ****       /* Disable Address Acknowledge */
 909:../../Drivers/STM32F7xx_HAL_Driver/Src/stm32f7xx_hal_i2c.c ****       hi2c->Instance->CR2 |= I2C_CR2_NACK;
 1129              		.loc 1 909 0
 1130 009c FB68     		ldr	r3, [r7, #12]
 1131 009e 1B68     		ldr	r3, [r3]
 1132 00a0 FA68     		ldr	r2, [r7, #12]
 1133 00a2 1268     		ldr	r2, [r2]
 1134 00a4 5268     		ldr	r2, [r2, #4]
 1135 00a6 42F40042 		orr	r2, r2, #32768
 1136 00aa 5A60     		str	r2, [r3, #4]
 910:../../Drivers/STM32F7xx_HAL_Driver/Src/stm32f7xx_hal_i2c.c ****       return HAL_TIMEOUT;
 1137              		.loc 1 910 0
 1138 00ac 0323     		movs	r3, #3
 1139 00ae AFE0     		b	.L53
 1140              	.L55:
 911:../../Drivers/STM32F7xx_HAL_Driver/Src/stm32f7xx_hal_i2c.c ****     }
 912:../../Drivers/STM32F7xx_HAL_Driver/Src/stm32f7xx_hal_i2c.c ****     
 913:../../Drivers/STM32F7xx_HAL_Driver/Src/stm32f7xx_hal_i2c.c ****     /* Clear ADDR flag */
 914:../../Drivers/STM32F7xx_HAL_Driver/Src/stm32f7xx_hal_i2c.c ****     __HAL_I2C_CLEAR_FLAG(hi2c,I2C_FLAG_ADDR);
 1141              		.loc 1 914 0
 1142 00b0 FB68     		ldr	r3, [r7, #12]
 1143 00b2 1B68     		ldr	r3, [r3]
 1144 00b4 0822     		movs	r2, #8
 1145 00b6 DA61     		str	r2, [r3, #28]
 915:../../Drivers/STM32F7xx_HAL_Driver/Src/stm32f7xx_hal_i2c.c ****     
 916:../../Drivers/STM32F7xx_HAL_Driver/Src/stm32f7xx_hal_i2c.c ****     /* If 10bit addressing mode is selected */
 917:../../Drivers/STM32F7xx_HAL_Driver/Src/stm32f7xx_hal_i2c.c ****     if(hi2c->Init.AddressingMode == I2C_ADDRESSINGMODE_10BIT)
 1146              		.loc 1 917 0
ARM GAS  /tmp/cczIhzQ0.s 			page 37


 1147 00b8 FB68     		ldr	r3, [r7, #12]
 1148 00ba DB68     		ldr	r3, [r3, #12]
 1149 00bc 022B     		cmp	r3, #2
 1150 00be 18D1     		bne	.L56
 918:../../Drivers/STM32F7xx_HAL_Driver/Src/stm32f7xx_hal_i2c.c ****     {
 919:../../Drivers/STM32F7xx_HAL_Driver/Src/stm32f7xx_hal_i2c.c ****       /* Wait until ADDR flag is set */
 920:../../Drivers/STM32F7xx_HAL_Driver/Src/stm32f7xx_hal_i2c.c ****       if(I2C_WaitOnFlagUntilTimeout(hi2c, I2C_FLAG_ADDR, RESET, Timeout, tickstart) != HAL_OK)
 1151              		.loc 1 920 0
 1152 00c0 7B69     		ldr	r3, [r7, #20]
 1153 00c2 0093     		str	r3, [sp]
 1154 00c4 F868     		ldr	r0, [r7, #12]
 1155 00c6 0821     		movs	r1, #8
 1156 00c8 0022     		movs	r2, #0
 1157 00ca 3B68     		ldr	r3, [r7]
 1158 00cc FFF7FEFF 		bl	I2C_WaitOnFlagUntilTimeout
 1159 00d0 0346     		mov	r3, r0
 1160 00d2 002B     		cmp	r3, #0
 1161 00d4 09D0     		beq	.L57
 921:../../Drivers/STM32F7xx_HAL_Driver/Src/stm32f7xx_hal_i2c.c ****       {
 922:../../Drivers/STM32F7xx_HAL_Driver/Src/stm32f7xx_hal_i2c.c ****         /* Disable Address Acknowledge */
 923:../../Drivers/STM32F7xx_HAL_Driver/Src/stm32f7xx_hal_i2c.c ****         hi2c->Instance->CR2 |= I2C_CR2_NACK;
 1162              		.loc 1 923 0
 1163 00d6 FB68     		ldr	r3, [r7, #12]
 1164 00d8 1B68     		ldr	r3, [r3]
 1165 00da FA68     		ldr	r2, [r7, #12]
 1166 00dc 1268     		ldr	r2, [r2]
 1167 00de 5268     		ldr	r2, [r2, #4]
 1168 00e0 42F40042 		orr	r2, r2, #32768
 1169 00e4 5A60     		str	r2, [r3, #4]
 924:../../Drivers/STM32F7xx_HAL_Driver/Src/stm32f7xx_hal_i2c.c ****         return HAL_TIMEOUT;
 1170              		.loc 1 924 0
 1171 00e6 0323     		movs	r3, #3
 1172 00e8 92E0     		b	.L53
 1173              	.L57:
 925:../../Drivers/STM32F7xx_HAL_Driver/Src/stm32f7xx_hal_i2c.c ****       }
 926:../../Drivers/STM32F7xx_HAL_Driver/Src/stm32f7xx_hal_i2c.c ****       
 927:../../Drivers/STM32F7xx_HAL_Driver/Src/stm32f7xx_hal_i2c.c ****       /* Clear ADDR flag */
 928:../../Drivers/STM32F7xx_HAL_Driver/Src/stm32f7xx_hal_i2c.c ****       __HAL_I2C_CLEAR_FLAG(hi2c,I2C_FLAG_ADDR);
 1174              		.loc 1 928 0
 1175 00ea FB68     		ldr	r3, [r7, #12]
 1176 00ec 1B68     		ldr	r3, [r3]
 1177 00ee 0822     		movs	r2, #8
 1178 00f0 DA61     		str	r2, [r3, #28]
 1179              	.L56:
 929:../../Drivers/STM32F7xx_HAL_Driver/Src/stm32f7xx_hal_i2c.c ****     }
 930:../../Drivers/STM32F7xx_HAL_Driver/Src/stm32f7xx_hal_i2c.c ****     
 931:../../Drivers/STM32F7xx_HAL_Driver/Src/stm32f7xx_hal_i2c.c ****     /* Wait until DIR flag is set Transmitter mode */
 932:../../Drivers/STM32F7xx_HAL_Driver/Src/stm32f7xx_hal_i2c.c ****     if(I2C_WaitOnFlagUntilTimeout(hi2c, I2C_FLAG_DIR, RESET, Timeout, tickstart) != HAL_OK)
 1180              		.loc 1 932 0
 1181 00f2 7B69     		ldr	r3, [r7, #20]
 1182 00f4 0093     		str	r3, [sp]
 1183 00f6 F868     		ldr	r0, [r7, #12]
 1184 00f8 4FF48031 		mov	r1, #65536
 1185 00fc 0022     		movs	r2, #0
 1186 00fe 3B68     		ldr	r3, [r7]
 1187 0100 FFF7FEFF 		bl	I2C_WaitOnFlagUntilTimeout
 1188 0104 0346     		mov	r3, r0
ARM GAS  /tmp/cczIhzQ0.s 			page 38


 1189 0106 002B     		cmp	r3, #0
 1190 0108 09D0     		beq	.L58
 933:../../Drivers/STM32F7xx_HAL_Driver/Src/stm32f7xx_hal_i2c.c ****     {
 934:../../Drivers/STM32F7xx_HAL_Driver/Src/stm32f7xx_hal_i2c.c ****       /* Disable Address Acknowledge */
 935:../../Drivers/STM32F7xx_HAL_Driver/Src/stm32f7xx_hal_i2c.c ****       hi2c->Instance->CR2 |= I2C_CR2_NACK;
 1191              		.loc 1 935 0
 1192 010a FB68     		ldr	r3, [r7, #12]
 1193 010c 1B68     		ldr	r3, [r3]
 1194 010e FA68     		ldr	r2, [r7, #12]
 1195 0110 1268     		ldr	r2, [r2]
 1196 0112 5268     		ldr	r2, [r2, #4]
 1197 0114 42F40042 		orr	r2, r2, #32768
 1198 0118 5A60     		str	r2, [r3, #4]
 936:../../Drivers/STM32F7xx_HAL_Driver/Src/stm32f7xx_hal_i2c.c ****       return HAL_TIMEOUT;
 1199              		.loc 1 936 0
 1200 011a 0323     		movs	r3, #3
 1201 011c 78E0     		b	.L53
 1202              	.L58:
 937:../../Drivers/STM32F7xx_HAL_Driver/Src/stm32f7xx_hal_i2c.c ****     }
 938:../../Drivers/STM32F7xx_HAL_Driver/Src/stm32f7xx_hal_i2c.c ****     
 939:../../Drivers/STM32F7xx_HAL_Driver/Src/stm32f7xx_hal_i2c.c ****     while(hi2c->XferCount > 0)
 1203              		.loc 1 939 0
 1204 011e 27E0     		b	.L59
 1205              	.L62:
 940:../../Drivers/STM32F7xx_HAL_Driver/Src/stm32f7xx_hal_i2c.c ****     {
 941:../../Drivers/STM32F7xx_HAL_Driver/Src/stm32f7xx_hal_i2c.c ****       /* Wait until TXIS flag is set */
 942:../../Drivers/STM32F7xx_HAL_Driver/Src/stm32f7xx_hal_i2c.c ****       if(I2C_WaitOnTXISFlagUntilTimeout(hi2c, Timeout, tickstart) != HAL_OK)
 1206              		.loc 1 942 0
 1207 0120 F868     		ldr	r0, [r7, #12]
 1208 0122 3968     		ldr	r1, [r7]
 1209 0124 7A69     		ldr	r2, [r7, #20]
 1210 0126 FFF7FEFF 		bl	I2C_WaitOnTXISFlagUntilTimeout
 1211 012a 0346     		mov	r3, r0
 1212 012c 002B     		cmp	r3, #0
 1213 012e 0FD0     		beq	.L60
 943:../../Drivers/STM32F7xx_HAL_Driver/Src/stm32f7xx_hal_i2c.c ****       {
 944:../../Drivers/STM32F7xx_HAL_Driver/Src/stm32f7xx_hal_i2c.c ****         /* Disable Address Acknowledge */
 945:../../Drivers/STM32F7xx_HAL_Driver/Src/stm32f7xx_hal_i2c.c ****         hi2c->Instance->CR2 |= I2C_CR2_NACK;
 1214              		.loc 1 945 0
 1215 0130 FB68     		ldr	r3, [r7, #12]
 1216 0132 1B68     		ldr	r3, [r3]
 1217 0134 FA68     		ldr	r2, [r7, #12]
 1218 0136 1268     		ldr	r2, [r2]
 1219 0138 5268     		ldr	r2, [r2, #4]
 1220 013a 42F40042 		orr	r2, r2, #32768
 1221 013e 5A60     		str	r2, [r3, #4]
 946:../../Drivers/STM32F7xx_HAL_Driver/Src/stm32f7xx_hal_i2c.c ****         
 947:../../Drivers/STM32F7xx_HAL_Driver/Src/stm32f7xx_hal_i2c.c ****         if(hi2c->ErrorCode == HAL_I2C_ERROR_AF)
 1222              		.loc 1 947 0
 1223 0140 FB68     		ldr	r3, [r7, #12]
 1224 0142 5B6C     		ldr	r3, [r3, #68]
 1225 0144 042B     		cmp	r3, #4
 1226 0146 01D1     		bne	.L61
 948:../../Drivers/STM32F7xx_HAL_Driver/Src/stm32f7xx_hal_i2c.c ****         {
 949:../../Drivers/STM32F7xx_HAL_Driver/Src/stm32f7xx_hal_i2c.c ****           return HAL_ERROR;
 1227              		.loc 1 949 0
 1228 0148 0123     		movs	r3, #1
ARM GAS  /tmp/cczIhzQ0.s 			page 39


 1229 014a 61E0     		b	.L53
 1230              	.L61:
 950:../../Drivers/STM32F7xx_HAL_Driver/Src/stm32f7xx_hal_i2c.c ****         }
 951:../../Drivers/STM32F7xx_HAL_Driver/Src/stm32f7xx_hal_i2c.c ****         else
 952:../../Drivers/STM32F7xx_HAL_Driver/Src/stm32f7xx_hal_i2c.c ****         {
 953:../../Drivers/STM32F7xx_HAL_Driver/Src/stm32f7xx_hal_i2c.c ****           return HAL_TIMEOUT;
 1231              		.loc 1 953 0
 1232 014c 0323     		movs	r3, #3
 1233 014e 5FE0     		b	.L53
 1234              	.L60:
 954:../../Drivers/STM32F7xx_HAL_Driver/Src/stm32f7xx_hal_i2c.c ****         }
 955:../../Drivers/STM32F7xx_HAL_Driver/Src/stm32f7xx_hal_i2c.c ****       }
 956:../../Drivers/STM32F7xx_HAL_Driver/Src/stm32f7xx_hal_i2c.c ****       
 957:../../Drivers/STM32F7xx_HAL_Driver/Src/stm32f7xx_hal_i2c.c ****       /* Write data to TXDR */
 958:../../Drivers/STM32F7xx_HAL_Driver/Src/stm32f7xx_hal_i2c.c ****       hi2c->Instance->TXDR = (*hi2c->pBuffPtr++);
 1235              		.loc 1 958 0
 1236 0150 FB68     		ldr	r3, [r7, #12]
 1237 0152 1A68     		ldr	r2, [r3]
 1238 0154 FB68     		ldr	r3, [r7, #12]
 1239 0156 5B6A     		ldr	r3, [r3, #36]
 1240 0158 581C     		adds	r0, r3, #1
 1241 015a F968     		ldr	r1, [r7, #12]
 1242 015c 4862     		str	r0, [r1, #36]
 1243 015e 1B78     		ldrb	r3, [r3]	@ zero_extendqisi2
 1244 0160 9362     		str	r3, [r2, #40]
 959:../../Drivers/STM32F7xx_HAL_Driver/Src/stm32f7xx_hal_i2c.c ****       hi2c->XferCount--;
 1245              		.loc 1 959 0
 1246 0162 FB68     		ldr	r3, [r7, #12]
 1247 0164 5B8D     		ldrh	r3, [r3, #42]	@ movhi
 1248 0166 9BB2     		uxth	r3, r3
 1249 0168 013B     		subs	r3, r3, #1
 1250 016a 9AB2     		uxth	r2, r3
 1251 016c FB68     		ldr	r3, [r7, #12]
 1252 016e 5A85     		strh	r2, [r3, #42]	@ movhi
 1253              	.L59:
 939:../../Drivers/STM32F7xx_HAL_Driver/Src/stm32f7xx_hal_i2c.c ****     {
 1254              		.loc 1 939 0
 1255 0170 FB68     		ldr	r3, [r7, #12]
 1256 0172 5B8D     		ldrh	r3, [r3, #42]	@ movhi
 1257 0174 9BB2     		uxth	r3, r3
 1258 0176 002B     		cmp	r3, #0
 1259 0178 D2D1     		bne	.L62
 960:../../Drivers/STM32F7xx_HAL_Driver/Src/stm32f7xx_hal_i2c.c ****     }
 961:../../Drivers/STM32F7xx_HAL_Driver/Src/stm32f7xx_hal_i2c.c ****     
 962:../../Drivers/STM32F7xx_HAL_Driver/Src/stm32f7xx_hal_i2c.c ****     /* Wait until STOP flag is set */
 963:../../Drivers/STM32F7xx_HAL_Driver/Src/stm32f7xx_hal_i2c.c ****     if(I2C_WaitOnSTOPFlagUntilTimeout(hi2c, Timeout, tickstart) != HAL_OK)
 1260              		.loc 1 963 0
 1261 017a F868     		ldr	r0, [r7, #12]
 1262 017c 3968     		ldr	r1, [r7]
 1263 017e 7A69     		ldr	r2, [r7, #20]
 1264 0180 FFF7FEFF 		bl	I2C_WaitOnSTOPFlagUntilTimeout
 1265 0184 0346     		mov	r3, r0
 1266 0186 002B     		cmp	r3, #0
 1267 0188 11D0     		beq	.L63
 964:../../Drivers/STM32F7xx_HAL_Driver/Src/stm32f7xx_hal_i2c.c ****     {
 965:../../Drivers/STM32F7xx_HAL_Driver/Src/stm32f7xx_hal_i2c.c ****       /* Disable Address Acknowledge */
 966:../../Drivers/STM32F7xx_HAL_Driver/Src/stm32f7xx_hal_i2c.c ****       hi2c->Instance->CR2 |= I2C_CR2_NACK;
ARM GAS  /tmp/cczIhzQ0.s 			page 40


 1268              		.loc 1 966 0
 1269 018a FB68     		ldr	r3, [r7, #12]
 1270 018c 1B68     		ldr	r3, [r3]
 1271 018e FA68     		ldr	r2, [r7, #12]
 1272 0190 1268     		ldr	r2, [r2]
 1273 0192 5268     		ldr	r2, [r2, #4]
 1274 0194 42F40042 		orr	r2, r2, #32768
 1275 0198 5A60     		str	r2, [r3, #4]
 967:../../Drivers/STM32F7xx_HAL_Driver/Src/stm32f7xx_hal_i2c.c ****       
 968:../../Drivers/STM32F7xx_HAL_Driver/Src/stm32f7xx_hal_i2c.c ****       if(hi2c->ErrorCode == HAL_I2C_ERROR_AF)
 1276              		.loc 1 968 0
 1277 019a FB68     		ldr	r3, [r7, #12]
 1278 019c 5B6C     		ldr	r3, [r3, #68]
 1279 019e 042B     		cmp	r3, #4
 1280 01a0 03D1     		bne	.L64
 969:../../Drivers/STM32F7xx_HAL_Driver/Src/stm32f7xx_hal_i2c.c ****       {
 970:../../Drivers/STM32F7xx_HAL_Driver/Src/stm32f7xx_hal_i2c.c ****         /* Normal use case for Transmitter mode */
 971:../../Drivers/STM32F7xx_HAL_Driver/Src/stm32f7xx_hal_i2c.c ****         /* A NACK is generated to confirm the end of transfer */
 972:../../Drivers/STM32F7xx_HAL_Driver/Src/stm32f7xx_hal_i2c.c ****         hi2c->ErrorCode = HAL_I2C_ERROR_NONE;
 1281              		.loc 1 972 0
 1282 01a2 FB68     		ldr	r3, [r7, #12]
 1283 01a4 0022     		movs	r2, #0
 1284 01a6 5A64     		str	r2, [r3, #68]
 1285 01a8 01E0     		b	.L63
 1286              	.L64:
 973:../../Drivers/STM32F7xx_HAL_Driver/Src/stm32f7xx_hal_i2c.c ****       }
 974:../../Drivers/STM32F7xx_HAL_Driver/Src/stm32f7xx_hal_i2c.c ****       else
 975:../../Drivers/STM32F7xx_HAL_Driver/Src/stm32f7xx_hal_i2c.c ****       {
 976:../../Drivers/STM32F7xx_HAL_Driver/Src/stm32f7xx_hal_i2c.c ****         return HAL_TIMEOUT;
 1287              		.loc 1 976 0
 1288 01aa 0323     		movs	r3, #3
 1289 01ac 30E0     		b	.L53
 1290              	.L63:
 977:../../Drivers/STM32F7xx_HAL_Driver/Src/stm32f7xx_hal_i2c.c ****       }
 978:../../Drivers/STM32F7xx_HAL_Driver/Src/stm32f7xx_hal_i2c.c ****     }
 979:../../Drivers/STM32F7xx_HAL_Driver/Src/stm32f7xx_hal_i2c.c ****     
 980:../../Drivers/STM32F7xx_HAL_Driver/Src/stm32f7xx_hal_i2c.c ****     /* Clear STOP flag */
 981:../../Drivers/STM32F7xx_HAL_Driver/Src/stm32f7xx_hal_i2c.c ****     __HAL_I2C_CLEAR_FLAG(hi2c,I2C_FLAG_STOPF);
 1291              		.loc 1 981 0
 1292 01ae FB68     		ldr	r3, [r7, #12]
 1293 01b0 1B68     		ldr	r3, [r3]
 1294 01b2 2022     		movs	r2, #32
 1295 01b4 DA61     		str	r2, [r3, #28]
 982:../../Drivers/STM32F7xx_HAL_Driver/Src/stm32f7xx_hal_i2c.c ****     
 983:../../Drivers/STM32F7xx_HAL_Driver/Src/stm32f7xx_hal_i2c.c ****     /* Wait until BUSY flag is reset */ 
 984:../../Drivers/STM32F7xx_HAL_Driver/Src/stm32f7xx_hal_i2c.c ****     if(I2C_WaitOnFlagUntilTimeout(hi2c, I2C_FLAG_BUSY, SET, Timeout, tickstart) != HAL_OK)
 1296              		.loc 1 984 0
 1297 01b6 7B69     		ldr	r3, [r7, #20]
 1298 01b8 0093     		str	r3, [sp]
 1299 01ba F868     		ldr	r0, [r7, #12]
 1300 01bc 4FF40041 		mov	r1, #32768
 1301 01c0 0122     		movs	r2, #1
 1302 01c2 3B68     		ldr	r3, [r7]
 1303 01c4 FFF7FEFF 		bl	I2C_WaitOnFlagUntilTimeout
 1304 01c8 0346     		mov	r3, r0
 1305 01ca 002B     		cmp	r3, #0
 1306 01cc 09D0     		beq	.L65
ARM GAS  /tmp/cczIhzQ0.s 			page 41


 985:../../Drivers/STM32F7xx_HAL_Driver/Src/stm32f7xx_hal_i2c.c ****     {
 986:../../Drivers/STM32F7xx_HAL_Driver/Src/stm32f7xx_hal_i2c.c ****       /* Disable Address Acknowledge */
 987:../../Drivers/STM32F7xx_HAL_Driver/Src/stm32f7xx_hal_i2c.c ****       hi2c->Instance->CR2 |= I2C_CR2_NACK;
 1307              		.loc 1 987 0
 1308 01ce FB68     		ldr	r3, [r7, #12]
 1309 01d0 1B68     		ldr	r3, [r3]
 1310 01d2 FA68     		ldr	r2, [r7, #12]
 1311 01d4 1268     		ldr	r2, [r2]
 1312 01d6 5268     		ldr	r2, [r2, #4]
 1313 01d8 42F40042 		orr	r2, r2, #32768
 1314 01dc 5A60     		str	r2, [r3, #4]
 988:../../Drivers/STM32F7xx_HAL_Driver/Src/stm32f7xx_hal_i2c.c ****       return HAL_TIMEOUT;
 1315              		.loc 1 988 0
 1316 01de 0323     		movs	r3, #3
 1317 01e0 16E0     		b	.L53
 1318              	.L65:
 989:../../Drivers/STM32F7xx_HAL_Driver/Src/stm32f7xx_hal_i2c.c ****     }
 990:../../Drivers/STM32F7xx_HAL_Driver/Src/stm32f7xx_hal_i2c.c ****     
 991:../../Drivers/STM32F7xx_HAL_Driver/Src/stm32f7xx_hal_i2c.c ****     /* Disable Address Acknowledge */
 992:../../Drivers/STM32F7xx_HAL_Driver/Src/stm32f7xx_hal_i2c.c ****     hi2c->Instance->CR2 |= I2C_CR2_NACK;
 1319              		.loc 1 992 0
 1320 01e2 FB68     		ldr	r3, [r7, #12]
 1321 01e4 1B68     		ldr	r3, [r3]
 1322 01e6 FA68     		ldr	r2, [r7, #12]
 1323 01e8 1268     		ldr	r2, [r2]
 1324 01ea 5268     		ldr	r2, [r2, #4]
 1325 01ec 42F40042 		orr	r2, r2, #32768
 1326 01f0 5A60     		str	r2, [r3, #4]
 993:../../Drivers/STM32F7xx_HAL_Driver/Src/stm32f7xx_hal_i2c.c ****     
 994:../../Drivers/STM32F7xx_HAL_Driver/Src/stm32f7xx_hal_i2c.c ****     hi2c->State = HAL_I2C_STATE_READY;
 1327              		.loc 1 994 0
 1328 01f2 FB68     		ldr	r3, [r7, #12]
 1329 01f4 2022     		movs	r2, #32
 1330 01f6 83F84120 		strb	r2, [r3, #65]
 995:../../Drivers/STM32F7xx_HAL_Driver/Src/stm32f7xx_hal_i2c.c ****     hi2c->Mode  = HAL_I2C_MODE_NONE;
 1331              		.loc 1 995 0
 1332 01fa FB68     		ldr	r3, [r7, #12]
 1333 01fc 0022     		movs	r2, #0
 1334 01fe 83F84220 		strb	r2, [r3, #66]
 996:../../Drivers/STM32F7xx_HAL_Driver/Src/stm32f7xx_hal_i2c.c ****     
 997:../../Drivers/STM32F7xx_HAL_Driver/Src/stm32f7xx_hal_i2c.c ****     /* Process Unlocked */
 998:../../Drivers/STM32F7xx_HAL_Driver/Src/stm32f7xx_hal_i2c.c ****     __HAL_UNLOCK(hi2c);
 1335              		.loc 1 998 0
 1336 0202 FB68     		ldr	r3, [r7, #12]
 1337 0204 0022     		movs	r2, #0
 1338 0206 83F84020 		strb	r2, [r3, #64]
 999:../../Drivers/STM32F7xx_HAL_Driver/Src/stm32f7xx_hal_i2c.c ****     
1000:../../Drivers/STM32F7xx_HAL_Driver/Src/stm32f7xx_hal_i2c.c ****     return HAL_OK;
 1339              		.loc 1 1000 0
 1340 020a 0023     		movs	r3, #0
 1341 020c 00E0     		b	.L53
 1342              	.L50:
1001:../../Drivers/STM32F7xx_HAL_Driver/Src/stm32f7xx_hal_i2c.c ****   }
1002:../../Drivers/STM32F7xx_HAL_Driver/Src/stm32f7xx_hal_i2c.c ****   else
1003:../../Drivers/STM32F7xx_HAL_Driver/Src/stm32f7xx_hal_i2c.c ****   {
1004:../../Drivers/STM32F7xx_HAL_Driver/Src/stm32f7xx_hal_i2c.c ****     return HAL_BUSY;
 1343              		.loc 1 1004 0
ARM GAS  /tmp/cczIhzQ0.s 			page 42


 1344 020e 0223     		movs	r3, #2
 1345              	.L53:
1005:../../Drivers/STM32F7xx_HAL_Driver/Src/stm32f7xx_hal_i2c.c ****   }
1006:../../Drivers/STM32F7xx_HAL_Driver/Src/stm32f7xx_hal_i2c.c **** }
 1346              		.loc 1 1006 0
 1347 0210 1846     		mov	r0, r3
 1348 0212 1837     		adds	r7, r7, #24
 1349              	.LCFI35:
 1350              		.cfi_def_cfa_offset 8
 1351 0214 BD46     		mov	sp, r7
 1352              	.LCFI36:
 1353              		.cfi_def_cfa_register 13
 1354              		@ sp needed
 1355 0216 80BD     		pop	{r7, pc}
 1356              		.cfi_endproc
 1357              	.LFE141:
 1359              		.section	.text.HAL_I2C_Slave_Receive,"ax",%progbits
 1360              		.align	2
 1361              		.global	HAL_I2C_Slave_Receive
 1362              		.thumb
 1363              		.thumb_func
 1365              	HAL_I2C_Slave_Receive:
 1366              	.LFB142:
1007:../../Drivers/STM32F7xx_HAL_Driver/Src/stm32f7xx_hal_i2c.c **** 
1008:../../Drivers/STM32F7xx_HAL_Driver/Src/stm32f7xx_hal_i2c.c **** /**
1009:../../Drivers/STM32F7xx_HAL_Driver/Src/stm32f7xx_hal_i2c.c ****   * @brief  Receive in slave mode an amount of data in blocking mode
1010:../../Drivers/STM32F7xx_HAL_Driver/Src/stm32f7xx_hal_i2c.c ****   * @param  hi2c: Pointer to a I2C_HandleTypeDef structure that contains
1011:../../Drivers/STM32F7xx_HAL_Driver/Src/stm32f7xx_hal_i2c.c ****   *               the configuration information for the specified I2C.
1012:../../Drivers/STM32F7xx_HAL_Driver/Src/stm32f7xx_hal_i2c.c ****   * @param  pData: Pointer to data buffer
1013:../../Drivers/STM32F7xx_HAL_Driver/Src/stm32f7xx_hal_i2c.c ****   * @param  Size: Amount of data to be sent
1014:../../Drivers/STM32F7xx_HAL_Driver/Src/stm32f7xx_hal_i2c.c ****   * @param  Timeout: Timeout duration
1015:../../Drivers/STM32F7xx_HAL_Driver/Src/stm32f7xx_hal_i2c.c ****   * @retval HAL status
1016:../../Drivers/STM32F7xx_HAL_Driver/Src/stm32f7xx_hal_i2c.c ****   */
1017:../../Drivers/STM32F7xx_HAL_Driver/Src/stm32f7xx_hal_i2c.c **** HAL_StatusTypeDef HAL_I2C_Slave_Receive(I2C_HandleTypeDef *hi2c, uint8_t *pData, uint16_t Size, uin
1018:../../Drivers/STM32F7xx_HAL_Driver/Src/stm32f7xx_hal_i2c.c **** {
 1367              		.loc 1 1018 0
 1368              		.cfi_startproc
 1369              		@ args = 0, pretend = 0, frame = 24
 1370              		@ frame_needed = 1, uses_anonymous_args = 0
 1371 0000 80B5     		push	{r7, lr}
 1372              	.LCFI37:
 1373              		.cfi_def_cfa_offset 8
 1374              		.cfi_offset 7, -8
 1375              		.cfi_offset 14, -4
 1376 0002 88B0     		sub	sp, sp, #32
 1377              	.LCFI38:
 1378              		.cfi_def_cfa_offset 40
 1379 0004 02AF     		add	r7, sp, #8
 1380              	.LCFI39:
 1381              		.cfi_def_cfa 7, 32
 1382 0006 F860     		str	r0, [r7, #12]
 1383 0008 B960     		str	r1, [r7, #8]
 1384 000a 3B60     		str	r3, [r7]
 1385 000c 1346     		mov	r3, r2	@ movhi
 1386 000e FB80     		strh	r3, [r7, #6]	@ movhi
1019:../../Drivers/STM32F7xx_HAL_Driver/Src/stm32f7xx_hal_i2c.c ****   uint32_t tickstart = 0;
 1387              		.loc 1 1019 0
ARM GAS  /tmp/cczIhzQ0.s 			page 43


 1388 0010 0023     		movs	r3, #0
 1389 0012 7B61     		str	r3, [r7, #20]
1020:../../Drivers/STM32F7xx_HAL_Driver/Src/stm32f7xx_hal_i2c.c ****   
1021:../../Drivers/STM32F7xx_HAL_Driver/Src/stm32f7xx_hal_i2c.c ****   if(hi2c->State == HAL_I2C_STATE_READY)
 1390              		.loc 1 1021 0
 1391 0014 FB68     		ldr	r3, [r7, #12]
 1392 0016 93F84130 		ldrb	r3, [r3, #65]
 1393 001a DBB2     		uxtb	r3, r3
 1394 001c 202B     		cmp	r3, #32
 1395 001e 40F0F080 		bne	.L67
1022:../../Drivers/STM32F7xx_HAL_Driver/Src/stm32f7xx_hal_i2c.c ****   {  
1023:../../Drivers/STM32F7xx_HAL_Driver/Src/stm32f7xx_hal_i2c.c ****     if((pData == NULL ) || (Size == 0))
 1396              		.loc 1 1023 0
 1397 0022 BB68     		ldr	r3, [r7, #8]
 1398 0024 002B     		cmp	r3, #0
 1399 0026 02D0     		beq	.L68
 1400              		.loc 1 1023 0 is_stmt 0 discriminator 1
 1401 0028 FB88     		ldrh	r3, [r7, #6]
 1402 002a 002B     		cmp	r3, #0
 1403 002c 01D1     		bne	.L69
 1404              	.L68:
1024:../../Drivers/STM32F7xx_HAL_Driver/Src/stm32f7xx_hal_i2c.c ****     {
1025:../../Drivers/STM32F7xx_HAL_Driver/Src/stm32f7xx_hal_i2c.c ****       return  HAL_ERROR;
 1405              		.loc 1 1025 0 is_stmt 1
 1406 002e 0123     		movs	r3, #1
 1407 0030 E8E0     		b	.L70
 1408              	.L69:
1026:../../Drivers/STM32F7xx_HAL_Driver/Src/stm32f7xx_hal_i2c.c ****     }
1027:../../Drivers/STM32F7xx_HAL_Driver/Src/stm32f7xx_hal_i2c.c ****         /* Process Locked */
1028:../../Drivers/STM32F7xx_HAL_Driver/Src/stm32f7xx_hal_i2c.c ****     __HAL_LOCK(hi2c);
 1409              		.loc 1 1028 0
 1410 0032 FB68     		ldr	r3, [r7, #12]
 1411 0034 93F84030 		ldrb	r3, [r3, #64]	@ zero_extendqisi2
 1412 0038 012B     		cmp	r3, #1
 1413 003a 01D1     		bne	.L71
 1414              		.loc 1 1028 0 is_stmt 0 discriminator 1
 1415 003c 0223     		movs	r3, #2
 1416 003e E1E0     		b	.L70
 1417              	.L71:
 1418              		.loc 1 1028 0 discriminator 2
 1419 0040 FB68     		ldr	r3, [r7, #12]
 1420 0042 0122     		movs	r2, #1
 1421 0044 83F84020 		strb	r2, [r3, #64]
1029:../../Drivers/STM32F7xx_HAL_Driver/Src/stm32f7xx_hal_i2c.c ****     
1030:../../Drivers/STM32F7xx_HAL_Driver/Src/stm32f7xx_hal_i2c.c ****     /* Init tickstart for timeout management*/
1031:../../Drivers/STM32F7xx_HAL_Driver/Src/stm32f7xx_hal_i2c.c ****     tickstart = HAL_GetTick();
 1422              		.loc 1 1031 0 is_stmt 1 discriminator 2
 1423 0048 FFF7FEFF 		bl	HAL_GetTick
 1424 004c 7861     		str	r0, [r7, #20]
1032:../../Drivers/STM32F7xx_HAL_Driver/Src/stm32f7xx_hal_i2c.c ****     
1033:../../Drivers/STM32F7xx_HAL_Driver/Src/stm32f7xx_hal_i2c.c ****     hi2c->State     = HAL_I2C_STATE_BUSY_RX;
 1425              		.loc 1 1033 0 discriminator 2
 1426 004e FB68     		ldr	r3, [r7, #12]
 1427 0050 2222     		movs	r2, #34
 1428 0052 83F84120 		strb	r2, [r3, #65]
1034:../../Drivers/STM32F7xx_HAL_Driver/Src/stm32f7xx_hal_i2c.c ****     hi2c->Mode      = HAL_I2C_MODE_SLAVE;
 1429              		.loc 1 1034 0 discriminator 2
ARM GAS  /tmp/cczIhzQ0.s 			page 44


 1430 0056 FB68     		ldr	r3, [r7, #12]
 1431 0058 2022     		movs	r2, #32
 1432 005a 83F84220 		strb	r2, [r3, #66]
1035:../../Drivers/STM32F7xx_HAL_Driver/Src/stm32f7xx_hal_i2c.c ****     hi2c->ErrorCode = HAL_I2C_ERROR_NONE;
 1433              		.loc 1 1035 0 discriminator 2
 1434 005e FB68     		ldr	r3, [r7, #12]
 1435 0060 0022     		movs	r2, #0
 1436 0062 5A64     		str	r2, [r3, #68]
1036:../../Drivers/STM32F7xx_HAL_Driver/Src/stm32f7xx_hal_i2c.c ****     
1037:../../Drivers/STM32F7xx_HAL_Driver/Src/stm32f7xx_hal_i2c.c ****     /* Prepare transfer parameters */
1038:../../Drivers/STM32F7xx_HAL_Driver/Src/stm32f7xx_hal_i2c.c ****     hi2c->pBuffPtr  = pData;
 1437              		.loc 1 1038 0 discriminator 2
 1438 0064 FB68     		ldr	r3, [r7, #12]
 1439 0066 BA68     		ldr	r2, [r7, #8]
 1440 0068 5A62     		str	r2, [r3, #36]
1039:../../Drivers/STM32F7xx_HAL_Driver/Src/stm32f7xx_hal_i2c.c ****     hi2c->XferCount = Size;
 1441              		.loc 1 1039 0 discriminator 2
 1442 006a FB68     		ldr	r3, [r7, #12]
 1443 006c FA88     		ldrh	r2, [r7, #6]	@ movhi
 1444 006e 5A85     		strh	r2, [r3, #42]	@ movhi
1040:../../Drivers/STM32F7xx_HAL_Driver/Src/stm32f7xx_hal_i2c.c ****     hi2c->XferISR   = NULL;
 1445              		.loc 1 1040 0 discriminator 2
 1446 0070 FB68     		ldr	r3, [r7, #12]
 1447 0072 0022     		movs	r2, #0
 1448 0074 5A63     		str	r2, [r3, #52]
1041:../../Drivers/STM32F7xx_HAL_Driver/Src/stm32f7xx_hal_i2c.c ****     
1042:../../Drivers/STM32F7xx_HAL_Driver/Src/stm32f7xx_hal_i2c.c ****     /* Enable Address Acknowledge */
1043:../../Drivers/STM32F7xx_HAL_Driver/Src/stm32f7xx_hal_i2c.c ****     hi2c->Instance->CR2 &= ~I2C_CR2_NACK;
 1449              		.loc 1 1043 0 discriminator 2
 1450 0076 FB68     		ldr	r3, [r7, #12]
 1451 0078 1B68     		ldr	r3, [r3]
 1452 007a FA68     		ldr	r2, [r7, #12]
 1453 007c 1268     		ldr	r2, [r2]
 1454 007e 5268     		ldr	r2, [r2, #4]
 1455 0080 22F40042 		bic	r2, r2, #32768
 1456 0084 5A60     		str	r2, [r3, #4]
1044:../../Drivers/STM32F7xx_HAL_Driver/Src/stm32f7xx_hal_i2c.c ****     
1045:../../Drivers/STM32F7xx_HAL_Driver/Src/stm32f7xx_hal_i2c.c ****     /* Wait until ADDR flag is set */
1046:../../Drivers/STM32F7xx_HAL_Driver/Src/stm32f7xx_hal_i2c.c ****     if(I2C_WaitOnFlagUntilTimeout(hi2c, I2C_FLAG_ADDR, RESET, Timeout, tickstart) != HAL_OK)
 1457              		.loc 1 1046 0 discriminator 2
 1458 0086 7B69     		ldr	r3, [r7, #20]
 1459 0088 0093     		str	r3, [sp]
 1460 008a F868     		ldr	r0, [r7, #12]
 1461 008c 0821     		movs	r1, #8
 1462 008e 0022     		movs	r2, #0
 1463 0090 3B68     		ldr	r3, [r7]
 1464 0092 FFF7FEFF 		bl	I2C_WaitOnFlagUntilTimeout
 1465 0096 0346     		mov	r3, r0
 1466 0098 002B     		cmp	r3, #0
 1467 009a 09D0     		beq	.L72
1047:../../Drivers/STM32F7xx_HAL_Driver/Src/stm32f7xx_hal_i2c.c ****     {
1048:../../Drivers/STM32F7xx_HAL_Driver/Src/stm32f7xx_hal_i2c.c ****       /* Disable Address Acknowledge */
1049:../../Drivers/STM32F7xx_HAL_Driver/Src/stm32f7xx_hal_i2c.c ****       hi2c->Instance->CR2 |= I2C_CR2_NACK;
 1468              		.loc 1 1049 0
 1469 009c FB68     		ldr	r3, [r7, #12]
 1470 009e 1B68     		ldr	r3, [r3]
 1471 00a0 FA68     		ldr	r2, [r7, #12]
ARM GAS  /tmp/cczIhzQ0.s 			page 45


 1472 00a2 1268     		ldr	r2, [r2]
 1473 00a4 5268     		ldr	r2, [r2, #4]
 1474 00a6 42F40042 		orr	r2, r2, #32768
 1475 00aa 5A60     		str	r2, [r3, #4]
1050:../../Drivers/STM32F7xx_HAL_Driver/Src/stm32f7xx_hal_i2c.c ****       return HAL_TIMEOUT;
 1476              		.loc 1 1050 0
 1477 00ac 0323     		movs	r3, #3
 1478 00ae A9E0     		b	.L70
 1479              	.L72:
1051:../../Drivers/STM32F7xx_HAL_Driver/Src/stm32f7xx_hal_i2c.c ****     }
1052:../../Drivers/STM32F7xx_HAL_Driver/Src/stm32f7xx_hal_i2c.c ****     
1053:../../Drivers/STM32F7xx_HAL_Driver/Src/stm32f7xx_hal_i2c.c ****     /* Clear ADDR flag */
1054:../../Drivers/STM32F7xx_HAL_Driver/Src/stm32f7xx_hal_i2c.c ****     __HAL_I2C_CLEAR_FLAG(hi2c,I2C_FLAG_ADDR);
 1480              		.loc 1 1054 0
 1481 00b0 FB68     		ldr	r3, [r7, #12]
 1482 00b2 1B68     		ldr	r3, [r3]
 1483 00b4 0822     		movs	r2, #8
 1484 00b6 DA61     		str	r2, [r3, #28]
1055:../../Drivers/STM32F7xx_HAL_Driver/Src/stm32f7xx_hal_i2c.c ****     
1056:../../Drivers/STM32F7xx_HAL_Driver/Src/stm32f7xx_hal_i2c.c ****     /* Wait until DIR flag is reset Receiver mode */
1057:../../Drivers/STM32F7xx_HAL_Driver/Src/stm32f7xx_hal_i2c.c ****     if(I2C_WaitOnFlagUntilTimeout(hi2c, I2C_FLAG_DIR, SET, Timeout, tickstart) != HAL_OK)
 1485              		.loc 1 1057 0
 1486 00b8 7B69     		ldr	r3, [r7, #20]
 1487 00ba 0093     		str	r3, [sp]
 1488 00bc F868     		ldr	r0, [r7, #12]
 1489 00be 4FF48031 		mov	r1, #65536
 1490 00c2 0122     		movs	r2, #1
 1491 00c4 3B68     		ldr	r3, [r7]
 1492 00c6 FFF7FEFF 		bl	I2C_WaitOnFlagUntilTimeout
 1493 00ca 0346     		mov	r3, r0
 1494 00cc 002B     		cmp	r3, #0
 1495 00ce 09D0     		beq	.L73
1058:../../Drivers/STM32F7xx_HAL_Driver/Src/stm32f7xx_hal_i2c.c ****     {
1059:../../Drivers/STM32F7xx_HAL_Driver/Src/stm32f7xx_hal_i2c.c ****       /* Disable Address Acknowledge */
1060:../../Drivers/STM32F7xx_HAL_Driver/Src/stm32f7xx_hal_i2c.c ****       hi2c->Instance->CR2 |= I2C_CR2_NACK;
 1496              		.loc 1 1060 0
 1497 00d0 FB68     		ldr	r3, [r7, #12]
 1498 00d2 1B68     		ldr	r3, [r3]
 1499 00d4 FA68     		ldr	r2, [r7, #12]
 1500 00d6 1268     		ldr	r2, [r2]
 1501 00d8 5268     		ldr	r2, [r2, #4]
 1502 00da 42F40042 		orr	r2, r2, #32768
 1503 00de 5A60     		str	r2, [r3, #4]
1061:../../Drivers/STM32F7xx_HAL_Driver/Src/stm32f7xx_hal_i2c.c ****       return HAL_TIMEOUT;
 1504              		.loc 1 1061 0
 1505 00e0 0323     		movs	r3, #3
 1506 00e2 8FE0     		b	.L70
 1507              	.L73:
1062:../../Drivers/STM32F7xx_HAL_Driver/Src/stm32f7xx_hal_i2c.c ****     }
1063:../../Drivers/STM32F7xx_HAL_Driver/Src/stm32f7xx_hal_i2c.c ****     
1064:../../Drivers/STM32F7xx_HAL_Driver/Src/stm32f7xx_hal_i2c.c ****     while(hi2c->XferCount > 0)
 1508              		.loc 1 1064 0
 1509 00e4 40E0     		b	.L74
 1510              	.L78:
1065:../../Drivers/STM32F7xx_HAL_Driver/Src/stm32f7xx_hal_i2c.c ****     {
1066:../../Drivers/STM32F7xx_HAL_Driver/Src/stm32f7xx_hal_i2c.c ****       /* Wait until RXNE flag is set */
1067:../../Drivers/STM32F7xx_HAL_Driver/Src/stm32f7xx_hal_i2c.c ****       if(I2C_WaitOnRXNEFlagUntilTimeout(hi2c, Timeout, tickstart) != HAL_OK)
ARM GAS  /tmp/cczIhzQ0.s 			page 46


 1511              		.loc 1 1067 0
 1512 00e6 F868     		ldr	r0, [r7, #12]
 1513 00e8 3968     		ldr	r1, [r7]
 1514 00ea 7A69     		ldr	r2, [r7, #20]
 1515 00ec FFF7FEFF 		bl	I2C_WaitOnRXNEFlagUntilTimeout
 1516 00f0 0346     		mov	r3, r0
 1517 00f2 002B     		cmp	r3, #0
 1518 00f4 27D0     		beq	.L75
1068:../../Drivers/STM32F7xx_HAL_Driver/Src/stm32f7xx_hal_i2c.c ****       {
1069:../../Drivers/STM32F7xx_HAL_Driver/Src/stm32f7xx_hal_i2c.c ****         /* Disable Address Acknowledge */
1070:../../Drivers/STM32F7xx_HAL_Driver/Src/stm32f7xx_hal_i2c.c ****         hi2c->Instance->CR2 |= I2C_CR2_NACK;
 1519              		.loc 1 1070 0
 1520 00f6 FB68     		ldr	r3, [r7, #12]
 1521 00f8 1B68     		ldr	r3, [r3]
 1522 00fa FA68     		ldr	r2, [r7, #12]
 1523 00fc 1268     		ldr	r2, [r2]
 1524 00fe 5268     		ldr	r2, [r2, #4]
 1525 0100 42F40042 		orr	r2, r2, #32768
 1526 0104 5A60     		str	r2, [r3, #4]
1071:../../Drivers/STM32F7xx_HAL_Driver/Src/stm32f7xx_hal_i2c.c ****     
1072:../../Drivers/STM32F7xx_HAL_Driver/Src/stm32f7xx_hal_i2c.c ****         /* Store Last receive data if any */
1073:../../Drivers/STM32F7xx_HAL_Driver/Src/stm32f7xx_hal_i2c.c ****         if(__HAL_I2C_GET_FLAG(hi2c, I2C_FLAG_RXNE) == SET)
 1527              		.loc 1 1073 0
 1528 0106 FB68     		ldr	r3, [r7, #12]
 1529 0108 1B68     		ldr	r3, [r3]
 1530 010a 9B69     		ldr	r3, [r3, #24]
 1531 010c 03F00403 		and	r3, r3, #4
 1532 0110 002B     		cmp	r3, #0
 1533 0112 10D0     		beq	.L76
1074:../../Drivers/STM32F7xx_HAL_Driver/Src/stm32f7xx_hal_i2c.c ****         {
1075:../../Drivers/STM32F7xx_HAL_Driver/Src/stm32f7xx_hal_i2c.c ****           /* Read data from RXDR */
1076:../../Drivers/STM32F7xx_HAL_Driver/Src/stm32f7xx_hal_i2c.c ****           (*hi2c->pBuffPtr++) = hi2c->Instance->RXDR;
 1534              		.loc 1 1076 0
 1535 0114 FB68     		ldr	r3, [r7, #12]
 1536 0116 5B6A     		ldr	r3, [r3, #36]
 1537 0118 591C     		adds	r1, r3, #1
 1538 011a FA68     		ldr	r2, [r7, #12]
 1539 011c 5162     		str	r1, [r2, #36]
 1540 011e FA68     		ldr	r2, [r7, #12]
 1541 0120 1268     		ldr	r2, [r2]
 1542 0122 526A     		ldr	r2, [r2, #36]
 1543 0124 D2B2     		uxtb	r2, r2
 1544 0126 1A70     		strb	r2, [r3]
1077:../../Drivers/STM32F7xx_HAL_Driver/Src/stm32f7xx_hal_i2c.c ****           hi2c->XferCount--;
 1545              		.loc 1 1077 0
 1546 0128 FB68     		ldr	r3, [r7, #12]
 1547 012a 5B8D     		ldrh	r3, [r3, #42]	@ movhi
 1548 012c 9BB2     		uxth	r3, r3
 1549 012e 013B     		subs	r3, r3, #1
 1550 0130 9AB2     		uxth	r2, r3
 1551 0132 FB68     		ldr	r3, [r7, #12]
 1552 0134 5A85     		strh	r2, [r3, #42]	@ movhi
 1553              	.L76:
1078:../../Drivers/STM32F7xx_HAL_Driver/Src/stm32f7xx_hal_i2c.c ****         }
1079:../../Drivers/STM32F7xx_HAL_Driver/Src/stm32f7xx_hal_i2c.c **** 
1080:../../Drivers/STM32F7xx_HAL_Driver/Src/stm32f7xx_hal_i2c.c ****         if(hi2c->ErrorCode == HAL_I2C_ERROR_TIMEOUT)
 1554              		.loc 1 1080 0
ARM GAS  /tmp/cczIhzQ0.s 			page 47


 1555 0136 FB68     		ldr	r3, [r7, #12]
 1556 0138 5B6C     		ldr	r3, [r3, #68]
 1557 013a 202B     		cmp	r3, #32
 1558 013c 01D1     		bne	.L77
1081:../../Drivers/STM32F7xx_HAL_Driver/Src/stm32f7xx_hal_i2c.c ****         {
1082:../../Drivers/STM32F7xx_HAL_Driver/Src/stm32f7xx_hal_i2c.c ****           return HAL_TIMEOUT;
 1559              		.loc 1 1082 0
 1560 013e 0323     		movs	r3, #3
 1561 0140 60E0     		b	.L70
 1562              	.L77:
1083:../../Drivers/STM32F7xx_HAL_Driver/Src/stm32f7xx_hal_i2c.c ****         }
1084:../../Drivers/STM32F7xx_HAL_Driver/Src/stm32f7xx_hal_i2c.c ****         else
1085:../../Drivers/STM32F7xx_HAL_Driver/Src/stm32f7xx_hal_i2c.c ****         {
1086:../../Drivers/STM32F7xx_HAL_Driver/Src/stm32f7xx_hal_i2c.c ****           return HAL_ERROR;
 1563              		.loc 1 1086 0
 1564 0142 0123     		movs	r3, #1
 1565 0144 5EE0     		b	.L70
 1566              	.L75:
1087:../../Drivers/STM32F7xx_HAL_Driver/Src/stm32f7xx_hal_i2c.c ****         }
1088:../../Drivers/STM32F7xx_HAL_Driver/Src/stm32f7xx_hal_i2c.c ****       }
1089:../../Drivers/STM32F7xx_HAL_Driver/Src/stm32f7xx_hal_i2c.c ****       
1090:../../Drivers/STM32F7xx_HAL_Driver/Src/stm32f7xx_hal_i2c.c ****       /* Read data from RXDR */
1091:../../Drivers/STM32F7xx_HAL_Driver/Src/stm32f7xx_hal_i2c.c ****       (*hi2c->pBuffPtr++) = hi2c->Instance->RXDR;
 1567              		.loc 1 1091 0
 1568 0146 FB68     		ldr	r3, [r7, #12]
 1569 0148 5B6A     		ldr	r3, [r3, #36]
 1570 014a 591C     		adds	r1, r3, #1
 1571 014c FA68     		ldr	r2, [r7, #12]
 1572 014e 5162     		str	r1, [r2, #36]
 1573 0150 FA68     		ldr	r2, [r7, #12]
 1574 0152 1268     		ldr	r2, [r2]
 1575 0154 526A     		ldr	r2, [r2, #36]
 1576 0156 D2B2     		uxtb	r2, r2
 1577 0158 1A70     		strb	r2, [r3]
1092:../../Drivers/STM32F7xx_HAL_Driver/Src/stm32f7xx_hal_i2c.c ****       hi2c->XferCount--;
 1578              		.loc 1 1092 0
 1579 015a FB68     		ldr	r3, [r7, #12]
 1580 015c 5B8D     		ldrh	r3, [r3, #42]	@ movhi
 1581 015e 9BB2     		uxth	r3, r3
 1582 0160 013B     		subs	r3, r3, #1
 1583 0162 9AB2     		uxth	r2, r3
 1584 0164 FB68     		ldr	r3, [r7, #12]
 1585 0166 5A85     		strh	r2, [r3, #42]	@ movhi
 1586              	.L74:
1064:../../Drivers/STM32F7xx_HAL_Driver/Src/stm32f7xx_hal_i2c.c ****     {
 1587              		.loc 1 1064 0
 1588 0168 FB68     		ldr	r3, [r7, #12]
 1589 016a 5B8D     		ldrh	r3, [r3, #42]	@ movhi
 1590 016c 9BB2     		uxth	r3, r3
 1591 016e 002B     		cmp	r3, #0
 1592 0170 B9D1     		bne	.L78
1093:../../Drivers/STM32F7xx_HAL_Driver/Src/stm32f7xx_hal_i2c.c ****     }
1094:../../Drivers/STM32F7xx_HAL_Driver/Src/stm32f7xx_hal_i2c.c ****     
1095:../../Drivers/STM32F7xx_HAL_Driver/Src/stm32f7xx_hal_i2c.c ****     /* Wait until STOP flag is set */
1096:../../Drivers/STM32F7xx_HAL_Driver/Src/stm32f7xx_hal_i2c.c ****     if(I2C_WaitOnSTOPFlagUntilTimeout(hi2c, Timeout, tickstart) != HAL_OK)
 1593              		.loc 1 1096 0
 1594 0172 F868     		ldr	r0, [r7, #12]
ARM GAS  /tmp/cczIhzQ0.s 			page 48


 1595 0174 3968     		ldr	r1, [r7]
 1596 0176 7A69     		ldr	r2, [r7, #20]
 1597 0178 FFF7FEFF 		bl	I2C_WaitOnSTOPFlagUntilTimeout
 1598 017c 0346     		mov	r3, r0
 1599 017e 002B     		cmp	r3, #0
 1600 0180 0FD0     		beq	.L79
1097:../../Drivers/STM32F7xx_HAL_Driver/Src/stm32f7xx_hal_i2c.c ****     {
1098:../../Drivers/STM32F7xx_HAL_Driver/Src/stm32f7xx_hal_i2c.c ****       /* Disable Address Acknowledge */
1099:../../Drivers/STM32F7xx_HAL_Driver/Src/stm32f7xx_hal_i2c.c ****       hi2c->Instance->CR2 |= I2C_CR2_NACK;
 1601              		.loc 1 1099 0
 1602 0182 FB68     		ldr	r3, [r7, #12]
 1603 0184 1B68     		ldr	r3, [r3]
 1604 0186 FA68     		ldr	r2, [r7, #12]
 1605 0188 1268     		ldr	r2, [r2]
 1606 018a 5268     		ldr	r2, [r2, #4]
 1607 018c 42F40042 		orr	r2, r2, #32768
 1608 0190 5A60     		str	r2, [r3, #4]
1100:../../Drivers/STM32F7xx_HAL_Driver/Src/stm32f7xx_hal_i2c.c ****       
1101:../../Drivers/STM32F7xx_HAL_Driver/Src/stm32f7xx_hal_i2c.c ****       if(hi2c->ErrorCode == HAL_I2C_ERROR_AF)
 1609              		.loc 1 1101 0
 1610 0192 FB68     		ldr	r3, [r7, #12]
 1611 0194 5B6C     		ldr	r3, [r3, #68]
 1612 0196 042B     		cmp	r3, #4
 1613 0198 01D1     		bne	.L80
1102:../../Drivers/STM32F7xx_HAL_Driver/Src/stm32f7xx_hal_i2c.c ****       {
1103:../../Drivers/STM32F7xx_HAL_Driver/Src/stm32f7xx_hal_i2c.c ****         return HAL_ERROR;
 1614              		.loc 1 1103 0
 1615 019a 0123     		movs	r3, #1
 1616 019c 32E0     		b	.L70
 1617              	.L80:
1104:../../Drivers/STM32F7xx_HAL_Driver/Src/stm32f7xx_hal_i2c.c ****       }
1105:../../Drivers/STM32F7xx_HAL_Driver/Src/stm32f7xx_hal_i2c.c ****       else
1106:../../Drivers/STM32F7xx_HAL_Driver/Src/stm32f7xx_hal_i2c.c ****       {
1107:../../Drivers/STM32F7xx_HAL_Driver/Src/stm32f7xx_hal_i2c.c ****         return HAL_TIMEOUT;
 1618              		.loc 1 1107 0
 1619 019e 0323     		movs	r3, #3
 1620 01a0 30E0     		b	.L70
 1621              	.L79:
1108:../../Drivers/STM32F7xx_HAL_Driver/Src/stm32f7xx_hal_i2c.c ****       }
1109:../../Drivers/STM32F7xx_HAL_Driver/Src/stm32f7xx_hal_i2c.c ****     }
1110:../../Drivers/STM32F7xx_HAL_Driver/Src/stm32f7xx_hal_i2c.c ****     
1111:../../Drivers/STM32F7xx_HAL_Driver/Src/stm32f7xx_hal_i2c.c ****     /* Clear STOP flag */
1112:../../Drivers/STM32F7xx_HAL_Driver/Src/stm32f7xx_hal_i2c.c ****     __HAL_I2C_CLEAR_FLAG(hi2c,I2C_FLAG_STOPF);
 1622              		.loc 1 1112 0
 1623 01a2 FB68     		ldr	r3, [r7, #12]
 1624 01a4 1B68     		ldr	r3, [r3]
 1625 01a6 2022     		movs	r2, #32
 1626 01a8 DA61     		str	r2, [r3, #28]
1113:../../Drivers/STM32F7xx_HAL_Driver/Src/stm32f7xx_hal_i2c.c ****     
1114:../../Drivers/STM32F7xx_HAL_Driver/Src/stm32f7xx_hal_i2c.c ****     /* Wait until BUSY flag is reset */
1115:../../Drivers/STM32F7xx_HAL_Driver/Src/stm32f7xx_hal_i2c.c ****     if(I2C_WaitOnFlagUntilTimeout(hi2c, I2C_FLAG_BUSY, SET, Timeout, tickstart) != HAL_OK)
 1627              		.loc 1 1115 0
 1628 01aa 7B69     		ldr	r3, [r7, #20]
 1629 01ac 0093     		str	r3, [sp]
 1630 01ae F868     		ldr	r0, [r7, #12]
 1631 01b0 4FF40041 		mov	r1, #32768
 1632 01b4 0122     		movs	r2, #1
ARM GAS  /tmp/cczIhzQ0.s 			page 49


 1633 01b6 3B68     		ldr	r3, [r7]
 1634 01b8 FFF7FEFF 		bl	I2C_WaitOnFlagUntilTimeout
 1635 01bc 0346     		mov	r3, r0
 1636 01be 002B     		cmp	r3, #0
 1637 01c0 09D0     		beq	.L81
1116:../../Drivers/STM32F7xx_HAL_Driver/Src/stm32f7xx_hal_i2c.c ****     {
1117:../../Drivers/STM32F7xx_HAL_Driver/Src/stm32f7xx_hal_i2c.c ****       /* Disable Address Acknowledge */
1118:../../Drivers/STM32F7xx_HAL_Driver/Src/stm32f7xx_hal_i2c.c ****       hi2c->Instance->CR2 |= I2C_CR2_NACK;
 1638              		.loc 1 1118 0
 1639 01c2 FB68     		ldr	r3, [r7, #12]
 1640 01c4 1B68     		ldr	r3, [r3]
 1641 01c6 FA68     		ldr	r2, [r7, #12]
 1642 01c8 1268     		ldr	r2, [r2]
 1643 01ca 5268     		ldr	r2, [r2, #4]
 1644 01cc 42F40042 		orr	r2, r2, #32768
 1645 01d0 5A60     		str	r2, [r3, #4]
1119:../../Drivers/STM32F7xx_HAL_Driver/Src/stm32f7xx_hal_i2c.c ****       return HAL_TIMEOUT;
 1646              		.loc 1 1119 0
 1647 01d2 0323     		movs	r3, #3
 1648 01d4 16E0     		b	.L70
 1649              	.L81:
1120:../../Drivers/STM32F7xx_HAL_Driver/Src/stm32f7xx_hal_i2c.c ****     }
1121:../../Drivers/STM32F7xx_HAL_Driver/Src/stm32f7xx_hal_i2c.c ****     
1122:../../Drivers/STM32F7xx_HAL_Driver/Src/stm32f7xx_hal_i2c.c ****     /* Disable Address Acknowledge */
1123:../../Drivers/STM32F7xx_HAL_Driver/Src/stm32f7xx_hal_i2c.c ****     hi2c->Instance->CR2 |= I2C_CR2_NACK;
 1650              		.loc 1 1123 0
 1651 01d6 FB68     		ldr	r3, [r7, #12]
 1652 01d8 1B68     		ldr	r3, [r3]
 1653 01da FA68     		ldr	r2, [r7, #12]
 1654 01dc 1268     		ldr	r2, [r2]
 1655 01de 5268     		ldr	r2, [r2, #4]
 1656 01e0 42F40042 		orr	r2, r2, #32768
 1657 01e4 5A60     		str	r2, [r3, #4]
1124:../../Drivers/STM32F7xx_HAL_Driver/Src/stm32f7xx_hal_i2c.c ****     
1125:../../Drivers/STM32F7xx_HAL_Driver/Src/stm32f7xx_hal_i2c.c ****     hi2c->State = HAL_I2C_STATE_READY;
 1658              		.loc 1 1125 0
 1659 01e6 FB68     		ldr	r3, [r7, #12]
 1660 01e8 2022     		movs	r2, #32
 1661 01ea 83F84120 		strb	r2, [r3, #65]
1126:../../Drivers/STM32F7xx_HAL_Driver/Src/stm32f7xx_hal_i2c.c ****     hi2c->Mode  = HAL_I2C_MODE_NONE;
 1662              		.loc 1 1126 0
 1663 01ee FB68     		ldr	r3, [r7, #12]
 1664 01f0 0022     		movs	r2, #0
 1665 01f2 83F84220 		strb	r2, [r3, #66]
1127:../../Drivers/STM32F7xx_HAL_Driver/Src/stm32f7xx_hal_i2c.c ****     
1128:../../Drivers/STM32F7xx_HAL_Driver/Src/stm32f7xx_hal_i2c.c ****     /* Process Unlocked */
1129:../../Drivers/STM32F7xx_HAL_Driver/Src/stm32f7xx_hal_i2c.c ****     __HAL_UNLOCK(hi2c);
 1666              		.loc 1 1129 0
 1667 01f6 FB68     		ldr	r3, [r7, #12]
 1668 01f8 0022     		movs	r2, #0
 1669 01fa 83F84020 		strb	r2, [r3, #64]
1130:../../Drivers/STM32F7xx_HAL_Driver/Src/stm32f7xx_hal_i2c.c ****     
1131:../../Drivers/STM32F7xx_HAL_Driver/Src/stm32f7xx_hal_i2c.c ****     return HAL_OK;
 1670              		.loc 1 1131 0
 1671 01fe 0023     		movs	r3, #0
 1672 0200 00E0     		b	.L70
 1673              	.L67:
ARM GAS  /tmp/cczIhzQ0.s 			page 50


1132:../../Drivers/STM32F7xx_HAL_Driver/Src/stm32f7xx_hal_i2c.c ****   }
1133:../../Drivers/STM32F7xx_HAL_Driver/Src/stm32f7xx_hal_i2c.c ****   else
1134:../../Drivers/STM32F7xx_HAL_Driver/Src/stm32f7xx_hal_i2c.c ****   {
1135:../../Drivers/STM32F7xx_HAL_Driver/Src/stm32f7xx_hal_i2c.c ****     return HAL_BUSY;
 1674              		.loc 1 1135 0
 1675 0202 0223     		movs	r3, #2
 1676              	.L70:
1136:../../Drivers/STM32F7xx_HAL_Driver/Src/stm32f7xx_hal_i2c.c ****   }
1137:../../Drivers/STM32F7xx_HAL_Driver/Src/stm32f7xx_hal_i2c.c **** }
 1677              		.loc 1 1137 0
 1678 0204 1846     		mov	r0, r3
 1679 0206 1837     		adds	r7, r7, #24
 1680              	.LCFI40:
 1681              		.cfi_def_cfa_offset 8
 1682 0208 BD46     		mov	sp, r7
 1683              	.LCFI41:
 1684              		.cfi_def_cfa_register 13
 1685              		@ sp needed
 1686 020a 80BD     		pop	{r7, pc}
 1687              		.cfi_endproc
 1688              	.LFE142:
 1690              		.section	.text.HAL_I2C_Master_Transmit_IT,"ax",%progbits
 1691              		.align	2
 1692              		.global	HAL_I2C_Master_Transmit_IT
 1693              		.thumb
 1694              		.thumb_func
 1696              	HAL_I2C_Master_Transmit_IT:
 1697              	.LFB143:
1138:../../Drivers/STM32F7xx_HAL_Driver/Src/stm32f7xx_hal_i2c.c **** 
1139:../../Drivers/STM32F7xx_HAL_Driver/Src/stm32f7xx_hal_i2c.c **** /**
1140:../../Drivers/STM32F7xx_HAL_Driver/Src/stm32f7xx_hal_i2c.c ****   * @brief  Transmit in master mode an amount of data in non-blocking mode with Interrupt
1141:../../Drivers/STM32F7xx_HAL_Driver/Src/stm32f7xx_hal_i2c.c ****   * @param  hi2c: Pointer to a I2C_HandleTypeDef structure that contains
1142:../../Drivers/STM32F7xx_HAL_Driver/Src/stm32f7xx_hal_i2c.c ****   *               the configuration information for the specified I2C.
1143:../../Drivers/STM32F7xx_HAL_Driver/Src/stm32f7xx_hal_i2c.c ****   * @param  DevAddress: Target device address. The device 7 bits address value
1144:../../Drivers/STM32F7xx_HAL_Driver/Src/stm32f7xx_hal_i2c.c ****   *         in datasheet must be shift at right before call interface
1145:../../Drivers/STM32F7xx_HAL_Driver/Src/stm32f7xx_hal_i2c.c ****   * @param  pData: Pointer to data buffer
1146:../../Drivers/STM32F7xx_HAL_Driver/Src/stm32f7xx_hal_i2c.c ****   * @param  Size: Amount of data to be sent
1147:../../Drivers/STM32F7xx_HAL_Driver/Src/stm32f7xx_hal_i2c.c ****   * @retval HAL status
1148:../../Drivers/STM32F7xx_HAL_Driver/Src/stm32f7xx_hal_i2c.c ****   */
1149:../../Drivers/STM32F7xx_HAL_Driver/Src/stm32f7xx_hal_i2c.c **** HAL_StatusTypeDef HAL_I2C_Master_Transmit_IT(I2C_HandleTypeDef *hi2c, uint16_t DevAddress, uint8_t 
1150:../../Drivers/STM32F7xx_HAL_Driver/Src/stm32f7xx_hal_i2c.c **** {
 1698              		.loc 1 1150 0
 1699              		.cfi_startproc
 1700              		@ args = 0, pretend = 0, frame = 24
 1701              		@ frame_needed = 1, uses_anonymous_args = 0
 1702 0000 80B5     		push	{r7, lr}
 1703              	.LCFI42:
 1704              		.cfi_def_cfa_offset 8
 1705              		.cfi_offset 7, -8
 1706              		.cfi_offset 14, -4
 1707 0002 88B0     		sub	sp, sp, #32
 1708              	.LCFI43:
 1709              		.cfi_def_cfa_offset 40
 1710 0004 02AF     		add	r7, sp, #8
 1711              	.LCFI44:
 1712              		.cfi_def_cfa 7, 32
 1713 0006 F860     		str	r0, [r7, #12]
ARM GAS  /tmp/cczIhzQ0.s 			page 51


 1714 0008 7A60     		str	r2, [r7, #4]
 1715 000a 1A46     		mov	r2, r3
 1716 000c 0B46     		mov	r3, r1	@ movhi
 1717 000e 7B81     		strh	r3, [r7, #10]	@ movhi
 1718 0010 1346     		mov	r3, r2	@ movhi
 1719 0012 3B81     		strh	r3, [r7, #8]	@ movhi
1151:../../Drivers/STM32F7xx_HAL_Driver/Src/stm32f7xx_hal_i2c.c ****   uint32_t xfermode = 0;
 1720              		.loc 1 1151 0
 1721 0014 0023     		movs	r3, #0
 1722 0016 7B61     		str	r3, [r7, #20]
1152:../../Drivers/STM32F7xx_HAL_Driver/Src/stm32f7xx_hal_i2c.c ****   
1153:../../Drivers/STM32F7xx_HAL_Driver/Src/stm32f7xx_hal_i2c.c ****   if(hi2c->State == HAL_I2C_STATE_READY)
 1723              		.loc 1 1153 0
 1724 0018 FB68     		ldr	r3, [r7, #12]
 1725 001a 93F84130 		ldrb	r3, [r3, #65]
 1726 001e DBB2     		uxtb	r3, r3
 1727 0020 202B     		cmp	r3, #32
 1728 0022 53D1     		bne	.L83
1154:../../Drivers/STM32F7xx_HAL_Driver/Src/stm32f7xx_hal_i2c.c ****   {
1155:../../Drivers/STM32F7xx_HAL_Driver/Src/stm32f7xx_hal_i2c.c ****     if(__HAL_I2C_GET_FLAG(hi2c, I2C_FLAG_BUSY) == SET)
 1729              		.loc 1 1155 0
 1730 0024 FB68     		ldr	r3, [r7, #12]
 1731 0026 1B68     		ldr	r3, [r3]
 1732 0028 9B69     		ldr	r3, [r3, #24]
 1733 002a 03F40043 		and	r3, r3, #32768
 1734 002e 002B     		cmp	r3, #0
 1735 0030 01D0     		beq	.L84
1156:../../Drivers/STM32F7xx_HAL_Driver/Src/stm32f7xx_hal_i2c.c ****     {
1157:../../Drivers/STM32F7xx_HAL_Driver/Src/stm32f7xx_hal_i2c.c ****       return HAL_BUSY;
 1736              		.loc 1 1157 0
 1737 0032 0223     		movs	r3, #2
 1738 0034 4BE0     		b	.L85
 1739              	.L84:
1158:../../Drivers/STM32F7xx_HAL_Driver/Src/stm32f7xx_hal_i2c.c ****     }
1159:../../Drivers/STM32F7xx_HAL_Driver/Src/stm32f7xx_hal_i2c.c ****     
1160:../../Drivers/STM32F7xx_HAL_Driver/Src/stm32f7xx_hal_i2c.c ****     /* Process Locked */
1161:../../Drivers/STM32F7xx_HAL_Driver/Src/stm32f7xx_hal_i2c.c ****     __HAL_LOCK(hi2c);
 1740              		.loc 1 1161 0
 1741 0036 FB68     		ldr	r3, [r7, #12]
 1742 0038 93F84030 		ldrb	r3, [r3, #64]	@ zero_extendqisi2
 1743 003c 012B     		cmp	r3, #1
 1744 003e 01D1     		bne	.L86
 1745              		.loc 1 1161 0 is_stmt 0 discriminator 1
 1746 0040 0223     		movs	r3, #2
 1747 0042 44E0     		b	.L85
 1748              	.L86:
 1749              		.loc 1 1161 0 discriminator 2
 1750 0044 FB68     		ldr	r3, [r7, #12]
 1751 0046 0122     		movs	r2, #1
 1752 0048 83F84020 		strb	r2, [r3, #64]
1162:../../Drivers/STM32F7xx_HAL_Driver/Src/stm32f7xx_hal_i2c.c ****     
1163:../../Drivers/STM32F7xx_HAL_Driver/Src/stm32f7xx_hal_i2c.c ****     hi2c->State       = HAL_I2C_STATE_BUSY_TX;
 1753              		.loc 1 1163 0 is_stmt 1 discriminator 2
 1754 004c FB68     		ldr	r3, [r7, #12]
 1755 004e 2122     		movs	r2, #33
 1756 0050 83F84120 		strb	r2, [r3, #65]
1164:../../Drivers/STM32F7xx_HAL_Driver/Src/stm32f7xx_hal_i2c.c ****     hi2c->Mode        = HAL_I2C_MODE_MASTER;
ARM GAS  /tmp/cczIhzQ0.s 			page 52


 1757              		.loc 1 1164 0 discriminator 2
 1758 0054 FB68     		ldr	r3, [r7, #12]
 1759 0056 1022     		movs	r2, #16
 1760 0058 83F84220 		strb	r2, [r3, #66]
1165:../../Drivers/STM32F7xx_HAL_Driver/Src/stm32f7xx_hal_i2c.c ****     hi2c->ErrorCode   = HAL_I2C_ERROR_NONE;
 1761              		.loc 1 1165 0 discriminator 2
 1762 005c FB68     		ldr	r3, [r7, #12]
 1763 005e 0022     		movs	r2, #0
 1764 0060 5A64     		str	r2, [r3, #68]
1166:../../Drivers/STM32F7xx_HAL_Driver/Src/stm32f7xx_hal_i2c.c ****     
1167:../../Drivers/STM32F7xx_HAL_Driver/Src/stm32f7xx_hal_i2c.c ****     /* Prepare transfer parameters */
1168:../../Drivers/STM32F7xx_HAL_Driver/Src/stm32f7xx_hal_i2c.c ****     hi2c->pBuffPtr    = pData;
 1765              		.loc 1 1168 0 discriminator 2
 1766 0062 FB68     		ldr	r3, [r7, #12]
 1767 0064 7A68     		ldr	r2, [r7, #4]
 1768 0066 5A62     		str	r2, [r3, #36]
1169:../../Drivers/STM32F7xx_HAL_Driver/Src/stm32f7xx_hal_i2c.c ****     hi2c->XferCount   = Size;
 1769              		.loc 1 1169 0 discriminator 2
 1770 0068 FB68     		ldr	r3, [r7, #12]
 1771 006a 3A89     		ldrh	r2, [r7, #8]	@ movhi
 1772 006c 5A85     		strh	r2, [r3, #42]	@ movhi
1170:../../Drivers/STM32F7xx_HAL_Driver/Src/stm32f7xx_hal_i2c.c ****     hi2c->XferOptions = I2C_NO_OPTION_FRAME;
 1773              		.loc 1 1170 0 discriminator 2
 1774 006e FB68     		ldr	r3, [r7, #12]
 1775 0070 194A     		ldr	r2, .L89
 1776 0072 DA62     		str	r2, [r3, #44]
1171:../../Drivers/STM32F7xx_HAL_Driver/Src/stm32f7xx_hal_i2c.c ****     hi2c->XferISR     = I2C_Master_ISR_IT;
 1777              		.loc 1 1171 0 discriminator 2
 1778 0074 FB68     		ldr	r3, [r7, #12]
 1779 0076 194A     		ldr	r2, .L89+4
 1780 0078 5A63     		str	r2, [r3, #52]
1172:../../Drivers/STM32F7xx_HAL_Driver/Src/stm32f7xx_hal_i2c.c ****     
1173:../../Drivers/STM32F7xx_HAL_Driver/Src/stm32f7xx_hal_i2c.c ****     if(hi2c->XferCount > MAX_NBYTE_SIZE)
 1781              		.loc 1 1173 0 discriminator 2
 1782 007a FB68     		ldr	r3, [r7, #12]
 1783 007c 5B8D     		ldrh	r3, [r3, #42]	@ movhi
 1784 007e 9BB2     		uxth	r3, r3
 1785 0080 FF2B     		cmp	r3, #255
 1786 0082 06D9     		bls	.L87
1174:../../Drivers/STM32F7xx_HAL_Driver/Src/stm32f7xx_hal_i2c.c ****     {
1175:../../Drivers/STM32F7xx_HAL_Driver/Src/stm32f7xx_hal_i2c.c ****       hi2c->XferSize = MAX_NBYTE_SIZE;
 1787              		.loc 1 1175 0
 1788 0084 FB68     		ldr	r3, [r7, #12]
 1789 0086 FF22     		movs	r2, #255
 1790 0088 1A85     		strh	r2, [r3, #40]	@ movhi
1176:../../Drivers/STM32F7xx_HAL_Driver/Src/stm32f7xx_hal_i2c.c ****       xfermode = I2C_RELOAD_MODE;
 1791              		.loc 1 1176 0
 1792 008a 4FF08073 		mov	r3, #16777216
 1793 008e 7B61     		str	r3, [r7, #20]
 1794 0090 07E0     		b	.L88
 1795              	.L87:
1177:../../Drivers/STM32F7xx_HAL_Driver/Src/stm32f7xx_hal_i2c.c ****     }
1178:../../Drivers/STM32F7xx_HAL_Driver/Src/stm32f7xx_hal_i2c.c ****     else
1179:../../Drivers/STM32F7xx_HAL_Driver/Src/stm32f7xx_hal_i2c.c ****     {
1180:../../Drivers/STM32F7xx_HAL_Driver/Src/stm32f7xx_hal_i2c.c ****       hi2c->XferSize = hi2c->XferCount;
 1796              		.loc 1 1180 0
 1797 0092 FB68     		ldr	r3, [r7, #12]
ARM GAS  /tmp/cczIhzQ0.s 			page 53


 1798 0094 5B8D     		ldrh	r3, [r3, #42]	@ movhi
 1799 0096 9AB2     		uxth	r2, r3
 1800 0098 FB68     		ldr	r3, [r7, #12]
 1801 009a 1A85     		strh	r2, [r3, #40]	@ movhi
1181:../../Drivers/STM32F7xx_HAL_Driver/Src/stm32f7xx_hal_i2c.c ****       xfermode = I2C_AUTOEND_MODE;
 1802              		.loc 1 1181 0
 1803 009c 4FF00073 		mov	r3, #33554432
 1804 00a0 7B61     		str	r3, [r7, #20]
 1805              	.L88:
1182:../../Drivers/STM32F7xx_HAL_Driver/Src/stm32f7xx_hal_i2c.c ****     }
1183:../../Drivers/STM32F7xx_HAL_Driver/Src/stm32f7xx_hal_i2c.c ****     
1184:../../Drivers/STM32F7xx_HAL_Driver/Src/stm32f7xx_hal_i2c.c ****     /* Send Slave Address */
1185:../../Drivers/STM32F7xx_HAL_Driver/Src/stm32f7xx_hal_i2c.c ****     /* Set NBYTES to write and reload if hi2c->XferCount > MAX_NBYTE_SIZE */
1186:../../Drivers/STM32F7xx_HAL_Driver/Src/stm32f7xx_hal_i2c.c ****     I2C_TransferConfig(hi2c, DevAddress, hi2c->XferSize, xfermode, I2C_GENERATE_START_WRITE);
 1806              		.loc 1 1186 0
 1807 00a2 FB68     		ldr	r3, [r7, #12]
 1808 00a4 1B8D     		ldrh	r3, [r3, #40]
 1809 00a6 DAB2     		uxtb	r2, r3
 1810 00a8 7989     		ldrh	r1, [r7, #10]
 1811 00aa 4FF40053 		mov	r3, #8192
 1812 00ae 0093     		str	r3, [sp]
 1813 00b0 F868     		ldr	r0, [r7, #12]
 1814 00b2 7B69     		ldr	r3, [r7, #20]
 1815 00b4 FFF7FEFF 		bl	I2C_TransferConfig
1187:../../Drivers/STM32F7xx_HAL_Driver/Src/stm32f7xx_hal_i2c.c ****     
1188:../../Drivers/STM32F7xx_HAL_Driver/Src/stm32f7xx_hal_i2c.c ****     /* Process Unlocked */
1189:../../Drivers/STM32F7xx_HAL_Driver/Src/stm32f7xx_hal_i2c.c ****     __HAL_UNLOCK(hi2c); 
 1816              		.loc 1 1189 0
 1817 00b8 FB68     		ldr	r3, [r7, #12]
 1818 00ba 0022     		movs	r2, #0
 1819 00bc 83F84020 		strb	r2, [r3, #64]
1190:../../Drivers/STM32F7xx_HAL_Driver/Src/stm32f7xx_hal_i2c.c ****     
1191:../../Drivers/STM32F7xx_HAL_Driver/Src/stm32f7xx_hal_i2c.c ****     /* Note : The I2C interrupts must be enabled after unlocking current process
1192:../../Drivers/STM32F7xx_HAL_Driver/Src/stm32f7xx_hal_i2c.c ****               to avoid the risk of I2C interrupt handle execution before current
1193:../../Drivers/STM32F7xx_HAL_Driver/Src/stm32f7xx_hal_i2c.c ****               process unlock */
1194:../../Drivers/STM32F7xx_HAL_Driver/Src/stm32f7xx_hal_i2c.c ****     
1195:../../Drivers/STM32F7xx_HAL_Driver/Src/stm32f7xx_hal_i2c.c ****     /* Enable ERR, TC, STOP, NACK, TXI interrupt */
1196:../../Drivers/STM32F7xx_HAL_Driver/Src/stm32f7xx_hal_i2c.c ****     /* possible to enable all of these */
1197:../../Drivers/STM32F7xx_HAL_Driver/Src/stm32f7xx_hal_i2c.c ****     /* I2C_IT_ERRI | I2C_IT_TCI| I2C_IT_STOPI| I2C_IT_NACKI | I2C_IT_ADDRI | I2C_IT_RXI | I2C_IT_TX
1198:../../Drivers/STM32F7xx_HAL_Driver/Src/stm32f7xx_hal_i2c.c ****     I2C_Enable_IRQ(hi2c, I2C_XFER_TX_IT);
 1820              		.loc 1 1198 0
 1821 00c0 F868     		ldr	r0, [r7, #12]
 1822 00c2 0121     		movs	r1, #1
 1823 00c4 FFF7FEFF 		bl	I2C_Enable_IRQ
1199:../../Drivers/STM32F7xx_HAL_Driver/Src/stm32f7xx_hal_i2c.c ****     
1200:../../Drivers/STM32F7xx_HAL_Driver/Src/stm32f7xx_hal_i2c.c ****     return HAL_OK;
 1824              		.loc 1 1200 0
 1825 00c8 0023     		movs	r3, #0
 1826 00ca 00E0     		b	.L85
 1827              	.L83:
1201:../../Drivers/STM32F7xx_HAL_Driver/Src/stm32f7xx_hal_i2c.c ****   }
1202:../../Drivers/STM32F7xx_HAL_Driver/Src/stm32f7xx_hal_i2c.c ****   else
1203:../../Drivers/STM32F7xx_HAL_Driver/Src/stm32f7xx_hal_i2c.c ****   {
1204:../../Drivers/STM32F7xx_HAL_Driver/Src/stm32f7xx_hal_i2c.c ****     return HAL_BUSY;
 1828              		.loc 1 1204 0
 1829 00cc 0223     		movs	r3, #2
 1830              	.L85:
ARM GAS  /tmp/cczIhzQ0.s 			page 54


1205:../../Drivers/STM32F7xx_HAL_Driver/Src/stm32f7xx_hal_i2c.c ****   }
1206:../../Drivers/STM32F7xx_HAL_Driver/Src/stm32f7xx_hal_i2c.c **** }
 1831              		.loc 1 1206 0
 1832 00ce 1846     		mov	r0, r3
 1833 00d0 1837     		adds	r7, r7, #24
 1834              	.LCFI45:
 1835              		.cfi_def_cfa_offset 8
 1836 00d2 BD46     		mov	sp, r7
 1837              	.LCFI46:
 1838              		.cfi_def_cfa_register 13
 1839              		@ sp needed
 1840 00d4 80BD     		pop	{r7, pc}
 1841              	.L90:
 1842 00d6 00BF     		.align	2
 1843              	.L89:
 1844 00d8 0000FFFF 		.word	-65536
 1845 00dc 00000000 		.word	I2C_Master_ISR_IT
 1846              		.cfi_endproc
 1847              	.LFE143:
 1849              		.section	.text.HAL_I2C_Master_Receive_IT,"ax",%progbits
 1850              		.align	2
 1851              		.global	HAL_I2C_Master_Receive_IT
 1852              		.thumb
 1853              		.thumb_func
 1855              	HAL_I2C_Master_Receive_IT:
 1856              	.LFB144:
1207:../../Drivers/STM32F7xx_HAL_Driver/Src/stm32f7xx_hal_i2c.c **** 
1208:../../Drivers/STM32F7xx_HAL_Driver/Src/stm32f7xx_hal_i2c.c **** /**
1209:../../Drivers/STM32F7xx_HAL_Driver/Src/stm32f7xx_hal_i2c.c ****   * @brief  Receive in master mode an amount of data in non-blocking mode with Interrupt
1210:../../Drivers/STM32F7xx_HAL_Driver/Src/stm32f7xx_hal_i2c.c ****   * @param  hi2c: Pointer to a I2C_HandleTypeDef structure that contains
1211:../../Drivers/STM32F7xx_HAL_Driver/Src/stm32f7xx_hal_i2c.c ****   *               the configuration information for the specified I2C.
1212:../../Drivers/STM32F7xx_HAL_Driver/Src/stm32f7xx_hal_i2c.c ****   * @param  DevAddress: Target device address. The device 7 bits address value
1213:../../Drivers/STM32F7xx_HAL_Driver/Src/stm32f7xx_hal_i2c.c ****   *         in datasheet must be shift at right before call interface
1214:../../Drivers/STM32F7xx_HAL_Driver/Src/stm32f7xx_hal_i2c.c ****   * @param  pData: Pointer to data buffer
1215:../../Drivers/STM32F7xx_HAL_Driver/Src/stm32f7xx_hal_i2c.c ****   * @param  Size: Amount of data to be sent
1216:../../Drivers/STM32F7xx_HAL_Driver/Src/stm32f7xx_hal_i2c.c ****   * @retval HAL status
1217:../../Drivers/STM32F7xx_HAL_Driver/Src/stm32f7xx_hal_i2c.c ****   */
1218:../../Drivers/STM32F7xx_HAL_Driver/Src/stm32f7xx_hal_i2c.c **** HAL_StatusTypeDef HAL_I2C_Master_Receive_IT(I2C_HandleTypeDef *hi2c, uint16_t DevAddress, uint8_t *
1219:../../Drivers/STM32F7xx_HAL_Driver/Src/stm32f7xx_hal_i2c.c **** {
 1857              		.loc 1 1219 0
 1858              		.cfi_startproc
 1859              		@ args = 0, pretend = 0, frame = 24
 1860              		@ frame_needed = 1, uses_anonymous_args = 0
 1861 0000 80B5     		push	{r7, lr}
 1862              	.LCFI47:
 1863              		.cfi_def_cfa_offset 8
 1864              		.cfi_offset 7, -8
 1865              		.cfi_offset 14, -4
 1866 0002 88B0     		sub	sp, sp, #32
 1867              	.LCFI48:
 1868              		.cfi_def_cfa_offset 40
 1869 0004 02AF     		add	r7, sp, #8
 1870              	.LCFI49:
 1871              		.cfi_def_cfa 7, 32
 1872 0006 F860     		str	r0, [r7, #12]
 1873 0008 7A60     		str	r2, [r7, #4]
 1874 000a 1A46     		mov	r2, r3
ARM GAS  /tmp/cczIhzQ0.s 			page 55


 1875 000c 0B46     		mov	r3, r1	@ movhi
 1876 000e 7B81     		strh	r3, [r7, #10]	@ movhi
 1877 0010 1346     		mov	r3, r2	@ movhi
 1878 0012 3B81     		strh	r3, [r7, #8]	@ movhi
1220:../../Drivers/STM32F7xx_HAL_Driver/Src/stm32f7xx_hal_i2c.c ****   uint32_t xfermode = 0;
 1879              		.loc 1 1220 0
 1880 0014 0023     		movs	r3, #0
 1881 0016 7B61     		str	r3, [r7, #20]
1221:../../Drivers/STM32F7xx_HAL_Driver/Src/stm32f7xx_hal_i2c.c ****   
1222:../../Drivers/STM32F7xx_HAL_Driver/Src/stm32f7xx_hal_i2c.c ****   if(hi2c->State == HAL_I2C_STATE_READY)
 1882              		.loc 1 1222 0
 1883 0018 FB68     		ldr	r3, [r7, #12]
 1884 001a 93F84130 		ldrb	r3, [r3, #65]
 1885 001e DBB2     		uxtb	r3, r3
 1886 0020 202B     		cmp	r3, #32
 1887 0022 53D1     		bne	.L92
1223:../../Drivers/STM32F7xx_HAL_Driver/Src/stm32f7xx_hal_i2c.c ****   {
1224:../../Drivers/STM32F7xx_HAL_Driver/Src/stm32f7xx_hal_i2c.c ****     if(__HAL_I2C_GET_FLAG(hi2c, I2C_FLAG_BUSY) == SET)
 1888              		.loc 1 1224 0
 1889 0024 FB68     		ldr	r3, [r7, #12]
 1890 0026 1B68     		ldr	r3, [r3]
 1891 0028 9B69     		ldr	r3, [r3, #24]
 1892 002a 03F40043 		and	r3, r3, #32768
 1893 002e 002B     		cmp	r3, #0
 1894 0030 01D0     		beq	.L93
1225:../../Drivers/STM32F7xx_HAL_Driver/Src/stm32f7xx_hal_i2c.c ****     {
1226:../../Drivers/STM32F7xx_HAL_Driver/Src/stm32f7xx_hal_i2c.c ****       return HAL_BUSY;
 1895              		.loc 1 1226 0
 1896 0032 0223     		movs	r3, #2
 1897 0034 4BE0     		b	.L94
 1898              	.L93:
1227:../../Drivers/STM32F7xx_HAL_Driver/Src/stm32f7xx_hal_i2c.c ****     }
1228:../../Drivers/STM32F7xx_HAL_Driver/Src/stm32f7xx_hal_i2c.c ****     
1229:../../Drivers/STM32F7xx_HAL_Driver/Src/stm32f7xx_hal_i2c.c ****     /* Process Locked */
1230:../../Drivers/STM32F7xx_HAL_Driver/Src/stm32f7xx_hal_i2c.c ****     __HAL_LOCK(hi2c);
 1899              		.loc 1 1230 0
 1900 0036 FB68     		ldr	r3, [r7, #12]
 1901 0038 93F84030 		ldrb	r3, [r3, #64]	@ zero_extendqisi2
 1902 003c 012B     		cmp	r3, #1
 1903 003e 01D1     		bne	.L95
 1904              		.loc 1 1230 0 is_stmt 0 discriminator 1
 1905 0040 0223     		movs	r3, #2
 1906 0042 44E0     		b	.L94
 1907              	.L95:
 1908              		.loc 1 1230 0 discriminator 2
 1909 0044 FB68     		ldr	r3, [r7, #12]
 1910 0046 0122     		movs	r2, #1
 1911 0048 83F84020 		strb	r2, [r3, #64]
1231:../../Drivers/STM32F7xx_HAL_Driver/Src/stm32f7xx_hal_i2c.c ****     
1232:../../Drivers/STM32F7xx_HAL_Driver/Src/stm32f7xx_hal_i2c.c ****     hi2c->State       = HAL_I2C_STATE_BUSY_RX;
 1912              		.loc 1 1232 0 is_stmt 1 discriminator 2
 1913 004c FB68     		ldr	r3, [r7, #12]
 1914 004e 2222     		movs	r2, #34
 1915 0050 83F84120 		strb	r2, [r3, #65]
1233:../../Drivers/STM32F7xx_HAL_Driver/Src/stm32f7xx_hal_i2c.c ****     hi2c->Mode        = HAL_I2C_MODE_MASTER;
 1916              		.loc 1 1233 0 discriminator 2
 1917 0054 FB68     		ldr	r3, [r7, #12]
ARM GAS  /tmp/cczIhzQ0.s 			page 56


 1918 0056 1022     		movs	r2, #16
 1919 0058 83F84220 		strb	r2, [r3, #66]
1234:../../Drivers/STM32F7xx_HAL_Driver/Src/stm32f7xx_hal_i2c.c ****     hi2c->ErrorCode   = HAL_I2C_ERROR_NONE;
 1920              		.loc 1 1234 0 discriminator 2
 1921 005c FB68     		ldr	r3, [r7, #12]
 1922 005e 0022     		movs	r2, #0
 1923 0060 5A64     		str	r2, [r3, #68]
1235:../../Drivers/STM32F7xx_HAL_Driver/Src/stm32f7xx_hal_i2c.c ****     
1236:../../Drivers/STM32F7xx_HAL_Driver/Src/stm32f7xx_hal_i2c.c ****     /* Prepare transfer parameters */
1237:../../Drivers/STM32F7xx_HAL_Driver/Src/stm32f7xx_hal_i2c.c ****     hi2c->pBuffPtr    = pData;
 1924              		.loc 1 1237 0 discriminator 2
 1925 0062 FB68     		ldr	r3, [r7, #12]
 1926 0064 7A68     		ldr	r2, [r7, #4]
 1927 0066 5A62     		str	r2, [r3, #36]
1238:../../Drivers/STM32F7xx_HAL_Driver/Src/stm32f7xx_hal_i2c.c ****     hi2c->XferCount   = Size;
 1928              		.loc 1 1238 0 discriminator 2
 1929 0068 FB68     		ldr	r3, [r7, #12]
 1930 006a 3A89     		ldrh	r2, [r7, #8]	@ movhi
 1931 006c 5A85     		strh	r2, [r3, #42]	@ movhi
1239:../../Drivers/STM32F7xx_HAL_Driver/Src/stm32f7xx_hal_i2c.c ****     hi2c->XferOptions = I2C_NO_OPTION_FRAME;
 1932              		.loc 1 1239 0 discriminator 2
 1933 006e FB68     		ldr	r3, [r7, #12]
 1934 0070 194A     		ldr	r2, .L98
 1935 0072 DA62     		str	r2, [r3, #44]
1240:../../Drivers/STM32F7xx_HAL_Driver/Src/stm32f7xx_hal_i2c.c ****     hi2c->XferISR     = I2C_Master_ISR_IT;
 1936              		.loc 1 1240 0 discriminator 2
 1937 0074 FB68     		ldr	r3, [r7, #12]
 1938 0076 194A     		ldr	r2, .L98+4
 1939 0078 5A63     		str	r2, [r3, #52]
1241:../../Drivers/STM32F7xx_HAL_Driver/Src/stm32f7xx_hal_i2c.c ****     
1242:../../Drivers/STM32F7xx_HAL_Driver/Src/stm32f7xx_hal_i2c.c ****     if(hi2c->XferCount > MAX_NBYTE_SIZE)
 1940              		.loc 1 1242 0 discriminator 2
 1941 007a FB68     		ldr	r3, [r7, #12]
 1942 007c 5B8D     		ldrh	r3, [r3, #42]	@ movhi
 1943 007e 9BB2     		uxth	r3, r3
 1944 0080 FF2B     		cmp	r3, #255
 1945 0082 06D9     		bls	.L96
1243:../../Drivers/STM32F7xx_HAL_Driver/Src/stm32f7xx_hal_i2c.c ****     {
1244:../../Drivers/STM32F7xx_HAL_Driver/Src/stm32f7xx_hal_i2c.c ****       hi2c->XferSize = MAX_NBYTE_SIZE;
 1946              		.loc 1 1244 0
 1947 0084 FB68     		ldr	r3, [r7, #12]
 1948 0086 FF22     		movs	r2, #255
 1949 0088 1A85     		strh	r2, [r3, #40]	@ movhi
1245:../../Drivers/STM32F7xx_HAL_Driver/Src/stm32f7xx_hal_i2c.c ****       xfermode = I2C_RELOAD_MODE;
 1950              		.loc 1 1245 0
 1951 008a 4FF08073 		mov	r3, #16777216
 1952 008e 7B61     		str	r3, [r7, #20]
 1953 0090 07E0     		b	.L97
 1954              	.L96:
1246:../../Drivers/STM32F7xx_HAL_Driver/Src/stm32f7xx_hal_i2c.c ****     }
1247:../../Drivers/STM32F7xx_HAL_Driver/Src/stm32f7xx_hal_i2c.c ****     else
1248:../../Drivers/STM32F7xx_HAL_Driver/Src/stm32f7xx_hal_i2c.c ****     {
1249:../../Drivers/STM32F7xx_HAL_Driver/Src/stm32f7xx_hal_i2c.c ****       hi2c->XferSize = hi2c->XferCount;
 1955              		.loc 1 1249 0
 1956 0092 FB68     		ldr	r3, [r7, #12]
 1957 0094 5B8D     		ldrh	r3, [r3, #42]	@ movhi
 1958 0096 9AB2     		uxth	r2, r3
ARM GAS  /tmp/cczIhzQ0.s 			page 57


 1959 0098 FB68     		ldr	r3, [r7, #12]
 1960 009a 1A85     		strh	r2, [r3, #40]	@ movhi
1250:../../Drivers/STM32F7xx_HAL_Driver/Src/stm32f7xx_hal_i2c.c ****       xfermode = I2C_AUTOEND_MODE;
 1961              		.loc 1 1250 0
 1962 009c 4FF00073 		mov	r3, #33554432
 1963 00a0 7B61     		str	r3, [r7, #20]
 1964              	.L97:
1251:../../Drivers/STM32F7xx_HAL_Driver/Src/stm32f7xx_hal_i2c.c ****     }
1252:../../Drivers/STM32F7xx_HAL_Driver/Src/stm32f7xx_hal_i2c.c ****     
1253:../../Drivers/STM32F7xx_HAL_Driver/Src/stm32f7xx_hal_i2c.c ****     /* Send Slave Address */
1254:../../Drivers/STM32F7xx_HAL_Driver/Src/stm32f7xx_hal_i2c.c ****     /* Set NBYTES to write and reload if hi2c->XferCount > MAX_NBYTE_SIZE */
1255:../../Drivers/STM32F7xx_HAL_Driver/Src/stm32f7xx_hal_i2c.c ****     I2C_TransferConfig(hi2c, DevAddress, hi2c->XferSize, xfermode, I2C_GENERATE_START_READ);
 1965              		.loc 1 1255 0
 1966 00a2 FB68     		ldr	r3, [r7, #12]
 1967 00a4 1B8D     		ldrh	r3, [r3, #40]
 1968 00a6 DAB2     		uxtb	r2, r3
 1969 00a8 7989     		ldrh	r1, [r7, #10]
 1970 00aa 4FF41053 		mov	r3, #9216
 1971 00ae 0093     		str	r3, [sp]
 1972 00b0 F868     		ldr	r0, [r7, #12]
 1973 00b2 7B69     		ldr	r3, [r7, #20]
 1974 00b4 FFF7FEFF 		bl	I2C_TransferConfig
1256:../../Drivers/STM32F7xx_HAL_Driver/Src/stm32f7xx_hal_i2c.c ****     
1257:../../Drivers/STM32F7xx_HAL_Driver/Src/stm32f7xx_hal_i2c.c ****     /* Process Unlocked */
1258:../../Drivers/STM32F7xx_HAL_Driver/Src/stm32f7xx_hal_i2c.c ****     __HAL_UNLOCK(hi2c);
 1975              		.loc 1 1258 0
 1976 00b8 FB68     		ldr	r3, [r7, #12]
 1977 00ba 0022     		movs	r2, #0
 1978 00bc 83F84020 		strb	r2, [r3, #64]
1259:../../Drivers/STM32F7xx_HAL_Driver/Src/stm32f7xx_hal_i2c.c **** 
1260:../../Drivers/STM32F7xx_HAL_Driver/Src/stm32f7xx_hal_i2c.c ****     /* Note : The I2C interrupts must be enabled after unlocking current process
1261:../../Drivers/STM32F7xx_HAL_Driver/Src/stm32f7xx_hal_i2c.c ****               to avoid the risk of I2C interrupt handle execution before current
1262:../../Drivers/STM32F7xx_HAL_Driver/Src/stm32f7xx_hal_i2c.c ****               process unlock */
1263:../../Drivers/STM32F7xx_HAL_Driver/Src/stm32f7xx_hal_i2c.c ****     
1264:../../Drivers/STM32F7xx_HAL_Driver/Src/stm32f7xx_hal_i2c.c ****     /* Enable ERR, TC, STOP, NACK, RXI interrupt */
1265:../../Drivers/STM32F7xx_HAL_Driver/Src/stm32f7xx_hal_i2c.c ****     /* possible to enable all of these */
1266:../../Drivers/STM32F7xx_HAL_Driver/Src/stm32f7xx_hal_i2c.c ****     /* I2C_IT_ERRI | I2C_IT_TCI| I2C_IT_STOPI| I2C_IT_NACKI | I2C_IT_ADDRI | I2C_IT_RXI | I2C_IT_TX
1267:../../Drivers/STM32F7xx_HAL_Driver/Src/stm32f7xx_hal_i2c.c ****     I2C_Enable_IRQ(hi2c, I2C_XFER_RX_IT);
 1979              		.loc 1 1267 0
 1980 00c0 F868     		ldr	r0, [r7, #12]
 1981 00c2 0221     		movs	r1, #2
 1982 00c4 FFF7FEFF 		bl	I2C_Enable_IRQ
1268:../../Drivers/STM32F7xx_HAL_Driver/Src/stm32f7xx_hal_i2c.c ****     
1269:../../Drivers/STM32F7xx_HAL_Driver/Src/stm32f7xx_hal_i2c.c ****     return HAL_OK;
 1983              		.loc 1 1269 0
 1984 00c8 0023     		movs	r3, #0
 1985 00ca 00E0     		b	.L94
 1986              	.L92:
1270:../../Drivers/STM32F7xx_HAL_Driver/Src/stm32f7xx_hal_i2c.c ****   }
1271:../../Drivers/STM32F7xx_HAL_Driver/Src/stm32f7xx_hal_i2c.c ****   else
1272:../../Drivers/STM32F7xx_HAL_Driver/Src/stm32f7xx_hal_i2c.c ****   {
1273:../../Drivers/STM32F7xx_HAL_Driver/Src/stm32f7xx_hal_i2c.c ****     return HAL_BUSY;
 1987              		.loc 1 1273 0
 1988 00cc 0223     		movs	r3, #2
 1989              	.L94:
1274:../../Drivers/STM32F7xx_HAL_Driver/Src/stm32f7xx_hal_i2c.c ****   }
1275:../../Drivers/STM32F7xx_HAL_Driver/Src/stm32f7xx_hal_i2c.c **** }
ARM GAS  /tmp/cczIhzQ0.s 			page 58


 1990              		.loc 1 1275 0
 1991 00ce 1846     		mov	r0, r3
 1992 00d0 1837     		adds	r7, r7, #24
 1993              	.LCFI50:
 1994              		.cfi_def_cfa_offset 8
 1995 00d2 BD46     		mov	sp, r7
 1996              	.LCFI51:
 1997              		.cfi_def_cfa_register 13
 1998              		@ sp needed
 1999 00d4 80BD     		pop	{r7, pc}
 2000              	.L99:
 2001 00d6 00BF     		.align	2
 2002              	.L98:
 2003 00d8 0000FFFF 		.word	-65536
 2004 00dc 00000000 		.word	I2C_Master_ISR_IT
 2005              		.cfi_endproc
 2006              	.LFE144:
 2008              		.section	.text.HAL_I2C_Slave_Transmit_IT,"ax",%progbits
 2009              		.align	2
 2010              		.global	HAL_I2C_Slave_Transmit_IT
 2011              		.thumb
 2012              		.thumb_func
 2014              	HAL_I2C_Slave_Transmit_IT:
 2015              	.LFB145:
1276:../../Drivers/STM32F7xx_HAL_Driver/Src/stm32f7xx_hal_i2c.c **** 
1277:../../Drivers/STM32F7xx_HAL_Driver/Src/stm32f7xx_hal_i2c.c **** /**
1278:../../Drivers/STM32F7xx_HAL_Driver/Src/stm32f7xx_hal_i2c.c ****   * @brief  Transmit in slave mode an amount of data in non-blocking mode with Interrupt
1279:../../Drivers/STM32F7xx_HAL_Driver/Src/stm32f7xx_hal_i2c.c ****   * @param  hi2c: Pointer to a I2C_HandleTypeDef structure that contains
1280:../../Drivers/STM32F7xx_HAL_Driver/Src/stm32f7xx_hal_i2c.c ****   *               the configuration information for the specified I2C.
1281:../../Drivers/STM32F7xx_HAL_Driver/Src/stm32f7xx_hal_i2c.c ****   * @param  pData: Pointer to data buffer
1282:../../Drivers/STM32F7xx_HAL_Driver/Src/stm32f7xx_hal_i2c.c ****   * @param  Size: Amount of data to be sent
1283:../../Drivers/STM32F7xx_HAL_Driver/Src/stm32f7xx_hal_i2c.c ****   * @retval HAL status
1284:../../Drivers/STM32F7xx_HAL_Driver/Src/stm32f7xx_hal_i2c.c ****   */
1285:../../Drivers/STM32F7xx_HAL_Driver/Src/stm32f7xx_hal_i2c.c **** HAL_StatusTypeDef HAL_I2C_Slave_Transmit_IT(I2C_HandleTypeDef *hi2c, uint8_t *pData, uint16_t Size)
1286:../../Drivers/STM32F7xx_HAL_Driver/Src/stm32f7xx_hal_i2c.c **** {
 2016              		.loc 1 1286 0
 2017              		.cfi_startproc
 2018              		@ args = 0, pretend = 0, frame = 16
 2019              		@ frame_needed = 1, uses_anonymous_args = 0
 2020 0000 80B5     		push	{r7, lr}
 2021              	.LCFI52:
 2022              		.cfi_def_cfa_offset 8
 2023              		.cfi_offset 7, -8
 2024              		.cfi_offset 14, -4
 2025 0002 84B0     		sub	sp, sp, #16
 2026              	.LCFI53:
 2027              		.cfi_def_cfa_offset 24
 2028 0004 00AF     		add	r7, sp, #0
 2029              	.LCFI54:
 2030              		.cfi_def_cfa_register 7
 2031 0006 F860     		str	r0, [r7, #12]
 2032 0008 B960     		str	r1, [r7, #8]
 2033 000a 1346     		mov	r3, r2
 2034 000c FB80     		strh	r3, [r7, #6]	@ movhi
1287:../../Drivers/STM32F7xx_HAL_Driver/Src/stm32f7xx_hal_i2c.c ****   if(hi2c->State == HAL_I2C_STATE_READY)
 2035              		.loc 1 1287 0
 2036 000e FB68     		ldr	r3, [r7, #12]
ARM GAS  /tmp/cczIhzQ0.s 			page 59


 2037 0010 93F84130 		ldrb	r3, [r3, #65]
 2038 0014 DBB2     		uxtb	r3, r3
 2039 0016 202B     		cmp	r3, #32
 2040 0018 38D1     		bne	.L101
1288:../../Drivers/STM32F7xx_HAL_Driver/Src/stm32f7xx_hal_i2c.c ****   {
1289:../../Drivers/STM32F7xx_HAL_Driver/Src/stm32f7xx_hal_i2c.c ****     /* Process Locked */
1290:../../Drivers/STM32F7xx_HAL_Driver/Src/stm32f7xx_hal_i2c.c ****     __HAL_LOCK(hi2c);
 2041              		.loc 1 1290 0
 2042 001a FB68     		ldr	r3, [r7, #12]
 2043 001c 93F84030 		ldrb	r3, [r3, #64]	@ zero_extendqisi2
 2044 0020 012B     		cmp	r3, #1
 2045 0022 01D1     		bne	.L102
 2046              		.loc 1 1290 0 is_stmt 0 discriminator 1
 2047 0024 0223     		movs	r3, #2
 2048 0026 32E0     		b	.L103
 2049              	.L102:
 2050              		.loc 1 1290 0 discriminator 2
 2051 0028 FB68     		ldr	r3, [r7, #12]
 2052 002a 0122     		movs	r2, #1
 2053 002c 83F84020 		strb	r2, [r3, #64]
1291:../../Drivers/STM32F7xx_HAL_Driver/Src/stm32f7xx_hal_i2c.c ****     
1292:../../Drivers/STM32F7xx_HAL_Driver/Src/stm32f7xx_hal_i2c.c ****     hi2c->State       = HAL_I2C_STATE_BUSY_TX;
 2054              		.loc 1 1292 0 is_stmt 1 discriminator 2
 2055 0030 FB68     		ldr	r3, [r7, #12]
 2056 0032 2122     		movs	r2, #33
 2057 0034 83F84120 		strb	r2, [r3, #65]
1293:../../Drivers/STM32F7xx_HAL_Driver/Src/stm32f7xx_hal_i2c.c ****     hi2c->Mode        = HAL_I2C_MODE_SLAVE;
 2058              		.loc 1 1293 0 discriminator 2
 2059 0038 FB68     		ldr	r3, [r7, #12]
 2060 003a 2022     		movs	r2, #32
 2061 003c 83F84220 		strb	r2, [r3, #66]
1294:../../Drivers/STM32F7xx_HAL_Driver/Src/stm32f7xx_hal_i2c.c ****     hi2c->ErrorCode   = HAL_I2C_ERROR_NONE;
 2062              		.loc 1 1294 0 discriminator 2
 2063 0040 FB68     		ldr	r3, [r7, #12]
 2064 0042 0022     		movs	r2, #0
 2065 0044 5A64     		str	r2, [r3, #68]
1295:../../Drivers/STM32F7xx_HAL_Driver/Src/stm32f7xx_hal_i2c.c ****     
1296:../../Drivers/STM32F7xx_HAL_Driver/Src/stm32f7xx_hal_i2c.c ****     /* Enable Address Acknowledge */
1297:../../Drivers/STM32F7xx_HAL_Driver/Src/stm32f7xx_hal_i2c.c ****     hi2c->Instance->CR2 &= ~I2C_CR2_NACK;
 2066              		.loc 1 1297 0 discriminator 2
 2067 0046 FB68     		ldr	r3, [r7, #12]
 2068 0048 1B68     		ldr	r3, [r3]
 2069 004a FA68     		ldr	r2, [r7, #12]
 2070 004c 1268     		ldr	r2, [r2]
 2071 004e 5268     		ldr	r2, [r2, #4]
 2072 0050 22F40042 		bic	r2, r2, #32768
 2073 0054 5A60     		str	r2, [r3, #4]
1298:../../Drivers/STM32F7xx_HAL_Driver/Src/stm32f7xx_hal_i2c.c ****     
1299:../../Drivers/STM32F7xx_HAL_Driver/Src/stm32f7xx_hal_i2c.c ****     /* Prepare transfer parameters */
1300:../../Drivers/STM32F7xx_HAL_Driver/Src/stm32f7xx_hal_i2c.c ****     hi2c->pBuffPtr    = pData;
 2074              		.loc 1 1300 0 discriminator 2
 2075 0056 FB68     		ldr	r3, [r7, #12]
 2076 0058 BA68     		ldr	r2, [r7, #8]
 2077 005a 5A62     		str	r2, [r3, #36]
1301:../../Drivers/STM32F7xx_HAL_Driver/Src/stm32f7xx_hal_i2c.c ****     hi2c->XferCount   = Size;
 2078              		.loc 1 1301 0 discriminator 2
 2079 005c FB68     		ldr	r3, [r7, #12]
ARM GAS  /tmp/cczIhzQ0.s 			page 60


 2080 005e FA88     		ldrh	r2, [r7, #6]	@ movhi
 2081 0060 5A85     		strh	r2, [r3, #42]	@ movhi
1302:../../Drivers/STM32F7xx_HAL_Driver/Src/stm32f7xx_hal_i2c.c ****     hi2c->XferSize    = hi2c->XferCount;
 2082              		.loc 1 1302 0 discriminator 2
 2083 0062 FB68     		ldr	r3, [r7, #12]
 2084 0064 5B8D     		ldrh	r3, [r3, #42]	@ movhi
 2085 0066 9AB2     		uxth	r2, r3
 2086 0068 FB68     		ldr	r3, [r7, #12]
 2087 006a 1A85     		strh	r2, [r3, #40]	@ movhi
1303:../../Drivers/STM32F7xx_HAL_Driver/Src/stm32f7xx_hal_i2c.c ****     hi2c->XferOptions = I2C_NO_OPTION_FRAME;
 2088              		.loc 1 1303 0 discriminator 2
 2089 006c FB68     		ldr	r3, [r7, #12]
 2090 006e 0A4A     		ldr	r2, .L104
 2091 0070 DA62     		str	r2, [r3, #44]
1304:../../Drivers/STM32F7xx_HAL_Driver/Src/stm32f7xx_hal_i2c.c ****     hi2c->XferISR     = I2C_Slave_ISR_IT;
 2092              		.loc 1 1304 0 discriminator 2
 2093 0072 FB68     		ldr	r3, [r7, #12]
 2094 0074 094A     		ldr	r2, .L104+4
 2095 0076 5A63     		str	r2, [r3, #52]
1305:../../Drivers/STM32F7xx_HAL_Driver/Src/stm32f7xx_hal_i2c.c ****     
1306:../../Drivers/STM32F7xx_HAL_Driver/Src/stm32f7xx_hal_i2c.c ****     /* Process Unlocked */
1307:../../Drivers/STM32F7xx_HAL_Driver/Src/stm32f7xx_hal_i2c.c ****     __HAL_UNLOCK(hi2c);
 2096              		.loc 1 1307 0 discriminator 2
 2097 0078 FB68     		ldr	r3, [r7, #12]
 2098 007a 0022     		movs	r2, #0
 2099 007c 83F84020 		strb	r2, [r3, #64]
1308:../../Drivers/STM32F7xx_HAL_Driver/Src/stm32f7xx_hal_i2c.c ****     
1309:../../Drivers/STM32F7xx_HAL_Driver/Src/stm32f7xx_hal_i2c.c ****     /* Note : The I2C interrupts must be enabled after unlocking current process
1310:../../Drivers/STM32F7xx_HAL_Driver/Src/stm32f7xx_hal_i2c.c ****               to avoid the risk of I2C interrupt handle execution before current
1311:../../Drivers/STM32F7xx_HAL_Driver/Src/stm32f7xx_hal_i2c.c ****               process unlock */
1312:../../Drivers/STM32F7xx_HAL_Driver/Src/stm32f7xx_hal_i2c.c ****     
1313:../../Drivers/STM32F7xx_HAL_Driver/Src/stm32f7xx_hal_i2c.c ****     /* Enable ERR, TC, STOP, NACK, TXI interrupt */
1314:../../Drivers/STM32F7xx_HAL_Driver/Src/stm32f7xx_hal_i2c.c ****     /* possible to enable all of these */
1315:../../Drivers/STM32F7xx_HAL_Driver/Src/stm32f7xx_hal_i2c.c ****     /* I2C_IT_ERRI | I2C_IT_TCI| I2C_IT_STOPI| I2C_IT_NACKI | I2C_IT_ADDRI | I2C_IT_RXI | I2C_IT_TX
1316:../../Drivers/STM32F7xx_HAL_Driver/Src/stm32f7xx_hal_i2c.c ****     I2C_Enable_IRQ(hi2c, I2C_XFER_TX_IT | I2C_XFER_LISTEN_IT);
 2100              		.loc 1 1316 0 discriminator 2
 2101 0080 F868     		ldr	r0, [r7, #12]
 2102 0082 0521     		movs	r1, #5
 2103 0084 FFF7FEFF 		bl	I2C_Enable_IRQ
1317:../../Drivers/STM32F7xx_HAL_Driver/Src/stm32f7xx_hal_i2c.c ****     
1318:../../Drivers/STM32F7xx_HAL_Driver/Src/stm32f7xx_hal_i2c.c ****     return HAL_OK;
 2104              		.loc 1 1318 0 discriminator 2
 2105 0088 0023     		movs	r3, #0
 2106 008a 00E0     		b	.L103
 2107              	.L101:
1319:../../Drivers/STM32F7xx_HAL_Driver/Src/stm32f7xx_hal_i2c.c ****   }
1320:../../Drivers/STM32F7xx_HAL_Driver/Src/stm32f7xx_hal_i2c.c ****   else
1321:../../Drivers/STM32F7xx_HAL_Driver/Src/stm32f7xx_hal_i2c.c ****   {
1322:../../Drivers/STM32F7xx_HAL_Driver/Src/stm32f7xx_hal_i2c.c ****     return HAL_BUSY;
 2108              		.loc 1 1322 0
 2109 008c 0223     		movs	r3, #2
 2110              	.L103:
1323:../../Drivers/STM32F7xx_HAL_Driver/Src/stm32f7xx_hal_i2c.c ****   }
1324:../../Drivers/STM32F7xx_HAL_Driver/Src/stm32f7xx_hal_i2c.c **** }
 2111              		.loc 1 1324 0
 2112 008e 1846     		mov	r0, r3
 2113 0090 1037     		adds	r7, r7, #16
ARM GAS  /tmp/cczIhzQ0.s 			page 61


 2114              	.LCFI55:
 2115              		.cfi_def_cfa_offset 8
 2116 0092 BD46     		mov	sp, r7
 2117              	.LCFI56:
 2118              		.cfi_def_cfa_register 13
 2119              		@ sp needed
 2120 0094 80BD     		pop	{r7, pc}
 2121              	.L105:
 2122 0096 00BF     		.align	2
 2123              	.L104:
 2124 0098 0000FFFF 		.word	-65536
 2125 009c 00000000 		.word	I2C_Slave_ISR_IT
 2126              		.cfi_endproc
 2127              	.LFE145:
 2129              		.section	.text.HAL_I2C_Slave_Receive_IT,"ax",%progbits
 2130              		.align	2
 2131              		.global	HAL_I2C_Slave_Receive_IT
 2132              		.thumb
 2133              		.thumb_func
 2135              	HAL_I2C_Slave_Receive_IT:
 2136              	.LFB146:
1325:../../Drivers/STM32F7xx_HAL_Driver/Src/stm32f7xx_hal_i2c.c **** 
1326:../../Drivers/STM32F7xx_HAL_Driver/Src/stm32f7xx_hal_i2c.c **** /**
1327:../../Drivers/STM32F7xx_HAL_Driver/Src/stm32f7xx_hal_i2c.c ****   * @brief  Receive in slave mode an amount of data in non-blocking mode with Interrupt 
1328:../../Drivers/STM32F7xx_HAL_Driver/Src/stm32f7xx_hal_i2c.c ****   * @param  hi2c: Pointer to a I2C_HandleTypeDef structure that contains
1329:../../Drivers/STM32F7xx_HAL_Driver/Src/stm32f7xx_hal_i2c.c ****   *               the configuration information for the specified I2C.
1330:../../Drivers/STM32F7xx_HAL_Driver/Src/stm32f7xx_hal_i2c.c ****   * @param  pData: Pointer to data buffer
1331:../../Drivers/STM32F7xx_HAL_Driver/Src/stm32f7xx_hal_i2c.c ****   * @param  Size: Amount of data to be sent
1332:../../Drivers/STM32F7xx_HAL_Driver/Src/stm32f7xx_hal_i2c.c ****   * @retval HAL status
1333:../../Drivers/STM32F7xx_HAL_Driver/Src/stm32f7xx_hal_i2c.c ****   */
1334:../../Drivers/STM32F7xx_HAL_Driver/Src/stm32f7xx_hal_i2c.c **** HAL_StatusTypeDef HAL_I2C_Slave_Receive_IT(I2C_HandleTypeDef *hi2c, uint8_t *pData, uint16_t Size)
1335:../../Drivers/STM32F7xx_HAL_Driver/Src/stm32f7xx_hal_i2c.c **** {
 2137              		.loc 1 1335 0
 2138              		.cfi_startproc
 2139              		@ args = 0, pretend = 0, frame = 16
 2140              		@ frame_needed = 1, uses_anonymous_args = 0
 2141 0000 80B5     		push	{r7, lr}
 2142              	.LCFI57:
 2143              		.cfi_def_cfa_offset 8
 2144              		.cfi_offset 7, -8
 2145              		.cfi_offset 14, -4
 2146 0002 84B0     		sub	sp, sp, #16
 2147              	.LCFI58:
 2148              		.cfi_def_cfa_offset 24
 2149 0004 00AF     		add	r7, sp, #0
 2150              	.LCFI59:
 2151              		.cfi_def_cfa_register 7
 2152 0006 F860     		str	r0, [r7, #12]
 2153 0008 B960     		str	r1, [r7, #8]
 2154 000a 1346     		mov	r3, r2
 2155 000c FB80     		strh	r3, [r7, #6]	@ movhi
1336:../../Drivers/STM32F7xx_HAL_Driver/Src/stm32f7xx_hal_i2c.c ****   if(hi2c->State == HAL_I2C_STATE_READY)
 2156              		.loc 1 1336 0
 2157 000e FB68     		ldr	r3, [r7, #12]
 2158 0010 93F84130 		ldrb	r3, [r3, #65]
 2159 0014 DBB2     		uxtb	r3, r3
 2160 0016 202B     		cmp	r3, #32
ARM GAS  /tmp/cczIhzQ0.s 			page 62


 2161 0018 38D1     		bne	.L107
1337:../../Drivers/STM32F7xx_HAL_Driver/Src/stm32f7xx_hal_i2c.c ****   {
1338:../../Drivers/STM32F7xx_HAL_Driver/Src/stm32f7xx_hal_i2c.c ****     /* Process Locked */
1339:../../Drivers/STM32F7xx_HAL_Driver/Src/stm32f7xx_hal_i2c.c ****     __HAL_LOCK(hi2c);
 2162              		.loc 1 1339 0
 2163 001a FB68     		ldr	r3, [r7, #12]
 2164 001c 93F84030 		ldrb	r3, [r3, #64]	@ zero_extendqisi2
 2165 0020 012B     		cmp	r3, #1
 2166 0022 01D1     		bne	.L108
 2167              		.loc 1 1339 0 is_stmt 0 discriminator 1
 2168 0024 0223     		movs	r3, #2
 2169 0026 32E0     		b	.L109
 2170              	.L108:
 2171              		.loc 1 1339 0 discriminator 2
 2172 0028 FB68     		ldr	r3, [r7, #12]
 2173 002a 0122     		movs	r2, #1
 2174 002c 83F84020 		strb	r2, [r3, #64]
1340:../../Drivers/STM32F7xx_HAL_Driver/Src/stm32f7xx_hal_i2c.c ****     
1341:../../Drivers/STM32F7xx_HAL_Driver/Src/stm32f7xx_hal_i2c.c ****     hi2c->State       = HAL_I2C_STATE_BUSY_RX;
 2175              		.loc 1 1341 0 is_stmt 1 discriminator 2
 2176 0030 FB68     		ldr	r3, [r7, #12]
 2177 0032 2222     		movs	r2, #34
 2178 0034 83F84120 		strb	r2, [r3, #65]
1342:../../Drivers/STM32F7xx_HAL_Driver/Src/stm32f7xx_hal_i2c.c ****     hi2c->Mode        = HAL_I2C_MODE_SLAVE;
 2179              		.loc 1 1342 0 discriminator 2
 2180 0038 FB68     		ldr	r3, [r7, #12]
 2181 003a 2022     		movs	r2, #32
 2182 003c 83F84220 		strb	r2, [r3, #66]
1343:../../Drivers/STM32F7xx_HAL_Driver/Src/stm32f7xx_hal_i2c.c ****     hi2c->ErrorCode   = HAL_I2C_ERROR_NONE;
 2183              		.loc 1 1343 0 discriminator 2
 2184 0040 FB68     		ldr	r3, [r7, #12]
 2185 0042 0022     		movs	r2, #0
 2186 0044 5A64     		str	r2, [r3, #68]
1344:../../Drivers/STM32F7xx_HAL_Driver/Src/stm32f7xx_hal_i2c.c ****     
1345:../../Drivers/STM32F7xx_HAL_Driver/Src/stm32f7xx_hal_i2c.c ****     /* Enable Address Acknowledge */
1346:../../Drivers/STM32F7xx_HAL_Driver/Src/stm32f7xx_hal_i2c.c ****     hi2c->Instance->CR2 &= ~I2C_CR2_NACK;
 2187              		.loc 1 1346 0 discriminator 2
 2188 0046 FB68     		ldr	r3, [r7, #12]
 2189 0048 1B68     		ldr	r3, [r3]
 2190 004a FA68     		ldr	r2, [r7, #12]
 2191 004c 1268     		ldr	r2, [r2]
 2192 004e 5268     		ldr	r2, [r2, #4]
 2193 0050 22F40042 		bic	r2, r2, #32768
 2194 0054 5A60     		str	r2, [r3, #4]
1347:../../Drivers/STM32F7xx_HAL_Driver/Src/stm32f7xx_hal_i2c.c ****     
1348:../../Drivers/STM32F7xx_HAL_Driver/Src/stm32f7xx_hal_i2c.c ****     /* Prepare transfer parameters */
1349:../../Drivers/STM32F7xx_HAL_Driver/Src/stm32f7xx_hal_i2c.c ****     hi2c->pBuffPtr    = pData;
 2195              		.loc 1 1349 0 discriminator 2
 2196 0056 FB68     		ldr	r3, [r7, #12]
 2197 0058 BA68     		ldr	r2, [r7, #8]
 2198 005a 5A62     		str	r2, [r3, #36]
1350:../../Drivers/STM32F7xx_HAL_Driver/Src/stm32f7xx_hal_i2c.c ****     hi2c->XferCount   = Size;
 2199              		.loc 1 1350 0 discriminator 2
 2200 005c FB68     		ldr	r3, [r7, #12]
 2201 005e FA88     		ldrh	r2, [r7, #6]	@ movhi
 2202 0060 5A85     		strh	r2, [r3, #42]	@ movhi
1351:../../Drivers/STM32F7xx_HAL_Driver/Src/stm32f7xx_hal_i2c.c ****     hi2c->XferSize    = hi2c->XferCount;
ARM GAS  /tmp/cczIhzQ0.s 			page 63


 2203              		.loc 1 1351 0 discriminator 2
 2204 0062 FB68     		ldr	r3, [r7, #12]
 2205 0064 5B8D     		ldrh	r3, [r3, #42]	@ movhi
 2206 0066 9AB2     		uxth	r2, r3
 2207 0068 FB68     		ldr	r3, [r7, #12]
 2208 006a 1A85     		strh	r2, [r3, #40]	@ movhi
1352:../../Drivers/STM32F7xx_HAL_Driver/Src/stm32f7xx_hal_i2c.c ****     hi2c->XferOptions = I2C_NO_OPTION_FRAME;
 2209              		.loc 1 1352 0 discriminator 2
 2210 006c FB68     		ldr	r3, [r7, #12]
 2211 006e 0A4A     		ldr	r2, .L110
 2212 0070 DA62     		str	r2, [r3, #44]
1353:../../Drivers/STM32F7xx_HAL_Driver/Src/stm32f7xx_hal_i2c.c ****     hi2c->XferISR     = I2C_Slave_ISR_IT;
 2213              		.loc 1 1353 0 discriminator 2
 2214 0072 FB68     		ldr	r3, [r7, #12]
 2215 0074 094A     		ldr	r2, .L110+4
 2216 0076 5A63     		str	r2, [r3, #52]
1354:../../Drivers/STM32F7xx_HAL_Driver/Src/stm32f7xx_hal_i2c.c ****     
1355:../../Drivers/STM32F7xx_HAL_Driver/Src/stm32f7xx_hal_i2c.c ****     /* Process Unlocked */
1356:../../Drivers/STM32F7xx_HAL_Driver/Src/stm32f7xx_hal_i2c.c ****     __HAL_UNLOCK(hi2c);
 2217              		.loc 1 1356 0 discriminator 2
 2218 0078 FB68     		ldr	r3, [r7, #12]
 2219 007a 0022     		movs	r2, #0
 2220 007c 83F84020 		strb	r2, [r3, #64]
1357:../../Drivers/STM32F7xx_HAL_Driver/Src/stm32f7xx_hal_i2c.c ****     
1358:../../Drivers/STM32F7xx_HAL_Driver/Src/stm32f7xx_hal_i2c.c ****     /* Note : The I2C interrupts must be enabled after unlocking current process
1359:../../Drivers/STM32F7xx_HAL_Driver/Src/stm32f7xx_hal_i2c.c ****               to avoid the risk of I2C interrupt handle execution before current
1360:../../Drivers/STM32F7xx_HAL_Driver/Src/stm32f7xx_hal_i2c.c ****               process unlock */
1361:../../Drivers/STM32F7xx_HAL_Driver/Src/stm32f7xx_hal_i2c.c ****     
1362:../../Drivers/STM32F7xx_HAL_Driver/Src/stm32f7xx_hal_i2c.c ****     /* Enable ERR, TC, STOP, NACK, RXI interrupt */
1363:../../Drivers/STM32F7xx_HAL_Driver/Src/stm32f7xx_hal_i2c.c ****     /* possible to enable all of these */
1364:../../Drivers/STM32F7xx_HAL_Driver/Src/stm32f7xx_hal_i2c.c ****     /* I2C_IT_ERRI | I2C_IT_TCI| I2C_IT_STOPI| I2C_IT_NACKI | I2C_IT_ADDRI | I2C_IT_RXI | I2C_IT_TX
1365:../../Drivers/STM32F7xx_HAL_Driver/Src/stm32f7xx_hal_i2c.c ****     I2C_Enable_IRQ(hi2c, I2C_XFER_RX_IT | I2C_XFER_LISTEN_IT);
 2221              		.loc 1 1365 0 discriminator 2
 2222 0080 F868     		ldr	r0, [r7, #12]
 2223 0082 0621     		movs	r1, #6
 2224 0084 FFF7FEFF 		bl	I2C_Enable_IRQ
1366:../../Drivers/STM32F7xx_HAL_Driver/Src/stm32f7xx_hal_i2c.c ****     
1367:../../Drivers/STM32F7xx_HAL_Driver/Src/stm32f7xx_hal_i2c.c ****     return HAL_OK;
 2225              		.loc 1 1367 0 discriminator 2
 2226 0088 0023     		movs	r3, #0
 2227 008a 00E0     		b	.L109
 2228              	.L107:
1368:../../Drivers/STM32F7xx_HAL_Driver/Src/stm32f7xx_hal_i2c.c ****   }
1369:../../Drivers/STM32F7xx_HAL_Driver/Src/stm32f7xx_hal_i2c.c ****   else
1370:../../Drivers/STM32F7xx_HAL_Driver/Src/stm32f7xx_hal_i2c.c ****   {
1371:../../Drivers/STM32F7xx_HAL_Driver/Src/stm32f7xx_hal_i2c.c ****     return HAL_BUSY;
 2229              		.loc 1 1371 0
 2230 008c 0223     		movs	r3, #2
 2231              	.L109:
1372:../../Drivers/STM32F7xx_HAL_Driver/Src/stm32f7xx_hal_i2c.c ****   }
1373:../../Drivers/STM32F7xx_HAL_Driver/Src/stm32f7xx_hal_i2c.c **** }
 2232              		.loc 1 1373 0
 2233 008e 1846     		mov	r0, r3
 2234 0090 1037     		adds	r7, r7, #16
 2235              	.LCFI60:
 2236              		.cfi_def_cfa_offset 8
 2237 0092 BD46     		mov	sp, r7
ARM GAS  /tmp/cczIhzQ0.s 			page 64


 2238              	.LCFI61:
 2239              		.cfi_def_cfa_register 13
 2240              		@ sp needed
 2241 0094 80BD     		pop	{r7, pc}
 2242              	.L111:
 2243 0096 00BF     		.align	2
 2244              	.L110:
 2245 0098 0000FFFF 		.word	-65536
 2246 009c 00000000 		.word	I2C_Slave_ISR_IT
 2247              		.cfi_endproc
 2248              	.LFE146:
 2250              		.section	.text.HAL_I2C_Master_Transmit_DMA,"ax",%progbits
 2251              		.align	2
 2252              		.global	HAL_I2C_Master_Transmit_DMA
 2253              		.thumb
 2254              		.thumb_func
 2256              	HAL_I2C_Master_Transmit_DMA:
 2257              	.LFB147:
1374:../../Drivers/STM32F7xx_HAL_Driver/Src/stm32f7xx_hal_i2c.c **** 
1375:../../Drivers/STM32F7xx_HAL_Driver/Src/stm32f7xx_hal_i2c.c **** /**
1376:../../Drivers/STM32F7xx_HAL_Driver/Src/stm32f7xx_hal_i2c.c ****   * @brief  Transmit in master mode an amount of data in non-blocking mode with DMA
1377:../../Drivers/STM32F7xx_HAL_Driver/Src/stm32f7xx_hal_i2c.c ****   * @param  hi2c: Pointer to a I2C_HandleTypeDef structure that contains
1378:../../Drivers/STM32F7xx_HAL_Driver/Src/stm32f7xx_hal_i2c.c ****   *               the configuration information for the specified I2C.
1379:../../Drivers/STM32F7xx_HAL_Driver/Src/stm32f7xx_hal_i2c.c ****   * @param  DevAddress: Target device address. The device 7 bits address value
1380:../../Drivers/STM32F7xx_HAL_Driver/Src/stm32f7xx_hal_i2c.c ****   *         in datasheet must be shift at right before call interface
1381:../../Drivers/STM32F7xx_HAL_Driver/Src/stm32f7xx_hal_i2c.c ****   * @param  pData: Pointer to data buffer
1382:../../Drivers/STM32F7xx_HAL_Driver/Src/stm32f7xx_hal_i2c.c ****   * @param  Size: Amount of data to be sent
1383:../../Drivers/STM32F7xx_HAL_Driver/Src/stm32f7xx_hal_i2c.c ****   * @retval HAL status
1384:../../Drivers/STM32F7xx_HAL_Driver/Src/stm32f7xx_hal_i2c.c ****   */
1385:../../Drivers/STM32F7xx_HAL_Driver/Src/stm32f7xx_hal_i2c.c **** HAL_StatusTypeDef HAL_I2C_Master_Transmit_DMA(I2C_HandleTypeDef *hi2c, uint16_t DevAddress, uint8_t
1386:../../Drivers/STM32F7xx_HAL_Driver/Src/stm32f7xx_hal_i2c.c **** {
 2258              		.loc 1 1386 0
 2259              		.cfi_startproc
 2260              		@ args = 0, pretend = 0, frame = 24
 2261              		@ frame_needed = 1, uses_anonymous_args = 0
 2262 0000 90B5     		push	{r4, r7, lr}
 2263              	.LCFI62:
 2264              		.cfi_def_cfa_offset 12
 2265              		.cfi_offset 4, -12
 2266              		.cfi_offset 7, -8
 2267              		.cfi_offset 14, -4
 2268 0002 89B0     		sub	sp, sp, #36
 2269              	.LCFI63:
 2270              		.cfi_def_cfa_offset 48
 2271 0004 02AF     		add	r7, sp, #8
 2272              	.LCFI64:
 2273              		.cfi_def_cfa 7, 40
 2274 0006 F860     		str	r0, [r7, #12]
 2275 0008 7A60     		str	r2, [r7, #4]
 2276 000a 1A46     		mov	r2, r3
 2277 000c 0B46     		mov	r3, r1	@ movhi
 2278 000e 7B81     		strh	r3, [r7, #10]	@ movhi
 2279 0010 1346     		mov	r3, r2	@ movhi
 2280 0012 3B81     		strh	r3, [r7, #8]	@ movhi
1387:../../Drivers/STM32F7xx_HAL_Driver/Src/stm32f7xx_hal_i2c.c ****   uint32_t xfermode = 0;
 2281              		.loc 1 1387 0
 2282 0014 0023     		movs	r3, #0
ARM GAS  /tmp/cczIhzQ0.s 			page 65


 2283 0016 7B61     		str	r3, [r7, #20]
1388:../../Drivers/STM32F7xx_HAL_Driver/Src/stm32f7xx_hal_i2c.c ****   
1389:../../Drivers/STM32F7xx_HAL_Driver/Src/stm32f7xx_hal_i2c.c ****   if(hi2c->State == HAL_I2C_STATE_READY)
 2284              		.loc 1 1389 0
 2285 0018 FB68     		ldr	r3, [r7, #12]
 2286 001a 93F84130 		ldrb	r3, [r3, #65]
 2287 001e DBB2     		uxtb	r3, r3
 2288 0020 202B     		cmp	r3, #32
 2289 0022 40F08380 		bne	.L113
1390:../../Drivers/STM32F7xx_HAL_Driver/Src/stm32f7xx_hal_i2c.c ****   {
1391:../../Drivers/STM32F7xx_HAL_Driver/Src/stm32f7xx_hal_i2c.c ****     if(__HAL_I2C_GET_FLAG(hi2c, I2C_FLAG_BUSY) == SET)
 2290              		.loc 1 1391 0
 2291 0026 FB68     		ldr	r3, [r7, #12]
 2292 0028 1B68     		ldr	r3, [r3]
 2293 002a 9B69     		ldr	r3, [r3, #24]
 2294 002c 03F40043 		and	r3, r3, #32768
 2295 0030 002B     		cmp	r3, #0
 2296 0032 01D0     		beq	.L114
1392:../../Drivers/STM32F7xx_HAL_Driver/Src/stm32f7xx_hal_i2c.c ****     {
1393:../../Drivers/STM32F7xx_HAL_Driver/Src/stm32f7xx_hal_i2c.c ****       return HAL_BUSY;
 2297              		.loc 1 1393 0
 2298 0034 0223     		movs	r3, #2
 2299 0036 7AE0     		b	.L115
 2300              	.L114:
1394:../../Drivers/STM32F7xx_HAL_Driver/Src/stm32f7xx_hal_i2c.c ****     }
1395:../../Drivers/STM32F7xx_HAL_Driver/Src/stm32f7xx_hal_i2c.c ****     
1396:../../Drivers/STM32F7xx_HAL_Driver/Src/stm32f7xx_hal_i2c.c ****     /* Process Locked */
1397:../../Drivers/STM32F7xx_HAL_Driver/Src/stm32f7xx_hal_i2c.c ****     __HAL_LOCK(hi2c);
 2301              		.loc 1 1397 0
 2302 0038 FB68     		ldr	r3, [r7, #12]
 2303 003a 93F84030 		ldrb	r3, [r3, #64]	@ zero_extendqisi2
 2304 003e 012B     		cmp	r3, #1
 2305 0040 01D1     		bne	.L116
 2306              		.loc 1 1397 0 is_stmt 0 discriminator 1
 2307 0042 0223     		movs	r3, #2
 2308 0044 73E0     		b	.L115
 2309              	.L116:
 2310              		.loc 1 1397 0 discriminator 2
 2311 0046 FB68     		ldr	r3, [r7, #12]
 2312 0048 0122     		movs	r2, #1
 2313 004a 83F84020 		strb	r2, [r3, #64]
1398:../../Drivers/STM32F7xx_HAL_Driver/Src/stm32f7xx_hal_i2c.c ****     
1399:../../Drivers/STM32F7xx_HAL_Driver/Src/stm32f7xx_hal_i2c.c ****     hi2c->State       = HAL_I2C_STATE_BUSY_TX;
 2314              		.loc 1 1399 0 is_stmt 1 discriminator 2
 2315 004e FB68     		ldr	r3, [r7, #12]
 2316 0050 2122     		movs	r2, #33
 2317 0052 83F84120 		strb	r2, [r3, #65]
1400:../../Drivers/STM32F7xx_HAL_Driver/Src/stm32f7xx_hal_i2c.c ****     hi2c->Mode        = HAL_I2C_MODE_MASTER;
 2318              		.loc 1 1400 0 discriminator 2
 2319 0056 FB68     		ldr	r3, [r7, #12]
 2320 0058 1022     		movs	r2, #16
 2321 005a 83F84220 		strb	r2, [r3, #66]
1401:../../Drivers/STM32F7xx_HAL_Driver/Src/stm32f7xx_hal_i2c.c ****     hi2c->ErrorCode   = HAL_I2C_ERROR_NONE;
 2322              		.loc 1 1401 0 discriminator 2
 2323 005e FB68     		ldr	r3, [r7, #12]
 2324 0060 0022     		movs	r2, #0
 2325 0062 5A64     		str	r2, [r3, #68]
ARM GAS  /tmp/cczIhzQ0.s 			page 66


1402:../../Drivers/STM32F7xx_HAL_Driver/Src/stm32f7xx_hal_i2c.c ****     
1403:../../Drivers/STM32F7xx_HAL_Driver/Src/stm32f7xx_hal_i2c.c ****     /* Prepare transfer parameters */
1404:../../Drivers/STM32F7xx_HAL_Driver/Src/stm32f7xx_hal_i2c.c ****     hi2c->pBuffPtr    = pData;
 2326              		.loc 1 1404 0 discriminator 2
 2327 0064 FB68     		ldr	r3, [r7, #12]
 2328 0066 7A68     		ldr	r2, [r7, #4]
 2329 0068 5A62     		str	r2, [r3, #36]
1405:../../Drivers/STM32F7xx_HAL_Driver/Src/stm32f7xx_hal_i2c.c ****     hi2c->XferCount   = Size;
 2330              		.loc 1 1405 0 discriminator 2
 2331 006a FB68     		ldr	r3, [r7, #12]
 2332 006c 3A89     		ldrh	r2, [r7, #8]	@ movhi
 2333 006e 5A85     		strh	r2, [r3, #42]	@ movhi
1406:../../Drivers/STM32F7xx_HAL_Driver/Src/stm32f7xx_hal_i2c.c ****     hi2c->XferOptions = I2C_NO_OPTION_FRAME;
 2334              		.loc 1 1406 0 discriminator 2
 2335 0070 FB68     		ldr	r3, [r7, #12]
 2336 0072 314A     		ldr	r2, .L119
 2337 0074 DA62     		str	r2, [r3, #44]
1407:../../Drivers/STM32F7xx_HAL_Driver/Src/stm32f7xx_hal_i2c.c ****     hi2c->XferISR     = I2C_Master_ISR_DMA;
 2338              		.loc 1 1407 0 discriminator 2
 2339 0076 FB68     		ldr	r3, [r7, #12]
 2340 0078 304A     		ldr	r2, .L119+4
 2341 007a 5A63     		str	r2, [r3, #52]
1408:../../Drivers/STM32F7xx_HAL_Driver/Src/stm32f7xx_hal_i2c.c ****     
1409:../../Drivers/STM32F7xx_HAL_Driver/Src/stm32f7xx_hal_i2c.c ****     if(hi2c->XferCount > MAX_NBYTE_SIZE)
 2342              		.loc 1 1409 0 discriminator 2
 2343 007c FB68     		ldr	r3, [r7, #12]
 2344 007e 5B8D     		ldrh	r3, [r3, #42]	@ movhi
 2345 0080 9BB2     		uxth	r3, r3
 2346 0082 FF2B     		cmp	r3, #255
 2347 0084 06D9     		bls	.L117
1410:../../Drivers/STM32F7xx_HAL_Driver/Src/stm32f7xx_hal_i2c.c ****     {
1411:../../Drivers/STM32F7xx_HAL_Driver/Src/stm32f7xx_hal_i2c.c ****       hi2c->XferSize = MAX_NBYTE_SIZE;
 2348              		.loc 1 1411 0
 2349 0086 FB68     		ldr	r3, [r7, #12]
 2350 0088 FF22     		movs	r2, #255
 2351 008a 1A85     		strh	r2, [r3, #40]	@ movhi
1412:../../Drivers/STM32F7xx_HAL_Driver/Src/stm32f7xx_hal_i2c.c ****       xfermode = I2C_RELOAD_MODE;
 2352              		.loc 1 1412 0
 2353 008c 4FF08073 		mov	r3, #16777216
 2354 0090 7B61     		str	r3, [r7, #20]
 2355 0092 07E0     		b	.L118
 2356              	.L117:
1413:../../Drivers/STM32F7xx_HAL_Driver/Src/stm32f7xx_hal_i2c.c ****     }
1414:../../Drivers/STM32F7xx_HAL_Driver/Src/stm32f7xx_hal_i2c.c ****     else
1415:../../Drivers/STM32F7xx_HAL_Driver/Src/stm32f7xx_hal_i2c.c ****     {
1416:../../Drivers/STM32F7xx_HAL_Driver/Src/stm32f7xx_hal_i2c.c ****       hi2c->XferSize = hi2c->XferCount;
 2357              		.loc 1 1416 0
 2358 0094 FB68     		ldr	r3, [r7, #12]
 2359 0096 5B8D     		ldrh	r3, [r3, #42]	@ movhi
 2360 0098 9AB2     		uxth	r2, r3
 2361 009a FB68     		ldr	r3, [r7, #12]
 2362 009c 1A85     		strh	r2, [r3, #40]	@ movhi
1417:../../Drivers/STM32F7xx_HAL_Driver/Src/stm32f7xx_hal_i2c.c ****       xfermode = I2C_AUTOEND_MODE;
 2363              		.loc 1 1417 0
 2364 009e 4FF00073 		mov	r3, #33554432
 2365 00a2 7B61     		str	r3, [r7, #20]
 2366              	.L118:
ARM GAS  /tmp/cczIhzQ0.s 			page 67


1418:../../Drivers/STM32F7xx_HAL_Driver/Src/stm32f7xx_hal_i2c.c ****     }
1419:../../Drivers/STM32F7xx_HAL_Driver/Src/stm32f7xx_hal_i2c.c ****     
1420:../../Drivers/STM32F7xx_HAL_Driver/Src/stm32f7xx_hal_i2c.c ****     /* Set the I2C DMA transfer complete callback */
1421:../../Drivers/STM32F7xx_HAL_Driver/Src/stm32f7xx_hal_i2c.c ****     hi2c->hdmatx->XferCpltCallback = I2C_DMAMasterTransmitCplt;
 2367              		.loc 1 1421 0
 2368 00a4 FB68     		ldr	r3, [r7, #12]
 2369 00a6 9B6B     		ldr	r3, [r3, #56]
 2370 00a8 254A     		ldr	r2, .L119+8
 2371 00aa DA63     		str	r2, [r3, #60]
1422:../../Drivers/STM32F7xx_HAL_Driver/Src/stm32f7xx_hal_i2c.c ****     
1423:../../Drivers/STM32F7xx_HAL_Driver/Src/stm32f7xx_hal_i2c.c ****     /* Set the DMA error callback */
1424:../../Drivers/STM32F7xx_HAL_Driver/Src/stm32f7xx_hal_i2c.c ****     hi2c->hdmatx->XferErrorCallback = I2C_DMAError;
 2372              		.loc 1 1424 0
 2373 00ac FB68     		ldr	r3, [r7, #12]
 2374 00ae 9B6B     		ldr	r3, [r3, #56]
 2375 00b0 244A     		ldr	r2, .L119+12
 2376 00b2 DA64     		str	r2, [r3, #76]
1425:../../Drivers/STM32F7xx_HAL_Driver/Src/stm32f7xx_hal_i2c.c ****     
1426:../../Drivers/STM32F7xx_HAL_Driver/Src/stm32f7xx_hal_i2c.c ****     /* Set the unused DMA callbacks to NULL */
1427:../../Drivers/STM32F7xx_HAL_Driver/Src/stm32f7xx_hal_i2c.c ****     hi2c->hdmatx->XferHalfCpltCallback = NULL;
 2377              		.loc 1 1427 0
 2378 00b4 FB68     		ldr	r3, [r7, #12]
 2379 00b6 9B6B     		ldr	r3, [r3, #56]
 2380 00b8 0022     		movs	r2, #0
 2381 00ba 1A64     		str	r2, [r3, #64]
1428:../../Drivers/STM32F7xx_HAL_Driver/Src/stm32f7xx_hal_i2c.c ****     hi2c->hdmatx->XferAbortCallback = NULL;
 2382              		.loc 1 1428 0
 2383 00bc FB68     		ldr	r3, [r7, #12]
 2384 00be 9B6B     		ldr	r3, [r3, #56]
 2385 00c0 0022     		movs	r2, #0
 2386 00c2 1A65     		str	r2, [r3, #80]
1429:../../Drivers/STM32F7xx_HAL_Driver/Src/stm32f7xx_hal_i2c.c ****     
1430:../../Drivers/STM32F7xx_HAL_Driver/Src/stm32f7xx_hal_i2c.c ****     /* Enable the DMA channel */
1431:../../Drivers/STM32F7xx_HAL_Driver/Src/stm32f7xx_hal_i2c.c ****     HAL_DMA_Start_IT(hi2c->hdmatx, (uint32_t)pData, (uint32_t)&hi2c->Instance->TXDR, hi2c->XferSize
 2387              		.loc 1 1431 0
 2388 00c4 FB68     		ldr	r3, [r7, #12]
 2389 00c6 996B     		ldr	r1, [r3, #56]
 2390 00c8 7A68     		ldr	r2, [r7, #4]
 2391 00ca FB68     		ldr	r3, [r7, #12]
 2392 00cc 1B68     		ldr	r3, [r3]
 2393 00ce 2833     		adds	r3, r3, #40
 2394 00d0 1C46     		mov	r4, r3
 2395 00d2 FB68     		ldr	r3, [r7, #12]
 2396 00d4 1B8D     		ldrh	r3, [r3, #40]
 2397 00d6 0846     		mov	r0, r1
 2398 00d8 1146     		mov	r1, r2
 2399 00da 2246     		mov	r2, r4
 2400 00dc FFF7FEFF 		bl	HAL_DMA_Start_IT
1432:../../Drivers/STM32F7xx_HAL_Driver/Src/stm32f7xx_hal_i2c.c ****     
1433:../../Drivers/STM32F7xx_HAL_Driver/Src/stm32f7xx_hal_i2c.c ****     /* Send Slave Address */
1434:../../Drivers/STM32F7xx_HAL_Driver/Src/stm32f7xx_hal_i2c.c ****     /* Set NBYTES to write and reload if hi2c->XferCount > MAX_NBYTE_SIZE and generate RESTART */
1435:../../Drivers/STM32F7xx_HAL_Driver/Src/stm32f7xx_hal_i2c.c ****     I2C_TransferConfig(hi2c, DevAddress, hi2c->XferSize, xfermode, I2C_GENERATE_START_WRITE);
 2401              		.loc 1 1435 0
 2402 00e0 FB68     		ldr	r3, [r7, #12]
 2403 00e2 1B8D     		ldrh	r3, [r3, #40]
 2404 00e4 DAB2     		uxtb	r2, r3
 2405 00e6 7989     		ldrh	r1, [r7, #10]
ARM GAS  /tmp/cczIhzQ0.s 			page 68


 2406 00e8 4FF40053 		mov	r3, #8192
 2407 00ec 0093     		str	r3, [sp]
 2408 00ee F868     		ldr	r0, [r7, #12]
 2409 00f0 7B69     		ldr	r3, [r7, #20]
 2410 00f2 FFF7FEFF 		bl	I2C_TransferConfig
1436:../../Drivers/STM32F7xx_HAL_Driver/Src/stm32f7xx_hal_i2c.c ****     
1437:../../Drivers/STM32F7xx_HAL_Driver/Src/stm32f7xx_hal_i2c.c ****     /* Update XferCount value */
1438:../../Drivers/STM32F7xx_HAL_Driver/Src/stm32f7xx_hal_i2c.c ****     hi2c->XferCount -= hi2c->XferSize;
 2411              		.loc 1 1438 0
 2412 00f6 FB68     		ldr	r3, [r7, #12]
 2413 00f8 5B8D     		ldrh	r3, [r3, #42]	@ movhi
 2414 00fa 9AB2     		uxth	r2, r3
 2415 00fc FB68     		ldr	r3, [r7, #12]
 2416 00fe 1B8D     		ldrh	r3, [r3, #40]
 2417 0100 D31A     		subs	r3, r2, r3
 2418 0102 9AB2     		uxth	r2, r3
 2419 0104 FB68     		ldr	r3, [r7, #12]
 2420 0106 5A85     		strh	r2, [r3, #42]	@ movhi
1439:../../Drivers/STM32F7xx_HAL_Driver/Src/stm32f7xx_hal_i2c.c ****     
1440:../../Drivers/STM32F7xx_HAL_Driver/Src/stm32f7xx_hal_i2c.c ****     /* Process Unlocked */
1441:../../Drivers/STM32F7xx_HAL_Driver/Src/stm32f7xx_hal_i2c.c ****     __HAL_UNLOCK(hi2c);
 2421              		.loc 1 1441 0
 2422 0108 FB68     		ldr	r3, [r7, #12]
 2423 010a 0022     		movs	r2, #0
 2424 010c 83F84020 		strb	r2, [r3, #64]
1442:../../Drivers/STM32F7xx_HAL_Driver/Src/stm32f7xx_hal_i2c.c ****     
1443:../../Drivers/STM32F7xx_HAL_Driver/Src/stm32f7xx_hal_i2c.c ****     /* Note : The I2C interrupts must be enabled after unlocking current process
1444:../../Drivers/STM32F7xx_HAL_Driver/Src/stm32f7xx_hal_i2c.c ****               to avoid the risk of I2C interrupt handle execution before current
1445:../../Drivers/STM32F7xx_HAL_Driver/Src/stm32f7xx_hal_i2c.c ****               process unlock */
1446:../../Drivers/STM32F7xx_HAL_Driver/Src/stm32f7xx_hal_i2c.c ****     /* Enable ERR and NACK interrupts */
1447:../../Drivers/STM32F7xx_HAL_Driver/Src/stm32f7xx_hal_i2c.c ****     I2C_Enable_IRQ(hi2c, I2C_XFER_ERROR_IT);
 2425              		.loc 1 1447 0
 2426 0110 F868     		ldr	r0, [r7, #12]
 2427 0112 1121     		movs	r1, #17
 2428 0114 FFF7FEFF 		bl	I2C_Enable_IRQ
1448:../../Drivers/STM32F7xx_HAL_Driver/Src/stm32f7xx_hal_i2c.c ****     
1449:../../Drivers/STM32F7xx_HAL_Driver/Src/stm32f7xx_hal_i2c.c ****     /* Enable DMA Request */
1450:../../Drivers/STM32F7xx_HAL_Driver/Src/stm32f7xx_hal_i2c.c ****     hi2c->Instance->CR1 |= I2C_CR1_TXDMAEN;
 2429              		.loc 1 1450 0
 2430 0118 FB68     		ldr	r3, [r7, #12]
 2431 011a 1B68     		ldr	r3, [r3]
 2432 011c FA68     		ldr	r2, [r7, #12]
 2433 011e 1268     		ldr	r2, [r2]
 2434 0120 1268     		ldr	r2, [r2]
 2435 0122 42F48042 		orr	r2, r2, #16384
 2436 0126 1A60     		str	r2, [r3]
1451:../../Drivers/STM32F7xx_HAL_Driver/Src/stm32f7xx_hal_i2c.c ****     
1452:../../Drivers/STM32F7xx_HAL_Driver/Src/stm32f7xx_hal_i2c.c ****     return HAL_OK;
 2437              		.loc 1 1452 0
 2438 0128 0023     		movs	r3, #0
 2439 012a 00E0     		b	.L115
 2440              	.L113:
1453:../../Drivers/STM32F7xx_HAL_Driver/Src/stm32f7xx_hal_i2c.c ****   }
1454:../../Drivers/STM32F7xx_HAL_Driver/Src/stm32f7xx_hal_i2c.c ****   else
1455:../../Drivers/STM32F7xx_HAL_Driver/Src/stm32f7xx_hal_i2c.c ****   {
1456:../../Drivers/STM32F7xx_HAL_Driver/Src/stm32f7xx_hal_i2c.c ****     return HAL_BUSY;
 2441              		.loc 1 1456 0
ARM GAS  /tmp/cczIhzQ0.s 			page 69


 2442 012c 0223     		movs	r3, #2
 2443              	.L115:
1457:../../Drivers/STM32F7xx_HAL_Driver/Src/stm32f7xx_hal_i2c.c ****   }
1458:../../Drivers/STM32F7xx_HAL_Driver/Src/stm32f7xx_hal_i2c.c **** }
 2444              		.loc 1 1458 0
 2445 012e 1846     		mov	r0, r3
 2446 0130 1C37     		adds	r7, r7, #28
 2447              	.LCFI65:
 2448              		.cfi_def_cfa_offset 12
 2449 0132 BD46     		mov	sp, r7
 2450              	.LCFI66:
 2451              		.cfi_def_cfa_register 13
 2452              		@ sp needed
 2453 0134 90BD     		pop	{r4, r7, pc}
 2454              	.L120:
 2455 0136 00BF     		.align	2
 2456              	.L119:
 2457 0138 0000FFFF 		.word	-65536
 2458 013c 00000000 		.word	I2C_Master_ISR_DMA
 2459 0140 00000000 		.word	I2C_DMAMasterTransmitCplt
 2460 0144 00000000 		.word	I2C_DMAError
 2461              		.cfi_endproc
 2462              	.LFE147:
 2464              		.section	.text.HAL_I2C_Master_Receive_DMA,"ax",%progbits
 2465              		.align	2
 2466              		.global	HAL_I2C_Master_Receive_DMA
 2467              		.thumb
 2468              		.thumb_func
 2470              	HAL_I2C_Master_Receive_DMA:
 2471              	.LFB148:
1459:../../Drivers/STM32F7xx_HAL_Driver/Src/stm32f7xx_hal_i2c.c **** 
1460:../../Drivers/STM32F7xx_HAL_Driver/Src/stm32f7xx_hal_i2c.c **** /**
1461:../../Drivers/STM32F7xx_HAL_Driver/Src/stm32f7xx_hal_i2c.c ****   * @brief  Receive in master mode an amount of data in non-blocking mode with DMA
1462:../../Drivers/STM32F7xx_HAL_Driver/Src/stm32f7xx_hal_i2c.c ****   * @param  hi2c: Pointer to a I2C_HandleTypeDef structure that contains
1463:../../Drivers/STM32F7xx_HAL_Driver/Src/stm32f7xx_hal_i2c.c ****   *               the configuration information for the specified I2C.
1464:../../Drivers/STM32F7xx_HAL_Driver/Src/stm32f7xx_hal_i2c.c ****   * @param  DevAddress: Target device address. The device 7 bits address value
1465:../../Drivers/STM32F7xx_HAL_Driver/Src/stm32f7xx_hal_i2c.c ****   *         in datasheet must be shift at right before call interface
1466:../../Drivers/STM32F7xx_HAL_Driver/Src/stm32f7xx_hal_i2c.c ****   * @param  pData: Pointer to data buffer
1467:../../Drivers/STM32F7xx_HAL_Driver/Src/stm32f7xx_hal_i2c.c ****   * @param  Size: Amount of data to be sent
1468:../../Drivers/STM32F7xx_HAL_Driver/Src/stm32f7xx_hal_i2c.c ****   * @retval HAL status
1469:../../Drivers/STM32F7xx_HAL_Driver/Src/stm32f7xx_hal_i2c.c ****   */
1470:../../Drivers/STM32F7xx_HAL_Driver/Src/stm32f7xx_hal_i2c.c **** HAL_StatusTypeDef HAL_I2C_Master_Receive_DMA(I2C_HandleTypeDef *hi2c, uint16_t DevAddress, uint8_t 
1471:../../Drivers/STM32F7xx_HAL_Driver/Src/stm32f7xx_hal_i2c.c **** {
 2472              		.loc 1 1471 0
 2473              		.cfi_startproc
 2474              		@ args = 0, pretend = 0, frame = 24
 2475              		@ frame_needed = 1, uses_anonymous_args = 0
 2476 0000 90B5     		push	{r4, r7, lr}
 2477              	.LCFI67:
 2478              		.cfi_def_cfa_offset 12
 2479              		.cfi_offset 4, -12
 2480              		.cfi_offset 7, -8
 2481              		.cfi_offset 14, -4
 2482 0002 89B0     		sub	sp, sp, #36
 2483              	.LCFI68:
 2484              		.cfi_def_cfa_offset 48
 2485 0004 02AF     		add	r7, sp, #8
ARM GAS  /tmp/cczIhzQ0.s 			page 70


 2486              	.LCFI69:
 2487              		.cfi_def_cfa 7, 40
 2488 0006 F860     		str	r0, [r7, #12]
 2489 0008 7A60     		str	r2, [r7, #4]
 2490 000a 1A46     		mov	r2, r3
 2491 000c 0B46     		mov	r3, r1	@ movhi
 2492 000e 7B81     		strh	r3, [r7, #10]	@ movhi
 2493 0010 1346     		mov	r3, r2	@ movhi
 2494 0012 3B81     		strh	r3, [r7, #8]	@ movhi
1472:../../Drivers/STM32F7xx_HAL_Driver/Src/stm32f7xx_hal_i2c.c ****   uint32_t xfermode = 0;
 2495              		.loc 1 1472 0
 2496 0014 0023     		movs	r3, #0
 2497 0016 7B61     		str	r3, [r7, #20]
1473:../../Drivers/STM32F7xx_HAL_Driver/Src/stm32f7xx_hal_i2c.c ****   
1474:../../Drivers/STM32F7xx_HAL_Driver/Src/stm32f7xx_hal_i2c.c ****   if(hi2c->State == HAL_I2C_STATE_READY)
 2498              		.loc 1 1474 0
 2499 0018 FB68     		ldr	r3, [r7, #12]
 2500 001a 93F84130 		ldrb	r3, [r3, #65]
 2501 001e DBB2     		uxtb	r3, r3
 2502 0020 202B     		cmp	r3, #32
 2503 0022 40F09380 		bne	.L122
1475:../../Drivers/STM32F7xx_HAL_Driver/Src/stm32f7xx_hal_i2c.c ****   {
1476:../../Drivers/STM32F7xx_HAL_Driver/Src/stm32f7xx_hal_i2c.c ****     if(__HAL_I2C_GET_FLAG(hi2c, I2C_FLAG_BUSY) == SET)
 2504              		.loc 1 1476 0
 2505 0026 FB68     		ldr	r3, [r7, #12]
 2506 0028 1B68     		ldr	r3, [r3]
 2507 002a 9B69     		ldr	r3, [r3, #24]
 2508 002c 03F40043 		and	r3, r3, #32768
 2509 0030 002B     		cmp	r3, #0
 2510 0032 01D0     		beq	.L123
1477:../../Drivers/STM32F7xx_HAL_Driver/Src/stm32f7xx_hal_i2c.c ****     {
1478:../../Drivers/STM32F7xx_HAL_Driver/Src/stm32f7xx_hal_i2c.c ****       return HAL_BUSY;
 2511              		.loc 1 1478 0
 2512 0034 0223     		movs	r3, #2
 2513 0036 8AE0     		b	.L124
 2514              	.L123:
1479:../../Drivers/STM32F7xx_HAL_Driver/Src/stm32f7xx_hal_i2c.c ****     }
1480:../../Drivers/STM32F7xx_HAL_Driver/Src/stm32f7xx_hal_i2c.c ****     
1481:../../Drivers/STM32F7xx_HAL_Driver/Src/stm32f7xx_hal_i2c.c ****     /* Process Locked */
1482:../../Drivers/STM32F7xx_HAL_Driver/Src/stm32f7xx_hal_i2c.c ****     __HAL_LOCK(hi2c);
 2515              		.loc 1 1482 0
 2516 0038 FB68     		ldr	r3, [r7, #12]
 2517 003a 93F84030 		ldrb	r3, [r3, #64]	@ zero_extendqisi2
 2518 003e 012B     		cmp	r3, #1
 2519 0040 01D1     		bne	.L125
 2520              		.loc 1 1482 0 is_stmt 0 discriminator 1
 2521 0042 0223     		movs	r3, #2
 2522 0044 83E0     		b	.L124
 2523              	.L125:
 2524              		.loc 1 1482 0 discriminator 2
 2525 0046 FB68     		ldr	r3, [r7, #12]
 2526 0048 0122     		movs	r2, #1
 2527 004a 83F84020 		strb	r2, [r3, #64]
1483:../../Drivers/STM32F7xx_HAL_Driver/Src/stm32f7xx_hal_i2c.c ****     
1484:../../Drivers/STM32F7xx_HAL_Driver/Src/stm32f7xx_hal_i2c.c ****     hi2c->State       = HAL_I2C_STATE_BUSY_RX;
 2528              		.loc 1 1484 0 is_stmt 1 discriminator 2
 2529 004e FB68     		ldr	r3, [r7, #12]
ARM GAS  /tmp/cczIhzQ0.s 			page 71


 2530 0050 2222     		movs	r2, #34
 2531 0052 83F84120 		strb	r2, [r3, #65]
1485:../../Drivers/STM32F7xx_HAL_Driver/Src/stm32f7xx_hal_i2c.c ****     hi2c->Mode        = HAL_I2C_MODE_MASTER;
 2532              		.loc 1 1485 0 discriminator 2
 2533 0056 FB68     		ldr	r3, [r7, #12]
 2534 0058 1022     		movs	r2, #16
 2535 005a 83F84220 		strb	r2, [r3, #66]
1486:../../Drivers/STM32F7xx_HAL_Driver/Src/stm32f7xx_hal_i2c.c ****     hi2c->ErrorCode   = HAL_I2C_ERROR_NONE;
 2536              		.loc 1 1486 0 discriminator 2
 2537 005e FB68     		ldr	r3, [r7, #12]
 2538 0060 0022     		movs	r2, #0
 2539 0062 5A64     		str	r2, [r3, #68]
1487:../../Drivers/STM32F7xx_HAL_Driver/Src/stm32f7xx_hal_i2c.c ****     
1488:../../Drivers/STM32F7xx_HAL_Driver/Src/stm32f7xx_hal_i2c.c ****     /* Prepare transfer parameters */
1489:../../Drivers/STM32F7xx_HAL_Driver/Src/stm32f7xx_hal_i2c.c ****     hi2c->pBuffPtr    = pData;
 2540              		.loc 1 1489 0 discriminator 2
 2541 0064 FB68     		ldr	r3, [r7, #12]
 2542 0066 7A68     		ldr	r2, [r7, #4]
 2543 0068 5A62     		str	r2, [r3, #36]
1490:../../Drivers/STM32F7xx_HAL_Driver/Src/stm32f7xx_hal_i2c.c ****     hi2c->XferCount   = Size;
 2544              		.loc 1 1490 0 discriminator 2
 2545 006a FB68     		ldr	r3, [r7, #12]
 2546 006c 3A89     		ldrh	r2, [r7, #8]	@ movhi
 2547 006e 5A85     		strh	r2, [r3, #42]	@ movhi
1491:../../Drivers/STM32F7xx_HAL_Driver/Src/stm32f7xx_hal_i2c.c ****     hi2c->XferOptions = I2C_NO_OPTION_FRAME;
 2548              		.loc 1 1491 0 discriminator 2
 2549 0070 FB68     		ldr	r3, [r7, #12]
 2550 0072 394A     		ldr	r2, .L130
 2551 0074 DA62     		str	r2, [r3, #44]
1492:../../Drivers/STM32F7xx_HAL_Driver/Src/stm32f7xx_hal_i2c.c ****     hi2c->XferISR     = I2C_Master_ISR_DMA;
 2552              		.loc 1 1492 0 discriminator 2
 2553 0076 FB68     		ldr	r3, [r7, #12]
 2554 0078 384A     		ldr	r2, .L130+4
 2555 007a 5A63     		str	r2, [r3, #52]
1493:../../Drivers/STM32F7xx_HAL_Driver/Src/stm32f7xx_hal_i2c.c ****     
1494:../../Drivers/STM32F7xx_HAL_Driver/Src/stm32f7xx_hal_i2c.c ****     if(hi2c->XferCount > MAX_NBYTE_SIZE)
 2556              		.loc 1 1494 0 discriminator 2
 2557 007c FB68     		ldr	r3, [r7, #12]
 2558 007e 5B8D     		ldrh	r3, [r3, #42]	@ movhi
 2559 0080 9BB2     		uxth	r3, r3
 2560 0082 FF2B     		cmp	r3, #255
 2561 0084 06D9     		bls	.L126
1495:../../Drivers/STM32F7xx_HAL_Driver/Src/stm32f7xx_hal_i2c.c ****     {
1496:../../Drivers/STM32F7xx_HAL_Driver/Src/stm32f7xx_hal_i2c.c ****       hi2c->XferSize = MAX_NBYTE_SIZE;
 2562              		.loc 1 1496 0
 2563 0086 FB68     		ldr	r3, [r7, #12]
 2564 0088 FF22     		movs	r2, #255
 2565 008a 1A85     		strh	r2, [r3, #40]	@ movhi
1497:../../Drivers/STM32F7xx_HAL_Driver/Src/stm32f7xx_hal_i2c.c ****       xfermode = I2C_RELOAD_MODE;
 2566              		.loc 1 1497 0
 2567 008c 4FF08073 		mov	r3, #16777216
 2568 0090 7B61     		str	r3, [r7, #20]
 2569 0092 07E0     		b	.L127
 2570              	.L126:
1498:../../Drivers/STM32F7xx_HAL_Driver/Src/stm32f7xx_hal_i2c.c ****     }
1499:../../Drivers/STM32F7xx_HAL_Driver/Src/stm32f7xx_hal_i2c.c ****     else
1500:../../Drivers/STM32F7xx_HAL_Driver/Src/stm32f7xx_hal_i2c.c ****     {
ARM GAS  /tmp/cczIhzQ0.s 			page 72


1501:../../Drivers/STM32F7xx_HAL_Driver/Src/stm32f7xx_hal_i2c.c ****       hi2c->XferSize = hi2c->XferCount;
 2571              		.loc 1 1501 0
 2572 0094 FB68     		ldr	r3, [r7, #12]
 2573 0096 5B8D     		ldrh	r3, [r3, #42]	@ movhi
 2574 0098 9AB2     		uxth	r2, r3
 2575 009a FB68     		ldr	r3, [r7, #12]
 2576 009c 1A85     		strh	r2, [r3, #40]	@ movhi
1502:../../Drivers/STM32F7xx_HAL_Driver/Src/stm32f7xx_hal_i2c.c ****       xfermode = I2C_AUTOEND_MODE;
 2577              		.loc 1 1502 0
 2578 009e 4FF00073 		mov	r3, #33554432
 2579 00a2 7B61     		str	r3, [r7, #20]
 2580              	.L127:
1503:../../Drivers/STM32F7xx_HAL_Driver/Src/stm32f7xx_hal_i2c.c ****     }
1504:../../Drivers/STM32F7xx_HAL_Driver/Src/stm32f7xx_hal_i2c.c ****     
1505:../../Drivers/STM32F7xx_HAL_Driver/Src/stm32f7xx_hal_i2c.c ****     if(hi2c->XferSize > 0)
 2581              		.loc 1 1505 0
 2582 00a4 FB68     		ldr	r3, [r7, #12]
 2583 00a6 1B8D     		ldrh	r3, [r3, #40]
 2584 00a8 002B     		cmp	r3, #0
 2585 00aa 41D0     		beq	.L128
1506:../../Drivers/STM32F7xx_HAL_Driver/Src/stm32f7xx_hal_i2c.c ****     {
1507:../../Drivers/STM32F7xx_HAL_Driver/Src/stm32f7xx_hal_i2c.c ****       /* Set the I2C DMA transfer complete callback */
1508:../../Drivers/STM32F7xx_HAL_Driver/Src/stm32f7xx_hal_i2c.c ****       hi2c->hdmarx->XferCpltCallback = I2C_DMAMasterReceiveCplt;
 2586              		.loc 1 1508 0
 2587 00ac FB68     		ldr	r3, [r7, #12]
 2588 00ae DB6B     		ldr	r3, [r3, #60]
 2589 00b0 2B4A     		ldr	r2, .L130+8
 2590 00b2 DA63     		str	r2, [r3, #60]
1509:../../Drivers/STM32F7xx_HAL_Driver/Src/stm32f7xx_hal_i2c.c ****       
1510:../../Drivers/STM32F7xx_HAL_Driver/Src/stm32f7xx_hal_i2c.c ****       /* Set the DMA error callback */
1511:../../Drivers/STM32F7xx_HAL_Driver/Src/stm32f7xx_hal_i2c.c ****       hi2c->hdmarx->XferErrorCallback = I2C_DMAError;
 2591              		.loc 1 1511 0
 2592 00b4 FB68     		ldr	r3, [r7, #12]
 2593 00b6 DB6B     		ldr	r3, [r3, #60]
 2594 00b8 2A4A     		ldr	r2, .L130+12
 2595 00ba DA64     		str	r2, [r3, #76]
1512:../../Drivers/STM32F7xx_HAL_Driver/Src/stm32f7xx_hal_i2c.c ****       
1513:../../Drivers/STM32F7xx_HAL_Driver/Src/stm32f7xx_hal_i2c.c ****       /* Set the unused DMA callbacks to NULL */
1514:../../Drivers/STM32F7xx_HAL_Driver/Src/stm32f7xx_hal_i2c.c ****       hi2c->hdmarx->XferHalfCpltCallback = NULL;
 2596              		.loc 1 1514 0
 2597 00bc FB68     		ldr	r3, [r7, #12]
 2598 00be DB6B     		ldr	r3, [r3, #60]
 2599 00c0 0022     		movs	r2, #0
 2600 00c2 1A64     		str	r2, [r3, #64]
1515:../../Drivers/STM32F7xx_HAL_Driver/Src/stm32f7xx_hal_i2c.c ****       hi2c->hdmarx->XferAbortCallback = NULL;
 2601              		.loc 1 1515 0
 2602 00c4 FB68     		ldr	r3, [r7, #12]
 2603 00c6 DB6B     		ldr	r3, [r3, #60]
 2604 00c8 0022     		movs	r2, #0
 2605 00ca 1A65     		str	r2, [r3, #80]
1516:../../Drivers/STM32F7xx_HAL_Driver/Src/stm32f7xx_hal_i2c.c ****       
1517:../../Drivers/STM32F7xx_HAL_Driver/Src/stm32f7xx_hal_i2c.c ****       /* Enable the DMA channel */
1518:../../Drivers/STM32F7xx_HAL_Driver/Src/stm32f7xx_hal_i2c.c ****       HAL_DMA_Start_IT(hi2c->hdmarx, (uint32_t)&hi2c->Instance->RXDR, (uint32_t)pData, hi2c->XferSi
 2606              		.loc 1 1518 0
 2607 00cc FB68     		ldr	r3, [r7, #12]
 2608 00ce D96B     		ldr	r1, [r3, #60]
 2609 00d0 FB68     		ldr	r3, [r7, #12]
ARM GAS  /tmp/cczIhzQ0.s 			page 73


 2610 00d2 1B68     		ldr	r3, [r3]
 2611 00d4 2433     		adds	r3, r3, #36
 2612 00d6 1C46     		mov	r4, r3
 2613 00d8 7A68     		ldr	r2, [r7, #4]
 2614 00da FB68     		ldr	r3, [r7, #12]
 2615 00dc 1B8D     		ldrh	r3, [r3, #40]
 2616 00de 0846     		mov	r0, r1
 2617 00e0 2146     		mov	r1, r4
 2618 00e2 FFF7FEFF 		bl	HAL_DMA_Start_IT
1519:../../Drivers/STM32F7xx_HAL_Driver/Src/stm32f7xx_hal_i2c.c ****       
1520:../../Drivers/STM32F7xx_HAL_Driver/Src/stm32f7xx_hal_i2c.c ****       /* Send Slave Address */
1521:../../Drivers/STM32F7xx_HAL_Driver/Src/stm32f7xx_hal_i2c.c ****       /* Set NBYTES to write and reload if hi2c->XferCount > MAX_NBYTE_SIZE and generate RESTART */
1522:../../Drivers/STM32F7xx_HAL_Driver/Src/stm32f7xx_hal_i2c.c ****       I2C_TransferConfig(hi2c,DevAddress,hi2c->XferSize, xfermode, I2C_GENERATE_START_READ);
 2619              		.loc 1 1522 0
 2620 00e6 FB68     		ldr	r3, [r7, #12]
 2621 00e8 1B8D     		ldrh	r3, [r3, #40]
 2622 00ea DAB2     		uxtb	r2, r3
 2623 00ec 7989     		ldrh	r1, [r7, #10]
 2624 00ee 4FF41053 		mov	r3, #9216
 2625 00f2 0093     		str	r3, [sp]
 2626 00f4 F868     		ldr	r0, [r7, #12]
 2627 00f6 7B69     		ldr	r3, [r7, #20]
 2628 00f8 FFF7FEFF 		bl	I2C_TransferConfig
1523:../../Drivers/STM32F7xx_HAL_Driver/Src/stm32f7xx_hal_i2c.c ****       
1524:../../Drivers/STM32F7xx_HAL_Driver/Src/stm32f7xx_hal_i2c.c ****       /* Update XferCount value */
1525:../../Drivers/STM32F7xx_HAL_Driver/Src/stm32f7xx_hal_i2c.c ****       hi2c->XferCount -= hi2c->XferSize;
 2629              		.loc 1 1525 0
 2630 00fc FB68     		ldr	r3, [r7, #12]
 2631 00fe 5B8D     		ldrh	r3, [r3, #42]	@ movhi
 2632 0100 9AB2     		uxth	r2, r3
 2633 0102 FB68     		ldr	r3, [r7, #12]
 2634 0104 1B8D     		ldrh	r3, [r3, #40]
 2635 0106 D31A     		subs	r3, r2, r3
 2636 0108 9AB2     		uxth	r2, r3
 2637 010a FB68     		ldr	r3, [r7, #12]
 2638 010c 5A85     		strh	r2, [r3, #42]	@ movhi
1526:../../Drivers/STM32F7xx_HAL_Driver/Src/stm32f7xx_hal_i2c.c ****       
1527:../../Drivers/STM32F7xx_HAL_Driver/Src/stm32f7xx_hal_i2c.c ****       /* Process Unlocked */
1528:../../Drivers/STM32F7xx_HAL_Driver/Src/stm32f7xx_hal_i2c.c ****       __HAL_UNLOCK(hi2c);
 2639              		.loc 1 1528 0
 2640 010e FB68     		ldr	r3, [r7, #12]
 2641 0110 0022     		movs	r2, #0
 2642 0112 83F84020 		strb	r2, [r3, #64]
1529:../../Drivers/STM32F7xx_HAL_Driver/Src/stm32f7xx_hal_i2c.c ****       
1530:../../Drivers/STM32F7xx_HAL_Driver/Src/stm32f7xx_hal_i2c.c ****       /* Note : The I2C interrupts must be enabled after unlocking current process
1531:../../Drivers/STM32F7xx_HAL_Driver/Src/stm32f7xx_hal_i2c.c ****                 to avoid the risk of I2C interrupt handle execution before current
1532:../../Drivers/STM32F7xx_HAL_Driver/Src/stm32f7xx_hal_i2c.c ****                 process unlock */
1533:../../Drivers/STM32F7xx_HAL_Driver/Src/stm32f7xx_hal_i2c.c ****       /* Enable ERR and NACK interrupts */
1534:../../Drivers/STM32F7xx_HAL_Driver/Src/stm32f7xx_hal_i2c.c ****       I2C_Enable_IRQ(hi2c, I2C_XFER_ERROR_IT);
 2643              		.loc 1 1534 0
 2644 0116 F868     		ldr	r0, [r7, #12]
 2645 0118 1121     		movs	r1, #17
 2646 011a FFF7FEFF 		bl	I2C_Enable_IRQ
1535:../../Drivers/STM32F7xx_HAL_Driver/Src/stm32f7xx_hal_i2c.c ****       
1536:../../Drivers/STM32F7xx_HAL_Driver/Src/stm32f7xx_hal_i2c.c ****       /* Enable DMA Request */
1537:../../Drivers/STM32F7xx_HAL_Driver/Src/stm32f7xx_hal_i2c.c ****       hi2c->Instance->CR1 |= I2C_CR1_RXDMAEN;
 2647              		.loc 1 1537 0
ARM GAS  /tmp/cczIhzQ0.s 			page 74


 2648 011e FB68     		ldr	r3, [r7, #12]
 2649 0120 1B68     		ldr	r3, [r3]
 2650 0122 FA68     		ldr	r2, [r7, #12]
 2651 0124 1268     		ldr	r2, [r2]
 2652 0126 1268     		ldr	r2, [r2]
 2653 0128 42F40042 		orr	r2, r2, #32768
 2654 012c 1A60     		str	r2, [r3]
 2655 012e 0BE0     		b	.L129
 2656              	.L128:
1538:../../Drivers/STM32F7xx_HAL_Driver/Src/stm32f7xx_hal_i2c.c ****     }
1539:../../Drivers/STM32F7xx_HAL_Driver/Src/stm32f7xx_hal_i2c.c ****     else
1540:../../Drivers/STM32F7xx_HAL_Driver/Src/stm32f7xx_hal_i2c.c ****     {
1541:../../Drivers/STM32F7xx_HAL_Driver/Src/stm32f7xx_hal_i2c.c ****       hi2c->State = HAL_I2C_STATE_READY;
 2657              		.loc 1 1541 0
 2658 0130 FB68     		ldr	r3, [r7, #12]
 2659 0132 2022     		movs	r2, #32
 2660 0134 83F84120 		strb	r2, [r3, #65]
1542:../../Drivers/STM32F7xx_HAL_Driver/Src/stm32f7xx_hal_i2c.c ****       hi2c->Mode = HAL_I2C_MODE_NONE;
 2661              		.loc 1 1542 0
 2662 0138 FB68     		ldr	r3, [r7, #12]
 2663 013a 0022     		movs	r2, #0
 2664 013c 83F84220 		strb	r2, [r3, #66]
1543:../../Drivers/STM32F7xx_HAL_Driver/Src/stm32f7xx_hal_i2c.c ****       
1544:../../Drivers/STM32F7xx_HAL_Driver/Src/stm32f7xx_hal_i2c.c ****       /* Process Unlocked */
1545:../../Drivers/STM32F7xx_HAL_Driver/Src/stm32f7xx_hal_i2c.c ****       __HAL_UNLOCK(hi2c);
 2665              		.loc 1 1545 0
 2666 0140 FB68     		ldr	r3, [r7, #12]
 2667 0142 0022     		movs	r2, #0
 2668 0144 83F84020 		strb	r2, [r3, #64]
 2669              	.L129:
1546:../../Drivers/STM32F7xx_HAL_Driver/Src/stm32f7xx_hal_i2c.c ****     }
1547:../../Drivers/STM32F7xx_HAL_Driver/Src/stm32f7xx_hal_i2c.c ****     return HAL_OK;
 2670              		.loc 1 1547 0
 2671 0148 0023     		movs	r3, #0
 2672 014a 00E0     		b	.L124
 2673              	.L122:
1548:../../Drivers/STM32F7xx_HAL_Driver/Src/stm32f7xx_hal_i2c.c ****   }
1549:../../Drivers/STM32F7xx_HAL_Driver/Src/stm32f7xx_hal_i2c.c ****   else
1550:../../Drivers/STM32F7xx_HAL_Driver/Src/stm32f7xx_hal_i2c.c ****   {
1551:../../Drivers/STM32F7xx_HAL_Driver/Src/stm32f7xx_hal_i2c.c ****     return HAL_BUSY;
 2674              		.loc 1 1551 0
 2675 014c 0223     		movs	r3, #2
 2676              	.L124:
1552:../../Drivers/STM32F7xx_HAL_Driver/Src/stm32f7xx_hal_i2c.c ****   }
1553:../../Drivers/STM32F7xx_HAL_Driver/Src/stm32f7xx_hal_i2c.c **** }
 2677              		.loc 1 1553 0
 2678 014e 1846     		mov	r0, r3
 2679 0150 1C37     		adds	r7, r7, #28
 2680              	.LCFI70:
 2681              		.cfi_def_cfa_offset 12
 2682 0152 BD46     		mov	sp, r7
 2683              	.LCFI71:
 2684              		.cfi_def_cfa_register 13
 2685              		@ sp needed
 2686 0154 90BD     		pop	{r4, r7, pc}
 2687              	.L131:
 2688 0156 00BF     		.align	2
ARM GAS  /tmp/cczIhzQ0.s 			page 75


 2689              	.L130:
 2690 0158 0000FFFF 		.word	-65536
 2691 015c 00000000 		.word	I2C_Master_ISR_DMA
 2692 0160 00000000 		.word	I2C_DMAMasterReceiveCplt
 2693 0164 00000000 		.word	I2C_DMAError
 2694              		.cfi_endproc
 2695              	.LFE148:
 2697              		.section	.text.HAL_I2C_Slave_Transmit_DMA,"ax",%progbits
 2698              		.align	2
 2699              		.global	HAL_I2C_Slave_Transmit_DMA
 2700              		.thumb
 2701              		.thumb_func
 2703              	HAL_I2C_Slave_Transmit_DMA:
 2704              	.LFB149:
1554:../../Drivers/STM32F7xx_HAL_Driver/Src/stm32f7xx_hal_i2c.c **** 
1555:../../Drivers/STM32F7xx_HAL_Driver/Src/stm32f7xx_hal_i2c.c **** /**
1556:../../Drivers/STM32F7xx_HAL_Driver/Src/stm32f7xx_hal_i2c.c ****   * @brief  Transmit in slave mode an amount of data in non-blocking mode with DMA
1557:../../Drivers/STM32F7xx_HAL_Driver/Src/stm32f7xx_hal_i2c.c ****   * @param  hi2c: Pointer to a I2C_HandleTypeDef structure that contains
1558:../../Drivers/STM32F7xx_HAL_Driver/Src/stm32f7xx_hal_i2c.c ****   *               the configuration information for the specified I2C.
1559:../../Drivers/STM32F7xx_HAL_Driver/Src/stm32f7xx_hal_i2c.c ****   * @param  pData: Pointer to data buffer
1560:../../Drivers/STM32F7xx_HAL_Driver/Src/stm32f7xx_hal_i2c.c ****   * @param  Size: Amount of data to be sent
1561:../../Drivers/STM32F7xx_HAL_Driver/Src/stm32f7xx_hal_i2c.c ****   * @retval HAL status
1562:../../Drivers/STM32F7xx_HAL_Driver/Src/stm32f7xx_hal_i2c.c ****   */
1563:../../Drivers/STM32F7xx_HAL_Driver/Src/stm32f7xx_hal_i2c.c **** HAL_StatusTypeDef HAL_I2C_Slave_Transmit_DMA(I2C_HandleTypeDef *hi2c, uint8_t *pData, uint16_t Size
1564:../../Drivers/STM32F7xx_HAL_Driver/Src/stm32f7xx_hal_i2c.c **** {
 2705              		.loc 1 1564 0
 2706              		.cfi_startproc
 2707              		@ args = 0, pretend = 0, frame = 16
 2708              		@ frame_needed = 1, uses_anonymous_args = 0
 2709 0000 90B5     		push	{r4, r7, lr}
 2710              	.LCFI72:
 2711              		.cfi_def_cfa_offset 12
 2712              		.cfi_offset 4, -12
 2713              		.cfi_offset 7, -8
 2714              		.cfi_offset 14, -4
 2715 0002 85B0     		sub	sp, sp, #20
 2716              	.LCFI73:
 2717              		.cfi_def_cfa_offset 32
 2718 0004 00AF     		add	r7, sp, #0
 2719              	.LCFI74:
 2720              		.cfi_def_cfa_register 7
 2721 0006 F860     		str	r0, [r7, #12]
 2722 0008 B960     		str	r1, [r7, #8]
 2723 000a 1346     		mov	r3, r2
 2724 000c FB80     		strh	r3, [r7, #6]	@ movhi
1565:../../Drivers/STM32F7xx_HAL_Driver/Src/stm32f7xx_hal_i2c.c ****   if(hi2c->State == HAL_I2C_STATE_READY)
 2725              		.loc 1 1565 0
 2726 000e FB68     		ldr	r3, [r7, #12]
 2727 0010 93F84130 		ldrb	r3, [r3, #65]
 2728 0014 DBB2     		uxtb	r3, r3
 2729 0016 202B     		cmp	r3, #32
 2730 0018 66D1     		bne	.L133
1566:../../Drivers/STM32F7xx_HAL_Driver/Src/stm32f7xx_hal_i2c.c ****   {
1567:../../Drivers/STM32F7xx_HAL_Driver/Src/stm32f7xx_hal_i2c.c ****     if((pData == NULL) || (Size == 0))
 2731              		.loc 1 1567 0
 2732 001a BB68     		ldr	r3, [r7, #8]
 2733 001c 002B     		cmp	r3, #0
ARM GAS  /tmp/cczIhzQ0.s 			page 76


 2734 001e 02D0     		beq	.L134
 2735              		.loc 1 1567 0 is_stmt 0 discriminator 1
 2736 0020 FB88     		ldrh	r3, [r7, #6]
 2737 0022 002B     		cmp	r3, #0
 2738 0024 01D1     		bne	.L135
 2739              	.L134:
1568:../../Drivers/STM32F7xx_HAL_Driver/Src/stm32f7xx_hal_i2c.c ****     {
1569:../../Drivers/STM32F7xx_HAL_Driver/Src/stm32f7xx_hal_i2c.c ****       return  HAL_ERROR;
 2740              		.loc 1 1569 0 is_stmt 1
 2741 0026 0123     		movs	r3, #1
 2742 0028 5FE0     		b	.L136
 2743              	.L135:
1570:../../Drivers/STM32F7xx_HAL_Driver/Src/stm32f7xx_hal_i2c.c ****     }   
1571:../../Drivers/STM32F7xx_HAL_Driver/Src/stm32f7xx_hal_i2c.c ****     /* Process Locked */
1572:../../Drivers/STM32F7xx_HAL_Driver/Src/stm32f7xx_hal_i2c.c ****     __HAL_LOCK(hi2c);
 2744              		.loc 1 1572 0
 2745 002a FB68     		ldr	r3, [r7, #12]
 2746 002c 93F84030 		ldrb	r3, [r3, #64]	@ zero_extendqisi2
 2747 0030 012B     		cmp	r3, #1
 2748 0032 01D1     		bne	.L137
 2749              		.loc 1 1572 0 is_stmt 0 discriminator 1
 2750 0034 0223     		movs	r3, #2
 2751 0036 58E0     		b	.L136
 2752              	.L137:
 2753              		.loc 1 1572 0 discriminator 2
 2754 0038 FB68     		ldr	r3, [r7, #12]
 2755 003a 0122     		movs	r2, #1
 2756 003c 83F84020 		strb	r2, [r3, #64]
1573:../../Drivers/STM32F7xx_HAL_Driver/Src/stm32f7xx_hal_i2c.c ****     
1574:../../Drivers/STM32F7xx_HAL_Driver/Src/stm32f7xx_hal_i2c.c ****     hi2c->State       = HAL_I2C_STATE_BUSY_TX;
 2757              		.loc 1 1574 0 is_stmt 1 discriminator 2
 2758 0040 FB68     		ldr	r3, [r7, #12]
 2759 0042 2122     		movs	r2, #33
 2760 0044 83F84120 		strb	r2, [r3, #65]
1575:../../Drivers/STM32F7xx_HAL_Driver/Src/stm32f7xx_hal_i2c.c ****     hi2c->Mode        = HAL_I2C_MODE_SLAVE;
 2761              		.loc 1 1575 0 discriminator 2
 2762 0048 FB68     		ldr	r3, [r7, #12]
 2763 004a 2022     		movs	r2, #32
 2764 004c 83F84220 		strb	r2, [r3, #66]
1576:../../Drivers/STM32F7xx_HAL_Driver/Src/stm32f7xx_hal_i2c.c ****     hi2c->ErrorCode   = HAL_I2C_ERROR_NONE;
 2765              		.loc 1 1576 0 discriminator 2
 2766 0050 FB68     		ldr	r3, [r7, #12]
 2767 0052 0022     		movs	r2, #0
 2768 0054 5A64     		str	r2, [r3, #68]
1577:../../Drivers/STM32F7xx_HAL_Driver/Src/stm32f7xx_hal_i2c.c ****     
1578:../../Drivers/STM32F7xx_HAL_Driver/Src/stm32f7xx_hal_i2c.c ****     /* Prepare transfer parameters */
1579:../../Drivers/STM32F7xx_HAL_Driver/Src/stm32f7xx_hal_i2c.c ****     hi2c->pBuffPtr    = pData;
 2769              		.loc 1 1579 0 discriminator 2
 2770 0056 FB68     		ldr	r3, [r7, #12]
 2771 0058 BA68     		ldr	r2, [r7, #8]
 2772 005a 5A62     		str	r2, [r3, #36]
1580:../../Drivers/STM32F7xx_HAL_Driver/Src/stm32f7xx_hal_i2c.c ****     hi2c->XferCount   = Size;
 2773              		.loc 1 1580 0 discriminator 2
 2774 005c FB68     		ldr	r3, [r7, #12]
 2775 005e FA88     		ldrh	r2, [r7, #6]	@ movhi
 2776 0060 5A85     		strh	r2, [r3, #42]	@ movhi
1581:../../Drivers/STM32F7xx_HAL_Driver/Src/stm32f7xx_hal_i2c.c ****     hi2c->XferSize    = hi2c->XferCount;
ARM GAS  /tmp/cczIhzQ0.s 			page 77


 2777              		.loc 1 1581 0 discriminator 2
 2778 0062 FB68     		ldr	r3, [r7, #12]
 2779 0064 5B8D     		ldrh	r3, [r3, #42]	@ movhi
 2780 0066 9AB2     		uxth	r2, r3
 2781 0068 FB68     		ldr	r3, [r7, #12]
 2782 006a 1A85     		strh	r2, [r3, #40]	@ movhi
1582:../../Drivers/STM32F7xx_HAL_Driver/Src/stm32f7xx_hal_i2c.c ****     hi2c->XferOptions = I2C_NO_OPTION_FRAME;
 2783              		.loc 1 1582 0 discriminator 2
 2784 006c FB68     		ldr	r3, [r7, #12]
 2785 006e 214A     		ldr	r2, .L138
 2786 0070 DA62     		str	r2, [r3, #44]
1583:../../Drivers/STM32F7xx_HAL_Driver/Src/stm32f7xx_hal_i2c.c ****     hi2c->XferISR     = I2C_Slave_ISR_DMA;
 2787              		.loc 1 1583 0 discriminator 2
 2788 0072 FB68     		ldr	r3, [r7, #12]
 2789 0074 204A     		ldr	r2, .L138+4
 2790 0076 5A63     		str	r2, [r3, #52]
1584:../../Drivers/STM32F7xx_HAL_Driver/Src/stm32f7xx_hal_i2c.c ****     
1585:../../Drivers/STM32F7xx_HAL_Driver/Src/stm32f7xx_hal_i2c.c ****     /* Set the I2C DMA transfer complete callback */
1586:../../Drivers/STM32F7xx_HAL_Driver/Src/stm32f7xx_hal_i2c.c ****     hi2c->hdmatx->XferCpltCallback = I2C_DMASlaveTransmitCplt;
 2791              		.loc 1 1586 0 discriminator 2
 2792 0078 FB68     		ldr	r3, [r7, #12]
 2793 007a 9B6B     		ldr	r3, [r3, #56]
 2794 007c 1F4A     		ldr	r2, .L138+8
 2795 007e DA63     		str	r2, [r3, #60]
1587:../../Drivers/STM32F7xx_HAL_Driver/Src/stm32f7xx_hal_i2c.c ****     
1588:../../Drivers/STM32F7xx_HAL_Driver/Src/stm32f7xx_hal_i2c.c ****     /* Set the DMA error callback */
1589:../../Drivers/STM32F7xx_HAL_Driver/Src/stm32f7xx_hal_i2c.c ****     hi2c->hdmatx->XferErrorCallback = I2C_DMAError;
 2796              		.loc 1 1589 0 discriminator 2
 2797 0080 FB68     		ldr	r3, [r7, #12]
 2798 0082 9B6B     		ldr	r3, [r3, #56]
 2799 0084 1E4A     		ldr	r2, .L138+12
 2800 0086 DA64     		str	r2, [r3, #76]
1590:../../Drivers/STM32F7xx_HAL_Driver/Src/stm32f7xx_hal_i2c.c ****     
1591:../../Drivers/STM32F7xx_HAL_Driver/Src/stm32f7xx_hal_i2c.c ****     /* Set the unused DMA callbacks to NULL */
1592:../../Drivers/STM32F7xx_HAL_Driver/Src/stm32f7xx_hal_i2c.c ****     hi2c->hdmatx->XferHalfCpltCallback = NULL;
 2801              		.loc 1 1592 0 discriminator 2
 2802 0088 FB68     		ldr	r3, [r7, #12]
 2803 008a 9B6B     		ldr	r3, [r3, #56]
 2804 008c 0022     		movs	r2, #0
 2805 008e 1A64     		str	r2, [r3, #64]
1593:../../Drivers/STM32F7xx_HAL_Driver/Src/stm32f7xx_hal_i2c.c ****     hi2c->hdmatx->XferAbortCallback = NULL;
 2806              		.loc 1 1593 0 discriminator 2
 2807 0090 FB68     		ldr	r3, [r7, #12]
 2808 0092 9B6B     		ldr	r3, [r3, #56]
 2809 0094 0022     		movs	r2, #0
 2810 0096 1A65     		str	r2, [r3, #80]
1594:../../Drivers/STM32F7xx_HAL_Driver/Src/stm32f7xx_hal_i2c.c ****     
1595:../../Drivers/STM32F7xx_HAL_Driver/Src/stm32f7xx_hal_i2c.c ****     /* Enable the DMA channel */
1596:../../Drivers/STM32F7xx_HAL_Driver/Src/stm32f7xx_hal_i2c.c ****     HAL_DMA_Start_IT(hi2c->hdmatx, (uint32_t)pData, (uint32_t)&hi2c->Instance->TXDR, hi2c->XferSize
 2811              		.loc 1 1596 0 discriminator 2
 2812 0098 FB68     		ldr	r3, [r7, #12]
 2813 009a 996B     		ldr	r1, [r3, #56]
 2814 009c BA68     		ldr	r2, [r7, #8]
 2815 009e FB68     		ldr	r3, [r7, #12]
 2816 00a0 1B68     		ldr	r3, [r3]
 2817 00a2 2833     		adds	r3, r3, #40
 2818 00a4 1C46     		mov	r4, r3
ARM GAS  /tmp/cczIhzQ0.s 			page 78


 2819 00a6 FB68     		ldr	r3, [r7, #12]
 2820 00a8 1B8D     		ldrh	r3, [r3, #40]
 2821 00aa 0846     		mov	r0, r1
 2822 00ac 1146     		mov	r1, r2
 2823 00ae 2246     		mov	r2, r4
 2824 00b0 FFF7FEFF 		bl	HAL_DMA_Start_IT
1597:../../Drivers/STM32F7xx_HAL_Driver/Src/stm32f7xx_hal_i2c.c ****     
1598:../../Drivers/STM32F7xx_HAL_Driver/Src/stm32f7xx_hal_i2c.c ****     /* Enable Address Acknowledge */
1599:../../Drivers/STM32F7xx_HAL_Driver/Src/stm32f7xx_hal_i2c.c ****     hi2c->Instance->CR2 &= ~I2C_CR2_NACK;
 2825              		.loc 1 1599 0 discriminator 2
 2826 00b4 FB68     		ldr	r3, [r7, #12]
 2827 00b6 1B68     		ldr	r3, [r3]
 2828 00b8 FA68     		ldr	r2, [r7, #12]
 2829 00ba 1268     		ldr	r2, [r2]
 2830 00bc 5268     		ldr	r2, [r2, #4]
 2831 00be 22F40042 		bic	r2, r2, #32768
 2832 00c2 5A60     		str	r2, [r3, #4]
1600:../../Drivers/STM32F7xx_HAL_Driver/Src/stm32f7xx_hal_i2c.c ****     
1601:../../Drivers/STM32F7xx_HAL_Driver/Src/stm32f7xx_hal_i2c.c ****     /* Process Unlocked */
1602:../../Drivers/STM32F7xx_HAL_Driver/Src/stm32f7xx_hal_i2c.c ****     __HAL_UNLOCK(hi2c);
 2833              		.loc 1 1602 0 discriminator 2
 2834 00c4 FB68     		ldr	r3, [r7, #12]
 2835 00c6 0022     		movs	r2, #0
 2836 00c8 83F84020 		strb	r2, [r3, #64]
1603:../../Drivers/STM32F7xx_HAL_Driver/Src/stm32f7xx_hal_i2c.c ****     
1604:../../Drivers/STM32F7xx_HAL_Driver/Src/stm32f7xx_hal_i2c.c ****     /* Note : The I2C interrupts must be enabled after unlocking current process
1605:../../Drivers/STM32F7xx_HAL_Driver/Src/stm32f7xx_hal_i2c.c ****               to avoid the risk of I2C interrupt handle execution before current
1606:../../Drivers/STM32F7xx_HAL_Driver/Src/stm32f7xx_hal_i2c.c ****               process unlock */
1607:../../Drivers/STM32F7xx_HAL_Driver/Src/stm32f7xx_hal_i2c.c ****     /* Enable ERR, STOP, NACK, ADDR interrupts */
1608:../../Drivers/STM32F7xx_HAL_Driver/Src/stm32f7xx_hal_i2c.c ****     I2C_Enable_IRQ(hi2c, I2C_XFER_LISTEN_IT);
 2837              		.loc 1 1608 0 discriminator 2
 2838 00cc F868     		ldr	r0, [r7, #12]
 2839 00ce 0421     		movs	r1, #4
 2840 00d0 FFF7FEFF 		bl	I2C_Enable_IRQ
1609:../../Drivers/STM32F7xx_HAL_Driver/Src/stm32f7xx_hal_i2c.c ****     
1610:../../Drivers/STM32F7xx_HAL_Driver/Src/stm32f7xx_hal_i2c.c ****     /* Enable DMA Request */
1611:../../Drivers/STM32F7xx_HAL_Driver/Src/stm32f7xx_hal_i2c.c ****     hi2c->Instance->CR1 |= I2C_CR1_TXDMAEN; 
 2841              		.loc 1 1611 0 discriminator 2
 2842 00d4 FB68     		ldr	r3, [r7, #12]
 2843 00d6 1B68     		ldr	r3, [r3]
 2844 00d8 FA68     		ldr	r2, [r7, #12]
 2845 00da 1268     		ldr	r2, [r2]
 2846 00dc 1268     		ldr	r2, [r2]
 2847 00de 42F48042 		orr	r2, r2, #16384
 2848 00e2 1A60     		str	r2, [r3]
1612:../../Drivers/STM32F7xx_HAL_Driver/Src/stm32f7xx_hal_i2c.c ****     
1613:../../Drivers/STM32F7xx_HAL_Driver/Src/stm32f7xx_hal_i2c.c ****     return HAL_OK;
 2849              		.loc 1 1613 0 discriminator 2
 2850 00e4 0023     		movs	r3, #0
 2851 00e6 00E0     		b	.L136
 2852              	.L133:
1614:../../Drivers/STM32F7xx_HAL_Driver/Src/stm32f7xx_hal_i2c.c ****   }
1615:../../Drivers/STM32F7xx_HAL_Driver/Src/stm32f7xx_hal_i2c.c ****   else
1616:../../Drivers/STM32F7xx_HAL_Driver/Src/stm32f7xx_hal_i2c.c ****   {
1617:../../Drivers/STM32F7xx_HAL_Driver/Src/stm32f7xx_hal_i2c.c ****     return HAL_BUSY;
 2853              		.loc 1 1617 0
 2854 00e8 0223     		movs	r3, #2
ARM GAS  /tmp/cczIhzQ0.s 			page 79


 2855              	.L136:
1618:../../Drivers/STM32F7xx_HAL_Driver/Src/stm32f7xx_hal_i2c.c ****   }
1619:../../Drivers/STM32F7xx_HAL_Driver/Src/stm32f7xx_hal_i2c.c **** }
 2856              		.loc 1 1619 0
 2857 00ea 1846     		mov	r0, r3
 2858 00ec 1437     		adds	r7, r7, #20
 2859              	.LCFI75:
 2860              		.cfi_def_cfa_offset 12
 2861 00ee BD46     		mov	sp, r7
 2862              	.LCFI76:
 2863              		.cfi_def_cfa_register 13
 2864              		@ sp needed
 2865 00f0 90BD     		pop	{r4, r7, pc}
 2866              	.L139:
 2867 00f2 00BF     		.align	2
 2868              	.L138:
 2869 00f4 0000FFFF 		.word	-65536
 2870 00f8 00000000 		.word	I2C_Slave_ISR_DMA
 2871 00fc 00000000 		.word	I2C_DMASlaveTransmitCplt
 2872 0100 00000000 		.word	I2C_DMAError
 2873              		.cfi_endproc
 2874              	.LFE149:
 2876              		.section	.text.HAL_I2C_Slave_Receive_DMA,"ax",%progbits
 2877              		.align	2
 2878              		.global	HAL_I2C_Slave_Receive_DMA
 2879              		.thumb
 2880              		.thumb_func
 2882              	HAL_I2C_Slave_Receive_DMA:
 2883              	.LFB150:
1620:../../Drivers/STM32F7xx_HAL_Driver/Src/stm32f7xx_hal_i2c.c **** 
1621:../../Drivers/STM32F7xx_HAL_Driver/Src/stm32f7xx_hal_i2c.c **** /**
1622:../../Drivers/STM32F7xx_HAL_Driver/Src/stm32f7xx_hal_i2c.c ****   * @brief  Receive in slave mode an amount of data in non-blocking mode with DMA
1623:../../Drivers/STM32F7xx_HAL_Driver/Src/stm32f7xx_hal_i2c.c ****   * @param  hi2c: Pointer to a I2C_HandleTypeDef structure that contains
1624:../../Drivers/STM32F7xx_HAL_Driver/Src/stm32f7xx_hal_i2c.c ****   *               the configuration information for the specified I2C.
1625:../../Drivers/STM32F7xx_HAL_Driver/Src/stm32f7xx_hal_i2c.c ****   * @param  pData: Pointer to data buffer
1626:../../Drivers/STM32F7xx_HAL_Driver/Src/stm32f7xx_hal_i2c.c ****   * @param  Size: Amount of data to be sent
1627:../../Drivers/STM32F7xx_HAL_Driver/Src/stm32f7xx_hal_i2c.c ****   * @retval HAL status
1628:../../Drivers/STM32F7xx_HAL_Driver/Src/stm32f7xx_hal_i2c.c ****   */
1629:../../Drivers/STM32F7xx_HAL_Driver/Src/stm32f7xx_hal_i2c.c **** HAL_StatusTypeDef HAL_I2C_Slave_Receive_DMA(I2C_HandleTypeDef *hi2c, uint8_t *pData, uint16_t Size)
1630:../../Drivers/STM32F7xx_HAL_Driver/Src/stm32f7xx_hal_i2c.c **** {
 2884              		.loc 1 1630 0
 2885              		.cfi_startproc
 2886              		@ args = 0, pretend = 0, frame = 16
 2887              		@ frame_needed = 1, uses_anonymous_args = 0
 2888 0000 90B5     		push	{r4, r7, lr}
 2889              	.LCFI77:
 2890              		.cfi_def_cfa_offset 12
 2891              		.cfi_offset 4, -12
 2892              		.cfi_offset 7, -8
 2893              		.cfi_offset 14, -4
 2894 0002 85B0     		sub	sp, sp, #20
 2895              	.LCFI78:
 2896              		.cfi_def_cfa_offset 32
 2897 0004 00AF     		add	r7, sp, #0
 2898              	.LCFI79:
 2899              		.cfi_def_cfa_register 7
 2900 0006 F860     		str	r0, [r7, #12]
ARM GAS  /tmp/cczIhzQ0.s 			page 80


 2901 0008 B960     		str	r1, [r7, #8]
 2902 000a 1346     		mov	r3, r2
 2903 000c FB80     		strh	r3, [r7, #6]	@ movhi
1631:../../Drivers/STM32F7xx_HAL_Driver/Src/stm32f7xx_hal_i2c.c ****   if(hi2c->State == HAL_I2C_STATE_READY)
 2904              		.loc 1 1631 0
 2905 000e FB68     		ldr	r3, [r7, #12]
 2906 0010 93F84130 		ldrb	r3, [r3, #65]
 2907 0014 DBB2     		uxtb	r3, r3
 2908 0016 202B     		cmp	r3, #32
 2909 0018 65D1     		bne	.L141
1632:../../Drivers/STM32F7xx_HAL_Driver/Src/stm32f7xx_hal_i2c.c ****   {
1633:../../Drivers/STM32F7xx_HAL_Driver/Src/stm32f7xx_hal_i2c.c ****     if((pData == NULL) || (Size == 0))
 2910              		.loc 1 1633 0
 2911 001a BB68     		ldr	r3, [r7, #8]
 2912 001c 002B     		cmp	r3, #0
 2913 001e 02D0     		beq	.L142
 2914              		.loc 1 1633 0 is_stmt 0 discriminator 1
 2915 0020 FB88     		ldrh	r3, [r7, #6]
 2916 0022 002B     		cmp	r3, #0
 2917 0024 01D1     		bne	.L143
 2918              	.L142:
1634:../../Drivers/STM32F7xx_HAL_Driver/Src/stm32f7xx_hal_i2c.c ****     {
1635:../../Drivers/STM32F7xx_HAL_Driver/Src/stm32f7xx_hal_i2c.c ****       return  HAL_ERROR;
 2919              		.loc 1 1635 0 is_stmt 1
 2920 0026 0123     		movs	r3, #1
 2921 0028 5EE0     		b	.L144
 2922              	.L143:
1636:../../Drivers/STM32F7xx_HAL_Driver/Src/stm32f7xx_hal_i2c.c ****     }   
1637:../../Drivers/STM32F7xx_HAL_Driver/Src/stm32f7xx_hal_i2c.c ****     /* Process Locked */
1638:../../Drivers/STM32F7xx_HAL_Driver/Src/stm32f7xx_hal_i2c.c ****     __HAL_LOCK(hi2c);
 2923              		.loc 1 1638 0
 2924 002a FB68     		ldr	r3, [r7, #12]
 2925 002c 93F84030 		ldrb	r3, [r3, #64]	@ zero_extendqisi2
 2926 0030 012B     		cmp	r3, #1
 2927 0032 01D1     		bne	.L145
 2928              		.loc 1 1638 0 is_stmt 0 discriminator 1
 2929 0034 0223     		movs	r3, #2
 2930 0036 57E0     		b	.L144
 2931              	.L145:
 2932              		.loc 1 1638 0 discriminator 2
 2933 0038 FB68     		ldr	r3, [r7, #12]
 2934 003a 0122     		movs	r2, #1
 2935 003c 83F84020 		strb	r2, [r3, #64]
1639:../../Drivers/STM32F7xx_HAL_Driver/Src/stm32f7xx_hal_i2c.c ****     
1640:../../Drivers/STM32F7xx_HAL_Driver/Src/stm32f7xx_hal_i2c.c ****     hi2c->State       = HAL_I2C_STATE_BUSY_RX;
 2936              		.loc 1 1640 0 is_stmt 1 discriminator 2
 2937 0040 FB68     		ldr	r3, [r7, #12]
 2938 0042 2222     		movs	r2, #34
 2939 0044 83F84120 		strb	r2, [r3, #65]
1641:../../Drivers/STM32F7xx_HAL_Driver/Src/stm32f7xx_hal_i2c.c ****     hi2c->Mode        = HAL_I2C_MODE_SLAVE;
 2940              		.loc 1 1641 0 discriminator 2
 2941 0048 FB68     		ldr	r3, [r7, #12]
 2942 004a 2022     		movs	r2, #32
 2943 004c 83F84220 		strb	r2, [r3, #66]
1642:../../Drivers/STM32F7xx_HAL_Driver/Src/stm32f7xx_hal_i2c.c ****     hi2c->ErrorCode   = HAL_I2C_ERROR_NONE;
 2944              		.loc 1 1642 0 discriminator 2
 2945 0050 FB68     		ldr	r3, [r7, #12]
ARM GAS  /tmp/cczIhzQ0.s 			page 81


 2946 0052 0022     		movs	r2, #0
 2947 0054 5A64     		str	r2, [r3, #68]
1643:../../Drivers/STM32F7xx_HAL_Driver/Src/stm32f7xx_hal_i2c.c ****     
1644:../../Drivers/STM32F7xx_HAL_Driver/Src/stm32f7xx_hal_i2c.c ****     /* Prepare transfer parameters */
1645:../../Drivers/STM32F7xx_HAL_Driver/Src/stm32f7xx_hal_i2c.c ****     hi2c->pBuffPtr    = pData;
 2948              		.loc 1 1645 0 discriminator 2
 2949 0056 FB68     		ldr	r3, [r7, #12]
 2950 0058 BA68     		ldr	r2, [r7, #8]
 2951 005a 5A62     		str	r2, [r3, #36]
1646:../../Drivers/STM32F7xx_HAL_Driver/Src/stm32f7xx_hal_i2c.c ****     hi2c->XferCount   = Size;
 2952              		.loc 1 1646 0 discriminator 2
 2953 005c FB68     		ldr	r3, [r7, #12]
 2954 005e FA88     		ldrh	r2, [r7, #6]	@ movhi
 2955 0060 5A85     		strh	r2, [r3, #42]	@ movhi
1647:../../Drivers/STM32F7xx_HAL_Driver/Src/stm32f7xx_hal_i2c.c ****     hi2c->XferSize    = hi2c->XferCount;
 2956              		.loc 1 1647 0 discriminator 2
 2957 0062 FB68     		ldr	r3, [r7, #12]
 2958 0064 5B8D     		ldrh	r3, [r3, #42]	@ movhi
 2959 0066 9AB2     		uxth	r2, r3
 2960 0068 FB68     		ldr	r3, [r7, #12]
 2961 006a 1A85     		strh	r2, [r3, #40]	@ movhi
1648:../../Drivers/STM32F7xx_HAL_Driver/Src/stm32f7xx_hal_i2c.c ****     hi2c->XferOptions = I2C_NO_OPTION_FRAME;
 2962              		.loc 1 1648 0 discriminator 2
 2963 006c FB68     		ldr	r3, [r7, #12]
 2964 006e 204A     		ldr	r2, .L146
 2965 0070 DA62     		str	r2, [r3, #44]
1649:../../Drivers/STM32F7xx_HAL_Driver/Src/stm32f7xx_hal_i2c.c ****     hi2c->XferISR     = I2C_Slave_ISR_DMA;
 2966              		.loc 1 1649 0 discriminator 2
 2967 0072 FB68     		ldr	r3, [r7, #12]
 2968 0074 1F4A     		ldr	r2, .L146+4
 2969 0076 5A63     		str	r2, [r3, #52]
1650:../../Drivers/STM32F7xx_HAL_Driver/Src/stm32f7xx_hal_i2c.c ****     
1651:../../Drivers/STM32F7xx_HAL_Driver/Src/stm32f7xx_hal_i2c.c ****     /* Set the I2C DMA transfer complete callback */
1652:../../Drivers/STM32F7xx_HAL_Driver/Src/stm32f7xx_hal_i2c.c ****     hi2c->hdmarx->XferCpltCallback = I2C_DMASlaveReceiveCplt;
 2970              		.loc 1 1652 0 discriminator 2
 2971 0078 FB68     		ldr	r3, [r7, #12]
 2972 007a DB6B     		ldr	r3, [r3, #60]
 2973 007c 1E4A     		ldr	r2, .L146+8
 2974 007e DA63     		str	r2, [r3, #60]
1653:../../Drivers/STM32F7xx_HAL_Driver/Src/stm32f7xx_hal_i2c.c ****     
1654:../../Drivers/STM32F7xx_HAL_Driver/Src/stm32f7xx_hal_i2c.c ****     /* Set the DMA error callback */
1655:../../Drivers/STM32F7xx_HAL_Driver/Src/stm32f7xx_hal_i2c.c ****     hi2c->hdmarx->XferErrorCallback = I2C_DMAError;
 2975              		.loc 1 1655 0 discriminator 2
 2976 0080 FB68     		ldr	r3, [r7, #12]
 2977 0082 DB6B     		ldr	r3, [r3, #60]
 2978 0084 1D4A     		ldr	r2, .L146+12
 2979 0086 DA64     		str	r2, [r3, #76]
1656:../../Drivers/STM32F7xx_HAL_Driver/Src/stm32f7xx_hal_i2c.c ****     
1657:../../Drivers/STM32F7xx_HAL_Driver/Src/stm32f7xx_hal_i2c.c ****     /* Set the unused DMA callbacks to NULL */
1658:../../Drivers/STM32F7xx_HAL_Driver/Src/stm32f7xx_hal_i2c.c ****     hi2c->hdmarx->XferHalfCpltCallback = NULL;
 2980              		.loc 1 1658 0 discriminator 2
 2981 0088 FB68     		ldr	r3, [r7, #12]
 2982 008a DB6B     		ldr	r3, [r3, #60]
 2983 008c 0022     		movs	r2, #0
 2984 008e 1A64     		str	r2, [r3, #64]
1659:../../Drivers/STM32F7xx_HAL_Driver/Src/stm32f7xx_hal_i2c.c ****     hi2c->hdmarx->XferAbortCallback = NULL;
 2985              		.loc 1 1659 0 discriminator 2
ARM GAS  /tmp/cczIhzQ0.s 			page 82


 2986 0090 FB68     		ldr	r3, [r7, #12]
 2987 0092 DB6B     		ldr	r3, [r3, #60]
 2988 0094 0022     		movs	r2, #0
 2989 0096 1A65     		str	r2, [r3, #80]
1660:../../Drivers/STM32F7xx_HAL_Driver/Src/stm32f7xx_hal_i2c.c ****     
1661:../../Drivers/STM32F7xx_HAL_Driver/Src/stm32f7xx_hal_i2c.c ****     /* Enable the DMA channel */
1662:../../Drivers/STM32F7xx_HAL_Driver/Src/stm32f7xx_hal_i2c.c ****     HAL_DMA_Start_IT(hi2c->hdmarx, (uint32_t)&hi2c->Instance->RXDR, (uint32_t)pData, hi2c->XferSize
 2990              		.loc 1 1662 0 discriminator 2
 2991 0098 FB68     		ldr	r3, [r7, #12]
 2992 009a D96B     		ldr	r1, [r3, #60]
 2993 009c FB68     		ldr	r3, [r7, #12]
 2994 009e 1B68     		ldr	r3, [r3]
 2995 00a0 2433     		adds	r3, r3, #36
 2996 00a2 1C46     		mov	r4, r3
 2997 00a4 BA68     		ldr	r2, [r7, #8]
 2998 00a6 FB68     		ldr	r3, [r7, #12]
 2999 00a8 1B8D     		ldrh	r3, [r3, #40]
 3000 00aa 0846     		mov	r0, r1
 3001 00ac 2146     		mov	r1, r4
 3002 00ae FFF7FEFF 		bl	HAL_DMA_Start_IT
1663:../../Drivers/STM32F7xx_HAL_Driver/Src/stm32f7xx_hal_i2c.c ****     
1664:../../Drivers/STM32F7xx_HAL_Driver/Src/stm32f7xx_hal_i2c.c ****     /* Enable Address Acknowledge */
1665:../../Drivers/STM32F7xx_HAL_Driver/Src/stm32f7xx_hal_i2c.c ****     hi2c->Instance->CR2 &= ~I2C_CR2_NACK;
 3003              		.loc 1 1665 0 discriminator 2
 3004 00b2 FB68     		ldr	r3, [r7, #12]
 3005 00b4 1B68     		ldr	r3, [r3]
 3006 00b6 FA68     		ldr	r2, [r7, #12]
 3007 00b8 1268     		ldr	r2, [r2]
 3008 00ba 5268     		ldr	r2, [r2, #4]
 3009 00bc 22F40042 		bic	r2, r2, #32768
 3010 00c0 5A60     		str	r2, [r3, #4]
1666:../../Drivers/STM32F7xx_HAL_Driver/Src/stm32f7xx_hal_i2c.c ****     
1667:../../Drivers/STM32F7xx_HAL_Driver/Src/stm32f7xx_hal_i2c.c ****     /* Process Unlocked */
1668:../../Drivers/STM32F7xx_HAL_Driver/Src/stm32f7xx_hal_i2c.c ****     __HAL_UNLOCK(hi2c);
 3011              		.loc 1 1668 0 discriminator 2
 3012 00c2 FB68     		ldr	r3, [r7, #12]
 3013 00c4 0022     		movs	r2, #0
 3014 00c6 83F84020 		strb	r2, [r3, #64]
1669:../../Drivers/STM32F7xx_HAL_Driver/Src/stm32f7xx_hal_i2c.c ****     
1670:../../Drivers/STM32F7xx_HAL_Driver/Src/stm32f7xx_hal_i2c.c ****     /* Note : The I2C interrupts must be enabled after unlocking current process
1671:../../Drivers/STM32F7xx_HAL_Driver/Src/stm32f7xx_hal_i2c.c ****               to avoid the risk of I2C interrupt handle execution before current
1672:../../Drivers/STM32F7xx_HAL_Driver/Src/stm32f7xx_hal_i2c.c ****               process unlock */
1673:../../Drivers/STM32F7xx_HAL_Driver/Src/stm32f7xx_hal_i2c.c ****     /* Enable ERR, STOP, NACK, ADDR interrupts */
1674:../../Drivers/STM32F7xx_HAL_Driver/Src/stm32f7xx_hal_i2c.c ****     I2C_Enable_IRQ(hi2c, I2C_XFER_LISTEN_IT);
 3015              		.loc 1 1674 0 discriminator 2
 3016 00ca F868     		ldr	r0, [r7, #12]
 3017 00cc 0421     		movs	r1, #4
 3018 00ce FFF7FEFF 		bl	I2C_Enable_IRQ
1675:../../Drivers/STM32F7xx_HAL_Driver/Src/stm32f7xx_hal_i2c.c ****     
1676:../../Drivers/STM32F7xx_HAL_Driver/Src/stm32f7xx_hal_i2c.c ****     /* Enable DMA Request */
1677:../../Drivers/STM32F7xx_HAL_Driver/Src/stm32f7xx_hal_i2c.c ****     hi2c->Instance->CR1 |= I2C_CR1_RXDMAEN;
 3019              		.loc 1 1677 0 discriminator 2
 3020 00d2 FB68     		ldr	r3, [r7, #12]
 3021 00d4 1B68     		ldr	r3, [r3]
 3022 00d6 FA68     		ldr	r2, [r7, #12]
 3023 00d8 1268     		ldr	r2, [r2]
 3024 00da 1268     		ldr	r2, [r2]
ARM GAS  /tmp/cczIhzQ0.s 			page 83


 3025 00dc 42F40042 		orr	r2, r2, #32768
 3026 00e0 1A60     		str	r2, [r3]
1678:../../Drivers/STM32F7xx_HAL_Driver/Src/stm32f7xx_hal_i2c.c ****     
1679:../../Drivers/STM32F7xx_HAL_Driver/Src/stm32f7xx_hal_i2c.c ****     return HAL_OK;
 3027              		.loc 1 1679 0 discriminator 2
 3028 00e2 0023     		movs	r3, #0
 3029 00e4 00E0     		b	.L144
 3030              	.L141:
1680:../../Drivers/STM32F7xx_HAL_Driver/Src/stm32f7xx_hal_i2c.c ****   }
1681:../../Drivers/STM32F7xx_HAL_Driver/Src/stm32f7xx_hal_i2c.c ****   else
1682:../../Drivers/STM32F7xx_HAL_Driver/Src/stm32f7xx_hal_i2c.c ****   {
1683:../../Drivers/STM32F7xx_HAL_Driver/Src/stm32f7xx_hal_i2c.c ****     return HAL_BUSY;
 3031              		.loc 1 1683 0
 3032 00e6 0223     		movs	r3, #2
 3033              	.L144:
1684:../../Drivers/STM32F7xx_HAL_Driver/Src/stm32f7xx_hal_i2c.c ****   }
1685:../../Drivers/STM32F7xx_HAL_Driver/Src/stm32f7xx_hal_i2c.c **** }
 3034              		.loc 1 1685 0
 3035 00e8 1846     		mov	r0, r3
 3036 00ea 1437     		adds	r7, r7, #20
 3037              	.LCFI80:
 3038              		.cfi_def_cfa_offset 12
 3039 00ec BD46     		mov	sp, r7
 3040              	.LCFI81:
 3041              		.cfi_def_cfa_register 13
 3042              		@ sp needed
 3043 00ee 90BD     		pop	{r4, r7, pc}
 3044              	.L147:
 3045              		.align	2
 3046              	.L146:
 3047 00f0 0000FFFF 		.word	-65536
 3048 00f4 00000000 		.word	I2C_Slave_ISR_DMA
 3049 00f8 00000000 		.word	I2C_DMASlaveReceiveCplt
 3050 00fc 00000000 		.word	I2C_DMAError
 3051              		.cfi_endproc
 3052              	.LFE150:
 3054              		.section	.text.HAL_I2C_Mem_Write,"ax",%progbits
 3055              		.align	2
 3056              		.global	HAL_I2C_Mem_Write
 3057              		.thumb
 3058              		.thumb_func
 3060              	HAL_I2C_Mem_Write:
 3061              	.LFB151:
1686:../../Drivers/STM32F7xx_HAL_Driver/Src/stm32f7xx_hal_i2c.c **** /**
1687:../../Drivers/STM32F7xx_HAL_Driver/Src/stm32f7xx_hal_i2c.c ****   * @brief  Write an amount of data in blocking mode to a specific memory address
1688:../../Drivers/STM32F7xx_HAL_Driver/Src/stm32f7xx_hal_i2c.c ****   * @param  hi2c: Pointer to a I2C_HandleTypeDef structure that contains
1689:../../Drivers/STM32F7xx_HAL_Driver/Src/stm32f7xx_hal_i2c.c ****   *               the configuration information for the specified I2C.
1690:../../Drivers/STM32F7xx_HAL_Driver/Src/stm32f7xx_hal_i2c.c ****   * @param  DevAddress: Target device address
1691:../../Drivers/STM32F7xx_HAL_Driver/Src/stm32f7xx_hal_i2c.c ****   * @param  MemAddress: Internal memory address
1692:../../Drivers/STM32F7xx_HAL_Driver/Src/stm32f7xx_hal_i2c.c ****   * @param  MemAddSize: Size of internal memory address
1693:../../Drivers/STM32F7xx_HAL_Driver/Src/stm32f7xx_hal_i2c.c ****   * @param  pData: Pointer to data buffer
1694:../../Drivers/STM32F7xx_HAL_Driver/Src/stm32f7xx_hal_i2c.c ****   * @param  Size: Amount of data to be sent
1695:../../Drivers/STM32F7xx_HAL_Driver/Src/stm32f7xx_hal_i2c.c ****   * @param  Timeout: Timeout duration
1696:../../Drivers/STM32F7xx_HAL_Driver/Src/stm32f7xx_hal_i2c.c ****   * @retval HAL status
1697:../../Drivers/STM32F7xx_HAL_Driver/Src/stm32f7xx_hal_i2c.c ****   */
1698:../../Drivers/STM32F7xx_HAL_Driver/Src/stm32f7xx_hal_i2c.c **** HAL_StatusTypeDef HAL_I2C_Mem_Write(I2C_HandleTypeDef *hi2c, uint16_t DevAddress, uint16_t MemAddre
1699:../../Drivers/STM32F7xx_HAL_Driver/Src/stm32f7xx_hal_i2c.c **** {
ARM GAS  /tmp/cczIhzQ0.s 			page 84


 3062              		.loc 1 1699 0
 3063              		.cfi_startproc
 3064              		@ args = 12, pretend = 0, frame = 24
 3065              		@ frame_needed = 1, uses_anonymous_args = 0
 3066 0000 90B5     		push	{r4, r7, lr}
 3067              	.LCFI82:
 3068              		.cfi_def_cfa_offset 12
 3069              		.cfi_offset 4, -12
 3070              		.cfi_offset 7, -8
 3071              		.cfi_offset 14, -4
 3072 0002 89B0     		sub	sp, sp, #36
 3073              	.LCFI83:
 3074              		.cfi_def_cfa_offset 48
 3075 0004 02AF     		add	r7, sp, #8
 3076              	.LCFI84:
 3077              		.cfi_def_cfa 7, 40
 3078 0006 F860     		str	r0, [r7, #12]
 3079 0008 0846     		mov	r0, r1
 3080 000a 1146     		mov	r1, r2
 3081 000c 1A46     		mov	r2, r3
 3082 000e 0346     		mov	r3, r0	@ movhi
 3083 0010 7B81     		strh	r3, [r7, #10]	@ movhi
 3084 0012 0B46     		mov	r3, r1	@ movhi
 3085 0014 3B81     		strh	r3, [r7, #8]	@ movhi
 3086 0016 1346     		mov	r3, r2	@ movhi
 3087 0018 FB80     		strh	r3, [r7, #6]	@ movhi
1700:../../Drivers/STM32F7xx_HAL_Driver/Src/stm32f7xx_hal_i2c.c ****   uint32_t tickstart = 0;
 3088              		.loc 1 1700 0
 3089 001a 0023     		movs	r3, #0
 3090 001c 7B61     		str	r3, [r7, #20]
1701:../../Drivers/STM32F7xx_HAL_Driver/Src/stm32f7xx_hal_i2c.c ****   
1702:../../Drivers/STM32F7xx_HAL_Driver/Src/stm32f7xx_hal_i2c.c ****   /* Check the parameters */
1703:../../Drivers/STM32F7xx_HAL_Driver/Src/stm32f7xx_hal_i2c.c ****   assert_param(IS_I2C_MEMADD_SIZE(MemAddSize));
1704:../../Drivers/STM32F7xx_HAL_Driver/Src/stm32f7xx_hal_i2c.c ****   
1705:../../Drivers/STM32F7xx_HAL_Driver/Src/stm32f7xx_hal_i2c.c ****   if(hi2c->State == HAL_I2C_STATE_READY)
 3091              		.loc 1 1705 0
 3092 001e FB68     		ldr	r3, [r7, #12]
 3093 0020 93F84130 		ldrb	r3, [r3, #65]
 3094 0024 DBB2     		uxtb	r3, r3
 3095 0026 202B     		cmp	r3, #32
 3096 0028 40F00981 		bne	.L149
1706:../../Drivers/STM32F7xx_HAL_Driver/Src/stm32f7xx_hal_i2c.c ****   {
1707:../../Drivers/STM32F7xx_HAL_Driver/Src/stm32f7xx_hal_i2c.c ****     if((pData == NULL) || (Size == 0))
 3097              		.loc 1 1707 0
 3098 002c BB6A     		ldr	r3, [r7, #40]
 3099 002e 002B     		cmp	r3, #0
 3100 0030 02D0     		beq	.L150
 3101              		.loc 1 1707 0 is_stmt 0 discriminator 1
 3102 0032 BB8D     		ldrh	r3, [r7, #44]
 3103 0034 002B     		cmp	r3, #0
 3104 0036 01D1     		bne	.L151
 3105              	.L150:
1708:../../Drivers/STM32F7xx_HAL_Driver/Src/stm32f7xx_hal_i2c.c ****     {
1709:../../Drivers/STM32F7xx_HAL_Driver/Src/stm32f7xx_hal_i2c.c ****       return  HAL_ERROR;
 3106              		.loc 1 1709 0 is_stmt 1
 3107 0038 0123     		movs	r3, #1
 3108 003a 01E1     		b	.L152
ARM GAS  /tmp/cczIhzQ0.s 			page 85


 3109              	.L151:
1710:../../Drivers/STM32F7xx_HAL_Driver/Src/stm32f7xx_hal_i2c.c ****     }
1711:../../Drivers/STM32F7xx_HAL_Driver/Src/stm32f7xx_hal_i2c.c ****     
1712:../../Drivers/STM32F7xx_HAL_Driver/Src/stm32f7xx_hal_i2c.c ****     /* Process Locked */
1713:../../Drivers/STM32F7xx_HAL_Driver/Src/stm32f7xx_hal_i2c.c ****     __HAL_LOCK(hi2c);
 3110              		.loc 1 1713 0
 3111 003c FB68     		ldr	r3, [r7, #12]
 3112 003e 93F84030 		ldrb	r3, [r3, #64]	@ zero_extendqisi2
 3113 0042 012B     		cmp	r3, #1
 3114 0044 01D1     		bne	.L153
 3115              		.loc 1 1713 0 is_stmt 0 discriminator 1
 3116 0046 0223     		movs	r3, #2
 3117 0048 FAE0     		b	.L152
 3118              	.L153:
 3119              		.loc 1 1713 0 discriminator 2
 3120 004a FB68     		ldr	r3, [r7, #12]
 3121 004c 0122     		movs	r2, #1
 3122 004e 83F84020 		strb	r2, [r3, #64]
1714:../../Drivers/STM32F7xx_HAL_Driver/Src/stm32f7xx_hal_i2c.c ****     
1715:../../Drivers/STM32F7xx_HAL_Driver/Src/stm32f7xx_hal_i2c.c ****     /* Init tickstart for timeout management*/
1716:../../Drivers/STM32F7xx_HAL_Driver/Src/stm32f7xx_hal_i2c.c ****     tickstart = HAL_GetTick();
 3123              		.loc 1 1716 0 is_stmt 1 discriminator 2
 3124 0052 FFF7FEFF 		bl	HAL_GetTick
 3125 0056 7861     		str	r0, [r7, #20]
1717:../../Drivers/STM32F7xx_HAL_Driver/Src/stm32f7xx_hal_i2c.c ****     
1718:../../Drivers/STM32F7xx_HAL_Driver/Src/stm32f7xx_hal_i2c.c ****     if(I2C_WaitOnFlagUntilTimeout(hi2c, I2C_FLAG_BUSY, SET, I2C_TIMEOUT_BUSY, tickstart) != HAL_OK)
 3126              		.loc 1 1718 0 discriminator 2
 3127 0058 7B69     		ldr	r3, [r7, #20]
 3128 005a 0093     		str	r3, [sp]
 3129 005c F868     		ldr	r0, [r7, #12]
 3130 005e 4FF40041 		mov	r1, #32768
 3131 0062 0122     		movs	r2, #1
 3132 0064 1923     		movs	r3, #25
 3133 0066 FFF7FEFF 		bl	I2C_WaitOnFlagUntilTimeout
 3134 006a 0346     		mov	r3, r0
 3135 006c 002B     		cmp	r3, #0
 3136 006e 01D0     		beq	.L154
1719:../../Drivers/STM32F7xx_HAL_Driver/Src/stm32f7xx_hal_i2c.c ****     {
1720:../../Drivers/STM32F7xx_HAL_Driver/Src/stm32f7xx_hal_i2c.c ****       return HAL_TIMEOUT;
 3137              		.loc 1 1720 0
 3138 0070 0323     		movs	r3, #3
 3139 0072 E5E0     		b	.L152
 3140              	.L154:
1721:../../Drivers/STM32F7xx_HAL_Driver/Src/stm32f7xx_hal_i2c.c ****     }
1722:../../Drivers/STM32F7xx_HAL_Driver/Src/stm32f7xx_hal_i2c.c ****     
1723:../../Drivers/STM32F7xx_HAL_Driver/Src/stm32f7xx_hal_i2c.c ****     hi2c->State     = HAL_I2C_STATE_BUSY_TX;
 3141              		.loc 1 1723 0
 3142 0074 FB68     		ldr	r3, [r7, #12]
 3143 0076 2122     		movs	r2, #33
 3144 0078 83F84120 		strb	r2, [r3, #65]
1724:../../Drivers/STM32F7xx_HAL_Driver/Src/stm32f7xx_hal_i2c.c ****     hi2c->Mode      = HAL_I2C_MODE_MEM;
 3145              		.loc 1 1724 0
 3146 007c FB68     		ldr	r3, [r7, #12]
 3147 007e 4022     		movs	r2, #64
 3148 0080 83F84220 		strb	r2, [r3, #66]
1725:../../Drivers/STM32F7xx_HAL_Driver/Src/stm32f7xx_hal_i2c.c ****     hi2c->ErrorCode = HAL_I2C_ERROR_NONE;
 3149              		.loc 1 1725 0
ARM GAS  /tmp/cczIhzQ0.s 			page 86


 3150 0084 FB68     		ldr	r3, [r7, #12]
 3151 0086 0022     		movs	r2, #0
 3152 0088 5A64     		str	r2, [r3, #68]
1726:../../Drivers/STM32F7xx_HAL_Driver/Src/stm32f7xx_hal_i2c.c ****     
1727:../../Drivers/STM32F7xx_HAL_Driver/Src/stm32f7xx_hal_i2c.c ****     /* Prepare transfer parameters */
1728:../../Drivers/STM32F7xx_HAL_Driver/Src/stm32f7xx_hal_i2c.c ****     hi2c->pBuffPtr  = pData;
 3153              		.loc 1 1728 0
 3154 008a FB68     		ldr	r3, [r7, #12]
 3155 008c BA6A     		ldr	r2, [r7, #40]
 3156 008e 5A62     		str	r2, [r3, #36]
1729:../../Drivers/STM32F7xx_HAL_Driver/Src/stm32f7xx_hal_i2c.c ****     hi2c->XferCount = Size;
 3157              		.loc 1 1729 0
 3158 0090 FB68     		ldr	r3, [r7, #12]
 3159 0092 BA8D     		ldrh	r2, [r7, #44]	@ movhi
 3160 0094 5A85     		strh	r2, [r3, #42]	@ movhi
1730:../../Drivers/STM32F7xx_HAL_Driver/Src/stm32f7xx_hal_i2c.c ****     hi2c->XferISR   = NULL;
 3161              		.loc 1 1730 0
 3162 0096 FB68     		ldr	r3, [r7, #12]
 3163 0098 0022     		movs	r2, #0
 3164 009a 5A63     		str	r2, [r3, #52]
1731:../../Drivers/STM32F7xx_HAL_Driver/Src/stm32f7xx_hal_i2c.c ****     
1732:../../Drivers/STM32F7xx_HAL_Driver/Src/stm32f7xx_hal_i2c.c ****     /* Send Slave Address and Memory Address */
1733:../../Drivers/STM32F7xx_HAL_Driver/Src/stm32f7xx_hal_i2c.c ****     if(I2C_RequestMemoryWrite(hi2c, DevAddress, MemAddress, MemAddSize, Timeout, tickstart) != HAL_
 3165              		.loc 1 1733 0
 3166 009c 7989     		ldrh	r1, [r7, #10]
 3167 009e 3A89     		ldrh	r2, [r7, #8]
 3168 00a0 FC88     		ldrh	r4, [r7, #6]
 3169 00a2 3B6B     		ldr	r3, [r7, #48]
 3170 00a4 0093     		str	r3, [sp]
 3171 00a6 7B69     		ldr	r3, [r7, #20]
 3172 00a8 0193     		str	r3, [sp, #4]
 3173 00aa F868     		ldr	r0, [r7, #12]
 3174 00ac 2346     		mov	r3, r4
 3175 00ae FFF7FEFF 		bl	I2C_RequestMemoryWrite
 3176 00b2 0346     		mov	r3, r0
 3177 00b4 002B     		cmp	r3, #0
 3178 00b6 0FD0     		beq	.L155
1734:../../Drivers/STM32F7xx_HAL_Driver/Src/stm32f7xx_hal_i2c.c ****     {
1735:../../Drivers/STM32F7xx_HAL_Driver/Src/stm32f7xx_hal_i2c.c ****       if(hi2c->ErrorCode == HAL_I2C_ERROR_AF)
 3179              		.loc 1 1735 0
 3180 00b8 FB68     		ldr	r3, [r7, #12]
 3181 00ba 5B6C     		ldr	r3, [r3, #68]
 3182 00bc 042B     		cmp	r3, #4
 3183 00be 05D1     		bne	.L156
1736:../../Drivers/STM32F7xx_HAL_Driver/Src/stm32f7xx_hal_i2c.c ****       {
1737:../../Drivers/STM32F7xx_HAL_Driver/Src/stm32f7xx_hal_i2c.c ****         /* Process Unlocked */
1738:../../Drivers/STM32F7xx_HAL_Driver/Src/stm32f7xx_hal_i2c.c ****         __HAL_UNLOCK(hi2c);
 3184              		.loc 1 1738 0
 3185 00c0 FB68     		ldr	r3, [r7, #12]
 3186 00c2 0022     		movs	r2, #0
 3187 00c4 83F84020 		strb	r2, [r3, #64]
1739:../../Drivers/STM32F7xx_HAL_Driver/Src/stm32f7xx_hal_i2c.c ****         return HAL_ERROR;
 3188              		.loc 1 1739 0
 3189 00c8 0123     		movs	r3, #1
 3190 00ca B9E0     		b	.L152
 3191              	.L156:
1740:../../Drivers/STM32F7xx_HAL_Driver/Src/stm32f7xx_hal_i2c.c ****       }
ARM GAS  /tmp/cczIhzQ0.s 			page 87


1741:../../Drivers/STM32F7xx_HAL_Driver/Src/stm32f7xx_hal_i2c.c ****       else
1742:../../Drivers/STM32F7xx_HAL_Driver/Src/stm32f7xx_hal_i2c.c ****       {
1743:../../Drivers/STM32F7xx_HAL_Driver/Src/stm32f7xx_hal_i2c.c ****         /* Process Unlocked */
1744:../../Drivers/STM32F7xx_HAL_Driver/Src/stm32f7xx_hal_i2c.c ****         __HAL_UNLOCK(hi2c);
 3192              		.loc 1 1744 0
 3193 00cc FB68     		ldr	r3, [r7, #12]
 3194 00ce 0022     		movs	r2, #0
 3195 00d0 83F84020 		strb	r2, [r3, #64]
1745:../../Drivers/STM32F7xx_HAL_Driver/Src/stm32f7xx_hal_i2c.c ****         return HAL_TIMEOUT;
 3196              		.loc 1 1745 0
 3197 00d4 0323     		movs	r3, #3
 3198 00d6 B3E0     		b	.L152
 3199              	.L155:
1746:../../Drivers/STM32F7xx_HAL_Driver/Src/stm32f7xx_hal_i2c.c ****       }
1747:../../Drivers/STM32F7xx_HAL_Driver/Src/stm32f7xx_hal_i2c.c ****     }
1748:../../Drivers/STM32F7xx_HAL_Driver/Src/stm32f7xx_hal_i2c.c ****     
1749:../../Drivers/STM32F7xx_HAL_Driver/Src/stm32f7xx_hal_i2c.c ****     /* Set NBYTES to write and reload if hi2c->XferCount > MAX_NBYTE_SIZE */
1750:../../Drivers/STM32F7xx_HAL_Driver/Src/stm32f7xx_hal_i2c.c ****     if(hi2c->XferCount > MAX_NBYTE_SIZE)
 3200              		.loc 1 1750 0
 3201 00d8 FB68     		ldr	r3, [r7, #12]
 3202 00da 5B8D     		ldrh	r3, [r3, #42]	@ movhi
 3203 00dc 9BB2     		uxth	r3, r3
 3204 00de FF2B     		cmp	r3, #255
 3205 00e0 0ED9     		bls	.L157
1751:../../Drivers/STM32F7xx_HAL_Driver/Src/stm32f7xx_hal_i2c.c ****     {
1752:../../Drivers/STM32F7xx_HAL_Driver/Src/stm32f7xx_hal_i2c.c ****       hi2c->XferSize = MAX_NBYTE_SIZE;
 3206              		.loc 1 1752 0
 3207 00e2 FB68     		ldr	r3, [r7, #12]
 3208 00e4 FF22     		movs	r2, #255
 3209 00e6 1A85     		strh	r2, [r3, #40]	@ movhi
1753:../../Drivers/STM32F7xx_HAL_Driver/Src/stm32f7xx_hal_i2c.c ****       I2C_TransferConfig(hi2c, DevAddress, hi2c->XferSize, I2C_RELOAD_MODE, I2C_NO_STARTSTOP);
 3210              		.loc 1 1753 0
 3211 00e8 FB68     		ldr	r3, [r7, #12]
 3212 00ea 1B8D     		ldrh	r3, [r3, #40]
 3213 00ec DAB2     		uxtb	r2, r3
 3214 00ee 7989     		ldrh	r1, [r7, #10]
 3215 00f0 0023     		movs	r3, #0
 3216 00f2 0093     		str	r3, [sp]
 3217 00f4 F868     		ldr	r0, [r7, #12]
 3218 00f6 4FF08073 		mov	r3, #16777216
 3219 00fa FFF7FEFF 		bl	I2C_TransferConfig
 3220 00fe 0FE0     		b	.L158
 3221              	.L157:
1754:../../Drivers/STM32F7xx_HAL_Driver/Src/stm32f7xx_hal_i2c.c ****     }
1755:../../Drivers/STM32F7xx_HAL_Driver/Src/stm32f7xx_hal_i2c.c ****     else
1756:../../Drivers/STM32F7xx_HAL_Driver/Src/stm32f7xx_hal_i2c.c ****     {
1757:../../Drivers/STM32F7xx_HAL_Driver/Src/stm32f7xx_hal_i2c.c ****       hi2c->XferSize = hi2c->XferCount;
 3222              		.loc 1 1757 0
 3223 0100 FB68     		ldr	r3, [r7, #12]
 3224 0102 5B8D     		ldrh	r3, [r3, #42]	@ movhi
 3225 0104 9AB2     		uxth	r2, r3
 3226 0106 FB68     		ldr	r3, [r7, #12]
 3227 0108 1A85     		strh	r2, [r3, #40]	@ movhi
1758:../../Drivers/STM32F7xx_HAL_Driver/Src/stm32f7xx_hal_i2c.c ****       I2C_TransferConfig(hi2c, DevAddress, hi2c->XferSize, I2C_AUTOEND_MODE, I2C_NO_STARTSTOP);
 3228              		.loc 1 1758 0
 3229 010a FB68     		ldr	r3, [r7, #12]
 3230 010c 1B8D     		ldrh	r3, [r3, #40]
ARM GAS  /tmp/cczIhzQ0.s 			page 88


 3231 010e DAB2     		uxtb	r2, r3
 3232 0110 7989     		ldrh	r1, [r7, #10]
 3233 0112 0023     		movs	r3, #0
 3234 0114 0093     		str	r3, [sp]
 3235 0116 F868     		ldr	r0, [r7, #12]
 3236 0118 4FF00073 		mov	r3, #33554432
 3237 011c FFF7FEFF 		bl	I2C_TransferConfig
 3238              	.L158:
1759:../../Drivers/STM32F7xx_HAL_Driver/Src/stm32f7xx_hal_i2c.c ****     }
1760:../../Drivers/STM32F7xx_HAL_Driver/Src/stm32f7xx_hal_i2c.c ****     
1761:../../Drivers/STM32F7xx_HAL_Driver/Src/stm32f7xx_hal_i2c.c ****     do
1762:../../Drivers/STM32F7xx_HAL_Driver/Src/stm32f7xx_hal_i2c.c ****     {
1763:../../Drivers/STM32F7xx_HAL_Driver/Src/stm32f7xx_hal_i2c.c ****       /* Wait until TXIS flag is set */
1764:../../Drivers/STM32F7xx_HAL_Driver/Src/stm32f7xx_hal_i2c.c ****       if(I2C_WaitOnTXISFlagUntilTimeout(hi2c, Timeout, tickstart) != HAL_OK)
 3239              		.loc 1 1764 0
 3240 0120 F868     		ldr	r0, [r7, #12]
 3241 0122 396B     		ldr	r1, [r7, #48]
 3242 0124 7A69     		ldr	r2, [r7, #20]
 3243 0126 FFF7FEFF 		bl	I2C_WaitOnTXISFlagUntilTimeout
 3244 012a 0346     		mov	r3, r0
 3245 012c 002B     		cmp	r3, #0
 3246 012e 07D0     		beq	.L159
1765:../../Drivers/STM32F7xx_HAL_Driver/Src/stm32f7xx_hal_i2c.c ****       {
1766:../../Drivers/STM32F7xx_HAL_Driver/Src/stm32f7xx_hal_i2c.c ****         if(hi2c->ErrorCode == HAL_I2C_ERROR_AF)
 3247              		.loc 1 1766 0
 3248 0130 FB68     		ldr	r3, [r7, #12]
 3249 0132 5B6C     		ldr	r3, [r3, #68]
 3250 0134 042B     		cmp	r3, #4
 3251 0136 01D1     		bne	.L160
1767:../../Drivers/STM32F7xx_HAL_Driver/Src/stm32f7xx_hal_i2c.c ****         {
1768:../../Drivers/STM32F7xx_HAL_Driver/Src/stm32f7xx_hal_i2c.c ****           return HAL_ERROR;
 3252              		.loc 1 1768 0
 3253 0138 0123     		movs	r3, #1
 3254 013a 81E0     		b	.L152
 3255              	.L160:
1769:../../Drivers/STM32F7xx_HAL_Driver/Src/stm32f7xx_hal_i2c.c ****         }
1770:../../Drivers/STM32F7xx_HAL_Driver/Src/stm32f7xx_hal_i2c.c ****         else
1771:../../Drivers/STM32F7xx_HAL_Driver/Src/stm32f7xx_hal_i2c.c ****         {
1772:../../Drivers/STM32F7xx_HAL_Driver/Src/stm32f7xx_hal_i2c.c ****           return HAL_TIMEOUT;
 3256              		.loc 1 1772 0
 3257 013c 0323     		movs	r3, #3
 3258 013e 7FE0     		b	.L152
 3259              	.L159:
1773:../../Drivers/STM32F7xx_HAL_Driver/Src/stm32f7xx_hal_i2c.c ****         }
1774:../../Drivers/STM32F7xx_HAL_Driver/Src/stm32f7xx_hal_i2c.c ****       }
1775:../../Drivers/STM32F7xx_HAL_Driver/Src/stm32f7xx_hal_i2c.c ****     
1776:../../Drivers/STM32F7xx_HAL_Driver/Src/stm32f7xx_hal_i2c.c ****       /* Write data to TXDR */
1777:../../Drivers/STM32F7xx_HAL_Driver/Src/stm32f7xx_hal_i2c.c ****       hi2c->Instance->TXDR = (*hi2c->pBuffPtr++);
 3260              		.loc 1 1777 0
 3261 0140 FB68     		ldr	r3, [r7, #12]
 3262 0142 1A68     		ldr	r2, [r3]
 3263 0144 FB68     		ldr	r3, [r7, #12]
 3264 0146 5B6A     		ldr	r3, [r3, #36]
 3265 0148 581C     		adds	r0, r3, #1
 3266 014a F968     		ldr	r1, [r7, #12]
 3267 014c 4862     		str	r0, [r1, #36]
 3268 014e 1B78     		ldrb	r3, [r3]	@ zero_extendqisi2
ARM GAS  /tmp/cczIhzQ0.s 			page 89


 3269 0150 9362     		str	r3, [r2, #40]
1778:../../Drivers/STM32F7xx_HAL_Driver/Src/stm32f7xx_hal_i2c.c ****       hi2c->XferCount--;
 3270              		.loc 1 1778 0
 3271 0152 FB68     		ldr	r3, [r7, #12]
 3272 0154 5B8D     		ldrh	r3, [r3, #42]	@ movhi
 3273 0156 9BB2     		uxth	r3, r3
 3274 0158 013B     		subs	r3, r3, #1
 3275 015a 9AB2     		uxth	r2, r3
 3276 015c FB68     		ldr	r3, [r7, #12]
 3277 015e 5A85     		strh	r2, [r3, #42]	@ movhi
1779:../../Drivers/STM32F7xx_HAL_Driver/Src/stm32f7xx_hal_i2c.c ****       hi2c->XferSize--;
 3278              		.loc 1 1779 0
 3279 0160 FB68     		ldr	r3, [r7, #12]
 3280 0162 1B8D     		ldrh	r3, [r3, #40]
 3281 0164 013B     		subs	r3, r3, #1
 3282 0166 9AB2     		uxth	r2, r3
 3283 0168 FB68     		ldr	r3, [r7, #12]
 3284 016a 1A85     		strh	r2, [r3, #40]	@ movhi
1780:../../Drivers/STM32F7xx_HAL_Driver/Src/stm32f7xx_hal_i2c.c ****       
1781:../../Drivers/STM32F7xx_HAL_Driver/Src/stm32f7xx_hal_i2c.c ****       if((hi2c->XferSize == 0) && (hi2c->XferCount!=0))
 3285              		.loc 1 1781 0
 3286 016c FB68     		ldr	r3, [r7, #12]
 3287 016e 1B8D     		ldrh	r3, [r3, #40]
 3288 0170 002B     		cmp	r3, #0
 3289 0172 35D1     		bne	.L161
 3290              		.loc 1 1781 0 is_stmt 0 discriminator 1
 3291 0174 FB68     		ldr	r3, [r7, #12]
 3292 0176 5B8D     		ldrh	r3, [r3, #42]	@ movhi
 3293 0178 9BB2     		uxth	r3, r3
 3294 017a 002B     		cmp	r3, #0
 3295 017c 30D0     		beq	.L161
1782:../../Drivers/STM32F7xx_HAL_Driver/Src/stm32f7xx_hal_i2c.c ****       {
1783:../../Drivers/STM32F7xx_HAL_Driver/Src/stm32f7xx_hal_i2c.c ****         /* Wait until TCR flag is set */
1784:../../Drivers/STM32F7xx_HAL_Driver/Src/stm32f7xx_hal_i2c.c ****         if(I2C_WaitOnFlagUntilTimeout(hi2c, I2C_FLAG_TCR, RESET, Timeout, tickstart) != HAL_OK)
 3296              		.loc 1 1784 0 is_stmt 1
 3297 017e 7B69     		ldr	r3, [r7, #20]
 3298 0180 0093     		str	r3, [sp]
 3299 0182 F868     		ldr	r0, [r7, #12]
 3300 0184 8021     		movs	r1, #128
 3301 0186 0022     		movs	r2, #0
 3302 0188 3B6B     		ldr	r3, [r7, #48]
 3303 018a FFF7FEFF 		bl	I2C_WaitOnFlagUntilTimeout
 3304 018e 0346     		mov	r3, r0
 3305 0190 002B     		cmp	r3, #0
 3306 0192 01D0     		beq	.L162
1785:../../Drivers/STM32F7xx_HAL_Driver/Src/stm32f7xx_hal_i2c.c ****         {
1786:../../Drivers/STM32F7xx_HAL_Driver/Src/stm32f7xx_hal_i2c.c ****           return HAL_TIMEOUT;
 3307              		.loc 1 1786 0
 3308 0194 0323     		movs	r3, #3
 3309 0196 53E0     		b	.L152
 3310              	.L162:
1787:../../Drivers/STM32F7xx_HAL_Driver/Src/stm32f7xx_hal_i2c.c ****         }
1788:../../Drivers/STM32F7xx_HAL_Driver/Src/stm32f7xx_hal_i2c.c ****         
1789:../../Drivers/STM32F7xx_HAL_Driver/Src/stm32f7xx_hal_i2c.c ****         if(hi2c->XferCount > MAX_NBYTE_SIZE)
 3311              		.loc 1 1789 0
 3312 0198 FB68     		ldr	r3, [r7, #12]
 3313 019a 5B8D     		ldrh	r3, [r3, #42]	@ movhi
ARM GAS  /tmp/cczIhzQ0.s 			page 90


 3314 019c 9BB2     		uxth	r3, r3
 3315 019e FF2B     		cmp	r3, #255
 3316 01a0 0ED9     		bls	.L163
1790:../../Drivers/STM32F7xx_HAL_Driver/Src/stm32f7xx_hal_i2c.c ****         {
1791:../../Drivers/STM32F7xx_HAL_Driver/Src/stm32f7xx_hal_i2c.c ****           hi2c->XferSize = MAX_NBYTE_SIZE;
 3317              		.loc 1 1791 0
 3318 01a2 FB68     		ldr	r3, [r7, #12]
 3319 01a4 FF22     		movs	r2, #255
 3320 01a6 1A85     		strh	r2, [r3, #40]	@ movhi
1792:../../Drivers/STM32F7xx_HAL_Driver/Src/stm32f7xx_hal_i2c.c ****           I2C_TransferConfig(hi2c, DevAddress, hi2c->XferSize, I2C_RELOAD_MODE, I2C_NO_STARTSTOP);
 3321              		.loc 1 1792 0
 3322 01a8 FB68     		ldr	r3, [r7, #12]
 3323 01aa 1B8D     		ldrh	r3, [r3, #40]
 3324 01ac DAB2     		uxtb	r2, r3
 3325 01ae 7989     		ldrh	r1, [r7, #10]
 3326 01b0 0023     		movs	r3, #0
 3327 01b2 0093     		str	r3, [sp]
 3328 01b4 F868     		ldr	r0, [r7, #12]
 3329 01b6 4FF08073 		mov	r3, #16777216
 3330 01ba FFF7FEFF 		bl	I2C_TransferConfig
 3331 01be 0FE0     		b	.L161
 3332              	.L163:
1793:../../Drivers/STM32F7xx_HAL_Driver/Src/stm32f7xx_hal_i2c.c ****         }
1794:../../Drivers/STM32F7xx_HAL_Driver/Src/stm32f7xx_hal_i2c.c ****         else
1795:../../Drivers/STM32F7xx_HAL_Driver/Src/stm32f7xx_hal_i2c.c ****         {
1796:../../Drivers/STM32F7xx_HAL_Driver/Src/stm32f7xx_hal_i2c.c ****           hi2c->XferSize = hi2c->XferCount;
 3333              		.loc 1 1796 0
 3334 01c0 FB68     		ldr	r3, [r7, #12]
 3335 01c2 5B8D     		ldrh	r3, [r3, #42]	@ movhi
 3336 01c4 9AB2     		uxth	r2, r3
 3337 01c6 FB68     		ldr	r3, [r7, #12]
 3338 01c8 1A85     		strh	r2, [r3, #40]	@ movhi
1797:../../Drivers/STM32F7xx_HAL_Driver/Src/stm32f7xx_hal_i2c.c ****           I2C_TransferConfig(hi2c, DevAddress, hi2c->XferSize, I2C_AUTOEND_MODE, I2C_NO_STARTSTOP);
 3339              		.loc 1 1797 0
 3340 01ca FB68     		ldr	r3, [r7, #12]
 3341 01cc 1B8D     		ldrh	r3, [r3, #40]
 3342 01ce DAB2     		uxtb	r2, r3
 3343 01d0 7989     		ldrh	r1, [r7, #10]
 3344 01d2 0023     		movs	r3, #0
 3345 01d4 0093     		str	r3, [sp]
 3346 01d6 F868     		ldr	r0, [r7, #12]
 3347 01d8 4FF00073 		mov	r3, #33554432
 3348 01dc FFF7FEFF 		bl	I2C_TransferConfig
 3349              	.L161:
1798:../../Drivers/STM32F7xx_HAL_Driver/Src/stm32f7xx_hal_i2c.c ****         }
1799:../../Drivers/STM32F7xx_HAL_Driver/Src/stm32f7xx_hal_i2c.c ****       }
1800:../../Drivers/STM32F7xx_HAL_Driver/Src/stm32f7xx_hal_i2c.c ****       
1801:../../Drivers/STM32F7xx_HAL_Driver/Src/stm32f7xx_hal_i2c.c ****     }while(hi2c->XferCount > 0);
 3350              		.loc 1 1801 0
 3351 01e0 FB68     		ldr	r3, [r7, #12]
 3352 01e2 5B8D     		ldrh	r3, [r3, #42]	@ movhi
 3353 01e4 9BB2     		uxth	r3, r3
 3354 01e6 002B     		cmp	r3, #0
 3355 01e8 9AD1     		bne	.L158
1802:../../Drivers/STM32F7xx_HAL_Driver/Src/stm32f7xx_hal_i2c.c ****     
1803:../../Drivers/STM32F7xx_HAL_Driver/Src/stm32f7xx_hal_i2c.c ****     /* No need to Check TC flag, with AUTOEND mode the stop is automatically generated */
1804:../../Drivers/STM32F7xx_HAL_Driver/Src/stm32f7xx_hal_i2c.c ****     /* Wait until STOPF flag is reset */ 
ARM GAS  /tmp/cczIhzQ0.s 			page 91


1805:../../Drivers/STM32F7xx_HAL_Driver/Src/stm32f7xx_hal_i2c.c ****     if(I2C_WaitOnSTOPFlagUntilTimeout(hi2c, Timeout, tickstart) != HAL_OK)
 3356              		.loc 1 1805 0
 3357 01ea F868     		ldr	r0, [r7, #12]
 3358 01ec 396B     		ldr	r1, [r7, #48]
 3359 01ee 7A69     		ldr	r2, [r7, #20]
 3360 01f0 FFF7FEFF 		bl	I2C_WaitOnSTOPFlagUntilTimeout
 3361 01f4 0346     		mov	r3, r0
 3362 01f6 002B     		cmp	r3, #0
 3363 01f8 07D0     		beq	.L164
1806:../../Drivers/STM32F7xx_HAL_Driver/Src/stm32f7xx_hal_i2c.c ****     {
1807:../../Drivers/STM32F7xx_HAL_Driver/Src/stm32f7xx_hal_i2c.c ****       if(hi2c->ErrorCode == HAL_I2C_ERROR_AF)
 3364              		.loc 1 1807 0
 3365 01fa FB68     		ldr	r3, [r7, #12]
 3366 01fc 5B6C     		ldr	r3, [r3, #68]
 3367 01fe 042B     		cmp	r3, #4
 3368 0200 01D1     		bne	.L165
1808:../../Drivers/STM32F7xx_HAL_Driver/Src/stm32f7xx_hal_i2c.c ****       {
1809:../../Drivers/STM32F7xx_HAL_Driver/Src/stm32f7xx_hal_i2c.c ****         return HAL_ERROR;
 3369              		.loc 1 1809 0
 3370 0202 0123     		movs	r3, #1
 3371 0204 1CE0     		b	.L152
 3372              	.L165:
1810:../../Drivers/STM32F7xx_HAL_Driver/Src/stm32f7xx_hal_i2c.c ****       }
1811:../../Drivers/STM32F7xx_HAL_Driver/Src/stm32f7xx_hal_i2c.c ****       else
1812:../../Drivers/STM32F7xx_HAL_Driver/Src/stm32f7xx_hal_i2c.c ****       {
1813:../../Drivers/STM32F7xx_HAL_Driver/Src/stm32f7xx_hal_i2c.c ****         return HAL_TIMEOUT;
 3373              		.loc 1 1813 0
 3374 0206 0323     		movs	r3, #3
 3375 0208 1AE0     		b	.L152
 3376              	.L164:
1814:../../Drivers/STM32F7xx_HAL_Driver/Src/stm32f7xx_hal_i2c.c ****       }
1815:../../Drivers/STM32F7xx_HAL_Driver/Src/stm32f7xx_hal_i2c.c ****     }
1816:../../Drivers/STM32F7xx_HAL_Driver/Src/stm32f7xx_hal_i2c.c ****     
1817:../../Drivers/STM32F7xx_HAL_Driver/Src/stm32f7xx_hal_i2c.c ****     /* Clear STOP Flag */
1818:../../Drivers/STM32F7xx_HAL_Driver/Src/stm32f7xx_hal_i2c.c ****     __HAL_I2C_CLEAR_FLAG(hi2c, I2C_FLAG_STOPF);
 3377              		.loc 1 1818 0
 3378 020a FB68     		ldr	r3, [r7, #12]
 3379 020c 1B68     		ldr	r3, [r3]
 3380 020e 2022     		movs	r2, #32
 3381 0210 DA61     		str	r2, [r3, #28]
1819:../../Drivers/STM32F7xx_HAL_Driver/Src/stm32f7xx_hal_i2c.c ****     
1820:../../Drivers/STM32F7xx_HAL_Driver/Src/stm32f7xx_hal_i2c.c ****     /* Clear Configuration Register 2 */
1821:../../Drivers/STM32F7xx_HAL_Driver/Src/stm32f7xx_hal_i2c.c ****     I2C_RESET_CR2(hi2c);
 3382              		.loc 1 1821 0
 3383 0212 FB68     		ldr	r3, [r7, #12]
 3384 0214 1A68     		ldr	r2, [r3]
 3385 0216 FB68     		ldr	r3, [r7, #12]
 3386 0218 1B68     		ldr	r3, [r3]
 3387 021a 5968     		ldr	r1, [r3, #4]
 3388 021c 0A4B     		ldr	r3, .L166
 3389 021e 0B40     		ands	r3, r3, r1
 3390 0220 5360     		str	r3, [r2, #4]
1822:../../Drivers/STM32F7xx_HAL_Driver/Src/stm32f7xx_hal_i2c.c ****     
1823:../../Drivers/STM32F7xx_HAL_Driver/Src/stm32f7xx_hal_i2c.c ****     hi2c->State = HAL_I2C_STATE_READY;
 3391              		.loc 1 1823 0
 3392 0222 FB68     		ldr	r3, [r7, #12]
 3393 0224 2022     		movs	r2, #32
ARM GAS  /tmp/cczIhzQ0.s 			page 92


 3394 0226 83F84120 		strb	r2, [r3, #65]
1824:../../Drivers/STM32F7xx_HAL_Driver/Src/stm32f7xx_hal_i2c.c ****     hi2c->Mode  = HAL_I2C_MODE_NONE;
 3395              		.loc 1 1824 0
 3396 022a FB68     		ldr	r3, [r7, #12]
 3397 022c 0022     		movs	r2, #0
 3398 022e 83F84220 		strb	r2, [r3, #66]
1825:../../Drivers/STM32F7xx_HAL_Driver/Src/stm32f7xx_hal_i2c.c ****     
1826:../../Drivers/STM32F7xx_HAL_Driver/Src/stm32f7xx_hal_i2c.c ****     /* Process Unlocked */
1827:../../Drivers/STM32F7xx_HAL_Driver/Src/stm32f7xx_hal_i2c.c ****     __HAL_UNLOCK(hi2c);
 3399              		.loc 1 1827 0
 3400 0232 FB68     		ldr	r3, [r7, #12]
 3401 0234 0022     		movs	r2, #0
 3402 0236 83F84020 		strb	r2, [r3, #64]
1828:../../Drivers/STM32F7xx_HAL_Driver/Src/stm32f7xx_hal_i2c.c ****     
1829:../../Drivers/STM32F7xx_HAL_Driver/Src/stm32f7xx_hal_i2c.c ****     return HAL_OK;
 3403              		.loc 1 1829 0
 3404 023a 0023     		movs	r3, #0
 3405 023c 00E0     		b	.L152
 3406              	.L149:
1830:../../Drivers/STM32F7xx_HAL_Driver/Src/stm32f7xx_hal_i2c.c ****   }
1831:../../Drivers/STM32F7xx_HAL_Driver/Src/stm32f7xx_hal_i2c.c ****   else
1832:../../Drivers/STM32F7xx_HAL_Driver/Src/stm32f7xx_hal_i2c.c ****   {
1833:../../Drivers/STM32F7xx_HAL_Driver/Src/stm32f7xx_hal_i2c.c ****     return HAL_BUSY;
 3407              		.loc 1 1833 0
 3408 023e 0223     		movs	r3, #2
 3409              	.L152:
1834:../../Drivers/STM32F7xx_HAL_Driver/Src/stm32f7xx_hal_i2c.c ****   }
1835:../../Drivers/STM32F7xx_HAL_Driver/Src/stm32f7xx_hal_i2c.c **** }
 3410              		.loc 1 1835 0
 3411 0240 1846     		mov	r0, r3
 3412 0242 1C37     		adds	r7, r7, #28
 3413              	.LCFI85:
 3414              		.cfi_def_cfa_offset 12
 3415 0244 BD46     		mov	sp, r7
 3416              	.LCFI86:
 3417              		.cfi_def_cfa_register 13
 3418              		@ sp needed
 3419 0246 90BD     		pop	{r4, r7, pc}
 3420              	.L167:
 3421              		.align	2
 3422              	.L166:
 3423 0248 00E800FE 		.word	-33495040
 3424              		.cfi_endproc
 3425              	.LFE151:
 3427              		.section	.text.HAL_I2C_Mem_Read,"ax",%progbits
 3428              		.align	2
 3429              		.global	HAL_I2C_Mem_Read
 3430              		.thumb
 3431              		.thumb_func
 3433              	HAL_I2C_Mem_Read:
 3434              	.LFB152:
1836:../../Drivers/STM32F7xx_HAL_Driver/Src/stm32f7xx_hal_i2c.c **** 
1837:../../Drivers/STM32F7xx_HAL_Driver/Src/stm32f7xx_hal_i2c.c **** /**
1838:../../Drivers/STM32F7xx_HAL_Driver/Src/stm32f7xx_hal_i2c.c ****   * @brief  Read an amount of data in blocking mode from a specific memory address
1839:../../Drivers/STM32F7xx_HAL_Driver/Src/stm32f7xx_hal_i2c.c ****   * @param  hi2c: Pointer to a I2C_HandleTypeDef structure that contains
1840:../../Drivers/STM32F7xx_HAL_Driver/Src/stm32f7xx_hal_i2c.c ****   *               the configuration information for the specified I2C.
1841:../../Drivers/STM32F7xx_HAL_Driver/Src/stm32f7xx_hal_i2c.c ****   * @param  DevAddress: Target device address
ARM GAS  /tmp/cczIhzQ0.s 			page 93


1842:../../Drivers/STM32F7xx_HAL_Driver/Src/stm32f7xx_hal_i2c.c ****   * @param  MemAddress: Internal memory address
1843:../../Drivers/STM32F7xx_HAL_Driver/Src/stm32f7xx_hal_i2c.c ****   * @param  MemAddSize: Size of internal memory address
1844:../../Drivers/STM32F7xx_HAL_Driver/Src/stm32f7xx_hal_i2c.c ****   * @param  pData: Pointer to data buffer
1845:../../Drivers/STM32F7xx_HAL_Driver/Src/stm32f7xx_hal_i2c.c ****   * @param  Size: Amount of data to be sent
1846:../../Drivers/STM32F7xx_HAL_Driver/Src/stm32f7xx_hal_i2c.c ****   * @param  Timeout: Timeout duration
1847:../../Drivers/STM32F7xx_HAL_Driver/Src/stm32f7xx_hal_i2c.c ****   * @retval HAL status
1848:../../Drivers/STM32F7xx_HAL_Driver/Src/stm32f7xx_hal_i2c.c ****   */
1849:../../Drivers/STM32F7xx_HAL_Driver/Src/stm32f7xx_hal_i2c.c **** HAL_StatusTypeDef HAL_I2C_Mem_Read(I2C_HandleTypeDef *hi2c, uint16_t DevAddress, uint16_t MemAddres
1850:../../Drivers/STM32F7xx_HAL_Driver/Src/stm32f7xx_hal_i2c.c **** {
 3435              		.loc 1 1850 0
 3436              		.cfi_startproc
 3437              		@ args = 12, pretend = 0, frame = 24
 3438              		@ frame_needed = 1, uses_anonymous_args = 0
 3439 0000 90B5     		push	{r4, r7, lr}
 3440              	.LCFI87:
 3441              		.cfi_def_cfa_offset 12
 3442              		.cfi_offset 4, -12
 3443              		.cfi_offset 7, -8
 3444              		.cfi_offset 14, -4
 3445 0002 89B0     		sub	sp, sp, #36
 3446              	.LCFI88:
 3447              		.cfi_def_cfa_offset 48
 3448 0004 02AF     		add	r7, sp, #8
 3449              	.LCFI89:
 3450              		.cfi_def_cfa 7, 40
 3451 0006 F860     		str	r0, [r7, #12]
 3452 0008 0846     		mov	r0, r1
 3453 000a 1146     		mov	r1, r2
 3454 000c 1A46     		mov	r2, r3
 3455 000e 0346     		mov	r3, r0	@ movhi
 3456 0010 7B81     		strh	r3, [r7, #10]	@ movhi
 3457 0012 0B46     		mov	r3, r1	@ movhi
 3458 0014 3B81     		strh	r3, [r7, #8]	@ movhi
 3459 0016 1346     		mov	r3, r2	@ movhi
 3460 0018 FB80     		strh	r3, [r7, #6]	@ movhi
1851:../../Drivers/STM32F7xx_HAL_Driver/Src/stm32f7xx_hal_i2c.c ****   uint32_t tickstart = 0;
 3461              		.loc 1 1851 0
 3462 001a 0023     		movs	r3, #0
 3463 001c 7B61     		str	r3, [r7, #20]
1852:../../Drivers/STM32F7xx_HAL_Driver/Src/stm32f7xx_hal_i2c.c ****   
1853:../../Drivers/STM32F7xx_HAL_Driver/Src/stm32f7xx_hal_i2c.c ****   /* Check the parameters */
1854:../../Drivers/STM32F7xx_HAL_Driver/Src/stm32f7xx_hal_i2c.c ****   assert_param(IS_I2C_MEMADD_SIZE(MemAddSize));
1855:../../Drivers/STM32F7xx_HAL_Driver/Src/stm32f7xx_hal_i2c.c ****   
1856:../../Drivers/STM32F7xx_HAL_Driver/Src/stm32f7xx_hal_i2c.c ****   if(hi2c->State == HAL_I2C_STATE_READY)
 3464              		.loc 1 1856 0
 3465 001e FB68     		ldr	r3, [r7, #12]
 3466 0020 93F84130 		ldrb	r3, [r3, #65]
 3467 0024 DBB2     		uxtb	r3, r3
 3468 0026 202B     		cmp	r3, #32
 3469 0028 40F00981 		bne	.L169
1857:../../Drivers/STM32F7xx_HAL_Driver/Src/stm32f7xx_hal_i2c.c ****   {
1858:../../Drivers/STM32F7xx_HAL_Driver/Src/stm32f7xx_hal_i2c.c ****     if((pData == NULL) || (Size == 0))
 3470              		.loc 1 1858 0
 3471 002c BB6A     		ldr	r3, [r7, #40]
 3472 002e 002B     		cmp	r3, #0
 3473 0030 02D0     		beq	.L170
 3474              		.loc 1 1858 0 is_stmt 0 discriminator 1
ARM GAS  /tmp/cczIhzQ0.s 			page 94


 3475 0032 BB8D     		ldrh	r3, [r7, #44]
 3476 0034 002B     		cmp	r3, #0
 3477 0036 01D1     		bne	.L171
 3478              	.L170:
1859:../../Drivers/STM32F7xx_HAL_Driver/Src/stm32f7xx_hal_i2c.c ****     {
1860:../../Drivers/STM32F7xx_HAL_Driver/Src/stm32f7xx_hal_i2c.c ****       return  HAL_ERROR;
 3479              		.loc 1 1860 0 is_stmt 1
 3480 0038 0123     		movs	r3, #1
 3481 003a 01E1     		b	.L172
 3482              	.L171:
1861:../../Drivers/STM32F7xx_HAL_Driver/Src/stm32f7xx_hal_i2c.c ****     }
1862:../../Drivers/STM32F7xx_HAL_Driver/Src/stm32f7xx_hal_i2c.c ****     
1863:../../Drivers/STM32F7xx_HAL_Driver/Src/stm32f7xx_hal_i2c.c ****     /* Process Locked */
1864:../../Drivers/STM32F7xx_HAL_Driver/Src/stm32f7xx_hal_i2c.c ****     __HAL_LOCK(hi2c);
 3483              		.loc 1 1864 0
 3484 003c FB68     		ldr	r3, [r7, #12]
 3485 003e 93F84030 		ldrb	r3, [r3, #64]	@ zero_extendqisi2
 3486 0042 012B     		cmp	r3, #1
 3487 0044 01D1     		bne	.L173
 3488              		.loc 1 1864 0 is_stmt 0 discriminator 1
 3489 0046 0223     		movs	r3, #2
 3490 0048 FAE0     		b	.L172
 3491              	.L173:
 3492              		.loc 1 1864 0 discriminator 2
 3493 004a FB68     		ldr	r3, [r7, #12]
 3494 004c 0122     		movs	r2, #1
 3495 004e 83F84020 		strb	r2, [r3, #64]
1865:../../Drivers/STM32F7xx_HAL_Driver/Src/stm32f7xx_hal_i2c.c ****     
1866:../../Drivers/STM32F7xx_HAL_Driver/Src/stm32f7xx_hal_i2c.c ****     /* Init tickstart for timeout management*/
1867:../../Drivers/STM32F7xx_HAL_Driver/Src/stm32f7xx_hal_i2c.c ****     tickstart = HAL_GetTick();
 3496              		.loc 1 1867 0 is_stmt 1 discriminator 2
 3497 0052 FFF7FEFF 		bl	HAL_GetTick
 3498 0056 7861     		str	r0, [r7, #20]
1868:../../Drivers/STM32F7xx_HAL_Driver/Src/stm32f7xx_hal_i2c.c ****     
1869:../../Drivers/STM32F7xx_HAL_Driver/Src/stm32f7xx_hal_i2c.c ****     if(I2C_WaitOnFlagUntilTimeout(hi2c, I2C_FLAG_BUSY, SET, I2C_TIMEOUT_BUSY, tickstart) != HAL_OK)
 3499              		.loc 1 1869 0 discriminator 2
 3500 0058 7B69     		ldr	r3, [r7, #20]
 3501 005a 0093     		str	r3, [sp]
 3502 005c F868     		ldr	r0, [r7, #12]
 3503 005e 4FF40041 		mov	r1, #32768
 3504 0062 0122     		movs	r2, #1
 3505 0064 1923     		movs	r3, #25
 3506 0066 FFF7FEFF 		bl	I2C_WaitOnFlagUntilTimeout
 3507 006a 0346     		mov	r3, r0
 3508 006c 002B     		cmp	r3, #0
 3509 006e 01D0     		beq	.L174
1870:../../Drivers/STM32F7xx_HAL_Driver/Src/stm32f7xx_hal_i2c.c ****     {
1871:../../Drivers/STM32F7xx_HAL_Driver/Src/stm32f7xx_hal_i2c.c ****       return HAL_TIMEOUT;
 3510              		.loc 1 1871 0
 3511 0070 0323     		movs	r3, #3
 3512 0072 E5E0     		b	.L172
 3513              	.L174:
1872:../../Drivers/STM32F7xx_HAL_Driver/Src/stm32f7xx_hal_i2c.c ****     }
1873:../../Drivers/STM32F7xx_HAL_Driver/Src/stm32f7xx_hal_i2c.c ****     
1874:../../Drivers/STM32F7xx_HAL_Driver/Src/stm32f7xx_hal_i2c.c ****     hi2c->State     = HAL_I2C_STATE_BUSY_RX;
 3514              		.loc 1 1874 0
 3515 0074 FB68     		ldr	r3, [r7, #12]
ARM GAS  /tmp/cczIhzQ0.s 			page 95


 3516 0076 2222     		movs	r2, #34
 3517 0078 83F84120 		strb	r2, [r3, #65]
1875:../../Drivers/STM32F7xx_HAL_Driver/Src/stm32f7xx_hal_i2c.c ****     hi2c->Mode      = HAL_I2C_MODE_MEM;
 3518              		.loc 1 1875 0
 3519 007c FB68     		ldr	r3, [r7, #12]
 3520 007e 4022     		movs	r2, #64
 3521 0080 83F84220 		strb	r2, [r3, #66]
1876:../../Drivers/STM32F7xx_HAL_Driver/Src/stm32f7xx_hal_i2c.c ****     hi2c->ErrorCode = HAL_I2C_ERROR_NONE;
 3522              		.loc 1 1876 0
 3523 0084 FB68     		ldr	r3, [r7, #12]
 3524 0086 0022     		movs	r2, #0
 3525 0088 5A64     		str	r2, [r3, #68]
1877:../../Drivers/STM32F7xx_HAL_Driver/Src/stm32f7xx_hal_i2c.c ****     
1878:../../Drivers/STM32F7xx_HAL_Driver/Src/stm32f7xx_hal_i2c.c ****     /* Prepare transfer parameters */
1879:../../Drivers/STM32F7xx_HAL_Driver/Src/stm32f7xx_hal_i2c.c ****     hi2c->pBuffPtr  = pData;
 3526              		.loc 1 1879 0
 3527 008a FB68     		ldr	r3, [r7, #12]
 3528 008c BA6A     		ldr	r2, [r7, #40]
 3529 008e 5A62     		str	r2, [r3, #36]
1880:../../Drivers/STM32F7xx_HAL_Driver/Src/stm32f7xx_hal_i2c.c ****     hi2c->XferCount = Size;
 3530              		.loc 1 1880 0
 3531 0090 FB68     		ldr	r3, [r7, #12]
 3532 0092 BA8D     		ldrh	r2, [r7, #44]	@ movhi
 3533 0094 5A85     		strh	r2, [r3, #42]	@ movhi
1881:../../Drivers/STM32F7xx_HAL_Driver/Src/stm32f7xx_hal_i2c.c ****     hi2c->XferISR   = NULL;
 3534              		.loc 1 1881 0
 3535 0096 FB68     		ldr	r3, [r7, #12]
 3536 0098 0022     		movs	r2, #0
 3537 009a 5A63     		str	r2, [r3, #52]
1882:../../Drivers/STM32F7xx_HAL_Driver/Src/stm32f7xx_hal_i2c.c ****     
1883:../../Drivers/STM32F7xx_HAL_Driver/Src/stm32f7xx_hal_i2c.c ****     /* Send Slave Address and Memory Address */
1884:../../Drivers/STM32F7xx_HAL_Driver/Src/stm32f7xx_hal_i2c.c ****     if(I2C_RequestMemoryRead(hi2c, DevAddress, MemAddress, MemAddSize, Timeout, tickstart) != HAL_O
 3538              		.loc 1 1884 0
 3539 009c 7989     		ldrh	r1, [r7, #10]
 3540 009e 3A89     		ldrh	r2, [r7, #8]
 3541 00a0 FC88     		ldrh	r4, [r7, #6]
 3542 00a2 3B6B     		ldr	r3, [r7, #48]
 3543 00a4 0093     		str	r3, [sp]
 3544 00a6 7B69     		ldr	r3, [r7, #20]
 3545 00a8 0193     		str	r3, [sp, #4]
 3546 00aa F868     		ldr	r0, [r7, #12]
 3547 00ac 2346     		mov	r3, r4
 3548 00ae FFF7FEFF 		bl	I2C_RequestMemoryRead
 3549 00b2 0346     		mov	r3, r0
 3550 00b4 002B     		cmp	r3, #0
 3551 00b6 0FD0     		beq	.L175
1885:../../Drivers/STM32F7xx_HAL_Driver/Src/stm32f7xx_hal_i2c.c ****     {
1886:../../Drivers/STM32F7xx_HAL_Driver/Src/stm32f7xx_hal_i2c.c ****       if(hi2c->ErrorCode == HAL_I2C_ERROR_AF)
 3552              		.loc 1 1886 0
 3553 00b8 FB68     		ldr	r3, [r7, #12]
 3554 00ba 5B6C     		ldr	r3, [r3, #68]
 3555 00bc 042B     		cmp	r3, #4
 3556 00be 05D1     		bne	.L176
1887:../../Drivers/STM32F7xx_HAL_Driver/Src/stm32f7xx_hal_i2c.c ****       {
1888:../../Drivers/STM32F7xx_HAL_Driver/Src/stm32f7xx_hal_i2c.c ****         /* Process Unlocked */
1889:../../Drivers/STM32F7xx_HAL_Driver/Src/stm32f7xx_hal_i2c.c ****         __HAL_UNLOCK(hi2c);
 3557              		.loc 1 1889 0
ARM GAS  /tmp/cczIhzQ0.s 			page 96


 3558 00c0 FB68     		ldr	r3, [r7, #12]
 3559 00c2 0022     		movs	r2, #0
 3560 00c4 83F84020 		strb	r2, [r3, #64]
1890:../../Drivers/STM32F7xx_HAL_Driver/Src/stm32f7xx_hal_i2c.c ****         return HAL_ERROR;
 3561              		.loc 1 1890 0
 3562 00c8 0123     		movs	r3, #1
 3563 00ca B9E0     		b	.L172
 3564              	.L176:
1891:../../Drivers/STM32F7xx_HAL_Driver/Src/stm32f7xx_hal_i2c.c ****       }
1892:../../Drivers/STM32F7xx_HAL_Driver/Src/stm32f7xx_hal_i2c.c ****       else
1893:../../Drivers/STM32F7xx_HAL_Driver/Src/stm32f7xx_hal_i2c.c ****       {
1894:../../Drivers/STM32F7xx_HAL_Driver/Src/stm32f7xx_hal_i2c.c ****         /* Process Unlocked */
1895:../../Drivers/STM32F7xx_HAL_Driver/Src/stm32f7xx_hal_i2c.c ****         __HAL_UNLOCK(hi2c);
 3565              		.loc 1 1895 0
 3566 00cc FB68     		ldr	r3, [r7, #12]
 3567 00ce 0022     		movs	r2, #0
 3568 00d0 83F84020 		strb	r2, [r3, #64]
1896:../../Drivers/STM32F7xx_HAL_Driver/Src/stm32f7xx_hal_i2c.c ****         return HAL_TIMEOUT;
 3569              		.loc 1 1896 0
 3570 00d4 0323     		movs	r3, #3
 3571 00d6 B3E0     		b	.L172
 3572              	.L175:
1897:../../Drivers/STM32F7xx_HAL_Driver/Src/stm32f7xx_hal_i2c.c ****       }
1898:../../Drivers/STM32F7xx_HAL_Driver/Src/stm32f7xx_hal_i2c.c ****     }
1899:../../Drivers/STM32F7xx_HAL_Driver/Src/stm32f7xx_hal_i2c.c ****     
1900:../../Drivers/STM32F7xx_HAL_Driver/Src/stm32f7xx_hal_i2c.c ****     /* Send Slave Address */
1901:../../Drivers/STM32F7xx_HAL_Driver/Src/stm32f7xx_hal_i2c.c ****     /* Set NBYTES to write and reload if hi2c->XferCount > MAX_NBYTE_SIZE and generate RESTART */
1902:../../Drivers/STM32F7xx_HAL_Driver/Src/stm32f7xx_hal_i2c.c ****     if(hi2c->XferCount > MAX_NBYTE_SIZE)
 3573              		.loc 1 1902 0
 3574 00d8 FB68     		ldr	r3, [r7, #12]
 3575 00da 5B8D     		ldrh	r3, [r3, #42]	@ movhi
 3576 00dc 9BB2     		uxth	r3, r3
 3577 00de FF2B     		cmp	r3, #255
 3578 00e0 0FD9     		bls	.L177
1903:../../Drivers/STM32F7xx_HAL_Driver/Src/stm32f7xx_hal_i2c.c ****     {
1904:../../Drivers/STM32F7xx_HAL_Driver/Src/stm32f7xx_hal_i2c.c ****       hi2c->XferSize = MAX_NBYTE_SIZE;
 3579              		.loc 1 1904 0
 3580 00e2 FB68     		ldr	r3, [r7, #12]
 3581 00e4 FF22     		movs	r2, #255
 3582 00e6 1A85     		strh	r2, [r3, #40]	@ movhi
1905:../../Drivers/STM32F7xx_HAL_Driver/Src/stm32f7xx_hal_i2c.c ****       I2C_TransferConfig(hi2c, DevAddress, hi2c->XferSize, I2C_RELOAD_MODE, I2C_GENERATE_START_READ
 3583              		.loc 1 1905 0
 3584 00e8 FB68     		ldr	r3, [r7, #12]
 3585 00ea 1B8D     		ldrh	r3, [r3, #40]
 3586 00ec DAB2     		uxtb	r2, r3
 3587 00ee 7989     		ldrh	r1, [r7, #10]
 3588 00f0 4FF41053 		mov	r3, #9216
 3589 00f4 0093     		str	r3, [sp]
 3590 00f6 F868     		ldr	r0, [r7, #12]
 3591 00f8 4FF08073 		mov	r3, #16777216
 3592 00fc FFF7FEFF 		bl	I2C_TransferConfig
 3593 0100 10E0     		b	.L178
 3594              	.L177:
1906:../../Drivers/STM32F7xx_HAL_Driver/Src/stm32f7xx_hal_i2c.c ****     }
1907:../../Drivers/STM32F7xx_HAL_Driver/Src/stm32f7xx_hal_i2c.c ****     else
1908:../../Drivers/STM32F7xx_HAL_Driver/Src/stm32f7xx_hal_i2c.c ****     {
1909:../../Drivers/STM32F7xx_HAL_Driver/Src/stm32f7xx_hal_i2c.c ****       hi2c->XferSize = hi2c->XferCount;
ARM GAS  /tmp/cczIhzQ0.s 			page 97


 3595              		.loc 1 1909 0
 3596 0102 FB68     		ldr	r3, [r7, #12]
 3597 0104 5B8D     		ldrh	r3, [r3, #42]	@ movhi
 3598 0106 9AB2     		uxth	r2, r3
 3599 0108 FB68     		ldr	r3, [r7, #12]
 3600 010a 1A85     		strh	r2, [r3, #40]	@ movhi
1910:../../Drivers/STM32F7xx_HAL_Driver/Src/stm32f7xx_hal_i2c.c ****       I2C_TransferConfig(hi2c, DevAddress, hi2c->XferSize, I2C_AUTOEND_MODE, I2C_GENERATE_START_REA
 3601              		.loc 1 1910 0
 3602 010c FB68     		ldr	r3, [r7, #12]
 3603 010e 1B8D     		ldrh	r3, [r3, #40]
 3604 0110 DAB2     		uxtb	r2, r3
 3605 0112 7989     		ldrh	r1, [r7, #10]
 3606 0114 4FF41053 		mov	r3, #9216
 3607 0118 0093     		str	r3, [sp]
 3608 011a F868     		ldr	r0, [r7, #12]
 3609 011c 4FF00073 		mov	r3, #33554432
 3610 0120 FFF7FEFF 		bl	I2C_TransferConfig
 3611              	.L178:
1911:../../Drivers/STM32F7xx_HAL_Driver/Src/stm32f7xx_hal_i2c.c ****     }
1912:../../Drivers/STM32F7xx_HAL_Driver/Src/stm32f7xx_hal_i2c.c ****     
1913:../../Drivers/STM32F7xx_HAL_Driver/Src/stm32f7xx_hal_i2c.c ****     do
1914:../../Drivers/STM32F7xx_HAL_Driver/Src/stm32f7xx_hal_i2c.c ****     {
1915:../../Drivers/STM32F7xx_HAL_Driver/Src/stm32f7xx_hal_i2c.c ****       /* Wait until RXNE flag is set */
1916:../../Drivers/STM32F7xx_HAL_Driver/Src/stm32f7xx_hal_i2c.c ****       if(I2C_WaitOnFlagUntilTimeout(hi2c, I2C_FLAG_RXNE, RESET, Timeout, tickstart) != HAL_OK)
 3612              		.loc 1 1916 0
 3613 0124 7B69     		ldr	r3, [r7, #20]
 3614 0126 0093     		str	r3, [sp]
 3615 0128 F868     		ldr	r0, [r7, #12]
 3616 012a 0421     		movs	r1, #4
 3617 012c 0022     		movs	r2, #0
 3618 012e 3B6B     		ldr	r3, [r7, #48]
 3619 0130 FFF7FEFF 		bl	I2C_WaitOnFlagUntilTimeout
 3620 0134 0346     		mov	r3, r0
 3621 0136 002B     		cmp	r3, #0
 3622 0138 01D0     		beq	.L179
1917:../../Drivers/STM32F7xx_HAL_Driver/Src/stm32f7xx_hal_i2c.c ****       {
1918:../../Drivers/STM32F7xx_HAL_Driver/Src/stm32f7xx_hal_i2c.c ****         return HAL_TIMEOUT;
 3623              		.loc 1 1918 0
 3624 013a 0323     		movs	r3, #3
 3625 013c 80E0     		b	.L172
 3626              	.L179:
1919:../../Drivers/STM32F7xx_HAL_Driver/Src/stm32f7xx_hal_i2c.c ****       }
1920:../../Drivers/STM32F7xx_HAL_Driver/Src/stm32f7xx_hal_i2c.c ****       
1921:../../Drivers/STM32F7xx_HAL_Driver/Src/stm32f7xx_hal_i2c.c ****       /* Read data from RXDR */
1922:../../Drivers/STM32F7xx_HAL_Driver/Src/stm32f7xx_hal_i2c.c ****       (*hi2c->pBuffPtr++) = hi2c->Instance->RXDR;
 3627              		.loc 1 1922 0
 3628 013e FB68     		ldr	r3, [r7, #12]
 3629 0140 5B6A     		ldr	r3, [r3, #36]
 3630 0142 591C     		adds	r1, r3, #1
 3631 0144 FA68     		ldr	r2, [r7, #12]
 3632 0146 5162     		str	r1, [r2, #36]
 3633 0148 FA68     		ldr	r2, [r7, #12]
 3634 014a 1268     		ldr	r2, [r2]
 3635 014c 526A     		ldr	r2, [r2, #36]
 3636 014e D2B2     		uxtb	r2, r2
 3637 0150 1A70     		strb	r2, [r3]
1923:../../Drivers/STM32F7xx_HAL_Driver/Src/stm32f7xx_hal_i2c.c ****       hi2c->XferSize--;
ARM GAS  /tmp/cczIhzQ0.s 			page 98


 3638              		.loc 1 1923 0
 3639 0152 FB68     		ldr	r3, [r7, #12]
 3640 0154 1B8D     		ldrh	r3, [r3, #40]
 3641 0156 013B     		subs	r3, r3, #1
 3642 0158 9AB2     		uxth	r2, r3
 3643 015a FB68     		ldr	r3, [r7, #12]
 3644 015c 1A85     		strh	r2, [r3, #40]	@ movhi
1924:../../Drivers/STM32F7xx_HAL_Driver/Src/stm32f7xx_hal_i2c.c ****       hi2c->XferCount--;
 3645              		.loc 1 1924 0
 3646 015e FB68     		ldr	r3, [r7, #12]
 3647 0160 5B8D     		ldrh	r3, [r3, #42]	@ movhi
 3648 0162 9BB2     		uxth	r3, r3
 3649 0164 013B     		subs	r3, r3, #1
 3650 0166 9AB2     		uxth	r2, r3
 3651 0168 FB68     		ldr	r3, [r7, #12]
 3652 016a 5A85     		strh	r2, [r3, #42]	@ movhi
1925:../../Drivers/STM32F7xx_HAL_Driver/Src/stm32f7xx_hal_i2c.c ****       
1926:../../Drivers/STM32F7xx_HAL_Driver/Src/stm32f7xx_hal_i2c.c ****       if((hi2c->XferSize == 0) && (hi2c->XferCount != 0))
 3653              		.loc 1 1926 0
 3654 016c FB68     		ldr	r3, [r7, #12]
 3655 016e 1B8D     		ldrh	r3, [r3, #40]
 3656 0170 002B     		cmp	r3, #0
 3657 0172 35D1     		bne	.L180
 3658              		.loc 1 1926 0 is_stmt 0 discriminator 1
 3659 0174 FB68     		ldr	r3, [r7, #12]
 3660 0176 5B8D     		ldrh	r3, [r3, #42]	@ movhi
 3661 0178 9BB2     		uxth	r3, r3
 3662 017a 002B     		cmp	r3, #0
 3663 017c 30D0     		beq	.L180
1927:../../Drivers/STM32F7xx_HAL_Driver/Src/stm32f7xx_hal_i2c.c ****       {
1928:../../Drivers/STM32F7xx_HAL_Driver/Src/stm32f7xx_hal_i2c.c ****         /* Wait until TCR flag is set */
1929:../../Drivers/STM32F7xx_HAL_Driver/Src/stm32f7xx_hal_i2c.c ****         if(I2C_WaitOnFlagUntilTimeout(hi2c, I2C_FLAG_TCR, RESET, Timeout, tickstart) != HAL_OK)
 3664              		.loc 1 1929 0 is_stmt 1
 3665 017e 7B69     		ldr	r3, [r7, #20]
 3666 0180 0093     		str	r3, [sp]
 3667 0182 F868     		ldr	r0, [r7, #12]
 3668 0184 8021     		movs	r1, #128
 3669 0186 0022     		movs	r2, #0
 3670 0188 3B6B     		ldr	r3, [r7, #48]
 3671 018a FFF7FEFF 		bl	I2C_WaitOnFlagUntilTimeout
 3672 018e 0346     		mov	r3, r0
 3673 0190 002B     		cmp	r3, #0
 3674 0192 01D0     		beq	.L181
1930:../../Drivers/STM32F7xx_HAL_Driver/Src/stm32f7xx_hal_i2c.c ****         {
1931:../../Drivers/STM32F7xx_HAL_Driver/Src/stm32f7xx_hal_i2c.c ****           return HAL_TIMEOUT;
 3675              		.loc 1 1931 0
 3676 0194 0323     		movs	r3, #3
 3677 0196 53E0     		b	.L172
 3678              	.L181:
1932:../../Drivers/STM32F7xx_HAL_Driver/Src/stm32f7xx_hal_i2c.c ****         }
1933:../../Drivers/STM32F7xx_HAL_Driver/Src/stm32f7xx_hal_i2c.c ****         
1934:../../Drivers/STM32F7xx_HAL_Driver/Src/stm32f7xx_hal_i2c.c ****         if(hi2c->XferCount > MAX_NBYTE_SIZE)
 3679              		.loc 1 1934 0
 3680 0198 FB68     		ldr	r3, [r7, #12]
 3681 019a 5B8D     		ldrh	r3, [r3, #42]	@ movhi
 3682 019c 9BB2     		uxth	r3, r3
 3683 019e FF2B     		cmp	r3, #255
ARM GAS  /tmp/cczIhzQ0.s 			page 99


 3684 01a0 0ED9     		bls	.L182
1935:../../Drivers/STM32F7xx_HAL_Driver/Src/stm32f7xx_hal_i2c.c ****         {
1936:../../Drivers/STM32F7xx_HAL_Driver/Src/stm32f7xx_hal_i2c.c ****           hi2c->XferSize = MAX_NBYTE_SIZE;
 3685              		.loc 1 1936 0
 3686 01a2 FB68     		ldr	r3, [r7, #12]
 3687 01a4 FF22     		movs	r2, #255
 3688 01a6 1A85     		strh	r2, [r3, #40]	@ movhi
1937:../../Drivers/STM32F7xx_HAL_Driver/Src/stm32f7xx_hal_i2c.c ****           I2C_TransferConfig(hi2c, DevAddress, hi2c->XferSize, I2C_RELOAD_MODE, I2C_NO_STARTSTOP);
 3689              		.loc 1 1937 0
 3690 01a8 FB68     		ldr	r3, [r7, #12]
 3691 01aa 1B8D     		ldrh	r3, [r3, #40]
 3692 01ac DAB2     		uxtb	r2, r3
 3693 01ae 7989     		ldrh	r1, [r7, #10]
 3694 01b0 0023     		movs	r3, #0
 3695 01b2 0093     		str	r3, [sp]
 3696 01b4 F868     		ldr	r0, [r7, #12]
 3697 01b6 4FF08073 		mov	r3, #16777216
 3698 01ba FFF7FEFF 		bl	I2C_TransferConfig
 3699 01be 0FE0     		b	.L180
 3700              	.L182:
1938:../../Drivers/STM32F7xx_HAL_Driver/Src/stm32f7xx_hal_i2c.c ****         }
1939:../../Drivers/STM32F7xx_HAL_Driver/Src/stm32f7xx_hal_i2c.c ****         else
1940:../../Drivers/STM32F7xx_HAL_Driver/Src/stm32f7xx_hal_i2c.c ****         {
1941:../../Drivers/STM32F7xx_HAL_Driver/Src/stm32f7xx_hal_i2c.c ****           hi2c->XferSize = hi2c->XferCount;
 3701              		.loc 1 1941 0
 3702 01c0 FB68     		ldr	r3, [r7, #12]
 3703 01c2 5B8D     		ldrh	r3, [r3, #42]	@ movhi
 3704 01c4 9AB2     		uxth	r2, r3
 3705 01c6 FB68     		ldr	r3, [r7, #12]
 3706 01c8 1A85     		strh	r2, [r3, #40]	@ movhi
1942:../../Drivers/STM32F7xx_HAL_Driver/Src/stm32f7xx_hal_i2c.c ****           I2C_TransferConfig(hi2c, DevAddress, hi2c->XferSize, I2C_AUTOEND_MODE, I2C_NO_STARTSTOP);
 3707              		.loc 1 1942 0
 3708 01ca FB68     		ldr	r3, [r7, #12]
 3709 01cc 1B8D     		ldrh	r3, [r3, #40]
 3710 01ce DAB2     		uxtb	r2, r3
 3711 01d0 7989     		ldrh	r1, [r7, #10]
 3712 01d2 0023     		movs	r3, #0
 3713 01d4 0093     		str	r3, [sp]
 3714 01d6 F868     		ldr	r0, [r7, #12]
 3715 01d8 4FF00073 		mov	r3, #33554432
 3716 01dc FFF7FEFF 		bl	I2C_TransferConfig
 3717              	.L180:
1943:../../Drivers/STM32F7xx_HAL_Driver/Src/stm32f7xx_hal_i2c.c ****         }
1944:../../Drivers/STM32F7xx_HAL_Driver/Src/stm32f7xx_hal_i2c.c ****       }
1945:../../Drivers/STM32F7xx_HAL_Driver/Src/stm32f7xx_hal_i2c.c ****     }while(hi2c->XferCount > 0);
 3718              		.loc 1 1945 0
 3719 01e0 FB68     		ldr	r3, [r7, #12]
 3720 01e2 5B8D     		ldrh	r3, [r3, #42]	@ movhi
 3721 01e4 9BB2     		uxth	r3, r3
 3722 01e6 002B     		cmp	r3, #0
 3723 01e8 9CD1     		bne	.L178
1946:../../Drivers/STM32F7xx_HAL_Driver/Src/stm32f7xx_hal_i2c.c ****     
1947:../../Drivers/STM32F7xx_HAL_Driver/Src/stm32f7xx_hal_i2c.c ****     /* No need to Check TC flag, with AUTOEND mode the stop is automatically generated */
1948:../../Drivers/STM32F7xx_HAL_Driver/Src/stm32f7xx_hal_i2c.c ****     /* Wait until STOPF flag is reset */ 
1949:../../Drivers/STM32F7xx_HAL_Driver/Src/stm32f7xx_hal_i2c.c ****     if(I2C_WaitOnSTOPFlagUntilTimeout(hi2c, Timeout, tickstart) != HAL_OK)
 3724              		.loc 1 1949 0
 3725 01ea F868     		ldr	r0, [r7, #12]
ARM GAS  /tmp/cczIhzQ0.s 			page 100


 3726 01ec 396B     		ldr	r1, [r7, #48]
 3727 01ee 7A69     		ldr	r2, [r7, #20]
 3728 01f0 FFF7FEFF 		bl	I2C_WaitOnSTOPFlagUntilTimeout
 3729 01f4 0346     		mov	r3, r0
 3730 01f6 002B     		cmp	r3, #0
 3731 01f8 07D0     		beq	.L183
1950:../../Drivers/STM32F7xx_HAL_Driver/Src/stm32f7xx_hal_i2c.c ****     {
1951:../../Drivers/STM32F7xx_HAL_Driver/Src/stm32f7xx_hal_i2c.c ****       if(hi2c->ErrorCode == HAL_I2C_ERROR_AF)
 3732              		.loc 1 1951 0
 3733 01fa FB68     		ldr	r3, [r7, #12]
 3734 01fc 5B6C     		ldr	r3, [r3, #68]
 3735 01fe 042B     		cmp	r3, #4
 3736 0200 01D1     		bne	.L184
1952:../../Drivers/STM32F7xx_HAL_Driver/Src/stm32f7xx_hal_i2c.c ****       {
1953:../../Drivers/STM32F7xx_HAL_Driver/Src/stm32f7xx_hal_i2c.c ****         return HAL_ERROR;
 3737              		.loc 1 1953 0
 3738 0202 0123     		movs	r3, #1
 3739 0204 1CE0     		b	.L172
 3740              	.L184:
1954:../../Drivers/STM32F7xx_HAL_Driver/Src/stm32f7xx_hal_i2c.c ****       }
1955:../../Drivers/STM32F7xx_HAL_Driver/Src/stm32f7xx_hal_i2c.c ****       else
1956:../../Drivers/STM32F7xx_HAL_Driver/Src/stm32f7xx_hal_i2c.c ****       {
1957:../../Drivers/STM32F7xx_HAL_Driver/Src/stm32f7xx_hal_i2c.c ****         return HAL_TIMEOUT;
 3741              		.loc 1 1957 0
 3742 0206 0323     		movs	r3, #3
 3743 0208 1AE0     		b	.L172
 3744              	.L183:
1958:../../Drivers/STM32F7xx_HAL_Driver/Src/stm32f7xx_hal_i2c.c ****       }
1959:../../Drivers/STM32F7xx_HAL_Driver/Src/stm32f7xx_hal_i2c.c ****     }
1960:../../Drivers/STM32F7xx_HAL_Driver/Src/stm32f7xx_hal_i2c.c ****     
1961:../../Drivers/STM32F7xx_HAL_Driver/Src/stm32f7xx_hal_i2c.c ****     /* Clear STOP Flag */
1962:../../Drivers/STM32F7xx_HAL_Driver/Src/stm32f7xx_hal_i2c.c ****     __HAL_I2C_CLEAR_FLAG(hi2c, I2C_FLAG_STOPF);
 3745              		.loc 1 1962 0
 3746 020a FB68     		ldr	r3, [r7, #12]
 3747 020c 1B68     		ldr	r3, [r3]
 3748 020e 2022     		movs	r2, #32
 3749 0210 DA61     		str	r2, [r3, #28]
1963:../../Drivers/STM32F7xx_HAL_Driver/Src/stm32f7xx_hal_i2c.c ****     
1964:../../Drivers/STM32F7xx_HAL_Driver/Src/stm32f7xx_hal_i2c.c ****     /* Clear Configuration Register 2 */
1965:../../Drivers/STM32F7xx_HAL_Driver/Src/stm32f7xx_hal_i2c.c ****     I2C_RESET_CR2(hi2c);
 3750              		.loc 1 1965 0
 3751 0212 FB68     		ldr	r3, [r7, #12]
 3752 0214 1A68     		ldr	r2, [r3]
 3753 0216 FB68     		ldr	r3, [r7, #12]
 3754 0218 1B68     		ldr	r3, [r3]
 3755 021a 5968     		ldr	r1, [r3, #4]
 3756 021c 0A4B     		ldr	r3, .L185
 3757 021e 0B40     		ands	r3, r3, r1
 3758 0220 5360     		str	r3, [r2, #4]
1966:../../Drivers/STM32F7xx_HAL_Driver/Src/stm32f7xx_hal_i2c.c ****     
1967:../../Drivers/STM32F7xx_HAL_Driver/Src/stm32f7xx_hal_i2c.c ****     hi2c->State = HAL_I2C_STATE_READY;
 3759              		.loc 1 1967 0
 3760 0222 FB68     		ldr	r3, [r7, #12]
 3761 0224 2022     		movs	r2, #32
 3762 0226 83F84120 		strb	r2, [r3, #65]
1968:../../Drivers/STM32F7xx_HAL_Driver/Src/stm32f7xx_hal_i2c.c ****     hi2c->Mode  = HAL_I2C_MODE_NONE;
 3763              		.loc 1 1968 0
ARM GAS  /tmp/cczIhzQ0.s 			page 101


 3764 022a FB68     		ldr	r3, [r7, #12]
 3765 022c 0022     		movs	r2, #0
 3766 022e 83F84220 		strb	r2, [r3, #66]
1969:../../Drivers/STM32F7xx_HAL_Driver/Src/stm32f7xx_hal_i2c.c ****     
1970:../../Drivers/STM32F7xx_HAL_Driver/Src/stm32f7xx_hal_i2c.c ****     /* Process Unlocked */
1971:../../Drivers/STM32F7xx_HAL_Driver/Src/stm32f7xx_hal_i2c.c ****     __HAL_UNLOCK(hi2c);
 3767              		.loc 1 1971 0
 3768 0232 FB68     		ldr	r3, [r7, #12]
 3769 0234 0022     		movs	r2, #0
 3770 0236 83F84020 		strb	r2, [r3, #64]
1972:../../Drivers/STM32F7xx_HAL_Driver/Src/stm32f7xx_hal_i2c.c ****     
1973:../../Drivers/STM32F7xx_HAL_Driver/Src/stm32f7xx_hal_i2c.c ****     return HAL_OK;
 3771              		.loc 1 1973 0
 3772 023a 0023     		movs	r3, #0
 3773 023c 00E0     		b	.L172
 3774              	.L169:
1974:../../Drivers/STM32F7xx_HAL_Driver/Src/stm32f7xx_hal_i2c.c ****   }
1975:../../Drivers/STM32F7xx_HAL_Driver/Src/stm32f7xx_hal_i2c.c ****   else
1976:../../Drivers/STM32F7xx_HAL_Driver/Src/stm32f7xx_hal_i2c.c ****   {
1977:../../Drivers/STM32F7xx_HAL_Driver/Src/stm32f7xx_hal_i2c.c ****     return HAL_BUSY;
 3775              		.loc 1 1977 0
 3776 023e 0223     		movs	r3, #2
 3777              	.L172:
1978:../../Drivers/STM32F7xx_HAL_Driver/Src/stm32f7xx_hal_i2c.c ****   }
1979:../../Drivers/STM32F7xx_HAL_Driver/Src/stm32f7xx_hal_i2c.c **** }
 3778              		.loc 1 1979 0
 3779 0240 1846     		mov	r0, r3
 3780 0242 1C37     		adds	r7, r7, #28
 3781              	.LCFI90:
 3782              		.cfi_def_cfa_offset 12
 3783 0244 BD46     		mov	sp, r7
 3784              	.LCFI91:
 3785              		.cfi_def_cfa_register 13
 3786              		@ sp needed
 3787 0246 90BD     		pop	{r4, r7, pc}
 3788              	.L186:
 3789              		.align	2
 3790              	.L185:
 3791 0248 00E800FE 		.word	-33495040
 3792              		.cfi_endproc
 3793              	.LFE152:
 3795              		.section	.text.HAL_I2C_Mem_Write_IT,"ax",%progbits
 3796              		.align	2
 3797              		.global	HAL_I2C_Mem_Write_IT
 3798              		.thumb
 3799              		.thumb_func
 3801              	HAL_I2C_Mem_Write_IT:
 3802              	.LFB153:
1980:../../Drivers/STM32F7xx_HAL_Driver/Src/stm32f7xx_hal_i2c.c **** /**
1981:../../Drivers/STM32F7xx_HAL_Driver/Src/stm32f7xx_hal_i2c.c ****   * @brief  Write an amount of data in non-blocking mode with Interrupt to a specific memory addres
1982:../../Drivers/STM32F7xx_HAL_Driver/Src/stm32f7xx_hal_i2c.c ****   * @param  hi2c: Pointer to a I2C_HandleTypeDef structure that contains
1983:../../Drivers/STM32F7xx_HAL_Driver/Src/stm32f7xx_hal_i2c.c ****   *               the configuration information for the specified I2C.
1984:../../Drivers/STM32F7xx_HAL_Driver/Src/stm32f7xx_hal_i2c.c ****   * @param  DevAddress: Target device address
1985:../../Drivers/STM32F7xx_HAL_Driver/Src/stm32f7xx_hal_i2c.c ****   * @param  MemAddress: Internal memory address
1986:../../Drivers/STM32F7xx_HAL_Driver/Src/stm32f7xx_hal_i2c.c ****   * @param  MemAddSize: Size of internal memory address
1987:../../Drivers/STM32F7xx_HAL_Driver/Src/stm32f7xx_hal_i2c.c ****   * @param  pData: Pointer to data buffer
1988:../../Drivers/STM32F7xx_HAL_Driver/Src/stm32f7xx_hal_i2c.c ****   * @param  Size: Amount of data to be sent
ARM GAS  /tmp/cczIhzQ0.s 			page 102


1989:../../Drivers/STM32F7xx_HAL_Driver/Src/stm32f7xx_hal_i2c.c ****   * @retval HAL status
1990:../../Drivers/STM32F7xx_HAL_Driver/Src/stm32f7xx_hal_i2c.c ****   */
1991:../../Drivers/STM32F7xx_HAL_Driver/Src/stm32f7xx_hal_i2c.c **** HAL_StatusTypeDef HAL_I2C_Mem_Write_IT(I2C_HandleTypeDef *hi2c, uint16_t DevAddress, uint16_t MemAd
1992:../../Drivers/STM32F7xx_HAL_Driver/Src/stm32f7xx_hal_i2c.c **** {
 3803              		.loc 1 1992 0
 3804              		.cfi_startproc
 3805              		@ args = 8, pretend = 0, frame = 24
 3806              		@ frame_needed = 1, uses_anonymous_args = 0
 3807 0000 90B5     		push	{r4, r7, lr}
 3808              	.LCFI92:
 3809              		.cfi_def_cfa_offset 12
 3810              		.cfi_offset 4, -12
 3811              		.cfi_offset 7, -8
 3812              		.cfi_offset 14, -4
 3813 0002 89B0     		sub	sp, sp, #36
 3814              	.LCFI93:
 3815              		.cfi_def_cfa_offset 48
 3816 0004 02AF     		add	r7, sp, #8
 3817              	.LCFI94:
 3818              		.cfi_def_cfa 7, 40
 3819 0006 F860     		str	r0, [r7, #12]
 3820 0008 0846     		mov	r0, r1
 3821 000a 1146     		mov	r1, r2
 3822 000c 1A46     		mov	r2, r3
 3823 000e 0346     		mov	r3, r0	@ movhi
 3824 0010 7B81     		strh	r3, [r7, #10]	@ movhi
 3825 0012 0B46     		mov	r3, r1	@ movhi
 3826 0014 3B81     		strh	r3, [r7, #8]	@ movhi
 3827 0016 1346     		mov	r3, r2	@ movhi
 3828 0018 FB80     		strh	r3, [r7, #6]	@ movhi
1993:../../Drivers/STM32F7xx_HAL_Driver/Src/stm32f7xx_hal_i2c.c ****   uint32_t tickstart = 0;
 3829              		.loc 1 1993 0
 3830 001a 0023     		movs	r3, #0
 3831 001c 3B61     		str	r3, [r7, #16]
1994:../../Drivers/STM32F7xx_HAL_Driver/Src/stm32f7xx_hal_i2c.c ****   uint32_t xfermode = 0;
 3832              		.loc 1 1994 0
 3833 001e 0023     		movs	r3, #0
 3834 0020 7B61     		str	r3, [r7, #20]
1995:../../Drivers/STM32F7xx_HAL_Driver/Src/stm32f7xx_hal_i2c.c ****   
1996:../../Drivers/STM32F7xx_HAL_Driver/Src/stm32f7xx_hal_i2c.c ****   /* Check the parameters */
1997:../../Drivers/STM32F7xx_HAL_Driver/Src/stm32f7xx_hal_i2c.c ****   assert_param(IS_I2C_MEMADD_SIZE(MemAddSize));
1998:../../Drivers/STM32F7xx_HAL_Driver/Src/stm32f7xx_hal_i2c.c ****   
1999:../../Drivers/STM32F7xx_HAL_Driver/Src/stm32f7xx_hal_i2c.c ****   if(hi2c->State == HAL_I2C_STATE_READY)
 3835              		.loc 1 1999 0
 3836 0022 FB68     		ldr	r3, [r7, #12]
 3837 0024 93F84130 		ldrb	r3, [r3, #65]
 3838 0028 DBB2     		uxtb	r3, r3
 3839 002a 202B     		cmp	r3, #32
 3840 002c 7BD1     		bne	.L188
2000:../../Drivers/STM32F7xx_HAL_Driver/Src/stm32f7xx_hal_i2c.c ****   {
2001:../../Drivers/STM32F7xx_HAL_Driver/Src/stm32f7xx_hal_i2c.c ****     if((pData == NULL) || (Size == 0))
 3841              		.loc 1 2001 0
 3842 002e BB6A     		ldr	r3, [r7, #40]
 3843 0030 002B     		cmp	r3, #0
 3844 0032 02D0     		beq	.L189
 3845              		.loc 1 2001 0 is_stmt 0 discriminator 1
 3846 0034 BB8D     		ldrh	r3, [r7, #44]
ARM GAS  /tmp/cczIhzQ0.s 			page 103


 3847 0036 002B     		cmp	r3, #0
 3848 0038 01D1     		bne	.L190
 3849              	.L189:
2002:../../Drivers/STM32F7xx_HAL_Driver/Src/stm32f7xx_hal_i2c.c ****     {
2003:../../Drivers/STM32F7xx_HAL_Driver/Src/stm32f7xx_hal_i2c.c ****       return  HAL_ERROR;
 3850              		.loc 1 2003 0 is_stmt 1
 3851 003a 0123     		movs	r3, #1
 3852 003c 74E0     		b	.L191
 3853              	.L190:
2004:../../Drivers/STM32F7xx_HAL_Driver/Src/stm32f7xx_hal_i2c.c ****     }
2005:../../Drivers/STM32F7xx_HAL_Driver/Src/stm32f7xx_hal_i2c.c ****     
2006:../../Drivers/STM32F7xx_HAL_Driver/Src/stm32f7xx_hal_i2c.c ****     if(__HAL_I2C_GET_FLAG(hi2c, I2C_FLAG_BUSY) == SET)
 3854              		.loc 1 2006 0
 3855 003e FB68     		ldr	r3, [r7, #12]
 3856 0040 1B68     		ldr	r3, [r3]
 3857 0042 9B69     		ldr	r3, [r3, #24]
 3858 0044 03F40043 		and	r3, r3, #32768
 3859 0048 002B     		cmp	r3, #0
 3860 004a 01D0     		beq	.L192
2007:../../Drivers/STM32F7xx_HAL_Driver/Src/stm32f7xx_hal_i2c.c ****     {
2008:../../Drivers/STM32F7xx_HAL_Driver/Src/stm32f7xx_hal_i2c.c ****       return HAL_BUSY;
 3861              		.loc 1 2008 0
 3862 004c 0223     		movs	r3, #2
 3863 004e 6BE0     		b	.L191
 3864              	.L192:
2009:../../Drivers/STM32F7xx_HAL_Driver/Src/stm32f7xx_hal_i2c.c ****     }
2010:../../Drivers/STM32F7xx_HAL_Driver/Src/stm32f7xx_hal_i2c.c ****     
2011:../../Drivers/STM32F7xx_HAL_Driver/Src/stm32f7xx_hal_i2c.c ****     /* Process Locked */
2012:../../Drivers/STM32F7xx_HAL_Driver/Src/stm32f7xx_hal_i2c.c ****     __HAL_LOCK(hi2c);
 3865              		.loc 1 2012 0
 3866 0050 FB68     		ldr	r3, [r7, #12]
 3867 0052 93F84030 		ldrb	r3, [r3, #64]	@ zero_extendqisi2
 3868 0056 012B     		cmp	r3, #1
 3869 0058 01D1     		bne	.L193
 3870              		.loc 1 2012 0 is_stmt 0 discriminator 1
 3871 005a 0223     		movs	r3, #2
 3872 005c 64E0     		b	.L191
 3873              	.L193:
 3874              		.loc 1 2012 0 discriminator 2
 3875 005e FB68     		ldr	r3, [r7, #12]
 3876 0060 0122     		movs	r2, #1
 3877 0062 83F84020 		strb	r2, [r3, #64]
2013:../../Drivers/STM32F7xx_HAL_Driver/Src/stm32f7xx_hal_i2c.c ****     
2014:../../Drivers/STM32F7xx_HAL_Driver/Src/stm32f7xx_hal_i2c.c ****     /* Init tickstart for timeout management*/
2015:../../Drivers/STM32F7xx_HAL_Driver/Src/stm32f7xx_hal_i2c.c ****     tickstart = HAL_GetTick();
 3878              		.loc 1 2015 0 is_stmt 1 discriminator 2
 3879 0066 FFF7FEFF 		bl	HAL_GetTick
 3880 006a 3861     		str	r0, [r7, #16]
2016:../../Drivers/STM32F7xx_HAL_Driver/Src/stm32f7xx_hal_i2c.c ****     
2017:../../Drivers/STM32F7xx_HAL_Driver/Src/stm32f7xx_hal_i2c.c ****     hi2c->State       = HAL_I2C_STATE_BUSY_TX;
 3881              		.loc 1 2017 0 discriminator 2
 3882 006c FB68     		ldr	r3, [r7, #12]
 3883 006e 2122     		movs	r2, #33
 3884 0070 83F84120 		strb	r2, [r3, #65]
2018:../../Drivers/STM32F7xx_HAL_Driver/Src/stm32f7xx_hal_i2c.c ****     hi2c->Mode        = HAL_I2C_MODE_MEM;
 3885              		.loc 1 2018 0 discriminator 2
 3886 0074 FB68     		ldr	r3, [r7, #12]
ARM GAS  /tmp/cczIhzQ0.s 			page 104


 3887 0076 4022     		movs	r2, #64
 3888 0078 83F84220 		strb	r2, [r3, #66]
2019:../../Drivers/STM32F7xx_HAL_Driver/Src/stm32f7xx_hal_i2c.c ****     hi2c->ErrorCode   = HAL_I2C_ERROR_NONE;
 3889              		.loc 1 2019 0 discriminator 2
 3890 007c FB68     		ldr	r3, [r7, #12]
 3891 007e 0022     		movs	r2, #0
 3892 0080 5A64     		str	r2, [r3, #68]
2020:../../Drivers/STM32F7xx_HAL_Driver/Src/stm32f7xx_hal_i2c.c ****     
2021:../../Drivers/STM32F7xx_HAL_Driver/Src/stm32f7xx_hal_i2c.c ****     /* Prepare transfer parameters */
2022:../../Drivers/STM32F7xx_HAL_Driver/Src/stm32f7xx_hal_i2c.c ****     hi2c->pBuffPtr    = pData;
 3893              		.loc 1 2022 0 discriminator 2
 3894 0082 FB68     		ldr	r3, [r7, #12]
 3895 0084 BA6A     		ldr	r2, [r7, #40]
 3896 0086 5A62     		str	r2, [r3, #36]
2023:../../Drivers/STM32F7xx_HAL_Driver/Src/stm32f7xx_hal_i2c.c ****     hi2c->XferCount   = Size;
 3897              		.loc 1 2023 0 discriminator 2
 3898 0088 FB68     		ldr	r3, [r7, #12]
 3899 008a BA8D     		ldrh	r2, [r7, #44]	@ movhi
 3900 008c 5A85     		strh	r2, [r3, #42]	@ movhi
2024:../../Drivers/STM32F7xx_HAL_Driver/Src/stm32f7xx_hal_i2c.c ****     hi2c->XferOptions = I2C_NO_OPTION_FRAME;
 3901              		.loc 1 2024 0 discriminator 2
 3902 008e FB68     		ldr	r3, [r7, #12]
 3903 0090 274A     		ldr	r2, .L198
 3904 0092 DA62     		str	r2, [r3, #44]
2025:../../Drivers/STM32F7xx_HAL_Driver/Src/stm32f7xx_hal_i2c.c ****     hi2c->XferISR     = I2C_Master_ISR_IT;
 3905              		.loc 1 2025 0 discriminator 2
 3906 0094 FB68     		ldr	r3, [r7, #12]
 3907 0096 274A     		ldr	r2, .L198+4
 3908 0098 5A63     		str	r2, [r3, #52]
2026:../../Drivers/STM32F7xx_HAL_Driver/Src/stm32f7xx_hal_i2c.c ****     
2027:../../Drivers/STM32F7xx_HAL_Driver/Src/stm32f7xx_hal_i2c.c ****     if(hi2c->XferCount > MAX_NBYTE_SIZE)
 3909              		.loc 1 2027 0 discriminator 2
 3910 009a FB68     		ldr	r3, [r7, #12]
 3911 009c 5B8D     		ldrh	r3, [r3, #42]	@ movhi
 3912 009e 9BB2     		uxth	r3, r3
 3913 00a0 FF2B     		cmp	r3, #255
 3914 00a2 06D9     		bls	.L194
2028:../../Drivers/STM32F7xx_HAL_Driver/Src/stm32f7xx_hal_i2c.c ****     {
2029:../../Drivers/STM32F7xx_HAL_Driver/Src/stm32f7xx_hal_i2c.c ****       hi2c->XferSize = MAX_NBYTE_SIZE;
 3915              		.loc 1 2029 0
 3916 00a4 FB68     		ldr	r3, [r7, #12]
 3917 00a6 FF22     		movs	r2, #255
 3918 00a8 1A85     		strh	r2, [r3, #40]	@ movhi
2030:../../Drivers/STM32F7xx_HAL_Driver/Src/stm32f7xx_hal_i2c.c ****       xfermode = I2C_RELOAD_MODE;
 3919              		.loc 1 2030 0
 3920 00aa 4FF08073 		mov	r3, #16777216
 3921 00ae 7B61     		str	r3, [r7, #20]
 3922 00b0 07E0     		b	.L195
 3923              	.L194:
2031:../../Drivers/STM32F7xx_HAL_Driver/Src/stm32f7xx_hal_i2c.c ****     }
2032:../../Drivers/STM32F7xx_HAL_Driver/Src/stm32f7xx_hal_i2c.c ****     else
2033:../../Drivers/STM32F7xx_HAL_Driver/Src/stm32f7xx_hal_i2c.c ****     {
2034:../../Drivers/STM32F7xx_HAL_Driver/Src/stm32f7xx_hal_i2c.c ****       hi2c->XferSize = hi2c->XferCount;
 3924              		.loc 1 2034 0
 3925 00b2 FB68     		ldr	r3, [r7, #12]
 3926 00b4 5B8D     		ldrh	r3, [r3, #42]	@ movhi
 3927 00b6 9AB2     		uxth	r2, r3
ARM GAS  /tmp/cczIhzQ0.s 			page 105


 3928 00b8 FB68     		ldr	r3, [r7, #12]
 3929 00ba 1A85     		strh	r2, [r3, #40]	@ movhi
2035:../../Drivers/STM32F7xx_HAL_Driver/Src/stm32f7xx_hal_i2c.c ****       xfermode = I2C_AUTOEND_MODE;
 3930              		.loc 1 2035 0
 3931 00bc 4FF00073 		mov	r3, #33554432
 3932 00c0 7B61     		str	r3, [r7, #20]
 3933              	.L195:
2036:../../Drivers/STM32F7xx_HAL_Driver/Src/stm32f7xx_hal_i2c.c ****     }
2037:../../Drivers/STM32F7xx_HAL_Driver/Src/stm32f7xx_hal_i2c.c ****     
2038:../../Drivers/STM32F7xx_HAL_Driver/Src/stm32f7xx_hal_i2c.c ****     /* Send Slave Address and Memory Address */
2039:../../Drivers/STM32F7xx_HAL_Driver/Src/stm32f7xx_hal_i2c.c ****     if(I2C_RequestMemoryWrite(hi2c, DevAddress, MemAddress, MemAddSize, I2C_TIMEOUT_FLAG, tickstart
 3934              		.loc 1 2039 0
 3935 00c2 7989     		ldrh	r1, [r7, #10]
 3936 00c4 3A89     		ldrh	r2, [r7, #8]
 3937 00c6 FC88     		ldrh	r4, [r7, #6]
 3938 00c8 1923     		movs	r3, #25
 3939 00ca 0093     		str	r3, [sp]
 3940 00cc 3B69     		ldr	r3, [r7, #16]
 3941 00ce 0193     		str	r3, [sp, #4]
 3942 00d0 F868     		ldr	r0, [r7, #12]
 3943 00d2 2346     		mov	r3, r4
 3944 00d4 FFF7FEFF 		bl	I2C_RequestMemoryWrite
 3945 00d8 0346     		mov	r3, r0
 3946 00da 002B     		cmp	r3, #0
 3947 00dc 0FD0     		beq	.L196
2040:../../Drivers/STM32F7xx_HAL_Driver/Src/stm32f7xx_hal_i2c.c ****     {
2041:../../Drivers/STM32F7xx_HAL_Driver/Src/stm32f7xx_hal_i2c.c ****       if(hi2c->ErrorCode == HAL_I2C_ERROR_AF)
 3948              		.loc 1 2041 0
 3949 00de FB68     		ldr	r3, [r7, #12]
 3950 00e0 5B6C     		ldr	r3, [r3, #68]
 3951 00e2 042B     		cmp	r3, #4
 3952 00e4 05D1     		bne	.L197
2042:../../Drivers/STM32F7xx_HAL_Driver/Src/stm32f7xx_hal_i2c.c ****       {
2043:../../Drivers/STM32F7xx_HAL_Driver/Src/stm32f7xx_hal_i2c.c ****         /* Process Unlocked */
2044:../../Drivers/STM32F7xx_HAL_Driver/Src/stm32f7xx_hal_i2c.c ****         __HAL_UNLOCK(hi2c);
 3953              		.loc 1 2044 0
 3954 00e6 FB68     		ldr	r3, [r7, #12]
 3955 00e8 0022     		movs	r2, #0
 3956 00ea 83F84020 		strb	r2, [r3, #64]
2045:../../Drivers/STM32F7xx_HAL_Driver/Src/stm32f7xx_hal_i2c.c ****         return HAL_ERROR;
 3957              		.loc 1 2045 0
 3958 00ee 0123     		movs	r3, #1
 3959 00f0 1AE0     		b	.L191
 3960              	.L197:
2046:../../Drivers/STM32F7xx_HAL_Driver/Src/stm32f7xx_hal_i2c.c ****       }
2047:../../Drivers/STM32F7xx_HAL_Driver/Src/stm32f7xx_hal_i2c.c ****       else
2048:../../Drivers/STM32F7xx_HAL_Driver/Src/stm32f7xx_hal_i2c.c ****       {
2049:../../Drivers/STM32F7xx_HAL_Driver/Src/stm32f7xx_hal_i2c.c ****         /* Process Unlocked */
2050:../../Drivers/STM32F7xx_HAL_Driver/Src/stm32f7xx_hal_i2c.c ****         __HAL_UNLOCK(hi2c);
 3961              		.loc 1 2050 0
 3962 00f2 FB68     		ldr	r3, [r7, #12]
 3963 00f4 0022     		movs	r2, #0
 3964 00f6 83F84020 		strb	r2, [r3, #64]
2051:../../Drivers/STM32F7xx_HAL_Driver/Src/stm32f7xx_hal_i2c.c ****         return HAL_TIMEOUT;
 3965              		.loc 1 2051 0
 3966 00fa 0323     		movs	r3, #3
 3967 00fc 14E0     		b	.L191
ARM GAS  /tmp/cczIhzQ0.s 			page 106


 3968              	.L196:
2052:../../Drivers/STM32F7xx_HAL_Driver/Src/stm32f7xx_hal_i2c.c ****       }
2053:../../Drivers/STM32F7xx_HAL_Driver/Src/stm32f7xx_hal_i2c.c ****     }
2054:../../Drivers/STM32F7xx_HAL_Driver/Src/stm32f7xx_hal_i2c.c ****     
2055:../../Drivers/STM32F7xx_HAL_Driver/Src/stm32f7xx_hal_i2c.c ****     /* Set NBYTES to write and reload if hi2c->XferCount > MAX_NBYTE_SIZE and generate RESTART */
2056:../../Drivers/STM32F7xx_HAL_Driver/Src/stm32f7xx_hal_i2c.c ****     I2C_TransferConfig(hi2c,DevAddress, hi2c->XferSize, xfermode, I2C_NO_STARTSTOP);
 3969              		.loc 1 2056 0
 3970 00fe FB68     		ldr	r3, [r7, #12]
 3971 0100 1B8D     		ldrh	r3, [r3, #40]
 3972 0102 DAB2     		uxtb	r2, r3
 3973 0104 7989     		ldrh	r1, [r7, #10]
 3974 0106 0023     		movs	r3, #0
 3975 0108 0093     		str	r3, [sp]
 3976 010a F868     		ldr	r0, [r7, #12]
 3977 010c 7B69     		ldr	r3, [r7, #20]
 3978 010e FFF7FEFF 		bl	I2C_TransferConfig
2057:../../Drivers/STM32F7xx_HAL_Driver/Src/stm32f7xx_hal_i2c.c ****     
2058:../../Drivers/STM32F7xx_HAL_Driver/Src/stm32f7xx_hal_i2c.c ****     /* Process Unlocked */
2059:../../Drivers/STM32F7xx_HAL_Driver/Src/stm32f7xx_hal_i2c.c ****     __HAL_UNLOCK(hi2c); 
 3979              		.loc 1 2059 0
 3980 0112 FB68     		ldr	r3, [r7, #12]
 3981 0114 0022     		movs	r2, #0
 3982 0116 83F84020 		strb	r2, [r3, #64]
2060:../../Drivers/STM32F7xx_HAL_Driver/Src/stm32f7xx_hal_i2c.c ****     
2061:../../Drivers/STM32F7xx_HAL_Driver/Src/stm32f7xx_hal_i2c.c ****     /* Note : The I2C interrupts must be enabled after unlocking current process 
2062:../../Drivers/STM32F7xx_HAL_Driver/Src/stm32f7xx_hal_i2c.c ****               to avoid the risk of I2C interrupt handle execution before current
2063:../../Drivers/STM32F7xx_HAL_Driver/Src/stm32f7xx_hal_i2c.c ****               process unlock */
2064:../../Drivers/STM32F7xx_HAL_Driver/Src/stm32f7xx_hal_i2c.c ****     
2065:../../Drivers/STM32F7xx_HAL_Driver/Src/stm32f7xx_hal_i2c.c ****     /* Enable ERR, TC, STOP, NACK, TXI interrupt */
2066:../../Drivers/STM32F7xx_HAL_Driver/Src/stm32f7xx_hal_i2c.c ****     /* possible to enable all of these */
2067:../../Drivers/STM32F7xx_HAL_Driver/Src/stm32f7xx_hal_i2c.c ****     /* I2C_IT_ERRI | I2C_IT_TCI| I2C_IT_STOPI| I2C_IT_NACKI | I2C_IT_ADDRI | I2C_IT_RXI | I2C_IT_TX
2068:../../Drivers/STM32F7xx_HAL_Driver/Src/stm32f7xx_hal_i2c.c ****     I2C_Enable_IRQ(hi2c, I2C_XFER_TX_IT);
 3983              		.loc 1 2068 0
 3984 011a F868     		ldr	r0, [r7, #12]
 3985 011c 0121     		movs	r1, #1
 3986 011e FFF7FEFF 		bl	I2C_Enable_IRQ
2069:../../Drivers/STM32F7xx_HAL_Driver/Src/stm32f7xx_hal_i2c.c ****     
2070:../../Drivers/STM32F7xx_HAL_Driver/Src/stm32f7xx_hal_i2c.c ****     return HAL_OK;
 3987              		.loc 1 2070 0
 3988 0122 0023     		movs	r3, #0
 3989 0124 00E0     		b	.L191
 3990              	.L188:
2071:../../Drivers/STM32F7xx_HAL_Driver/Src/stm32f7xx_hal_i2c.c ****   }
2072:../../Drivers/STM32F7xx_HAL_Driver/Src/stm32f7xx_hal_i2c.c ****   else
2073:../../Drivers/STM32F7xx_HAL_Driver/Src/stm32f7xx_hal_i2c.c ****   {
2074:../../Drivers/STM32F7xx_HAL_Driver/Src/stm32f7xx_hal_i2c.c ****     return HAL_BUSY;
 3991              		.loc 1 2074 0
 3992 0126 0223     		movs	r3, #2
 3993              	.L191:
2075:../../Drivers/STM32F7xx_HAL_Driver/Src/stm32f7xx_hal_i2c.c ****   }
2076:../../Drivers/STM32F7xx_HAL_Driver/Src/stm32f7xx_hal_i2c.c **** }
 3994              		.loc 1 2076 0
 3995 0128 1846     		mov	r0, r3
 3996 012a 1C37     		adds	r7, r7, #28
 3997              	.LCFI95:
 3998              		.cfi_def_cfa_offset 12
 3999 012c BD46     		mov	sp, r7
ARM GAS  /tmp/cczIhzQ0.s 			page 107


 4000              	.LCFI96:
 4001              		.cfi_def_cfa_register 13
 4002              		@ sp needed
 4003 012e 90BD     		pop	{r4, r7, pc}
 4004              	.L199:
 4005              		.align	2
 4006              	.L198:
 4007 0130 0000FFFF 		.word	-65536
 4008 0134 00000000 		.word	I2C_Master_ISR_IT
 4009              		.cfi_endproc
 4010              	.LFE153:
 4012              		.section	.text.HAL_I2C_Mem_Read_IT,"ax",%progbits
 4013              		.align	2
 4014              		.global	HAL_I2C_Mem_Read_IT
 4015              		.thumb
 4016              		.thumb_func
 4018              	HAL_I2C_Mem_Read_IT:
 4019              	.LFB154:
2077:../../Drivers/STM32F7xx_HAL_Driver/Src/stm32f7xx_hal_i2c.c **** 
2078:../../Drivers/STM32F7xx_HAL_Driver/Src/stm32f7xx_hal_i2c.c **** /**
2079:../../Drivers/STM32F7xx_HAL_Driver/Src/stm32f7xx_hal_i2c.c ****   * @brief  Read an amount of data in non-blocking mode with Interrupt from a specific memory addre
2080:../../Drivers/STM32F7xx_HAL_Driver/Src/stm32f7xx_hal_i2c.c ****   * @param  hi2c: Pointer to a I2C_HandleTypeDef structure that contains
2081:../../Drivers/STM32F7xx_HAL_Driver/Src/stm32f7xx_hal_i2c.c ****   *               the configuration information for the specified I2C.
2082:../../Drivers/STM32F7xx_HAL_Driver/Src/stm32f7xx_hal_i2c.c ****   * @param  DevAddress: Target device address
2083:../../Drivers/STM32F7xx_HAL_Driver/Src/stm32f7xx_hal_i2c.c ****   * @param  MemAddress: Internal memory address
2084:../../Drivers/STM32F7xx_HAL_Driver/Src/stm32f7xx_hal_i2c.c ****   * @param  MemAddSize: Size of internal memory address
2085:../../Drivers/STM32F7xx_HAL_Driver/Src/stm32f7xx_hal_i2c.c ****   * @param  pData: Pointer to data buffer
2086:../../Drivers/STM32F7xx_HAL_Driver/Src/stm32f7xx_hal_i2c.c ****   * @param  Size: Amount of data to be sent
2087:../../Drivers/STM32F7xx_HAL_Driver/Src/stm32f7xx_hal_i2c.c ****   * @retval HAL status
2088:../../Drivers/STM32F7xx_HAL_Driver/Src/stm32f7xx_hal_i2c.c ****   */
2089:../../Drivers/STM32F7xx_HAL_Driver/Src/stm32f7xx_hal_i2c.c **** HAL_StatusTypeDef HAL_I2C_Mem_Read_IT(I2C_HandleTypeDef *hi2c, uint16_t DevAddress, uint16_t MemAdd
2090:../../Drivers/STM32F7xx_HAL_Driver/Src/stm32f7xx_hal_i2c.c **** {
 4020              		.loc 1 2090 0
 4021              		.cfi_startproc
 4022              		@ args = 8, pretend = 0, frame = 24
 4023              		@ frame_needed = 1, uses_anonymous_args = 0
 4024 0000 90B5     		push	{r4, r7, lr}
 4025              	.LCFI97:
 4026              		.cfi_def_cfa_offset 12
 4027              		.cfi_offset 4, -12
 4028              		.cfi_offset 7, -8
 4029              		.cfi_offset 14, -4
 4030 0002 89B0     		sub	sp, sp, #36
 4031              	.LCFI98:
 4032              		.cfi_def_cfa_offset 48
 4033 0004 02AF     		add	r7, sp, #8
 4034              	.LCFI99:
 4035              		.cfi_def_cfa 7, 40
 4036 0006 F860     		str	r0, [r7, #12]
 4037 0008 0846     		mov	r0, r1
 4038 000a 1146     		mov	r1, r2
 4039 000c 1A46     		mov	r2, r3
 4040 000e 0346     		mov	r3, r0	@ movhi
 4041 0010 7B81     		strh	r3, [r7, #10]	@ movhi
 4042 0012 0B46     		mov	r3, r1	@ movhi
 4043 0014 3B81     		strh	r3, [r7, #8]	@ movhi
 4044 0016 1346     		mov	r3, r2	@ movhi
ARM GAS  /tmp/cczIhzQ0.s 			page 108


 4045 0018 FB80     		strh	r3, [r7, #6]	@ movhi
2091:../../Drivers/STM32F7xx_HAL_Driver/Src/stm32f7xx_hal_i2c.c ****   uint32_t tickstart = 0;
 4046              		.loc 1 2091 0
 4047 001a 0023     		movs	r3, #0
 4048 001c 3B61     		str	r3, [r7, #16]
2092:../../Drivers/STM32F7xx_HAL_Driver/Src/stm32f7xx_hal_i2c.c ****   uint32_t xfermode = 0;
 4049              		.loc 1 2092 0
 4050 001e 0023     		movs	r3, #0
 4051 0020 7B61     		str	r3, [r7, #20]
2093:../../Drivers/STM32F7xx_HAL_Driver/Src/stm32f7xx_hal_i2c.c ****   
2094:../../Drivers/STM32F7xx_HAL_Driver/Src/stm32f7xx_hal_i2c.c ****   /* Check the parameters */
2095:../../Drivers/STM32F7xx_HAL_Driver/Src/stm32f7xx_hal_i2c.c ****   assert_param(IS_I2C_MEMADD_SIZE(MemAddSize));
2096:../../Drivers/STM32F7xx_HAL_Driver/Src/stm32f7xx_hal_i2c.c ****   
2097:../../Drivers/STM32F7xx_HAL_Driver/Src/stm32f7xx_hal_i2c.c ****   if(hi2c->State == HAL_I2C_STATE_READY)
 4052              		.loc 1 2097 0
 4053 0022 FB68     		ldr	r3, [r7, #12]
 4054 0024 93F84130 		ldrb	r3, [r3, #65]
 4055 0028 DBB2     		uxtb	r3, r3
 4056 002a 202B     		cmp	r3, #32
 4057 002c 7CD1     		bne	.L201
2098:../../Drivers/STM32F7xx_HAL_Driver/Src/stm32f7xx_hal_i2c.c ****   {
2099:../../Drivers/STM32F7xx_HAL_Driver/Src/stm32f7xx_hal_i2c.c ****     if((pData == NULL) || (Size == 0))
 4058              		.loc 1 2099 0
 4059 002e BB6A     		ldr	r3, [r7, #40]
 4060 0030 002B     		cmp	r3, #0
 4061 0032 02D0     		beq	.L202
 4062              		.loc 1 2099 0 is_stmt 0 discriminator 1
 4063 0034 BB8D     		ldrh	r3, [r7, #44]
 4064 0036 002B     		cmp	r3, #0
 4065 0038 01D1     		bne	.L203
 4066              	.L202:
2100:../../Drivers/STM32F7xx_HAL_Driver/Src/stm32f7xx_hal_i2c.c ****     {
2101:../../Drivers/STM32F7xx_HAL_Driver/Src/stm32f7xx_hal_i2c.c ****       return  HAL_ERROR;
 4067              		.loc 1 2101 0 is_stmt 1
 4068 003a 0123     		movs	r3, #1
 4069 003c 75E0     		b	.L204
 4070              	.L203:
2102:../../Drivers/STM32F7xx_HAL_Driver/Src/stm32f7xx_hal_i2c.c ****     }
2103:../../Drivers/STM32F7xx_HAL_Driver/Src/stm32f7xx_hal_i2c.c ****     
2104:../../Drivers/STM32F7xx_HAL_Driver/Src/stm32f7xx_hal_i2c.c ****     if(__HAL_I2C_GET_FLAG(hi2c, I2C_FLAG_BUSY) == SET)
 4071              		.loc 1 2104 0
 4072 003e FB68     		ldr	r3, [r7, #12]
 4073 0040 1B68     		ldr	r3, [r3]
 4074 0042 9B69     		ldr	r3, [r3, #24]
 4075 0044 03F40043 		and	r3, r3, #32768
 4076 0048 002B     		cmp	r3, #0
 4077 004a 01D0     		beq	.L205
2105:../../Drivers/STM32F7xx_HAL_Driver/Src/stm32f7xx_hal_i2c.c ****     {
2106:../../Drivers/STM32F7xx_HAL_Driver/Src/stm32f7xx_hal_i2c.c ****       return HAL_BUSY;
 4078              		.loc 1 2106 0
 4079 004c 0223     		movs	r3, #2
 4080 004e 6CE0     		b	.L204
 4081              	.L205:
2107:../../Drivers/STM32F7xx_HAL_Driver/Src/stm32f7xx_hal_i2c.c ****     }
2108:../../Drivers/STM32F7xx_HAL_Driver/Src/stm32f7xx_hal_i2c.c ****     
2109:../../Drivers/STM32F7xx_HAL_Driver/Src/stm32f7xx_hal_i2c.c ****     /* Process Locked */
2110:../../Drivers/STM32F7xx_HAL_Driver/Src/stm32f7xx_hal_i2c.c ****     __HAL_LOCK(hi2c);
ARM GAS  /tmp/cczIhzQ0.s 			page 109


 4082              		.loc 1 2110 0
 4083 0050 FB68     		ldr	r3, [r7, #12]
 4084 0052 93F84030 		ldrb	r3, [r3, #64]	@ zero_extendqisi2
 4085 0056 012B     		cmp	r3, #1
 4086 0058 01D1     		bne	.L206
 4087              		.loc 1 2110 0 is_stmt 0 discriminator 1
 4088 005a 0223     		movs	r3, #2
 4089 005c 65E0     		b	.L204
 4090              	.L206:
 4091              		.loc 1 2110 0 discriminator 2
 4092 005e FB68     		ldr	r3, [r7, #12]
 4093 0060 0122     		movs	r2, #1
 4094 0062 83F84020 		strb	r2, [r3, #64]
2111:../../Drivers/STM32F7xx_HAL_Driver/Src/stm32f7xx_hal_i2c.c ****     
2112:../../Drivers/STM32F7xx_HAL_Driver/Src/stm32f7xx_hal_i2c.c ****     /* Init tickstart for timeout management*/
2113:../../Drivers/STM32F7xx_HAL_Driver/Src/stm32f7xx_hal_i2c.c ****     tickstart = HAL_GetTick();
 4095              		.loc 1 2113 0 is_stmt 1 discriminator 2
 4096 0066 FFF7FEFF 		bl	HAL_GetTick
 4097 006a 3861     		str	r0, [r7, #16]
2114:../../Drivers/STM32F7xx_HAL_Driver/Src/stm32f7xx_hal_i2c.c ****     
2115:../../Drivers/STM32F7xx_HAL_Driver/Src/stm32f7xx_hal_i2c.c ****     hi2c->State       = HAL_I2C_STATE_BUSY_RX;
 4098              		.loc 1 2115 0 discriminator 2
 4099 006c FB68     		ldr	r3, [r7, #12]
 4100 006e 2222     		movs	r2, #34
 4101 0070 83F84120 		strb	r2, [r3, #65]
2116:../../Drivers/STM32F7xx_HAL_Driver/Src/stm32f7xx_hal_i2c.c ****     hi2c->Mode        = HAL_I2C_MODE_MEM;
 4102              		.loc 1 2116 0 discriminator 2
 4103 0074 FB68     		ldr	r3, [r7, #12]
 4104 0076 4022     		movs	r2, #64
 4105 0078 83F84220 		strb	r2, [r3, #66]
2117:../../Drivers/STM32F7xx_HAL_Driver/Src/stm32f7xx_hal_i2c.c ****     hi2c->ErrorCode   = HAL_I2C_ERROR_NONE;
 4106              		.loc 1 2117 0 discriminator 2
 4107 007c FB68     		ldr	r3, [r7, #12]
 4108 007e 0022     		movs	r2, #0
 4109 0080 5A64     		str	r2, [r3, #68]
2118:../../Drivers/STM32F7xx_HAL_Driver/Src/stm32f7xx_hal_i2c.c ****     
2119:../../Drivers/STM32F7xx_HAL_Driver/Src/stm32f7xx_hal_i2c.c ****     /* Prepare transfer parameters */
2120:../../Drivers/STM32F7xx_HAL_Driver/Src/stm32f7xx_hal_i2c.c ****     hi2c->pBuffPtr    = pData;
 4110              		.loc 1 2120 0 discriminator 2
 4111 0082 FB68     		ldr	r3, [r7, #12]
 4112 0084 BA6A     		ldr	r2, [r7, #40]
 4113 0086 5A62     		str	r2, [r3, #36]
2121:../../Drivers/STM32F7xx_HAL_Driver/Src/stm32f7xx_hal_i2c.c ****     hi2c->XferCount   = Size;
 4114              		.loc 1 2121 0 discriminator 2
 4115 0088 FB68     		ldr	r3, [r7, #12]
 4116 008a BA8D     		ldrh	r2, [r7, #44]	@ movhi
 4117 008c 5A85     		strh	r2, [r3, #42]	@ movhi
2122:../../Drivers/STM32F7xx_HAL_Driver/Src/stm32f7xx_hal_i2c.c ****     hi2c->XferOptions = I2C_NO_OPTION_FRAME;
 4118              		.loc 1 2122 0 discriminator 2
 4119 008e FB68     		ldr	r3, [r7, #12]
 4120 0090 284A     		ldr	r2, .L211
 4121 0092 DA62     		str	r2, [r3, #44]
2123:../../Drivers/STM32F7xx_HAL_Driver/Src/stm32f7xx_hal_i2c.c ****     hi2c->XferISR     = I2C_Master_ISR_IT;
 4122              		.loc 1 2123 0 discriminator 2
 4123 0094 FB68     		ldr	r3, [r7, #12]
 4124 0096 284A     		ldr	r2, .L211+4
 4125 0098 5A63     		str	r2, [r3, #52]
ARM GAS  /tmp/cczIhzQ0.s 			page 110


2124:../../Drivers/STM32F7xx_HAL_Driver/Src/stm32f7xx_hal_i2c.c ****     
2125:../../Drivers/STM32F7xx_HAL_Driver/Src/stm32f7xx_hal_i2c.c ****     if(hi2c->XferCount > MAX_NBYTE_SIZE)
 4126              		.loc 1 2125 0 discriminator 2
 4127 009a FB68     		ldr	r3, [r7, #12]
 4128 009c 5B8D     		ldrh	r3, [r3, #42]	@ movhi
 4129 009e 9BB2     		uxth	r3, r3
 4130 00a0 FF2B     		cmp	r3, #255
 4131 00a2 06D9     		bls	.L207
2126:../../Drivers/STM32F7xx_HAL_Driver/Src/stm32f7xx_hal_i2c.c ****     {
2127:../../Drivers/STM32F7xx_HAL_Driver/Src/stm32f7xx_hal_i2c.c ****       hi2c->XferSize = MAX_NBYTE_SIZE;
 4132              		.loc 1 2127 0
 4133 00a4 FB68     		ldr	r3, [r7, #12]
 4134 00a6 FF22     		movs	r2, #255
 4135 00a8 1A85     		strh	r2, [r3, #40]	@ movhi
2128:../../Drivers/STM32F7xx_HAL_Driver/Src/stm32f7xx_hal_i2c.c ****       xfermode = I2C_RELOAD_MODE;
 4136              		.loc 1 2128 0
 4137 00aa 4FF08073 		mov	r3, #16777216
 4138 00ae 7B61     		str	r3, [r7, #20]
 4139 00b0 07E0     		b	.L208
 4140              	.L207:
2129:../../Drivers/STM32F7xx_HAL_Driver/Src/stm32f7xx_hal_i2c.c ****     }
2130:../../Drivers/STM32F7xx_HAL_Driver/Src/stm32f7xx_hal_i2c.c ****     else
2131:../../Drivers/STM32F7xx_HAL_Driver/Src/stm32f7xx_hal_i2c.c ****     {
2132:../../Drivers/STM32F7xx_HAL_Driver/Src/stm32f7xx_hal_i2c.c ****       hi2c->XferSize = hi2c->XferCount;
 4141              		.loc 1 2132 0
 4142 00b2 FB68     		ldr	r3, [r7, #12]
 4143 00b4 5B8D     		ldrh	r3, [r3, #42]	@ movhi
 4144 00b6 9AB2     		uxth	r2, r3
 4145 00b8 FB68     		ldr	r3, [r7, #12]
 4146 00ba 1A85     		strh	r2, [r3, #40]	@ movhi
2133:../../Drivers/STM32F7xx_HAL_Driver/Src/stm32f7xx_hal_i2c.c ****       xfermode = I2C_AUTOEND_MODE;
 4147              		.loc 1 2133 0
 4148 00bc 4FF00073 		mov	r3, #33554432
 4149 00c0 7B61     		str	r3, [r7, #20]
 4150              	.L208:
2134:../../Drivers/STM32F7xx_HAL_Driver/Src/stm32f7xx_hal_i2c.c ****     }
2135:../../Drivers/STM32F7xx_HAL_Driver/Src/stm32f7xx_hal_i2c.c ****     
2136:../../Drivers/STM32F7xx_HAL_Driver/Src/stm32f7xx_hal_i2c.c ****     /* Send Slave Address and Memory Address */
2137:../../Drivers/STM32F7xx_HAL_Driver/Src/stm32f7xx_hal_i2c.c ****     if(I2C_RequestMemoryRead(hi2c, DevAddress, MemAddress, MemAddSize, I2C_TIMEOUT_FLAG, tickstart)
 4151              		.loc 1 2137 0
 4152 00c2 7989     		ldrh	r1, [r7, #10]
 4153 00c4 3A89     		ldrh	r2, [r7, #8]
 4154 00c6 FC88     		ldrh	r4, [r7, #6]
 4155 00c8 1923     		movs	r3, #25
 4156 00ca 0093     		str	r3, [sp]
 4157 00cc 3B69     		ldr	r3, [r7, #16]
 4158 00ce 0193     		str	r3, [sp, #4]
 4159 00d0 F868     		ldr	r0, [r7, #12]
 4160 00d2 2346     		mov	r3, r4
 4161 00d4 FFF7FEFF 		bl	I2C_RequestMemoryRead
 4162 00d8 0346     		mov	r3, r0
 4163 00da 002B     		cmp	r3, #0
 4164 00dc 0FD0     		beq	.L209
2138:../../Drivers/STM32F7xx_HAL_Driver/Src/stm32f7xx_hal_i2c.c ****     {
2139:../../Drivers/STM32F7xx_HAL_Driver/Src/stm32f7xx_hal_i2c.c ****       if(hi2c->ErrorCode == HAL_I2C_ERROR_AF)
 4165              		.loc 1 2139 0
 4166 00de FB68     		ldr	r3, [r7, #12]
ARM GAS  /tmp/cczIhzQ0.s 			page 111


 4167 00e0 5B6C     		ldr	r3, [r3, #68]
 4168 00e2 042B     		cmp	r3, #4
 4169 00e4 05D1     		bne	.L210
2140:../../Drivers/STM32F7xx_HAL_Driver/Src/stm32f7xx_hal_i2c.c ****       {
2141:../../Drivers/STM32F7xx_HAL_Driver/Src/stm32f7xx_hal_i2c.c ****         /* Process Unlocked */
2142:../../Drivers/STM32F7xx_HAL_Driver/Src/stm32f7xx_hal_i2c.c ****         __HAL_UNLOCK(hi2c);
 4170              		.loc 1 2142 0
 4171 00e6 FB68     		ldr	r3, [r7, #12]
 4172 00e8 0022     		movs	r2, #0
 4173 00ea 83F84020 		strb	r2, [r3, #64]
2143:../../Drivers/STM32F7xx_HAL_Driver/Src/stm32f7xx_hal_i2c.c ****         return HAL_ERROR;
 4174              		.loc 1 2143 0
 4175 00ee 0123     		movs	r3, #1
 4176 00f0 1BE0     		b	.L204
 4177              	.L210:
2144:../../Drivers/STM32F7xx_HAL_Driver/Src/stm32f7xx_hal_i2c.c ****       }
2145:../../Drivers/STM32F7xx_HAL_Driver/Src/stm32f7xx_hal_i2c.c ****       else
2146:../../Drivers/STM32F7xx_HAL_Driver/Src/stm32f7xx_hal_i2c.c ****       {
2147:../../Drivers/STM32F7xx_HAL_Driver/Src/stm32f7xx_hal_i2c.c ****         /* Process Unlocked */
2148:../../Drivers/STM32F7xx_HAL_Driver/Src/stm32f7xx_hal_i2c.c ****         __HAL_UNLOCK(hi2c);
 4178              		.loc 1 2148 0
 4179 00f2 FB68     		ldr	r3, [r7, #12]
 4180 00f4 0022     		movs	r2, #0
 4181 00f6 83F84020 		strb	r2, [r3, #64]
2149:../../Drivers/STM32F7xx_HAL_Driver/Src/stm32f7xx_hal_i2c.c ****         return HAL_TIMEOUT;
 4182              		.loc 1 2149 0
 4183 00fa 0323     		movs	r3, #3
 4184 00fc 15E0     		b	.L204
 4185              	.L209:
2150:../../Drivers/STM32F7xx_HAL_Driver/Src/stm32f7xx_hal_i2c.c ****       }
2151:../../Drivers/STM32F7xx_HAL_Driver/Src/stm32f7xx_hal_i2c.c ****     }
2152:../../Drivers/STM32F7xx_HAL_Driver/Src/stm32f7xx_hal_i2c.c ****     
2153:../../Drivers/STM32F7xx_HAL_Driver/Src/stm32f7xx_hal_i2c.c ****     /* Set NBYTES to write and reload if hi2c->XferCount > MAX_NBYTE_SIZE and generate RESTART */
2154:../../Drivers/STM32F7xx_HAL_Driver/Src/stm32f7xx_hal_i2c.c ****     I2C_TransferConfig(hi2c,DevAddress,hi2c->XferSize, xfermode, I2C_GENERATE_START_READ);
 4186              		.loc 1 2154 0
 4187 00fe FB68     		ldr	r3, [r7, #12]
 4188 0100 1B8D     		ldrh	r3, [r3, #40]
 4189 0102 DAB2     		uxtb	r2, r3
 4190 0104 7989     		ldrh	r1, [r7, #10]
 4191 0106 4FF41053 		mov	r3, #9216
 4192 010a 0093     		str	r3, [sp]
 4193 010c F868     		ldr	r0, [r7, #12]
 4194 010e 7B69     		ldr	r3, [r7, #20]
 4195 0110 FFF7FEFF 		bl	I2C_TransferConfig
2155:../../Drivers/STM32F7xx_HAL_Driver/Src/stm32f7xx_hal_i2c.c ****     
2156:../../Drivers/STM32F7xx_HAL_Driver/Src/stm32f7xx_hal_i2c.c ****     /* Process Unlocked */
2157:../../Drivers/STM32F7xx_HAL_Driver/Src/stm32f7xx_hal_i2c.c ****     __HAL_UNLOCK(hi2c);
 4196              		.loc 1 2157 0
 4197 0114 FB68     		ldr	r3, [r7, #12]
 4198 0116 0022     		movs	r2, #0
 4199 0118 83F84020 		strb	r2, [r3, #64]
2158:../../Drivers/STM32F7xx_HAL_Driver/Src/stm32f7xx_hal_i2c.c ****     
2159:../../Drivers/STM32F7xx_HAL_Driver/Src/stm32f7xx_hal_i2c.c ****     /* Note : The I2C interrupts must be enabled after unlocking current process
2160:../../Drivers/STM32F7xx_HAL_Driver/Src/stm32f7xx_hal_i2c.c ****               to avoid the risk of I2C interrupt handle execution before current
2161:../../Drivers/STM32F7xx_HAL_Driver/Src/stm32f7xx_hal_i2c.c ****               process unlock */
2162:../../Drivers/STM32F7xx_HAL_Driver/Src/stm32f7xx_hal_i2c.c ****     
2163:../../Drivers/STM32F7xx_HAL_Driver/Src/stm32f7xx_hal_i2c.c ****     /* Enable ERR, TC, STOP, NACK, RXI interrupt */
ARM GAS  /tmp/cczIhzQ0.s 			page 112


2164:../../Drivers/STM32F7xx_HAL_Driver/Src/stm32f7xx_hal_i2c.c ****     /* possible to enable all of these */
2165:../../Drivers/STM32F7xx_HAL_Driver/Src/stm32f7xx_hal_i2c.c ****     /* I2C_IT_ERRI | I2C_IT_TCI| I2C_IT_STOPI| I2C_IT_NACKI | I2C_IT_ADDRI | I2C_IT_RXI | I2C_IT_TX
2166:../../Drivers/STM32F7xx_HAL_Driver/Src/stm32f7xx_hal_i2c.c ****     I2C_Enable_IRQ(hi2c, I2C_XFER_RX_IT);
 4200              		.loc 1 2166 0
 4201 011c F868     		ldr	r0, [r7, #12]
 4202 011e 0221     		movs	r1, #2
 4203 0120 FFF7FEFF 		bl	I2C_Enable_IRQ
2167:../../Drivers/STM32F7xx_HAL_Driver/Src/stm32f7xx_hal_i2c.c ****     
2168:../../Drivers/STM32F7xx_HAL_Driver/Src/stm32f7xx_hal_i2c.c ****     return HAL_OK;
 4204              		.loc 1 2168 0
 4205 0124 0023     		movs	r3, #0
 4206 0126 00E0     		b	.L204
 4207              	.L201:
2169:../../Drivers/STM32F7xx_HAL_Driver/Src/stm32f7xx_hal_i2c.c ****   }
2170:../../Drivers/STM32F7xx_HAL_Driver/Src/stm32f7xx_hal_i2c.c ****   else
2171:../../Drivers/STM32F7xx_HAL_Driver/Src/stm32f7xx_hal_i2c.c ****   {
2172:../../Drivers/STM32F7xx_HAL_Driver/Src/stm32f7xx_hal_i2c.c ****     return HAL_BUSY;
 4208              		.loc 1 2172 0
 4209 0128 0223     		movs	r3, #2
 4210              	.L204:
2173:../../Drivers/STM32F7xx_HAL_Driver/Src/stm32f7xx_hal_i2c.c ****   }   
2174:../../Drivers/STM32F7xx_HAL_Driver/Src/stm32f7xx_hal_i2c.c **** }
 4211              		.loc 1 2174 0
 4212 012a 1846     		mov	r0, r3
 4213 012c 1C37     		adds	r7, r7, #28
 4214              	.LCFI100:
 4215              		.cfi_def_cfa_offset 12
 4216 012e BD46     		mov	sp, r7
 4217              	.LCFI101:
 4218              		.cfi_def_cfa_register 13
 4219              		@ sp needed
 4220 0130 90BD     		pop	{r4, r7, pc}
 4221              	.L212:
 4222 0132 00BF     		.align	2
 4223              	.L211:
 4224 0134 0000FFFF 		.word	-65536
 4225 0138 00000000 		.word	I2C_Master_ISR_IT
 4226              		.cfi_endproc
 4227              	.LFE154:
 4229              		.section	.text.HAL_I2C_Mem_Write_DMA,"ax",%progbits
 4230              		.align	2
 4231              		.global	HAL_I2C_Mem_Write_DMA
 4232              		.thumb
 4233              		.thumb_func
 4235              	HAL_I2C_Mem_Write_DMA:
 4236              	.LFB155:
2175:../../Drivers/STM32F7xx_HAL_Driver/Src/stm32f7xx_hal_i2c.c **** /**
2176:../../Drivers/STM32F7xx_HAL_Driver/Src/stm32f7xx_hal_i2c.c ****   * @brief  Write an amount of data in non-blocking mode with DMA to a specific memory address
2177:../../Drivers/STM32F7xx_HAL_Driver/Src/stm32f7xx_hal_i2c.c ****   * @param  hi2c: Pointer to a I2C_HandleTypeDef structure that contains
2178:../../Drivers/STM32F7xx_HAL_Driver/Src/stm32f7xx_hal_i2c.c ****   *               the configuration information for the specified I2C.
2179:../../Drivers/STM32F7xx_HAL_Driver/Src/stm32f7xx_hal_i2c.c ****   * @param  DevAddress: Target device address
2180:../../Drivers/STM32F7xx_HAL_Driver/Src/stm32f7xx_hal_i2c.c ****   * @param  MemAddress: Internal memory address
2181:../../Drivers/STM32F7xx_HAL_Driver/Src/stm32f7xx_hal_i2c.c ****   * @param  MemAddSize: Size of internal memory address
2182:../../Drivers/STM32F7xx_HAL_Driver/Src/stm32f7xx_hal_i2c.c ****   * @param  pData: Pointer to data buffer
2183:../../Drivers/STM32F7xx_HAL_Driver/Src/stm32f7xx_hal_i2c.c ****   * @param  Size: Amount of data to be sent
2184:../../Drivers/STM32F7xx_HAL_Driver/Src/stm32f7xx_hal_i2c.c ****   * @retval HAL status
2185:../../Drivers/STM32F7xx_HAL_Driver/Src/stm32f7xx_hal_i2c.c ****   */
ARM GAS  /tmp/cczIhzQ0.s 			page 113


2186:../../Drivers/STM32F7xx_HAL_Driver/Src/stm32f7xx_hal_i2c.c **** HAL_StatusTypeDef HAL_I2C_Mem_Write_DMA(I2C_HandleTypeDef *hi2c, uint16_t DevAddress, uint16_t MemA
2187:../../Drivers/STM32F7xx_HAL_Driver/Src/stm32f7xx_hal_i2c.c **** {
 4237              		.loc 1 2187 0
 4238              		.cfi_startproc
 4239              		@ args = 8, pretend = 0, frame = 24
 4240              		@ frame_needed = 1, uses_anonymous_args = 0
 4241 0000 90B5     		push	{r4, r7, lr}
 4242              	.LCFI102:
 4243              		.cfi_def_cfa_offset 12
 4244              		.cfi_offset 4, -12
 4245              		.cfi_offset 7, -8
 4246              		.cfi_offset 14, -4
 4247 0002 89B0     		sub	sp, sp, #36
 4248              	.LCFI103:
 4249              		.cfi_def_cfa_offset 48
 4250 0004 02AF     		add	r7, sp, #8
 4251              	.LCFI104:
 4252              		.cfi_def_cfa 7, 40
 4253 0006 F860     		str	r0, [r7, #12]
 4254 0008 0846     		mov	r0, r1
 4255 000a 1146     		mov	r1, r2
 4256 000c 1A46     		mov	r2, r3
 4257 000e 0346     		mov	r3, r0	@ movhi
 4258 0010 7B81     		strh	r3, [r7, #10]	@ movhi
 4259 0012 0B46     		mov	r3, r1	@ movhi
 4260 0014 3B81     		strh	r3, [r7, #8]	@ movhi
 4261 0016 1346     		mov	r3, r2	@ movhi
 4262 0018 FB80     		strh	r3, [r7, #6]	@ movhi
2188:../../Drivers/STM32F7xx_HAL_Driver/Src/stm32f7xx_hal_i2c.c ****   uint32_t tickstart = 0;
 4263              		.loc 1 2188 0
 4264 001a 0023     		movs	r3, #0
 4265 001c 3B61     		str	r3, [r7, #16]
2189:../../Drivers/STM32F7xx_HAL_Driver/Src/stm32f7xx_hal_i2c.c ****   uint32_t xfermode = 0;
 4266              		.loc 1 2189 0
 4267 001e 0023     		movs	r3, #0
 4268 0020 7B61     		str	r3, [r7, #20]
2190:../../Drivers/STM32F7xx_HAL_Driver/Src/stm32f7xx_hal_i2c.c ****   
2191:../../Drivers/STM32F7xx_HAL_Driver/Src/stm32f7xx_hal_i2c.c ****   /* Check the parameters */
2192:../../Drivers/STM32F7xx_HAL_Driver/Src/stm32f7xx_hal_i2c.c ****   assert_param(IS_I2C_MEMADD_SIZE(MemAddSize));
2193:../../Drivers/STM32F7xx_HAL_Driver/Src/stm32f7xx_hal_i2c.c ****   
2194:../../Drivers/STM32F7xx_HAL_Driver/Src/stm32f7xx_hal_i2c.c ****   if(hi2c->State == HAL_I2C_STATE_READY)
 4269              		.loc 1 2194 0
 4270 0022 FB68     		ldr	r3, [r7, #12]
 4271 0024 93F84130 		ldrb	r3, [r3, #65]
 4272 0028 DBB2     		uxtb	r3, r3
 4273 002a 202B     		cmp	r3, #32
 4274 002c 40F0AB80 		bne	.L214
2195:../../Drivers/STM32F7xx_HAL_Driver/Src/stm32f7xx_hal_i2c.c ****   {
2196:../../Drivers/STM32F7xx_HAL_Driver/Src/stm32f7xx_hal_i2c.c ****     if((pData == NULL) || (Size == 0))
 4275              		.loc 1 2196 0
 4276 0030 BB6A     		ldr	r3, [r7, #40]
 4277 0032 002B     		cmp	r3, #0
 4278 0034 02D0     		beq	.L215
 4279              		.loc 1 2196 0 is_stmt 0 discriminator 1
 4280 0036 BB8D     		ldrh	r3, [r7, #44]
 4281 0038 002B     		cmp	r3, #0
 4282 003a 01D1     		bne	.L216
ARM GAS  /tmp/cczIhzQ0.s 			page 114


 4283              	.L215:
2197:../../Drivers/STM32F7xx_HAL_Driver/Src/stm32f7xx_hal_i2c.c ****     {
2198:../../Drivers/STM32F7xx_HAL_Driver/Src/stm32f7xx_hal_i2c.c ****       return  HAL_ERROR;
 4284              		.loc 1 2198 0 is_stmt 1
 4285 003c 0123     		movs	r3, #1
 4286 003e A3E0     		b	.L217
 4287              	.L216:
2199:../../Drivers/STM32F7xx_HAL_Driver/Src/stm32f7xx_hal_i2c.c ****     }
2200:../../Drivers/STM32F7xx_HAL_Driver/Src/stm32f7xx_hal_i2c.c ****     
2201:../../Drivers/STM32F7xx_HAL_Driver/Src/stm32f7xx_hal_i2c.c ****     if(__HAL_I2C_GET_FLAG(hi2c, I2C_FLAG_BUSY) == SET)
 4288              		.loc 1 2201 0
 4289 0040 FB68     		ldr	r3, [r7, #12]
 4290 0042 1B68     		ldr	r3, [r3]
 4291 0044 9B69     		ldr	r3, [r3, #24]
 4292 0046 03F40043 		and	r3, r3, #32768
 4293 004a 002B     		cmp	r3, #0
 4294 004c 01D0     		beq	.L218
2202:../../Drivers/STM32F7xx_HAL_Driver/Src/stm32f7xx_hal_i2c.c ****     {
2203:../../Drivers/STM32F7xx_HAL_Driver/Src/stm32f7xx_hal_i2c.c ****       return HAL_BUSY;
 4295              		.loc 1 2203 0
 4296 004e 0223     		movs	r3, #2
 4297 0050 9AE0     		b	.L217
 4298              	.L218:
2204:../../Drivers/STM32F7xx_HAL_Driver/Src/stm32f7xx_hal_i2c.c ****     }
2205:../../Drivers/STM32F7xx_HAL_Driver/Src/stm32f7xx_hal_i2c.c ****     
2206:../../Drivers/STM32F7xx_HAL_Driver/Src/stm32f7xx_hal_i2c.c ****     /* Process Locked */
2207:../../Drivers/STM32F7xx_HAL_Driver/Src/stm32f7xx_hal_i2c.c ****     __HAL_LOCK(hi2c);
 4299              		.loc 1 2207 0
 4300 0052 FB68     		ldr	r3, [r7, #12]
 4301 0054 93F84030 		ldrb	r3, [r3, #64]	@ zero_extendqisi2
 4302 0058 012B     		cmp	r3, #1
 4303 005a 01D1     		bne	.L219
 4304              		.loc 1 2207 0 is_stmt 0 discriminator 1
 4305 005c 0223     		movs	r3, #2
 4306 005e 93E0     		b	.L217
 4307              	.L219:
 4308              		.loc 1 2207 0 discriminator 2
 4309 0060 FB68     		ldr	r3, [r7, #12]
 4310 0062 0122     		movs	r2, #1
 4311 0064 83F84020 		strb	r2, [r3, #64]
2208:../../Drivers/STM32F7xx_HAL_Driver/Src/stm32f7xx_hal_i2c.c ****     
2209:../../Drivers/STM32F7xx_HAL_Driver/Src/stm32f7xx_hal_i2c.c ****     /* Init tickstart for timeout management*/
2210:../../Drivers/STM32F7xx_HAL_Driver/Src/stm32f7xx_hal_i2c.c ****     tickstart = HAL_GetTick();
 4312              		.loc 1 2210 0 is_stmt 1 discriminator 2
 4313 0068 FFF7FEFF 		bl	HAL_GetTick
 4314 006c 3861     		str	r0, [r7, #16]
2211:../../Drivers/STM32F7xx_HAL_Driver/Src/stm32f7xx_hal_i2c.c ****     
2212:../../Drivers/STM32F7xx_HAL_Driver/Src/stm32f7xx_hal_i2c.c ****     hi2c->State       = HAL_I2C_STATE_BUSY_TX;
 4315              		.loc 1 2212 0 discriminator 2
 4316 006e FB68     		ldr	r3, [r7, #12]
 4317 0070 2122     		movs	r2, #33
 4318 0072 83F84120 		strb	r2, [r3, #65]
2213:../../Drivers/STM32F7xx_HAL_Driver/Src/stm32f7xx_hal_i2c.c ****     hi2c->Mode        = HAL_I2C_MODE_MEM;
 4319              		.loc 1 2213 0 discriminator 2
 4320 0076 FB68     		ldr	r3, [r7, #12]
 4321 0078 4022     		movs	r2, #64
 4322 007a 83F84220 		strb	r2, [r3, #66]
ARM GAS  /tmp/cczIhzQ0.s 			page 115


2214:../../Drivers/STM32F7xx_HAL_Driver/Src/stm32f7xx_hal_i2c.c ****     hi2c->ErrorCode   = HAL_I2C_ERROR_NONE;
 4323              		.loc 1 2214 0 discriminator 2
 4324 007e FB68     		ldr	r3, [r7, #12]
 4325 0080 0022     		movs	r2, #0
 4326 0082 5A64     		str	r2, [r3, #68]
2215:../../Drivers/STM32F7xx_HAL_Driver/Src/stm32f7xx_hal_i2c.c ****     
2216:../../Drivers/STM32F7xx_HAL_Driver/Src/stm32f7xx_hal_i2c.c ****     /* Prepare transfer parameters */
2217:../../Drivers/STM32F7xx_HAL_Driver/Src/stm32f7xx_hal_i2c.c ****     hi2c->pBuffPtr    = pData;
 4327              		.loc 1 2217 0 discriminator 2
 4328 0084 FB68     		ldr	r3, [r7, #12]
 4329 0086 BA6A     		ldr	r2, [r7, #40]
 4330 0088 5A62     		str	r2, [r3, #36]
2218:../../Drivers/STM32F7xx_HAL_Driver/Src/stm32f7xx_hal_i2c.c ****     hi2c->XferCount   = Size;
 4331              		.loc 1 2218 0 discriminator 2
 4332 008a FB68     		ldr	r3, [r7, #12]
 4333 008c BA8D     		ldrh	r2, [r7, #44]	@ movhi
 4334 008e 5A85     		strh	r2, [r3, #42]	@ movhi
2219:../../Drivers/STM32F7xx_HAL_Driver/Src/stm32f7xx_hal_i2c.c ****     hi2c->XferOptions = I2C_NO_OPTION_FRAME;
 4335              		.loc 1 2219 0 discriminator 2
 4336 0090 FB68     		ldr	r3, [r7, #12]
 4337 0092 3F4A     		ldr	r2, .L224
 4338 0094 DA62     		str	r2, [r3, #44]
2220:../../Drivers/STM32F7xx_HAL_Driver/Src/stm32f7xx_hal_i2c.c ****     hi2c->XferISR     = I2C_Master_ISR_DMA;
 4339              		.loc 1 2220 0 discriminator 2
 4340 0096 FB68     		ldr	r3, [r7, #12]
 4341 0098 3E4A     		ldr	r2, .L224+4
 4342 009a 5A63     		str	r2, [r3, #52]
2221:../../Drivers/STM32F7xx_HAL_Driver/Src/stm32f7xx_hal_i2c.c ****     
2222:../../Drivers/STM32F7xx_HAL_Driver/Src/stm32f7xx_hal_i2c.c ****     if(hi2c->XferCount > MAX_NBYTE_SIZE)
 4343              		.loc 1 2222 0 discriminator 2
 4344 009c FB68     		ldr	r3, [r7, #12]
 4345 009e 5B8D     		ldrh	r3, [r3, #42]	@ movhi
 4346 00a0 9BB2     		uxth	r3, r3
 4347 00a2 FF2B     		cmp	r3, #255
 4348 00a4 06D9     		bls	.L220
2223:../../Drivers/STM32F7xx_HAL_Driver/Src/stm32f7xx_hal_i2c.c ****     {
2224:../../Drivers/STM32F7xx_HAL_Driver/Src/stm32f7xx_hal_i2c.c ****       hi2c->XferSize = MAX_NBYTE_SIZE;
 4349              		.loc 1 2224 0
 4350 00a6 FB68     		ldr	r3, [r7, #12]
 4351 00a8 FF22     		movs	r2, #255
 4352 00aa 1A85     		strh	r2, [r3, #40]	@ movhi
2225:../../Drivers/STM32F7xx_HAL_Driver/Src/stm32f7xx_hal_i2c.c ****       xfermode = I2C_RELOAD_MODE;
 4353              		.loc 1 2225 0
 4354 00ac 4FF08073 		mov	r3, #16777216
 4355 00b0 7B61     		str	r3, [r7, #20]
 4356 00b2 07E0     		b	.L221
 4357              	.L220:
2226:../../Drivers/STM32F7xx_HAL_Driver/Src/stm32f7xx_hal_i2c.c ****     }
2227:../../Drivers/STM32F7xx_HAL_Driver/Src/stm32f7xx_hal_i2c.c ****     else
2228:../../Drivers/STM32F7xx_HAL_Driver/Src/stm32f7xx_hal_i2c.c ****     {
2229:../../Drivers/STM32F7xx_HAL_Driver/Src/stm32f7xx_hal_i2c.c ****       hi2c->XferSize = hi2c->XferCount;
 4358              		.loc 1 2229 0
 4359 00b4 FB68     		ldr	r3, [r7, #12]
 4360 00b6 5B8D     		ldrh	r3, [r3, #42]	@ movhi
 4361 00b8 9AB2     		uxth	r2, r3
 4362 00ba FB68     		ldr	r3, [r7, #12]
 4363 00bc 1A85     		strh	r2, [r3, #40]	@ movhi
ARM GAS  /tmp/cczIhzQ0.s 			page 116


2230:../../Drivers/STM32F7xx_HAL_Driver/Src/stm32f7xx_hal_i2c.c ****       xfermode = I2C_AUTOEND_MODE;
 4364              		.loc 1 2230 0
 4365 00be 4FF00073 		mov	r3, #33554432
 4366 00c2 7B61     		str	r3, [r7, #20]
 4367              	.L221:
2231:../../Drivers/STM32F7xx_HAL_Driver/Src/stm32f7xx_hal_i2c.c ****     }
2232:../../Drivers/STM32F7xx_HAL_Driver/Src/stm32f7xx_hal_i2c.c ****     
2233:../../Drivers/STM32F7xx_HAL_Driver/Src/stm32f7xx_hal_i2c.c ****     /* Send Slave Address and Memory Address */
2234:../../Drivers/STM32F7xx_HAL_Driver/Src/stm32f7xx_hal_i2c.c ****     if(I2C_RequestMemoryWrite(hi2c, DevAddress, MemAddress, MemAddSize, I2C_TIMEOUT_FLAG, tickstart
 4368              		.loc 1 2234 0
 4369 00c4 7989     		ldrh	r1, [r7, #10]
 4370 00c6 3A89     		ldrh	r2, [r7, #8]
 4371 00c8 FC88     		ldrh	r4, [r7, #6]
 4372 00ca 1923     		movs	r3, #25
 4373 00cc 0093     		str	r3, [sp]
 4374 00ce 3B69     		ldr	r3, [r7, #16]
 4375 00d0 0193     		str	r3, [sp, #4]
 4376 00d2 F868     		ldr	r0, [r7, #12]
 4377 00d4 2346     		mov	r3, r4
 4378 00d6 FFF7FEFF 		bl	I2C_RequestMemoryWrite
 4379 00da 0346     		mov	r3, r0
 4380 00dc 002B     		cmp	r3, #0
 4381 00de 0FD0     		beq	.L222
2235:../../Drivers/STM32F7xx_HAL_Driver/Src/stm32f7xx_hal_i2c.c ****     {
2236:../../Drivers/STM32F7xx_HAL_Driver/Src/stm32f7xx_hal_i2c.c ****       if(hi2c->ErrorCode == HAL_I2C_ERROR_AF)
 4382              		.loc 1 2236 0
 4383 00e0 FB68     		ldr	r3, [r7, #12]
 4384 00e2 5B6C     		ldr	r3, [r3, #68]
 4385 00e4 042B     		cmp	r3, #4
 4386 00e6 05D1     		bne	.L223
2237:../../Drivers/STM32F7xx_HAL_Driver/Src/stm32f7xx_hal_i2c.c ****       {
2238:../../Drivers/STM32F7xx_HAL_Driver/Src/stm32f7xx_hal_i2c.c ****         /* Process Unlocked */
2239:../../Drivers/STM32F7xx_HAL_Driver/Src/stm32f7xx_hal_i2c.c ****         __HAL_UNLOCK(hi2c);
 4387              		.loc 1 2239 0
 4388 00e8 FB68     		ldr	r3, [r7, #12]
 4389 00ea 0022     		movs	r2, #0
 4390 00ec 83F84020 		strb	r2, [r3, #64]
2240:../../Drivers/STM32F7xx_HAL_Driver/Src/stm32f7xx_hal_i2c.c ****         return HAL_ERROR;
 4391              		.loc 1 2240 0
 4392 00f0 0123     		movs	r3, #1
 4393 00f2 49E0     		b	.L217
 4394              	.L223:
2241:../../Drivers/STM32F7xx_HAL_Driver/Src/stm32f7xx_hal_i2c.c ****       }
2242:../../Drivers/STM32F7xx_HAL_Driver/Src/stm32f7xx_hal_i2c.c ****       else
2243:../../Drivers/STM32F7xx_HAL_Driver/Src/stm32f7xx_hal_i2c.c ****       {
2244:../../Drivers/STM32F7xx_HAL_Driver/Src/stm32f7xx_hal_i2c.c ****         /* Process Unlocked */
2245:../../Drivers/STM32F7xx_HAL_Driver/Src/stm32f7xx_hal_i2c.c ****         __HAL_UNLOCK(hi2c);
 4395              		.loc 1 2245 0
 4396 00f4 FB68     		ldr	r3, [r7, #12]
 4397 00f6 0022     		movs	r2, #0
 4398 00f8 83F84020 		strb	r2, [r3, #64]
2246:../../Drivers/STM32F7xx_HAL_Driver/Src/stm32f7xx_hal_i2c.c ****         return HAL_TIMEOUT;
 4399              		.loc 1 2246 0
 4400 00fc 0323     		movs	r3, #3
 4401 00fe 43E0     		b	.L217
 4402              	.L222:
2247:../../Drivers/STM32F7xx_HAL_Driver/Src/stm32f7xx_hal_i2c.c ****       }
ARM GAS  /tmp/cczIhzQ0.s 			page 117


2248:../../Drivers/STM32F7xx_HAL_Driver/Src/stm32f7xx_hal_i2c.c ****     }
2249:../../Drivers/STM32F7xx_HAL_Driver/Src/stm32f7xx_hal_i2c.c ****     
2250:../../Drivers/STM32F7xx_HAL_Driver/Src/stm32f7xx_hal_i2c.c ****     /* Set the I2C DMA transfer complete callback */
2251:../../Drivers/STM32F7xx_HAL_Driver/Src/stm32f7xx_hal_i2c.c ****     hi2c->hdmatx->XferCpltCallback = I2C_DMAMasterTransmitCplt;
 4403              		.loc 1 2251 0
 4404 0100 FB68     		ldr	r3, [r7, #12]
 4405 0102 9B6B     		ldr	r3, [r3, #56]
 4406 0104 244A     		ldr	r2, .L224+8
 4407 0106 DA63     		str	r2, [r3, #60]
2252:../../Drivers/STM32F7xx_HAL_Driver/Src/stm32f7xx_hal_i2c.c ****     
2253:../../Drivers/STM32F7xx_HAL_Driver/Src/stm32f7xx_hal_i2c.c ****     /* Set the DMA error callback */
2254:../../Drivers/STM32F7xx_HAL_Driver/Src/stm32f7xx_hal_i2c.c ****     hi2c->hdmatx->XferErrorCallback = I2C_DMAError;
 4408              		.loc 1 2254 0
 4409 0108 FB68     		ldr	r3, [r7, #12]
 4410 010a 9B6B     		ldr	r3, [r3, #56]
 4411 010c 234A     		ldr	r2, .L224+12
 4412 010e DA64     		str	r2, [r3, #76]
2255:../../Drivers/STM32F7xx_HAL_Driver/Src/stm32f7xx_hal_i2c.c ****     
2256:../../Drivers/STM32F7xx_HAL_Driver/Src/stm32f7xx_hal_i2c.c ****     /* Set the unused DMA callbacks to NULL */
2257:../../Drivers/STM32F7xx_HAL_Driver/Src/stm32f7xx_hal_i2c.c ****     hi2c->hdmatx->XferHalfCpltCallback = NULL;
 4413              		.loc 1 2257 0
 4414 0110 FB68     		ldr	r3, [r7, #12]
 4415 0112 9B6B     		ldr	r3, [r3, #56]
 4416 0114 0022     		movs	r2, #0
 4417 0116 1A64     		str	r2, [r3, #64]
2258:../../Drivers/STM32F7xx_HAL_Driver/Src/stm32f7xx_hal_i2c.c ****     hi2c->hdmatx->XferAbortCallback = NULL;
 4418              		.loc 1 2258 0
 4419 0118 FB68     		ldr	r3, [r7, #12]
 4420 011a 9B6B     		ldr	r3, [r3, #56]
 4421 011c 0022     		movs	r2, #0
 4422 011e 1A65     		str	r2, [r3, #80]
2259:../../Drivers/STM32F7xx_HAL_Driver/Src/stm32f7xx_hal_i2c.c ****     
2260:../../Drivers/STM32F7xx_HAL_Driver/Src/stm32f7xx_hal_i2c.c ****     /* Enable the DMA channel */
2261:../../Drivers/STM32F7xx_HAL_Driver/Src/stm32f7xx_hal_i2c.c ****     HAL_DMA_Start_IT(hi2c->hdmatx, (uint32_t)pData, (uint32_t)&hi2c->Instance->TXDR, hi2c->XferSize
 4423              		.loc 1 2261 0
 4424 0120 FB68     		ldr	r3, [r7, #12]
 4425 0122 996B     		ldr	r1, [r3, #56]
 4426 0124 BA6A     		ldr	r2, [r7, #40]
 4427 0126 FB68     		ldr	r3, [r7, #12]
 4428 0128 1B68     		ldr	r3, [r3]
 4429 012a 2833     		adds	r3, r3, #40
 4430 012c 1C46     		mov	r4, r3
 4431 012e FB68     		ldr	r3, [r7, #12]
 4432 0130 1B8D     		ldrh	r3, [r3, #40]
 4433 0132 0846     		mov	r0, r1
 4434 0134 1146     		mov	r1, r2
 4435 0136 2246     		mov	r2, r4
 4436 0138 FFF7FEFF 		bl	HAL_DMA_Start_IT
2262:../../Drivers/STM32F7xx_HAL_Driver/Src/stm32f7xx_hal_i2c.c ****     
2263:../../Drivers/STM32F7xx_HAL_Driver/Src/stm32f7xx_hal_i2c.c ****     /* Send Slave Address */
2264:../../Drivers/STM32F7xx_HAL_Driver/Src/stm32f7xx_hal_i2c.c ****     /* Set NBYTES to write and reload if hi2c->XferCount > MAX_NBYTE_SIZE and generate RESTART */
2265:../../Drivers/STM32F7xx_HAL_Driver/Src/stm32f7xx_hal_i2c.c ****     I2C_TransferConfig(hi2c, DevAddress, hi2c->XferSize, xfermode, I2C_NO_STARTSTOP);
 4437              		.loc 1 2265 0
 4438 013c FB68     		ldr	r3, [r7, #12]
 4439 013e 1B8D     		ldrh	r3, [r3, #40]
 4440 0140 DAB2     		uxtb	r2, r3
 4441 0142 7989     		ldrh	r1, [r7, #10]
ARM GAS  /tmp/cczIhzQ0.s 			page 118


 4442 0144 0023     		movs	r3, #0
 4443 0146 0093     		str	r3, [sp]
 4444 0148 F868     		ldr	r0, [r7, #12]
 4445 014a 7B69     		ldr	r3, [r7, #20]
 4446 014c FFF7FEFF 		bl	I2C_TransferConfig
2266:../../Drivers/STM32F7xx_HAL_Driver/Src/stm32f7xx_hal_i2c.c ****     
2267:../../Drivers/STM32F7xx_HAL_Driver/Src/stm32f7xx_hal_i2c.c ****     /* Update XferCount value */
2268:../../Drivers/STM32F7xx_HAL_Driver/Src/stm32f7xx_hal_i2c.c ****     hi2c->XferCount -= hi2c->XferSize;
 4447              		.loc 1 2268 0
 4448 0150 FB68     		ldr	r3, [r7, #12]
 4449 0152 5B8D     		ldrh	r3, [r3, #42]	@ movhi
 4450 0154 9AB2     		uxth	r2, r3
 4451 0156 FB68     		ldr	r3, [r7, #12]
 4452 0158 1B8D     		ldrh	r3, [r3, #40]
 4453 015a D31A     		subs	r3, r2, r3
 4454 015c 9AB2     		uxth	r2, r3
 4455 015e FB68     		ldr	r3, [r7, #12]
 4456 0160 5A85     		strh	r2, [r3, #42]	@ movhi
2269:../../Drivers/STM32F7xx_HAL_Driver/Src/stm32f7xx_hal_i2c.c ****     
2270:../../Drivers/STM32F7xx_HAL_Driver/Src/stm32f7xx_hal_i2c.c ****     /* Process Unlocked */
2271:../../Drivers/STM32F7xx_HAL_Driver/Src/stm32f7xx_hal_i2c.c ****     __HAL_UNLOCK(hi2c);
 4457              		.loc 1 2271 0
 4458 0162 FB68     		ldr	r3, [r7, #12]
 4459 0164 0022     		movs	r2, #0
 4460 0166 83F84020 		strb	r2, [r3, #64]
2272:../../Drivers/STM32F7xx_HAL_Driver/Src/stm32f7xx_hal_i2c.c ****     
2273:../../Drivers/STM32F7xx_HAL_Driver/Src/stm32f7xx_hal_i2c.c ****     /* Note : The I2C interrupts must be enabled after unlocking current process
2274:../../Drivers/STM32F7xx_HAL_Driver/Src/stm32f7xx_hal_i2c.c ****               to avoid the risk of I2C interrupt handle execution before current
2275:../../Drivers/STM32F7xx_HAL_Driver/Src/stm32f7xx_hal_i2c.c ****               process unlock */
2276:../../Drivers/STM32F7xx_HAL_Driver/Src/stm32f7xx_hal_i2c.c ****     /* Enable ERR and NACK interrupts */
2277:../../Drivers/STM32F7xx_HAL_Driver/Src/stm32f7xx_hal_i2c.c ****     I2C_Enable_IRQ(hi2c, I2C_XFER_ERROR_IT);
 4461              		.loc 1 2277 0
 4462 016a F868     		ldr	r0, [r7, #12]
 4463 016c 1121     		movs	r1, #17
 4464 016e FFF7FEFF 		bl	I2C_Enable_IRQ
2278:../../Drivers/STM32F7xx_HAL_Driver/Src/stm32f7xx_hal_i2c.c ****     
2279:../../Drivers/STM32F7xx_HAL_Driver/Src/stm32f7xx_hal_i2c.c ****     /* Enable DMA Request */
2280:../../Drivers/STM32F7xx_HAL_Driver/Src/stm32f7xx_hal_i2c.c ****     hi2c->Instance->CR1 |= I2C_CR1_TXDMAEN;
 4465              		.loc 1 2280 0
 4466 0172 FB68     		ldr	r3, [r7, #12]
 4467 0174 1B68     		ldr	r3, [r3]
 4468 0176 FA68     		ldr	r2, [r7, #12]
 4469 0178 1268     		ldr	r2, [r2]
 4470 017a 1268     		ldr	r2, [r2]
 4471 017c 42F48042 		orr	r2, r2, #16384
 4472 0180 1A60     		str	r2, [r3]
2281:../../Drivers/STM32F7xx_HAL_Driver/Src/stm32f7xx_hal_i2c.c ****     
2282:../../Drivers/STM32F7xx_HAL_Driver/Src/stm32f7xx_hal_i2c.c ****     return HAL_OK;
 4473              		.loc 1 2282 0
 4474 0182 0023     		movs	r3, #0
 4475 0184 00E0     		b	.L217
 4476              	.L214:
2283:../../Drivers/STM32F7xx_HAL_Driver/Src/stm32f7xx_hal_i2c.c ****   }
2284:../../Drivers/STM32F7xx_HAL_Driver/Src/stm32f7xx_hal_i2c.c ****   else
2285:../../Drivers/STM32F7xx_HAL_Driver/Src/stm32f7xx_hal_i2c.c ****   {
2286:../../Drivers/STM32F7xx_HAL_Driver/Src/stm32f7xx_hal_i2c.c ****     return HAL_BUSY;
 4477              		.loc 1 2286 0
ARM GAS  /tmp/cczIhzQ0.s 			page 119


 4478 0186 0223     		movs	r3, #2
 4479              	.L217:
2287:../../Drivers/STM32F7xx_HAL_Driver/Src/stm32f7xx_hal_i2c.c ****   }
2288:../../Drivers/STM32F7xx_HAL_Driver/Src/stm32f7xx_hal_i2c.c **** }
 4480              		.loc 1 2288 0
 4481 0188 1846     		mov	r0, r3
 4482 018a 1C37     		adds	r7, r7, #28
 4483              	.LCFI105:
 4484              		.cfi_def_cfa_offset 12
 4485 018c BD46     		mov	sp, r7
 4486              	.LCFI106:
 4487              		.cfi_def_cfa_register 13
 4488              		@ sp needed
 4489 018e 90BD     		pop	{r4, r7, pc}
 4490              	.L225:
 4491              		.align	2
 4492              	.L224:
 4493 0190 0000FFFF 		.word	-65536
 4494 0194 00000000 		.word	I2C_Master_ISR_DMA
 4495 0198 00000000 		.word	I2C_DMAMasterTransmitCplt
 4496 019c 00000000 		.word	I2C_DMAError
 4497              		.cfi_endproc
 4498              	.LFE155:
 4500              		.section	.text.HAL_I2C_Mem_Read_DMA,"ax",%progbits
 4501              		.align	2
 4502              		.global	HAL_I2C_Mem_Read_DMA
 4503              		.thumb
 4504              		.thumb_func
 4506              	HAL_I2C_Mem_Read_DMA:
 4507              	.LFB156:
2289:../../Drivers/STM32F7xx_HAL_Driver/Src/stm32f7xx_hal_i2c.c **** 
2290:../../Drivers/STM32F7xx_HAL_Driver/Src/stm32f7xx_hal_i2c.c **** /**
2291:../../Drivers/STM32F7xx_HAL_Driver/Src/stm32f7xx_hal_i2c.c ****   * @brief  Reads an amount of data in non-blocking mode with DMA from a specific memory address.
2292:../../Drivers/STM32F7xx_HAL_Driver/Src/stm32f7xx_hal_i2c.c ****   * @param  hi2c: Pointer to a I2C_HandleTypeDef structure that contains
2293:../../Drivers/STM32F7xx_HAL_Driver/Src/stm32f7xx_hal_i2c.c ****   *               the configuration information for the specified I2C.
2294:../../Drivers/STM32F7xx_HAL_Driver/Src/stm32f7xx_hal_i2c.c ****   * @param  DevAddress: Target device address
2295:../../Drivers/STM32F7xx_HAL_Driver/Src/stm32f7xx_hal_i2c.c ****   * @param  MemAddress: Internal memory address
2296:../../Drivers/STM32F7xx_HAL_Driver/Src/stm32f7xx_hal_i2c.c ****   * @param  MemAddSize: Size of internal memory address
2297:../../Drivers/STM32F7xx_HAL_Driver/Src/stm32f7xx_hal_i2c.c ****   * @param  pData: Pointer to data buffer
2298:../../Drivers/STM32F7xx_HAL_Driver/Src/stm32f7xx_hal_i2c.c ****   * @param  Size: Amount of data to be read
2299:../../Drivers/STM32F7xx_HAL_Driver/Src/stm32f7xx_hal_i2c.c ****   * @retval HAL status
2300:../../Drivers/STM32F7xx_HAL_Driver/Src/stm32f7xx_hal_i2c.c ****   */
2301:../../Drivers/STM32F7xx_HAL_Driver/Src/stm32f7xx_hal_i2c.c **** HAL_StatusTypeDef HAL_I2C_Mem_Read_DMA(I2C_HandleTypeDef *hi2c, uint16_t DevAddress, uint16_t MemAd
2302:../../Drivers/STM32F7xx_HAL_Driver/Src/stm32f7xx_hal_i2c.c **** {
 4508              		.loc 1 2302 0
 4509              		.cfi_startproc
 4510              		@ args = 8, pretend = 0, frame = 24
 4511              		@ frame_needed = 1, uses_anonymous_args = 0
 4512 0000 90B5     		push	{r4, r7, lr}
 4513              	.LCFI107:
 4514              		.cfi_def_cfa_offset 12
 4515              		.cfi_offset 4, -12
 4516              		.cfi_offset 7, -8
 4517              		.cfi_offset 14, -4
 4518 0002 89B0     		sub	sp, sp, #36
 4519              	.LCFI108:
 4520              		.cfi_def_cfa_offset 48
ARM GAS  /tmp/cczIhzQ0.s 			page 120


 4521 0004 02AF     		add	r7, sp, #8
 4522              	.LCFI109:
 4523              		.cfi_def_cfa 7, 40
 4524 0006 F860     		str	r0, [r7, #12]
 4525 0008 0846     		mov	r0, r1
 4526 000a 1146     		mov	r1, r2
 4527 000c 1A46     		mov	r2, r3
 4528 000e 0346     		mov	r3, r0	@ movhi
 4529 0010 7B81     		strh	r3, [r7, #10]	@ movhi
 4530 0012 0B46     		mov	r3, r1	@ movhi
 4531 0014 3B81     		strh	r3, [r7, #8]	@ movhi
 4532 0016 1346     		mov	r3, r2	@ movhi
 4533 0018 FB80     		strh	r3, [r7, #6]	@ movhi
2303:../../Drivers/STM32F7xx_HAL_Driver/Src/stm32f7xx_hal_i2c.c ****   uint32_t tickstart = 0;
 4534              		.loc 1 2303 0
 4535 001a 0023     		movs	r3, #0
 4536 001c 3B61     		str	r3, [r7, #16]
2304:../../Drivers/STM32F7xx_HAL_Driver/Src/stm32f7xx_hal_i2c.c ****   uint32_t xfermode = 0;
 4537              		.loc 1 2304 0
 4538 001e 0023     		movs	r3, #0
 4539 0020 7B61     		str	r3, [r7, #20]
2305:../../Drivers/STM32F7xx_HAL_Driver/Src/stm32f7xx_hal_i2c.c ****   
2306:../../Drivers/STM32F7xx_HAL_Driver/Src/stm32f7xx_hal_i2c.c ****   /* Check the parameters */
2307:../../Drivers/STM32F7xx_HAL_Driver/Src/stm32f7xx_hal_i2c.c ****   assert_param(IS_I2C_MEMADD_SIZE(MemAddSize));
2308:../../Drivers/STM32F7xx_HAL_Driver/Src/stm32f7xx_hal_i2c.c ****   
2309:../../Drivers/STM32F7xx_HAL_Driver/Src/stm32f7xx_hal_i2c.c ****   if(hi2c->State == HAL_I2C_STATE_READY)
 4540              		.loc 1 2309 0
 4541 0022 FB68     		ldr	r3, [r7, #12]
 4542 0024 93F84130 		ldrb	r3, [r3, #65]
 4543 0028 DBB2     		uxtb	r3, r3
 4544 002a 202B     		cmp	r3, #32
 4545 002c 40F0AB80 		bne	.L227
2310:../../Drivers/STM32F7xx_HAL_Driver/Src/stm32f7xx_hal_i2c.c ****   {
2311:../../Drivers/STM32F7xx_HAL_Driver/Src/stm32f7xx_hal_i2c.c ****     if((pData == NULL) || (Size == 0))
 4546              		.loc 1 2311 0
 4547 0030 BB6A     		ldr	r3, [r7, #40]
 4548 0032 002B     		cmp	r3, #0
 4549 0034 02D0     		beq	.L228
 4550              		.loc 1 2311 0 is_stmt 0 discriminator 1
 4551 0036 BB8D     		ldrh	r3, [r7, #44]
 4552 0038 002B     		cmp	r3, #0
 4553 003a 01D1     		bne	.L229
 4554              	.L228:
2312:../../Drivers/STM32F7xx_HAL_Driver/Src/stm32f7xx_hal_i2c.c ****     {
2313:../../Drivers/STM32F7xx_HAL_Driver/Src/stm32f7xx_hal_i2c.c ****       return  HAL_ERROR;
 4555              		.loc 1 2313 0 is_stmt 1
 4556 003c 0123     		movs	r3, #1
 4557 003e A3E0     		b	.L230
 4558              	.L229:
2314:../../Drivers/STM32F7xx_HAL_Driver/Src/stm32f7xx_hal_i2c.c ****     }
2315:../../Drivers/STM32F7xx_HAL_Driver/Src/stm32f7xx_hal_i2c.c ****     
2316:../../Drivers/STM32F7xx_HAL_Driver/Src/stm32f7xx_hal_i2c.c ****     if(__HAL_I2C_GET_FLAG(hi2c, I2C_FLAG_BUSY) == SET)
 4559              		.loc 1 2316 0
 4560 0040 FB68     		ldr	r3, [r7, #12]
 4561 0042 1B68     		ldr	r3, [r3]
 4562 0044 9B69     		ldr	r3, [r3, #24]
 4563 0046 03F40043 		and	r3, r3, #32768
ARM GAS  /tmp/cczIhzQ0.s 			page 121


 4564 004a 002B     		cmp	r3, #0
 4565 004c 01D0     		beq	.L231
2317:../../Drivers/STM32F7xx_HAL_Driver/Src/stm32f7xx_hal_i2c.c ****     {
2318:../../Drivers/STM32F7xx_HAL_Driver/Src/stm32f7xx_hal_i2c.c ****       return HAL_BUSY;
 4566              		.loc 1 2318 0
 4567 004e 0223     		movs	r3, #2
 4568 0050 9AE0     		b	.L230
 4569              	.L231:
2319:../../Drivers/STM32F7xx_HAL_Driver/Src/stm32f7xx_hal_i2c.c ****     }
2320:../../Drivers/STM32F7xx_HAL_Driver/Src/stm32f7xx_hal_i2c.c ****     
2321:../../Drivers/STM32F7xx_HAL_Driver/Src/stm32f7xx_hal_i2c.c ****     /* Process Locked */
2322:../../Drivers/STM32F7xx_HAL_Driver/Src/stm32f7xx_hal_i2c.c ****     __HAL_LOCK(hi2c);
 4570              		.loc 1 2322 0
 4571 0052 FB68     		ldr	r3, [r7, #12]
 4572 0054 93F84030 		ldrb	r3, [r3, #64]	@ zero_extendqisi2
 4573 0058 012B     		cmp	r3, #1
 4574 005a 01D1     		bne	.L232
 4575              		.loc 1 2322 0 is_stmt 0 discriminator 1
 4576 005c 0223     		movs	r3, #2
 4577 005e 93E0     		b	.L230
 4578              	.L232:
 4579              		.loc 1 2322 0 discriminator 2
 4580 0060 FB68     		ldr	r3, [r7, #12]
 4581 0062 0122     		movs	r2, #1
 4582 0064 83F84020 		strb	r2, [r3, #64]
2323:../../Drivers/STM32F7xx_HAL_Driver/Src/stm32f7xx_hal_i2c.c ****     
2324:../../Drivers/STM32F7xx_HAL_Driver/Src/stm32f7xx_hal_i2c.c ****     /* Init tickstart for timeout management*/
2325:../../Drivers/STM32F7xx_HAL_Driver/Src/stm32f7xx_hal_i2c.c ****     tickstart = HAL_GetTick();
 4583              		.loc 1 2325 0 is_stmt 1 discriminator 2
 4584 0068 FFF7FEFF 		bl	HAL_GetTick
 4585 006c 3861     		str	r0, [r7, #16]
2326:../../Drivers/STM32F7xx_HAL_Driver/Src/stm32f7xx_hal_i2c.c ****     
2327:../../Drivers/STM32F7xx_HAL_Driver/Src/stm32f7xx_hal_i2c.c ****     hi2c->State       = HAL_I2C_STATE_BUSY_RX;
 4586              		.loc 1 2327 0 discriminator 2
 4587 006e FB68     		ldr	r3, [r7, #12]
 4588 0070 2222     		movs	r2, #34
 4589 0072 83F84120 		strb	r2, [r3, #65]
2328:../../Drivers/STM32F7xx_HAL_Driver/Src/stm32f7xx_hal_i2c.c ****     hi2c->Mode        = HAL_I2C_MODE_MEM;
 4590              		.loc 1 2328 0 discriminator 2
 4591 0076 FB68     		ldr	r3, [r7, #12]
 4592 0078 4022     		movs	r2, #64
 4593 007a 83F84220 		strb	r2, [r3, #66]
2329:../../Drivers/STM32F7xx_HAL_Driver/Src/stm32f7xx_hal_i2c.c ****     hi2c->ErrorCode   = HAL_I2C_ERROR_NONE;
 4594              		.loc 1 2329 0 discriminator 2
 4595 007e FB68     		ldr	r3, [r7, #12]
 4596 0080 0022     		movs	r2, #0
 4597 0082 5A64     		str	r2, [r3, #68]
2330:../../Drivers/STM32F7xx_HAL_Driver/Src/stm32f7xx_hal_i2c.c ****     
2331:../../Drivers/STM32F7xx_HAL_Driver/Src/stm32f7xx_hal_i2c.c ****     /* Prepare transfer parameters */
2332:../../Drivers/STM32F7xx_HAL_Driver/Src/stm32f7xx_hal_i2c.c ****     hi2c->pBuffPtr    = pData;
 4598              		.loc 1 2332 0 discriminator 2
 4599 0084 FB68     		ldr	r3, [r7, #12]
 4600 0086 BA6A     		ldr	r2, [r7, #40]
 4601 0088 5A62     		str	r2, [r3, #36]
2333:../../Drivers/STM32F7xx_HAL_Driver/Src/stm32f7xx_hal_i2c.c ****     hi2c->XferCount   = Size;
 4602              		.loc 1 2333 0 discriminator 2
 4603 008a FB68     		ldr	r3, [r7, #12]
ARM GAS  /tmp/cczIhzQ0.s 			page 122


 4604 008c BA8D     		ldrh	r2, [r7, #44]	@ movhi
 4605 008e 5A85     		strh	r2, [r3, #42]	@ movhi
2334:../../Drivers/STM32F7xx_HAL_Driver/Src/stm32f7xx_hal_i2c.c ****     hi2c->XferOptions = I2C_NO_OPTION_FRAME;
 4606              		.loc 1 2334 0 discriminator 2
 4607 0090 FB68     		ldr	r3, [r7, #12]
 4608 0092 3F4A     		ldr	r2, .L237
 4609 0094 DA62     		str	r2, [r3, #44]
2335:../../Drivers/STM32F7xx_HAL_Driver/Src/stm32f7xx_hal_i2c.c ****     hi2c->XferISR     = I2C_Master_ISR_DMA;
 4610              		.loc 1 2335 0 discriminator 2
 4611 0096 FB68     		ldr	r3, [r7, #12]
 4612 0098 3E4A     		ldr	r2, .L237+4
 4613 009a 5A63     		str	r2, [r3, #52]
2336:../../Drivers/STM32F7xx_HAL_Driver/Src/stm32f7xx_hal_i2c.c ****     
2337:../../Drivers/STM32F7xx_HAL_Driver/Src/stm32f7xx_hal_i2c.c ****     if(hi2c->XferCount > MAX_NBYTE_SIZE)
 4614              		.loc 1 2337 0 discriminator 2
 4615 009c FB68     		ldr	r3, [r7, #12]
 4616 009e 5B8D     		ldrh	r3, [r3, #42]	@ movhi
 4617 00a0 9BB2     		uxth	r3, r3
 4618 00a2 FF2B     		cmp	r3, #255
 4619 00a4 06D9     		bls	.L233
2338:../../Drivers/STM32F7xx_HAL_Driver/Src/stm32f7xx_hal_i2c.c ****     {
2339:../../Drivers/STM32F7xx_HAL_Driver/Src/stm32f7xx_hal_i2c.c ****       hi2c->XferSize = MAX_NBYTE_SIZE;
 4620              		.loc 1 2339 0
 4621 00a6 FB68     		ldr	r3, [r7, #12]
 4622 00a8 FF22     		movs	r2, #255
 4623 00aa 1A85     		strh	r2, [r3, #40]	@ movhi
2340:../../Drivers/STM32F7xx_HAL_Driver/Src/stm32f7xx_hal_i2c.c ****       xfermode = I2C_RELOAD_MODE;
 4624              		.loc 1 2340 0
 4625 00ac 4FF08073 		mov	r3, #16777216
 4626 00b0 7B61     		str	r3, [r7, #20]
 4627 00b2 07E0     		b	.L234
 4628              	.L233:
2341:../../Drivers/STM32F7xx_HAL_Driver/Src/stm32f7xx_hal_i2c.c ****     }
2342:../../Drivers/STM32F7xx_HAL_Driver/Src/stm32f7xx_hal_i2c.c ****     else
2343:../../Drivers/STM32F7xx_HAL_Driver/Src/stm32f7xx_hal_i2c.c ****     {
2344:../../Drivers/STM32F7xx_HAL_Driver/Src/stm32f7xx_hal_i2c.c ****       hi2c->XferSize = hi2c->XferCount;
 4629              		.loc 1 2344 0
 4630 00b4 FB68     		ldr	r3, [r7, #12]
 4631 00b6 5B8D     		ldrh	r3, [r3, #42]	@ movhi
 4632 00b8 9AB2     		uxth	r2, r3
 4633 00ba FB68     		ldr	r3, [r7, #12]
 4634 00bc 1A85     		strh	r2, [r3, #40]	@ movhi
2345:../../Drivers/STM32F7xx_HAL_Driver/Src/stm32f7xx_hal_i2c.c ****       xfermode = I2C_AUTOEND_MODE;
 4635              		.loc 1 2345 0
 4636 00be 4FF00073 		mov	r3, #33554432
 4637 00c2 7B61     		str	r3, [r7, #20]
 4638              	.L234:
2346:../../Drivers/STM32F7xx_HAL_Driver/Src/stm32f7xx_hal_i2c.c ****     }
2347:../../Drivers/STM32F7xx_HAL_Driver/Src/stm32f7xx_hal_i2c.c ****     
2348:../../Drivers/STM32F7xx_HAL_Driver/Src/stm32f7xx_hal_i2c.c ****     /* Send Slave Address and Memory Address */
2349:../../Drivers/STM32F7xx_HAL_Driver/Src/stm32f7xx_hal_i2c.c ****     if(I2C_RequestMemoryRead(hi2c, DevAddress, MemAddress, MemAddSize, I2C_TIMEOUT_FLAG, tickstart)
 4639              		.loc 1 2349 0
 4640 00c4 7989     		ldrh	r1, [r7, #10]
 4641 00c6 3A89     		ldrh	r2, [r7, #8]
 4642 00c8 FC88     		ldrh	r4, [r7, #6]
 4643 00ca 1923     		movs	r3, #25
 4644 00cc 0093     		str	r3, [sp]
ARM GAS  /tmp/cczIhzQ0.s 			page 123


 4645 00ce 3B69     		ldr	r3, [r7, #16]
 4646 00d0 0193     		str	r3, [sp, #4]
 4647 00d2 F868     		ldr	r0, [r7, #12]
 4648 00d4 2346     		mov	r3, r4
 4649 00d6 FFF7FEFF 		bl	I2C_RequestMemoryRead
 4650 00da 0346     		mov	r3, r0
 4651 00dc 002B     		cmp	r3, #0
 4652 00de 0FD0     		beq	.L235
2350:../../Drivers/STM32F7xx_HAL_Driver/Src/stm32f7xx_hal_i2c.c ****     {
2351:../../Drivers/STM32F7xx_HAL_Driver/Src/stm32f7xx_hal_i2c.c ****       if(hi2c->ErrorCode == HAL_I2C_ERROR_AF)
 4653              		.loc 1 2351 0
 4654 00e0 FB68     		ldr	r3, [r7, #12]
 4655 00e2 5B6C     		ldr	r3, [r3, #68]
 4656 00e4 042B     		cmp	r3, #4
 4657 00e6 05D1     		bne	.L236
2352:../../Drivers/STM32F7xx_HAL_Driver/Src/stm32f7xx_hal_i2c.c ****       {
2353:../../Drivers/STM32F7xx_HAL_Driver/Src/stm32f7xx_hal_i2c.c ****         /* Process Unlocked */
2354:../../Drivers/STM32F7xx_HAL_Driver/Src/stm32f7xx_hal_i2c.c ****         __HAL_UNLOCK(hi2c);
 4658              		.loc 1 2354 0
 4659 00e8 FB68     		ldr	r3, [r7, #12]
 4660 00ea 0022     		movs	r2, #0
 4661 00ec 83F84020 		strb	r2, [r3, #64]
2355:../../Drivers/STM32F7xx_HAL_Driver/Src/stm32f7xx_hal_i2c.c ****         return HAL_ERROR;
 4662              		.loc 1 2355 0
 4663 00f0 0123     		movs	r3, #1
 4664 00f2 49E0     		b	.L230
 4665              	.L236:
2356:../../Drivers/STM32F7xx_HAL_Driver/Src/stm32f7xx_hal_i2c.c ****       }
2357:../../Drivers/STM32F7xx_HAL_Driver/Src/stm32f7xx_hal_i2c.c ****       else
2358:../../Drivers/STM32F7xx_HAL_Driver/Src/stm32f7xx_hal_i2c.c ****       {
2359:../../Drivers/STM32F7xx_HAL_Driver/Src/stm32f7xx_hal_i2c.c ****         /* Process Unlocked */
2360:../../Drivers/STM32F7xx_HAL_Driver/Src/stm32f7xx_hal_i2c.c ****         __HAL_UNLOCK(hi2c);
 4666              		.loc 1 2360 0
 4667 00f4 FB68     		ldr	r3, [r7, #12]
 4668 00f6 0022     		movs	r2, #0
 4669 00f8 83F84020 		strb	r2, [r3, #64]
2361:../../Drivers/STM32F7xx_HAL_Driver/Src/stm32f7xx_hal_i2c.c ****         return HAL_TIMEOUT;
 4670              		.loc 1 2361 0
 4671 00fc 0323     		movs	r3, #3
 4672 00fe 43E0     		b	.L230
 4673              	.L235:
2362:../../Drivers/STM32F7xx_HAL_Driver/Src/stm32f7xx_hal_i2c.c ****       }
2363:../../Drivers/STM32F7xx_HAL_Driver/Src/stm32f7xx_hal_i2c.c ****     }
2364:../../Drivers/STM32F7xx_HAL_Driver/Src/stm32f7xx_hal_i2c.c ****     
2365:../../Drivers/STM32F7xx_HAL_Driver/Src/stm32f7xx_hal_i2c.c ****     /* Set the I2C DMA transfer complete callback */
2366:../../Drivers/STM32F7xx_HAL_Driver/Src/stm32f7xx_hal_i2c.c ****     hi2c->hdmarx->XferCpltCallback = I2C_DMAMasterReceiveCplt;
 4674              		.loc 1 2366 0
 4675 0100 FB68     		ldr	r3, [r7, #12]
 4676 0102 DB6B     		ldr	r3, [r3, #60]
 4677 0104 244A     		ldr	r2, .L237+8
 4678 0106 DA63     		str	r2, [r3, #60]
2367:../../Drivers/STM32F7xx_HAL_Driver/Src/stm32f7xx_hal_i2c.c ****     
2368:../../Drivers/STM32F7xx_HAL_Driver/Src/stm32f7xx_hal_i2c.c ****     /* Set the DMA error callback */
2369:../../Drivers/STM32F7xx_HAL_Driver/Src/stm32f7xx_hal_i2c.c ****     hi2c->hdmarx->XferErrorCallback = I2C_DMAError;
 4679              		.loc 1 2369 0
 4680 0108 FB68     		ldr	r3, [r7, #12]
 4681 010a DB6B     		ldr	r3, [r3, #60]
ARM GAS  /tmp/cczIhzQ0.s 			page 124


 4682 010c 234A     		ldr	r2, .L237+12
 4683 010e DA64     		str	r2, [r3, #76]
2370:../../Drivers/STM32F7xx_HAL_Driver/Src/stm32f7xx_hal_i2c.c ****     
2371:../../Drivers/STM32F7xx_HAL_Driver/Src/stm32f7xx_hal_i2c.c ****     /* Set the unused DMA callbacks to NULL */
2372:../../Drivers/STM32F7xx_HAL_Driver/Src/stm32f7xx_hal_i2c.c ****     hi2c->hdmarx->XferHalfCpltCallback = NULL;
 4684              		.loc 1 2372 0
 4685 0110 FB68     		ldr	r3, [r7, #12]
 4686 0112 DB6B     		ldr	r3, [r3, #60]
 4687 0114 0022     		movs	r2, #0
 4688 0116 1A64     		str	r2, [r3, #64]
2373:../../Drivers/STM32F7xx_HAL_Driver/Src/stm32f7xx_hal_i2c.c ****     hi2c->hdmarx->XferAbortCallback = NULL;
 4689              		.loc 1 2373 0
 4690 0118 FB68     		ldr	r3, [r7, #12]
 4691 011a DB6B     		ldr	r3, [r3, #60]
 4692 011c 0022     		movs	r2, #0
 4693 011e 1A65     		str	r2, [r3, #80]
2374:../../Drivers/STM32F7xx_HAL_Driver/Src/stm32f7xx_hal_i2c.c ****     
2375:../../Drivers/STM32F7xx_HAL_Driver/Src/stm32f7xx_hal_i2c.c ****     /* Enable the DMA channel */
2376:../../Drivers/STM32F7xx_HAL_Driver/Src/stm32f7xx_hal_i2c.c ****     HAL_DMA_Start_IT(hi2c->hdmarx, (uint32_t)&hi2c->Instance->RXDR, (uint32_t)pData, hi2c->XferSize
 4694              		.loc 1 2376 0
 4695 0120 FB68     		ldr	r3, [r7, #12]
 4696 0122 D96B     		ldr	r1, [r3, #60]
 4697 0124 FB68     		ldr	r3, [r7, #12]
 4698 0126 1B68     		ldr	r3, [r3]
 4699 0128 2433     		adds	r3, r3, #36
 4700 012a 1C46     		mov	r4, r3
 4701 012c BA6A     		ldr	r2, [r7, #40]
 4702 012e FB68     		ldr	r3, [r7, #12]
 4703 0130 1B8D     		ldrh	r3, [r3, #40]
 4704 0132 0846     		mov	r0, r1
 4705 0134 2146     		mov	r1, r4
 4706 0136 FFF7FEFF 		bl	HAL_DMA_Start_IT
2377:../../Drivers/STM32F7xx_HAL_Driver/Src/stm32f7xx_hal_i2c.c ****     
2378:../../Drivers/STM32F7xx_HAL_Driver/Src/stm32f7xx_hal_i2c.c ****     /* Set NBYTES to write and reload if hi2c->XferCount > MAX_NBYTE_SIZE and generate RESTART */
2379:../../Drivers/STM32F7xx_HAL_Driver/Src/stm32f7xx_hal_i2c.c ****     I2C_TransferConfig(hi2c,DevAddress, hi2c->XferSize, xfermode, I2C_GENERATE_START_READ);
 4707              		.loc 1 2379 0
 4708 013a FB68     		ldr	r3, [r7, #12]
 4709 013c 1B8D     		ldrh	r3, [r3, #40]
 4710 013e DAB2     		uxtb	r2, r3
 4711 0140 7989     		ldrh	r1, [r7, #10]
 4712 0142 4FF41053 		mov	r3, #9216
 4713 0146 0093     		str	r3, [sp]
 4714 0148 F868     		ldr	r0, [r7, #12]
 4715 014a 7B69     		ldr	r3, [r7, #20]
 4716 014c FFF7FEFF 		bl	I2C_TransferConfig
2380:../../Drivers/STM32F7xx_HAL_Driver/Src/stm32f7xx_hal_i2c.c ****     
2381:../../Drivers/STM32F7xx_HAL_Driver/Src/stm32f7xx_hal_i2c.c ****     /* Update XferCount value */
2382:../../Drivers/STM32F7xx_HAL_Driver/Src/stm32f7xx_hal_i2c.c ****     hi2c->XferCount -= hi2c->XferSize;
 4717              		.loc 1 2382 0
 4718 0150 FB68     		ldr	r3, [r7, #12]
 4719 0152 5B8D     		ldrh	r3, [r3, #42]	@ movhi
 4720 0154 9AB2     		uxth	r2, r3
 4721 0156 FB68     		ldr	r3, [r7, #12]
 4722 0158 1B8D     		ldrh	r3, [r3, #40]
 4723 015a D31A     		subs	r3, r2, r3
 4724 015c 9AB2     		uxth	r2, r3
 4725 015e FB68     		ldr	r3, [r7, #12]
ARM GAS  /tmp/cczIhzQ0.s 			page 125


 4726 0160 5A85     		strh	r2, [r3, #42]	@ movhi
2383:../../Drivers/STM32F7xx_HAL_Driver/Src/stm32f7xx_hal_i2c.c ****     
2384:../../Drivers/STM32F7xx_HAL_Driver/Src/stm32f7xx_hal_i2c.c ****     /* Process Unlocked */
2385:../../Drivers/STM32F7xx_HAL_Driver/Src/stm32f7xx_hal_i2c.c ****     __HAL_UNLOCK(hi2c);
 4727              		.loc 1 2385 0
 4728 0162 FB68     		ldr	r3, [r7, #12]
 4729 0164 0022     		movs	r2, #0
 4730 0166 83F84020 		strb	r2, [r3, #64]
2386:../../Drivers/STM32F7xx_HAL_Driver/Src/stm32f7xx_hal_i2c.c ****     
2387:../../Drivers/STM32F7xx_HAL_Driver/Src/stm32f7xx_hal_i2c.c ****     /* Enable DMA Request */
2388:../../Drivers/STM32F7xx_HAL_Driver/Src/stm32f7xx_hal_i2c.c ****     hi2c->Instance->CR1 |= I2C_CR1_RXDMAEN;
 4731              		.loc 1 2388 0
 4732 016a FB68     		ldr	r3, [r7, #12]
 4733 016c 1B68     		ldr	r3, [r3]
 4734 016e FA68     		ldr	r2, [r7, #12]
 4735 0170 1268     		ldr	r2, [r2]
 4736 0172 1268     		ldr	r2, [r2]
 4737 0174 42F40042 		orr	r2, r2, #32768
 4738 0178 1A60     		str	r2, [r3]
2389:../../Drivers/STM32F7xx_HAL_Driver/Src/stm32f7xx_hal_i2c.c ****     
2390:../../Drivers/STM32F7xx_HAL_Driver/Src/stm32f7xx_hal_i2c.c ****     /* Note : The I2C interrupts must be enabled after unlocking current process
2391:../../Drivers/STM32F7xx_HAL_Driver/Src/stm32f7xx_hal_i2c.c ****               to avoid the risk of I2C interrupt handle execution before current
2392:../../Drivers/STM32F7xx_HAL_Driver/Src/stm32f7xx_hal_i2c.c ****               process unlock */
2393:../../Drivers/STM32F7xx_HAL_Driver/Src/stm32f7xx_hal_i2c.c ****     /* Enable ERR and NACK interrupts */
2394:../../Drivers/STM32F7xx_HAL_Driver/Src/stm32f7xx_hal_i2c.c ****     I2C_Enable_IRQ(hi2c, I2C_XFER_ERROR_IT);
 4739              		.loc 1 2394 0
 4740 017a F868     		ldr	r0, [r7, #12]
 4741 017c 1121     		movs	r1, #17
 4742 017e FFF7FEFF 		bl	I2C_Enable_IRQ
2395:../../Drivers/STM32F7xx_HAL_Driver/Src/stm32f7xx_hal_i2c.c ****     
2396:../../Drivers/STM32F7xx_HAL_Driver/Src/stm32f7xx_hal_i2c.c ****     return HAL_OK;
 4743              		.loc 1 2396 0
 4744 0182 0023     		movs	r3, #0
 4745 0184 00E0     		b	.L230
 4746              	.L227:
2397:../../Drivers/STM32F7xx_HAL_Driver/Src/stm32f7xx_hal_i2c.c ****   }
2398:../../Drivers/STM32F7xx_HAL_Driver/Src/stm32f7xx_hal_i2c.c ****   else
2399:../../Drivers/STM32F7xx_HAL_Driver/Src/stm32f7xx_hal_i2c.c ****   {
2400:../../Drivers/STM32F7xx_HAL_Driver/Src/stm32f7xx_hal_i2c.c ****     return HAL_BUSY;
 4747              		.loc 1 2400 0
 4748 0186 0223     		movs	r3, #2
 4749              	.L230:
2401:../../Drivers/STM32F7xx_HAL_Driver/Src/stm32f7xx_hal_i2c.c ****   }
2402:../../Drivers/STM32F7xx_HAL_Driver/Src/stm32f7xx_hal_i2c.c **** }
 4750              		.loc 1 2402 0
 4751 0188 1846     		mov	r0, r3
 4752 018a 1C37     		adds	r7, r7, #28
 4753              	.LCFI110:
 4754              		.cfi_def_cfa_offset 12
 4755 018c BD46     		mov	sp, r7
 4756              	.LCFI111:
 4757              		.cfi_def_cfa_register 13
 4758              		@ sp needed
 4759 018e 90BD     		pop	{r4, r7, pc}
 4760              	.L238:
 4761              		.align	2
 4762              	.L237:
ARM GAS  /tmp/cczIhzQ0.s 			page 126


 4763 0190 0000FFFF 		.word	-65536
 4764 0194 00000000 		.word	I2C_Master_ISR_DMA
 4765 0198 00000000 		.word	I2C_DMAMasterReceiveCplt
 4766 019c 00000000 		.word	I2C_DMAError
 4767              		.cfi_endproc
 4768              	.LFE156:
 4770              		.section	.text.HAL_I2C_IsDeviceReady,"ax",%progbits
 4771              		.align	2
 4772              		.global	HAL_I2C_IsDeviceReady
 4773              		.thumb
 4774              		.thumb_func
 4776              	HAL_I2C_IsDeviceReady:
 4777              	.LFB157:
2403:../../Drivers/STM32F7xx_HAL_Driver/Src/stm32f7xx_hal_i2c.c **** 
2404:../../Drivers/STM32F7xx_HAL_Driver/Src/stm32f7xx_hal_i2c.c **** /**
2405:../../Drivers/STM32F7xx_HAL_Driver/Src/stm32f7xx_hal_i2c.c ****   * @brief  Checks if target device is ready for communication.
2406:../../Drivers/STM32F7xx_HAL_Driver/Src/stm32f7xx_hal_i2c.c ****   * @note   This function is used with Memory devices
2407:../../Drivers/STM32F7xx_HAL_Driver/Src/stm32f7xx_hal_i2c.c ****   * @param  hi2c: Pointer to a I2C_HandleTypeDef structure that contains
2408:../../Drivers/STM32F7xx_HAL_Driver/Src/stm32f7xx_hal_i2c.c ****   *               the configuration information for the specified I2C.
2409:../../Drivers/STM32F7xx_HAL_Driver/Src/stm32f7xx_hal_i2c.c ****   * @param  DevAddress: Target device address
2410:../../Drivers/STM32F7xx_HAL_Driver/Src/stm32f7xx_hal_i2c.c ****   * @param  Trials: Number of trials
2411:../../Drivers/STM32F7xx_HAL_Driver/Src/stm32f7xx_hal_i2c.c ****   * @param  Timeout: Timeout duration
2412:../../Drivers/STM32F7xx_HAL_Driver/Src/stm32f7xx_hal_i2c.c ****   * @retval HAL status
2413:../../Drivers/STM32F7xx_HAL_Driver/Src/stm32f7xx_hal_i2c.c ****   */
2414:../../Drivers/STM32F7xx_HAL_Driver/Src/stm32f7xx_hal_i2c.c **** HAL_StatusTypeDef HAL_I2C_IsDeviceReady(I2C_HandleTypeDef *hi2c, uint16_t DevAddress, uint32_t Tria
2415:../../Drivers/STM32F7xx_HAL_Driver/Src/stm32f7xx_hal_i2c.c **** {  
 4778              		.loc 1 2415 0
 4779              		.cfi_startproc
 4780              		@ args = 0, pretend = 0, frame = 24
 4781              		@ frame_needed = 1, uses_anonymous_args = 0
 4782 0000 80B5     		push	{r7, lr}
 4783              	.LCFI112:
 4784              		.cfi_def_cfa_offset 8
 4785              		.cfi_offset 7, -8
 4786              		.cfi_offset 14, -4
 4787 0002 88B0     		sub	sp, sp, #32
 4788              	.LCFI113:
 4789              		.cfi_def_cfa_offset 40
 4790 0004 02AF     		add	r7, sp, #8
 4791              	.LCFI114:
 4792              		.cfi_def_cfa 7, 32
 4793 0006 F860     		str	r0, [r7, #12]
 4794 0008 7A60     		str	r2, [r7, #4]
 4795 000a 3B60     		str	r3, [r7]
 4796 000c 0B46     		mov	r3, r1	@ movhi
 4797 000e 7B81     		strh	r3, [r7, #10]	@ movhi
2416:../../Drivers/STM32F7xx_HAL_Driver/Src/stm32f7xx_hal_i2c.c ****   uint32_t tickstart = 0;
 4798              		.loc 1 2416 0
 4799 0010 0023     		movs	r3, #0
 4800 0012 7B61     		str	r3, [r7, #20]
2417:../../Drivers/STM32F7xx_HAL_Driver/Src/stm32f7xx_hal_i2c.c ****   
2418:../../Drivers/STM32F7xx_HAL_Driver/Src/stm32f7xx_hal_i2c.c ****   __IO uint32_t I2C_Trials = 0;
 4801              		.loc 1 2418 0
 4802 0014 0023     		movs	r3, #0
 4803 0016 3B61     		str	r3, [r7, #16]
2419:../../Drivers/STM32F7xx_HAL_Driver/Src/stm32f7xx_hal_i2c.c ****   
2420:../../Drivers/STM32F7xx_HAL_Driver/Src/stm32f7xx_hal_i2c.c ****   if(hi2c->State == HAL_I2C_STATE_READY)
ARM GAS  /tmp/cczIhzQ0.s 			page 127


 4804              		.loc 1 2420 0
 4805 0018 FB68     		ldr	r3, [r7, #12]
 4806 001a 93F84130 		ldrb	r3, [r3, #65]
 4807 001e DBB2     		uxtb	r3, r3
 4808 0020 202B     		cmp	r3, #32
 4809 0022 40F0C380 		bne	.L240
2421:../../Drivers/STM32F7xx_HAL_Driver/Src/stm32f7xx_hal_i2c.c ****   {
2422:../../Drivers/STM32F7xx_HAL_Driver/Src/stm32f7xx_hal_i2c.c ****     if(__HAL_I2C_GET_FLAG(hi2c, I2C_FLAG_BUSY) == SET)
 4810              		.loc 1 2422 0
 4811 0026 FB68     		ldr	r3, [r7, #12]
 4812 0028 1B68     		ldr	r3, [r3]
 4813 002a 9B69     		ldr	r3, [r3, #24]
 4814 002c 03F40043 		and	r3, r3, #32768
 4815 0030 002B     		cmp	r3, #0
 4816 0032 01D0     		beq	.L241
2423:../../Drivers/STM32F7xx_HAL_Driver/Src/stm32f7xx_hal_i2c.c ****     {
2424:../../Drivers/STM32F7xx_HAL_Driver/Src/stm32f7xx_hal_i2c.c ****       return HAL_BUSY;
 4817              		.loc 1 2424 0
 4818 0034 0223     		movs	r3, #2
 4819 0036 BAE0     		b	.L242
 4820              	.L241:
2425:../../Drivers/STM32F7xx_HAL_Driver/Src/stm32f7xx_hal_i2c.c ****     }
2426:../../Drivers/STM32F7xx_HAL_Driver/Src/stm32f7xx_hal_i2c.c ****     
2427:../../Drivers/STM32F7xx_HAL_Driver/Src/stm32f7xx_hal_i2c.c ****     /* Process Locked */
2428:../../Drivers/STM32F7xx_HAL_Driver/Src/stm32f7xx_hal_i2c.c ****     __HAL_LOCK(hi2c);
 4821              		.loc 1 2428 0
 4822 0038 FB68     		ldr	r3, [r7, #12]
 4823 003a 93F84030 		ldrb	r3, [r3, #64]	@ zero_extendqisi2
 4824 003e 012B     		cmp	r3, #1
 4825 0040 01D1     		bne	.L243
 4826              		.loc 1 2428 0 is_stmt 0 discriminator 1
 4827 0042 0223     		movs	r3, #2
 4828 0044 B3E0     		b	.L242
 4829              	.L243:
 4830              		.loc 1 2428 0 discriminator 2
 4831 0046 FB68     		ldr	r3, [r7, #12]
 4832 0048 0122     		movs	r2, #1
 4833 004a 83F84020 		strb	r2, [r3, #64]
2429:../../Drivers/STM32F7xx_HAL_Driver/Src/stm32f7xx_hal_i2c.c ****     
2430:../../Drivers/STM32F7xx_HAL_Driver/Src/stm32f7xx_hal_i2c.c ****     hi2c->State = HAL_I2C_STATE_BUSY;
 4834              		.loc 1 2430 0 is_stmt 1 discriminator 2
 4835 004e FB68     		ldr	r3, [r7, #12]
 4836 0050 2422     		movs	r2, #36
 4837 0052 83F84120 		strb	r2, [r3, #65]
2431:../../Drivers/STM32F7xx_HAL_Driver/Src/stm32f7xx_hal_i2c.c ****     hi2c->ErrorCode = HAL_I2C_ERROR_NONE;
 4838              		.loc 1 2431 0 discriminator 2
 4839 0056 FB68     		ldr	r3, [r7, #12]
 4840 0058 0022     		movs	r2, #0
 4841 005a 5A64     		str	r2, [r3, #68]
 4842              	.L255:
2432:../../Drivers/STM32F7xx_HAL_Driver/Src/stm32f7xx_hal_i2c.c ****     
2433:../../Drivers/STM32F7xx_HAL_Driver/Src/stm32f7xx_hal_i2c.c ****     do
2434:../../Drivers/STM32F7xx_HAL_Driver/Src/stm32f7xx_hal_i2c.c ****     {
2435:../../Drivers/STM32F7xx_HAL_Driver/Src/stm32f7xx_hal_i2c.c ****       /* Generate Start */
2436:../../Drivers/STM32F7xx_HAL_Driver/Src/stm32f7xx_hal_i2c.c ****       hi2c->Instance->CR2 = I2C_GENERATE_START(hi2c->Init.AddressingMode,DevAddress);
 4843              		.loc 1 2436 0
 4844 005c FB68     		ldr	r3, [r7, #12]
ARM GAS  /tmp/cczIhzQ0.s 			page 128


 4845 005e 1A68     		ldr	r2, [r3]
 4846 0060 FB68     		ldr	r3, [r7, #12]
 4847 0062 DB68     		ldr	r3, [r3, #12]
 4848 0064 012B     		cmp	r3, #1
 4849 0066 05D1     		bne	.L244
 4850              		.loc 1 2436 0 is_stmt 0 discriminator 1
 4851 0068 7B89     		ldrh	r3, [r7, #10]
 4852 006a C3F30901 		ubfx	r1, r3, #0, #10
 4853 006e 524B     		ldr	r3, .L256
 4854 0070 0B43     		orrs	r3, r3, r1
 4855 0072 04E0     		b	.L245
 4856              	.L244:
 4857              		.loc 1 2436 0 discriminator 2
 4858 0074 7B89     		ldrh	r3, [r7, #10]
 4859 0076 C3F30903 		ubfx	r3, r3, #0, #10
 4860 007a 43F42053 		orr	r3, r3, #10240
 4861              	.L245:
 4862              		.loc 1 2436 0 discriminator 4
 4863 007e 5360     		str	r3, [r2, #4]
2437:../../Drivers/STM32F7xx_HAL_Driver/Src/stm32f7xx_hal_i2c.c ****       
2438:../../Drivers/STM32F7xx_HAL_Driver/Src/stm32f7xx_hal_i2c.c ****       /* No need to Check TC flag, with AUTOEND mode the stop is automatically generated */
2439:../../Drivers/STM32F7xx_HAL_Driver/Src/stm32f7xx_hal_i2c.c ****       /* Wait until STOPF flag is set or a NACK flag is set*/
2440:../../Drivers/STM32F7xx_HAL_Driver/Src/stm32f7xx_hal_i2c.c ****       tickstart = HAL_GetTick();
 4864              		.loc 1 2440 0 is_stmt 1 discriminator 4
 4865 0080 FFF7FEFF 		bl	HAL_GetTick
 4866 0084 7861     		str	r0, [r7, #20]
2441:../../Drivers/STM32F7xx_HAL_Driver/Src/stm32f7xx_hal_i2c.c ****       while((__HAL_I2C_GET_FLAG(hi2c, I2C_FLAG_STOPF) == RESET) && (__HAL_I2C_GET_FLAG(hi2c, I2C_FL
 4867              		.loc 1 2441 0 discriminator 4
 4868 0086 18E0     		b	.L246
 4869              	.L249:
2442:../../Drivers/STM32F7xx_HAL_Driver/Src/stm32f7xx_hal_i2c.c ****       {
2443:../../Drivers/STM32F7xx_HAL_Driver/Src/stm32f7xx_hal_i2c.c ****       	if(Timeout != HAL_MAX_DELAY)
 4870              		.loc 1 2443 0
 4871 0088 3B68     		ldr	r3, [r7]
 4872 008a B3F1FF3F 		cmp	r3, #-1
 4873 008e 14D0     		beq	.L246
2444:../../Drivers/STM32F7xx_HAL_Driver/Src/stm32f7xx_hal_i2c.c ****       	{
2445:../../Drivers/STM32F7xx_HAL_Driver/Src/stm32f7xx_hal_i2c.c ****           if((Timeout == 0)||((HAL_GetTick() - tickstart ) > Timeout))
 4874              		.loc 1 2445 0
 4875 0090 3B68     		ldr	r3, [r7]
 4876 0092 002B     		cmp	r3, #0
 4877 0094 07D0     		beq	.L247
 4878              		.loc 1 2445 0 is_stmt 0 discriminator 1
 4879 0096 FFF7FEFF 		bl	HAL_GetTick
 4880 009a 0246     		mov	r2, r0
 4881 009c 7B69     		ldr	r3, [r7, #20]
 4882 009e D21A     		subs	r2, r2, r3
 4883 00a0 3B68     		ldr	r3, [r7]
 4884 00a2 9A42     		cmp	r2, r3
 4885 00a4 09D9     		bls	.L246
 4886              	.L247:
2446:../../Drivers/STM32F7xx_HAL_Driver/Src/stm32f7xx_hal_i2c.c ****           {
2447:../../Drivers/STM32F7xx_HAL_Driver/Src/stm32f7xx_hal_i2c.c ****             /* Device is ready */
2448:../../Drivers/STM32F7xx_HAL_Driver/Src/stm32f7xx_hal_i2c.c ****             hi2c->State = HAL_I2C_STATE_READY;
 4887              		.loc 1 2448 0 is_stmt 1
 4888 00a6 FB68     		ldr	r3, [r7, #12]
 4889 00a8 2022     		movs	r2, #32
ARM GAS  /tmp/cczIhzQ0.s 			page 129


 4890 00aa 83F84120 		strb	r2, [r3, #65]
2449:../../Drivers/STM32F7xx_HAL_Driver/Src/stm32f7xx_hal_i2c.c ****             /* Process Unlocked */
2450:../../Drivers/STM32F7xx_HAL_Driver/Src/stm32f7xx_hal_i2c.c ****             __HAL_UNLOCK(hi2c);
 4891              		.loc 1 2450 0
 4892 00ae FB68     		ldr	r3, [r7, #12]
 4893 00b0 0022     		movs	r2, #0
 4894 00b2 83F84020 		strb	r2, [r3, #64]
2451:../../Drivers/STM32F7xx_HAL_Driver/Src/stm32f7xx_hal_i2c.c ****             return HAL_TIMEOUT;
 4895              		.loc 1 2451 0
 4896 00b6 0323     		movs	r3, #3
 4897 00b8 79E0     		b	.L242
 4898              	.L246:
2441:../../Drivers/STM32F7xx_HAL_Driver/Src/stm32f7xx_hal_i2c.c ****       {
 4899              		.loc 1 2441 0
 4900 00ba FB68     		ldr	r3, [r7, #12]
 4901 00bc 1B68     		ldr	r3, [r3]
 4902 00be 9B69     		ldr	r3, [r3, #24]
 4903 00c0 03F02003 		and	r3, r3, #32
 4904 00c4 002B     		cmp	r3, #0
 4905 00c6 0CD1     		bne	.L248
2441:../../Drivers/STM32F7xx_HAL_Driver/Src/stm32f7xx_hal_i2c.c ****       {
 4906              		.loc 1 2441 0 is_stmt 0 discriminator 1
 4907 00c8 FB68     		ldr	r3, [r7, #12]
 4908 00ca 1B68     		ldr	r3, [r3]
 4909 00cc 9B69     		ldr	r3, [r3, #24]
 4910 00ce 03F01003 		and	r3, r3, #16
 4911 00d2 002B     		cmp	r3, #0
 4912 00d4 05D1     		bne	.L248
2441:../../Drivers/STM32F7xx_HAL_Driver/Src/stm32f7xx_hal_i2c.c ****       {
 4913              		.loc 1 2441 0 discriminator 2
 4914 00d6 FB68     		ldr	r3, [r7, #12]
 4915 00d8 93F84130 		ldrb	r3, [r3, #65]
 4916 00dc DBB2     		uxtb	r3, r3
 4917 00de A02B     		cmp	r3, #160
 4918 00e0 D2D1     		bne	.L249
 4919              	.L248:
2452:../../Drivers/STM32F7xx_HAL_Driver/Src/stm32f7xx_hal_i2c.c ****           }
2453:../../Drivers/STM32F7xx_HAL_Driver/Src/stm32f7xx_hal_i2c.c ****         } 
2454:../../Drivers/STM32F7xx_HAL_Driver/Src/stm32f7xx_hal_i2c.c ****       }
2455:../../Drivers/STM32F7xx_HAL_Driver/Src/stm32f7xx_hal_i2c.c ****       
2456:../../Drivers/STM32F7xx_HAL_Driver/Src/stm32f7xx_hal_i2c.c ****       /* Check if the NACKF flag has not been set */
2457:../../Drivers/STM32F7xx_HAL_Driver/Src/stm32f7xx_hal_i2c.c ****       if (__HAL_I2C_GET_FLAG(hi2c, I2C_FLAG_AF) == RESET)
 4920              		.loc 1 2457 0 is_stmt 1
 4921 00e2 FB68     		ldr	r3, [r7, #12]
 4922 00e4 1B68     		ldr	r3, [r3]
 4923 00e6 9B69     		ldr	r3, [r3, #24]
 4924 00e8 03F01003 		and	r3, r3, #16
 4925 00ec 002B     		cmp	r3, #0
 4926 00ee 1AD1     		bne	.L250
2458:../../Drivers/STM32F7xx_HAL_Driver/Src/stm32f7xx_hal_i2c.c ****       {
2459:../../Drivers/STM32F7xx_HAL_Driver/Src/stm32f7xx_hal_i2c.c ****         /* Wait until STOPF flag is reset */ 
2460:../../Drivers/STM32F7xx_HAL_Driver/Src/stm32f7xx_hal_i2c.c ****         if(I2C_WaitOnFlagUntilTimeout(hi2c, I2C_FLAG_STOPF, RESET, Timeout, tickstart) != HAL_OK)
 4927              		.loc 1 2460 0
 4928 00f0 7B69     		ldr	r3, [r7, #20]
 4929 00f2 0093     		str	r3, [sp]
 4930 00f4 F868     		ldr	r0, [r7, #12]
 4931 00f6 2021     		movs	r1, #32
ARM GAS  /tmp/cczIhzQ0.s 			page 130


 4932 00f8 0022     		movs	r2, #0
 4933 00fa 3B68     		ldr	r3, [r7]
 4934 00fc FFF7FEFF 		bl	I2C_WaitOnFlagUntilTimeout
 4935 0100 0346     		mov	r3, r0
 4936 0102 002B     		cmp	r3, #0
 4937 0104 01D0     		beq	.L251
2461:../../Drivers/STM32F7xx_HAL_Driver/Src/stm32f7xx_hal_i2c.c ****         {
2462:../../Drivers/STM32F7xx_HAL_Driver/Src/stm32f7xx_hal_i2c.c ****           return HAL_TIMEOUT;
 4938              		.loc 1 2462 0
 4939 0106 0323     		movs	r3, #3
 4940 0108 51E0     		b	.L242
 4941              	.L251:
2463:../../Drivers/STM32F7xx_HAL_Driver/Src/stm32f7xx_hal_i2c.c ****         }
2464:../../Drivers/STM32F7xx_HAL_Driver/Src/stm32f7xx_hal_i2c.c ****         
2465:../../Drivers/STM32F7xx_HAL_Driver/Src/stm32f7xx_hal_i2c.c ****         /* Clear STOP Flag */
2466:../../Drivers/STM32F7xx_HAL_Driver/Src/stm32f7xx_hal_i2c.c ****         __HAL_I2C_CLEAR_FLAG(hi2c, I2C_FLAG_STOPF);
 4942              		.loc 1 2466 0
 4943 010a FB68     		ldr	r3, [r7, #12]
 4944 010c 1B68     		ldr	r3, [r3]
 4945 010e 2022     		movs	r2, #32
 4946 0110 DA61     		str	r2, [r3, #28]
2467:../../Drivers/STM32F7xx_HAL_Driver/Src/stm32f7xx_hal_i2c.c ****         
2468:../../Drivers/STM32F7xx_HAL_Driver/Src/stm32f7xx_hal_i2c.c ****         /* Device is ready */
2469:../../Drivers/STM32F7xx_HAL_Driver/Src/stm32f7xx_hal_i2c.c ****         hi2c->State = HAL_I2C_STATE_READY;
 4947              		.loc 1 2469 0
 4948 0112 FB68     		ldr	r3, [r7, #12]
 4949 0114 2022     		movs	r2, #32
 4950 0116 83F84120 		strb	r2, [r3, #65]
2470:../../Drivers/STM32F7xx_HAL_Driver/Src/stm32f7xx_hal_i2c.c ****         
2471:../../Drivers/STM32F7xx_HAL_Driver/Src/stm32f7xx_hal_i2c.c ****         /* Process Unlocked */
2472:../../Drivers/STM32F7xx_HAL_Driver/Src/stm32f7xx_hal_i2c.c ****         __HAL_UNLOCK(hi2c);
 4951              		.loc 1 2472 0
 4952 011a FB68     		ldr	r3, [r7, #12]
 4953 011c 0022     		movs	r2, #0
 4954 011e 83F84020 		strb	r2, [r3, #64]
2473:../../Drivers/STM32F7xx_HAL_Driver/Src/stm32f7xx_hal_i2c.c ****         
2474:../../Drivers/STM32F7xx_HAL_Driver/Src/stm32f7xx_hal_i2c.c ****         return HAL_OK;
 4955              		.loc 1 2474 0
 4956 0122 0023     		movs	r3, #0
 4957 0124 43E0     		b	.L242
 4958              	.L250:
2475:../../Drivers/STM32F7xx_HAL_Driver/Src/stm32f7xx_hal_i2c.c ****       }
2476:../../Drivers/STM32F7xx_HAL_Driver/Src/stm32f7xx_hal_i2c.c ****       else
2477:../../Drivers/STM32F7xx_HAL_Driver/Src/stm32f7xx_hal_i2c.c ****       {
2478:../../Drivers/STM32F7xx_HAL_Driver/Src/stm32f7xx_hal_i2c.c ****         /* Wait until STOPF flag is reset */ 
2479:../../Drivers/STM32F7xx_HAL_Driver/Src/stm32f7xx_hal_i2c.c ****         if(I2C_WaitOnFlagUntilTimeout(hi2c, I2C_FLAG_STOPF, RESET, Timeout, tickstart) != HAL_OK)
 4959              		.loc 1 2479 0
 4960 0126 7B69     		ldr	r3, [r7, #20]
 4961 0128 0093     		str	r3, [sp]
 4962 012a F868     		ldr	r0, [r7, #12]
 4963 012c 2021     		movs	r1, #32
 4964 012e 0022     		movs	r2, #0
 4965 0130 3B68     		ldr	r3, [r7]
 4966 0132 FFF7FEFF 		bl	I2C_WaitOnFlagUntilTimeout
 4967 0136 0346     		mov	r3, r0
 4968 0138 002B     		cmp	r3, #0
 4969 013a 01D0     		beq	.L252
ARM GAS  /tmp/cczIhzQ0.s 			page 131


2480:../../Drivers/STM32F7xx_HAL_Driver/Src/stm32f7xx_hal_i2c.c ****         {
2481:../../Drivers/STM32F7xx_HAL_Driver/Src/stm32f7xx_hal_i2c.c ****           return HAL_TIMEOUT;
 4970              		.loc 1 2481 0
 4971 013c 0323     		movs	r3, #3
 4972 013e 36E0     		b	.L242
 4973              	.L252:
2482:../../Drivers/STM32F7xx_HAL_Driver/Src/stm32f7xx_hal_i2c.c ****         }
2483:../../Drivers/STM32F7xx_HAL_Driver/Src/stm32f7xx_hal_i2c.c ****         
2484:../../Drivers/STM32F7xx_HAL_Driver/Src/stm32f7xx_hal_i2c.c ****         /* Clear NACK Flag */
2485:../../Drivers/STM32F7xx_HAL_Driver/Src/stm32f7xx_hal_i2c.c ****         __HAL_I2C_CLEAR_FLAG(hi2c, I2C_FLAG_AF);
 4974              		.loc 1 2485 0
 4975 0140 FB68     		ldr	r3, [r7, #12]
 4976 0142 1B68     		ldr	r3, [r3]
 4977 0144 1022     		movs	r2, #16
 4978 0146 DA61     		str	r2, [r3, #28]
2486:../../Drivers/STM32F7xx_HAL_Driver/Src/stm32f7xx_hal_i2c.c ****         
2487:../../Drivers/STM32F7xx_HAL_Driver/Src/stm32f7xx_hal_i2c.c ****         /* Clear STOP Flag, auto generated with autoend*/
2488:../../Drivers/STM32F7xx_HAL_Driver/Src/stm32f7xx_hal_i2c.c ****         __HAL_I2C_CLEAR_FLAG(hi2c, I2C_FLAG_STOPF);
 4979              		.loc 1 2488 0
 4980 0148 FB68     		ldr	r3, [r7, #12]
 4981 014a 1B68     		ldr	r3, [r3]
 4982 014c 2022     		movs	r2, #32
 4983 014e DA61     		str	r2, [r3, #28]
2489:../../Drivers/STM32F7xx_HAL_Driver/Src/stm32f7xx_hal_i2c.c ****       }
2490:../../Drivers/STM32F7xx_HAL_Driver/Src/stm32f7xx_hal_i2c.c ****       
2491:../../Drivers/STM32F7xx_HAL_Driver/Src/stm32f7xx_hal_i2c.c ****       /* Check if the maximum allowed number of trials has been reached */
2492:../../Drivers/STM32F7xx_HAL_Driver/Src/stm32f7xx_hal_i2c.c ****       if (I2C_Trials++ == Trials)
 4984              		.loc 1 2492 0
 4985 0150 3B69     		ldr	r3, [r7, #16]
 4986 0152 5A1C     		adds	r2, r3, #1
 4987 0154 3A61     		str	r2, [r7, #16]
 4988 0156 7A68     		ldr	r2, [r7, #4]
 4989 0158 9342     		cmp	r3, r2
 4990 015a 18D1     		bne	.L253
2493:../../Drivers/STM32F7xx_HAL_Driver/Src/stm32f7xx_hal_i2c.c ****       {
2494:../../Drivers/STM32F7xx_HAL_Driver/Src/stm32f7xx_hal_i2c.c ****         /* Generate Stop */
2495:../../Drivers/STM32F7xx_HAL_Driver/Src/stm32f7xx_hal_i2c.c ****         hi2c->Instance->CR2 |= I2C_CR2_STOP;
 4991              		.loc 1 2495 0
 4992 015c FB68     		ldr	r3, [r7, #12]
 4993 015e 1B68     		ldr	r3, [r3]
 4994 0160 FA68     		ldr	r2, [r7, #12]
 4995 0162 1268     		ldr	r2, [r2]
 4996 0164 5268     		ldr	r2, [r2, #4]
 4997 0166 42F48042 		orr	r2, r2, #16384
 4998 016a 5A60     		str	r2, [r3, #4]
2496:../../Drivers/STM32F7xx_HAL_Driver/Src/stm32f7xx_hal_i2c.c ****         
2497:../../Drivers/STM32F7xx_HAL_Driver/Src/stm32f7xx_hal_i2c.c ****         /* Wait until STOPF flag is reset */ 
2498:../../Drivers/STM32F7xx_HAL_Driver/Src/stm32f7xx_hal_i2c.c ****         if(I2C_WaitOnFlagUntilTimeout(hi2c, I2C_FLAG_STOPF, RESET, Timeout, tickstart) != HAL_OK)
 4999              		.loc 1 2498 0
 5000 016c 7B69     		ldr	r3, [r7, #20]
 5001 016e 0093     		str	r3, [sp]
 5002 0170 F868     		ldr	r0, [r7, #12]
 5003 0172 2021     		movs	r1, #32
 5004 0174 0022     		movs	r2, #0
 5005 0176 3B68     		ldr	r3, [r7]
 5006 0178 FFF7FEFF 		bl	I2C_WaitOnFlagUntilTimeout
 5007 017c 0346     		mov	r3, r0
ARM GAS  /tmp/cczIhzQ0.s 			page 132


 5008 017e 002B     		cmp	r3, #0
 5009 0180 01D0     		beq	.L254
2499:../../Drivers/STM32F7xx_HAL_Driver/Src/stm32f7xx_hal_i2c.c ****         {
2500:../../Drivers/STM32F7xx_HAL_Driver/Src/stm32f7xx_hal_i2c.c ****           return HAL_TIMEOUT;
 5010              		.loc 1 2500 0
 5011 0182 0323     		movs	r3, #3
 5012 0184 13E0     		b	.L242
 5013              	.L254:
2501:../../Drivers/STM32F7xx_HAL_Driver/Src/stm32f7xx_hal_i2c.c ****         }
2502:../../Drivers/STM32F7xx_HAL_Driver/Src/stm32f7xx_hal_i2c.c ****         
2503:../../Drivers/STM32F7xx_HAL_Driver/Src/stm32f7xx_hal_i2c.c ****         /* Clear STOP Flag */
2504:../../Drivers/STM32F7xx_HAL_Driver/Src/stm32f7xx_hal_i2c.c ****         __HAL_I2C_CLEAR_FLAG(hi2c, I2C_FLAG_STOPF);
 5014              		.loc 1 2504 0
 5015 0186 FB68     		ldr	r3, [r7, #12]
 5016 0188 1B68     		ldr	r3, [r3]
 5017 018a 2022     		movs	r2, #32
 5018 018c DA61     		str	r2, [r3, #28]
 5019              	.L253:
2505:../../Drivers/STM32F7xx_HAL_Driver/Src/stm32f7xx_hal_i2c.c ****       }
2506:../../Drivers/STM32F7xx_HAL_Driver/Src/stm32f7xx_hal_i2c.c ****     }while(I2C_Trials < Trials);
 5020              		.loc 1 2506 0
 5021 018e 3A69     		ldr	r2, [r7, #16]
 5022 0190 7B68     		ldr	r3, [r7, #4]
 5023 0192 9A42     		cmp	r2, r3
 5024 0194 FFF462AF 		bcc	.L255
2507:../../Drivers/STM32F7xx_HAL_Driver/Src/stm32f7xx_hal_i2c.c ****     
2508:../../Drivers/STM32F7xx_HAL_Driver/Src/stm32f7xx_hal_i2c.c ****     hi2c->State = HAL_I2C_STATE_READY;
 5025              		.loc 1 2508 0
 5026 0198 FB68     		ldr	r3, [r7, #12]
 5027 019a 2022     		movs	r2, #32
 5028 019c 83F84120 		strb	r2, [r3, #65]
2509:../../Drivers/STM32F7xx_HAL_Driver/Src/stm32f7xx_hal_i2c.c ****     
2510:../../Drivers/STM32F7xx_HAL_Driver/Src/stm32f7xx_hal_i2c.c ****     /* Process Unlocked */
2511:../../Drivers/STM32F7xx_HAL_Driver/Src/stm32f7xx_hal_i2c.c ****     __HAL_UNLOCK(hi2c);
 5029              		.loc 1 2511 0
 5030 01a0 FB68     		ldr	r3, [r7, #12]
 5031 01a2 0022     		movs	r2, #0
 5032 01a4 83F84020 		strb	r2, [r3, #64]
2512:../../Drivers/STM32F7xx_HAL_Driver/Src/stm32f7xx_hal_i2c.c ****     
2513:../../Drivers/STM32F7xx_HAL_Driver/Src/stm32f7xx_hal_i2c.c ****     return HAL_TIMEOUT;
 5033              		.loc 1 2513 0
 5034 01a8 0323     		movs	r3, #3
 5035 01aa 00E0     		b	.L242
 5036              	.L240:
2514:../../Drivers/STM32F7xx_HAL_Driver/Src/stm32f7xx_hal_i2c.c ****   }
2515:../../Drivers/STM32F7xx_HAL_Driver/Src/stm32f7xx_hal_i2c.c ****   else
2516:../../Drivers/STM32F7xx_HAL_Driver/Src/stm32f7xx_hal_i2c.c ****   {
2517:../../Drivers/STM32F7xx_HAL_Driver/Src/stm32f7xx_hal_i2c.c ****     return HAL_BUSY;
 5037              		.loc 1 2517 0
 5038 01ac 0223     		movs	r3, #2
 5039              	.L242:
2518:../../Drivers/STM32F7xx_HAL_Driver/Src/stm32f7xx_hal_i2c.c ****   }
2519:../../Drivers/STM32F7xx_HAL_Driver/Src/stm32f7xx_hal_i2c.c **** }
 5040              		.loc 1 2519 0
 5041 01ae 1846     		mov	r0, r3
 5042 01b0 1837     		adds	r7, r7, #24
 5043              	.LCFI115:
ARM GAS  /tmp/cczIhzQ0.s 			page 133


 5044              		.cfi_def_cfa_offset 8
 5045 01b2 BD46     		mov	sp, r7
 5046              	.LCFI116:
 5047              		.cfi_def_cfa_register 13
 5048              		@ sp needed
 5049 01b4 80BD     		pop	{r7, pc}
 5050              	.L257:
 5051 01b6 00BF     		.align	2
 5052              	.L256:
 5053 01b8 00200002 		.word	33562624
 5054              		.cfi_endproc
 5055              	.LFE157:
 5057              		.section	.text.HAL_I2C_Master_Sequential_Transmit_IT,"ax",%progbits
 5058              		.align	2
 5059              		.global	HAL_I2C_Master_Sequential_Transmit_IT
 5060              		.thumb
 5061              		.thumb_func
 5063              	HAL_I2C_Master_Sequential_Transmit_IT:
 5064              	.LFB158:
2520:../../Drivers/STM32F7xx_HAL_Driver/Src/stm32f7xx_hal_i2c.c **** 
2521:../../Drivers/STM32F7xx_HAL_Driver/Src/stm32f7xx_hal_i2c.c **** /**
2522:../../Drivers/STM32F7xx_HAL_Driver/Src/stm32f7xx_hal_i2c.c ****   * @brief  Sequential transmit in master I2C mode an amount of data in non-blocking mode with Inte
2523:../../Drivers/STM32F7xx_HAL_Driver/Src/stm32f7xx_hal_i2c.c ****   * @note   This interface allow to manage repeated start condition when a direction change during 
2524:../../Drivers/STM32F7xx_HAL_Driver/Src/stm32f7xx_hal_i2c.c ****   * @param  hi2c: Pointer to a I2C_HandleTypeDef structure that contains
2525:../../Drivers/STM32F7xx_HAL_Driver/Src/stm32f7xx_hal_i2c.c ****   *               the configuration information for the specified I2C.
2526:../../Drivers/STM32F7xx_HAL_Driver/Src/stm32f7xx_hal_i2c.c ****   * @param  DevAddress: Target device address. The device 7 bits address value
2527:../../Drivers/STM32F7xx_HAL_Driver/Src/stm32f7xx_hal_i2c.c ****   *         in datasheet must be shift at right before call interface
2528:../../Drivers/STM32F7xx_HAL_Driver/Src/stm32f7xx_hal_i2c.c ****   * @param  pData: Pointer to data buffer
2529:../../Drivers/STM32F7xx_HAL_Driver/Src/stm32f7xx_hal_i2c.c ****   * @param  Size: Amount of data to be sent
2530:../../Drivers/STM32F7xx_HAL_Driver/Src/stm32f7xx_hal_i2c.c ****   * @param  XferOptions: Options of Transfer, value of @ref I2C_XFEROPTIONS
2531:../../Drivers/STM32F7xx_HAL_Driver/Src/stm32f7xx_hal_i2c.c ****   * @retval HAL status
2532:../../Drivers/STM32F7xx_HAL_Driver/Src/stm32f7xx_hal_i2c.c ****   */
2533:../../Drivers/STM32F7xx_HAL_Driver/Src/stm32f7xx_hal_i2c.c **** HAL_StatusTypeDef HAL_I2C_Master_Sequential_Transmit_IT(I2C_HandleTypeDef *hi2c, uint16_t DevAddres
2534:../../Drivers/STM32F7xx_HAL_Driver/Src/stm32f7xx_hal_i2c.c **** {
 5065              		.loc 1 2534 0
 5066              		.cfi_startproc
 5067              		@ args = 4, pretend = 0, frame = 24
 5068              		@ frame_needed = 1, uses_anonymous_args = 0
 5069 0000 80B5     		push	{r7, lr}
 5070              	.LCFI117:
 5071              		.cfi_def_cfa_offset 8
 5072              		.cfi_offset 7, -8
 5073              		.cfi_offset 14, -4
 5074 0002 88B0     		sub	sp, sp, #32
 5075              	.LCFI118:
 5076              		.cfi_def_cfa_offset 40
 5077 0004 02AF     		add	r7, sp, #8
 5078              	.LCFI119:
 5079              		.cfi_def_cfa 7, 32
 5080 0006 F860     		str	r0, [r7, #12]
 5081 0008 7A60     		str	r2, [r7, #4]
 5082 000a 1A46     		mov	r2, r3
 5083 000c 0B46     		mov	r3, r1	@ movhi
 5084 000e 7B81     		strh	r3, [r7, #10]	@ movhi
 5085 0010 1346     		mov	r3, r2	@ movhi
 5086 0012 3B81     		strh	r3, [r7, #8]	@ movhi
2535:../../Drivers/STM32F7xx_HAL_Driver/Src/stm32f7xx_hal_i2c.c ****   uint32_t xfermode = 0;
ARM GAS  /tmp/cczIhzQ0.s 			page 134


 5087              		.loc 1 2535 0
 5088 0014 0023     		movs	r3, #0
 5089 0016 7B61     		str	r3, [r7, #20]
2536:../../Drivers/STM32F7xx_HAL_Driver/Src/stm32f7xx_hal_i2c.c ****   uint32_t xferrequest = I2C_GENERATE_START_WRITE;
 5090              		.loc 1 2536 0
 5091 0018 4FF40053 		mov	r3, #8192
 5092 001c 3B61     		str	r3, [r7, #16]
2537:../../Drivers/STM32F7xx_HAL_Driver/Src/stm32f7xx_hal_i2c.c ****   
2538:../../Drivers/STM32F7xx_HAL_Driver/Src/stm32f7xx_hal_i2c.c ****   /* Check the parameters */
2539:../../Drivers/STM32F7xx_HAL_Driver/Src/stm32f7xx_hal_i2c.c ****   assert_param(IS_I2C_TRANSFER_OPTIONS_REQUEST(XferOptions));
2540:../../Drivers/STM32F7xx_HAL_Driver/Src/stm32f7xx_hal_i2c.c ****   
2541:../../Drivers/STM32F7xx_HAL_Driver/Src/stm32f7xx_hal_i2c.c ****   if(hi2c->State == HAL_I2C_STATE_READY)
 5093              		.loc 1 2541 0
 5094 001e FB68     		ldr	r3, [r7, #12]
 5095 0020 93F84130 		ldrb	r3, [r3, #65]
 5096 0024 DBB2     		uxtb	r3, r3
 5097 0026 202B     		cmp	r3, #32
 5098 0028 4FD1     		bne	.L259
2542:../../Drivers/STM32F7xx_HAL_Driver/Src/stm32f7xx_hal_i2c.c ****   {
2543:../../Drivers/STM32F7xx_HAL_Driver/Src/stm32f7xx_hal_i2c.c ****     /* Process Locked */
2544:../../Drivers/STM32F7xx_HAL_Driver/Src/stm32f7xx_hal_i2c.c ****     __HAL_LOCK(hi2c);
 5099              		.loc 1 2544 0
 5100 002a FB68     		ldr	r3, [r7, #12]
 5101 002c 93F84030 		ldrb	r3, [r3, #64]	@ zero_extendqisi2
 5102 0030 012B     		cmp	r3, #1
 5103 0032 01D1     		bne	.L260
 5104              		.loc 1 2544 0 is_stmt 0 discriminator 1
 5105 0034 0223     		movs	r3, #2
 5106 0036 49E0     		b	.L261
 5107              	.L260:
 5108              		.loc 1 2544 0 discriminator 2
 5109 0038 FB68     		ldr	r3, [r7, #12]
 5110 003a 0122     		movs	r2, #1
 5111 003c 83F84020 		strb	r2, [r3, #64]
2545:../../Drivers/STM32F7xx_HAL_Driver/Src/stm32f7xx_hal_i2c.c ****     
2546:../../Drivers/STM32F7xx_HAL_Driver/Src/stm32f7xx_hal_i2c.c ****     hi2c->State     = HAL_I2C_STATE_BUSY_TX;
 5112              		.loc 1 2546 0 is_stmt 1 discriminator 2
 5113 0040 FB68     		ldr	r3, [r7, #12]
 5114 0042 2122     		movs	r2, #33
 5115 0044 83F84120 		strb	r2, [r3, #65]
2547:../../Drivers/STM32F7xx_HAL_Driver/Src/stm32f7xx_hal_i2c.c ****     hi2c->Mode      = HAL_I2C_MODE_MASTER;
 5116              		.loc 1 2547 0 discriminator 2
 5117 0048 FB68     		ldr	r3, [r7, #12]
 5118 004a 1022     		movs	r2, #16
 5119 004c 83F84220 		strb	r2, [r3, #66]
2548:../../Drivers/STM32F7xx_HAL_Driver/Src/stm32f7xx_hal_i2c.c ****     hi2c->ErrorCode = HAL_I2C_ERROR_NONE;
 5120              		.loc 1 2548 0 discriminator 2
 5121 0050 FB68     		ldr	r3, [r7, #12]
 5122 0052 0022     		movs	r2, #0
 5123 0054 5A64     		str	r2, [r3, #68]
2549:../../Drivers/STM32F7xx_HAL_Driver/Src/stm32f7xx_hal_i2c.c ****     
2550:../../Drivers/STM32F7xx_HAL_Driver/Src/stm32f7xx_hal_i2c.c ****     /* Prepare transfer parameters */
2551:../../Drivers/STM32F7xx_HAL_Driver/Src/stm32f7xx_hal_i2c.c ****     hi2c->pBuffPtr    = pData;
 5124              		.loc 1 2551 0 discriminator 2
 5125 0056 FB68     		ldr	r3, [r7, #12]
 5126 0058 7A68     		ldr	r2, [r7, #4]
 5127 005a 5A62     		str	r2, [r3, #36]
ARM GAS  /tmp/cczIhzQ0.s 			page 135


2552:../../Drivers/STM32F7xx_HAL_Driver/Src/stm32f7xx_hal_i2c.c ****     hi2c->XferCount   = Size;
 5128              		.loc 1 2552 0 discriminator 2
 5129 005c FB68     		ldr	r3, [r7, #12]
 5130 005e 3A89     		ldrh	r2, [r7, #8]	@ movhi
 5131 0060 5A85     		strh	r2, [r3, #42]	@ movhi
2553:../../Drivers/STM32F7xx_HAL_Driver/Src/stm32f7xx_hal_i2c.c ****     hi2c->XferOptions = XferOptions;
 5132              		.loc 1 2553 0 discriminator 2
 5133 0062 FB68     		ldr	r3, [r7, #12]
 5134 0064 3A6A     		ldr	r2, [r7, #32]
 5135 0066 DA62     		str	r2, [r3, #44]
2554:../../Drivers/STM32F7xx_HAL_Driver/Src/stm32f7xx_hal_i2c.c ****     hi2c->XferISR     = I2C_Master_ISR_IT;
 5136              		.loc 1 2554 0 discriminator 2
 5137 0068 FB68     		ldr	r3, [r7, #12]
 5138 006a 1A4A     		ldr	r2, .L265
 5139 006c 5A63     		str	r2, [r3, #52]
2555:../../Drivers/STM32F7xx_HAL_Driver/Src/stm32f7xx_hal_i2c.c ****     
2556:../../Drivers/STM32F7xx_HAL_Driver/Src/stm32f7xx_hal_i2c.c ****     /* If size > MAX_NBYTE_SIZE, use reload mode */
2557:../../Drivers/STM32F7xx_HAL_Driver/Src/stm32f7xx_hal_i2c.c ****     if(hi2c->XferCount > MAX_NBYTE_SIZE)
 5140              		.loc 1 2557 0 discriminator 2
 5141 006e FB68     		ldr	r3, [r7, #12]
 5142 0070 5B8D     		ldrh	r3, [r3, #42]	@ movhi
 5143 0072 9BB2     		uxth	r3, r3
 5144 0074 FF2B     		cmp	r3, #255
 5145 0076 06D9     		bls	.L262
2558:../../Drivers/STM32F7xx_HAL_Driver/Src/stm32f7xx_hal_i2c.c ****     {
2559:../../Drivers/STM32F7xx_HAL_Driver/Src/stm32f7xx_hal_i2c.c ****       hi2c->XferSize = MAX_NBYTE_SIZE;
 5146              		.loc 1 2559 0
 5147 0078 FB68     		ldr	r3, [r7, #12]
 5148 007a FF22     		movs	r2, #255
 5149 007c 1A85     		strh	r2, [r3, #40]	@ movhi
2560:../../Drivers/STM32F7xx_HAL_Driver/Src/stm32f7xx_hal_i2c.c ****       xfermode = I2C_RELOAD_MODE;
 5150              		.loc 1 2560 0
 5151 007e 4FF08073 		mov	r3, #16777216
 5152 0082 7B61     		str	r3, [r7, #20]
 5153 0084 07E0     		b	.L263
 5154              	.L262:
2561:../../Drivers/STM32F7xx_HAL_Driver/Src/stm32f7xx_hal_i2c.c ****     }
2562:../../Drivers/STM32F7xx_HAL_Driver/Src/stm32f7xx_hal_i2c.c ****     else
2563:../../Drivers/STM32F7xx_HAL_Driver/Src/stm32f7xx_hal_i2c.c ****     {
2564:../../Drivers/STM32F7xx_HAL_Driver/Src/stm32f7xx_hal_i2c.c ****       hi2c->XferSize = hi2c->XferCount;
 5155              		.loc 1 2564 0
 5156 0086 FB68     		ldr	r3, [r7, #12]
 5157 0088 5B8D     		ldrh	r3, [r3, #42]	@ movhi
 5158 008a 9AB2     		uxth	r2, r3
 5159 008c FB68     		ldr	r3, [r7, #12]
 5160 008e 1A85     		strh	r2, [r3, #40]	@ movhi
2565:../../Drivers/STM32F7xx_HAL_Driver/Src/stm32f7xx_hal_i2c.c ****       xfermode = hi2c->XferOptions;
 5161              		.loc 1 2565 0
 5162 0090 FB68     		ldr	r3, [r7, #12]
 5163 0092 DB6A     		ldr	r3, [r3, #44]
 5164 0094 7B61     		str	r3, [r7, #20]
 5165              	.L263:
2566:../../Drivers/STM32F7xx_HAL_Driver/Src/stm32f7xx_hal_i2c.c **** 	}
2567:../../Drivers/STM32F7xx_HAL_Driver/Src/stm32f7xx_hal_i2c.c **** 
2568:../../Drivers/STM32F7xx_HAL_Driver/Src/stm32f7xx_hal_i2c.c ****     /* If transfer direction not change, do not generate Restart Condition */
2569:../../Drivers/STM32F7xx_HAL_Driver/Src/stm32f7xx_hal_i2c.c ****     /* Mean Previous state is same as current state */
2570:../../Drivers/STM32F7xx_HAL_Driver/Src/stm32f7xx_hal_i2c.c ****     if(hi2c->PreviousState == I2C_STATE_MASTER_BUSY_TX)
ARM GAS  /tmp/cczIhzQ0.s 			page 136


 5166              		.loc 1 2570 0
 5167 0096 FB68     		ldr	r3, [r7, #12]
 5168 0098 1B6B     		ldr	r3, [r3, #48]
 5169 009a 112B     		cmp	r3, #17
 5170 009c 01D1     		bne	.L264
2571:../../Drivers/STM32F7xx_HAL_Driver/Src/stm32f7xx_hal_i2c.c ****     {
2572:../../Drivers/STM32F7xx_HAL_Driver/Src/stm32f7xx_hal_i2c.c ****     xferrequest = I2C_NO_STARTSTOP;
 5171              		.loc 1 2572 0
 5172 009e 0023     		movs	r3, #0
 5173 00a0 3B61     		str	r3, [r7, #16]
 5174              	.L264:
2573:../../Drivers/STM32F7xx_HAL_Driver/Src/stm32f7xx_hal_i2c.c ****     }
2574:../../Drivers/STM32F7xx_HAL_Driver/Src/stm32f7xx_hal_i2c.c ****     
2575:../../Drivers/STM32F7xx_HAL_Driver/Src/stm32f7xx_hal_i2c.c ****     /* Send Slave Address and set NBYTES to write */
2576:../../Drivers/STM32F7xx_HAL_Driver/Src/stm32f7xx_hal_i2c.c ****     I2C_TransferConfig(hi2c, DevAddress, hi2c->XferSize, xfermode, xferrequest);
 5175              		.loc 1 2576 0
 5176 00a2 FB68     		ldr	r3, [r7, #12]
 5177 00a4 1B8D     		ldrh	r3, [r3, #40]
 5178 00a6 DAB2     		uxtb	r2, r3
 5179 00a8 7989     		ldrh	r1, [r7, #10]
 5180 00aa 3B69     		ldr	r3, [r7, #16]
 5181 00ac 0093     		str	r3, [sp]
 5182 00ae F868     		ldr	r0, [r7, #12]
 5183 00b0 7B69     		ldr	r3, [r7, #20]
 5184 00b2 FFF7FEFF 		bl	I2C_TransferConfig
2577:../../Drivers/STM32F7xx_HAL_Driver/Src/stm32f7xx_hal_i2c.c ****     
2578:../../Drivers/STM32F7xx_HAL_Driver/Src/stm32f7xx_hal_i2c.c ****     /* Process Unlocked */
2579:../../Drivers/STM32F7xx_HAL_Driver/Src/stm32f7xx_hal_i2c.c ****     __HAL_UNLOCK(hi2c);
 5185              		.loc 1 2579 0
 5186 00b6 FB68     		ldr	r3, [r7, #12]
 5187 00b8 0022     		movs	r2, #0
 5188 00ba 83F84020 		strb	r2, [r3, #64]
2580:../../Drivers/STM32F7xx_HAL_Driver/Src/stm32f7xx_hal_i2c.c ****     
2581:../../Drivers/STM32F7xx_HAL_Driver/Src/stm32f7xx_hal_i2c.c ****     /* Note : The I2C interrupts must be enabled after unlocking current process
2582:../../Drivers/STM32F7xx_HAL_Driver/Src/stm32f7xx_hal_i2c.c ****               to avoid the risk of I2C interrupt handle execution before current
2583:../../Drivers/STM32F7xx_HAL_Driver/Src/stm32f7xx_hal_i2c.c ****               process unlock */
2584:../../Drivers/STM32F7xx_HAL_Driver/Src/stm32f7xx_hal_i2c.c ****     I2C_Enable_IRQ(hi2c, I2C_XFER_TX_IT);
 5189              		.loc 1 2584 0
 5190 00be F868     		ldr	r0, [r7, #12]
 5191 00c0 0121     		movs	r1, #1
 5192 00c2 FFF7FEFF 		bl	I2C_Enable_IRQ
2585:../../Drivers/STM32F7xx_HAL_Driver/Src/stm32f7xx_hal_i2c.c ****     
2586:../../Drivers/STM32F7xx_HAL_Driver/Src/stm32f7xx_hal_i2c.c ****     return HAL_OK;
 5193              		.loc 1 2586 0
 5194 00c6 0023     		movs	r3, #0
 5195 00c8 00E0     		b	.L261
 5196              	.L259:
2587:../../Drivers/STM32F7xx_HAL_Driver/Src/stm32f7xx_hal_i2c.c ****   }
2588:../../Drivers/STM32F7xx_HAL_Driver/Src/stm32f7xx_hal_i2c.c ****   else
2589:../../Drivers/STM32F7xx_HAL_Driver/Src/stm32f7xx_hal_i2c.c ****   {
2590:../../Drivers/STM32F7xx_HAL_Driver/Src/stm32f7xx_hal_i2c.c ****     return HAL_BUSY;
 5197              		.loc 1 2590 0
 5198 00ca 0223     		movs	r3, #2
 5199              	.L261:
2591:../../Drivers/STM32F7xx_HAL_Driver/Src/stm32f7xx_hal_i2c.c ****   }
2592:../../Drivers/STM32F7xx_HAL_Driver/Src/stm32f7xx_hal_i2c.c **** }
 5200              		.loc 1 2592 0
ARM GAS  /tmp/cczIhzQ0.s 			page 137


 5201 00cc 1846     		mov	r0, r3
 5202 00ce 1837     		adds	r7, r7, #24
 5203              	.LCFI120:
 5204              		.cfi_def_cfa_offset 8
 5205 00d0 BD46     		mov	sp, r7
 5206              	.LCFI121:
 5207              		.cfi_def_cfa_register 13
 5208              		@ sp needed
 5209 00d2 80BD     		pop	{r7, pc}
 5210              	.L266:
 5211              		.align	2
 5212              	.L265:
 5213 00d4 00000000 		.word	I2C_Master_ISR_IT
 5214              		.cfi_endproc
 5215              	.LFE158:
 5217              		.section	.text.HAL_I2C_Master_Sequential_Receive_IT,"ax",%progbits
 5218              		.align	2
 5219              		.global	HAL_I2C_Master_Sequential_Receive_IT
 5220              		.thumb
 5221              		.thumb_func
 5223              	HAL_I2C_Master_Sequential_Receive_IT:
 5224              	.LFB159:
2593:../../Drivers/STM32F7xx_HAL_Driver/Src/stm32f7xx_hal_i2c.c **** 
2594:../../Drivers/STM32F7xx_HAL_Driver/Src/stm32f7xx_hal_i2c.c **** /**
2595:../../Drivers/STM32F7xx_HAL_Driver/Src/stm32f7xx_hal_i2c.c ****   * @brief  Sequential receive in master I2C mode an amount of data in non-blocking mode with Inter
2596:../../Drivers/STM32F7xx_HAL_Driver/Src/stm32f7xx_hal_i2c.c ****   * @note   This interface allow to manage repeated start condition when a direction change during 
2597:../../Drivers/STM32F7xx_HAL_Driver/Src/stm32f7xx_hal_i2c.c ****   * @param  hi2c: Pointer to a I2C_HandleTypeDef structure that contains
2598:../../Drivers/STM32F7xx_HAL_Driver/Src/stm32f7xx_hal_i2c.c ****   *               the configuration information for the specified I2C.
2599:../../Drivers/STM32F7xx_HAL_Driver/Src/stm32f7xx_hal_i2c.c ****   * @param  DevAddress: Target device address. The device 7 bits address value
2600:../../Drivers/STM32F7xx_HAL_Driver/Src/stm32f7xx_hal_i2c.c ****   *         in datasheet must be shift at right before call interface
2601:../../Drivers/STM32F7xx_HAL_Driver/Src/stm32f7xx_hal_i2c.c ****   * @param  pData: Pointer to data buffer
2602:../../Drivers/STM32F7xx_HAL_Driver/Src/stm32f7xx_hal_i2c.c ****   * @param  Size: Amount of data to be sent
2603:../../Drivers/STM32F7xx_HAL_Driver/Src/stm32f7xx_hal_i2c.c ****   * @param  XferOptions: Options of Transfer, value of @ref I2C_XFEROPTIONS
2604:../../Drivers/STM32F7xx_HAL_Driver/Src/stm32f7xx_hal_i2c.c ****   * @retval HAL status
2605:../../Drivers/STM32F7xx_HAL_Driver/Src/stm32f7xx_hal_i2c.c ****   */
2606:../../Drivers/STM32F7xx_HAL_Driver/Src/stm32f7xx_hal_i2c.c **** HAL_StatusTypeDef HAL_I2C_Master_Sequential_Receive_IT(I2C_HandleTypeDef *hi2c, uint16_t DevAddress
2607:../../Drivers/STM32F7xx_HAL_Driver/Src/stm32f7xx_hal_i2c.c **** {
 5225              		.loc 1 2607 0
 5226              		.cfi_startproc
 5227              		@ args = 4, pretend = 0, frame = 24
 5228              		@ frame_needed = 1, uses_anonymous_args = 0
 5229 0000 80B5     		push	{r7, lr}
 5230              	.LCFI122:
 5231              		.cfi_def_cfa_offset 8
 5232              		.cfi_offset 7, -8
 5233              		.cfi_offset 14, -4
 5234 0002 88B0     		sub	sp, sp, #32
 5235              	.LCFI123:
 5236              		.cfi_def_cfa_offset 40
 5237 0004 02AF     		add	r7, sp, #8
 5238              	.LCFI124:
 5239              		.cfi_def_cfa 7, 32
 5240 0006 F860     		str	r0, [r7, #12]
 5241 0008 7A60     		str	r2, [r7, #4]
 5242 000a 1A46     		mov	r2, r3
 5243 000c 0B46     		mov	r3, r1	@ movhi
 5244 000e 7B81     		strh	r3, [r7, #10]	@ movhi
ARM GAS  /tmp/cczIhzQ0.s 			page 138


 5245 0010 1346     		mov	r3, r2	@ movhi
 5246 0012 3B81     		strh	r3, [r7, #8]	@ movhi
2608:../../Drivers/STM32F7xx_HAL_Driver/Src/stm32f7xx_hal_i2c.c ****   uint32_t xfermode = 0;
 5247              		.loc 1 2608 0
 5248 0014 0023     		movs	r3, #0
 5249 0016 7B61     		str	r3, [r7, #20]
2609:../../Drivers/STM32F7xx_HAL_Driver/Src/stm32f7xx_hal_i2c.c ****   uint32_t xferrequest = I2C_GENERATE_START_READ;
 5250              		.loc 1 2609 0
 5251 0018 4FF41053 		mov	r3, #9216
 5252 001c 3B61     		str	r3, [r7, #16]
2610:../../Drivers/STM32F7xx_HAL_Driver/Src/stm32f7xx_hal_i2c.c ****   
2611:../../Drivers/STM32F7xx_HAL_Driver/Src/stm32f7xx_hal_i2c.c ****   /* Check the parameters */
2612:../../Drivers/STM32F7xx_HAL_Driver/Src/stm32f7xx_hal_i2c.c ****   assert_param(IS_I2C_TRANSFER_OPTIONS_REQUEST(XferOptions));
2613:../../Drivers/STM32F7xx_HAL_Driver/Src/stm32f7xx_hal_i2c.c ****   
2614:../../Drivers/STM32F7xx_HAL_Driver/Src/stm32f7xx_hal_i2c.c ****   if(hi2c->State == HAL_I2C_STATE_READY)
 5253              		.loc 1 2614 0
 5254 001e FB68     		ldr	r3, [r7, #12]
 5255 0020 93F84130 		ldrb	r3, [r3, #65]
 5256 0024 DBB2     		uxtb	r3, r3
 5257 0026 202B     		cmp	r3, #32
 5258 0028 4FD1     		bne	.L268
2615:../../Drivers/STM32F7xx_HAL_Driver/Src/stm32f7xx_hal_i2c.c ****   {
2616:../../Drivers/STM32F7xx_HAL_Driver/Src/stm32f7xx_hal_i2c.c ****     /* Process Locked */
2617:../../Drivers/STM32F7xx_HAL_Driver/Src/stm32f7xx_hal_i2c.c ****     __HAL_LOCK(hi2c);
 5259              		.loc 1 2617 0
 5260 002a FB68     		ldr	r3, [r7, #12]
 5261 002c 93F84030 		ldrb	r3, [r3, #64]	@ zero_extendqisi2
 5262 0030 012B     		cmp	r3, #1
 5263 0032 01D1     		bne	.L269
 5264              		.loc 1 2617 0 is_stmt 0 discriminator 1
 5265 0034 0223     		movs	r3, #2
 5266 0036 49E0     		b	.L270
 5267              	.L269:
 5268              		.loc 1 2617 0 discriminator 2
 5269 0038 FB68     		ldr	r3, [r7, #12]
 5270 003a 0122     		movs	r2, #1
 5271 003c 83F84020 		strb	r2, [r3, #64]
2618:../../Drivers/STM32F7xx_HAL_Driver/Src/stm32f7xx_hal_i2c.c ****     
2619:../../Drivers/STM32F7xx_HAL_Driver/Src/stm32f7xx_hal_i2c.c ****     hi2c->State     = HAL_I2C_STATE_BUSY_RX;
 5272              		.loc 1 2619 0 is_stmt 1 discriminator 2
 5273 0040 FB68     		ldr	r3, [r7, #12]
 5274 0042 2222     		movs	r2, #34
 5275 0044 83F84120 		strb	r2, [r3, #65]
2620:../../Drivers/STM32F7xx_HAL_Driver/Src/stm32f7xx_hal_i2c.c ****     hi2c->Mode      = HAL_I2C_MODE_MASTER;
 5276              		.loc 1 2620 0 discriminator 2
 5277 0048 FB68     		ldr	r3, [r7, #12]
 5278 004a 1022     		movs	r2, #16
 5279 004c 83F84220 		strb	r2, [r3, #66]
2621:../../Drivers/STM32F7xx_HAL_Driver/Src/stm32f7xx_hal_i2c.c ****     hi2c->ErrorCode = HAL_I2C_ERROR_NONE;
 5280              		.loc 1 2621 0 discriminator 2
 5281 0050 FB68     		ldr	r3, [r7, #12]
 5282 0052 0022     		movs	r2, #0
 5283 0054 5A64     		str	r2, [r3, #68]
2622:../../Drivers/STM32F7xx_HAL_Driver/Src/stm32f7xx_hal_i2c.c ****     
2623:../../Drivers/STM32F7xx_HAL_Driver/Src/stm32f7xx_hal_i2c.c ****     /* Prepare transfer parameters */
2624:../../Drivers/STM32F7xx_HAL_Driver/Src/stm32f7xx_hal_i2c.c ****     hi2c->pBuffPtr    = pData;
 5284              		.loc 1 2624 0 discriminator 2
ARM GAS  /tmp/cczIhzQ0.s 			page 139


 5285 0056 FB68     		ldr	r3, [r7, #12]
 5286 0058 7A68     		ldr	r2, [r7, #4]
 5287 005a 5A62     		str	r2, [r3, #36]
2625:../../Drivers/STM32F7xx_HAL_Driver/Src/stm32f7xx_hal_i2c.c ****     hi2c->XferCount   = Size;
 5288              		.loc 1 2625 0 discriminator 2
 5289 005c FB68     		ldr	r3, [r7, #12]
 5290 005e 3A89     		ldrh	r2, [r7, #8]	@ movhi
 5291 0060 5A85     		strh	r2, [r3, #42]	@ movhi
2626:../../Drivers/STM32F7xx_HAL_Driver/Src/stm32f7xx_hal_i2c.c ****     hi2c->XferOptions = XferOptions;
 5292              		.loc 1 2626 0 discriminator 2
 5293 0062 FB68     		ldr	r3, [r7, #12]
 5294 0064 3A6A     		ldr	r2, [r7, #32]
 5295 0066 DA62     		str	r2, [r3, #44]
2627:../../Drivers/STM32F7xx_HAL_Driver/Src/stm32f7xx_hal_i2c.c ****     hi2c->XferISR     = I2C_Master_ISR_IT;
 5296              		.loc 1 2627 0 discriminator 2
 5297 0068 FB68     		ldr	r3, [r7, #12]
 5298 006a 1A4A     		ldr	r2, .L274
 5299 006c 5A63     		str	r2, [r3, #52]
2628:../../Drivers/STM32F7xx_HAL_Driver/Src/stm32f7xx_hal_i2c.c ****     
2629:../../Drivers/STM32F7xx_HAL_Driver/Src/stm32f7xx_hal_i2c.c ****     /* If hi2c->XferCount > MAX_NBYTE_SIZE, use reload mode */
2630:../../Drivers/STM32F7xx_HAL_Driver/Src/stm32f7xx_hal_i2c.c ****     if(hi2c->XferCount > MAX_NBYTE_SIZE)
 5300              		.loc 1 2630 0 discriminator 2
 5301 006e FB68     		ldr	r3, [r7, #12]
 5302 0070 5B8D     		ldrh	r3, [r3, #42]	@ movhi
 5303 0072 9BB2     		uxth	r3, r3
 5304 0074 FF2B     		cmp	r3, #255
 5305 0076 06D9     		bls	.L271
2631:../../Drivers/STM32F7xx_HAL_Driver/Src/stm32f7xx_hal_i2c.c ****     {
2632:../../Drivers/STM32F7xx_HAL_Driver/Src/stm32f7xx_hal_i2c.c ****       hi2c->XferSize = MAX_NBYTE_SIZE;
 5306              		.loc 1 2632 0
 5307 0078 FB68     		ldr	r3, [r7, #12]
 5308 007a FF22     		movs	r2, #255
 5309 007c 1A85     		strh	r2, [r3, #40]	@ movhi
2633:../../Drivers/STM32F7xx_HAL_Driver/Src/stm32f7xx_hal_i2c.c ****       xfermode = I2C_RELOAD_MODE;
 5310              		.loc 1 2633 0
 5311 007e 4FF08073 		mov	r3, #16777216
 5312 0082 7B61     		str	r3, [r7, #20]
 5313 0084 07E0     		b	.L272
 5314              	.L271:
2634:../../Drivers/STM32F7xx_HAL_Driver/Src/stm32f7xx_hal_i2c.c ****     }
2635:../../Drivers/STM32F7xx_HAL_Driver/Src/stm32f7xx_hal_i2c.c ****     else
2636:../../Drivers/STM32F7xx_HAL_Driver/Src/stm32f7xx_hal_i2c.c ****     {
2637:../../Drivers/STM32F7xx_HAL_Driver/Src/stm32f7xx_hal_i2c.c ****       hi2c->XferSize = hi2c->XferCount;
 5315              		.loc 1 2637 0
 5316 0086 FB68     		ldr	r3, [r7, #12]
 5317 0088 5B8D     		ldrh	r3, [r3, #42]	@ movhi
 5318 008a 9AB2     		uxth	r2, r3
 5319 008c FB68     		ldr	r3, [r7, #12]
 5320 008e 1A85     		strh	r2, [r3, #40]	@ movhi
2638:../../Drivers/STM32F7xx_HAL_Driver/Src/stm32f7xx_hal_i2c.c ****       xfermode = hi2c->XferOptions;
 5321              		.loc 1 2638 0
 5322 0090 FB68     		ldr	r3, [r7, #12]
 5323 0092 DB6A     		ldr	r3, [r3, #44]
 5324 0094 7B61     		str	r3, [r7, #20]
 5325              	.L272:
2639:../../Drivers/STM32F7xx_HAL_Driver/Src/stm32f7xx_hal_i2c.c **** 	}
2640:../../Drivers/STM32F7xx_HAL_Driver/Src/stm32f7xx_hal_i2c.c ****       
ARM GAS  /tmp/cczIhzQ0.s 			page 140


2641:../../Drivers/STM32F7xx_HAL_Driver/Src/stm32f7xx_hal_i2c.c ****     /* If transfer direction not change, do not generate Restart Condition */
2642:../../Drivers/STM32F7xx_HAL_Driver/Src/stm32f7xx_hal_i2c.c ****     /* Mean Previous state is same as current state */
2643:../../Drivers/STM32F7xx_HAL_Driver/Src/stm32f7xx_hal_i2c.c ****     if(hi2c->PreviousState == I2C_STATE_MASTER_BUSY_RX)
 5326              		.loc 1 2643 0
 5327 0096 FB68     		ldr	r3, [r7, #12]
 5328 0098 1B6B     		ldr	r3, [r3, #48]
 5329 009a 122B     		cmp	r3, #18
 5330 009c 01D1     		bne	.L273
2644:../../Drivers/STM32F7xx_HAL_Driver/Src/stm32f7xx_hal_i2c.c ****     {
2645:../../Drivers/STM32F7xx_HAL_Driver/Src/stm32f7xx_hal_i2c.c ****       xferrequest = I2C_NO_STARTSTOP;
 5331              		.loc 1 2645 0
 5332 009e 0023     		movs	r3, #0
 5333 00a0 3B61     		str	r3, [r7, #16]
 5334              	.L273:
2646:../../Drivers/STM32F7xx_HAL_Driver/Src/stm32f7xx_hal_i2c.c ****     }
2647:../../Drivers/STM32F7xx_HAL_Driver/Src/stm32f7xx_hal_i2c.c ****     
2648:../../Drivers/STM32F7xx_HAL_Driver/Src/stm32f7xx_hal_i2c.c ****     /* Send Slave Address and set NBYTES to read */
2649:../../Drivers/STM32F7xx_HAL_Driver/Src/stm32f7xx_hal_i2c.c ****     I2C_TransferConfig(hi2c,DevAddress, hi2c->XferSize, xfermode, xferrequest);
 5335              		.loc 1 2649 0
 5336 00a2 FB68     		ldr	r3, [r7, #12]
 5337 00a4 1B8D     		ldrh	r3, [r3, #40]
 5338 00a6 DAB2     		uxtb	r2, r3
 5339 00a8 7989     		ldrh	r1, [r7, #10]
 5340 00aa 3B69     		ldr	r3, [r7, #16]
 5341 00ac 0093     		str	r3, [sp]
 5342 00ae F868     		ldr	r0, [r7, #12]
 5343 00b0 7B69     		ldr	r3, [r7, #20]
 5344 00b2 FFF7FEFF 		bl	I2C_TransferConfig
2650:../../Drivers/STM32F7xx_HAL_Driver/Src/stm32f7xx_hal_i2c.c ****     
2651:../../Drivers/STM32F7xx_HAL_Driver/Src/stm32f7xx_hal_i2c.c ****     /* Process Unlocked */
2652:../../Drivers/STM32F7xx_HAL_Driver/Src/stm32f7xx_hal_i2c.c ****     __HAL_UNLOCK(hi2c); 
 5345              		.loc 1 2652 0
 5346 00b6 FB68     		ldr	r3, [r7, #12]
 5347 00b8 0022     		movs	r2, #0
 5348 00ba 83F84020 		strb	r2, [r3, #64]
2653:../../Drivers/STM32F7xx_HAL_Driver/Src/stm32f7xx_hal_i2c.c ****     
2654:../../Drivers/STM32F7xx_HAL_Driver/Src/stm32f7xx_hal_i2c.c ****     /* Note : The I2C interrupts must be enabled after unlocking current process
2655:../../Drivers/STM32F7xx_HAL_Driver/Src/stm32f7xx_hal_i2c.c ****               to avoid the risk of I2C interrupt handle execution before current
2656:../../Drivers/STM32F7xx_HAL_Driver/Src/stm32f7xx_hal_i2c.c ****               process unlock */
2657:../../Drivers/STM32F7xx_HAL_Driver/Src/stm32f7xx_hal_i2c.c ****     I2C_Enable_IRQ(hi2c, I2C_XFER_RX_IT);
 5349              		.loc 1 2657 0
 5350 00be F868     		ldr	r0, [r7, #12]
 5351 00c0 0221     		movs	r1, #2
 5352 00c2 FFF7FEFF 		bl	I2C_Enable_IRQ
2658:../../Drivers/STM32F7xx_HAL_Driver/Src/stm32f7xx_hal_i2c.c ****     
2659:../../Drivers/STM32F7xx_HAL_Driver/Src/stm32f7xx_hal_i2c.c ****     return HAL_OK;
 5353              		.loc 1 2659 0
 5354 00c6 0023     		movs	r3, #0
 5355 00c8 00E0     		b	.L270
 5356              	.L268:
2660:../../Drivers/STM32F7xx_HAL_Driver/Src/stm32f7xx_hal_i2c.c ****   }
2661:../../Drivers/STM32F7xx_HAL_Driver/Src/stm32f7xx_hal_i2c.c ****   else
2662:../../Drivers/STM32F7xx_HAL_Driver/Src/stm32f7xx_hal_i2c.c ****   {
2663:../../Drivers/STM32F7xx_HAL_Driver/Src/stm32f7xx_hal_i2c.c ****     return HAL_BUSY;
 5357              		.loc 1 2663 0
 5358 00ca 0223     		movs	r3, #2
 5359              	.L270:
ARM GAS  /tmp/cczIhzQ0.s 			page 141


2664:../../Drivers/STM32F7xx_HAL_Driver/Src/stm32f7xx_hal_i2c.c ****   }
2665:../../Drivers/STM32F7xx_HAL_Driver/Src/stm32f7xx_hal_i2c.c **** }
 5360              		.loc 1 2665 0
 5361 00cc 1846     		mov	r0, r3
 5362 00ce 1837     		adds	r7, r7, #24
 5363              	.LCFI125:
 5364              		.cfi_def_cfa_offset 8
 5365 00d0 BD46     		mov	sp, r7
 5366              	.LCFI126:
 5367              		.cfi_def_cfa_register 13
 5368              		@ sp needed
 5369 00d2 80BD     		pop	{r7, pc}
 5370              	.L275:
 5371              		.align	2
 5372              	.L274:
 5373 00d4 00000000 		.word	I2C_Master_ISR_IT
 5374              		.cfi_endproc
 5375              	.LFE159:
 5377              		.section	.text.HAL_I2C_Slave_Sequential_Transmit_IT,"ax",%progbits
 5378              		.align	2
 5379              		.global	HAL_I2C_Slave_Sequential_Transmit_IT
 5380              		.thumb
 5381              		.thumb_func
 5383              	HAL_I2C_Slave_Sequential_Transmit_IT:
 5384              	.LFB160:
2666:../../Drivers/STM32F7xx_HAL_Driver/Src/stm32f7xx_hal_i2c.c **** 
2667:../../Drivers/STM32F7xx_HAL_Driver/Src/stm32f7xx_hal_i2c.c **** /**
2668:../../Drivers/STM32F7xx_HAL_Driver/Src/stm32f7xx_hal_i2c.c ****   * @brief  Sequential transmit in slave/device I2C mode an amount of data in non-blocking mode wit
2669:../../Drivers/STM32F7xx_HAL_Driver/Src/stm32f7xx_hal_i2c.c ****   * @note   This interface allow to manage repeated start condition when a direction change during 
2670:../../Drivers/STM32F7xx_HAL_Driver/Src/stm32f7xx_hal_i2c.c ****   * @param  hi2c: Pointer to a I2C_HandleTypeDef structure that contains
2671:../../Drivers/STM32F7xx_HAL_Driver/Src/stm32f7xx_hal_i2c.c ****   *               the configuration information for the specified I2C.
2672:../../Drivers/STM32F7xx_HAL_Driver/Src/stm32f7xx_hal_i2c.c ****   * @param  pData: Pointer to data buffer
2673:../../Drivers/STM32F7xx_HAL_Driver/Src/stm32f7xx_hal_i2c.c ****   * @param  Size: Amount of data to be sent
2674:../../Drivers/STM32F7xx_HAL_Driver/Src/stm32f7xx_hal_i2c.c ****   * @param  XferOptions: Options of Transfer, value of @ref I2C_XFEROPTIONS
2675:../../Drivers/STM32F7xx_HAL_Driver/Src/stm32f7xx_hal_i2c.c ****   * @retval HAL status
2676:../../Drivers/STM32F7xx_HAL_Driver/Src/stm32f7xx_hal_i2c.c ****   */
2677:../../Drivers/STM32F7xx_HAL_Driver/Src/stm32f7xx_hal_i2c.c **** HAL_StatusTypeDef HAL_I2C_Slave_Sequential_Transmit_IT(I2C_HandleTypeDef *hi2c, uint8_t *pData, uin
2678:../../Drivers/STM32F7xx_HAL_Driver/Src/stm32f7xx_hal_i2c.c **** {
 5385              		.loc 1 2678 0
 5386              		.cfi_startproc
 5387              		@ args = 0, pretend = 0, frame = 16
 5388              		@ frame_needed = 1, uses_anonymous_args = 0
 5389 0000 80B5     		push	{r7, lr}
 5390              	.LCFI127:
 5391              		.cfi_def_cfa_offset 8
 5392              		.cfi_offset 7, -8
 5393              		.cfi_offset 14, -4
 5394 0002 84B0     		sub	sp, sp, #16
 5395              	.LCFI128:
 5396              		.cfi_def_cfa_offset 24
 5397 0004 00AF     		add	r7, sp, #0
 5398              	.LCFI129:
 5399              		.cfi_def_cfa_register 7
 5400 0006 F860     		str	r0, [r7, #12]
 5401 0008 B960     		str	r1, [r7, #8]
 5402 000a 3B60     		str	r3, [r7]
 5403 000c 1346     		mov	r3, r2	@ movhi
ARM GAS  /tmp/cczIhzQ0.s 			page 142


 5404 000e FB80     		strh	r3, [r7, #6]	@ movhi
2679:../../Drivers/STM32F7xx_HAL_Driver/Src/stm32f7xx_hal_i2c.c ****   /* Check the parameters */
2680:../../Drivers/STM32F7xx_HAL_Driver/Src/stm32f7xx_hal_i2c.c ****   assert_param(IS_I2C_TRANSFER_OPTIONS_REQUEST(XferOptions));
2681:../../Drivers/STM32F7xx_HAL_Driver/Src/stm32f7xx_hal_i2c.c ****   
2682:../../Drivers/STM32F7xx_HAL_Driver/Src/stm32f7xx_hal_i2c.c ****   if(hi2c->State == HAL_I2C_STATE_LISTEN)
 5405              		.loc 1 2682 0
 5406 0010 FB68     		ldr	r3, [r7, #12]
 5407 0012 93F84130 		ldrb	r3, [r3, #65]
 5408 0016 DBB2     		uxtb	r3, r3
 5409 0018 282B     		cmp	r3, #40
 5410 001a 50D1     		bne	.L277
2683:../../Drivers/STM32F7xx_HAL_Driver/Src/stm32f7xx_hal_i2c.c ****   {
2684:../../Drivers/STM32F7xx_HAL_Driver/Src/stm32f7xx_hal_i2c.c ****     if((pData == NULL) || (Size == 0))
 5411              		.loc 1 2684 0
 5412 001c BB68     		ldr	r3, [r7, #8]
 5413 001e 002B     		cmp	r3, #0
 5414 0020 02D0     		beq	.L278
 5415              		.loc 1 2684 0 is_stmt 0 discriminator 1
 5416 0022 FB88     		ldrh	r3, [r7, #6]
 5417 0024 002B     		cmp	r3, #0
 5418 0026 01D1     		bne	.L279
 5419              	.L278:
2685:../../Drivers/STM32F7xx_HAL_Driver/Src/stm32f7xx_hal_i2c.c ****     {
2686:../../Drivers/STM32F7xx_HAL_Driver/Src/stm32f7xx_hal_i2c.c ****       return  HAL_ERROR;
 5420              		.loc 1 2686 0 is_stmt 1
 5421 0028 0123     		movs	r3, #1
 5422 002a 49E0     		b	.L280
 5423              	.L279:
2687:../../Drivers/STM32F7xx_HAL_Driver/Src/stm32f7xx_hal_i2c.c ****     }
2688:../../Drivers/STM32F7xx_HAL_Driver/Src/stm32f7xx_hal_i2c.c ****     
2689:../../Drivers/STM32F7xx_HAL_Driver/Src/stm32f7xx_hal_i2c.c ****     /* Disable Interrupts, to prevent preemption during treatment in case of multicall */
2690:../../Drivers/STM32F7xx_HAL_Driver/Src/stm32f7xx_hal_i2c.c ****     I2C_Disable_IRQ(hi2c, I2C_XFER_LISTEN_IT | I2C_XFER_TX_IT);
 5424              		.loc 1 2690 0
 5425 002c F868     		ldr	r0, [r7, #12]
 5426 002e 0521     		movs	r1, #5
 5427 0030 FFF7FEFF 		bl	I2C_Disable_IRQ
2691:../../Drivers/STM32F7xx_HAL_Driver/Src/stm32f7xx_hal_i2c.c ****     
2692:../../Drivers/STM32F7xx_HAL_Driver/Src/stm32f7xx_hal_i2c.c ****     /* Process Locked */
2693:../../Drivers/STM32F7xx_HAL_Driver/Src/stm32f7xx_hal_i2c.c ****     __HAL_LOCK(hi2c);
 5428              		.loc 1 2693 0
 5429 0034 FB68     		ldr	r3, [r7, #12]
 5430 0036 93F84030 		ldrb	r3, [r3, #64]	@ zero_extendqisi2
 5431 003a 012B     		cmp	r3, #1
 5432 003c 01D1     		bne	.L281
 5433              		.loc 1 2693 0 is_stmt 0 discriminator 1
 5434 003e 0223     		movs	r3, #2
 5435 0040 3EE0     		b	.L280
 5436              	.L281:
 5437              		.loc 1 2693 0 discriminator 2
 5438 0042 FB68     		ldr	r3, [r7, #12]
 5439 0044 0122     		movs	r2, #1
 5440 0046 83F84020 		strb	r2, [r3, #64]
2694:../../Drivers/STM32F7xx_HAL_Driver/Src/stm32f7xx_hal_i2c.c ****     
2695:../../Drivers/STM32F7xx_HAL_Driver/Src/stm32f7xx_hal_i2c.c ****     hi2c->State     = HAL_I2C_STATE_BUSY_TX_LISTEN;
 5441              		.loc 1 2695 0 is_stmt 1 discriminator 2
 5442 004a FB68     		ldr	r3, [r7, #12]
 5443 004c 2922     		movs	r2, #41
ARM GAS  /tmp/cczIhzQ0.s 			page 143


 5444 004e 83F84120 		strb	r2, [r3, #65]
2696:../../Drivers/STM32F7xx_HAL_Driver/Src/stm32f7xx_hal_i2c.c ****     hi2c->Mode      = HAL_I2C_MODE_SLAVE;
 5445              		.loc 1 2696 0 discriminator 2
 5446 0052 FB68     		ldr	r3, [r7, #12]
 5447 0054 2022     		movs	r2, #32
 5448 0056 83F84220 		strb	r2, [r3, #66]
2697:../../Drivers/STM32F7xx_HAL_Driver/Src/stm32f7xx_hal_i2c.c ****     hi2c->ErrorCode = HAL_I2C_ERROR_NONE;
 5449              		.loc 1 2697 0 discriminator 2
 5450 005a FB68     		ldr	r3, [r7, #12]
 5451 005c 0022     		movs	r2, #0
 5452 005e 5A64     		str	r2, [r3, #68]
2698:../../Drivers/STM32F7xx_HAL_Driver/Src/stm32f7xx_hal_i2c.c ****     
2699:../../Drivers/STM32F7xx_HAL_Driver/Src/stm32f7xx_hal_i2c.c ****     /* Enable Address Acknowledge */
2700:../../Drivers/STM32F7xx_HAL_Driver/Src/stm32f7xx_hal_i2c.c ****     hi2c->Instance->CR2 &= ~I2C_CR2_NACK;
 5453              		.loc 1 2700 0 discriminator 2
 5454 0060 FB68     		ldr	r3, [r7, #12]
 5455 0062 1B68     		ldr	r3, [r3]
 5456 0064 FA68     		ldr	r2, [r7, #12]
 5457 0066 1268     		ldr	r2, [r2]
 5458 0068 5268     		ldr	r2, [r2, #4]
 5459 006a 22F40042 		bic	r2, r2, #32768
 5460 006e 5A60     		str	r2, [r3, #4]
2701:../../Drivers/STM32F7xx_HAL_Driver/Src/stm32f7xx_hal_i2c.c ****     
2702:../../Drivers/STM32F7xx_HAL_Driver/Src/stm32f7xx_hal_i2c.c ****     /* Prepare transfer parameters */
2703:../../Drivers/STM32F7xx_HAL_Driver/Src/stm32f7xx_hal_i2c.c ****     hi2c->pBuffPtr    = pData;
 5461              		.loc 1 2703 0 discriminator 2
 5462 0070 FB68     		ldr	r3, [r7, #12]
 5463 0072 BA68     		ldr	r2, [r7, #8]
 5464 0074 5A62     		str	r2, [r3, #36]
2704:../../Drivers/STM32F7xx_HAL_Driver/Src/stm32f7xx_hal_i2c.c ****     hi2c->XferCount   = Size;
 5465              		.loc 1 2704 0 discriminator 2
 5466 0076 FB68     		ldr	r3, [r7, #12]
 5467 0078 FA88     		ldrh	r2, [r7, #6]	@ movhi
 5468 007a 5A85     		strh	r2, [r3, #42]	@ movhi
2705:../../Drivers/STM32F7xx_HAL_Driver/Src/stm32f7xx_hal_i2c.c ****     hi2c->XferSize    = hi2c->XferCount;
 5469              		.loc 1 2705 0 discriminator 2
 5470 007c FB68     		ldr	r3, [r7, #12]
 5471 007e 5B8D     		ldrh	r3, [r3, #42]	@ movhi
 5472 0080 9AB2     		uxth	r2, r3
 5473 0082 FB68     		ldr	r3, [r7, #12]
 5474 0084 1A85     		strh	r2, [r3, #40]	@ movhi
2706:../../Drivers/STM32F7xx_HAL_Driver/Src/stm32f7xx_hal_i2c.c ****     hi2c->XferOptions = XferOptions;
 5475              		.loc 1 2706 0 discriminator 2
 5476 0086 FB68     		ldr	r3, [r7, #12]
 5477 0088 3A68     		ldr	r2, [r7]
 5478 008a DA62     		str	r2, [r3, #44]
2707:../../Drivers/STM32F7xx_HAL_Driver/Src/stm32f7xx_hal_i2c.c ****     hi2c->XferISR     = I2C_Slave_ISR_IT;
 5479              		.loc 1 2707 0 discriminator 2
 5480 008c FB68     		ldr	r3, [r7, #12]
 5481 008e 0E4A     		ldr	r2, .L283
 5482 0090 5A63     		str	r2, [r3, #52]
2708:../../Drivers/STM32F7xx_HAL_Driver/Src/stm32f7xx_hal_i2c.c ****     
2709:../../Drivers/STM32F7xx_HAL_Driver/Src/stm32f7xx_hal_i2c.c ****     if(I2C_GET_DIR(hi2c) == I2C_DIRECTION_RECEIVE)
 5483              		.loc 1 2709 0 discriminator 2
 5484 0092 FB68     		ldr	r3, [r7, #12]
 5485 0094 1B68     		ldr	r3, [r3]
 5486 0096 9B69     		ldr	r3, [r3, #24]
ARM GAS  /tmp/cczIhzQ0.s 			page 144


 5487 0098 03F48033 		and	r3, r3, #65536
 5488 009c 1B0C     		lsrs	r3, r3, #16
 5489 009e 012B     		cmp	r3, #1
 5490 00a0 03D1     		bne	.L282
2710:../../Drivers/STM32F7xx_HAL_Driver/Src/stm32f7xx_hal_i2c.c ****     {
2711:../../Drivers/STM32F7xx_HAL_Driver/Src/stm32f7xx_hal_i2c.c ****       /* Clear ADDR flag after prepare the transfer parameters */
2712:../../Drivers/STM32F7xx_HAL_Driver/Src/stm32f7xx_hal_i2c.c ****       /* This action will generate an acknowledge to the Master */
2713:../../Drivers/STM32F7xx_HAL_Driver/Src/stm32f7xx_hal_i2c.c ****       __HAL_I2C_CLEAR_FLAG(hi2c,I2C_FLAG_ADDR);
 5491              		.loc 1 2713 0
 5492 00a2 FB68     		ldr	r3, [r7, #12]
 5493 00a4 1B68     		ldr	r3, [r3]
 5494 00a6 0822     		movs	r2, #8
 5495 00a8 DA61     		str	r2, [r3, #28]
 5496              	.L282:
2714:../../Drivers/STM32F7xx_HAL_Driver/Src/stm32f7xx_hal_i2c.c ****     }
2715:../../Drivers/STM32F7xx_HAL_Driver/Src/stm32f7xx_hal_i2c.c ****     
2716:../../Drivers/STM32F7xx_HAL_Driver/Src/stm32f7xx_hal_i2c.c ****     /* Process Unlocked */
2717:../../Drivers/STM32F7xx_HAL_Driver/Src/stm32f7xx_hal_i2c.c ****     __HAL_UNLOCK(hi2c); 
 5497              		.loc 1 2717 0
 5498 00aa FB68     		ldr	r3, [r7, #12]
 5499 00ac 0022     		movs	r2, #0
 5500 00ae 83F84020 		strb	r2, [r3, #64]
2718:../../Drivers/STM32F7xx_HAL_Driver/Src/stm32f7xx_hal_i2c.c ****     
2719:../../Drivers/STM32F7xx_HAL_Driver/Src/stm32f7xx_hal_i2c.c ****     /* Note : The I2C interrupts must be enabled after unlocking current process
2720:../../Drivers/STM32F7xx_HAL_Driver/Src/stm32f7xx_hal_i2c.c ****     to avoid the risk of I2C interrupt handle execution before current
2721:../../Drivers/STM32F7xx_HAL_Driver/Src/stm32f7xx_hal_i2c.c ****     process unlock */
2722:../../Drivers/STM32F7xx_HAL_Driver/Src/stm32f7xx_hal_i2c.c ****     /* REnable ADDR interrupt */
2723:../../Drivers/STM32F7xx_HAL_Driver/Src/stm32f7xx_hal_i2c.c ****     I2C_Enable_IRQ(hi2c, I2C_XFER_TX_IT | I2C_XFER_LISTEN_IT);
 5501              		.loc 1 2723 0
 5502 00b2 F868     		ldr	r0, [r7, #12]
 5503 00b4 0521     		movs	r1, #5
 5504 00b6 FFF7FEFF 		bl	I2C_Enable_IRQ
2724:../../Drivers/STM32F7xx_HAL_Driver/Src/stm32f7xx_hal_i2c.c ****     
2725:../../Drivers/STM32F7xx_HAL_Driver/Src/stm32f7xx_hal_i2c.c ****     return HAL_OK;
 5505              		.loc 1 2725 0
 5506 00ba 0023     		movs	r3, #0
 5507 00bc 00E0     		b	.L280
 5508              	.L277:
2726:../../Drivers/STM32F7xx_HAL_Driver/Src/stm32f7xx_hal_i2c.c ****   }
2727:../../Drivers/STM32F7xx_HAL_Driver/Src/stm32f7xx_hal_i2c.c ****   else
2728:../../Drivers/STM32F7xx_HAL_Driver/Src/stm32f7xx_hal_i2c.c ****   {
2729:../../Drivers/STM32F7xx_HAL_Driver/Src/stm32f7xx_hal_i2c.c ****     return HAL_ERROR;
 5509              		.loc 1 2729 0
 5510 00be 0123     		movs	r3, #1
 5511              	.L280:
2730:../../Drivers/STM32F7xx_HAL_Driver/Src/stm32f7xx_hal_i2c.c ****   }
2731:../../Drivers/STM32F7xx_HAL_Driver/Src/stm32f7xx_hal_i2c.c **** }
 5512              		.loc 1 2731 0
 5513 00c0 1846     		mov	r0, r3
 5514 00c2 1037     		adds	r7, r7, #16
 5515              	.LCFI130:
 5516              		.cfi_def_cfa_offset 8
 5517 00c4 BD46     		mov	sp, r7
 5518              	.LCFI131:
 5519              		.cfi_def_cfa_register 13
 5520              		@ sp needed
 5521 00c6 80BD     		pop	{r7, pc}
ARM GAS  /tmp/cczIhzQ0.s 			page 145


 5522              	.L284:
 5523              		.align	2
 5524              	.L283:
 5525 00c8 00000000 		.word	I2C_Slave_ISR_IT
 5526              		.cfi_endproc
 5527              	.LFE160:
 5529              		.section	.text.HAL_I2C_Slave_Sequential_Receive_IT,"ax",%progbits
 5530              		.align	2
 5531              		.global	HAL_I2C_Slave_Sequential_Receive_IT
 5532              		.thumb
 5533              		.thumb_func
 5535              	HAL_I2C_Slave_Sequential_Receive_IT:
 5536              	.LFB161:
2732:../../Drivers/STM32F7xx_HAL_Driver/Src/stm32f7xx_hal_i2c.c **** 
2733:../../Drivers/STM32F7xx_HAL_Driver/Src/stm32f7xx_hal_i2c.c **** /**
2734:../../Drivers/STM32F7xx_HAL_Driver/Src/stm32f7xx_hal_i2c.c ****   * @brief  Sequential receive in slave/device I2C mode an amount of data in non-blocking mode with
2735:../../Drivers/STM32F7xx_HAL_Driver/Src/stm32f7xx_hal_i2c.c ****   * @note   This interface allow to manage repeated start condition when a direction change during 
2736:../../Drivers/STM32F7xx_HAL_Driver/Src/stm32f7xx_hal_i2c.c ****   * @param  hi2c: Pointer to a I2C_HandleTypeDef structure that contains
2737:../../Drivers/STM32F7xx_HAL_Driver/Src/stm32f7xx_hal_i2c.c ****   *               the configuration information for the specified I2C.
2738:../../Drivers/STM32F7xx_HAL_Driver/Src/stm32f7xx_hal_i2c.c ****   * @param  pData: Pointer to data buffer
2739:../../Drivers/STM32F7xx_HAL_Driver/Src/stm32f7xx_hal_i2c.c ****   * @param  Size: Amount of data to be sent
2740:../../Drivers/STM32F7xx_HAL_Driver/Src/stm32f7xx_hal_i2c.c ****   * @param  XferOptions: Options of Transfer, value of @ref I2C_XFEROPTIONS
2741:../../Drivers/STM32F7xx_HAL_Driver/Src/stm32f7xx_hal_i2c.c ****   * @retval HAL status
2742:../../Drivers/STM32F7xx_HAL_Driver/Src/stm32f7xx_hal_i2c.c ****   */
2743:../../Drivers/STM32F7xx_HAL_Driver/Src/stm32f7xx_hal_i2c.c **** HAL_StatusTypeDef HAL_I2C_Slave_Sequential_Receive_IT(I2C_HandleTypeDef *hi2c, uint8_t *pData, uint
2744:../../Drivers/STM32F7xx_HAL_Driver/Src/stm32f7xx_hal_i2c.c **** {
 5537              		.loc 1 2744 0
 5538              		.cfi_startproc
 5539              		@ args = 0, pretend = 0, frame = 16
 5540              		@ frame_needed = 1, uses_anonymous_args = 0
 5541 0000 80B5     		push	{r7, lr}
 5542              	.LCFI132:
 5543              		.cfi_def_cfa_offset 8
 5544              		.cfi_offset 7, -8
 5545              		.cfi_offset 14, -4
 5546 0002 84B0     		sub	sp, sp, #16
 5547              	.LCFI133:
 5548              		.cfi_def_cfa_offset 24
 5549 0004 00AF     		add	r7, sp, #0
 5550              	.LCFI134:
 5551              		.cfi_def_cfa_register 7
 5552 0006 F860     		str	r0, [r7, #12]
 5553 0008 B960     		str	r1, [r7, #8]
 5554 000a 3B60     		str	r3, [r7]
 5555 000c 1346     		mov	r3, r2	@ movhi
 5556 000e FB80     		strh	r3, [r7, #6]	@ movhi
2745:../../Drivers/STM32F7xx_HAL_Driver/Src/stm32f7xx_hal_i2c.c ****   /* Check the parameters */
2746:../../Drivers/STM32F7xx_HAL_Driver/Src/stm32f7xx_hal_i2c.c ****   assert_param(IS_I2C_TRANSFER_OPTIONS_REQUEST(XferOptions));
2747:../../Drivers/STM32F7xx_HAL_Driver/Src/stm32f7xx_hal_i2c.c ****   
2748:../../Drivers/STM32F7xx_HAL_Driver/Src/stm32f7xx_hal_i2c.c ****   if(hi2c->State == HAL_I2C_STATE_LISTEN)
 5557              		.loc 1 2748 0
 5558 0010 FB68     		ldr	r3, [r7, #12]
 5559 0012 93F84130 		ldrb	r3, [r3, #65]
 5560 0016 DBB2     		uxtb	r3, r3
 5561 0018 282B     		cmp	r3, #40
 5562 001a 50D1     		bne	.L286
2749:../../Drivers/STM32F7xx_HAL_Driver/Src/stm32f7xx_hal_i2c.c ****   {
ARM GAS  /tmp/cczIhzQ0.s 			page 146


2750:../../Drivers/STM32F7xx_HAL_Driver/Src/stm32f7xx_hal_i2c.c ****     if((pData == NULL) || (Size == 0))
 5563              		.loc 1 2750 0
 5564 001c BB68     		ldr	r3, [r7, #8]
 5565 001e 002B     		cmp	r3, #0
 5566 0020 02D0     		beq	.L287
 5567              		.loc 1 2750 0 is_stmt 0 discriminator 1
 5568 0022 FB88     		ldrh	r3, [r7, #6]
 5569 0024 002B     		cmp	r3, #0
 5570 0026 01D1     		bne	.L288
 5571              	.L287:
2751:../../Drivers/STM32F7xx_HAL_Driver/Src/stm32f7xx_hal_i2c.c ****     {
2752:../../Drivers/STM32F7xx_HAL_Driver/Src/stm32f7xx_hal_i2c.c ****       return  HAL_ERROR;
 5572              		.loc 1 2752 0 is_stmt 1
 5573 0028 0123     		movs	r3, #1
 5574 002a 49E0     		b	.L289
 5575              	.L288:
2753:../../Drivers/STM32F7xx_HAL_Driver/Src/stm32f7xx_hal_i2c.c ****     }
2754:../../Drivers/STM32F7xx_HAL_Driver/Src/stm32f7xx_hal_i2c.c ****     
2755:../../Drivers/STM32F7xx_HAL_Driver/Src/stm32f7xx_hal_i2c.c ****     /* Disable Interrupts, to prevent preemption during treatment in case of multicall */
2756:../../Drivers/STM32F7xx_HAL_Driver/Src/stm32f7xx_hal_i2c.c ****     I2C_Disable_IRQ(hi2c, I2C_XFER_LISTEN_IT | I2C_XFER_RX_IT);
 5576              		.loc 1 2756 0
 5577 002c F868     		ldr	r0, [r7, #12]
 5578 002e 0621     		movs	r1, #6
 5579 0030 FFF7FEFF 		bl	I2C_Disable_IRQ
2757:../../Drivers/STM32F7xx_HAL_Driver/Src/stm32f7xx_hal_i2c.c ****     
2758:../../Drivers/STM32F7xx_HAL_Driver/Src/stm32f7xx_hal_i2c.c ****     /* Process Locked */
2759:../../Drivers/STM32F7xx_HAL_Driver/Src/stm32f7xx_hal_i2c.c ****     __HAL_LOCK(hi2c);
 5580              		.loc 1 2759 0
 5581 0034 FB68     		ldr	r3, [r7, #12]
 5582 0036 93F84030 		ldrb	r3, [r3, #64]	@ zero_extendqisi2
 5583 003a 012B     		cmp	r3, #1
 5584 003c 01D1     		bne	.L290
 5585              		.loc 1 2759 0 is_stmt 0 discriminator 1
 5586 003e 0223     		movs	r3, #2
 5587 0040 3EE0     		b	.L289
 5588              	.L290:
 5589              		.loc 1 2759 0 discriminator 2
 5590 0042 FB68     		ldr	r3, [r7, #12]
 5591 0044 0122     		movs	r2, #1
 5592 0046 83F84020 		strb	r2, [r3, #64]
2760:../../Drivers/STM32F7xx_HAL_Driver/Src/stm32f7xx_hal_i2c.c ****     
2761:../../Drivers/STM32F7xx_HAL_Driver/Src/stm32f7xx_hal_i2c.c ****     hi2c->State     = HAL_I2C_STATE_BUSY_RX_LISTEN;
 5593              		.loc 1 2761 0 is_stmt 1 discriminator 2
 5594 004a FB68     		ldr	r3, [r7, #12]
 5595 004c 2A22     		movs	r2, #42
 5596 004e 83F84120 		strb	r2, [r3, #65]
2762:../../Drivers/STM32F7xx_HAL_Driver/Src/stm32f7xx_hal_i2c.c ****     hi2c->Mode      = HAL_I2C_MODE_SLAVE;
 5597              		.loc 1 2762 0 discriminator 2
 5598 0052 FB68     		ldr	r3, [r7, #12]
 5599 0054 2022     		movs	r2, #32
 5600 0056 83F84220 		strb	r2, [r3, #66]
2763:../../Drivers/STM32F7xx_HAL_Driver/Src/stm32f7xx_hal_i2c.c ****     hi2c->ErrorCode = HAL_I2C_ERROR_NONE;
 5601              		.loc 1 2763 0 discriminator 2
 5602 005a FB68     		ldr	r3, [r7, #12]
 5603 005c 0022     		movs	r2, #0
 5604 005e 5A64     		str	r2, [r3, #68]
2764:../../Drivers/STM32F7xx_HAL_Driver/Src/stm32f7xx_hal_i2c.c ****     
ARM GAS  /tmp/cczIhzQ0.s 			page 147


2765:../../Drivers/STM32F7xx_HAL_Driver/Src/stm32f7xx_hal_i2c.c ****     /* Enable Address Acknowledge */
2766:../../Drivers/STM32F7xx_HAL_Driver/Src/stm32f7xx_hal_i2c.c ****     hi2c->Instance->CR2 &= ~I2C_CR2_NACK;
 5605              		.loc 1 2766 0 discriminator 2
 5606 0060 FB68     		ldr	r3, [r7, #12]
 5607 0062 1B68     		ldr	r3, [r3]
 5608 0064 FA68     		ldr	r2, [r7, #12]
 5609 0066 1268     		ldr	r2, [r2]
 5610 0068 5268     		ldr	r2, [r2, #4]
 5611 006a 22F40042 		bic	r2, r2, #32768
 5612 006e 5A60     		str	r2, [r3, #4]
2767:../../Drivers/STM32F7xx_HAL_Driver/Src/stm32f7xx_hal_i2c.c ****     
2768:../../Drivers/STM32F7xx_HAL_Driver/Src/stm32f7xx_hal_i2c.c ****     /* Prepare transfer parameters */
2769:../../Drivers/STM32F7xx_HAL_Driver/Src/stm32f7xx_hal_i2c.c ****     hi2c->pBuffPtr    = pData;
 5613              		.loc 1 2769 0 discriminator 2
 5614 0070 FB68     		ldr	r3, [r7, #12]
 5615 0072 BA68     		ldr	r2, [r7, #8]
 5616 0074 5A62     		str	r2, [r3, #36]
2770:../../Drivers/STM32F7xx_HAL_Driver/Src/stm32f7xx_hal_i2c.c ****     hi2c->XferCount   = Size;
 5617              		.loc 1 2770 0 discriminator 2
 5618 0076 FB68     		ldr	r3, [r7, #12]
 5619 0078 FA88     		ldrh	r2, [r7, #6]	@ movhi
 5620 007a 5A85     		strh	r2, [r3, #42]	@ movhi
2771:../../Drivers/STM32F7xx_HAL_Driver/Src/stm32f7xx_hal_i2c.c ****     hi2c->XferSize    = hi2c->XferCount;
 5621              		.loc 1 2771 0 discriminator 2
 5622 007c FB68     		ldr	r3, [r7, #12]
 5623 007e 5B8D     		ldrh	r3, [r3, #42]	@ movhi
 5624 0080 9AB2     		uxth	r2, r3
 5625 0082 FB68     		ldr	r3, [r7, #12]
 5626 0084 1A85     		strh	r2, [r3, #40]	@ movhi
2772:../../Drivers/STM32F7xx_HAL_Driver/Src/stm32f7xx_hal_i2c.c ****     hi2c->XferOptions = XferOptions;
 5627              		.loc 1 2772 0 discriminator 2
 5628 0086 FB68     		ldr	r3, [r7, #12]
 5629 0088 3A68     		ldr	r2, [r7]
 5630 008a DA62     		str	r2, [r3, #44]
2773:../../Drivers/STM32F7xx_HAL_Driver/Src/stm32f7xx_hal_i2c.c ****     hi2c->XferISR     = I2C_Slave_ISR_IT;
 5631              		.loc 1 2773 0 discriminator 2
 5632 008c FB68     		ldr	r3, [r7, #12]
 5633 008e 0E4A     		ldr	r2, .L292
 5634 0090 5A63     		str	r2, [r3, #52]
2774:../../Drivers/STM32F7xx_HAL_Driver/Src/stm32f7xx_hal_i2c.c ****     
2775:../../Drivers/STM32F7xx_HAL_Driver/Src/stm32f7xx_hal_i2c.c ****     if(I2C_GET_DIR(hi2c) == I2C_DIRECTION_TRANSMIT)
 5635              		.loc 1 2775 0 discriminator 2
 5636 0092 FB68     		ldr	r3, [r7, #12]
 5637 0094 1B68     		ldr	r3, [r3]
 5638 0096 9B69     		ldr	r3, [r3, #24]
 5639 0098 03F48033 		and	r3, r3, #65536
 5640 009c 1B0C     		lsrs	r3, r3, #16
 5641 009e 002B     		cmp	r3, #0
 5642 00a0 03D1     		bne	.L291
2776:../../Drivers/STM32F7xx_HAL_Driver/Src/stm32f7xx_hal_i2c.c ****     {
2777:../../Drivers/STM32F7xx_HAL_Driver/Src/stm32f7xx_hal_i2c.c ****       /* Clear ADDR flag after prepare the transfer parameters */
2778:../../Drivers/STM32F7xx_HAL_Driver/Src/stm32f7xx_hal_i2c.c ****       /* This action will generate an acknowledge to the Master */
2779:../../Drivers/STM32F7xx_HAL_Driver/Src/stm32f7xx_hal_i2c.c ****       __HAL_I2C_CLEAR_FLAG(hi2c,I2C_FLAG_ADDR);
 5643              		.loc 1 2779 0
 5644 00a2 FB68     		ldr	r3, [r7, #12]
 5645 00a4 1B68     		ldr	r3, [r3]
 5646 00a6 0822     		movs	r2, #8
ARM GAS  /tmp/cczIhzQ0.s 			page 148


 5647 00a8 DA61     		str	r2, [r3, #28]
 5648              	.L291:
2780:../../Drivers/STM32F7xx_HAL_Driver/Src/stm32f7xx_hal_i2c.c ****     }
2781:../../Drivers/STM32F7xx_HAL_Driver/Src/stm32f7xx_hal_i2c.c ****     
2782:../../Drivers/STM32F7xx_HAL_Driver/Src/stm32f7xx_hal_i2c.c ****     /* Process Unlocked */
2783:../../Drivers/STM32F7xx_HAL_Driver/Src/stm32f7xx_hal_i2c.c ****     __HAL_UNLOCK(hi2c);
 5649              		.loc 1 2783 0
 5650 00aa FB68     		ldr	r3, [r7, #12]
 5651 00ac 0022     		movs	r2, #0
 5652 00ae 83F84020 		strb	r2, [r3, #64]
2784:../../Drivers/STM32F7xx_HAL_Driver/Src/stm32f7xx_hal_i2c.c ****     
2785:../../Drivers/STM32F7xx_HAL_Driver/Src/stm32f7xx_hal_i2c.c ****     /* Note : The I2C interrupts must be enabled after unlocking current process
2786:../../Drivers/STM32F7xx_HAL_Driver/Src/stm32f7xx_hal_i2c.c ****     to avoid the risk of I2C interrupt handle execution before current
2787:../../Drivers/STM32F7xx_HAL_Driver/Src/stm32f7xx_hal_i2c.c ****     process unlock */
2788:../../Drivers/STM32F7xx_HAL_Driver/Src/stm32f7xx_hal_i2c.c ****     /* REnable ADDR interrupt */
2789:../../Drivers/STM32F7xx_HAL_Driver/Src/stm32f7xx_hal_i2c.c ****     I2C_Enable_IRQ(hi2c, I2C_XFER_RX_IT | I2C_XFER_LISTEN_IT);
 5653              		.loc 1 2789 0
 5654 00b2 F868     		ldr	r0, [r7, #12]
 5655 00b4 0621     		movs	r1, #6
 5656 00b6 FFF7FEFF 		bl	I2C_Enable_IRQ
2790:../../Drivers/STM32F7xx_HAL_Driver/Src/stm32f7xx_hal_i2c.c ****     
2791:../../Drivers/STM32F7xx_HAL_Driver/Src/stm32f7xx_hal_i2c.c ****     return HAL_OK;
 5657              		.loc 1 2791 0
 5658 00ba 0023     		movs	r3, #0
 5659 00bc 00E0     		b	.L289
 5660              	.L286:
2792:../../Drivers/STM32F7xx_HAL_Driver/Src/stm32f7xx_hal_i2c.c ****   }
2793:../../Drivers/STM32F7xx_HAL_Driver/Src/stm32f7xx_hal_i2c.c ****   else
2794:../../Drivers/STM32F7xx_HAL_Driver/Src/stm32f7xx_hal_i2c.c ****   {
2795:../../Drivers/STM32F7xx_HAL_Driver/Src/stm32f7xx_hal_i2c.c ****     return HAL_ERROR;
 5661              		.loc 1 2795 0
 5662 00be 0123     		movs	r3, #1
 5663              	.L289:
2796:../../Drivers/STM32F7xx_HAL_Driver/Src/stm32f7xx_hal_i2c.c ****   }
2797:../../Drivers/STM32F7xx_HAL_Driver/Src/stm32f7xx_hal_i2c.c **** }
 5664              		.loc 1 2797 0
 5665 00c0 1846     		mov	r0, r3
 5666 00c2 1037     		adds	r7, r7, #16
 5667              	.LCFI135:
 5668              		.cfi_def_cfa_offset 8
 5669 00c4 BD46     		mov	sp, r7
 5670              	.LCFI136:
 5671              		.cfi_def_cfa_register 13
 5672              		@ sp needed
 5673 00c6 80BD     		pop	{r7, pc}
 5674              	.L293:
 5675              		.align	2
 5676              	.L292:
 5677 00c8 00000000 		.word	I2C_Slave_ISR_IT
 5678              		.cfi_endproc
 5679              	.LFE161:
 5681              		.section	.text.HAL_I2C_EnableListen_IT,"ax",%progbits
 5682              		.align	2
 5683              		.global	HAL_I2C_EnableListen_IT
 5684              		.thumb
 5685              		.thumb_func
 5687              	HAL_I2C_EnableListen_IT:
ARM GAS  /tmp/cczIhzQ0.s 			page 149


 5688              	.LFB162:
2798:../../Drivers/STM32F7xx_HAL_Driver/Src/stm32f7xx_hal_i2c.c **** 
2799:../../Drivers/STM32F7xx_HAL_Driver/Src/stm32f7xx_hal_i2c.c **** /**
2800:../../Drivers/STM32F7xx_HAL_Driver/Src/stm32f7xx_hal_i2c.c ****   * @brief  Enable the Address listen mode with Interrupt.
2801:../../Drivers/STM32F7xx_HAL_Driver/Src/stm32f7xx_hal_i2c.c ****   * @param  hi2c: Pointer to a I2C_HandleTypeDef structure that contains
2802:../../Drivers/STM32F7xx_HAL_Driver/Src/stm32f7xx_hal_i2c.c ****   *               the configuration information for the specified I2C.
2803:../../Drivers/STM32F7xx_HAL_Driver/Src/stm32f7xx_hal_i2c.c ****   * @retval HAL status
2804:../../Drivers/STM32F7xx_HAL_Driver/Src/stm32f7xx_hal_i2c.c ****   */
2805:../../Drivers/STM32F7xx_HAL_Driver/Src/stm32f7xx_hal_i2c.c **** HAL_StatusTypeDef HAL_I2C_EnableListen_IT(I2C_HandleTypeDef *hi2c)
2806:../../Drivers/STM32F7xx_HAL_Driver/Src/stm32f7xx_hal_i2c.c **** {
 5689              		.loc 1 2806 0
 5690              		.cfi_startproc
 5691              		@ args = 0, pretend = 0, frame = 8
 5692              		@ frame_needed = 1, uses_anonymous_args = 0
 5693 0000 80B5     		push	{r7, lr}
 5694              	.LCFI137:
 5695              		.cfi_def_cfa_offset 8
 5696              		.cfi_offset 7, -8
 5697              		.cfi_offset 14, -4
 5698 0002 82B0     		sub	sp, sp, #8
 5699              	.LCFI138:
 5700              		.cfi_def_cfa_offset 16
 5701 0004 00AF     		add	r7, sp, #0
 5702              	.LCFI139:
 5703              		.cfi_def_cfa_register 7
 5704 0006 7860     		str	r0, [r7, #4]
2807:../../Drivers/STM32F7xx_HAL_Driver/Src/stm32f7xx_hal_i2c.c ****   if(hi2c->State == HAL_I2C_STATE_READY)
 5705              		.loc 1 2807 0
 5706 0008 7B68     		ldr	r3, [r7, #4]
 5707 000a 93F84130 		ldrb	r3, [r3, #65]
 5708 000e DBB2     		uxtb	r3, r3
 5709 0010 202B     		cmp	r3, #32
 5710 0012 0CD1     		bne	.L295
2808:../../Drivers/STM32F7xx_HAL_Driver/Src/stm32f7xx_hal_i2c.c ****   {
2809:../../Drivers/STM32F7xx_HAL_Driver/Src/stm32f7xx_hal_i2c.c ****     hi2c->State = HAL_I2C_STATE_LISTEN;
 5711              		.loc 1 2809 0
 5712 0014 7B68     		ldr	r3, [r7, #4]
 5713 0016 2822     		movs	r2, #40
 5714 0018 83F84120 		strb	r2, [r3, #65]
2810:../../Drivers/STM32F7xx_HAL_Driver/Src/stm32f7xx_hal_i2c.c ****     hi2c->XferISR = I2C_Slave_ISR_IT;
 5715              		.loc 1 2810 0
 5716 001c 7B68     		ldr	r3, [r7, #4]
 5717 001e 064A     		ldr	r2, .L297
 5718 0020 5A63     		str	r2, [r3, #52]
2811:../../Drivers/STM32F7xx_HAL_Driver/Src/stm32f7xx_hal_i2c.c ****     
2812:../../Drivers/STM32F7xx_HAL_Driver/Src/stm32f7xx_hal_i2c.c ****     /* Enable the Address Match interrupt */
2813:../../Drivers/STM32F7xx_HAL_Driver/Src/stm32f7xx_hal_i2c.c ****     I2C_Enable_IRQ(hi2c, I2C_XFER_LISTEN_IT);
 5719              		.loc 1 2813 0
 5720 0022 7868     		ldr	r0, [r7, #4]
 5721 0024 0421     		movs	r1, #4
 5722 0026 FFF7FEFF 		bl	I2C_Enable_IRQ
2814:../../Drivers/STM32F7xx_HAL_Driver/Src/stm32f7xx_hal_i2c.c ****     
2815:../../Drivers/STM32F7xx_HAL_Driver/Src/stm32f7xx_hal_i2c.c ****     return HAL_OK;
 5723              		.loc 1 2815 0
 5724 002a 0023     		movs	r3, #0
 5725 002c 00E0     		b	.L296
 5726              	.L295:
ARM GAS  /tmp/cczIhzQ0.s 			page 150


2816:../../Drivers/STM32F7xx_HAL_Driver/Src/stm32f7xx_hal_i2c.c ****   }
2817:../../Drivers/STM32F7xx_HAL_Driver/Src/stm32f7xx_hal_i2c.c ****   else
2818:../../Drivers/STM32F7xx_HAL_Driver/Src/stm32f7xx_hal_i2c.c ****   {
2819:../../Drivers/STM32F7xx_HAL_Driver/Src/stm32f7xx_hal_i2c.c ****     return HAL_BUSY;
 5727              		.loc 1 2819 0
 5728 002e 0223     		movs	r3, #2
 5729              	.L296:
2820:../../Drivers/STM32F7xx_HAL_Driver/Src/stm32f7xx_hal_i2c.c ****   }
2821:../../Drivers/STM32F7xx_HAL_Driver/Src/stm32f7xx_hal_i2c.c **** }
 5730              		.loc 1 2821 0
 5731 0030 1846     		mov	r0, r3
 5732 0032 0837     		adds	r7, r7, #8
 5733              	.LCFI140:
 5734              		.cfi_def_cfa_offset 8
 5735 0034 BD46     		mov	sp, r7
 5736              	.LCFI141:
 5737              		.cfi_def_cfa_register 13
 5738              		@ sp needed
 5739 0036 80BD     		pop	{r7, pc}
 5740              	.L298:
 5741              		.align	2
 5742              	.L297:
 5743 0038 00000000 		.word	I2C_Slave_ISR_IT
 5744              		.cfi_endproc
 5745              	.LFE162:
 5747              		.section	.text.HAL_I2C_DisableListen_IT,"ax",%progbits
 5748              		.align	2
 5749              		.global	HAL_I2C_DisableListen_IT
 5750              		.thumb
 5751              		.thumb_func
 5753              	HAL_I2C_DisableListen_IT:
 5754              	.LFB163:
2822:../../Drivers/STM32F7xx_HAL_Driver/Src/stm32f7xx_hal_i2c.c **** 
2823:../../Drivers/STM32F7xx_HAL_Driver/Src/stm32f7xx_hal_i2c.c **** /**
2824:../../Drivers/STM32F7xx_HAL_Driver/Src/stm32f7xx_hal_i2c.c ****   * @brief  Disable the Address listen mode with Interrupt.
2825:../../Drivers/STM32F7xx_HAL_Driver/Src/stm32f7xx_hal_i2c.c ****   * @param  hi2c: Pointer to a I2C_HandleTypeDef structure that contains
2826:../../Drivers/STM32F7xx_HAL_Driver/Src/stm32f7xx_hal_i2c.c ****   *               the configuration information for the specified I2C
2827:../../Drivers/STM32F7xx_HAL_Driver/Src/stm32f7xx_hal_i2c.c ****   * @retval HAL status
2828:../../Drivers/STM32F7xx_HAL_Driver/Src/stm32f7xx_hal_i2c.c ****   */
2829:../../Drivers/STM32F7xx_HAL_Driver/Src/stm32f7xx_hal_i2c.c **** HAL_StatusTypeDef HAL_I2C_DisableListen_IT(I2C_HandleTypeDef *hi2c)
2830:../../Drivers/STM32F7xx_HAL_Driver/Src/stm32f7xx_hal_i2c.c **** {
 5755              		.loc 1 2830 0
 5756              		.cfi_startproc
 5757              		@ args = 0, pretend = 0, frame = 16
 5758              		@ frame_needed = 1, uses_anonymous_args = 0
 5759 0000 80B5     		push	{r7, lr}
 5760              	.LCFI142:
 5761              		.cfi_def_cfa_offset 8
 5762              		.cfi_offset 7, -8
 5763              		.cfi_offset 14, -4
 5764 0002 84B0     		sub	sp, sp, #16
 5765              	.LCFI143:
 5766              		.cfi_def_cfa_offset 24
 5767 0004 00AF     		add	r7, sp, #0
 5768              	.LCFI144:
 5769              		.cfi_def_cfa_register 7
 5770 0006 7860     		str	r0, [r7, #4]
ARM GAS  /tmp/cczIhzQ0.s 			page 151


2831:../../Drivers/STM32F7xx_HAL_Driver/Src/stm32f7xx_hal_i2c.c ****   /* Declaration of tmp to prevent undefined behavior of volatile usage */
2832:../../Drivers/STM32F7xx_HAL_Driver/Src/stm32f7xx_hal_i2c.c ****   uint32_t tmp;
2833:../../Drivers/STM32F7xx_HAL_Driver/Src/stm32f7xx_hal_i2c.c ****   
2834:../../Drivers/STM32F7xx_HAL_Driver/Src/stm32f7xx_hal_i2c.c ****   /* Disable Address listen mode only if a transfer is not ongoing */
2835:../../Drivers/STM32F7xx_HAL_Driver/Src/stm32f7xx_hal_i2c.c ****   if(hi2c->State == HAL_I2C_STATE_LISTEN)
 5771              		.loc 1 2835 0
 5772 0008 7B68     		ldr	r3, [r7, #4]
 5773 000a 93F84130 		ldrb	r3, [r3, #65]
 5774 000e DBB2     		uxtb	r3, r3
 5775 0010 282B     		cmp	r3, #40
 5776 0012 20D1     		bne	.L300
2836:../../Drivers/STM32F7xx_HAL_Driver/Src/stm32f7xx_hal_i2c.c ****   {
2837:../../Drivers/STM32F7xx_HAL_Driver/Src/stm32f7xx_hal_i2c.c ****     tmp = (uint32_t)(hi2c->State) & I2C_STATE_MSK;
 5777              		.loc 1 2837 0
 5778 0014 7B68     		ldr	r3, [r7, #4]
 5779 0016 93F84130 		ldrb	r3, [r3, #65]
 5780 001a DBB2     		uxtb	r3, r3
 5781 001c 03F00303 		and	r3, r3, #3
 5782 0020 FB60     		str	r3, [r7, #12]
2838:../../Drivers/STM32F7xx_HAL_Driver/Src/stm32f7xx_hal_i2c.c ****     hi2c->PreviousState = tmp | (uint32_t)(hi2c->Mode);
 5783              		.loc 1 2838 0
 5784 0022 7B68     		ldr	r3, [r7, #4]
 5785 0024 93F84230 		ldrb	r3, [r3, #66]
 5786 0028 DBB2     		uxtb	r3, r3
 5787 002a 1A46     		mov	r2, r3
 5788 002c FB68     		ldr	r3, [r7, #12]
 5789 002e 1A43     		orrs	r2, r2, r3
 5790 0030 7B68     		ldr	r3, [r7, #4]
 5791 0032 1A63     		str	r2, [r3, #48]
2839:../../Drivers/STM32F7xx_HAL_Driver/Src/stm32f7xx_hal_i2c.c ****     hi2c->State = HAL_I2C_STATE_READY;
 5792              		.loc 1 2839 0
 5793 0034 7B68     		ldr	r3, [r7, #4]
 5794 0036 2022     		movs	r2, #32
 5795 0038 83F84120 		strb	r2, [r3, #65]
2840:../../Drivers/STM32F7xx_HAL_Driver/Src/stm32f7xx_hal_i2c.c ****     hi2c->Mode = HAL_I2C_MODE_NONE;
 5796              		.loc 1 2840 0
 5797 003c 7B68     		ldr	r3, [r7, #4]
 5798 003e 0022     		movs	r2, #0
 5799 0040 83F84220 		strb	r2, [r3, #66]
2841:../../Drivers/STM32F7xx_HAL_Driver/Src/stm32f7xx_hal_i2c.c ****     hi2c->XferISR = NULL;
 5800              		.loc 1 2841 0
 5801 0044 7B68     		ldr	r3, [r7, #4]
 5802 0046 0022     		movs	r2, #0
 5803 0048 5A63     		str	r2, [r3, #52]
2842:../../Drivers/STM32F7xx_HAL_Driver/Src/stm32f7xx_hal_i2c.c ****     
2843:../../Drivers/STM32F7xx_HAL_Driver/Src/stm32f7xx_hal_i2c.c ****     /* Disable the Address Match interrupt */
2844:../../Drivers/STM32F7xx_HAL_Driver/Src/stm32f7xx_hal_i2c.c ****     I2C_Disable_IRQ(hi2c, I2C_XFER_LISTEN_IT);
 5804              		.loc 1 2844 0
 5805 004a 7868     		ldr	r0, [r7, #4]
 5806 004c 0421     		movs	r1, #4
 5807 004e FFF7FEFF 		bl	I2C_Disable_IRQ
2845:../../Drivers/STM32F7xx_HAL_Driver/Src/stm32f7xx_hal_i2c.c ****     
2846:../../Drivers/STM32F7xx_HAL_Driver/Src/stm32f7xx_hal_i2c.c ****     return HAL_OK;
 5808              		.loc 1 2846 0
 5809 0052 0023     		movs	r3, #0
 5810 0054 00E0     		b	.L301
 5811              	.L300:
ARM GAS  /tmp/cczIhzQ0.s 			page 152


2847:../../Drivers/STM32F7xx_HAL_Driver/Src/stm32f7xx_hal_i2c.c ****   }
2848:../../Drivers/STM32F7xx_HAL_Driver/Src/stm32f7xx_hal_i2c.c ****   else
2849:../../Drivers/STM32F7xx_HAL_Driver/Src/stm32f7xx_hal_i2c.c ****   {
2850:../../Drivers/STM32F7xx_HAL_Driver/Src/stm32f7xx_hal_i2c.c ****     return HAL_BUSY;
 5812              		.loc 1 2850 0
 5813 0056 0223     		movs	r3, #2
 5814              	.L301:
2851:../../Drivers/STM32F7xx_HAL_Driver/Src/stm32f7xx_hal_i2c.c ****   }
2852:../../Drivers/STM32F7xx_HAL_Driver/Src/stm32f7xx_hal_i2c.c **** }
 5815              		.loc 1 2852 0
 5816 0058 1846     		mov	r0, r3
 5817 005a 1037     		adds	r7, r7, #16
 5818              	.LCFI145:
 5819              		.cfi_def_cfa_offset 8
 5820 005c BD46     		mov	sp, r7
 5821              	.LCFI146:
 5822              		.cfi_def_cfa_register 13
 5823              		@ sp needed
 5824 005e 80BD     		pop	{r7, pc}
 5825              		.cfi_endproc
 5826              	.LFE163:
 5828              		.section	.text.HAL_I2C_Master_Abort_IT,"ax",%progbits
 5829              		.align	2
 5830              		.global	HAL_I2C_Master_Abort_IT
 5831              		.thumb
 5832              		.thumb_func
 5834              	HAL_I2C_Master_Abort_IT:
 5835              	.LFB164:
2853:../../Drivers/STM32F7xx_HAL_Driver/Src/stm32f7xx_hal_i2c.c **** 
2854:../../Drivers/STM32F7xx_HAL_Driver/Src/stm32f7xx_hal_i2c.c **** /**
2855:../../Drivers/STM32F7xx_HAL_Driver/Src/stm32f7xx_hal_i2c.c ****   * @brief  Abort a master I2C IT or DMA process communication with Interrupt.
2856:../../Drivers/STM32F7xx_HAL_Driver/Src/stm32f7xx_hal_i2c.c ****   * @param  hi2c: Pointer to a I2C_HandleTypeDef structure that contains
2857:../../Drivers/STM32F7xx_HAL_Driver/Src/stm32f7xx_hal_i2c.c ****   *               the configuration information for the specified I2C.
2858:../../Drivers/STM32F7xx_HAL_Driver/Src/stm32f7xx_hal_i2c.c ****   * @param  DevAddress Target device address: The device 7 bits address value
2859:../../Drivers/STM32F7xx_HAL_Driver/Src/stm32f7xx_hal_i2c.c ****   *         in datasheet must be shift at right before call interface
2860:../../Drivers/STM32F7xx_HAL_Driver/Src/stm32f7xx_hal_i2c.c ****   * @retval HAL status
2861:../../Drivers/STM32F7xx_HAL_Driver/Src/stm32f7xx_hal_i2c.c ****   */
2862:../../Drivers/STM32F7xx_HAL_Driver/Src/stm32f7xx_hal_i2c.c **** HAL_StatusTypeDef HAL_I2C_Master_Abort_IT(I2C_HandleTypeDef *hi2c, uint16_t DevAddress)
2863:../../Drivers/STM32F7xx_HAL_Driver/Src/stm32f7xx_hal_i2c.c **** {
 5836              		.loc 1 2863 0
 5837              		.cfi_startproc
 5838              		@ args = 0, pretend = 0, frame = 8
 5839              		@ frame_needed = 1, uses_anonymous_args = 0
 5840 0000 80B5     		push	{r7, lr}
 5841              	.LCFI147:
 5842              		.cfi_def_cfa_offset 8
 5843              		.cfi_offset 7, -8
 5844              		.cfi_offset 14, -4
 5845 0002 84B0     		sub	sp, sp, #16
 5846              	.LCFI148:
 5847              		.cfi_def_cfa_offset 24
 5848 0004 02AF     		add	r7, sp, #8
 5849              	.LCFI149:
 5850              		.cfi_def_cfa 7, 16
 5851 0006 7860     		str	r0, [r7, #4]
 5852 0008 0B46     		mov	r3, r1
 5853 000a 7B80     		strh	r3, [r7, #2]	@ movhi
ARM GAS  /tmp/cczIhzQ0.s 			page 153


2864:../../Drivers/STM32F7xx_HAL_Driver/Src/stm32f7xx_hal_i2c.c ****   if(hi2c->Mode == HAL_I2C_MODE_MASTER)
 5854              		.loc 1 2864 0
 5855 000c 7B68     		ldr	r3, [r7, #4]
 5856 000e 93F84230 		ldrb	r3, [r3, #66]
 5857 0012 DBB2     		uxtb	r3, r3
 5858 0014 102B     		cmp	r3, #16
 5859 0016 2AD1     		bne	.L303
2865:../../Drivers/STM32F7xx_HAL_Driver/Src/stm32f7xx_hal_i2c.c ****   {
2866:../../Drivers/STM32F7xx_HAL_Driver/Src/stm32f7xx_hal_i2c.c ****     /* Process Locked */
2867:../../Drivers/STM32F7xx_HAL_Driver/Src/stm32f7xx_hal_i2c.c ****     __HAL_LOCK(hi2c);
 5860              		.loc 1 2867 0
 5861 0018 7B68     		ldr	r3, [r7, #4]
 5862 001a 93F84030 		ldrb	r3, [r3, #64]	@ zero_extendqisi2
 5863 001e 012B     		cmp	r3, #1
 5864 0020 01D1     		bne	.L304
 5865              		.loc 1 2867 0 is_stmt 0 discriminator 1
 5866 0022 0223     		movs	r3, #2
 5867 0024 24E0     		b	.L305
 5868              	.L304:
 5869              		.loc 1 2867 0 discriminator 2
 5870 0026 7B68     		ldr	r3, [r7, #4]
 5871 0028 0122     		movs	r2, #1
 5872 002a 83F84020 		strb	r2, [r3, #64]
2868:../../Drivers/STM32F7xx_HAL_Driver/Src/stm32f7xx_hal_i2c.c ****     
2869:../../Drivers/STM32F7xx_HAL_Driver/Src/stm32f7xx_hal_i2c.c ****     /* Disable Interrupts */
2870:../../Drivers/STM32F7xx_HAL_Driver/Src/stm32f7xx_hal_i2c.c ****     I2C_Disable_IRQ(hi2c, I2C_XFER_RX_IT);
 5873              		.loc 1 2870 0 is_stmt 1 discriminator 2
 5874 002e 7868     		ldr	r0, [r7, #4]
 5875 0030 0221     		movs	r1, #2
 5876 0032 FFF7FEFF 		bl	I2C_Disable_IRQ
2871:../../Drivers/STM32F7xx_HAL_Driver/Src/stm32f7xx_hal_i2c.c ****     I2C_Disable_IRQ(hi2c, I2C_XFER_TX_IT);
 5877              		.loc 1 2871 0 discriminator 2
 5878 0036 7868     		ldr	r0, [r7, #4]
 5879 0038 0121     		movs	r1, #1
 5880 003a FFF7FEFF 		bl	I2C_Disable_IRQ
2872:../../Drivers/STM32F7xx_HAL_Driver/Src/stm32f7xx_hal_i2c.c ****     
2873:../../Drivers/STM32F7xx_HAL_Driver/Src/stm32f7xx_hal_i2c.c ****     /* Set State at HAL_I2C_STATE_ABORT */
2874:../../Drivers/STM32F7xx_HAL_Driver/Src/stm32f7xx_hal_i2c.c ****     hi2c->State = HAL_I2C_STATE_ABORT;
 5881              		.loc 1 2874 0 discriminator 2
 5882 003e 7B68     		ldr	r3, [r7, #4]
 5883 0040 6022     		movs	r2, #96
 5884 0042 83F84120 		strb	r2, [r3, #65]
2875:../../Drivers/STM32F7xx_HAL_Driver/Src/stm32f7xx_hal_i2c.c ****     
2876:../../Drivers/STM32F7xx_HAL_Driver/Src/stm32f7xx_hal_i2c.c ****     /* Set NBYTES to 1 to generate a dummy read on I2C peripheral */
2877:../../Drivers/STM32F7xx_HAL_Driver/Src/stm32f7xx_hal_i2c.c ****     /* Set AUTOEND mode, this will generate a NACK then STOP condition to abort the current transfe
2878:../../Drivers/STM32F7xx_HAL_Driver/Src/stm32f7xx_hal_i2c.c ****     I2C_TransferConfig(hi2c, 0, 1, I2C_AUTOEND_MODE, I2C_GENERATE_STOP);
 5885              		.loc 1 2878 0 discriminator 2
 5886 0046 4FF48043 		mov	r3, #16384
 5887 004a 0093     		str	r3, [sp]
 5888 004c 7868     		ldr	r0, [r7, #4]
 5889 004e 0021     		movs	r1, #0
 5890 0050 0122     		movs	r2, #1
 5891 0052 4FF00073 		mov	r3, #33554432
 5892 0056 FFF7FEFF 		bl	I2C_TransferConfig
2879:../../Drivers/STM32F7xx_HAL_Driver/Src/stm32f7xx_hal_i2c.c ****     
2880:../../Drivers/STM32F7xx_HAL_Driver/Src/stm32f7xx_hal_i2c.c ****     /* Process Unlocked */
2881:../../Drivers/STM32F7xx_HAL_Driver/Src/stm32f7xx_hal_i2c.c ****     __HAL_UNLOCK(hi2c);
ARM GAS  /tmp/cczIhzQ0.s 			page 154


 5893              		.loc 1 2881 0 discriminator 2
 5894 005a 7B68     		ldr	r3, [r7, #4]
 5895 005c 0022     		movs	r2, #0
 5896 005e 83F84020 		strb	r2, [r3, #64]
2882:../../Drivers/STM32F7xx_HAL_Driver/Src/stm32f7xx_hal_i2c.c ****     
2883:../../Drivers/STM32F7xx_HAL_Driver/Src/stm32f7xx_hal_i2c.c ****     /* Note : The I2C interrupts must be enabled after unlocking current process 
2884:../../Drivers/STM32F7xx_HAL_Driver/Src/stm32f7xx_hal_i2c.c ****               to avoid the risk of I2C interrupt handle execution before current
2885:../../Drivers/STM32F7xx_HAL_Driver/Src/stm32f7xx_hal_i2c.c ****               process unlock */
2886:../../Drivers/STM32F7xx_HAL_Driver/Src/stm32f7xx_hal_i2c.c ****     I2C_Enable_IRQ(hi2c, I2C_XFER_CPLT_IT);
 5897              		.loc 1 2886 0 discriminator 2
 5898 0062 7868     		ldr	r0, [r7, #4]
 5899 0064 1221     		movs	r1, #18
 5900 0066 FFF7FEFF 		bl	I2C_Enable_IRQ
2887:../../Drivers/STM32F7xx_HAL_Driver/Src/stm32f7xx_hal_i2c.c ****     
2888:../../Drivers/STM32F7xx_HAL_Driver/Src/stm32f7xx_hal_i2c.c ****     return HAL_OK;
 5901              		.loc 1 2888 0 discriminator 2
 5902 006a 0023     		movs	r3, #0
 5903 006c 00E0     		b	.L305
 5904              	.L303:
2889:../../Drivers/STM32F7xx_HAL_Driver/Src/stm32f7xx_hal_i2c.c ****   }
2890:../../Drivers/STM32F7xx_HAL_Driver/Src/stm32f7xx_hal_i2c.c ****   else
2891:../../Drivers/STM32F7xx_HAL_Driver/Src/stm32f7xx_hal_i2c.c ****   {
2892:../../Drivers/STM32F7xx_HAL_Driver/Src/stm32f7xx_hal_i2c.c ****     /* Wrong usage of abort function */
2893:../../Drivers/STM32F7xx_HAL_Driver/Src/stm32f7xx_hal_i2c.c ****     /* This function should be used only in case of abort monitored by master device */
2894:../../Drivers/STM32F7xx_HAL_Driver/Src/stm32f7xx_hal_i2c.c ****     return HAL_ERROR;
 5905              		.loc 1 2894 0
 5906 006e 0123     		movs	r3, #1
 5907              	.L305:
2895:../../Drivers/STM32F7xx_HAL_Driver/Src/stm32f7xx_hal_i2c.c ****   }
2896:../../Drivers/STM32F7xx_HAL_Driver/Src/stm32f7xx_hal_i2c.c **** }
 5908              		.loc 1 2896 0
 5909 0070 1846     		mov	r0, r3
 5910 0072 0837     		adds	r7, r7, #8
 5911              	.LCFI150:
 5912              		.cfi_def_cfa_offset 8
 5913 0074 BD46     		mov	sp, r7
 5914              	.LCFI151:
 5915              		.cfi_def_cfa_register 13
 5916              		@ sp needed
 5917 0076 80BD     		pop	{r7, pc}
 5918              		.cfi_endproc
 5919              	.LFE164:
 5921              		.section	.text.HAL_I2C_EV_IRQHandler,"ax",%progbits
 5922              		.align	2
 5923              		.global	HAL_I2C_EV_IRQHandler
 5924              		.thumb
 5925              		.thumb_func
 5927              	HAL_I2C_EV_IRQHandler:
 5928              	.LFB165:
2897:../../Drivers/STM32F7xx_HAL_Driver/Src/stm32f7xx_hal_i2c.c **** 
2898:../../Drivers/STM32F7xx_HAL_Driver/Src/stm32f7xx_hal_i2c.c **** /**
2899:../../Drivers/STM32F7xx_HAL_Driver/Src/stm32f7xx_hal_i2c.c ****   * @}
2900:../../Drivers/STM32F7xx_HAL_Driver/Src/stm32f7xx_hal_i2c.c ****   */
2901:../../Drivers/STM32F7xx_HAL_Driver/Src/stm32f7xx_hal_i2c.c **** 
2902:../../Drivers/STM32F7xx_HAL_Driver/Src/stm32f7xx_hal_i2c.c **** /** @defgroup I2C_IRQ_Handler_and_Callbacks IRQ Handler and Callbacks
2903:../../Drivers/STM32F7xx_HAL_Driver/Src/stm32f7xx_hal_i2c.c ****  * @{
2904:../../Drivers/STM32F7xx_HAL_Driver/Src/stm32f7xx_hal_i2c.c ****  */   
ARM GAS  /tmp/cczIhzQ0.s 			page 155


2905:../../Drivers/STM32F7xx_HAL_Driver/Src/stm32f7xx_hal_i2c.c **** 
2906:../../Drivers/STM32F7xx_HAL_Driver/Src/stm32f7xx_hal_i2c.c **** /**
2907:../../Drivers/STM32F7xx_HAL_Driver/Src/stm32f7xx_hal_i2c.c ****   * @brief  This function handles I2C event interrupt request.
2908:../../Drivers/STM32F7xx_HAL_Driver/Src/stm32f7xx_hal_i2c.c ****   * @param  hi2c: Pointer to a I2C_HandleTypeDef structure that contains
2909:../../Drivers/STM32F7xx_HAL_Driver/Src/stm32f7xx_hal_i2c.c ****   *               the configuration information for the specified I2C.
2910:../../Drivers/STM32F7xx_HAL_Driver/Src/stm32f7xx_hal_i2c.c ****   * @retval None
2911:../../Drivers/STM32F7xx_HAL_Driver/Src/stm32f7xx_hal_i2c.c ****   */
2912:../../Drivers/STM32F7xx_HAL_Driver/Src/stm32f7xx_hal_i2c.c **** void HAL_I2C_EV_IRQHandler(I2C_HandleTypeDef *hi2c)
2913:../../Drivers/STM32F7xx_HAL_Driver/Src/stm32f7xx_hal_i2c.c **** {
 5929              		.loc 1 2913 0
 5930              		.cfi_startproc
 5931              		@ args = 0, pretend = 0, frame = 16
 5932              		@ frame_needed = 1, uses_anonymous_args = 0
 5933 0000 80B5     		push	{r7, lr}
 5934              	.LCFI152:
 5935              		.cfi_def_cfa_offset 8
 5936              		.cfi_offset 7, -8
 5937              		.cfi_offset 14, -4
 5938 0002 84B0     		sub	sp, sp, #16
 5939              	.LCFI153:
 5940              		.cfi_def_cfa_offset 24
 5941 0004 00AF     		add	r7, sp, #0
 5942              	.LCFI154:
 5943              		.cfi_def_cfa_register 7
 5944 0006 7860     		str	r0, [r7, #4]
2914:../../Drivers/STM32F7xx_HAL_Driver/Src/stm32f7xx_hal_i2c.c ****   /* Get current IT Flags and IT sources value */
2915:../../Drivers/STM32F7xx_HAL_Driver/Src/stm32f7xx_hal_i2c.c ****   uint32_t itflags   = READ_REG(hi2c->Instance->ISR);
 5945              		.loc 1 2915 0
 5946 0008 7B68     		ldr	r3, [r7, #4]
 5947 000a 1B68     		ldr	r3, [r3]
 5948 000c 9B69     		ldr	r3, [r3, #24]
 5949 000e FB60     		str	r3, [r7, #12]
2916:../../Drivers/STM32F7xx_HAL_Driver/Src/stm32f7xx_hal_i2c.c ****   uint32_t itsources = READ_REG(hi2c->Instance->CR1);
 5950              		.loc 1 2916 0
 5951 0010 7B68     		ldr	r3, [r7, #4]
 5952 0012 1B68     		ldr	r3, [r3]
 5953 0014 1B68     		ldr	r3, [r3]
 5954 0016 BB60     		str	r3, [r7, #8]
2917:../../Drivers/STM32F7xx_HAL_Driver/Src/stm32f7xx_hal_i2c.c ****   
2918:../../Drivers/STM32F7xx_HAL_Driver/Src/stm32f7xx_hal_i2c.c ****   /* I2C events treatment -------------------------------------*/
2919:../../Drivers/STM32F7xx_HAL_Driver/Src/stm32f7xx_hal_i2c.c ****   if(hi2c->XferISR != NULL)
 5955              		.loc 1 2919 0
 5956 0018 7B68     		ldr	r3, [r7, #4]
 5957 001a 5B6B     		ldr	r3, [r3, #52]
 5958 001c 002B     		cmp	r3, #0
 5959 001e 05D0     		beq	.L306
2920:../../Drivers/STM32F7xx_HAL_Driver/Src/stm32f7xx_hal_i2c.c ****   {
2921:../../Drivers/STM32F7xx_HAL_Driver/Src/stm32f7xx_hal_i2c.c ****     hi2c->XferISR(hi2c, itflags, itsources);
 5960              		.loc 1 2921 0
 5961 0020 7B68     		ldr	r3, [r7, #4]
 5962 0022 5B6B     		ldr	r3, [r3, #52]
 5963 0024 7868     		ldr	r0, [r7, #4]
 5964 0026 F968     		ldr	r1, [r7, #12]
 5965 0028 BA68     		ldr	r2, [r7, #8]
 5966 002a 9847     		blx	r3
 5967              	.L306:
2922:../../Drivers/STM32F7xx_HAL_Driver/Src/stm32f7xx_hal_i2c.c ****   }
ARM GAS  /tmp/cczIhzQ0.s 			page 156


2923:../../Drivers/STM32F7xx_HAL_Driver/Src/stm32f7xx_hal_i2c.c **** }
 5968              		.loc 1 2923 0
 5969 002c 1037     		adds	r7, r7, #16
 5970              	.LCFI155:
 5971              		.cfi_def_cfa_offset 8
 5972 002e BD46     		mov	sp, r7
 5973              	.LCFI156:
 5974              		.cfi_def_cfa_register 13
 5975              		@ sp needed
 5976 0030 80BD     		pop	{r7, pc}
 5977              		.cfi_endproc
 5978              	.LFE165:
 5980 0032 00BF     		.section	.text.HAL_I2C_ER_IRQHandler,"ax",%progbits
 5981              		.align	2
 5982              		.global	HAL_I2C_ER_IRQHandler
 5983              		.thumb
 5984              		.thumb_func
 5986              	HAL_I2C_ER_IRQHandler:
 5987              	.LFB166:
2924:../../Drivers/STM32F7xx_HAL_Driver/Src/stm32f7xx_hal_i2c.c **** 
2925:../../Drivers/STM32F7xx_HAL_Driver/Src/stm32f7xx_hal_i2c.c **** /**
2926:../../Drivers/STM32F7xx_HAL_Driver/Src/stm32f7xx_hal_i2c.c ****   * @brief  This function handles I2C error interrupt request.
2927:../../Drivers/STM32F7xx_HAL_Driver/Src/stm32f7xx_hal_i2c.c ****   * @param  hi2c: Pointer to a I2C_HandleTypeDef structure that contains
2928:../../Drivers/STM32F7xx_HAL_Driver/Src/stm32f7xx_hal_i2c.c ****   *               the configuration information for the specified I2C.
2929:../../Drivers/STM32F7xx_HAL_Driver/Src/stm32f7xx_hal_i2c.c ****   * @retval None
2930:../../Drivers/STM32F7xx_HAL_Driver/Src/stm32f7xx_hal_i2c.c ****   */
2931:../../Drivers/STM32F7xx_HAL_Driver/Src/stm32f7xx_hal_i2c.c **** void HAL_I2C_ER_IRQHandler(I2C_HandleTypeDef *hi2c)
2932:../../Drivers/STM32F7xx_HAL_Driver/Src/stm32f7xx_hal_i2c.c **** {
 5988              		.loc 1 2932 0
 5989              		.cfi_startproc
 5990              		@ args = 0, pretend = 0, frame = 16
 5991              		@ frame_needed = 1, uses_anonymous_args = 0
 5992 0000 80B5     		push	{r7, lr}
 5993              	.LCFI157:
 5994              		.cfi_def_cfa_offset 8
 5995              		.cfi_offset 7, -8
 5996              		.cfi_offset 14, -4
 5997 0002 84B0     		sub	sp, sp, #16
 5998              	.LCFI158:
 5999              		.cfi_def_cfa_offset 24
 6000 0004 00AF     		add	r7, sp, #0
 6001              	.LCFI159:
 6002              		.cfi_def_cfa_register 7
 6003 0006 7860     		str	r0, [r7, #4]
2933:../../Drivers/STM32F7xx_HAL_Driver/Src/stm32f7xx_hal_i2c.c ****   uint32_t itflags   = READ_REG(hi2c->Instance->ISR);
 6004              		.loc 1 2933 0
 6005 0008 7B68     		ldr	r3, [r7, #4]
 6006 000a 1B68     		ldr	r3, [r3]
 6007 000c 9B69     		ldr	r3, [r3, #24]
 6008 000e FB60     		str	r3, [r7, #12]
2934:../../Drivers/STM32F7xx_HAL_Driver/Src/stm32f7xx_hal_i2c.c ****   uint32_t itsources = READ_REG(hi2c->Instance->CR1);
 6009              		.loc 1 2934 0
 6010 0010 7B68     		ldr	r3, [r7, #4]
 6011 0012 1B68     		ldr	r3, [r3]
 6012 0014 1B68     		ldr	r3, [r3]
 6013 0016 BB60     		str	r3, [r7, #8]
2935:../../Drivers/STM32F7xx_HAL_Driver/Src/stm32f7xx_hal_i2c.c ****   
ARM GAS  /tmp/cczIhzQ0.s 			page 157


2936:../../Drivers/STM32F7xx_HAL_Driver/Src/stm32f7xx_hal_i2c.c ****   /* I2C Bus error interrupt occurred ------------------------------------*/
2937:../../Drivers/STM32F7xx_HAL_Driver/Src/stm32f7xx_hal_i2c.c ****   if(((itflags & I2C_FLAG_BERR) != RESET) && ((itsources & I2C_IT_ERRI) != RESET))
 6014              		.loc 1 2937 0
 6015 0018 FB68     		ldr	r3, [r7, #12]
 6016 001a 03F48073 		and	r3, r3, #256
 6017 001e 002B     		cmp	r3, #0
 6018 0020 0FD0     		beq	.L309
 6019              		.loc 1 2937 0 is_stmt 0 discriminator 1
 6020 0022 BB68     		ldr	r3, [r7, #8]
 6021 0024 03F08003 		and	r3, r3, #128
 6022 0028 002B     		cmp	r3, #0
 6023 002a 0AD0     		beq	.L309
2938:../../Drivers/STM32F7xx_HAL_Driver/Src/stm32f7xx_hal_i2c.c ****   {
2939:../../Drivers/STM32F7xx_HAL_Driver/Src/stm32f7xx_hal_i2c.c ****     hi2c->ErrorCode |= HAL_I2C_ERROR_BERR;
 6024              		.loc 1 2939 0 is_stmt 1
 6025 002c 7B68     		ldr	r3, [r7, #4]
 6026 002e 5B6C     		ldr	r3, [r3, #68]
 6027 0030 43F00102 		orr	r2, r3, #1
 6028 0034 7B68     		ldr	r3, [r7, #4]
 6029 0036 5A64     		str	r2, [r3, #68]
2940:../../Drivers/STM32F7xx_HAL_Driver/Src/stm32f7xx_hal_i2c.c ****     
2941:../../Drivers/STM32F7xx_HAL_Driver/Src/stm32f7xx_hal_i2c.c ****     /* Clear BERR flag */
2942:../../Drivers/STM32F7xx_HAL_Driver/Src/stm32f7xx_hal_i2c.c ****     __HAL_I2C_CLEAR_FLAG(hi2c, I2C_FLAG_BERR);
 6030              		.loc 1 2942 0
 6031 0038 7B68     		ldr	r3, [r7, #4]
 6032 003a 1B68     		ldr	r3, [r3]
 6033 003c 4FF48072 		mov	r2, #256
 6034 0040 DA61     		str	r2, [r3, #28]
 6035              	.L309:
2943:../../Drivers/STM32F7xx_HAL_Driver/Src/stm32f7xx_hal_i2c.c ****   }
2944:../../Drivers/STM32F7xx_HAL_Driver/Src/stm32f7xx_hal_i2c.c ****   
2945:../../Drivers/STM32F7xx_HAL_Driver/Src/stm32f7xx_hal_i2c.c ****   /* I2C Over-Run/Under-Run interrupt occurred ----------------------------------------*/
2946:../../Drivers/STM32F7xx_HAL_Driver/Src/stm32f7xx_hal_i2c.c ****   if(((itflags & I2C_FLAG_OVR) != RESET) && ((itsources & I2C_IT_ERRI) != RESET))
 6036              		.loc 1 2946 0
 6037 0042 FB68     		ldr	r3, [r7, #12]
 6038 0044 03F48063 		and	r3, r3, #1024
 6039 0048 002B     		cmp	r3, #0
 6040 004a 0FD0     		beq	.L310
 6041              		.loc 1 2946 0 is_stmt 0 discriminator 1
 6042 004c BB68     		ldr	r3, [r7, #8]
 6043 004e 03F08003 		and	r3, r3, #128
 6044 0052 002B     		cmp	r3, #0
 6045 0054 0AD0     		beq	.L310
2947:../../Drivers/STM32F7xx_HAL_Driver/Src/stm32f7xx_hal_i2c.c ****   {
2948:../../Drivers/STM32F7xx_HAL_Driver/Src/stm32f7xx_hal_i2c.c ****     hi2c->ErrorCode |= HAL_I2C_ERROR_OVR;
 6046              		.loc 1 2948 0 is_stmt 1
 6047 0056 7B68     		ldr	r3, [r7, #4]
 6048 0058 5B6C     		ldr	r3, [r3, #68]
 6049 005a 43F00802 		orr	r2, r3, #8
 6050 005e 7B68     		ldr	r3, [r7, #4]
 6051 0060 5A64     		str	r2, [r3, #68]
2949:../../Drivers/STM32F7xx_HAL_Driver/Src/stm32f7xx_hal_i2c.c ****     
2950:../../Drivers/STM32F7xx_HAL_Driver/Src/stm32f7xx_hal_i2c.c ****     /* Clear OVR flag */
2951:../../Drivers/STM32F7xx_HAL_Driver/Src/stm32f7xx_hal_i2c.c ****     __HAL_I2C_CLEAR_FLAG(hi2c, I2C_FLAG_OVR);
 6052              		.loc 1 2951 0
 6053 0062 7B68     		ldr	r3, [r7, #4]
 6054 0064 1B68     		ldr	r3, [r3]
ARM GAS  /tmp/cczIhzQ0.s 			page 158


 6055 0066 4FF48062 		mov	r2, #1024
 6056 006a DA61     		str	r2, [r3, #28]
 6057              	.L310:
2952:../../Drivers/STM32F7xx_HAL_Driver/Src/stm32f7xx_hal_i2c.c ****   }
2953:../../Drivers/STM32F7xx_HAL_Driver/Src/stm32f7xx_hal_i2c.c ****   
2954:../../Drivers/STM32F7xx_HAL_Driver/Src/stm32f7xx_hal_i2c.c ****   /* I2C Arbitration Loss error interrupt occurred -------------------------------------*/
2955:../../Drivers/STM32F7xx_HAL_Driver/Src/stm32f7xx_hal_i2c.c ****   if(((itflags & I2C_FLAG_ARLO) != RESET) && ((itsources & I2C_IT_ERRI) != RESET))
 6058              		.loc 1 2955 0
 6059 006c FB68     		ldr	r3, [r7, #12]
 6060 006e 03F40073 		and	r3, r3, #512
 6061 0072 002B     		cmp	r3, #0
 6062 0074 0FD0     		beq	.L311
 6063              		.loc 1 2955 0 is_stmt 0 discriminator 1
 6064 0076 BB68     		ldr	r3, [r7, #8]
 6065 0078 03F08003 		and	r3, r3, #128
 6066 007c 002B     		cmp	r3, #0
 6067 007e 0AD0     		beq	.L311
2956:../../Drivers/STM32F7xx_HAL_Driver/Src/stm32f7xx_hal_i2c.c ****   {
2957:../../Drivers/STM32F7xx_HAL_Driver/Src/stm32f7xx_hal_i2c.c ****     hi2c->ErrorCode |= HAL_I2C_ERROR_ARLO;
 6068              		.loc 1 2957 0 is_stmt 1
 6069 0080 7B68     		ldr	r3, [r7, #4]
 6070 0082 5B6C     		ldr	r3, [r3, #68]
 6071 0084 43F00202 		orr	r2, r3, #2
 6072 0088 7B68     		ldr	r3, [r7, #4]
 6073 008a 5A64     		str	r2, [r3, #68]
2958:../../Drivers/STM32F7xx_HAL_Driver/Src/stm32f7xx_hal_i2c.c ****     
2959:../../Drivers/STM32F7xx_HAL_Driver/Src/stm32f7xx_hal_i2c.c ****     /* Clear ARLO flag */
2960:../../Drivers/STM32F7xx_HAL_Driver/Src/stm32f7xx_hal_i2c.c ****     __HAL_I2C_CLEAR_FLAG(hi2c, I2C_FLAG_ARLO);
 6074              		.loc 1 2960 0
 6075 008c 7B68     		ldr	r3, [r7, #4]
 6076 008e 1B68     		ldr	r3, [r3]
 6077 0090 4FF40072 		mov	r2, #512
 6078 0094 DA61     		str	r2, [r3, #28]
 6079              	.L311:
2961:../../Drivers/STM32F7xx_HAL_Driver/Src/stm32f7xx_hal_i2c.c ****   }
2962:../../Drivers/STM32F7xx_HAL_Driver/Src/stm32f7xx_hal_i2c.c ****   
2963:../../Drivers/STM32F7xx_HAL_Driver/Src/stm32f7xx_hal_i2c.c ****   /* Call the Error Callback in case of Error detected */
2964:../../Drivers/STM32F7xx_HAL_Driver/Src/stm32f7xx_hal_i2c.c ****   if((hi2c->ErrorCode & (HAL_I2C_ERROR_BERR | HAL_I2C_ERROR_OVR | HAL_I2C_ERROR_ARLO)) !=  HAL_I2C_
 6080              		.loc 1 2964 0
 6081 0096 7B68     		ldr	r3, [r7, #4]
 6082 0098 5B6C     		ldr	r3, [r3, #68]
 6083 009a 03F00B03 		and	r3, r3, #11
 6084 009e 002B     		cmp	r3, #0
 6085 00a0 05D0     		beq	.L308
2965:../../Drivers/STM32F7xx_HAL_Driver/Src/stm32f7xx_hal_i2c.c ****   {
2966:../../Drivers/STM32F7xx_HAL_Driver/Src/stm32f7xx_hal_i2c.c ****     I2C_ITError(hi2c, hi2c->ErrorCode);
 6086              		.loc 1 2966 0
 6087 00a2 7B68     		ldr	r3, [r7, #4]
 6088 00a4 5B6C     		ldr	r3, [r3, #68]
 6089 00a6 7868     		ldr	r0, [r7, #4]
 6090 00a8 1946     		mov	r1, r3
 6091 00aa FFF7FEFF 		bl	I2C_ITError
 6092              	.L308:
2967:../../Drivers/STM32F7xx_HAL_Driver/Src/stm32f7xx_hal_i2c.c ****   }
2968:../../Drivers/STM32F7xx_HAL_Driver/Src/stm32f7xx_hal_i2c.c **** }
 6093              		.loc 1 2968 0
 6094 00ae 1037     		adds	r7, r7, #16
ARM GAS  /tmp/cczIhzQ0.s 			page 159


 6095              	.LCFI160:
 6096              		.cfi_def_cfa_offset 8
 6097 00b0 BD46     		mov	sp, r7
 6098              	.LCFI161:
 6099              		.cfi_def_cfa_register 13
 6100              		@ sp needed
 6101 00b2 80BD     		pop	{r7, pc}
 6102              		.cfi_endproc
 6103              	.LFE166:
 6105              		.section	.text.HAL_I2C_MasterTxCpltCallback,"ax",%progbits
 6106              		.align	2
 6107              		.weak	HAL_I2C_MasterTxCpltCallback
 6108              		.thumb
 6109              		.thumb_func
 6111              	HAL_I2C_MasterTxCpltCallback:
 6112              	.LFB167:
2969:../../Drivers/STM32F7xx_HAL_Driver/Src/stm32f7xx_hal_i2c.c **** 
2970:../../Drivers/STM32F7xx_HAL_Driver/Src/stm32f7xx_hal_i2c.c **** /**
2971:../../Drivers/STM32F7xx_HAL_Driver/Src/stm32f7xx_hal_i2c.c ****   * @brief  Master Tx Transfer completed callback.
2972:../../Drivers/STM32F7xx_HAL_Driver/Src/stm32f7xx_hal_i2c.c ****   * @param  hi2c: Pointer to a I2C_HandleTypeDef structure that contains
2973:../../Drivers/STM32F7xx_HAL_Driver/Src/stm32f7xx_hal_i2c.c ****   *               the configuration information for the specified I2C.
2974:../../Drivers/STM32F7xx_HAL_Driver/Src/stm32f7xx_hal_i2c.c ****   * @retval None
2975:../../Drivers/STM32F7xx_HAL_Driver/Src/stm32f7xx_hal_i2c.c ****   */
2976:../../Drivers/STM32F7xx_HAL_Driver/Src/stm32f7xx_hal_i2c.c **** __weak void HAL_I2C_MasterTxCpltCallback(I2C_HandleTypeDef *hi2c)
2977:../../Drivers/STM32F7xx_HAL_Driver/Src/stm32f7xx_hal_i2c.c **** {
 6113              		.loc 1 2977 0
 6114              		.cfi_startproc
 6115              		@ args = 0, pretend = 0, frame = 8
 6116              		@ frame_needed = 1, uses_anonymous_args = 0
 6117              		@ link register save eliminated.
 6118 0000 80B4     		push	{r7}
 6119              	.LCFI162:
 6120              		.cfi_def_cfa_offset 4
 6121              		.cfi_offset 7, -4
 6122 0002 83B0     		sub	sp, sp, #12
 6123              	.LCFI163:
 6124              		.cfi_def_cfa_offset 16
 6125 0004 00AF     		add	r7, sp, #0
 6126              	.LCFI164:
 6127              		.cfi_def_cfa_register 7
 6128 0006 7860     		str	r0, [r7, #4]
2978:../../Drivers/STM32F7xx_HAL_Driver/Src/stm32f7xx_hal_i2c.c ****   /* Prevent unused argument(s) compilation warning */
2979:../../Drivers/STM32F7xx_HAL_Driver/Src/stm32f7xx_hal_i2c.c ****   UNUSED(hi2c);
2980:../../Drivers/STM32F7xx_HAL_Driver/Src/stm32f7xx_hal_i2c.c ****   
2981:../../Drivers/STM32F7xx_HAL_Driver/Src/stm32f7xx_hal_i2c.c ****   /* NOTE : This function should not be modified, when the callback is needed,
2982:../../Drivers/STM32F7xx_HAL_Driver/Src/stm32f7xx_hal_i2c.c ****             the HAL_I2C_MasterTxCpltCallback could be implemented in the user file
2983:../../Drivers/STM32F7xx_HAL_Driver/Src/stm32f7xx_hal_i2c.c ****    */
2984:../../Drivers/STM32F7xx_HAL_Driver/Src/stm32f7xx_hal_i2c.c **** }
 6129              		.loc 1 2984 0
 6130 0008 0C37     		adds	r7, r7, #12
 6131              	.LCFI165:
 6132              		.cfi_def_cfa_offset 4
 6133 000a BD46     		mov	sp, r7
 6134              	.LCFI166:
 6135              		.cfi_def_cfa_register 13
 6136              		@ sp needed
 6137 000c 5DF8047B 		ldr	r7, [sp], #4
ARM GAS  /tmp/cczIhzQ0.s 			page 160


 6138              	.LCFI167:
 6139              		.cfi_restore 7
 6140              		.cfi_def_cfa_offset 0
 6141 0010 7047     		bx	lr
 6142              		.cfi_endproc
 6143              	.LFE167:
 6145 0012 00BF     		.section	.text.HAL_I2C_MasterRxCpltCallback,"ax",%progbits
 6146              		.align	2
 6147              		.weak	HAL_I2C_MasterRxCpltCallback
 6148              		.thumb
 6149              		.thumb_func
 6151              	HAL_I2C_MasterRxCpltCallback:
 6152              	.LFB168:
2985:../../Drivers/STM32F7xx_HAL_Driver/Src/stm32f7xx_hal_i2c.c **** 
2986:../../Drivers/STM32F7xx_HAL_Driver/Src/stm32f7xx_hal_i2c.c **** /**
2987:../../Drivers/STM32F7xx_HAL_Driver/Src/stm32f7xx_hal_i2c.c ****   * @brief  Master Rx Transfer completed callback.
2988:../../Drivers/STM32F7xx_HAL_Driver/Src/stm32f7xx_hal_i2c.c ****   * @param  hi2c: Pointer to a I2C_HandleTypeDef structure that contains
2989:../../Drivers/STM32F7xx_HAL_Driver/Src/stm32f7xx_hal_i2c.c ****   *               the configuration information for the specified I2C.
2990:../../Drivers/STM32F7xx_HAL_Driver/Src/stm32f7xx_hal_i2c.c ****   * @retval None
2991:../../Drivers/STM32F7xx_HAL_Driver/Src/stm32f7xx_hal_i2c.c ****   */
2992:../../Drivers/STM32F7xx_HAL_Driver/Src/stm32f7xx_hal_i2c.c **** __weak void HAL_I2C_MasterRxCpltCallback(I2C_HandleTypeDef *hi2c)
2993:../../Drivers/STM32F7xx_HAL_Driver/Src/stm32f7xx_hal_i2c.c **** {
 6153              		.loc 1 2993 0
 6154              		.cfi_startproc
 6155              		@ args = 0, pretend = 0, frame = 8
 6156              		@ frame_needed = 1, uses_anonymous_args = 0
 6157              		@ link register save eliminated.
 6158 0000 80B4     		push	{r7}
 6159              	.LCFI168:
 6160              		.cfi_def_cfa_offset 4
 6161              		.cfi_offset 7, -4
 6162 0002 83B0     		sub	sp, sp, #12
 6163              	.LCFI169:
 6164              		.cfi_def_cfa_offset 16
 6165 0004 00AF     		add	r7, sp, #0
 6166              	.LCFI170:
 6167              		.cfi_def_cfa_register 7
 6168 0006 7860     		str	r0, [r7, #4]
2994:../../Drivers/STM32F7xx_HAL_Driver/Src/stm32f7xx_hal_i2c.c ****   /* Prevent unused argument(s) compilation warning */
2995:../../Drivers/STM32F7xx_HAL_Driver/Src/stm32f7xx_hal_i2c.c ****   UNUSED(hi2c);
2996:../../Drivers/STM32F7xx_HAL_Driver/Src/stm32f7xx_hal_i2c.c ****   
2997:../../Drivers/STM32F7xx_HAL_Driver/Src/stm32f7xx_hal_i2c.c ****   /* NOTE : This function should not be modified, when the callback is needed,
2998:../../Drivers/STM32F7xx_HAL_Driver/Src/stm32f7xx_hal_i2c.c ****             the HAL_I2C_MasterRxCpltCallback could be implemented in the user file
2999:../../Drivers/STM32F7xx_HAL_Driver/Src/stm32f7xx_hal_i2c.c ****    */
3000:../../Drivers/STM32F7xx_HAL_Driver/Src/stm32f7xx_hal_i2c.c **** }
 6169              		.loc 1 3000 0
 6170 0008 0C37     		adds	r7, r7, #12
 6171              	.LCFI171:
 6172              		.cfi_def_cfa_offset 4
 6173 000a BD46     		mov	sp, r7
 6174              	.LCFI172:
 6175              		.cfi_def_cfa_register 13
 6176              		@ sp needed
 6177 000c 5DF8047B 		ldr	r7, [sp], #4
 6178              	.LCFI173:
 6179              		.cfi_restore 7
 6180              		.cfi_def_cfa_offset 0
ARM GAS  /tmp/cczIhzQ0.s 			page 161


 6181 0010 7047     		bx	lr
 6182              		.cfi_endproc
 6183              	.LFE168:
 6185 0012 00BF     		.section	.text.HAL_I2C_SlaveTxCpltCallback,"ax",%progbits
 6186              		.align	2
 6187              		.weak	HAL_I2C_SlaveTxCpltCallback
 6188              		.thumb
 6189              		.thumb_func
 6191              	HAL_I2C_SlaveTxCpltCallback:
 6192              	.LFB169:
3001:../../Drivers/STM32F7xx_HAL_Driver/Src/stm32f7xx_hal_i2c.c **** 
3002:../../Drivers/STM32F7xx_HAL_Driver/Src/stm32f7xx_hal_i2c.c **** /** @brief  Slave Tx Transfer completed callback.
3003:../../Drivers/STM32F7xx_HAL_Driver/Src/stm32f7xx_hal_i2c.c ****   * @param  hi2c: Pointer to a I2C_HandleTypeDef structure that contains
3004:../../Drivers/STM32F7xx_HAL_Driver/Src/stm32f7xx_hal_i2c.c ****   *               the configuration information for the specified I2C.
3005:../../Drivers/STM32F7xx_HAL_Driver/Src/stm32f7xx_hal_i2c.c ****   * @retval None
3006:../../Drivers/STM32F7xx_HAL_Driver/Src/stm32f7xx_hal_i2c.c ****   */
3007:../../Drivers/STM32F7xx_HAL_Driver/Src/stm32f7xx_hal_i2c.c **** __weak void HAL_I2C_SlaveTxCpltCallback(I2C_HandleTypeDef *hi2c)
3008:../../Drivers/STM32F7xx_HAL_Driver/Src/stm32f7xx_hal_i2c.c **** {
 6193              		.loc 1 3008 0
 6194              		.cfi_startproc
 6195              		@ args = 0, pretend = 0, frame = 8
 6196              		@ frame_needed = 1, uses_anonymous_args = 0
 6197              		@ link register save eliminated.
 6198 0000 80B4     		push	{r7}
 6199              	.LCFI174:
 6200              		.cfi_def_cfa_offset 4
 6201              		.cfi_offset 7, -4
 6202 0002 83B0     		sub	sp, sp, #12
 6203              	.LCFI175:
 6204              		.cfi_def_cfa_offset 16
 6205 0004 00AF     		add	r7, sp, #0
 6206              	.LCFI176:
 6207              		.cfi_def_cfa_register 7
 6208 0006 7860     		str	r0, [r7, #4]
3009:../../Drivers/STM32F7xx_HAL_Driver/Src/stm32f7xx_hal_i2c.c ****   /* Prevent unused argument(s) compilation warning */
3010:../../Drivers/STM32F7xx_HAL_Driver/Src/stm32f7xx_hal_i2c.c ****   UNUSED(hi2c);
3011:../../Drivers/STM32F7xx_HAL_Driver/Src/stm32f7xx_hal_i2c.c ****   
3012:../../Drivers/STM32F7xx_HAL_Driver/Src/stm32f7xx_hal_i2c.c ****   /* NOTE : This function should not be modified, when the callback is needed,
3013:../../Drivers/STM32F7xx_HAL_Driver/Src/stm32f7xx_hal_i2c.c ****             the HAL_I2C_SlaveTxCpltCallback could be implemented in the user file
3014:../../Drivers/STM32F7xx_HAL_Driver/Src/stm32f7xx_hal_i2c.c ****    */
3015:../../Drivers/STM32F7xx_HAL_Driver/Src/stm32f7xx_hal_i2c.c **** }
 6209              		.loc 1 3015 0
 6210 0008 0C37     		adds	r7, r7, #12
 6211              	.LCFI177:
 6212              		.cfi_def_cfa_offset 4
 6213 000a BD46     		mov	sp, r7
 6214              	.LCFI178:
 6215              		.cfi_def_cfa_register 13
 6216              		@ sp needed
 6217 000c 5DF8047B 		ldr	r7, [sp], #4
 6218              	.LCFI179:
 6219              		.cfi_restore 7
 6220              		.cfi_def_cfa_offset 0
 6221 0010 7047     		bx	lr
 6222              		.cfi_endproc
 6223              	.LFE169:
 6225 0012 00BF     		.section	.text.HAL_I2C_SlaveRxCpltCallback,"ax",%progbits
ARM GAS  /tmp/cczIhzQ0.s 			page 162


 6226              		.align	2
 6227              		.weak	HAL_I2C_SlaveRxCpltCallback
 6228              		.thumb
 6229              		.thumb_func
 6231              	HAL_I2C_SlaveRxCpltCallback:
 6232              	.LFB170:
3016:../../Drivers/STM32F7xx_HAL_Driver/Src/stm32f7xx_hal_i2c.c **** 
3017:../../Drivers/STM32F7xx_HAL_Driver/Src/stm32f7xx_hal_i2c.c **** /**
3018:../../Drivers/STM32F7xx_HAL_Driver/Src/stm32f7xx_hal_i2c.c ****   * @brief  Slave Rx Transfer completed callback.
3019:../../Drivers/STM32F7xx_HAL_Driver/Src/stm32f7xx_hal_i2c.c ****   * @param  hi2c: Pointer to a I2C_HandleTypeDef structure that contains
3020:../../Drivers/STM32F7xx_HAL_Driver/Src/stm32f7xx_hal_i2c.c ****   *               the configuration information for the specified I2C.
3021:../../Drivers/STM32F7xx_HAL_Driver/Src/stm32f7xx_hal_i2c.c ****   * @retval None
3022:../../Drivers/STM32F7xx_HAL_Driver/Src/stm32f7xx_hal_i2c.c ****   */
3023:../../Drivers/STM32F7xx_HAL_Driver/Src/stm32f7xx_hal_i2c.c **** __weak void HAL_I2C_SlaveRxCpltCallback(I2C_HandleTypeDef *hi2c)
3024:../../Drivers/STM32F7xx_HAL_Driver/Src/stm32f7xx_hal_i2c.c **** {
 6233              		.loc 1 3024 0
 6234              		.cfi_startproc
 6235              		@ args = 0, pretend = 0, frame = 8
 6236              		@ frame_needed = 1, uses_anonymous_args = 0
 6237              		@ link register save eliminated.
 6238 0000 80B4     		push	{r7}
 6239              	.LCFI180:
 6240              		.cfi_def_cfa_offset 4
 6241              		.cfi_offset 7, -4
 6242 0002 83B0     		sub	sp, sp, #12
 6243              	.LCFI181:
 6244              		.cfi_def_cfa_offset 16
 6245 0004 00AF     		add	r7, sp, #0
 6246              	.LCFI182:
 6247              		.cfi_def_cfa_register 7
 6248 0006 7860     		str	r0, [r7, #4]
3025:../../Drivers/STM32F7xx_HAL_Driver/Src/stm32f7xx_hal_i2c.c ****   /* Prevent unused argument(s) compilation warning */
3026:../../Drivers/STM32F7xx_HAL_Driver/Src/stm32f7xx_hal_i2c.c ****   UNUSED(hi2c);
3027:../../Drivers/STM32F7xx_HAL_Driver/Src/stm32f7xx_hal_i2c.c ****   
3028:../../Drivers/STM32F7xx_HAL_Driver/Src/stm32f7xx_hal_i2c.c ****   /* NOTE : This function should not be modified, when the callback is needed,
3029:../../Drivers/STM32F7xx_HAL_Driver/Src/stm32f7xx_hal_i2c.c ****             the HAL_I2C_SlaveRxCpltCallback could be implemented in the user file
3030:../../Drivers/STM32F7xx_HAL_Driver/Src/stm32f7xx_hal_i2c.c ****    */
3031:../../Drivers/STM32F7xx_HAL_Driver/Src/stm32f7xx_hal_i2c.c **** }
 6249              		.loc 1 3031 0
 6250 0008 0C37     		adds	r7, r7, #12
 6251              	.LCFI183:
 6252              		.cfi_def_cfa_offset 4
 6253 000a BD46     		mov	sp, r7
 6254              	.LCFI184:
 6255              		.cfi_def_cfa_register 13
 6256              		@ sp needed
 6257 000c 5DF8047B 		ldr	r7, [sp], #4
 6258              	.LCFI185:
 6259              		.cfi_restore 7
 6260              		.cfi_def_cfa_offset 0
 6261 0010 7047     		bx	lr
 6262              		.cfi_endproc
 6263              	.LFE170:
 6265 0012 00BF     		.section	.text.HAL_I2C_AddrCallback,"ax",%progbits
 6266              		.align	2
 6267              		.weak	HAL_I2C_AddrCallback
 6268              		.thumb
ARM GAS  /tmp/cczIhzQ0.s 			page 163


 6269              		.thumb_func
 6271              	HAL_I2C_AddrCallback:
 6272              	.LFB171:
3032:../../Drivers/STM32F7xx_HAL_Driver/Src/stm32f7xx_hal_i2c.c **** 
3033:../../Drivers/STM32F7xx_HAL_Driver/Src/stm32f7xx_hal_i2c.c **** /**
3034:../../Drivers/STM32F7xx_HAL_Driver/Src/stm32f7xx_hal_i2c.c ****   * @brief  Slave Address Match callback.
3035:../../Drivers/STM32F7xx_HAL_Driver/Src/stm32f7xx_hal_i2c.c ****   * @param  hi2c: Pointer to a I2C_HandleTypeDef structure that contains
3036:../../Drivers/STM32F7xx_HAL_Driver/Src/stm32f7xx_hal_i2c.c ****   *               the configuration information for the specified I2C.
3037:../../Drivers/STM32F7xx_HAL_Driver/Src/stm32f7xx_hal_i2c.c ****   * @param  TransferDirection: Master request Transfer Direction (Write/Read), value of @ref I2C_XF
3038:../../Drivers/STM32F7xx_HAL_Driver/Src/stm32f7xx_hal_i2c.c ****   * @param  AddrMatchCode: Address Match Code
3039:../../Drivers/STM32F7xx_HAL_Driver/Src/stm32f7xx_hal_i2c.c ****   * @retval None
3040:../../Drivers/STM32F7xx_HAL_Driver/Src/stm32f7xx_hal_i2c.c ****   */
3041:../../Drivers/STM32F7xx_HAL_Driver/Src/stm32f7xx_hal_i2c.c **** __weak void HAL_I2C_AddrCallback(I2C_HandleTypeDef *hi2c, uint8_t TransferDirection, uint16_t AddrM
3042:../../Drivers/STM32F7xx_HAL_Driver/Src/stm32f7xx_hal_i2c.c **** {
 6273              		.loc 1 3042 0
 6274              		.cfi_startproc
 6275              		@ args = 0, pretend = 0, frame = 8
 6276              		@ frame_needed = 1, uses_anonymous_args = 0
 6277              		@ link register save eliminated.
 6278 0000 80B4     		push	{r7}
 6279              	.LCFI186:
 6280              		.cfi_def_cfa_offset 4
 6281              		.cfi_offset 7, -4
 6282 0002 83B0     		sub	sp, sp, #12
 6283              	.LCFI187:
 6284              		.cfi_def_cfa_offset 16
 6285 0004 00AF     		add	r7, sp, #0
 6286              	.LCFI188:
 6287              		.cfi_def_cfa_register 7
 6288 0006 7860     		str	r0, [r7, #4]
 6289 0008 0B46     		mov	r3, r1
 6290 000a FB70     		strb	r3, [r7, #3]
 6291 000c 1346     		mov	r3, r2	@ movhi
 6292 000e 3B80     		strh	r3, [r7]	@ movhi
3043:../../Drivers/STM32F7xx_HAL_Driver/Src/stm32f7xx_hal_i2c.c ****   /* Prevent unused argument(s) compilation warning */
3044:../../Drivers/STM32F7xx_HAL_Driver/Src/stm32f7xx_hal_i2c.c ****   UNUSED(hi2c);
3045:../../Drivers/STM32F7xx_HAL_Driver/Src/stm32f7xx_hal_i2c.c ****   UNUSED(TransferDirection);
3046:../../Drivers/STM32F7xx_HAL_Driver/Src/stm32f7xx_hal_i2c.c ****   UNUSED(AddrMatchCode);
3047:../../Drivers/STM32F7xx_HAL_Driver/Src/stm32f7xx_hal_i2c.c ****   
3048:../../Drivers/STM32F7xx_HAL_Driver/Src/stm32f7xx_hal_i2c.c ****   /* NOTE : This function should not be modified, when the callback is needed,
3049:../../Drivers/STM32F7xx_HAL_Driver/Src/stm32f7xx_hal_i2c.c ****             the HAL_I2C_AddrCallback() could be implemented in the user file
3050:../../Drivers/STM32F7xx_HAL_Driver/Src/stm32f7xx_hal_i2c.c ****    */
3051:../../Drivers/STM32F7xx_HAL_Driver/Src/stm32f7xx_hal_i2c.c **** }
 6293              		.loc 1 3051 0
 6294 0010 0C37     		adds	r7, r7, #12
 6295              	.LCFI189:
 6296              		.cfi_def_cfa_offset 4
 6297 0012 BD46     		mov	sp, r7
 6298              	.LCFI190:
 6299              		.cfi_def_cfa_register 13
 6300              		@ sp needed
 6301 0014 5DF8047B 		ldr	r7, [sp], #4
 6302              	.LCFI191:
 6303              		.cfi_restore 7
 6304              		.cfi_def_cfa_offset 0
 6305 0018 7047     		bx	lr
 6306              		.cfi_endproc
ARM GAS  /tmp/cczIhzQ0.s 			page 164


 6307              	.LFE171:
 6309 001a 00BF     		.section	.text.HAL_I2C_ListenCpltCallback,"ax",%progbits
 6310              		.align	2
 6311              		.weak	HAL_I2C_ListenCpltCallback
 6312              		.thumb
 6313              		.thumb_func
 6315              	HAL_I2C_ListenCpltCallback:
 6316              	.LFB172:
3052:../../Drivers/STM32F7xx_HAL_Driver/Src/stm32f7xx_hal_i2c.c **** 
3053:../../Drivers/STM32F7xx_HAL_Driver/Src/stm32f7xx_hal_i2c.c **** /**
3054:../../Drivers/STM32F7xx_HAL_Driver/Src/stm32f7xx_hal_i2c.c ****   * @brief  Listen Complete callback.
3055:../../Drivers/STM32F7xx_HAL_Driver/Src/stm32f7xx_hal_i2c.c ****   * @param  hi2c: Pointer to a I2C_HandleTypeDef structure that contains
3056:../../Drivers/STM32F7xx_HAL_Driver/Src/stm32f7xx_hal_i2c.c ****   *               the configuration information for the specified I2C.
3057:../../Drivers/STM32F7xx_HAL_Driver/Src/stm32f7xx_hal_i2c.c ****   * @retval None
3058:../../Drivers/STM32F7xx_HAL_Driver/Src/stm32f7xx_hal_i2c.c ****   */
3059:../../Drivers/STM32F7xx_HAL_Driver/Src/stm32f7xx_hal_i2c.c **** __weak void HAL_I2C_ListenCpltCallback(I2C_HandleTypeDef *hi2c)
3060:../../Drivers/STM32F7xx_HAL_Driver/Src/stm32f7xx_hal_i2c.c **** {
 6317              		.loc 1 3060 0
 6318              		.cfi_startproc
 6319              		@ args = 0, pretend = 0, frame = 8
 6320              		@ frame_needed = 1, uses_anonymous_args = 0
 6321              		@ link register save eliminated.
 6322 0000 80B4     		push	{r7}
 6323              	.LCFI192:
 6324              		.cfi_def_cfa_offset 4
 6325              		.cfi_offset 7, -4
 6326 0002 83B0     		sub	sp, sp, #12
 6327              	.LCFI193:
 6328              		.cfi_def_cfa_offset 16
 6329 0004 00AF     		add	r7, sp, #0
 6330              	.LCFI194:
 6331              		.cfi_def_cfa_register 7
 6332 0006 7860     		str	r0, [r7, #4]
3061:../../Drivers/STM32F7xx_HAL_Driver/Src/stm32f7xx_hal_i2c.c ****   /* Prevent unused argument(s) compilation warning */
3062:../../Drivers/STM32F7xx_HAL_Driver/Src/stm32f7xx_hal_i2c.c ****   UNUSED(hi2c);
3063:../../Drivers/STM32F7xx_HAL_Driver/Src/stm32f7xx_hal_i2c.c ****   
3064:../../Drivers/STM32F7xx_HAL_Driver/Src/stm32f7xx_hal_i2c.c ****   /* NOTE : This function should not be modified, when the callback is needed,
3065:../../Drivers/STM32F7xx_HAL_Driver/Src/stm32f7xx_hal_i2c.c ****             the HAL_I2C_ListenCpltCallback() could be implemented in the user file
3066:../../Drivers/STM32F7xx_HAL_Driver/Src/stm32f7xx_hal_i2c.c ****    */
3067:../../Drivers/STM32F7xx_HAL_Driver/Src/stm32f7xx_hal_i2c.c **** }
 6333              		.loc 1 3067 0
 6334 0008 0C37     		adds	r7, r7, #12
 6335              	.LCFI195:
 6336              		.cfi_def_cfa_offset 4
 6337 000a BD46     		mov	sp, r7
 6338              	.LCFI196:
 6339              		.cfi_def_cfa_register 13
 6340              		@ sp needed
 6341 000c 5DF8047B 		ldr	r7, [sp], #4
 6342              	.LCFI197:
 6343              		.cfi_restore 7
 6344              		.cfi_def_cfa_offset 0
 6345 0010 7047     		bx	lr
 6346              		.cfi_endproc
 6347              	.LFE172:
 6349 0012 00BF     		.section	.text.HAL_I2C_MemTxCpltCallback,"ax",%progbits
 6350              		.align	2
ARM GAS  /tmp/cczIhzQ0.s 			page 165


 6351              		.weak	HAL_I2C_MemTxCpltCallback
 6352              		.thumb
 6353              		.thumb_func
 6355              	HAL_I2C_MemTxCpltCallback:
 6356              	.LFB173:
3068:../../Drivers/STM32F7xx_HAL_Driver/Src/stm32f7xx_hal_i2c.c **** 
3069:../../Drivers/STM32F7xx_HAL_Driver/Src/stm32f7xx_hal_i2c.c **** /**
3070:../../Drivers/STM32F7xx_HAL_Driver/Src/stm32f7xx_hal_i2c.c ****   * @brief  Memory Tx Transfer completed callback.
3071:../../Drivers/STM32F7xx_HAL_Driver/Src/stm32f7xx_hal_i2c.c ****   * @param  hi2c: Pointer to a I2C_HandleTypeDef structure that contains
3072:../../Drivers/STM32F7xx_HAL_Driver/Src/stm32f7xx_hal_i2c.c ****   *               the configuration information for the specified I2C.
3073:../../Drivers/STM32F7xx_HAL_Driver/Src/stm32f7xx_hal_i2c.c ****   * @retval None
3074:../../Drivers/STM32F7xx_HAL_Driver/Src/stm32f7xx_hal_i2c.c ****   */
3075:../../Drivers/STM32F7xx_HAL_Driver/Src/stm32f7xx_hal_i2c.c **** __weak void HAL_I2C_MemTxCpltCallback(I2C_HandleTypeDef *hi2c)
3076:../../Drivers/STM32F7xx_HAL_Driver/Src/stm32f7xx_hal_i2c.c **** {
 6357              		.loc 1 3076 0
 6358              		.cfi_startproc
 6359              		@ args = 0, pretend = 0, frame = 8
 6360              		@ frame_needed = 1, uses_anonymous_args = 0
 6361              		@ link register save eliminated.
 6362 0000 80B4     		push	{r7}
 6363              	.LCFI198:
 6364              		.cfi_def_cfa_offset 4
 6365              		.cfi_offset 7, -4
 6366 0002 83B0     		sub	sp, sp, #12
 6367              	.LCFI199:
 6368              		.cfi_def_cfa_offset 16
 6369 0004 00AF     		add	r7, sp, #0
 6370              	.LCFI200:
 6371              		.cfi_def_cfa_register 7
 6372 0006 7860     		str	r0, [r7, #4]
3077:../../Drivers/STM32F7xx_HAL_Driver/Src/stm32f7xx_hal_i2c.c ****   /* Prevent unused argument(s) compilation warning */
3078:../../Drivers/STM32F7xx_HAL_Driver/Src/stm32f7xx_hal_i2c.c ****   UNUSED(hi2c);
3079:../../Drivers/STM32F7xx_HAL_Driver/Src/stm32f7xx_hal_i2c.c ****   
3080:../../Drivers/STM32F7xx_HAL_Driver/Src/stm32f7xx_hal_i2c.c ****   /* NOTE : This function should not be modified, when the callback is needed,
3081:../../Drivers/STM32F7xx_HAL_Driver/Src/stm32f7xx_hal_i2c.c ****             the HAL_I2C_MemTxCpltCallback could be implemented in the user file
3082:../../Drivers/STM32F7xx_HAL_Driver/Src/stm32f7xx_hal_i2c.c ****    */
3083:../../Drivers/STM32F7xx_HAL_Driver/Src/stm32f7xx_hal_i2c.c **** }
 6373              		.loc 1 3083 0
 6374 0008 0C37     		adds	r7, r7, #12
 6375              	.LCFI201:
 6376              		.cfi_def_cfa_offset 4
 6377 000a BD46     		mov	sp, r7
 6378              	.LCFI202:
 6379              		.cfi_def_cfa_register 13
 6380              		@ sp needed
 6381 000c 5DF8047B 		ldr	r7, [sp], #4
 6382              	.LCFI203:
 6383              		.cfi_restore 7
 6384              		.cfi_def_cfa_offset 0
 6385 0010 7047     		bx	lr
 6386              		.cfi_endproc
 6387              	.LFE173:
 6389 0012 00BF     		.section	.text.HAL_I2C_MemRxCpltCallback,"ax",%progbits
 6390              		.align	2
 6391              		.weak	HAL_I2C_MemRxCpltCallback
 6392              		.thumb
 6393              		.thumb_func
ARM GAS  /tmp/cczIhzQ0.s 			page 166


 6395              	HAL_I2C_MemRxCpltCallback:
 6396              	.LFB174:
3084:../../Drivers/STM32F7xx_HAL_Driver/Src/stm32f7xx_hal_i2c.c **** 
3085:../../Drivers/STM32F7xx_HAL_Driver/Src/stm32f7xx_hal_i2c.c **** /**
3086:../../Drivers/STM32F7xx_HAL_Driver/Src/stm32f7xx_hal_i2c.c ****   * @brief  Memory Rx Transfer completed callback.
3087:../../Drivers/STM32F7xx_HAL_Driver/Src/stm32f7xx_hal_i2c.c ****   * @param  hi2c: Pointer to a I2C_HandleTypeDef structure that contains
3088:../../Drivers/STM32F7xx_HAL_Driver/Src/stm32f7xx_hal_i2c.c ****   *               the configuration information for the specified I2C.
3089:../../Drivers/STM32F7xx_HAL_Driver/Src/stm32f7xx_hal_i2c.c ****   * @retval None
3090:../../Drivers/STM32F7xx_HAL_Driver/Src/stm32f7xx_hal_i2c.c ****   */
3091:../../Drivers/STM32F7xx_HAL_Driver/Src/stm32f7xx_hal_i2c.c **** __weak void HAL_I2C_MemRxCpltCallback(I2C_HandleTypeDef *hi2c)
3092:../../Drivers/STM32F7xx_HAL_Driver/Src/stm32f7xx_hal_i2c.c **** {
 6397              		.loc 1 3092 0
 6398              		.cfi_startproc
 6399              		@ args = 0, pretend = 0, frame = 8
 6400              		@ frame_needed = 1, uses_anonymous_args = 0
 6401              		@ link register save eliminated.
 6402 0000 80B4     		push	{r7}
 6403              	.LCFI204:
 6404              		.cfi_def_cfa_offset 4
 6405              		.cfi_offset 7, -4
 6406 0002 83B0     		sub	sp, sp, #12
 6407              	.LCFI205:
 6408              		.cfi_def_cfa_offset 16
 6409 0004 00AF     		add	r7, sp, #0
 6410              	.LCFI206:
 6411              		.cfi_def_cfa_register 7
 6412 0006 7860     		str	r0, [r7, #4]
3093:../../Drivers/STM32F7xx_HAL_Driver/Src/stm32f7xx_hal_i2c.c ****   /* Prevent unused argument(s) compilation warning */
3094:../../Drivers/STM32F7xx_HAL_Driver/Src/stm32f7xx_hal_i2c.c ****   UNUSED(hi2c);
3095:../../Drivers/STM32F7xx_HAL_Driver/Src/stm32f7xx_hal_i2c.c ****   
3096:../../Drivers/STM32F7xx_HAL_Driver/Src/stm32f7xx_hal_i2c.c ****   /* NOTE : This function should not be modified, when the callback is needed,
3097:../../Drivers/STM32F7xx_HAL_Driver/Src/stm32f7xx_hal_i2c.c ****             the HAL_I2C_MemRxCpltCallback could be implemented in the user file
3098:../../Drivers/STM32F7xx_HAL_Driver/Src/stm32f7xx_hal_i2c.c ****    */
3099:../../Drivers/STM32F7xx_HAL_Driver/Src/stm32f7xx_hal_i2c.c **** }
 6413              		.loc 1 3099 0
 6414 0008 0C37     		adds	r7, r7, #12
 6415              	.LCFI207:
 6416              		.cfi_def_cfa_offset 4
 6417 000a BD46     		mov	sp, r7
 6418              	.LCFI208:
 6419              		.cfi_def_cfa_register 13
 6420              		@ sp needed
 6421 000c 5DF8047B 		ldr	r7, [sp], #4
 6422              	.LCFI209:
 6423              		.cfi_restore 7
 6424              		.cfi_def_cfa_offset 0
 6425 0010 7047     		bx	lr
 6426              		.cfi_endproc
 6427              	.LFE174:
 6429 0012 00BF     		.section	.text.HAL_I2C_ErrorCallback,"ax",%progbits
 6430              		.align	2
 6431              		.weak	HAL_I2C_ErrorCallback
 6432              		.thumb
 6433              		.thumb_func
 6435              	HAL_I2C_ErrorCallback:
 6436              	.LFB175:
3100:../../Drivers/STM32F7xx_HAL_Driver/Src/stm32f7xx_hal_i2c.c **** 
ARM GAS  /tmp/cczIhzQ0.s 			page 167


3101:../../Drivers/STM32F7xx_HAL_Driver/Src/stm32f7xx_hal_i2c.c **** /**
3102:../../Drivers/STM32F7xx_HAL_Driver/Src/stm32f7xx_hal_i2c.c ****   * @brief  I2C error callback.
3103:../../Drivers/STM32F7xx_HAL_Driver/Src/stm32f7xx_hal_i2c.c ****   * @param  hi2c: Pointer to a I2C_HandleTypeDef structure that contains
3104:../../Drivers/STM32F7xx_HAL_Driver/Src/stm32f7xx_hal_i2c.c ****   *               the configuration information for the specified I2C.
3105:../../Drivers/STM32F7xx_HAL_Driver/Src/stm32f7xx_hal_i2c.c ****   * @retval None
3106:../../Drivers/STM32F7xx_HAL_Driver/Src/stm32f7xx_hal_i2c.c ****   */
3107:../../Drivers/STM32F7xx_HAL_Driver/Src/stm32f7xx_hal_i2c.c **** __weak void HAL_I2C_ErrorCallback(I2C_HandleTypeDef *hi2c)
3108:../../Drivers/STM32F7xx_HAL_Driver/Src/stm32f7xx_hal_i2c.c **** {
 6437              		.loc 1 3108 0
 6438              		.cfi_startproc
 6439              		@ args = 0, pretend = 0, frame = 8
 6440              		@ frame_needed = 1, uses_anonymous_args = 0
 6441              		@ link register save eliminated.
 6442 0000 80B4     		push	{r7}
 6443              	.LCFI210:
 6444              		.cfi_def_cfa_offset 4
 6445              		.cfi_offset 7, -4
 6446 0002 83B0     		sub	sp, sp, #12
 6447              	.LCFI211:
 6448              		.cfi_def_cfa_offset 16
 6449 0004 00AF     		add	r7, sp, #0
 6450              	.LCFI212:
 6451              		.cfi_def_cfa_register 7
 6452 0006 7860     		str	r0, [r7, #4]
3109:../../Drivers/STM32F7xx_HAL_Driver/Src/stm32f7xx_hal_i2c.c ****   /* Prevent unused argument(s) compilation warning */
3110:../../Drivers/STM32F7xx_HAL_Driver/Src/stm32f7xx_hal_i2c.c ****   UNUSED(hi2c);
3111:../../Drivers/STM32F7xx_HAL_Driver/Src/stm32f7xx_hal_i2c.c ****   
3112:../../Drivers/STM32F7xx_HAL_Driver/Src/stm32f7xx_hal_i2c.c ****   /* NOTE : This function should not be modified, when the callback is needed,
3113:../../Drivers/STM32F7xx_HAL_Driver/Src/stm32f7xx_hal_i2c.c ****             the HAL_I2C_ErrorCallback could be implemented in the user file
3114:../../Drivers/STM32F7xx_HAL_Driver/Src/stm32f7xx_hal_i2c.c ****    */
3115:../../Drivers/STM32F7xx_HAL_Driver/Src/stm32f7xx_hal_i2c.c **** }
 6453              		.loc 1 3115 0
 6454 0008 0C37     		adds	r7, r7, #12
 6455              	.LCFI213:
 6456              		.cfi_def_cfa_offset 4
 6457 000a BD46     		mov	sp, r7
 6458              	.LCFI214:
 6459              		.cfi_def_cfa_register 13
 6460              		@ sp needed
 6461 000c 5DF8047B 		ldr	r7, [sp], #4
 6462              	.LCFI215:
 6463              		.cfi_restore 7
 6464              		.cfi_def_cfa_offset 0
 6465 0010 7047     		bx	lr
 6466              		.cfi_endproc
 6467              	.LFE175:
 6469 0012 00BF     		.section	.text.HAL_I2C_AbortCpltCallback,"ax",%progbits
 6470              		.align	2
 6471              		.weak	HAL_I2C_AbortCpltCallback
 6472              		.thumb
 6473              		.thumb_func
 6475              	HAL_I2C_AbortCpltCallback:
 6476              	.LFB176:
3116:../../Drivers/STM32F7xx_HAL_Driver/Src/stm32f7xx_hal_i2c.c **** 
3117:../../Drivers/STM32F7xx_HAL_Driver/Src/stm32f7xx_hal_i2c.c **** /**
3118:../../Drivers/STM32F7xx_HAL_Driver/Src/stm32f7xx_hal_i2c.c ****   * @brief  I2C abort callback.
3119:../../Drivers/STM32F7xx_HAL_Driver/Src/stm32f7xx_hal_i2c.c ****   * @param  hi2c: Pointer to a I2C_HandleTypeDef structure that contains
ARM GAS  /tmp/cczIhzQ0.s 			page 168


3120:../../Drivers/STM32F7xx_HAL_Driver/Src/stm32f7xx_hal_i2c.c ****   *               the configuration information for the specified I2C.
3121:../../Drivers/STM32F7xx_HAL_Driver/Src/stm32f7xx_hal_i2c.c ****   * @retval None
3122:../../Drivers/STM32F7xx_HAL_Driver/Src/stm32f7xx_hal_i2c.c ****   */
3123:../../Drivers/STM32F7xx_HAL_Driver/Src/stm32f7xx_hal_i2c.c **** __weak void HAL_I2C_AbortCpltCallback(I2C_HandleTypeDef *hi2c)
3124:../../Drivers/STM32F7xx_HAL_Driver/Src/stm32f7xx_hal_i2c.c **** {
 6477              		.loc 1 3124 0
 6478              		.cfi_startproc
 6479              		@ args = 0, pretend = 0, frame = 8
 6480              		@ frame_needed = 1, uses_anonymous_args = 0
 6481              		@ link register save eliminated.
 6482 0000 80B4     		push	{r7}
 6483              	.LCFI216:
 6484              		.cfi_def_cfa_offset 4
 6485              		.cfi_offset 7, -4
 6486 0002 83B0     		sub	sp, sp, #12
 6487              	.LCFI217:
 6488              		.cfi_def_cfa_offset 16
 6489 0004 00AF     		add	r7, sp, #0
 6490              	.LCFI218:
 6491              		.cfi_def_cfa_register 7
 6492 0006 7860     		str	r0, [r7, #4]
3125:../../Drivers/STM32F7xx_HAL_Driver/Src/stm32f7xx_hal_i2c.c ****   /* Prevent unused argument(s) compilation warning */
3126:../../Drivers/STM32F7xx_HAL_Driver/Src/stm32f7xx_hal_i2c.c ****   UNUSED(hi2c);
3127:../../Drivers/STM32F7xx_HAL_Driver/Src/stm32f7xx_hal_i2c.c ****   
3128:../../Drivers/STM32F7xx_HAL_Driver/Src/stm32f7xx_hal_i2c.c ****   /* NOTE : This function should not be modified, when the callback is needed,
3129:../../Drivers/STM32F7xx_HAL_Driver/Src/stm32f7xx_hal_i2c.c ****             the HAL_I2C_AbortCpltCallback could be implemented in the user file
3130:../../Drivers/STM32F7xx_HAL_Driver/Src/stm32f7xx_hal_i2c.c ****    */
3131:../../Drivers/STM32F7xx_HAL_Driver/Src/stm32f7xx_hal_i2c.c **** }
 6493              		.loc 1 3131 0
 6494 0008 0C37     		adds	r7, r7, #12
 6495              	.LCFI219:
 6496              		.cfi_def_cfa_offset 4
 6497 000a BD46     		mov	sp, r7
 6498              	.LCFI220:
 6499              		.cfi_def_cfa_register 13
 6500              		@ sp needed
 6501 000c 5DF8047B 		ldr	r7, [sp], #4
 6502              	.LCFI221:
 6503              		.cfi_restore 7
 6504              		.cfi_def_cfa_offset 0
 6505 0010 7047     		bx	lr
 6506              		.cfi_endproc
 6507              	.LFE176:
 6509 0012 00BF     		.section	.text.HAL_I2C_GetState,"ax",%progbits
 6510              		.align	2
 6511              		.global	HAL_I2C_GetState
 6512              		.thumb
 6513              		.thumb_func
 6515              	HAL_I2C_GetState:
 6516              	.LFB177:
3132:../../Drivers/STM32F7xx_HAL_Driver/Src/stm32f7xx_hal_i2c.c **** 
3133:../../Drivers/STM32F7xx_HAL_Driver/Src/stm32f7xx_hal_i2c.c **** /**
3134:../../Drivers/STM32F7xx_HAL_Driver/Src/stm32f7xx_hal_i2c.c ****   * @}
3135:../../Drivers/STM32F7xx_HAL_Driver/Src/stm32f7xx_hal_i2c.c ****   */
3136:../../Drivers/STM32F7xx_HAL_Driver/Src/stm32f7xx_hal_i2c.c **** 
3137:../../Drivers/STM32F7xx_HAL_Driver/Src/stm32f7xx_hal_i2c.c **** /** @defgroup I2C_Exported_Functions_Group3 Peripheral State, Mode and Error functions
3138:../../Drivers/STM32F7xx_HAL_Driver/Src/stm32f7xx_hal_i2c.c ****  *  @brief   Peripheral State, Mode and Error functions
ARM GAS  /tmp/cczIhzQ0.s 			page 169


3139:../../Drivers/STM32F7xx_HAL_Driver/Src/stm32f7xx_hal_i2c.c ****  *
3140:../../Drivers/STM32F7xx_HAL_Driver/Src/stm32f7xx_hal_i2c.c **** @verbatim
3141:../../Drivers/STM32F7xx_HAL_Driver/Src/stm32f7xx_hal_i2c.c ****  ===============================================================================
3142:../../Drivers/STM32F7xx_HAL_Driver/Src/stm32f7xx_hal_i2c.c ****             ##### Peripheral State, Mode and Error functions #####
3143:../../Drivers/STM32F7xx_HAL_Driver/Src/stm32f7xx_hal_i2c.c ****  ===============================================================================
3144:../../Drivers/STM32F7xx_HAL_Driver/Src/stm32f7xx_hal_i2c.c ****     [..]
3145:../../Drivers/STM32F7xx_HAL_Driver/Src/stm32f7xx_hal_i2c.c ****     This subsection permit to get in run-time the status of the peripheral
3146:../../Drivers/STM32F7xx_HAL_Driver/Src/stm32f7xx_hal_i2c.c ****     and the data flow.
3147:../../Drivers/STM32F7xx_HAL_Driver/Src/stm32f7xx_hal_i2c.c **** 
3148:../../Drivers/STM32F7xx_HAL_Driver/Src/stm32f7xx_hal_i2c.c **** @endverbatim
3149:../../Drivers/STM32F7xx_HAL_Driver/Src/stm32f7xx_hal_i2c.c ****   * @{
3150:../../Drivers/STM32F7xx_HAL_Driver/Src/stm32f7xx_hal_i2c.c ****   */
3151:../../Drivers/STM32F7xx_HAL_Driver/Src/stm32f7xx_hal_i2c.c **** 
3152:../../Drivers/STM32F7xx_HAL_Driver/Src/stm32f7xx_hal_i2c.c **** /**
3153:../../Drivers/STM32F7xx_HAL_Driver/Src/stm32f7xx_hal_i2c.c ****   * @brief  Return the I2C handle state.
3154:../../Drivers/STM32F7xx_HAL_Driver/Src/stm32f7xx_hal_i2c.c ****   * @param  hi2c: Pointer to a I2C_HandleTypeDef structure that contains
3155:../../Drivers/STM32F7xx_HAL_Driver/Src/stm32f7xx_hal_i2c.c ****   *               the configuration information for the specified I2C.
3156:../../Drivers/STM32F7xx_HAL_Driver/Src/stm32f7xx_hal_i2c.c ****   * @retval HAL state
3157:../../Drivers/STM32F7xx_HAL_Driver/Src/stm32f7xx_hal_i2c.c ****   */
3158:../../Drivers/STM32F7xx_HAL_Driver/Src/stm32f7xx_hal_i2c.c **** HAL_I2C_StateTypeDef HAL_I2C_GetState(I2C_HandleTypeDef *hi2c)
3159:../../Drivers/STM32F7xx_HAL_Driver/Src/stm32f7xx_hal_i2c.c **** {
 6517              		.loc 1 3159 0
 6518              		.cfi_startproc
 6519              		@ args = 0, pretend = 0, frame = 8
 6520              		@ frame_needed = 1, uses_anonymous_args = 0
 6521              		@ link register save eliminated.
 6522 0000 80B4     		push	{r7}
 6523              	.LCFI222:
 6524              		.cfi_def_cfa_offset 4
 6525              		.cfi_offset 7, -4
 6526 0002 83B0     		sub	sp, sp, #12
 6527              	.LCFI223:
 6528              		.cfi_def_cfa_offset 16
 6529 0004 00AF     		add	r7, sp, #0
 6530              	.LCFI224:
 6531              		.cfi_def_cfa_register 7
 6532 0006 7860     		str	r0, [r7, #4]
3160:../../Drivers/STM32F7xx_HAL_Driver/Src/stm32f7xx_hal_i2c.c ****   /* Return I2C handle state */
3161:../../Drivers/STM32F7xx_HAL_Driver/Src/stm32f7xx_hal_i2c.c ****   return hi2c->State;
 6533              		.loc 1 3161 0
 6534 0008 7B68     		ldr	r3, [r7, #4]
 6535 000a 93F84130 		ldrb	r3, [r3, #65]
 6536 000e DBB2     		uxtb	r3, r3
3162:../../Drivers/STM32F7xx_HAL_Driver/Src/stm32f7xx_hal_i2c.c **** }
 6537              		.loc 1 3162 0
 6538 0010 1846     		mov	r0, r3
 6539 0012 0C37     		adds	r7, r7, #12
 6540              	.LCFI225:
 6541              		.cfi_def_cfa_offset 4
 6542 0014 BD46     		mov	sp, r7
 6543              	.LCFI226:
 6544              		.cfi_def_cfa_register 13
 6545              		@ sp needed
 6546 0016 5DF8047B 		ldr	r7, [sp], #4
 6547              	.LCFI227:
 6548              		.cfi_restore 7
 6549              		.cfi_def_cfa_offset 0
ARM GAS  /tmp/cczIhzQ0.s 			page 170


 6550 001a 7047     		bx	lr
 6551              		.cfi_endproc
 6552              	.LFE177:
 6554              		.section	.text.HAL_I2C_GetMode,"ax",%progbits
 6555              		.align	2
 6556              		.global	HAL_I2C_GetMode
 6557              		.thumb
 6558              		.thumb_func
 6560              	HAL_I2C_GetMode:
 6561              	.LFB178:
3163:../../Drivers/STM32F7xx_HAL_Driver/Src/stm32f7xx_hal_i2c.c **** 
3164:../../Drivers/STM32F7xx_HAL_Driver/Src/stm32f7xx_hal_i2c.c **** /**
3165:../../Drivers/STM32F7xx_HAL_Driver/Src/stm32f7xx_hal_i2c.c ****   * @brief  Returns the I2C Master, Slave, Memory or no mode.
3166:../../Drivers/STM32F7xx_HAL_Driver/Src/stm32f7xx_hal_i2c.c ****   * @param  hi2c: Pointer to a I2C_HandleTypeDef structure that contains
3167:../../Drivers/STM32F7xx_HAL_Driver/Src/stm32f7xx_hal_i2c.c ****   *         the configuration information for I2C module
3168:../../Drivers/STM32F7xx_HAL_Driver/Src/stm32f7xx_hal_i2c.c ****   * @retval HAL mode
3169:../../Drivers/STM32F7xx_HAL_Driver/Src/stm32f7xx_hal_i2c.c ****   */
3170:../../Drivers/STM32F7xx_HAL_Driver/Src/stm32f7xx_hal_i2c.c **** HAL_I2C_ModeTypeDef HAL_I2C_GetMode(I2C_HandleTypeDef *hi2c)
3171:../../Drivers/STM32F7xx_HAL_Driver/Src/stm32f7xx_hal_i2c.c **** {
 6562              		.loc 1 3171 0
 6563              		.cfi_startproc
 6564              		@ args = 0, pretend = 0, frame = 8
 6565              		@ frame_needed = 1, uses_anonymous_args = 0
 6566              		@ link register save eliminated.
 6567 0000 80B4     		push	{r7}
 6568              	.LCFI228:
 6569              		.cfi_def_cfa_offset 4
 6570              		.cfi_offset 7, -4
 6571 0002 83B0     		sub	sp, sp, #12
 6572              	.LCFI229:
 6573              		.cfi_def_cfa_offset 16
 6574 0004 00AF     		add	r7, sp, #0
 6575              	.LCFI230:
 6576              		.cfi_def_cfa_register 7
 6577 0006 7860     		str	r0, [r7, #4]
3172:../../Drivers/STM32F7xx_HAL_Driver/Src/stm32f7xx_hal_i2c.c ****   return hi2c->Mode;
 6578              		.loc 1 3172 0
 6579 0008 7B68     		ldr	r3, [r7, #4]
 6580 000a 93F84230 		ldrb	r3, [r3, #66]
 6581 000e DBB2     		uxtb	r3, r3
3173:../../Drivers/STM32F7xx_HAL_Driver/Src/stm32f7xx_hal_i2c.c **** }
 6582              		.loc 1 3173 0
 6583 0010 1846     		mov	r0, r3
 6584 0012 0C37     		adds	r7, r7, #12
 6585              	.LCFI231:
 6586              		.cfi_def_cfa_offset 4
 6587 0014 BD46     		mov	sp, r7
 6588              	.LCFI232:
 6589              		.cfi_def_cfa_register 13
 6590              		@ sp needed
 6591 0016 5DF8047B 		ldr	r7, [sp], #4
 6592              	.LCFI233:
 6593              		.cfi_restore 7
 6594              		.cfi_def_cfa_offset 0
 6595 001a 7047     		bx	lr
 6596              		.cfi_endproc
 6597              	.LFE178:
ARM GAS  /tmp/cczIhzQ0.s 			page 171


 6599              		.section	.text.HAL_I2C_GetError,"ax",%progbits
 6600              		.align	2
 6601              		.global	HAL_I2C_GetError
 6602              		.thumb
 6603              		.thumb_func
 6605              	HAL_I2C_GetError:
 6606              	.LFB179:
3174:../../Drivers/STM32F7xx_HAL_Driver/Src/stm32f7xx_hal_i2c.c **** 
3175:../../Drivers/STM32F7xx_HAL_Driver/Src/stm32f7xx_hal_i2c.c **** /**
3176:../../Drivers/STM32F7xx_HAL_Driver/Src/stm32f7xx_hal_i2c.c **** * @brief  Return the I2C error code.
3177:../../Drivers/STM32F7xx_HAL_Driver/Src/stm32f7xx_hal_i2c.c ****   * @param  hi2c: Pointer to a I2C_HandleTypeDef structure that contains
3178:../../Drivers/STM32F7xx_HAL_Driver/Src/stm32f7xx_hal_i2c.c ****   *              the configuration information for the specified I2C.
3179:../../Drivers/STM32F7xx_HAL_Driver/Src/stm32f7xx_hal_i2c.c **** * @retval I2C Error Code
3180:../../Drivers/STM32F7xx_HAL_Driver/Src/stm32f7xx_hal_i2c.c **** */
3181:../../Drivers/STM32F7xx_HAL_Driver/Src/stm32f7xx_hal_i2c.c **** uint32_t HAL_I2C_GetError(I2C_HandleTypeDef *hi2c)
3182:../../Drivers/STM32F7xx_HAL_Driver/Src/stm32f7xx_hal_i2c.c **** {
 6607              		.loc 1 3182 0
 6608              		.cfi_startproc
 6609              		@ args = 0, pretend = 0, frame = 8
 6610              		@ frame_needed = 1, uses_anonymous_args = 0
 6611              		@ link register save eliminated.
 6612 0000 80B4     		push	{r7}
 6613              	.LCFI234:
 6614              		.cfi_def_cfa_offset 4
 6615              		.cfi_offset 7, -4
 6616 0002 83B0     		sub	sp, sp, #12
 6617              	.LCFI235:
 6618              		.cfi_def_cfa_offset 16
 6619 0004 00AF     		add	r7, sp, #0
 6620              	.LCFI236:
 6621              		.cfi_def_cfa_register 7
 6622 0006 7860     		str	r0, [r7, #4]
3183:../../Drivers/STM32F7xx_HAL_Driver/Src/stm32f7xx_hal_i2c.c ****   return hi2c->ErrorCode;
 6623              		.loc 1 3183 0
 6624 0008 7B68     		ldr	r3, [r7, #4]
 6625 000a 5B6C     		ldr	r3, [r3, #68]
3184:../../Drivers/STM32F7xx_HAL_Driver/Src/stm32f7xx_hal_i2c.c **** }
 6626              		.loc 1 3184 0
 6627 000c 1846     		mov	r0, r3
 6628 000e 0C37     		adds	r7, r7, #12
 6629              	.LCFI237:
 6630              		.cfi_def_cfa_offset 4
 6631 0010 BD46     		mov	sp, r7
 6632              	.LCFI238:
 6633              		.cfi_def_cfa_register 13
 6634              		@ sp needed
 6635 0012 5DF8047B 		ldr	r7, [sp], #4
 6636              	.LCFI239:
 6637              		.cfi_restore 7
 6638              		.cfi_def_cfa_offset 0
 6639 0016 7047     		bx	lr
 6640              		.cfi_endproc
 6641              	.LFE179:
 6643              		.section	.text.I2C_Master_ISR_IT,"ax",%progbits
 6644              		.align	2
 6645              		.thumb
 6646              		.thumb_func
ARM GAS  /tmp/cczIhzQ0.s 			page 172


 6648              	I2C_Master_ISR_IT:
 6649              	.LFB180:
3185:../../Drivers/STM32F7xx_HAL_Driver/Src/stm32f7xx_hal_i2c.c **** 
3186:../../Drivers/STM32F7xx_HAL_Driver/Src/stm32f7xx_hal_i2c.c **** /**
3187:../../Drivers/STM32F7xx_HAL_Driver/Src/stm32f7xx_hal_i2c.c ****   * @}
3188:../../Drivers/STM32F7xx_HAL_Driver/Src/stm32f7xx_hal_i2c.c ****   */  
3189:../../Drivers/STM32F7xx_HAL_Driver/Src/stm32f7xx_hal_i2c.c **** 
3190:../../Drivers/STM32F7xx_HAL_Driver/Src/stm32f7xx_hal_i2c.c **** /**
3191:../../Drivers/STM32F7xx_HAL_Driver/Src/stm32f7xx_hal_i2c.c ****   * @}
3192:../../Drivers/STM32F7xx_HAL_Driver/Src/stm32f7xx_hal_i2c.c ****   */
3193:../../Drivers/STM32F7xx_HAL_Driver/Src/stm32f7xx_hal_i2c.c **** 
3194:../../Drivers/STM32F7xx_HAL_Driver/Src/stm32f7xx_hal_i2c.c **** /** @addtogroup I2C_Private_Functions
3195:../../Drivers/STM32F7xx_HAL_Driver/Src/stm32f7xx_hal_i2c.c ****   * @{
3196:../../Drivers/STM32F7xx_HAL_Driver/Src/stm32f7xx_hal_i2c.c ****   */
3197:../../Drivers/STM32F7xx_HAL_Driver/Src/stm32f7xx_hal_i2c.c **** 
3198:../../Drivers/STM32F7xx_HAL_Driver/Src/stm32f7xx_hal_i2c.c **** /**
3199:../../Drivers/STM32F7xx_HAL_Driver/Src/stm32f7xx_hal_i2c.c ****   * @brief  Interrupt Sub-Routine which handle the Interrupt Flags Master Mode with Interrupt.
3200:../../Drivers/STM32F7xx_HAL_Driver/Src/stm32f7xx_hal_i2c.c ****   * @param  hi2c: Pointer to a I2C_HandleTypeDef structure that contains
3201:../../Drivers/STM32F7xx_HAL_Driver/Src/stm32f7xx_hal_i2c.c ****   *               the configuration information for the specified I2C.
3202:../../Drivers/STM32F7xx_HAL_Driver/Src/stm32f7xx_hal_i2c.c ****   * @param  ITFlags: Interrupt flags to handle.
3203:../../Drivers/STM32F7xx_HAL_Driver/Src/stm32f7xx_hal_i2c.c ****   * @param  ITSources: Interrupt sources enabled.
3204:../../Drivers/STM32F7xx_HAL_Driver/Src/stm32f7xx_hal_i2c.c ****   * @retval HAL status
3205:../../Drivers/STM32F7xx_HAL_Driver/Src/stm32f7xx_hal_i2c.c ****   */
3206:../../Drivers/STM32F7xx_HAL_Driver/Src/stm32f7xx_hal_i2c.c **** static HAL_StatusTypeDef I2C_Master_ISR_IT(struct __I2C_HandleTypeDef *hi2c, uint32_t ITFlags, uint
3207:../../Drivers/STM32F7xx_HAL_Driver/Src/stm32f7xx_hal_i2c.c **** {
 6650              		.loc 1 3207 0
 6651              		.cfi_startproc
 6652              		@ args = 0, pretend = 0, frame = 24
 6653              		@ frame_needed = 1, uses_anonymous_args = 0
 6654 0000 90B5     		push	{r4, r7, lr}
 6655              	.LCFI240:
 6656              		.cfi_def_cfa_offset 12
 6657              		.cfi_offset 4, -12
 6658              		.cfi_offset 7, -8
 6659              		.cfi_offset 14, -4
 6660 0002 89B0     		sub	sp, sp, #36
 6661              	.LCFI241:
 6662              		.cfi_def_cfa_offset 48
 6663 0004 02AF     		add	r7, sp, #8
 6664              	.LCFI242:
 6665              		.cfi_def_cfa 7, 40
 6666 0006 F860     		str	r0, [r7, #12]
 6667 0008 B960     		str	r1, [r7, #8]
 6668 000a 7A60     		str	r2, [r7, #4]
3208:../../Drivers/STM32F7xx_HAL_Driver/Src/stm32f7xx_hal_i2c.c ****   uint16_t devaddress = 0;
 6669              		.loc 1 3208 0
 6670 000c 0023     		movs	r3, #0
 6671 000e FB82     		strh	r3, [r7, #22]	@ movhi
3209:../../Drivers/STM32F7xx_HAL_Driver/Src/stm32f7xx_hal_i2c.c **** 
3210:../../Drivers/STM32F7xx_HAL_Driver/Src/stm32f7xx_hal_i2c.c ****   /* Process Locked */
3211:../../Drivers/STM32F7xx_HAL_Driver/Src/stm32f7xx_hal_i2c.c ****   __HAL_LOCK(hi2c);
 6672              		.loc 1 3211 0
 6673 0010 FB68     		ldr	r3, [r7, #12]
 6674 0012 93F84030 		ldrb	r3, [r3, #64]	@ zero_extendqisi2
 6675 0016 012B     		cmp	r3, #1
 6676 0018 01D1     		bne	.L330
 6677              		.loc 1 3211 0 is_stmt 0 discriminator 1
ARM GAS  /tmp/cczIhzQ0.s 			page 173


 6678 001a 0223     		movs	r3, #2
 6679 001c FEE0     		b	.L331
 6680              	.L330:
 6681              		.loc 1 3211 0 discriminator 2
 6682 001e FB68     		ldr	r3, [r7, #12]
 6683 0020 0122     		movs	r2, #1
 6684 0022 83F84020 		strb	r2, [r3, #64]
3212:../../Drivers/STM32F7xx_HAL_Driver/Src/stm32f7xx_hal_i2c.c ****   
3213:../../Drivers/STM32F7xx_HAL_Driver/Src/stm32f7xx_hal_i2c.c ****   if(((ITFlags & I2C_FLAG_AF) != RESET) && ((ITSources & I2C_IT_NACKI) != RESET))
 6685              		.loc 1 3213 0 is_stmt 1 discriminator 2
 6686 0026 BB68     		ldr	r3, [r7, #8]
 6687 0028 03F01003 		and	r3, r3, #16
 6688 002c 002B     		cmp	r3, #0
 6689 002e 12D0     		beq	.L332
 6690              		.loc 1 3213 0 is_stmt 0 discriminator 1
 6691 0030 7B68     		ldr	r3, [r7, #4]
 6692 0032 03F01003 		and	r3, r3, #16
 6693 0036 002B     		cmp	r3, #0
 6694 0038 0DD0     		beq	.L332
3214:../../Drivers/STM32F7xx_HAL_Driver/Src/stm32f7xx_hal_i2c.c ****   {
3215:../../Drivers/STM32F7xx_HAL_Driver/Src/stm32f7xx_hal_i2c.c ****     /* Clear NACK Flag */
3216:../../Drivers/STM32F7xx_HAL_Driver/Src/stm32f7xx_hal_i2c.c ****     __HAL_I2C_CLEAR_FLAG(hi2c, I2C_FLAG_AF);
 6695              		.loc 1 3216 0 is_stmt 1
 6696 003a FB68     		ldr	r3, [r7, #12]
 6697 003c 1B68     		ldr	r3, [r3]
 6698 003e 1022     		movs	r2, #16
 6699 0040 DA61     		str	r2, [r3, #28]
3217:../../Drivers/STM32F7xx_HAL_Driver/Src/stm32f7xx_hal_i2c.c ****     
3218:../../Drivers/STM32F7xx_HAL_Driver/Src/stm32f7xx_hal_i2c.c ****     /* Set corresponding Error Code */
3219:../../Drivers/STM32F7xx_HAL_Driver/Src/stm32f7xx_hal_i2c.c ****     /* No need to generate STOP, it is automatically done */
3220:../../Drivers/STM32F7xx_HAL_Driver/Src/stm32f7xx_hal_i2c.c ****     /* Error callback will be send during stop flag treatment */
3221:../../Drivers/STM32F7xx_HAL_Driver/Src/stm32f7xx_hal_i2c.c ****     hi2c->ErrorCode |= HAL_I2C_ERROR_AF;
 6700              		.loc 1 3221 0
 6701 0042 FB68     		ldr	r3, [r7, #12]
 6702 0044 5B6C     		ldr	r3, [r3, #68]
 6703 0046 43F00402 		orr	r2, r3, #4
 6704 004a FB68     		ldr	r3, [r7, #12]
 6705 004c 5A64     		str	r2, [r3, #68]
3222:../../Drivers/STM32F7xx_HAL_Driver/Src/stm32f7xx_hal_i2c.c ****     
3223:../../Drivers/STM32F7xx_HAL_Driver/Src/stm32f7xx_hal_i2c.c ****     /* Flush TX register */
3224:../../Drivers/STM32F7xx_HAL_Driver/Src/stm32f7xx_hal_i2c.c ****     I2C_Flush_TXDR(hi2c);
 6706              		.loc 1 3224 0
 6707 004e F868     		ldr	r0, [r7, #12]
 6708 0050 FFF7FEFF 		bl	I2C_Flush_TXDR
 6709 0054 CFE0     		b	.L333
 6710              	.L332:
3225:../../Drivers/STM32F7xx_HAL_Driver/Src/stm32f7xx_hal_i2c.c ****   }
3226:../../Drivers/STM32F7xx_HAL_Driver/Src/stm32f7xx_hal_i2c.c ****   else if(((ITFlags & I2C_FLAG_RXNE) != RESET) && ((ITSources & I2C_IT_RXI) != RESET))
 6711              		.loc 1 3226 0
 6712 0056 BB68     		ldr	r3, [r7, #8]
 6713 0058 03F00403 		and	r3, r3, #4
 6714 005c 002B     		cmp	r3, #0
 6715 005e 1CD0     		beq	.L334
 6716              		.loc 1 3226 0 is_stmt 0 discriminator 1
 6717 0060 7B68     		ldr	r3, [r7, #4]
 6718 0062 03F00403 		and	r3, r3, #4
 6719 0066 002B     		cmp	r3, #0
ARM GAS  /tmp/cczIhzQ0.s 			page 174


 6720 0068 17D0     		beq	.L334
3227:../../Drivers/STM32F7xx_HAL_Driver/Src/stm32f7xx_hal_i2c.c ****   {
3228:../../Drivers/STM32F7xx_HAL_Driver/Src/stm32f7xx_hal_i2c.c ****     /* Read data from RXDR */
3229:../../Drivers/STM32F7xx_HAL_Driver/Src/stm32f7xx_hal_i2c.c ****     (*hi2c->pBuffPtr++) = hi2c->Instance->RXDR;
 6721              		.loc 1 3229 0 is_stmt 1
 6722 006a FB68     		ldr	r3, [r7, #12]
 6723 006c 5B6A     		ldr	r3, [r3, #36]
 6724 006e 591C     		adds	r1, r3, #1
 6725 0070 FA68     		ldr	r2, [r7, #12]
 6726 0072 5162     		str	r1, [r2, #36]
 6727 0074 FA68     		ldr	r2, [r7, #12]
 6728 0076 1268     		ldr	r2, [r2]
 6729 0078 526A     		ldr	r2, [r2, #36]
 6730 007a D2B2     		uxtb	r2, r2
 6731 007c 1A70     		strb	r2, [r3]
3230:../../Drivers/STM32F7xx_HAL_Driver/Src/stm32f7xx_hal_i2c.c ****     hi2c->XferSize--;
 6732              		.loc 1 3230 0
 6733 007e FB68     		ldr	r3, [r7, #12]
 6734 0080 1B8D     		ldrh	r3, [r3, #40]
 6735 0082 013B     		subs	r3, r3, #1
 6736 0084 9AB2     		uxth	r2, r3
 6737 0086 FB68     		ldr	r3, [r7, #12]
 6738 0088 1A85     		strh	r2, [r3, #40]	@ movhi
3231:../../Drivers/STM32F7xx_HAL_Driver/Src/stm32f7xx_hal_i2c.c ****     hi2c->XferCount--;
 6739              		.loc 1 3231 0
 6740 008a FB68     		ldr	r3, [r7, #12]
 6741 008c 5B8D     		ldrh	r3, [r3, #42]	@ movhi
 6742 008e 9BB2     		uxth	r3, r3
 6743 0090 013B     		subs	r3, r3, #1
 6744 0092 9AB2     		uxth	r2, r3
 6745 0094 FB68     		ldr	r3, [r7, #12]
 6746 0096 5A85     		strh	r2, [r3, #42]	@ movhi
 6747 0098 ADE0     		b	.L333
 6748              	.L334:
3232:../../Drivers/STM32F7xx_HAL_Driver/Src/stm32f7xx_hal_i2c.c ****   }
3233:../../Drivers/STM32F7xx_HAL_Driver/Src/stm32f7xx_hal_i2c.c ****   else if(((ITFlags & I2C_FLAG_TXIS) != RESET) && ((ITSources & I2C_IT_TXI) != RESET))
 6749              		.loc 1 3233 0
 6750 009a BB68     		ldr	r3, [r7, #8]
 6751 009c 03F00203 		and	r3, r3, #2
 6752 00a0 002B     		cmp	r3, #0
 6753 00a2 1BD0     		beq	.L335
 6754              		.loc 1 3233 0 is_stmt 0 discriminator 1
 6755 00a4 7B68     		ldr	r3, [r7, #4]
 6756 00a6 03F00203 		and	r3, r3, #2
 6757 00aa 002B     		cmp	r3, #0
 6758 00ac 16D0     		beq	.L335
3234:../../Drivers/STM32F7xx_HAL_Driver/Src/stm32f7xx_hal_i2c.c ****   {
3235:../../Drivers/STM32F7xx_HAL_Driver/Src/stm32f7xx_hal_i2c.c ****     /* Write data to TXDR */
3236:../../Drivers/STM32F7xx_HAL_Driver/Src/stm32f7xx_hal_i2c.c ****     hi2c->Instance->TXDR = (*hi2c->pBuffPtr++);
 6759              		.loc 1 3236 0 is_stmt 1
 6760 00ae FB68     		ldr	r3, [r7, #12]
 6761 00b0 1A68     		ldr	r2, [r3]
 6762 00b2 FB68     		ldr	r3, [r7, #12]
 6763 00b4 5B6A     		ldr	r3, [r3, #36]
 6764 00b6 581C     		adds	r0, r3, #1
 6765 00b8 F968     		ldr	r1, [r7, #12]
 6766 00ba 4862     		str	r0, [r1, #36]
ARM GAS  /tmp/cczIhzQ0.s 			page 175


 6767 00bc 1B78     		ldrb	r3, [r3]	@ zero_extendqisi2
 6768 00be 9362     		str	r3, [r2, #40]
3237:../../Drivers/STM32F7xx_HAL_Driver/Src/stm32f7xx_hal_i2c.c ****     hi2c->XferSize--;
 6769              		.loc 1 3237 0
 6770 00c0 FB68     		ldr	r3, [r7, #12]
 6771 00c2 1B8D     		ldrh	r3, [r3, #40]
 6772 00c4 013B     		subs	r3, r3, #1
 6773 00c6 9AB2     		uxth	r2, r3
 6774 00c8 FB68     		ldr	r3, [r7, #12]
 6775 00ca 1A85     		strh	r2, [r3, #40]	@ movhi
3238:../../Drivers/STM32F7xx_HAL_Driver/Src/stm32f7xx_hal_i2c.c ****     hi2c->XferCount--;	
 6776              		.loc 1 3238 0
 6777 00cc FB68     		ldr	r3, [r7, #12]
 6778 00ce 5B8D     		ldrh	r3, [r3, #42]	@ movhi
 6779 00d0 9BB2     		uxth	r3, r3
 6780 00d2 013B     		subs	r3, r3, #1
 6781 00d4 9AB2     		uxth	r2, r3
 6782 00d6 FB68     		ldr	r3, [r7, #12]
 6783 00d8 5A85     		strh	r2, [r3, #42]	@ movhi
 6784 00da 8CE0     		b	.L333
 6785              	.L335:
3239:../../Drivers/STM32F7xx_HAL_Driver/Src/stm32f7xx_hal_i2c.c ****   }
3240:../../Drivers/STM32F7xx_HAL_Driver/Src/stm32f7xx_hal_i2c.c ****   else if(((ITFlags & I2C_FLAG_TCR) != RESET) && ((ITSources & I2C_IT_TCI) != RESET))
 6786              		.loc 1 3240 0
 6787 00dc BB68     		ldr	r3, [r7, #8]
 6788 00de 03F08003 		and	r3, r3, #128
 6789 00e2 002B     		cmp	r3, #0
 6790 00e4 63D0     		beq	.L336
 6791              		.loc 1 3240 0 is_stmt 0 discriminator 1
 6792 00e6 7B68     		ldr	r3, [r7, #4]
 6793 00e8 03F04003 		and	r3, r3, #64
 6794 00ec 002B     		cmp	r3, #0
 6795 00ee 5ED0     		beq	.L336
3241:../../Drivers/STM32F7xx_HAL_Driver/Src/stm32f7xx_hal_i2c.c ****   {
3242:../../Drivers/STM32F7xx_HAL_Driver/Src/stm32f7xx_hal_i2c.c ****     if((hi2c->XferSize == 0) && (hi2c->XferCount != 0))
 6796              		.loc 1 3242 0 is_stmt 1
 6797 00f0 FB68     		ldr	r3, [r7, #12]
 6798 00f2 1B8D     		ldrh	r3, [r3, #40]
 6799 00f4 002B     		cmp	r3, #0
 6800 00f6 43D1     		bne	.L337
 6801              		.loc 1 3242 0 is_stmt 0 discriminator 1
 6802 00f8 FB68     		ldr	r3, [r7, #12]
 6803 00fa 5B8D     		ldrh	r3, [r3, #42]	@ movhi
 6804 00fc 9BB2     		uxth	r3, r3
 6805 00fe 002B     		cmp	r3, #0
 6806 0100 3ED0     		beq	.L337
3243:../../Drivers/STM32F7xx_HAL_Driver/Src/stm32f7xx_hal_i2c.c ****     {
3244:../../Drivers/STM32F7xx_HAL_Driver/Src/stm32f7xx_hal_i2c.c ****       devaddress = (hi2c->Instance->CR2 & I2C_CR2_SADD);
 6807              		.loc 1 3244 0 is_stmt 1
 6808 0102 FB68     		ldr	r3, [r7, #12]
 6809 0104 1B68     		ldr	r3, [r3]
 6810 0106 5B68     		ldr	r3, [r3, #4]
 6811 0108 9BB2     		uxth	r3, r3
 6812 010a C3F30903 		ubfx	r3, r3, #0, #10
 6813 010e FB82     		strh	r3, [r7, #22]	@ movhi
3245:../../Drivers/STM32F7xx_HAL_Driver/Src/stm32f7xx_hal_i2c.c ****       
3246:../../Drivers/STM32F7xx_HAL_Driver/Src/stm32f7xx_hal_i2c.c ****       if(hi2c->XferCount > MAX_NBYTE_SIZE)
ARM GAS  /tmp/cczIhzQ0.s 			page 176


 6814              		.loc 1 3246 0
 6815 0110 FB68     		ldr	r3, [r7, #12]
 6816 0112 5B8D     		ldrh	r3, [r3, #42]	@ movhi
 6817 0114 9BB2     		uxth	r3, r3
 6818 0116 FF2B     		cmp	r3, #255
 6819 0118 0ED9     		bls	.L338
3247:../../Drivers/STM32F7xx_HAL_Driver/Src/stm32f7xx_hal_i2c.c ****       {
3248:../../Drivers/STM32F7xx_HAL_Driver/Src/stm32f7xx_hal_i2c.c ****         hi2c->XferSize = MAX_NBYTE_SIZE;
 6820              		.loc 1 3248 0
 6821 011a FB68     		ldr	r3, [r7, #12]
 6822 011c FF22     		movs	r2, #255
 6823 011e 1A85     		strh	r2, [r3, #40]	@ movhi
3249:../../Drivers/STM32F7xx_HAL_Driver/Src/stm32f7xx_hal_i2c.c ****         I2C_TransferConfig(hi2c, devaddress, hi2c->XferSize, I2C_RELOAD_MODE, I2C_NO_STARTSTOP);
 6824              		.loc 1 3249 0
 6825 0120 FB68     		ldr	r3, [r7, #12]
 6826 0122 1B8D     		ldrh	r3, [r3, #40]
 6827 0124 DAB2     		uxtb	r2, r3
 6828 0126 F98A     		ldrh	r1, [r7, #22]
 6829 0128 0023     		movs	r3, #0
 6830 012a 0093     		str	r3, [sp]
 6831 012c F868     		ldr	r0, [r7, #12]
 6832 012e 4FF08073 		mov	r3, #16777216
 6833 0132 FFF7FEFF 		bl	I2C_TransferConfig
 6834 0136 22E0     		b	.L339
 6835              	.L338:
3250:../../Drivers/STM32F7xx_HAL_Driver/Src/stm32f7xx_hal_i2c.c ****       }
3251:../../Drivers/STM32F7xx_HAL_Driver/Src/stm32f7xx_hal_i2c.c ****       else
3252:../../Drivers/STM32F7xx_HAL_Driver/Src/stm32f7xx_hal_i2c.c ****       {
3253:../../Drivers/STM32F7xx_HAL_Driver/Src/stm32f7xx_hal_i2c.c ****         hi2c->XferSize = hi2c->XferCount;
 6836              		.loc 1 3253 0
 6837 0138 FB68     		ldr	r3, [r7, #12]
 6838 013a 5B8D     		ldrh	r3, [r3, #42]	@ movhi
 6839 013c 9AB2     		uxth	r2, r3
 6840 013e FB68     		ldr	r3, [r7, #12]
 6841 0140 1A85     		strh	r2, [r3, #40]	@ movhi
3254:../../Drivers/STM32F7xx_HAL_Driver/Src/stm32f7xx_hal_i2c.c ****         if(hi2c->XferOptions != I2C_NO_OPTION_FRAME)
 6842              		.loc 1 3254 0
 6843 0142 FB68     		ldr	r3, [r7, #12]
 6844 0144 DB6A     		ldr	r3, [r3, #44]
 6845 0146 13F5803F 		cmn	r3, #65536
 6846 014a 0CD0     		beq	.L340
3255:../../Drivers/STM32F7xx_HAL_Driver/Src/stm32f7xx_hal_i2c.c ****         {
3256:../../Drivers/STM32F7xx_HAL_Driver/Src/stm32f7xx_hal_i2c.c ****           I2C_TransferConfig(hi2c, devaddress, hi2c->XferSize, hi2c->XferOptions, I2C_NO_STARTSTOP)
 6847              		.loc 1 3256 0
 6848 014c FB68     		ldr	r3, [r7, #12]
 6849 014e 1B8D     		ldrh	r3, [r3, #40]
 6850 0150 DAB2     		uxtb	r2, r3
 6851 0152 FB68     		ldr	r3, [r7, #12]
 6852 0154 DC6A     		ldr	r4, [r3, #44]
 6853 0156 F98A     		ldrh	r1, [r7, #22]
 6854 0158 0023     		movs	r3, #0
 6855 015a 0093     		str	r3, [sp]
 6856 015c F868     		ldr	r0, [r7, #12]
 6857 015e 2346     		mov	r3, r4
 6858 0160 FFF7FEFF 		bl	I2C_TransferConfig
 6859 0164 0BE0     		b	.L339
 6860              	.L340:
ARM GAS  /tmp/cczIhzQ0.s 			page 177


3257:../../Drivers/STM32F7xx_HAL_Driver/Src/stm32f7xx_hal_i2c.c ****         }
3258:../../Drivers/STM32F7xx_HAL_Driver/Src/stm32f7xx_hal_i2c.c ****         else
3259:../../Drivers/STM32F7xx_HAL_Driver/Src/stm32f7xx_hal_i2c.c ****         {
3260:../../Drivers/STM32F7xx_HAL_Driver/Src/stm32f7xx_hal_i2c.c ****           I2C_TransferConfig(hi2c, devaddress, hi2c->XferSize, I2C_AUTOEND_MODE, I2C_NO_STARTSTOP);
 6861              		.loc 1 3260 0
 6862 0166 FB68     		ldr	r3, [r7, #12]
 6863 0168 1B8D     		ldrh	r3, [r3, #40]
 6864 016a DAB2     		uxtb	r2, r3
 6865 016c F98A     		ldrh	r1, [r7, #22]
 6866 016e 0023     		movs	r3, #0
 6867 0170 0093     		str	r3, [sp]
 6868 0172 F868     		ldr	r0, [r7, #12]
 6869 0174 4FF00073 		mov	r3, #33554432
 6870 0178 FFF7FEFF 		bl	I2C_TransferConfig
3246:../../Drivers/STM32F7xx_HAL_Driver/Src/stm32f7xx_hal_i2c.c ****       {
 6871              		.loc 1 3246 0
 6872 017c 16E0     		b	.L341
 6873              	.L339:
 6874 017e 15E0     		b	.L341
 6875              	.L337:
3261:../../Drivers/STM32F7xx_HAL_Driver/Src/stm32f7xx_hal_i2c.c ****         }
3262:../../Drivers/STM32F7xx_HAL_Driver/Src/stm32f7xx_hal_i2c.c ****       }
3263:../../Drivers/STM32F7xx_HAL_Driver/Src/stm32f7xx_hal_i2c.c ****     }
3264:../../Drivers/STM32F7xx_HAL_Driver/Src/stm32f7xx_hal_i2c.c ****     else
3265:../../Drivers/STM32F7xx_HAL_Driver/Src/stm32f7xx_hal_i2c.c ****     {
3266:../../Drivers/STM32F7xx_HAL_Driver/Src/stm32f7xx_hal_i2c.c ****       /* Call TxCpltCallback() if no stop mode is set */
3267:../../Drivers/STM32F7xx_HAL_Driver/Src/stm32f7xx_hal_i2c.c ****       if((I2C_GET_STOP_MODE(hi2c) != I2C_AUTOEND_MODE)&&(hi2c->Mode == HAL_I2C_MODE_MASTER))
 6876              		.loc 1 3267 0
 6877 0180 FB68     		ldr	r3, [r7, #12]
 6878 0182 1B68     		ldr	r3, [r3]
 6879 0184 5B68     		ldr	r3, [r3, #4]
 6880 0186 03F00073 		and	r3, r3, #33554432
 6881 018a 002B     		cmp	r3, #0
 6882 018c 09D1     		bne	.L342
 6883              		.loc 1 3267 0 is_stmt 0 discriminator 1
 6884 018e FB68     		ldr	r3, [r7, #12]
 6885 0190 93F84230 		ldrb	r3, [r3, #66]
 6886 0194 DBB2     		uxtb	r3, r3
 6887 0196 102B     		cmp	r3, #16
 6888 0198 03D1     		bne	.L342
3268:../../Drivers/STM32F7xx_HAL_Driver/Src/stm32f7xx_hal_i2c.c ****       {
3269:../../Drivers/STM32F7xx_HAL_Driver/Src/stm32f7xx_hal_i2c.c ****         /* Call I2C Master Sequential complete process */
3270:../../Drivers/STM32F7xx_HAL_Driver/Src/stm32f7xx_hal_i2c.c ****         I2C_ITMasterSequentialCplt(hi2c);
 6889              		.loc 1 3270 0 is_stmt 1
 6890 019a F868     		ldr	r0, [r7, #12]
 6891 019c FFF7FEFF 		bl	I2C_ITMasterSequentialCplt
 6892 01a0 04E0     		b	.L341
 6893              	.L342:
3271:../../Drivers/STM32F7xx_HAL_Driver/Src/stm32f7xx_hal_i2c.c ****       }
3272:../../Drivers/STM32F7xx_HAL_Driver/Src/stm32f7xx_hal_i2c.c ****       else
3273:../../Drivers/STM32F7xx_HAL_Driver/Src/stm32f7xx_hal_i2c.c ****       {
3274:../../Drivers/STM32F7xx_HAL_Driver/Src/stm32f7xx_hal_i2c.c ****         /* Wrong size Status regarding TCR flag event */
3275:../../Drivers/STM32F7xx_HAL_Driver/Src/stm32f7xx_hal_i2c.c ****         /* Call the corresponding callback to inform upper layer of End of Transfer */
3276:../../Drivers/STM32F7xx_HAL_Driver/Src/stm32f7xx_hal_i2c.c ****         I2C_ITError(hi2c, HAL_I2C_ERROR_SIZE);
 6894              		.loc 1 3276 0
 6895 01a2 F868     		ldr	r0, [r7, #12]
 6896 01a4 4021     		movs	r1, #64
ARM GAS  /tmp/cczIhzQ0.s 			page 178


 6897 01a6 FFF7FEFF 		bl	I2C_ITError
3242:../../Drivers/STM32F7xx_HAL_Driver/Src/stm32f7xx_hal_i2c.c ****     {
 6898              		.loc 1 3242 0
 6899 01aa 24E0     		b	.L333
 6900              	.L341:
3242:../../Drivers/STM32F7xx_HAL_Driver/Src/stm32f7xx_hal_i2c.c ****     {
 6901              		.loc 1 3242 0 is_stmt 0 discriminator 1
 6902 01ac 23E0     		b	.L333
 6903              	.L336:
3277:../../Drivers/STM32F7xx_HAL_Driver/Src/stm32f7xx_hal_i2c.c ****       }
3278:../../Drivers/STM32F7xx_HAL_Driver/Src/stm32f7xx_hal_i2c.c ****     }
3279:../../Drivers/STM32F7xx_HAL_Driver/Src/stm32f7xx_hal_i2c.c ****   }
3280:../../Drivers/STM32F7xx_HAL_Driver/Src/stm32f7xx_hal_i2c.c ****   else if(((ITFlags & I2C_FLAG_TC) != RESET) && ((ITSources & I2C_IT_TCI) != RESET))
 6904              		.loc 1 3280 0 is_stmt 1
 6905 01ae BB68     		ldr	r3, [r7, #8]
 6906 01b0 03F04003 		and	r3, r3, #64
 6907 01b4 002B     		cmp	r3, #0
 6908 01b6 1ED0     		beq	.L333
 6909              		.loc 1 3280 0 is_stmt 0 discriminator 1
 6910 01b8 7B68     		ldr	r3, [r7, #4]
 6911 01ba 03F04003 		and	r3, r3, #64
 6912 01be 002B     		cmp	r3, #0
 6913 01c0 19D0     		beq	.L333
3281:../../Drivers/STM32F7xx_HAL_Driver/Src/stm32f7xx_hal_i2c.c ****   {
3282:../../Drivers/STM32F7xx_HAL_Driver/Src/stm32f7xx_hal_i2c.c ****     if(hi2c->XferCount == 0)
 6914              		.loc 1 3282 0 is_stmt 1
 6915 01c2 FB68     		ldr	r3, [r7, #12]
 6916 01c4 5B8D     		ldrh	r3, [r3, #42]	@ movhi
 6917 01c6 9BB2     		uxth	r3, r3
 6918 01c8 002B     		cmp	r3, #0
 6919 01ca 10D1     		bne	.L343
3283:../../Drivers/STM32F7xx_HAL_Driver/Src/stm32f7xx_hal_i2c.c ****     {
3284:../../Drivers/STM32F7xx_HAL_Driver/Src/stm32f7xx_hal_i2c.c ****       if((I2C_GET_STOP_MODE(hi2c) != I2C_AUTOEND_MODE)&&(hi2c->Mode == HAL_I2C_MODE_MASTER))
 6920              		.loc 1 3284 0
 6921 01cc FB68     		ldr	r3, [r7, #12]
 6922 01ce 1B68     		ldr	r3, [r3]
 6923 01d0 5B68     		ldr	r3, [r3, #4]
 6924 01d2 03F00073 		and	r3, r3, #33554432
 6925 01d6 002B     		cmp	r3, #0
 6926 01d8 0DD1     		bne	.L333
 6927              		.loc 1 3284 0 is_stmt 0 discriminator 1
 6928 01da FB68     		ldr	r3, [r7, #12]
 6929 01dc 93F84230 		ldrb	r3, [r3, #66]
 6930 01e0 DBB2     		uxtb	r3, r3
 6931 01e2 102B     		cmp	r3, #16
 6932 01e4 07D1     		bne	.L333
3285:../../Drivers/STM32F7xx_HAL_Driver/Src/stm32f7xx_hal_i2c.c ****       {
3286:../../Drivers/STM32F7xx_HAL_Driver/Src/stm32f7xx_hal_i2c.c ****         /* Call I2C Master Sequential complete process */
3287:../../Drivers/STM32F7xx_HAL_Driver/Src/stm32f7xx_hal_i2c.c ****         I2C_ITMasterSequentialCplt(hi2c);
 6933              		.loc 1 3287 0 is_stmt 1
 6934 01e6 F868     		ldr	r0, [r7, #12]
 6935 01e8 FFF7FEFF 		bl	I2C_ITMasterSequentialCplt
 6936 01ec 03E0     		b	.L333
 6937              	.L343:
3288:../../Drivers/STM32F7xx_HAL_Driver/Src/stm32f7xx_hal_i2c.c ****       }
3289:../../Drivers/STM32F7xx_HAL_Driver/Src/stm32f7xx_hal_i2c.c ****     }
3290:../../Drivers/STM32F7xx_HAL_Driver/Src/stm32f7xx_hal_i2c.c ****     else
ARM GAS  /tmp/cczIhzQ0.s 			page 179


3291:../../Drivers/STM32F7xx_HAL_Driver/Src/stm32f7xx_hal_i2c.c ****     {
3292:../../Drivers/STM32F7xx_HAL_Driver/Src/stm32f7xx_hal_i2c.c ****       /* Wrong size Status regarding TC flag event */
3293:../../Drivers/STM32F7xx_HAL_Driver/Src/stm32f7xx_hal_i2c.c ****       /* Call the corresponding callback to inform upper layer of End of Transfer */
3294:../../Drivers/STM32F7xx_HAL_Driver/Src/stm32f7xx_hal_i2c.c ****       I2C_ITError(hi2c, HAL_I2C_ERROR_SIZE);
 6938              		.loc 1 3294 0
 6939 01ee F868     		ldr	r0, [r7, #12]
 6940 01f0 4021     		movs	r1, #64
 6941 01f2 FFF7FEFF 		bl	I2C_ITError
 6942              	.L333:
3295:../../Drivers/STM32F7xx_HAL_Driver/Src/stm32f7xx_hal_i2c.c ****     }
3296:../../Drivers/STM32F7xx_HAL_Driver/Src/stm32f7xx_hal_i2c.c ****   }
3297:../../Drivers/STM32F7xx_HAL_Driver/Src/stm32f7xx_hal_i2c.c ****   
3298:../../Drivers/STM32F7xx_HAL_Driver/Src/stm32f7xx_hal_i2c.c ****   if(((ITFlags & I2C_FLAG_STOPF) != RESET) && ((ITSources & I2C_IT_STOPI) != RESET))
 6943              		.loc 1 3298 0
 6944 01f6 BB68     		ldr	r3, [r7, #8]
 6945 01f8 03F02003 		and	r3, r3, #32
 6946 01fc 002B     		cmp	r3, #0
 6947 01fe 08D0     		beq	.L345
 6948              		.loc 1 3298 0 is_stmt 0 discriminator 1
 6949 0200 7B68     		ldr	r3, [r7, #4]
 6950 0202 03F02003 		and	r3, r3, #32
 6951 0206 002B     		cmp	r3, #0
 6952 0208 03D0     		beq	.L345
3299:../../Drivers/STM32F7xx_HAL_Driver/Src/stm32f7xx_hal_i2c.c ****   {
3300:../../Drivers/STM32F7xx_HAL_Driver/Src/stm32f7xx_hal_i2c.c ****     /* Call I2C Master complete process */
3301:../../Drivers/STM32F7xx_HAL_Driver/Src/stm32f7xx_hal_i2c.c ****     I2C_ITMasterCplt(hi2c, ITFlags);
 6953              		.loc 1 3301 0 is_stmt 1
 6954 020a F868     		ldr	r0, [r7, #12]
 6955 020c B968     		ldr	r1, [r7, #8]
 6956 020e FFF7FEFF 		bl	I2C_ITMasterCplt
 6957              	.L345:
3302:../../Drivers/STM32F7xx_HAL_Driver/Src/stm32f7xx_hal_i2c.c ****   }
3303:../../Drivers/STM32F7xx_HAL_Driver/Src/stm32f7xx_hal_i2c.c ****   
3304:../../Drivers/STM32F7xx_HAL_Driver/Src/stm32f7xx_hal_i2c.c ****   /* Process Unlocked */
3305:../../Drivers/STM32F7xx_HAL_Driver/Src/stm32f7xx_hal_i2c.c ****   __HAL_UNLOCK(hi2c);
 6958              		.loc 1 3305 0
 6959 0212 FB68     		ldr	r3, [r7, #12]
 6960 0214 0022     		movs	r2, #0
 6961 0216 83F84020 		strb	r2, [r3, #64]
3306:../../Drivers/STM32F7xx_HAL_Driver/Src/stm32f7xx_hal_i2c.c ****   
3307:../../Drivers/STM32F7xx_HAL_Driver/Src/stm32f7xx_hal_i2c.c ****   return HAL_OK;
 6962              		.loc 1 3307 0
 6963 021a 0023     		movs	r3, #0
 6964              	.L331:
3308:../../Drivers/STM32F7xx_HAL_Driver/Src/stm32f7xx_hal_i2c.c **** }
 6965              		.loc 1 3308 0
 6966 021c 1846     		mov	r0, r3
 6967 021e 1C37     		adds	r7, r7, #28
 6968              	.LCFI243:
 6969              		.cfi_def_cfa_offset 12
 6970 0220 BD46     		mov	sp, r7
 6971              	.LCFI244:
 6972              		.cfi_def_cfa_register 13
 6973              		@ sp needed
 6974 0222 90BD     		pop	{r4, r7, pc}
 6975              		.cfi_endproc
 6976              	.LFE180:
ARM GAS  /tmp/cczIhzQ0.s 			page 180


 6978              		.section	.text.I2C_Slave_ISR_IT,"ax",%progbits
 6979              		.align	2
 6980              		.thumb
 6981              		.thumb_func
 6983              	I2C_Slave_ISR_IT:
 6984              	.LFB181:
3309:../../Drivers/STM32F7xx_HAL_Driver/Src/stm32f7xx_hal_i2c.c **** 
3310:../../Drivers/STM32F7xx_HAL_Driver/Src/stm32f7xx_hal_i2c.c **** /**
3311:../../Drivers/STM32F7xx_HAL_Driver/Src/stm32f7xx_hal_i2c.c ****   * @brief  Interrupt Sub-Routine which handle the Interrupt Flags Slave Mode with Interrupt.
3312:../../Drivers/STM32F7xx_HAL_Driver/Src/stm32f7xx_hal_i2c.c ****   * @param  hi2c: Pointer to a I2C_HandleTypeDef structure that contains
3313:../../Drivers/STM32F7xx_HAL_Driver/Src/stm32f7xx_hal_i2c.c ****   *               the configuration information for the specified I2C.
3314:../../Drivers/STM32F7xx_HAL_Driver/Src/stm32f7xx_hal_i2c.c ****   * @param  ITFlags: Interrupt flags to handle.
3315:../../Drivers/STM32F7xx_HAL_Driver/Src/stm32f7xx_hal_i2c.c ****   * @param  ITSources: Interrupt sources enabled.
3316:../../Drivers/STM32F7xx_HAL_Driver/Src/stm32f7xx_hal_i2c.c ****   * @retval HAL status
3317:../../Drivers/STM32F7xx_HAL_Driver/Src/stm32f7xx_hal_i2c.c ****   */
3318:../../Drivers/STM32F7xx_HAL_Driver/Src/stm32f7xx_hal_i2c.c **** static HAL_StatusTypeDef I2C_Slave_ISR_IT(struct __I2C_HandleTypeDef *hi2c, uint32_t ITFlags, uint3
3319:../../Drivers/STM32F7xx_HAL_Driver/Src/stm32f7xx_hal_i2c.c **** {
 6985              		.loc 1 3319 0
 6986              		.cfi_startproc
 6987              		@ args = 0, pretend = 0, frame = 16
 6988              		@ frame_needed = 1, uses_anonymous_args = 0
 6989 0000 80B5     		push	{r7, lr}
 6990              	.LCFI245:
 6991              		.cfi_def_cfa_offset 8
 6992              		.cfi_offset 7, -8
 6993              		.cfi_offset 14, -4
 6994 0002 84B0     		sub	sp, sp, #16
 6995              	.LCFI246:
 6996              		.cfi_def_cfa_offset 24
 6997 0004 00AF     		add	r7, sp, #0
 6998              	.LCFI247:
 6999              		.cfi_def_cfa_register 7
 7000 0006 F860     		str	r0, [r7, #12]
 7001 0008 B960     		str	r1, [r7, #8]
 7002 000a 7A60     		str	r2, [r7, #4]
3320:../../Drivers/STM32F7xx_HAL_Driver/Src/stm32f7xx_hal_i2c.c ****   /* Process locked */
3321:../../Drivers/STM32F7xx_HAL_Driver/Src/stm32f7xx_hal_i2c.c ****   __HAL_LOCK(hi2c);
 7003              		.loc 1 3321 0
 7004 000c FB68     		ldr	r3, [r7, #12]
 7005 000e 93F84030 		ldrb	r3, [r3, #64]	@ zero_extendqisi2
 7006 0012 012B     		cmp	r3, #1
 7007 0014 01D1     		bne	.L347
 7008              		.loc 1 3321 0 is_stmt 0 discriminator 1
 7009 0016 0223     		movs	r3, #2
 7010 0018 D8E0     		b	.L348
 7011              	.L347:
 7012              		.loc 1 3321 0 discriminator 2
 7013 001a FB68     		ldr	r3, [r7, #12]
 7014 001c 0122     		movs	r2, #1
 7015 001e 83F84020 		strb	r2, [r3, #64]
3322:../../Drivers/STM32F7xx_HAL_Driver/Src/stm32f7xx_hal_i2c.c ****   
3323:../../Drivers/STM32F7xx_HAL_Driver/Src/stm32f7xx_hal_i2c.c ****   if(((ITFlags & I2C_FLAG_AF) != RESET) && ((ITSources & I2C_IT_NACKI) != RESET))
 7016              		.loc 1 3323 0 is_stmt 1 discriminator 2
 7017 0022 BB68     		ldr	r3, [r7, #8]
 7018 0024 03F01003 		and	r3, r3, #16
 7019 0028 002B     		cmp	r3, #0
 7020 002a 46D0     		beq	.L349
ARM GAS  /tmp/cczIhzQ0.s 			page 181


 7021              		.loc 1 3323 0 is_stmt 0 discriminator 1
 7022 002c 7B68     		ldr	r3, [r7, #4]
 7023 002e 03F01003 		and	r3, r3, #16
 7024 0032 002B     		cmp	r3, #0
 7025 0034 41D0     		beq	.L349
3324:../../Drivers/STM32F7xx_HAL_Driver/Src/stm32f7xx_hal_i2c.c ****   {
3325:../../Drivers/STM32F7xx_HAL_Driver/Src/stm32f7xx_hal_i2c.c ****     /* Check that I2C transfer finished */
3326:../../Drivers/STM32F7xx_HAL_Driver/Src/stm32f7xx_hal_i2c.c ****     /* if yes, normal use case, a NACK is sent by the MASTER when Transfer is finished */
3327:../../Drivers/STM32F7xx_HAL_Driver/Src/stm32f7xx_hal_i2c.c ****     /* Mean XferCount == 0*/
3328:../../Drivers/STM32F7xx_HAL_Driver/Src/stm32f7xx_hal_i2c.c ****     /* So clear Flag NACKF only */
3329:../../Drivers/STM32F7xx_HAL_Driver/Src/stm32f7xx_hal_i2c.c ****     if(hi2c->XferCount == 0)
 7026              		.loc 1 3329 0 is_stmt 1
 7027 0036 FB68     		ldr	r3, [r7, #12]
 7028 0038 5B8D     		ldrh	r3, [r3, #42]	@ movhi
 7029 003a 9BB2     		uxth	r3, r3
 7030 003c 002B     		cmp	r3, #0
 7031 003e 30D1     		bne	.L350
3330:../../Drivers/STM32F7xx_HAL_Driver/Src/stm32f7xx_hal_i2c.c ****     {
3331:../../Drivers/STM32F7xx_HAL_Driver/Src/stm32f7xx_hal_i2c.c ****       if(((hi2c->XferOptions == I2C_FIRST_AND_LAST_FRAME) || (hi2c->XferOptions == I2C_LAST_FRAME))
 7032              		.loc 1 3331 0
 7033 0040 FB68     		ldr	r3, [r7, #12]
 7034 0042 DB6A     		ldr	r3, [r3, #44]
 7035 0044 B3F1007F 		cmp	r3, #33554432
 7036 0048 04D0     		beq	.L351
 7037              		.loc 1 3331 0 is_stmt 0 discriminator 2
 7038 004a FB68     		ldr	r3, [r7, #12]
 7039 004c DB6A     		ldr	r3, [r3, #44]
 7040 004e B3F1007F 		cmp	r3, #33554432
 7041 0052 0AD1     		bne	.L352
 7042              	.L351:
3332:../../Drivers/STM32F7xx_HAL_Driver/Src/stm32f7xx_hal_i2c.c ****         (hi2c->State == HAL_I2C_STATE_LISTEN))
 7043              		.loc 1 3332 0 is_stmt 1 discriminator 3
 7044 0054 FB68     		ldr	r3, [r7, #12]
 7045 0056 93F84130 		ldrb	r3, [r3, #65]
 7046 005a DBB2     		uxtb	r3, r3
3331:../../Drivers/STM32F7xx_HAL_Driver/Src/stm32f7xx_hal_i2c.c ****         (hi2c->State == HAL_I2C_STATE_LISTEN))
 7047              		.loc 1 3331 0 discriminator 3
 7048 005c 282B     		cmp	r3, #40
 7049 005e 04D1     		bne	.L352
3333:../../Drivers/STM32F7xx_HAL_Driver/Src/stm32f7xx_hal_i2c.c ****       {
3334:../../Drivers/STM32F7xx_HAL_Driver/Src/stm32f7xx_hal_i2c.c ****         /* Call I2C Listen complete process */
3335:../../Drivers/STM32F7xx_HAL_Driver/Src/stm32f7xx_hal_i2c.c ****         I2C_ITListenCplt(hi2c, ITFlags);
 7050              		.loc 1 3335 0
 7051 0060 F868     		ldr	r0, [r7, #12]
 7052 0062 B968     		ldr	r1, [r7, #8]
 7053 0064 FFF7FEFF 		bl	I2C_ITListenCplt
 7054 0068 1AE0     		b	.L353
 7055              	.L352:
3336:../../Drivers/STM32F7xx_HAL_Driver/Src/stm32f7xx_hal_i2c.c ****       }
3337:../../Drivers/STM32F7xx_HAL_Driver/Src/stm32f7xx_hal_i2c.c ****       else if((hi2c->XferOptions != I2C_NO_OPTION_FRAME) && (hi2c->State == HAL_I2C_STATE_BUSY_TX_L
 7056              		.loc 1 3337 0
 7057 006a FB68     		ldr	r3, [r7, #12]
 7058 006c DB6A     		ldr	r3, [r3, #44]
 7059 006e 13F5803F 		cmn	r3, #65536
 7060 0072 10D0     		beq	.L354
 7061              		.loc 1 3337 0 is_stmt 0 discriminator 1
 7062 0074 FB68     		ldr	r3, [r7, #12]
ARM GAS  /tmp/cczIhzQ0.s 			page 182


 7063 0076 93F84130 		ldrb	r3, [r3, #65]
 7064 007a DBB2     		uxtb	r3, r3
 7065 007c 292B     		cmp	r3, #41
 7066 007e 0AD1     		bne	.L354
3338:../../Drivers/STM32F7xx_HAL_Driver/Src/stm32f7xx_hal_i2c.c ****       {
3339:../../Drivers/STM32F7xx_HAL_Driver/Src/stm32f7xx_hal_i2c.c ****         /* Clear NACK Flag */
3340:../../Drivers/STM32F7xx_HAL_Driver/Src/stm32f7xx_hal_i2c.c ****         __HAL_I2C_CLEAR_FLAG(hi2c, I2C_FLAG_AF);
 7067              		.loc 1 3340 0 is_stmt 1
 7068 0080 FB68     		ldr	r3, [r7, #12]
 7069 0082 1B68     		ldr	r3, [r3]
 7070 0084 1022     		movs	r2, #16
 7071 0086 DA61     		str	r2, [r3, #28]
3341:../../Drivers/STM32F7xx_HAL_Driver/Src/stm32f7xx_hal_i2c.c ****         
3342:../../Drivers/STM32F7xx_HAL_Driver/Src/stm32f7xx_hal_i2c.c ****         /* Flush TX register */
3343:../../Drivers/STM32F7xx_HAL_Driver/Src/stm32f7xx_hal_i2c.c ****         I2C_Flush_TXDR(hi2c);
 7072              		.loc 1 3343 0
 7073 0088 F868     		ldr	r0, [r7, #12]
 7074 008a FFF7FEFF 		bl	I2C_Flush_TXDR
3344:../../Drivers/STM32F7xx_HAL_Driver/Src/stm32f7xx_hal_i2c.c ****         
3345:../../Drivers/STM32F7xx_HAL_Driver/Src/stm32f7xx_hal_i2c.c ****         /* Last Byte is Transmitted */
3346:../../Drivers/STM32F7xx_HAL_Driver/Src/stm32f7xx_hal_i2c.c ****         /* Call I2C Slave Sequential complete process */
3347:../../Drivers/STM32F7xx_HAL_Driver/Src/stm32f7xx_hal_i2c.c ****         I2C_ITSlaveSequentialCplt(hi2c);
 7075              		.loc 1 3347 0
 7076 008e F868     		ldr	r0, [r7, #12]
 7077 0090 FFF7FEFF 		bl	I2C_ITSlaveSequentialCplt
 7078 0094 04E0     		b	.L353
 7079              	.L354:
3348:../../Drivers/STM32F7xx_HAL_Driver/Src/stm32f7xx_hal_i2c.c ****       }
3349:../../Drivers/STM32F7xx_HAL_Driver/Src/stm32f7xx_hal_i2c.c ****       else
3350:../../Drivers/STM32F7xx_HAL_Driver/Src/stm32f7xx_hal_i2c.c ****       {
3351:../../Drivers/STM32F7xx_HAL_Driver/Src/stm32f7xx_hal_i2c.c ****         /* Clear NACK Flag */
3352:../../Drivers/STM32F7xx_HAL_Driver/Src/stm32f7xx_hal_i2c.c ****         __HAL_I2C_CLEAR_FLAG(hi2c, I2C_FLAG_AF);
 7080              		.loc 1 3352 0
 7081 0096 FB68     		ldr	r3, [r7, #12]
 7082 0098 1B68     		ldr	r3, [r3]
 7083 009a 1022     		movs	r2, #16
 7084 009c DA61     		str	r2, [r3, #28]
 7085 009e 0BE0     		b	.L355
 7086              	.L353:
 7087 00a0 0AE0     		b	.L355
 7088              	.L350:
3353:../../Drivers/STM32F7xx_HAL_Driver/Src/stm32f7xx_hal_i2c.c ****       }
3354:../../Drivers/STM32F7xx_HAL_Driver/Src/stm32f7xx_hal_i2c.c ****     }
3355:../../Drivers/STM32F7xx_HAL_Driver/Src/stm32f7xx_hal_i2c.c ****     else
3356:../../Drivers/STM32F7xx_HAL_Driver/Src/stm32f7xx_hal_i2c.c ****     {
3357:../../Drivers/STM32F7xx_HAL_Driver/Src/stm32f7xx_hal_i2c.c ****       /* if no, error use case, a Non-Acknowledge of last Data is generated by the MASTER*/
3358:../../Drivers/STM32F7xx_HAL_Driver/Src/stm32f7xx_hal_i2c.c ****       /* Clear NACK Flag */
3359:../../Drivers/STM32F7xx_HAL_Driver/Src/stm32f7xx_hal_i2c.c ****       __HAL_I2C_CLEAR_FLAG(hi2c, I2C_FLAG_AF);
 7089              		.loc 1 3359 0
 7090 00a2 FB68     		ldr	r3, [r7, #12]
 7091 00a4 1B68     		ldr	r3, [r3]
 7092 00a6 1022     		movs	r2, #16
 7093 00a8 DA61     		str	r2, [r3, #28]
3360:../../Drivers/STM32F7xx_HAL_Driver/Src/stm32f7xx_hal_i2c.c ****       
3361:../../Drivers/STM32F7xx_HAL_Driver/Src/stm32f7xx_hal_i2c.c ****       /* Set ErrorCode corresponding to a Non-Acknowledge */
3362:../../Drivers/STM32F7xx_HAL_Driver/Src/stm32f7xx_hal_i2c.c ****       hi2c->ErrorCode |= HAL_I2C_ERROR_AF;
 7094              		.loc 1 3362 0
ARM GAS  /tmp/cczIhzQ0.s 			page 183


 7095 00aa FB68     		ldr	r3, [r7, #12]
 7096 00ac 5B6C     		ldr	r3, [r3, #68]
 7097 00ae 43F00402 		orr	r2, r3, #4
 7098 00b2 FB68     		ldr	r3, [r7, #12]
 7099 00b4 5A64     		str	r2, [r3, #68]
3329:../../Drivers/STM32F7xx_HAL_Driver/Src/stm32f7xx_hal_i2c.c ****     {
 7100              		.loc 1 3329 0
 7101 00b6 76E0     		b	.L356
 7102              	.L355:
3329:../../Drivers/STM32F7xx_HAL_Driver/Src/stm32f7xx_hal_i2c.c ****     {
 7103              		.loc 1 3329 0 is_stmt 0 discriminator 1
 7104 00b8 75E0     		b	.L356
 7105              	.L349:
3363:../../Drivers/STM32F7xx_HAL_Driver/Src/stm32f7xx_hal_i2c.c ****     }
3364:../../Drivers/STM32F7xx_HAL_Driver/Src/stm32f7xx_hal_i2c.c ****   }
3365:../../Drivers/STM32F7xx_HAL_Driver/Src/stm32f7xx_hal_i2c.c ****   else if(((ITFlags & I2C_FLAG_RXNE) != RESET) && ((ITSources & I2C_IT_RXI) != RESET))
 7106              		.loc 1 3365 0 is_stmt 1
 7107 00ba BB68     		ldr	r3, [r7, #8]
 7108 00bc 03F00403 		and	r3, r3, #4
 7109 00c0 002B     		cmp	r3, #0
 7110 00c2 2FD0     		beq	.L357
 7111              		.loc 1 3365 0 is_stmt 0 discriminator 1
 7112 00c4 7B68     		ldr	r3, [r7, #4]
 7113 00c6 03F00403 		and	r3, r3, #4
 7114 00ca 002B     		cmp	r3, #0
 7115 00cc 2AD0     		beq	.L357
3366:../../Drivers/STM32F7xx_HAL_Driver/Src/stm32f7xx_hal_i2c.c ****   {
3367:../../Drivers/STM32F7xx_HAL_Driver/Src/stm32f7xx_hal_i2c.c ****     if(hi2c->XferCount > 0)
 7116              		.loc 1 3367 0 is_stmt 1
 7117 00ce FB68     		ldr	r3, [r7, #12]
 7118 00d0 5B8D     		ldrh	r3, [r3, #42]	@ movhi
 7119 00d2 9BB2     		uxth	r3, r3
 7120 00d4 002B     		cmp	r3, #0
 7121 00d6 16D0     		beq	.L358
3368:../../Drivers/STM32F7xx_HAL_Driver/Src/stm32f7xx_hal_i2c.c ****     {
3369:../../Drivers/STM32F7xx_HAL_Driver/Src/stm32f7xx_hal_i2c.c ****       /* Read data from RXDR */
3370:../../Drivers/STM32F7xx_HAL_Driver/Src/stm32f7xx_hal_i2c.c ****       (*hi2c->pBuffPtr++) = hi2c->Instance->RXDR;
 7122              		.loc 1 3370 0
 7123 00d8 FB68     		ldr	r3, [r7, #12]
 7124 00da 5B6A     		ldr	r3, [r3, #36]
 7125 00dc 591C     		adds	r1, r3, #1
 7126 00de FA68     		ldr	r2, [r7, #12]
 7127 00e0 5162     		str	r1, [r2, #36]
 7128 00e2 FA68     		ldr	r2, [r7, #12]
 7129 00e4 1268     		ldr	r2, [r2]
 7130 00e6 526A     		ldr	r2, [r2, #36]
 7131 00e8 D2B2     		uxtb	r2, r2
 7132 00ea 1A70     		strb	r2, [r3]
3371:../../Drivers/STM32F7xx_HAL_Driver/Src/stm32f7xx_hal_i2c.c ****       hi2c->XferSize--;
 7133              		.loc 1 3371 0
 7134 00ec FB68     		ldr	r3, [r7, #12]
 7135 00ee 1B8D     		ldrh	r3, [r3, #40]
 7136 00f0 013B     		subs	r3, r3, #1
 7137 00f2 9AB2     		uxth	r2, r3
 7138 00f4 FB68     		ldr	r3, [r7, #12]
 7139 00f6 1A85     		strh	r2, [r3, #40]	@ movhi
3372:../../Drivers/STM32F7xx_HAL_Driver/Src/stm32f7xx_hal_i2c.c ****       hi2c->XferCount--;
ARM GAS  /tmp/cczIhzQ0.s 			page 184


 7140              		.loc 1 3372 0
 7141 00f8 FB68     		ldr	r3, [r7, #12]
 7142 00fa 5B8D     		ldrh	r3, [r3, #42]	@ movhi
 7143 00fc 9BB2     		uxth	r3, r3
 7144 00fe 013B     		subs	r3, r3, #1
 7145 0100 9AB2     		uxth	r2, r3
 7146 0102 FB68     		ldr	r3, [r7, #12]
 7147 0104 5A85     		strh	r2, [r3, #42]	@ movhi
 7148              	.L358:
3373:../../Drivers/STM32F7xx_HAL_Driver/Src/stm32f7xx_hal_i2c.c ****     }
3374:../../Drivers/STM32F7xx_HAL_Driver/Src/stm32f7xx_hal_i2c.c ****     
3375:../../Drivers/STM32F7xx_HAL_Driver/Src/stm32f7xx_hal_i2c.c ****     if((hi2c->XferCount == 0) && \
 7149              		.loc 1 3375 0
 7150 0106 FB68     		ldr	r3, [r7, #12]
 7151 0108 5B8D     		ldrh	r3, [r3, #42]	@ movhi
 7152 010a 9BB2     		uxth	r3, r3
 7153 010c 002B     		cmp	r3, #0
 7154 010e 08D1     		bne	.L359
3376:../../Drivers/STM32F7xx_HAL_Driver/Src/stm32f7xx_hal_i2c.c ****        (hi2c->XferOptions != I2C_NO_OPTION_FRAME))
 7155              		.loc 1 3376 0 discriminator 1
 7156 0110 FB68     		ldr	r3, [r7, #12]
 7157 0112 DB6A     		ldr	r3, [r3, #44]
3375:../../Drivers/STM32F7xx_HAL_Driver/Src/stm32f7xx_hal_i2c.c ****        (hi2c->XferOptions != I2C_NO_OPTION_FRAME))
 7158              		.loc 1 3375 0 discriminator 1
 7159 0114 13F5803F 		cmn	r3, #65536
 7160 0118 03D0     		beq	.L359
3377:../../Drivers/STM32F7xx_HAL_Driver/Src/stm32f7xx_hal_i2c.c ****     {
3378:../../Drivers/STM32F7xx_HAL_Driver/Src/stm32f7xx_hal_i2c.c ****       /* Call I2C Slave Sequential complete process */
3379:../../Drivers/STM32F7xx_HAL_Driver/Src/stm32f7xx_hal_i2c.c ****       I2C_ITSlaveSequentialCplt(hi2c);
 7161              		.loc 1 3379 0
 7162 011a F868     		ldr	r0, [r7, #12]
 7163 011c FFF7FEFF 		bl	I2C_ITSlaveSequentialCplt
3375:../../Drivers/STM32F7xx_HAL_Driver/Src/stm32f7xx_hal_i2c.c ****        (hi2c->XferOptions != I2C_NO_OPTION_FRAME))
 7164              		.loc 1 3375 0
 7165 0120 41E0     		b	.L356
 7166              	.L359:
 7167 0122 40E0     		b	.L356
 7168              	.L357:
3380:../../Drivers/STM32F7xx_HAL_Driver/Src/stm32f7xx_hal_i2c.c ****    }
3381:../../Drivers/STM32F7xx_HAL_Driver/Src/stm32f7xx_hal_i2c.c ****   }
3382:../../Drivers/STM32F7xx_HAL_Driver/Src/stm32f7xx_hal_i2c.c ****   else if(((ITFlags & I2C_FLAG_ADDR) != RESET) && ((ITSources & I2C_IT_ADDRI) != RESET))
 7169              		.loc 1 3382 0
 7170 0124 BB68     		ldr	r3, [r7, #8]
 7171 0126 03F00803 		and	r3, r3, #8
 7172 012a 002B     		cmp	r3, #0
 7173 012c 09D0     		beq	.L360
 7174              		.loc 1 3382 0 is_stmt 0 discriminator 1
 7175 012e 7B68     		ldr	r3, [r7, #4]
 7176 0130 03F00803 		and	r3, r3, #8
 7177 0134 002B     		cmp	r3, #0
 7178 0136 04D0     		beq	.L360
3383:../../Drivers/STM32F7xx_HAL_Driver/Src/stm32f7xx_hal_i2c.c ****   {
3384:../../Drivers/STM32F7xx_HAL_Driver/Src/stm32f7xx_hal_i2c.c ****     I2C_ITAddrCplt(hi2c, ITFlags);
 7179              		.loc 1 3384 0 is_stmt 1
 7180 0138 F868     		ldr	r0, [r7, #12]
 7181 013a B968     		ldr	r1, [r7, #8]
 7182 013c FFF7FEFF 		bl	I2C_ITAddrCplt
ARM GAS  /tmp/cczIhzQ0.s 			page 185


 7183 0140 31E0     		b	.L356
 7184              	.L360:
3385:../../Drivers/STM32F7xx_HAL_Driver/Src/stm32f7xx_hal_i2c.c ****   }
3386:../../Drivers/STM32F7xx_HAL_Driver/Src/stm32f7xx_hal_i2c.c ****   else if(((ITFlags & I2C_FLAG_TXIS) != RESET) && ((ITSources & I2C_IT_TXI) != RESET))
 7185              		.loc 1 3386 0
 7186 0142 BB68     		ldr	r3, [r7, #8]
 7187 0144 03F00203 		and	r3, r3, #2
 7188 0148 002B     		cmp	r3, #0
 7189 014a 2CD0     		beq	.L356
 7190              		.loc 1 3386 0 is_stmt 0 discriminator 1
 7191 014c 7B68     		ldr	r3, [r7, #4]
 7192 014e 03F00203 		and	r3, r3, #2
 7193 0152 002B     		cmp	r3, #0
 7194 0154 27D0     		beq	.L356
3387:../../Drivers/STM32F7xx_HAL_Driver/Src/stm32f7xx_hal_i2c.c ****   {
3388:../../Drivers/STM32F7xx_HAL_Driver/Src/stm32f7xx_hal_i2c.c ****     /* Write data to TXDR only if XferCount not reach "0" */
3389:../../Drivers/STM32F7xx_HAL_Driver/Src/stm32f7xx_hal_i2c.c ****     /* A TXIS flag can be set, during STOP treatment      */
3390:../../Drivers/STM32F7xx_HAL_Driver/Src/stm32f7xx_hal_i2c.c ****     /* Check if all Datas have already been sent */
3391:../../Drivers/STM32F7xx_HAL_Driver/Src/stm32f7xx_hal_i2c.c ****     /* If it is the case, this last write in TXDR is not sent, correspond to a dummy TXIS event */
3392:../../Drivers/STM32F7xx_HAL_Driver/Src/stm32f7xx_hal_i2c.c ****     if(hi2c->XferCount > 0)
 7195              		.loc 1 3392 0 is_stmt 1
 7196 0156 FB68     		ldr	r3, [r7, #12]
 7197 0158 5B8D     		ldrh	r3, [r3, #42]	@ movhi
 7198 015a 9BB2     		uxth	r3, r3
 7199 015c 002B     		cmp	r3, #0
 7200 015e 16D0     		beq	.L361
3393:../../Drivers/STM32F7xx_HAL_Driver/Src/stm32f7xx_hal_i2c.c ****     {
3394:../../Drivers/STM32F7xx_HAL_Driver/Src/stm32f7xx_hal_i2c.c ****       /* Write data to TXDR */
3395:../../Drivers/STM32F7xx_HAL_Driver/Src/stm32f7xx_hal_i2c.c ****       hi2c->Instance->TXDR = (*hi2c->pBuffPtr++);
 7201              		.loc 1 3395 0
 7202 0160 FB68     		ldr	r3, [r7, #12]
 7203 0162 1A68     		ldr	r2, [r3]
 7204 0164 FB68     		ldr	r3, [r7, #12]
 7205 0166 5B6A     		ldr	r3, [r3, #36]
 7206 0168 581C     		adds	r0, r3, #1
 7207 016a F968     		ldr	r1, [r7, #12]
 7208 016c 4862     		str	r0, [r1, #36]
 7209 016e 1B78     		ldrb	r3, [r3]	@ zero_extendqisi2
 7210 0170 9362     		str	r3, [r2, #40]
3396:../../Drivers/STM32F7xx_HAL_Driver/Src/stm32f7xx_hal_i2c.c ****       hi2c->XferCount--;
 7211              		.loc 1 3396 0
 7212 0172 FB68     		ldr	r3, [r7, #12]
 7213 0174 5B8D     		ldrh	r3, [r3, #42]	@ movhi
 7214 0176 9BB2     		uxth	r3, r3
 7215 0178 013B     		subs	r3, r3, #1
 7216 017a 9AB2     		uxth	r2, r3
 7217 017c FB68     		ldr	r3, [r7, #12]
 7218 017e 5A85     		strh	r2, [r3, #42]	@ movhi
3397:../../Drivers/STM32F7xx_HAL_Driver/Src/stm32f7xx_hal_i2c.c ****       hi2c->XferSize--;
 7219              		.loc 1 3397 0
 7220 0180 FB68     		ldr	r3, [r7, #12]
 7221 0182 1B8D     		ldrh	r3, [r3, #40]
 7222 0184 013B     		subs	r3, r3, #1
 7223 0186 9AB2     		uxth	r2, r3
 7224 0188 FB68     		ldr	r3, [r7, #12]
 7225 018a 1A85     		strh	r2, [r3, #40]	@ movhi
 7226 018c 0BE0     		b	.L356
ARM GAS  /tmp/cczIhzQ0.s 			page 186


 7227              	.L361:
3398:../../Drivers/STM32F7xx_HAL_Driver/Src/stm32f7xx_hal_i2c.c ****     }
3399:../../Drivers/STM32F7xx_HAL_Driver/Src/stm32f7xx_hal_i2c.c ****     else
3400:../../Drivers/STM32F7xx_HAL_Driver/Src/stm32f7xx_hal_i2c.c ****     {
3401:../../Drivers/STM32F7xx_HAL_Driver/Src/stm32f7xx_hal_i2c.c ****       if((hi2c->XferOptions == I2C_NEXT_FRAME) || (hi2c->XferOptions == I2C_FIRST_FRAME))
 7228              		.loc 1 3401 0
 7229 018e FB68     		ldr	r3, [r7, #12]
 7230 0190 DB6A     		ldr	r3, [r3, #44]
 7231 0192 B3F1807F 		cmp	r3, #16777216
 7232 0196 03D0     		beq	.L362
 7233              		.loc 1 3401 0 is_stmt 0 discriminator 1
 7234 0198 FB68     		ldr	r3, [r7, #12]
 7235 019a DB6A     		ldr	r3, [r3, #44]
 7236 019c 002B     		cmp	r3, #0
 7237 019e 02D1     		bne	.L356
 7238              	.L362:
3402:../../Drivers/STM32F7xx_HAL_Driver/Src/stm32f7xx_hal_i2c.c ****       {
3403:../../Drivers/STM32F7xx_HAL_Driver/Src/stm32f7xx_hal_i2c.c ****         /* Last Byte is Transmitted */
3404:../../Drivers/STM32F7xx_HAL_Driver/Src/stm32f7xx_hal_i2c.c ****         /* Call I2C Slave Sequential complete process */
3405:../../Drivers/STM32F7xx_HAL_Driver/Src/stm32f7xx_hal_i2c.c ****         I2C_ITSlaveSequentialCplt(hi2c);
 7239              		.loc 1 3405 0 is_stmt 1
 7240 01a0 F868     		ldr	r0, [r7, #12]
 7241 01a2 FFF7FEFF 		bl	I2C_ITSlaveSequentialCplt
 7242              	.L356:
3406:../../Drivers/STM32F7xx_HAL_Driver/Src/stm32f7xx_hal_i2c.c ****       }
3407:../../Drivers/STM32F7xx_HAL_Driver/Src/stm32f7xx_hal_i2c.c ****     }
3408:../../Drivers/STM32F7xx_HAL_Driver/Src/stm32f7xx_hal_i2c.c ****   }
3409:../../Drivers/STM32F7xx_HAL_Driver/Src/stm32f7xx_hal_i2c.c ****   
3410:../../Drivers/STM32F7xx_HAL_Driver/Src/stm32f7xx_hal_i2c.c ****   /* Check if STOPF is set */
3411:../../Drivers/STM32F7xx_HAL_Driver/Src/stm32f7xx_hal_i2c.c ****   if(((ITFlags & I2C_FLAG_STOPF) != RESET) && ((ITSources & I2C_IT_STOPI) != RESET))
 7243              		.loc 1 3411 0
 7244 01a6 BB68     		ldr	r3, [r7, #8]
 7245 01a8 03F02003 		and	r3, r3, #32
 7246 01ac 002B     		cmp	r3, #0
 7247 01ae 08D0     		beq	.L363
 7248              		.loc 1 3411 0 is_stmt 0 discriminator 1
 7249 01b0 7B68     		ldr	r3, [r7, #4]
 7250 01b2 03F02003 		and	r3, r3, #32
 7251 01b6 002B     		cmp	r3, #0
 7252 01b8 03D0     		beq	.L363
3412:../../Drivers/STM32F7xx_HAL_Driver/Src/stm32f7xx_hal_i2c.c ****   {
3413:../../Drivers/STM32F7xx_HAL_Driver/Src/stm32f7xx_hal_i2c.c ****     /* Call I2C Slave complete process */
3414:../../Drivers/STM32F7xx_HAL_Driver/Src/stm32f7xx_hal_i2c.c ****     I2C_ITSlaveCplt(hi2c, ITFlags);
 7253              		.loc 1 3414 0 is_stmt 1
 7254 01ba F868     		ldr	r0, [r7, #12]
 7255 01bc B968     		ldr	r1, [r7, #8]
 7256 01be FFF7FEFF 		bl	I2C_ITSlaveCplt
 7257              	.L363:
3415:../../Drivers/STM32F7xx_HAL_Driver/Src/stm32f7xx_hal_i2c.c ****   }
3416:../../Drivers/STM32F7xx_HAL_Driver/Src/stm32f7xx_hal_i2c.c ****   
3417:../../Drivers/STM32F7xx_HAL_Driver/Src/stm32f7xx_hal_i2c.c ****   /* Process Unlocked */
3418:../../Drivers/STM32F7xx_HAL_Driver/Src/stm32f7xx_hal_i2c.c ****   __HAL_UNLOCK(hi2c);
 7258              		.loc 1 3418 0
 7259 01c2 FB68     		ldr	r3, [r7, #12]
 7260 01c4 0022     		movs	r2, #0
 7261 01c6 83F84020 		strb	r2, [r3, #64]
3419:../../Drivers/STM32F7xx_HAL_Driver/Src/stm32f7xx_hal_i2c.c **** 
ARM GAS  /tmp/cczIhzQ0.s 			page 187


3420:../../Drivers/STM32F7xx_HAL_Driver/Src/stm32f7xx_hal_i2c.c ****   return HAL_OK;
 7262              		.loc 1 3420 0
 7263 01ca 0023     		movs	r3, #0
 7264              	.L348:
3421:../../Drivers/STM32F7xx_HAL_Driver/Src/stm32f7xx_hal_i2c.c **** }
 7265              		.loc 1 3421 0
 7266 01cc 1846     		mov	r0, r3
 7267 01ce 1037     		adds	r7, r7, #16
 7268              	.LCFI248:
 7269              		.cfi_def_cfa_offset 8
 7270 01d0 BD46     		mov	sp, r7
 7271              	.LCFI249:
 7272              		.cfi_def_cfa_register 13
 7273              		@ sp needed
 7274 01d2 80BD     		pop	{r7, pc}
 7275              		.cfi_endproc
 7276              	.LFE181:
 7278              		.section	.text.I2C_Master_ISR_DMA,"ax",%progbits
 7279              		.align	2
 7280              		.thumb
 7281              		.thumb_func
 7283              	I2C_Master_ISR_DMA:
 7284              	.LFB182:
3422:../../Drivers/STM32F7xx_HAL_Driver/Src/stm32f7xx_hal_i2c.c **** 
3423:../../Drivers/STM32F7xx_HAL_Driver/Src/stm32f7xx_hal_i2c.c **** /**
3424:../../Drivers/STM32F7xx_HAL_Driver/Src/stm32f7xx_hal_i2c.c ****   * @brief  Interrupt Sub-Routine which handle the Interrupt Flags Master Mode with DMA.
3425:../../Drivers/STM32F7xx_HAL_Driver/Src/stm32f7xx_hal_i2c.c ****   * @param  hi2c: Pointer to a I2C_HandleTypeDef structure that contains
3426:../../Drivers/STM32F7xx_HAL_Driver/Src/stm32f7xx_hal_i2c.c ****   *               the configuration information for the specified I2C.
3427:../../Drivers/STM32F7xx_HAL_Driver/Src/stm32f7xx_hal_i2c.c ****   * @param  ITFlags: Interrupt flags to handle.
3428:../../Drivers/STM32F7xx_HAL_Driver/Src/stm32f7xx_hal_i2c.c ****   * @param  ITSources: Interrupt sources enabled.
3429:../../Drivers/STM32F7xx_HAL_Driver/Src/stm32f7xx_hal_i2c.c ****   * @retval HAL status
3430:../../Drivers/STM32F7xx_HAL_Driver/Src/stm32f7xx_hal_i2c.c ****   */
3431:../../Drivers/STM32F7xx_HAL_Driver/Src/stm32f7xx_hal_i2c.c **** static HAL_StatusTypeDef I2C_Master_ISR_DMA(struct __I2C_HandleTypeDef *hi2c, uint32_t ITFlags, uin
3432:../../Drivers/STM32F7xx_HAL_Driver/Src/stm32f7xx_hal_i2c.c **** {
 7285              		.loc 1 3432 0
 7286              		.cfi_startproc
 7287              		@ args = 0, pretend = 0, frame = 24
 7288              		@ frame_needed = 1, uses_anonymous_args = 0
 7289 0000 80B5     		push	{r7, lr}
 7290              	.LCFI250:
 7291              		.cfi_def_cfa_offset 8
 7292              		.cfi_offset 7, -8
 7293              		.cfi_offset 14, -4
 7294 0002 88B0     		sub	sp, sp, #32
 7295              	.LCFI251:
 7296              		.cfi_def_cfa_offset 40
 7297 0004 02AF     		add	r7, sp, #8
 7298              	.LCFI252:
 7299              		.cfi_def_cfa 7, 32
 7300 0006 F860     		str	r0, [r7, #12]
 7301 0008 B960     		str	r1, [r7, #8]
 7302 000a 7A60     		str	r2, [r7, #4]
3433:../../Drivers/STM32F7xx_HAL_Driver/Src/stm32f7xx_hal_i2c.c ****   uint16_t devaddress = 0;
 7303              		.loc 1 3433 0
 7304 000c 0023     		movs	r3, #0
 7305 000e 7B82     		strh	r3, [r7, #18]	@ movhi
3434:../../Drivers/STM32F7xx_HAL_Driver/Src/stm32f7xx_hal_i2c.c ****   uint32_t xfermode = 0;
ARM GAS  /tmp/cczIhzQ0.s 			page 188


 7306              		.loc 1 3434 0
 7307 0010 0023     		movs	r3, #0
 7308 0012 7B61     		str	r3, [r7, #20]
3435:../../Drivers/STM32F7xx_HAL_Driver/Src/stm32f7xx_hal_i2c.c ****   
3436:../../Drivers/STM32F7xx_HAL_Driver/Src/stm32f7xx_hal_i2c.c ****   /* Process Locked */
3437:../../Drivers/STM32F7xx_HAL_Driver/Src/stm32f7xx_hal_i2c.c ****   __HAL_LOCK(hi2c);
 7309              		.loc 1 3437 0
 7310 0014 FB68     		ldr	r3, [r7, #12]
 7311 0016 93F84030 		ldrb	r3, [r3, #64]	@ zero_extendqisi2
 7312 001a 012B     		cmp	r3, #1
 7313 001c 01D1     		bne	.L365
 7314              		.loc 1 3437 0 is_stmt 0 discriminator 1
 7315 001e 0223     		movs	r3, #2
 7316 0020 94E0     		b	.L366
 7317              	.L365:
 7318              		.loc 1 3437 0 discriminator 2
 7319 0022 FB68     		ldr	r3, [r7, #12]
 7320 0024 0122     		movs	r2, #1
 7321 0026 83F84020 		strb	r2, [r3, #64]
3438:../../Drivers/STM32F7xx_HAL_Driver/Src/stm32f7xx_hal_i2c.c ****   
3439:../../Drivers/STM32F7xx_HAL_Driver/Src/stm32f7xx_hal_i2c.c ****   if(((ITFlags & I2C_FLAG_AF) != RESET) && ((ITSources & I2C_IT_NACKI) != RESET))
 7322              		.loc 1 3439 0 is_stmt 1 discriminator 2
 7323 002a BB68     		ldr	r3, [r7, #8]
 7324 002c 03F01003 		and	r3, r3, #16
 7325 0030 002B     		cmp	r3, #0
 7326 0032 16D0     		beq	.L367
 7327              		.loc 1 3439 0 is_stmt 0 discriminator 1
 7328 0034 7B68     		ldr	r3, [r7, #4]
 7329 0036 03F01003 		and	r3, r3, #16
 7330 003a 002B     		cmp	r3, #0
 7331 003c 11D0     		beq	.L367
3440:../../Drivers/STM32F7xx_HAL_Driver/Src/stm32f7xx_hal_i2c.c ****   {
3441:../../Drivers/STM32F7xx_HAL_Driver/Src/stm32f7xx_hal_i2c.c ****     /* Clear NACK Flag */
3442:../../Drivers/STM32F7xx_HAL_Driver/Src/stm32f7xx_hal_i2c.c ****     __HAL_I2C_CLEAR_FLAG(hi2c, I2C_FLAG_AF);
 7332              		.loc 1 3442 0 is_stmt 1
 7333 003e FB68     		ldr	r3, [r7, #12]
 7334 0040 1B68     		ldr	r3, [r3]
 7335 0042 1022     		movs	r2, #16
 7336 0044 DA61     		str	r2, [r3, #28]
3443:../../Drivers/STM32F7xx_HAL_Driver/Src/stm32f7xx_hal_i2c.c ****     
3444:../../Drivers/STM32F7xx_HAL_Driver/Src/stm32f7xx_hal_i2c.c ****     /* Set corresponding Error Code */
3445:../../Drivers/STM32F7xx_HAL_Driver/Src/stm32f7xx_hal_i2c.c ****     hi2c->ErrorCode |= HAL_I2C_ERROR_AF;
 7337              		.loc 1 3445 0
 7338 0046 FB68     		ldr	r3, [r7, #12]
 7339 0048 5B6C     		ldr	r3, [r3, #68]
 7340 004a 43F00402 		orr	r2, r3, #4
 7341 004e FB68     		ldr	r3, [r7, #12]
 7342 0050 5A64     		str	r2, [r3, #68]
3446:../../Drivers/STM32F7xx_HAL_Driver/Src/stm32f7xx_hal_i2c.c ****     
3447:../../Drivers/STM32F7xx_HAL_Driver/Src/stm32f7xx_hal_i2c.c ****     /* No need to generate STOP, it is automatically done */
3448:../../Drivers/STM32F7xx_HAL_Driver/Src/stm32f7xx_hal_i2c.c ****     /* But enable STOP interrupt, to treat it */
3449:../../Drivers/STM32F7xx_HAL_Driver/Src/stm32f7xx_hal_i2c.c ****     /* Error callback will be send during stop flag treatment */
3450:../../Drivers/STM32F7xx_HAL_Driver/Src/stm32f7xx_hal_i2c.c ****     I2C_Enable_IRQ(hi2c, I2C_XFER_CPLT_IT);
 7343              		.loc 1 3450 0
 7344 0052 F868     		ldr	r0, [r7, #12]
 7345 0054 1221     		movs	r1, #18
 7346 0056 FFF7FEFF 		bl	I2C_Enable_IRQ
ARM GAS  /tmp/cczIhzQ0.s 			page 189


3451:../../Drivers/STM32F7xx_HAL_Driver/Src/stm32f7xx_hal_i2c.c ****     
3452:../../Drivers/STM32F7xx_HAL_Driver/Src/stm32f7xx_hal_i2c.c ****     /* Flush TX register */
3453:../../Drivers/STM32F7xx_HAL_Driver/Src/stm32f7xx_hal_i2c.c ****     I2C_Flush_TXDR(hi2c);
 7347              		.loc 1 3453 0
 7348 005a F868     		ldr	r0, [r7, #12]
 7349 005c FFF7FEFF 		bl	I2C_Flush_TXDR
 7350 0060 6FE0     		b	.L368
 7351              	.L367:
3454:../../Drivers/STM32F7xx_HAL_Driver/Src/stm32f7xx_hal_i2c.c ****   }
3455:../../Drivers/STM32F7xx_HAL_Driver/Src/stm32f7xx_hal_i2c.c ****   else if(((ITFlags & I2C_FLAG_TCR) != RESET) && ((ITSources & I2C_IT_TCI) != RESET))
 7352              		.loc 1 3455 0
 7353 0062 BB68     		ldr	r3, [r7, #8]
 7354 0064 03F08003 		and	r3, r3, #128
 7355 0068 002B     		cmp	r3, #0
 7356 006a 5CD0     		beq	.L369
 7357              		.loc 1 3455 0 is_stmt 0 discriminator 1
 7358 006c 7B68     		ldr	r3, [r7, #4]
 7359 006e 03F04003 		and	r3, r3, #64
 7360 0072 002B     		cmp	r3, #0
 7361 0074 57D0     		beq	.L369
3456:../../Drivers/STM32F7xx_HAL_Driver/Src/stm32f7xx_hal_i2c.c ****   {
3457:../../Drivers/STM32F7xx_HAL_Driver/Src/stm32f7xx_hal_i2c.c ****     /* Disable TC interrupt */
3458:../../Drivers/STM32F7xx_HAL_Driver/Src/stm32f7xx_hal_i2c.c ****     __HAL_I2C_DISABLE_IT(hi2c, I2C_IT_TCI);
 7362              		.loc 1 3458 0 is_stmt 1
 7363 0076 FB68     		ldr	r3, [r7, #12]
 7364 0078 1B68     		ldr	r3, [r3]
 7365 007a FA68     		ldr	r2, [r7, #12]
 7366 007c 1268     		ldr	r2, [r2]
 7367 007e 1268     		ldr	r2, [r2]
 7368 0080 22F04002 		bic	r2, r2, #64
 7369 0084 1A60     		str	r2, [r3]
3459:../../Drivers/STM32F7xx_HAL_Driver/Src/stm32f7xx_hal_i2c.c ****     
3460:../../Drivers/STM32F7xx_HAL_Driver/Src/stm32f7xx_hal_i2c.c ****     if(hi2c->XferCount != 0)
 7370              		.loc 1 3460 0
 7371 0086 FB68     		ldr	r3, [r7, #12]
 7372 0088 5B8D     		ldrh	r3, [r3, #42]	@ movhi
 7373 008a 9BB2     		uxth	r3, r3
 7374 008c 002B     		cmp	r3, #0
 7375 008e 45D0     		beq	.L370
3461:../../Drivers/STM32F7xx_HAL_Driver/Src/stm32f7xx_hal_i2c.c ****     {
3462:../../Drivers/STM32F7xx_HAL_Driver/Src/stm32f7xx_hal_i2c.c ****       /* Recover Slave address */
3463:../../Drivers/STM32F7xx_HAL_Driver/Src/stm32f7xx_hal_i2c.c ****       devaddress = (hi2c->Instance->CR2 & I2C_CR2_SADD);
 7376              		.loc 1 3463 0
 7377 0090 FB68     		ldr	r3, [r7, #12]
 7378 0092 1B68     		ldr	r3, [r3]
 7379 0094 5B68     		ldr	r3, [r3, #4]
 7380 0096 9BB2     		uxth	r3, r3
 7381 0098 C3F30903 		ubfx	r3, r3, #0, #10
 7382 009c 7B82     		strh	r3, [r7, #18]	@ movhi
3464:../../Drivers/STM32F7xx_HAL_Driver/Src/stm32f7xx_hal_i2c.c ****       
3465:../../Drivers/STM32F7xx_HAL_Driver/Src/stm32f7xx_hal_i2c.c ****       /* Prepare the new XferSize to transfer */
3466:../../Drivers/STM32F7xx_HAL_Driver/Src/stm32f7xx_hal_i2c.c ****       if(hi2c->XferCount > MAX_NBYTE_SIZE)
 7383              		.loc 1 3466 0
 7384 009e FB68     		ldr	r3, [r7, #12]
 7385 00a0 5B8D     		ldrh	r3, [r3, #42]	@ movhi
 7386 00a2 9BB2     		uxth	r3, r3
 7387 00a4 FF2B     		cmp	r3, #255
ARM GAS  /tmp/cczIhzQ0.s 			page 190


 7388 00a6 06D9     		bls	.L371
3467:../../Drivers/STM32F7xx_HAL_Driver/Src/stm32f7xx_hal_i2c.c ****       {
3468:../../Drivers/STM32F7xx_HAL_Driver/Src/stm32f7xx_hal_i2c.c ****         hi2c->XferSize = MAX_NBYTE_SIZE;
 7389              		.loc 1 3468 0
 7390 00a8 FB68     		ldr	r3, [r7, #12]
 7391 00aa FF22     		movs	r2, #255
 7392 00ac 1A85     		strh	r2, [r3, #40]	@ movhi
3469:../../Drivers/STM32F7xx_HAL_Driver/Src/stm32f7xx_hal_i2c.c ****         xfermode = I2C_RELOAD_MODE;
 7393              		.loc 1 3469 0
 7394 00ae 4FF08073 		mov	r3, #16777216
 7395 00b2 7B61     		str	r3, [r7, #20]
 7396 00b4 07E0     		b	.L372
 7397              	.L371:
3470:../../Drivers/STM32F7xx_HAL_Driver/Src/stm32f7xx_hal_i2c.c ****       }
3471:../../Drivers/STM32F7xx_HAL_Driver/Src/stm32f7xx_hal_i2c.c ****       else
3472:../../Drivers/STM32F7xx_HAL_Driver/Src/stm32f7xx_hal_i2c.c ****       {
3473:../../Drivers/STM32F7xx_HAL_Driver/Src/stm32f7xx_hal_i2c.c ****         hi2c->XferSize = hi2c->XferCount;
 7398              		.loc 1 3473 0
 7399 00b6 FB68     		ldr	r3, [r7, #12]
 7400 00b8 5B8D     		ldrh	r3, [r3, #42]	@ movhi
 7401 00ba 9AB2     		uxth	r2, r3
 7402 00bc FB68     		ldr	r3, [r7, #12]
 7403 00be 1A85     		strh	r2, [r3, #40]	@ movhi
3474:../../Drivers/STM32F7xx_HAL_Driver/Src/stm32f7xx_hal_i2c.c ****         xfermode = I2C_AUTOEND_MODE;
 7404              		.loc 1 3474 0
 7405 00c0 4FF00073 		mov	r3, #33554432
 7406 00c4 7B61     		str	r3, [r7, #20]
 7407              	.L372:
3475:../../Drivers/STM32F7xx_HAL_Driver/Src/stm32f7xx_hal_i2c.c ****       }
3476:../../Drivers/STM32F7xx_HAL_Driver/Src/stm32f7xx_hal_i2c.c ****       
3477:../../Drivers/STM32F7xx_HAL_Driver/Src/stm32f7xx_hal_i2c.c ****       /* Set the new XferSize in Nbytes register */
3478:../../Drivers/STM32F7xx_HAL_Driver/Src/stm32f7xx_hal_i2c.c ****       I2C_TransferConfig(hi2c, devaddress, hi2c->XferSize, xfermode, I2C_NO_STARTSTOP);
 7408              		.loc 1 3478 0
 7409 00c6 FB68     		ldr	r3, [r7, #12]
 7410 00c8 1B8D     		ldrh	r3, [r3, #40]
 7411 00ca DAB2     		uxtb	r2, r3
 7412 00cc 798A     		ldrh	r1, [r7, #18]
 7413 00ce 0023     		movs	r3, #0
 7414 00d0 0093     		str	r3, [sp]
 7415 00d2 F868     		ldr	r0, [r7, #12]
 7416 00d4 7B69     		ldr	r3, [r7, #20]
 7417 00d6 FFF7FEFF 		bl	I2C_TransferConfig
3479:../../Drivers/STM32F7xx_HAL_Driver/Src/stm32f7xx_hal_i2c.c ****       
3480:../../Drivers/STM32F7xx_HAL_Driver/Src/stm32f7xx_hal_i2c.c ****       /* Update XferCount value */
3481:../../Drivers/STM32F7xx_HAL_Driver/Src/stm32f7xx_hal_i2c.c ****       hi2c->XferCount -= hi2c->XferSize;
 7418              		.loc 1 3481 0
 7419 00da FB68     		ldr	r3, [r7, #12]
 7420 00dc 5B8D     		ldrh	r3, [r3, #42]	@ movhi
 7421 00de 9AB2     		uxth	r2, r3
 7422 00e0 FB68     		ldr	r3, [r7, #12]
 7423 00e2 1B8D     		ldrh	r3, [r3, #40]
 7424 00e4 D31A     		subs	r3, r2, r3
 7425 00e6 9AB2     		uxth	r2, r3
 7426 00e8 FB68     		ldr	r3, [r7, #12]
 7427 00ea 5A85     		strh	r2, [r3, #42]	@ movhi
3482:../../Drivers/STM32F7xx_HAL_Driver/Src/stm32f7xx_hal_i2c.c ****       
3483:../../Drivers/STM32F7xx_HAL_Driver/Src/stm32f7xx_hal_i2c.c ****       /* Enable DMA Request */
ARM GAS  /tmp/cczIhzQ0.s 			page 191


3484:../../Drivers/STM32F7xx_HAL_Driver/Src/stm32f7xx_hal_i2c.c ****       if(hi2c->State == HAL_I2C_STATE_BUSY_RX)
 7428              		.loc 1 3484 0
 7429 00ec FB68     		ldr	r3, [r7, #12]
 7430 00ee 93F84130 		ldrb	r3, [r3, #65]
 7431 00f2 DBB2     		uxtb	r3, r3
 7432 00f4 222B     		cmp	r3, #34
 7433 00f6 08D1     		bne	.L373
3485:../../Drivers/STM32F7xx_HAL_Driver/Src/stm32f7xx_hal_i2c.c ****       {
3486:../../Drivers/STM32F7xx_HAL_Driver/Src/stm32f7xx_hal_i2c.c ****         hi2c->Instance->CR1 |= I2C_CR1_RXDMAEN;
 7434              		.loc 1 3486 0
 7435 00f8 FB68     		ldr	r3, [r7, #12]
 7436 00fa 1B68     		ldr	r3, [r3]
 7437 00fc FA68     		ldr	r2, [r7, #12]
 7438 00fe 1268     		ldr	r2, [r2]
 7439 0100 1268     		ldr	r2, [r2]
 7440 0102 42F40042 		orr	r2, r2, #32768
 7441 0106 1A60     		str	r2, [r3]
3460:../../Drivers/STM32F7xx_HAL_Driver/Src/stm32f7xx_hal_i2c.c ****     {
 7442              		.loc 1 3460 0
 7443 0108 1BE0     		b	.L368
 7444              	.L373:
3487:../../Drivers/STM32F7xx_HAL_Driver/Src/stm32f7xx_hal_i2c.c ****       }
3488:../../Drivers/STM32F7xx_HAL_Driver/Src/stm32f7xx_hal_i2c.c ****       else
3489:../../Drivers/STM32F7xx_HAL_Driver/Src/stm32f7xx_hal_i2c.c ****       {
3490:../../Drivers/STM32F7xx_HAL_Driver/Src/stm32f7xx_hal_i2c.c ****         hi2c->Instance->CR1 |= I2C_CR1_TXDMAEN;
 7445              		.loc 1 3490 0
 7446 010a FB68     		ldr	r3, [r7, #12]
 7447 010c 1B68     		ldr	r3, [r3]
 7448 010e FA68     		ldr	r2, [r7, #12]
 7449 0110 1268     		ldr	r2, [r2]
 7450 0112 1268     		ldr	r2, [r2]
 7451 0114 42F48042 		orr	r2, r2, #16384
 7452 0118 1A60     		str	r2, [r3]
3460:../../Drivers/STM32F7xx_HAL_Driver/Src/stm32f7xx_hal_i2c.c ****     {
 7453              		.loc 1 3460 0
 7454 011a 12E0     		b	.L368
 7455              	.L370:
3491:../../Drivers/STM32F7xx_HAL_Driver/Src/stm32f7xx_hal_i2c.c ****       }
3492:../../Drivers/STM32F7xx_HAL_Driver/Src/stm32f7xx_hal_i2c.c ****     }
3493:../../Drivers/STM32F7xx_HAL_Driver/Src/stm32f7xx_hal_i2c.c ****     else
3494:../../Drivers/STM32F7xx_HAL_Driver/Src/stm32f7xx_hal_i2c.c ****     {
3495:../../Drivers/STM32F7xx_HAL_Driver/Src/stm32f7xx_hal_i2c.c ****       /* Wrong size Status regarding TCR flag event */
3496:../../Drivers/STM32F7xx_HAL_Driver/Src/stm32f7xx_hal_i2c.c ****       /* Call the corresponding callback to inform upper layer of End of Transfer */
3497:../../Drivers/STM32F7xx_HAL_Driver/Src/stm32f7xx_hal_i2c.c ****       I2C_ITError(hi2c, HAL_I2C_ERROR_SIZE);
 7456              		.loc 1 3497 0
 7457 011c F868     		ldr	r0, [r7, #12]
 7458 011e 4021     		movs	r1, #64
 7459 0120 FFF7FEFF 		bl	I2C_ITError
3460:../../Drivers/STM32F7xx_HAL_Driver/Src/stm32f7xx_hal_i2c.c ****     {
 7460              		.loc 1 3460 0
 7461 0124 0DE0     		b	.L368
 7462              	.L369:
3498:../../Drivers/STM32F7xx_HAL_Driver/Src/stm32f7xx_hal_i2c.c ****     }
3499:../../Drivers/STM32F7xx_HAL_Driver/Src/stm32f7xx_hal_i2c.c ****   }
3500:../../Drivers/STM32F7xx_HAL_Driver/Src/stm32f7xx_hal_i2c.c ****   else if(((ITFlags & I2C_FLAG_STOPF) != RESET) && ((ITSources & I2C_IT_STOPI) != RESET))
 7463              		.loc 1 3500 0
 7464 0126 BB68     		ldr	r3, [r7, #8]
ARM GAS  /tmp/cczIhzQ0.s 			page 192


 7465 0128 03F02003 		and	r3, r3, #32
 7466 012c 002B     		cmp	r3, #0
 7467 012e 08D0     		beq	.L368
 7468              		.loc 1 3500 0 is_stmt 0 discriminator 1
 7469 0130 7B68     		ldr	r3, [r7, #4]
 7470 0132 03F02003 		and	r3, r3, #32
 7471 0136 002B     		cmp	r3, #0
 7472 0138 03D0     		beq	.L368
3501:../../Drivers/STM32F7xx_HAL_Driver/Src/stm32f7xx_hal_i2c.c ****   {
3502:../../Drivers/STM32F7xx_HAL_Driver/Src/stm32f7xx_hal_i2c.c ****     /* Call I2C Master complete process */
3503:../../Drivers/STM32F7xx_HAL_Driver/Src/stm32f7xx_hal_i2c.c ****     I2C_ITMasterCplt(hi2c, ITFlags);
 7473              		.loc 1 3503 0 is_stmt 1
 7474 013a F868     		ldr	r0, [r7, #12]
 7475 013c B968     		ldr	r1, [r7, #8]
 7476 013e FFF7FEFF 		bl	I2C_ITMasterCplt
 7477              	.L368:
3504:../../Drivers/STM32F7xx_HAL_Driver/Src/stm32f7xx_hal_i2c.c ****   }
3505:../../Drivers/STM32F7xx_HAL_Driver/Src/stm32f7xx_hal_i2c.c ****   
3506:../../Drivers/STM32F7xx_HAL_Driver/Src/stm32f7xx_hal_i2c.c ****   /* Process Unlocked */
3507:../../Drivers/STM32F7xx_HAL_Driver/Src/stm32f7xx_hal_i2c.c ****   __HAL_UNLOCK(hi2c);
 7478              		.loc 1 3507 0
 7479 0142 FB68     		ldr	r3, [r7, #12]
 7480 0144 0022     		movs	r2, #0
 7481 0146 83F84020 		strb	r2, [r3, #64]
3508:../../Drivers/STM32F7xx_HAL_Driver/Src/stm32f7xx_hal_i2c.c **** 
3509:../../Drivers/STM32F7xx_HAL_Driver/Src/stm32f7xx_hal_i2c.c ****   return HAL_OK;
 7482              		.loc 1 3509 0
 7483 014a 0023     		movs	r3, #0
 7484              	.L366:
3510:../../Drivers/STM32F7xx_HAL_Driver/Src/stm32f7xx_hal_i2c.c **** }
 7485              		.loc 1 3510 0
 7486 014c 1846     		mov	r0, r3
 7487 014e 1837     		adds	r7, r7, #24
 7488              	.LCFI253:
 7489              		.cfi_def_cfa_offset 8
 7490 0150 BD46     		mov	sp, r7
 7491              	.LCFI254:
 7492              		.cfi_def_cfa_register 13
 7493              		@ sp needed
 7494 0152 80BD     		pop	{r7, pc}
 7495              		.cfi_endproc
 7496              	.LFE182:
 7498              		.section	.text.I2C_Slave_ISR_DMA,"ax",%progbits
 7499              		.align	2
 7500              		.thumb
 7501              		.thumb_func
 7503              	I2C_Slave_ISR_DMA:
 7504              	.LFB183:
3511:../../Drivers/STM32F7xx_HAL_Driver/Src/stm32f7xx_hal_i2c.c **** 
3512:../../Drivers/STM32F7xx_HAL_Driver/Src/stm32f7xx_hal_i2c.c **** /**
3513:../../Drivers/STM32F7xx_HAL_Driver/Src/stm32f7xx_hal_i2c.c ****   * @brief  Interrupt Sub-Routine which handle the Interrupt Flags Slave Mode with DMA.
3514:../../Drivers/STM32F7xx_HAL_Driver/Src/stm32f7xx_hal_i2c.c ****   * @param  hi2c: Pointer to a I2C_HandleTypeDef structure that contains
3515:../../Drivers/STM32F7xx_HAL_Driver/Src/stm32f7xx_hal_i2c.c ****   *               the configuration information for the specified I2C.
3516:../../Drivers/STM32F7xx_HAL_Driver/Src/stm32f7xx_hal_i2c.c ****   * @param  ITFlags: Interrupt flags to handle.
3517:../../Drivers/STM32F7xx_HAL_Driver/Src/stm32f7xx_hal_i2c.c ****   * @param  ITSources: Interrupt sources enabled.
3518:../../Drivers/STM32F7xx_HAL_Driver/Src/stm32f7xx_hal_i2c.c ****   * @retval HAL status
3519:../../Drivers/STM32F7xx_HAL_Driver/Src/stm32f7xx_hal_i2c.c ****   */
ARM GAS  /tmp/cczIhzQ0.s 			page 193


3520:../../Drivers/STM32F7xx_HAL_Driver/Src/stm32f7xx_hal_i2c.c **** static HAL_StatusTypeDef I2C_Slave_ISR_DMA(struct __I2C_HandleTypeDef *hi2c, uint32_t ITFlags, uint
3521:../../Drivers/STM32F7xx_HAL_Driver/Src/stm32f7xx_hal_i2c.c **** {
 7505              		.loc 1 3521 0
 7506              		.cfi_startproc
 7507              		@ args = 0, pretend = 0, frame = 16
 7508              		@ frame_needed = 1, uses_anonymous_args = 0
 7509 0000 80B5     		push	{r7, lr}
 7510              	.LCFI255:
 7511              		.cfi_def_cfa_offset 8
 7512              		.cfi_offset 7, -8
 7513              		.cfi_offset 14, -4
 7514 0002 84B0     		sub	sp, sp, #16
 7515              	.LCFI256:
 7516              		.cfi_def_cfa_offset 24
 7517 0004 00AF     		add	r7, sp, #0
 7518              	.LCFI257:
 7519              		.cfi_def_cfa_register 7
 7520 0006 F860     		str	r0, [r7, #12]
 7521 0008 B960     		str	r1, [r7, #8]
 7522 000a 7A60     		str	r2, [r7, #4]
3522:../../Drivers/STM32F7xx_HAL_Driver/Src/stm32f7xx_hal_i2c.c ****   /* Process locked */
3523:../../Drivers/STM32F7xx_HAL_Driver/Src/stm32f7xx_hal_i2c.c ****   __HAL_LOCK(hi2c);
 7523              		.loc 1 3523 0
 7524 000c FB68     		ldr	r3, [r7, #12]
 7525 000e 93F84030 		ldrb	r3, [r3, #64]	@ zero_extendqisi2
 7526 0012 012B     		cmp	r3, #1
 7527 0014 01D1     		bne	.L377
 7528              		.loc 1 3523 0 is_stmt 0 discriminator 1
 7529 0016 0223     		movs	r3, #2
 7530 0018 5AE0     		b	.L378
 7531              	.L377:
 7532              		.loc 1 3523 0 discriminator 2
 7533 001a FB68     		ldr	r3, [r7, #12]
 7534 001c 0122     		movs	r2, #1
 7535 001e 83F84020 		strb	r2, [r3, #64]
3524:../../Drivers/STM32F7xx_HAL_Driver/Src/stm32f7xx_hal_i2c.c ****   
3525:../../Drivers/STM32F7xx_HAL_Driver/Src/stm32f7xx_hal_i2c.c ****   if(((ITFlags & I2C_FLAG_AF) != RESET) && ((ITSources & I2C_IT_NACKI) != RESET))
 7536              		.loc 1 3525 0 is_stmt 1 discriminator 2
 7537 0022 BB68     		ldr	r3, [r7, #8]
 7538 0024 03F01003 		and	r3, r3, #16
 7539 0028 002B     		cmp	r3, #0
 7540 002a 2FD0     		beq	.L379
 7541              		.loc 1 3525 0 is_stmt 0 discriminator 1
 7542 002c 7B68     		ldr	r3, [r7, #4]
 7543 002e 03F01003 		and	r3, r3, #16
 7544 0032 002B     		cmp	r3, #0
 7545 0034 2AD0     		beq	.L379
3526:../../Drivers/STM32F7xx_HAL_Driver/Src/stm32f7xx_hal_i2c.c ****   {
3527:../../Drivers/STM32F7xx_HAL_Driver/Src/stm32f7xx_hal_i2c.c ****     /* Check that I2C transfer finished */
3528:../../Drivers/STM32F7xx_HAL_Driver/Src/stm32f7xx_hal_i2c.c ****     /* if yes, normal use case, a NACK is sent by the MASTER when Transfer is finished */
3529:../../Drivers/STM32F7xx_HAL_Driver/Src/stm32f7xx_hal_i2c.c ****     /* Mean XferCount == 0 */
3530:../../Drivers/STM32F7xx_HAL_Driver/Src/stm32f7xx_hal_i2c.c ****     /* So clear Flag NACKF only */
3531:../../Drivers/STM32F7xx_HAL_Driver/Src/stm32f7xx_hal_i2c.c ****     if(I2C_GET_DMA_REMAIN_DATA(hi2c) == 0)
 7546              		.loc 1 3531 0 is_stmt 1
 7547 0036 FB68     		ldr	r3, [r7, #12]
 7548 0038 93F84130 		ldrb	r3, [r3, #65]
 7549 003c DBB2     		uxtb	r3, r3
ARM GAS  /tmp/cczIhzQ0.s 			page 194


 7550 003e 212B     		cmp	r3, #33
 7551 0040 09D1     		bne	.L380
 7552              		.loc 1 3531 0 is_stmt 0 discriminator 1
 7553 0042 FB68     		ldr	r3, [r7, #12]
 7554 0044 9B6B     		ldr	r3, [r3, #56]
 7555 0046 1B68     		ldr	r3, [r3]
 7556 0048 5B68     		ldr	r3, [r3, #4]
 7557 004a 002B     		cmp	r3, #0
 7558 004c 0CBF     		ite	eq
 7559 004e 0123     		moveq	r3, #1
 7560 0050 0023     		movne	r3, #0
 7561 0052 DBB2     		uxtb	r3, r3
 7562 0054 08E0     		b	.L381
 7563              	.L380:
 7564              		.loc 1 3531 0 discriminator 2
 7565 0056 FB68     		ldr	r3, [r7, #12]
 7566 0058 DB6B     		ldr	r3, [r3, #60]
 7567 005a 1B68     		ldr	r3, [r3]
 7568 005c 5B68     		ldr	r3, [r3, #4]
 7569 005e 002B     		cmp	r3, #0
 7570 0060 0CBF     		ite	eq
 7571 0062 0123     		moveq	r3, #1
 7572 0064 0023     		movne	r3, #0
 7573 0066 DBB2     		uxtb	r3, r3
 7574              	.L381:
 7575              		.loc 1 3531 0 discriminator 4
 7576 0068 002B     		cmp	r3, #0
 7577 006a 04D0     		beq	.L382
3532:../../Drivers/STM32F7xx_HAL_Driver/Src/stm32f7xx_hal_i2c.c ****     {
3533:../../Drivers/STM32F7xx_HAL_Driver/Src/stm32f7xx_hal_i2c.c ****       /* Clear NACK Flag */
3534:../../Drivers/STM32F7xx_HAL_Driver/Src/stm32f7xx_hal_i2c.c ****       __HAL_I2C_CLEAR_FLAG(hi2c, I2C_FLAG_AF);
 7578              		.loc 1 3534 0 is_stmt 1
 7579 006c FB68     		ldr	r3, [r7, #12]
 7580 006e 1B68     		ldr	r3, [r3]
 7581 0070 1022     		movs	r2, #16
 7582 0072 DA61     		str	r2, [r3, #28]
3531:../../Drivers/STM32F7xx_HAL_Driver/Src/stm32f7xx_hal_i2c.c ****     {
 7583              		.loc 1 3531 0
 7584 0074 27E0     		b	.L384
 7585              	.L382:
3535:../../Drivers/STM32F7xx_HAL_Driver/Src/stm32f7xx_hal_i2c.c ****     }
3536:../../Drivers/STM32F7xx_HAL_Driver/Src/stm32f7xx_hal_i2c.c ****     else
3537:../../Drivers/STM32F7xx_HAL_Driver/Src/stm32f7xx_hal_i2c.c ****     {
3538:../../Drivers/STM32F7xx_HAL_Driver/Src/stm32f7xx_hal_i2c.c ****       /* if no, error use case, a Non-Acknowledge of last Data is generated by the MASTER*/
3539:../../Drivers/STM32F7xx_HAL_Driver/Src/stm32f7xx_hal_i2c.c ****       /* Clear NACK Flag */
3540:../../Drivers/STM32F7xx_HAL_Driver/Src/stm32f7xx_hal_i2c.c ****       __HAL_I2C_CLEAR_FLAG(hi2c, I2C_FLAG_AF);
 7586              		.loc 1 3540 0
 7587 0076 FB68     		ldr	r3, [r7, #12]
 7588 0078 1B68     		ldr	r3, [r3]
 7589 007a 1022     		movs	r2, #16
 7590 007c DA61     		str	r2, [r3, #28]
3541:../../Drivers/STM32F7xx_HAL_Driver/Src/stm32f7xx_hal_i2c.c ****       
3542:../../Drivers/STM32F7xx_HAL_Driver/Src/stm32f7xx_hal_i2c.c ****       /* Set ErrorCode corresponding to a Non-Acknowledge */
3543:../../Drivers/STM32F7xx_HAL_Driver/Src/stm32f7xx_hal_i2c.c ****       hi2c->ErrorCode |= HAL_I2C_ERROR_AF;
 7591              		.loc 1 3543 0
 7592 007e FB68     		ldr	r3, [r7, #12]
 7593 0080 5B6C     		ldr	r3, [r3, #68]
ARM GAS  /tmp/cczIhzQ0.s 			page 195


 7594 0082 43F00402 		orr	r2, r3, #4
 7595 0086 FB68     		ldr	r3, [r7, #12]
 7596 0088 5A64     		str	r2, [r3, #68]
3531:../../Drivers/STM32F7xx_HAL_Driver/Src/stm32f7xx_hal_i2c.c ****     {
 7597              		.loc 1 3531 0
 7598 008a 1CE0     		b	.L384
 7599              	.L379:
3544:../../Drivers/STM32F7xx_HAL_Driver/Src/stm32f7xx_hal_i2c.c ****     }
3545:../../Drivers/STM32F7xx_HAL_Driver/Src/stm32f7xx_hal_i2c.c ****   }
3546:../../Drivers/STM32F7xx_HAL_Driver/Src/stm32f7xx_hal_i2c.c ****   else if(((ITFlags & I2C_FLAG_ADDR) != RESET) && ((ITSources & I2C_IT_ADDRI) != RESET))
 7600              		.loc 1 3546 0
 7601 008c BB68     		ldr	r3, [r7, #8]
 7602 008e 03F00803 		and	r3, r3, #8
 7603 0092 002B     		cmp	r3, #0
 7604 0094 09D0     		beq	.L385
 7605              		.loc 1 3546 0 is_stmt 0 discriminator 1
 7606 0096 7B68     		ldr	r3, [r7, #4]
 7607 0098 03F00803 		and	r3, r3, #8
 7608 009c 002B     		cmp	r3, #0
 7609 009e 04D0     		beq	.L385
3547:../../Drivers/STM32F7xx_HAL_Driver/Src/stm32f7xx_hal_i2c.c ****   {
3548:../../Drivers/STM32F7xx_HAL_Driver/Src/stm32f7xx_hal_i2c.c ****     /* Clear ADDR flag */
3549:../../Drivers/STM32F7xx_HAL_Driver/Src/stm32f7xx_hal_i2c.c ****     __HAL_I2C_CLEAR_FLAG(hi2c, I2C_FLAG_ADDR);
 7610              		.loc 1 3549 0 is_stmt 1
 7611 00a0 FB68     		ldr	r3, [r7, #12]
 7612 00a2 1B68     		ldr	r3, [r3]
 7613 00a4 0822     		movs	r2, #8
 7614 00a6 DA61     		str	r2, [r3, #28]
 7615 00a8 0DE0     		b	.L384
 7616              	.L385:
3550:../../Drivers/STM32F7xx_HAL_Driver/Src/stm32f7xx_hal_i2c.c ****   }
3551:../../Drivers/STM32F7xx_HAL_Driver/Src/stm32f7xx_hal_i2c.c ****   else if(((ITFlags & I2C_FLAG_STOPF) != RESET) && ((ITSources & I2C_IT_STOPI) != RESET))
 7617              		.loc 1 3551 0
 7618 00aa BB68     		ldr	r3, [r7, #8]
 7619 00ac 03F02003 		and	r3, r3, #32
 7620 00b0 002B     		cmp	r3, #0
 7621 00b2 08D0     		beq	.L384
 7622              		.loc 1 3551 0 is_stmt 0 discriminator 1
 7623 00b4 7B68     		ldr	r3, [r7, #4]
 7624 00b6 03F02003 		and	r3, r3, #32
 7625 00ba 002B     		cmp	r3, #0
 7626 00bc 03D0     		beq	.L384
3552:../../Drivers/STM32F7xx_HAL_Driver/Src/stm32f7xx_hal_i2c.c ****   {
3553:../../Drivers/STM32F7xx_HAL_Driver/Src/stm32f7xx_hal_i2c.c ****     /* Call I2C Slave complete process */
3554:../../Drivers/STM32F7xx_HAL_Driver/Src/stm32f7xx_hal_i2c.c ****     I2C_ITSlaveCplt(hi2c, ITFlags);
 7627              		.loc 1 3554 0 is_stmt 1
 7628 00be F868     		ldr	r0, [r7, #12]
 7629 00c0 B968     		ldr	r1, [r7, #8]
 7630 00c2 FFF7FEFF 		bl	I2C_ITSlaveCplt
 7631              	.L384:
3555:../../Drivers/STM32F7xx_HAL_Driver/Src/stm32f7xx_hal_i2c.c ****   }
3556:../../Drivers/STM32F7xx_HAL_Driver/Src/stm32f7xx_hal_i2c.c **** 
3557:../../Drivers/STM32F7xx_HAL_Driver/Src/stm32f7xx_hal_i2c.c ****   /* Process Unlocked */
3558:../../Drivers/STM32F7xx_HAL_Driver/Src/stm32f7xx_hal_i2c.c ****   __HAL_UNLOCK(hi2c);
 7632              		.loc 1 3558 0
 7633 00c6 FB68     		ldr	r3, [r7, #12]
 7634 00c8 0022     		movs	r2, #0
ARM GAS  /tmp/cczIhzQ0.s 			page 196


 7635 00ca 83F84020 		strb	r2, [r3, #64]
3559:../../Drivers/STM32F7xx_HAL_Driver/Src/stm32f7xx_hal_i2c.c ****   
3560:../../Drivers/STM32F7xx_HAL_Driver/Src/stm32f7xx_hal_i2c.c ****   return HAL_OK;
 7636              		.loc 1 3560 0
 7637 00ce 0023     		movs	r3, #0
 7638              	.L378:
3561:../../Drivers/STM32F7xx_HAL_Driver/Src/stm32f7xx_hal_i2c.c **** }
 7639              		.loc 1 3561 0
 7640 00d0 1846     		mov	r0, r3
 7641 00d2 1037     		adds	r7, r7, #16
 7642              	.LCFI258:
 7643              		.cfi_def_cfa_offset 8
 7644 00d4 BD46     		mov	sp, r7
 7645              	.LCFI259:
 7646              		.cfi_def_cfa_register 13
 7647              		@ sp needed
 7648 00d6 80BD     		pop	{r7, pc}
 7649              		.cfi_endproc
 7650              	.LFE183:
 7652              		.section	.text.I2C_RequestMemoryWrite,"ax",%progbits
 7653              		.align	2
 7654              		.thumb
 7655              		.thumb_func
 7657              	I2C_RequestMemoryWrite:
 7658              	.LFB184:
3562:../../Drivers/STM32F7xx_HAL_Driver/Src/stm32f7xx_hal_i2c.c **** 
3563:../../Drivers/STM32F7xx_HAL_Driver/Src/stm32f7xx_hal_i2c.c **** /**
3564:../../Drivers/STM32F7xx_HAL_Driver/Src/stm32f7xx_hal_i2c.c ****   * @brief  Master sends target device address followed by internal memory address for write reques
3565:../../Drivers/STM32F7xx_HAL_Driver/Src/stm32f7xx_hal_i2c.c ****   * @param  hi2c: Pointer to a I2C_HandleTypeDef structure that contains
3566:../../Drivers/STM32F7xx_HAL_Driver/Src/stm32f7xx_hal_i2c.c ****   *               the configuration information for the specified I2C.
3567:../../Drivers/STM32F7xx_HAL_Driver/Src/stm32f7xx_hal_i2c.c ****   * @param  DevAddress: Target device address
3568:../../Drivers/STM32F7xx_HAL_Driver/Src/stm32f7xx_hal_i2c.c ****   * @param  MemAddress: Internal memory address
3569:../../Drivers/STM32F7xx_HAL_Driver/Src/stm32f7xx_hal_i2c.c ****   * @param  MemAddSize: Size of internal memory address
3570:../../Drivers/STM32F7xx_HAL_Driver/Src/stm32f7xx_hal_i2c.c ****   * @param  Timeout: Timeout duration
3571:../../Drivers/STM32F7xx_HAL_Driver/Src/stm32f7xx_hal_i2c.c ****   * @param  Tickstart Tick start value
3572:../../Drivers/STM32F7xx_HAL_Driver/Src/stm32f7xx_hal_i2c.c ****   * @retval HAL status
3573:../../Drivers/STM32F7xx_HAL_Driver/Src/stm32f7xx_hal_i2c.c ****   */
3574:../../Drivers/STM32F7xx_HAL_Driver/Src/stm32f7xx_hal_i2c.c **** static HAL_StatusTypeDef I2C_RequestMemoryWrite(I2C_HandleTypeDef *hi2c, uint16_t DevAddress, uint1
3575:../../Drivers/STM32F7xx_HAL_Driver/Src/stm32f7xx_hal_i2c.c **** {
 7659              		.loc 1 3575 0
 7660              		.cfi_startproc
 7661              		@ args = 8, pretend = 0, frame = 16
 7662              		@ frame_needed = 1, uses_anonymous_args = 0
 7663 0000 80B5     		push	{r7, lr}
 7664              	.LCFI260:
 7665              		.cfi_def_cfa_offset 8
 7666              		.cfi_offset 7, -8
 7667              		.cfi_offset 14, -4
 7668 0002 86B0     		sub	sp, sp, #24
 7669              	.LCFI261:
 7670              		.cfi_def_cfa_offset 32
 7671 0004 02AF     		add	r7, sp, #8
 7672              	.LCFI262:
 7673              		.cfi_def_cfa 7, 24
 7674 0006 F860     		str	r0, [r7, #12]
 7675 0008 0846     		mov	r0, r1
 7676 000a 1146     		mov	r1, r2
ARM GAS  /tmp/cczIhzQ0.s 			page 197


 7677 000c 1A46     		mov	r2, r3
 7678 000e 0346     		mov	r3, r0	@ movhi
 7679 0010 7B81     		strh	r3, [r7, #10]	@ movhi
 7680 0012 0B46     		mov	r3, r1	@ movhi
 7681 0014 3B81     		strh	r3, [r7, #8]	@ movhi
 7682 0016 1346     		mov	r3, r2	@ movhi
 7683 0018 FB80     		strh	r3, [r7, #6]	@ movhi
3576:../../Drivers/STM32F7xx_HAL_Driver/Src/stm32f7xx_hal_i2c.c ****   I2C_TransferConfig(hi2c,DevAddress,MemAddSize, I2C_RELOAD_MODE, I2C_GENERATE_START_WRITE);
 7684              		.loc 1 3576 0
 7685 001a FB88     		ldrh	r3, [r7, #6]	@ movhi
 7686 001c DAB2     		uxtb	r2, r3
 7687 001e 7989     		ldrh	r1, [r7, #10]
 7688 0020 4FF40053 		mov	r3, #8192
 7689 0024 0093     		str	r3, [sp]
 7690 0026 F868     		ldr	r0, [r7, #12]
 7691 0028 4FF08073 		mov	r3, #16777216
 7692 002c FFF7FEFF 		bl	I2C_TransferConfig
3577:../../Drivers/STM32F7xx_HAL_Driver/Src/stm32f7xx_hal_i2c.c ****   
3578:../../Drivers/STM32F7xx_HAL_Driver/Src/stm32f7xx_hal_i2c.c ****   /* Wait until TXIS flag is set */
3579:../../Drivers/STM32F7xx_HAL_Driver/Src/stm32f7xx_hal_i2c.c ****   if(I2C_WaitOnTXISFlagUntilTimeout(hi2c, Timeout, Tickstart) != HAL_OK)
 7693              		.loc 1 3579 0
 7694 0030 F868     		ldr	r0, [r7, #12]
 7695 0032 B969     		ldr	r1, [r7, #24]
 7696 0034 FA69     		ldr	r2, [r7, #28]
 7697 0036 FFF7FEFF 		bl	I2C_WaitOnTXISFlagUntilTimeout
 7698 003a 0346     		mov	r3, r0
 7699 003c 002B     		cmp	r3, #0
 7700 003e 07D0     		beq	.L387
3580:../../Drivers/STM32F7xx_HAL_Driver/Src/stm32f7xx_hal_i2c.c ****   {
3581:../../Drivers/STM32F7xx_HAL_Driver/Src/stm32f7xx_hal_i2c.c ****     if(hi2c->ErrorCode == HAL_I2C_ERROR_AF)
 7701              		.loc 1 3581 0
 7702 0040 FB68     		ldr	r3, [r7, #12]
 7703 0042 5B6C     		ldr	r3, [r3, #68]
 7704 0044 042B     		cmp	r3, #4
 7705 0046 01D1     		bne	.L388
3582:../../Drivers/STM32F7xx_HAL_Driver/Src/stm32f7xx_hal_i2c.c ****     {
3583:../../Drivers/STM32F7xx_HAL_Driver/Src/stm32f7xx_hal_i2c.c ****       return HAL_ERROR;
 7706              		.loc 1 3583 0
 7707 0048 0123     		movs	r3, #1
 7708 004a 34E0     		b	.L389
 7709              	.L388:
3584:../../Drivers/STM32F7xx_HAL_Driver/Src/stm32f7xx_hal_i2c.c ****     }
3585:../../Drivers/STM32F7xx_HAL_Driver/Src/stm32f7xx_hal_i2c.c ****     else
3586:../../Drivers/STM32F7xx_HAL_Driver/Src/stm32f7xx_hal_i2c.c ****     {
3587:../../Drivers/STM32F7xx_HAL_Driver/Src/stm32f7xx_hal_i2c.c ****       return HAL_TIMEOUT;
 7710              		.loc 1 3587 0
 7711 004c 0323     		movs	r3, #3
 7712 004e 32E0     		b	.L389
 7713              	.L387:
3588:../../Drivers/STM32F7xx_HAL_Driver/Src/stm32f7xx_hal_i2c.c ****     }
3589:../../Drivers/STM32F7xx_HAL_Driver/Src/stm32f7xx_hal_i2c.c ****   }
3590:../../Drivers/STM32F7xx_HAL_Driver/Src/stm32f7xx_hal_i2c.c ****   
3591:../../Drivers/STM32F7xx_HAL_Driver/Src/stm32f7xx_hal_i2c.c ****   /* If Memory address size is 8Bit */
3592:../../Drivers/STM32F7xx_HAL_Driver/Src/stm32f7xx_hal_i2c.c ****   if(MemAddSize == I2C_MEMADD_SIZE_8BIT)
 7714              		.loc 1 3592 0
 7715 0050 FB88     		ldrh	r3, [r7, #6]
 7716 0052 012B     		cmp	r3, #1
ARM GAS  /tmp/cczIhzQ0.s 			page 198


 7717 0054 05D1     		bne	.L390
3593:../../Drivers/STM32F7xx_HAL_Driver/Src/stm32f7xx_hal_i2c.c ****   {
3594:../../Drivers/STM32F7xx_HAL_Driver/Src/stm32f7xx_hal_i2c.c ****     /* Send Memory Address */
3595:../../Drivers/STM32F7xx_HAL_Driver/Src/stm32f7xx_hal_i2c.c ****     hi2c->Instance->TXDR = I2C_MEM_ADD_LSB(MemAddress);
 7718              		.loc 1 3595 0
 7719 0056 FB68     		ldr	r3, [r7, #12]
 7720 0058 1B68     		ldr	r3, [r3]
 7721 005a 3A89     		ldrh	r2, [r7, #8]	@ movhi
 7722 005c D2B2     		uxtb	r2, r2
 7723 005e 9A62     		str	r2, [r3, #40]
 7724 0060 1BE0     		b	.L391
 7725              	.L390:
3596:../../Drivers/STM32F7xx_HAL_Driver/Src/stm32f7xx_hal_i2c.c ****   }
3597:../../Drivers/STM32F7xx_HAL_Driver/Src/stm32f7xx_hal_i2c.c ****   /* If Memory address size is 16Bit */
3598:../../Drivers/STM32F7xx_HAL_Driver/Src/stm32f7xx_hal_i2c.c ****   else
3599:../../Drivers/STM32F7xx_HAL_Driver/Src/stm32f7xx_hal_i2c.c ****   {
3600:../../Drivers/STM32F7xx_HAL_Driver/Src/stm32f7xx_hal_i2c.c ****     /* Send MSB of Memory Address */
3601:../../Drivers/STM32F7xx_HAL_Driver/Src/stm32f7xx_hal_i2c.c ****     hi2c->Instance->TXDR = I2C_MEM_ADD_MSB(MemAddress);
 7726              		.loc 1 3601 0
 7727 0062 FB68     		ldr	r3, [r7, #12]
 7728 0064 1B68     		ldr	r3, [r3]
 7729 0066 3A89     		ldrh	r2, [r7, #8]
 7730 0068 120A     		lsrs	r2, r2, #8
 7731 006a 92B2     		uxth	r2, r2
 7732 006c D2B2     		uxtb	r2, r2
 7733 006e 9A62     		str	r2, [r3, #40]
3602:../../Drivers/STM32F7xx_HAL_Driver/Src/stm32f7xx_hal_i2c.c ****     
3603:../../Drivers/STM32F7xx_HAL_Driver/Src/stm32f7xx_hal_i2c.c ****     /* Wait until TXIS flag is set */
3604:../../Drivers/STM32F7xx_HAL_Driver/Src/stm32f7xx_hal_i2c.c ****     if(I2C_WaitOnTXISFlagUntilTimeout(hi2c, Timeout, Tickstart) != HAL_OK)
 7734              		.loc 1 3604 0
 7735 0070 F868     		ldr	r0, [r7, #12]
 7736 0072 B969     		ldr	r1, [r7, #24]
 7737 0074 FA69     		ldr	r2, [r7, #28]
 7738 0076 FFF7FEFF 		bl	I2C_WaitOnTXISFlagUntilTimeout
 7739 007a 0346     		mov	r3, r0
 7740 007c 002B     		cmp	r3, #0
 7741 007e 07D0     		beq	.L392
3605:../../Drivers/STM32F7xx_HAL_Driver/Src/stm32f7xx_hal_i2c.c ****     {
3606:../../Drivers/STM32F7xx_HAL_Driver/Src/stm32f7xx_hal_i2c.c ****       if(hi2c->ErrorCode == HAL_I2C_ERROR_AF)
 7742              		.loc 1 3606 0
 7743 0080 FB68     		ldr	r3, [r7, #12]
 7744 0082 5B6C     		ldr	r3, [r3, #68]
 7745 0084 042B     		cmp	r3, #4
 7746 0086 01D1     		bne	.L393
3607:../../Drivers/STM32F7xx_HAL_Driver/Src/stm32f7xx_hal_i2c.c ****       {
3608:../../Drivers/STM32F7xx_HAL_Driver/Src/stm32f7xx_hal_i2c.c ****         return HAL_ERROR;
 7747              		.loc 1 3608 0
 7748 0088 0123     		movs	r3, #1
 7749 008a 14E0     		b	.L389
 7750              	.L393:
3609:../../Drivers/STM32F7xx_HAL_Driver/Src/stm32f7xx_hal_i2c.c ****       }
3610:../../Drivers/STM32F7xx_HAL_Driver/Src/stm32f7xx_hal_i2c.c ****       else
3611:../../Drivers/STM32F7xx_HAL_Driver/Src/stm32f7xx_hal_i2c.c ****       {
3612:../../Drivers/STM32F7xx_HAL_Driver/Src/stm32f7xx_hal_i2c.c ****         return HAL_TIMEOUT;
 7751              		.loc 1 3612 0
 7752 008c 0323     		movs	r3, #3
 7753 008e 12E0     		b	.L389
ARM GAS  /tmp/cczIhzQ0.s 			page 199


 7754              	.L392:
3613:../../Drivers/STM32F7xx_HAL_Driver/Src/stm32f7xx_hal_i2c.c ****       }
3614:../../Drivers/STM32F7xx_HAL_Driver/Src/stm32f7xx_hal_i2c.c ****     }
3615:../../Drivers/STM32F7xx_HAL_Driver/Src/stm32f7xx_hal_i2c.c ****     
3616:../../Drivers/STM32F7xx_HAL_Driver/Src/stm32f7xx_hal_i2c.c ****     /* Send LSB of Memory Address */
3617:../../Drivers/STM32F7xx_HAL_Driver/Src/stm32f7xx_hal_i2c.c ****     hi2c->Instance->TXDR = I2C_MEM_ADD_LSB(MemAddress);
 7755              		.loc 1 3617 0
 7756 0090 FB68     		ldr	r3, [r7, #12]
 7757 0092 1B68     		ldr	r3, [r3]
 7758 0094 3A89     		ldrh	r2, [r7, #8]	@ movhi
 7759 0096 D2B2     		uxtb	r2, r2
 7760 0098 9A62     		str	r2, [r3, #40]
 7761              	.L391:
3618:../../Drivers/STM32F7xx_HAL_Driver/Src/stm32f7xx_hal_i2c.c ****   }
3619:../../Drivers/STM32F7xx_HAL_Driver/Src/stm32f7xx_hal_i2c.c ****   
3620:../../Drivers/STM32F7xx_HAL_Driver/Src/stm32f7xx_hal_i2c.c ****   /* Wait until TCR flag is set */
3621:../../Drivers/STM32F7xx_HAL_Driver/Src/stm32f7xx_hal_i2c.c ****   if(I2C_WaitOnFlagUntilTimeout(hi2c, I2C_FLAG_TCR, RESET, Timeout, Tickstart) != HAL_OK)
 7762              		.loc 1 3621 0
 7763 009a FB69     		ldr	r3, [r7, #28]
 7764 009c 0093     		str	r3, [sp]
 7765 009e F868     		ldr	r0, [r7, #12]
 7766 00a0 8021     		movs	r1, #128
 7767 00a2 0022     		movs	r2, #0
 7768 00a4 BB69     		ldr	r3, [r7, #24]
 7769 00a6 FFF7FEFF 		bl	I2C_WaitOnFlagUntilTimeout
 7770 00aa 0346     		mov	r3, r0
 7771 00ac 002B     		cmp	r3, #0
 7772 00ae 01D0     		beq	.L394
3622:../../Drivers/STM32F7xx_HAL_Driver/Src/stm32f7xx_hal_i2c.c ****   {
3623:../../Drivers/STM32F7xx_HAL_Driver/Src/stm32f7xx_hal_i2c.c ****     return HAL_TIMEOUT;
 7773              		.loc 1 3623 0
 7774 00b0 0323     		movs	r3, #3
 7775 00b2 00E0     		b	.L389
 7776              	.L394:
3624:../../Drivers/STM32F7xx_HAL_Driver/Src/stm32f7xx_hal_i2c.c ****   }
3625:../../Drivers/STM32F7xx_HAL_Driver/Src/stm32f7xx_hal_i2c.c ****   
3626:../../Drivers/STM32F7xx_HAL_Driver/Src/stm32f7xx_hal_i2c.c **** return HAL_OK;
 7777              		.loc 1 3626 0
 7778 00b4 0023     		movs	r3, #0
 7779              	.L389:
3627:../../Drivers/STM32F7xx_HAL_Driver/Src/stm32f7xx_hal_i2c.c **** }
 7780              		.loc 1 3627 0
 7781 00b6 1846     		mov	r0, r3
 7782 00b8 1037     		adds	r7, r7, #16
 7783              	.LCFI263:
 7784              		.cfi_def_cfa_offset 8
 7785 00ba BD46     		mov	sp, r7
 7786              	.LCFI264:
 7787              		.cfi_def_cfa_register 13
 7788              		@ sp needed
 7789 00bc 80BD     		pop	{r7, pc}
 7790              		.cfi_endproc
 7791              	.LFE184:
 7793 00be 00BF     		.section	.text.I2C_RequestMemoryRead,"ax",%progbits
 7794              		.align	2
 7795              		.thumb
 7796              		.thumb_func
ARM GAS  /tmp/cczIhzQ0.s 			page 200


 7798              	I2C_RequestMemoryRead:
 7799              	.LFB185:
3628:../../Drivers/STM32F7xx_HAL_Driver/Src/stm32f7xx_hal_i2c.c **** 
3629:../../Drivers/STM32F7xx_HAL_Driver/Src/stm32f7xx_hal_i2c.c **** /**
3630:../../Drivers/STM32F7xx_HAL_Driver/Src/stm32f7xx_hal_i2c.c ****   * @brief  Master sends target device address followed by internal memory address for read request
3631:../../Drivers/STM32F7xx_HAL_Driver/Src/stm32f7xx_hal_i2c.c ****   * @param  hi2c: Pointer to a I2C_HandleTypeDef structure that contains
3632:../../Drivers/STM32F7xx_HAL_Driver/Src/stm32f7xx_hal_i2c.c ****   *               the configuration information for the specified I2C.
3633:../../Drivers/STM32F7xx_HAL_Driver/Src/stm32f7xx_hal_i2c.c ****   * @param  DevAddress: Target device address
3634:../../Drivers/STM32F7xx_HAL_Driver/Src/stm32f7xx_hal_i2c.c ****   * @param  MemAddress: Internal memory address
3635:../../Drivers/STM32F7xx_HAL_Driver/Src/stm32f7xx_hal_i2c.c ****   * @param  MemAddSize: Size of internal memory address
3636:../../Drivers/STM32F7xx_HAL_Driver/Src/stm32f7xx_hal_i2c.c ****   * @param  Timeout: Timeout duration
3637:../../Drivers/STM32F7xx_HAL_Driver/Src/stm32f7xx_hal_i2c.c ****   * @param  Tickstart Tick start value
3638:../../Drivers/STM32F7xx_HAL_Driver/Src/stm32f7xx_hal_i2c.c ****   * @retval HAL status
3639:../../Drivers/STM32F7xx_HAL_Driver/Src/stm32f7xx_hal_i2c.c ****   */
3640:../../Drivers/STM32F7xx_HAL_Driver/Src/stm32f7xx_hal_i2c.c **** static HAL_StatusTypeDef I2C_RequestMemoryRead(I2C_HandleTypeDef *hi2c, uint16_t DevAddress, uint16
3641:../../Drivers/STM32F7xx_HAL_Driver/Src/stm32f7xx_hal_i2c.c **** {
 7800              		.loc 1 3641 0
 7801              		.cfi_startproc
 7802              		@ args = 8, pretend = 0, frame = 16
 7803              		@ frame_needed = 1, uses_anonymous_args = 0
 7804 0000 80B5     		push	{r7, lr}
 7805              	.LCFI265:
 7806              		.cfi_def_cfa_offset 8
 7807              		.cfi_offset 7, -8
 7808              		.cfi_offset 14, -4
 7809 0002 86B0     		sub	sp, sp, #24
 7810              	.LCFI266:
 7811              		.cfi_def_cfa_offset 32
 7812 0004 02AF     		add	r7, sp, #8
 7813              	.LCFI267:
 7814              		.cfi_def_cfa 7, 24
 7815 0006 F860     		str	r0, [r7, #12]
 7816 0008 0846     		mov	r0, r1
 7817 000a 1146     		mov	r1, r2
 7818 000c 1A46     		mov	r2, r3
 7819 000e 0346     		mov	r3, r0	@ movhi
 7820 0010 7B81     		strh	r3, [r7, #10]	@ movhi
 7821 0012 0B46     		mov	r3, r1	@ movhi
 7822 0014 3B81     		strh	r3, [r7, #8]	@ movhi
 7823 0016 1346     		mov	r3, r2	@ movhi
 7824 0018 FB80     		strh	r3, [r7, #6]	@ movhi
3642:../../Drivers/STM32F7xx_HAL_Driver/Src/stm32f7xx_hal_i2c.c ****   I2C_TransferConfig(hi2c,DevAddress,MemAddSize, I2C_SOFTEND_MODE, I2C_GENERATE_START_WRITE);
 7825              		.loc 1 3642 0
 7826 001a FB88     		ldrh	r3, [r7, #6]	@ movhi
 7827 001c DAB2     		uxtb	r2, r3
 7828 001e 7989     		ldrh	r1, [r7, #10]
 7829 0020 4FF40053 		mov	r3, #8192
 7830 0024 0093     		str	r3, [sp]
 7831 0026 F868     		ldr	r0, [r7, #12]
 7832 0028 0023     		movs	r3, #0
 7833 002a FFF7FEFF 		bl	I2C_TransferConfig
3643:../../Drivers/STM32F7xx_HAL_Driver/Src/stm32f7xx_hal_i2c.c ****   
3644:../../Drivers/STM32F7xx_HAL_Driver/Src/stm32f7xx_hal_i2c.c ****   /* Wait until TXIS flag is set */
3645:../../Drivers/STM32F7xx_HAL_Driver/Src/stm32f7xx_hal_i2c.c ****   if(I2C_WaitOnTXISFlagUntilTimeout(hi2c, Timeout, Tickstart) != HAL_OK)
 7834              		.loc 1 3645 0
 7835 002e F868     		ldr	r0, [r7, #12]
 7836 0030 B969     		ldr	r1, [r7, #24]
ARM GAS  /tmp/cczIhzQ0.s 			page 201


 7837 0032 FA69     		ldr	r2, [r7, #28]
 7838 0034 FFF7FEFF 		bl	I2C_WaitOnTXISFlagUntilTimeout
 7839 0038 0346     		mov	r3, r0
 7840 003a 002B     		cmp	r3, #0
 7841 003c 07D0     		beq	.L396
3646:../../Drivers/STM32F7xx_HAL_Driver/Src/stm32f7xx_hal_i2c.c ****   {
3647:../../Drivers/STM32F7xx_HAL_Driver/Src/stm32f7xx_hal_i2c.c ****     if(hi2c->ErrorCode == HAL_I2C_ERROR_AF)
 7842              		.loc 1 3647 0
 7843 003e FB68     		ldr	r3, [r7, #12]
 7844 0040 5B6C     		ldr	r3, [r3, #68]
 7845 0042 042B     		cmp	r3, #4
 7846 0044 01D1     		bne	.L397
3648:../../Drivers/STM32F7xx_HAL_Driver/Src/stm32f7xx_hal_i2c.c ****     {
3649:../../Drivers/STM32F7xx_HAL_Driver/Src/stm32f7xx_hal_i2c.c ****       return HAL_ERROR;
 7847              		.loc 1 3649 0
 7848 0046 0123     		movs	r3, #1
 7849 0048 34E0     		b	.L398
 7850              	.L397:
3650:../../Drivers/STM32F7xx_HAL_Driver/Src/stm32f7xx_hal_i2c.c ****     }
3651:../../Drivers/STM32F7xx_HAL_Driver/Src/stm32f7xx_hal_i2c.c ****     else
3652:../../Drivers/STM32F7xx_HAL_Driver/Src/stm32f7xx_hal_i2c.c ****     {
3653:../../Drivers/STM32F7xx_HAL_Driver/Src/stm32f7xx_hal_i2c.c ****       return HAL_TIMEOUT;
 7851              		.loc 1 3653 0
 7852 004a 0323     		movs	r3, #3
 7853 004c 32E0     		b	.L398
 7854              	.L396:
3654:../../Drivers/STM32F7xx_HAL_Driver/Src/stm32f7xx_hal_i2c.c ****     }
3655:../../Drivers/STM32F7xx_HAL_Driver/Src/stm32f7xx_hal_i2c.c ****   }
3656:../../Drivers/STM32F7xx_HAL_Driver/Src/stm32f7xx_hal_i2c.c ****   
3657:../../Drivers/STM32F7xx_HAL_Driver/Src/stm32f7xx_hal_i2c.c ****   /* If Memory address size is 8Bit */
3658:../../Drivers/STM32F7xx_HAL_Driver/Src/stm32f7xx_hal_i2c.c ****   if(MemAddSize == I2C_MEMADD_SIZE_8BIT)
 7855              		.loc 1 3658 0
 7856 004e FB88     		ldrh	r3, [r7, #6]
 7857 0050 012B     		cmp	r3, #1
 7858 0052 05D1     		bne	.L399
3659:../../Drivers/STM32F7xx_HAL_Driver/Src/stm32f7xx_hal_i2c.c ****   {
3660:../../Drivers/STM32F7xx_HAL_Driver/Src/stm32f7xx_hal_i2c.c ****     /* Send Memory Address */
3661:../../Drivers/STM32F7xx_HAL_Driver/Src/stm32f7xx_hal_i2c.c ****     hi2c->Instance->TXDR = I2C_MEM_ADD_LSB(MemAddress);
 7859              		.loc 1 3661 0
 7860 0054 FB68     		ldr	r3, [r7, #12]
 7861 0056 1B68     		ldr	r3, [r3]
 7862 0058 3A89     		ldrh	r2, [r7, #8]	@ movhi
 7863 005a D2B2     		uxtb	r2, r2
 7864 005c 9A62     		str	r2, [r3, #40]
 7865 005e 1BE0     		b	.L400
 7866              	.L399:
3662:../../Drivers/STM32F7xx_HAL_Driver/Src/stm32f7xx_hal_i2c.c ****   }
3663:../../Drivers/STM32F7xx_HAL_Driver/Src/stm32f7xx_hal_i2c.c ****   /* If Memory address size is 16Bit */
3664:../../Drivers/STM32F7xx_HAL_Driver/Src/stm32f7xx_hal_i2c.c ****   else
3665:../../Drivers/STM32F7xx_HAL_Driver/Src/stm32f7xx_hal_i2c.c ****   {
3666:../../Drivers/STM32F7xx_HAL_Driver/Src/stm32f7xx_hal_i2c.c ****     /* Send MSB of Memory Address */
3667:../../Drivers/STM32F7xx_HAL_Driver/Src/stm32f7xx_hal_i2c.c ****     hi2c->Instance->TXDR = I2C_MEM_ADD_MSB(MemAddress);
 7867              		.loc 1 3667 0
 7868 0060 FB68     		ldr	r3, [r7, #12]
 7869 0062 1B68     		ldr	r3, [r3]
 7870 0064 3A89     		ldrh	r2, [r7, #8]
 7871 0066 120A     		lsrs	r2, r2, #8
ARM GAS  /tmp/cczIhzQ0.s 			page 202


 7872 0068 92B2     		uxth	r2, r2
 7873 006a D2B2     		uxtb	r2, r2
 7874 006c 9A62     		str	r2, [r3, #40]
3668:../../Drivers/STM32F7xx_HAL_Driver/Src/stm32f7xx_hal_i2c.c ****     
3669:../../Drivers/STM32F7xx_HAL_Driver/Src/stm32f7xx_hal_i2c.c ****     /* Wait until TXIS flag is set */
3670:../../Drivers/STM32F7xx_HAL_Driver/Src/stm32f7xx_hal_i2c.c ****     if(I2C_WaitOnTXISFlagUntilTimeout(hi2c, Timeout, Tickstart) != HAL_OK)
 7875              		.loc 1 3670 0
 7876 006e F868     		ldr	r0, [r7, #12]
 7877 0070 B969     		ldr	r1, [r7, #24]
 7878 0072 FA69     		ldr	r2, [r7, #28]
 7879 0074 FFF7FEFF 		bl	I2C_WaitOnTXISFlagUntilTimeout
 7880 0078 0346     		mov	r3, r0
 7881 007a 002B     		cmp	r3, #0
 7882 007c 07D0     		beq	.L401
3671:../../Drivers/STM32F7xx_HAL_Driver/Src/stm32f7xx_hal_i2c.c ****     {
3672:../../Drivers/STM32F7xx_HAL_Driver/Src/stm32f7xx_hal_i2c.c ****       if(hi2c->ErrorCode == HAL_I2C_ERROR_AF)
 7883              		.loc 1 3672 0
 7884 007e FB68     		ldr	r3, [r7, #12]
 7885 0080 5B6C     		ldr	r3, [r3, #68]
 7886 0082 042B     		cmp	r3, #4
 7887 0084 01D1     		bne	.L402
3673:../../Drivers/STM32F7xx_HAL_Driver/Src/stm32f7xx_hal_i2c.c ****       {
3674:../../Drivers/STM32F7xx_HAL_Driver/Src/stm32f7xx_hal_i2c.c ****         return HAL_ERROR;
 7888              		.loc 1 3674 0
 7889 0086 0123     		movs	r3, #1
 7890 0088 14E0     		b	.L398
 7891              	.L402:
3675:../../Drivers/STM32F7xx_HAL_Driver/Src/stm32f7xx_hal_i2c.c ****       }
3676:../../Drivers/STM32F7xx_HAL_Driver/Src/stm32f7xx_hal_i2c.c ****       else
3677:../../Drivers/STM32F7xx_HAL_Driver/Src/stm32f7xx_hal_i2c.c ****       {
3678:../../Drivers/STM32F7xx_HAL_Driver/Src/stm32f7xx_hal_i2c.c ****         return HAL_TIMEOUT;
 7892              		.loc 1 3678 0
 7893 008a 0323     		movs	r3, #3
 7894 008c 12E0     		b	.L398
 7895              	.L401:
3679:../../Drivers/STM32F7xx_HAL_Driver/Src/stm32f7xx_hal_i2c.c ****       }
3680:../../Drivers/STM32F7xx_HAL_Driver/Src/stm32f7xx_hal_i2c.c ****     }
3681:../../Drivers/STM32F7xx_HAL_Driver/Src/stm32f7xx_hal_i2c.c ****     
3682:../../Drivers/STM32F7xx_HAL_Driver/Src/stm32f7xx_hal_i2c.c ****     /* Send LSB of Memory Address */
3683:../../Drivers/STM32F7xx_HAL_Driver/Src/stm32f7xx_hal_i2c.c ****     hi2c->Instance->TXDR = I2C_MEM_ADD_LSB(MemAddress);
 7896              		.loc 1 3683 0
 7897 008e FB68     		ldr	r3, [r7, #12]
 7898 0090 1B68     		ldr	r3, [r3]
 7899 0092 3A89     		ldrh	r2, [r7, #8]	@ movhi
 7900 0094 D2B2     		uxtb	r2, r2
 7901 0096 9A62     		str	r2, [r3, #40]
 7902              	.L400:
3684:../../Drivers/STM32F7xx_HAL_Driver/Src/stm32f7xx_hal_i2c.c ****   }
3685:../../Drivers/STM32F7xx_HAL_Driver/Src/stm32f7xx_hal_i2c.c ****   
3686:../../Drivers/STM32F7xx_HAL_Driver/Src/stm32f7xx_hal_i2c.c ****   /* Wait until TC flag is set */
3687:../../Drivers/STM32F7xx_HAL_Driver/Src/stm32f7xx_hal_i2c.c ****   if(I2C_WaitOnFlagUntilTimeout(hi2c, I2C_FLAG_TC, RESET, Timeout, Tickstart) != HAL_OK)
 7903              		.loc 1 3687 0
 7904 0098 FB69     		ldr	r3, [r7, #28]
 7905 009a 0093     		str	r3, [sp]
 7906 009c F868     		ldr	r0, [r7, #12]
 7907 009e 4021     		movs	r1, #64
 7908 00a0 0022     		movs	r2, #0
ARM GAS  /tmp/cczIhzQ0.s 			page 203


 7909 00a2 BB69     		ldr	r3, [r7, #24]
 7910 00a4 FFF7FEFF 		bl	I2C_WaitOnFlagUntilTimeout
 7911 00a8 0346     		mov	r3, r0
 7912 00aa 002B     		cmp	r3, #0
 7913 00ac 01D0     		beq	.L403
3688:../../Drivers/STM32F7xx_HAL_Driver/Src/stm32f7xx_hal_i2c.c ****   {
3689:../../Drivers/STM32F7xx_HAL_Driver/Src/stm32f7xx_hal_i2c.c ****     return HAL_TIMEOUT;
 7914              		.loc 1 3689 0
 7915 00ae 0323     		movs	r3, #3
 7916 00b0 00E0     		b	.L398
 7917              	.L403:
3690:../../Drivers/STM32F7xx_HAL_Driver/Src/stm32f7xx_hal_i2c.c ****   }
3691:../../Drivers/STM32F7xx_HAL_Driver/Src/stm32f7xx_hal_i2c.c ****   
3692:../../Drivers/STM32F7xx_HAL_Driver/Src/stm32f7xx_hal_i2c.c ****   return HAL_OK;
 7918              		.loc 1 3692 0
 7919 00b2 0023     		movs	r3, #0
 7920              	.L398:
3693:../../Drivers/STM32F7xx_HAL_Driver/Src/stm32f7xx_hal_i2c.c **** }
 7921              		.loc 1 3693 0
 7922 00b4 1846     		mov	r0, r3
 7923 00b6 1037     		adds	r7, r7, #16
 7924              	.LCFI268:
 7925              		.cfi_def_cfa_offset 8
 7926 00b8 BD46     		mov	sp, r7
 7927              	.LCFI269:
 7928              		.cfi_def_cfa_register 13
 7929              		@ sp needed
 7930 00ba 80BD     		pop	{r7, pc}
 7931              		.cfi_endproc
 7932              	.LFE185:
 7934              		.section	.text.I2C_ITAddrCplt,"ax",%progbits
 7935              		.align	2
 7936              		.thumb
 7937              		.thumb_func
 7939              	I2C_ITAddrCplt:
 7940              	.LFB186:
3694:../../Drivers/STM32F7xx_HAL_Driver/Src/stm32f7xx_hal_i2c.c **** 
3695:../../Drivers/STM32F7xx_HAL_Driver/Src/stm32f7xx_hal_i2c.c **** /**
3696:../../Drivers/STM32F7xx_HAL_Driver/Src/stm32f7xx_hal_i2c.c ****   * @brief  I2C Address complete process callback.
3697:../../Drivers/STM32F7xx_HAL_Driver/Src/stm32f7xx_hal_i2c.c ****   * @param  hi2c: I2C handle.
3698:../../Drivers/STM32F7xx_HAL_Driver/Src/stm32f7xx_hal_i2c.c ****   * @param  ITFlags: Interrupt flags to handle.
3699:../../Drivers/STM32F7xx_HAL_Driver/Src/stm32f7xx_hal_i2c.c ****   * @retval None
3700:../../Drivers/STM32F7xx_HAL_Driver/Src/stm32f7xx_hal_i2c.c ****   */
3701:../../Drivers/STM32F7xx_HAL_Driver/Src/stm32f7xx_hal_i2c.c **** static void I2C_ITAddrCplt(I2C_HandleTypeDef *hi2c, uint32_t ITFlags)
3702:../../Drivers/STM32F7xx_HAL_Driver/Src/stm32f7xx_hal_i2c.c **** {
 7941              		.loc 1 3702 0
 7942              		.cfi_startproc
 7943              		@ args = 0, pretend = 0, frame = 16
 7944              		@ frame_needed = 1, uses_anonymous_args = 0
 7945 0000 80B5     		push	{r7, lr}
 7946              	.LCFI270:
 7947              		.cfi_def_cfa_offset 8
 7948              		.cfi_offset 7, -8
 7949              		.cfi_offset 14, -4
 7950 0002 84B0     		sub	sp, sp, #16
 7951              	.LCFI271:
 7952              		.cfi_def_cfa_offset 24
ARM GAS  /tmp/cczIhzQ0.s 			page 204


 7953 0004 00AF     		add	r7, sp, #0
 7954              	.LCFI272:
 7955              		.cfi_def_cfa_register 7
 7956 0006 7860     		str	r0, [r7, #4]
 7957 0008 3960     		str	r1, [r7]
3703:../../Drivers/STM32F7xx_HAL_Driver/Src/stm32f7xx_hal_i2c.c ****   uint8_t transferdirection = 0;
 7958              		.loc 1 3703 0
 7959 000a 0023     		movs	r3, #0
 7960 000c FB73     		strb	r3, [r7, #15]
3704:../../Drivers/STM32F7xx_HAL_Driver/Src/stm32f7xx_hal_i2c.c ****   uint16_t slaveaddrcode = 0;
 7961              		.loc 1 3704 0
 7962 000e 0023     		movs	r3, #0
 7963 0010 BB81     		strh	r3, [r7, #12]	@ movhi
3705:../../Drivers/STM32F7xx_HAL_Driver/Src/stm32f7xx_hal_i2c.c ****   uint16_t ownadd1code = 0;
 7964              		.loc 1 3705 0
 7965 0012 0023     		movs	r3, #0
 7966 0014 7B81     		strh	r3, [r7, #10]	@ movhi
3706:../../Drivers/STM32F7xx_HAL_Driver/Src/stm32f7xx_hal_i2c.c ****   uint16_t ownadd2code = 0;
 7967              		.loc 1 3706 0
 7968 0016 0023     		movs	r3, #0
 7969 0018 3B81     		strh	r3, [r7, #8]	@ movhi
3707:../../Drivers/STM32F7xx_HAL_Driver/Src/stm32f7xx_hal_i2c.c ****   
3708:../../Drivers/STM32F7xx_HAL_Driver/Src/stm32f7xx_hal_i2c.c ****   /* In case of Listen state, need to inform upper layer of address match code event */
3709:../../Drivers/STM32F7xx_HAL_Driver/Src/stm32f7xx_hal_i2c.c ****   if((hi2c->State & HAL_I2C_STATE_LISTEN) == HAL_I2C_STATE_LISTEN)
 7970              		.loc 1 3709 0
 7971 001a 7B68     		ldr	r3, [r7, #4]
 7972 001c 93F84130 		ldrb	r3, [r3, #65]
 7973 0020 DBB2     		uxtb	r3, r3
 7974 0022 03F02803 		and	r3, r3, #40
 7975 0026 282B     		cmp	r3, #40
 7976 0028 68D1     		bne	.L405
3710:../../Drivers/STM32F7xx_HAL_Driver/Src/stm32f7xx_hal_i2c.c ****   {
3711:../../Drivers/STM32F7xx_HAL_Driver/Src/stm32f7xx_hal_i2c.c ****     transferdirection = I2C_GET_DIR(hi2c);
 7977              		.loc 1 3711 0
 7978 002a 7B68     		ldr	r3, [r7, #4]
 7979 002c 1B68     		ldr	r3, [r3]
 7980 002e 9B69     		ldr	r3, [r3, #24]
 7981 0030 03F48033 		and	r3, r3, #65536
 7982 0034 1B0C     		lsrs	r3, r3, #16
 7983 0036 FB73     		strb	r3, [r7, #15]
3712:../../Drivers/STM32F7xx_HAL_Driver/Src/stm32f7xx_hal_i2c.c ****     slaveaddrcode     = I2C_GET_ADDR_MATCH(hi2c);
 7984              		.loc 1 3712 0
 7985 0038 7B68     		ldr	r3, [r7, #4]
 7986 003a 1B68     		ldr	r3, [r3]
 7987 003c 9B69     		ldr	r3, [r3, #24]
 7988 003e 03F47E03 		and	r3, r3, #16646144
 7989 0042 1B0C     		lsrs	r3, r3, #16
 7990 0044 BB81     		strh	r3, [r7, #12]	@ movhi
3713:../../Drivers/STM32F7xx_HAL_Driver/Src/stm32f7xx_hal_i2c.c ****     ownadd1code       = I2C_GET_OWN_ADDRESS1(hi2c);
 7991              		.loc 1 3713 0
 7992 0046 7B68     		ldr	r3, [r7, #4]
 7993 0048 1B68     		ldr	r3, [r3]
 7994 004a 9B68     		ldr	r3, [r3, #8]
 7995 004c 9BB2     		uxth	r3, r3
 7996 004e C3F30903 		ubfx	r3, r3, #0, #10
 7997 0052 7B81     		strh	r3, [r7, #10]	@ movhi
3714:../../Drivers/STM32F7xx_HAL_Driver/Src/stm32f7xx_hal_i2c.c ****     ownadd2code       = I2C_GET_OWN_ADDRESS2(hi2c);
ARM GAS  /tmp/cczIhzQ0.s 			page 205


 7998              		.loc 1 3714 0
 7999 0054 7B68     		ldr	r3, [r7, #4]
 8000 0056 1B68     		ldr	r3, [r3]
 8001 0058 DB68     		ldr	r3, [r3, #12]
 8002 005a 9BB2     		uxth	r3, r3
 8003 005c 03F0FE03 		and	r3, r3, #254
 8004 0060 3B81     		strh	r3, [r7, #8]	@ movhi
3715:../../Drivers/STM32F7xx_HAL_Driver/Src/stm32f7xx_hal_i2c.c ****     
3716:../../Drivers/STM32F7xx_HAL_Driver/Src/stm32f7xx_hal_i2c.c ****     /* If 10bits addressing mode is selected */
3717:../../Drivers/STM32F7xx_HAL_Driver/Src/stm32f7xx_hal_i2c.c ****     if(hi2c->Init.AddressingMode == I2C_ADDRESSINGMODE_10BIT)
 8005              		.loc 1 3717 0
 8006 0062 7B68     		ldr	r3, [r7, #4]
 8007 0064 DB68     		ldr	r3, [r3, #12]
 8008 0066 022B     		cmp	r3, #2
 8009 0068 38D1     		bne	.L406
3718:../../Drivers/STM32F7xx_HAL_Driver/Src/stm32f7xx_hal_i2c.c ****     {
3719:../../Drivers/STM32F7xx_HAL_Driver/Src/stm32f7xx_hal_i2c.c ****       if((slaveaddrcode & SlaveAddr_MSK) == ((ownadd1code >> SlaveAddr_SHIFT) & SlaveAddr_MSK))
 8010              		.loc 1 3719 0
 8011 006a BB89     		ldrh	r3, [r7, #12]
 8012 006c 7A89     		ldrh	r2, [r7, #10]
 8013 006e D209     		lsrs	r2, r2, #7
 8014 0070 92B2     		uxth	r2, r2
 8015 0072 5340     		eors	r3, r3, r2
 8016 0074 03F00603 		and	r3, r3, #6
 8017 0078 002B     		cmp	r3, #0
 8018 007a 1DD1     		bne	.L407
3720:../../Drivers/STM32F7xx_HAL_Driver/Src/stm32f7xx_hal_i2c.c ****       {
3721:../../Drivers/STM32F7xx_HAL_Driver/Src/stm32f7xx_hal_i2c.c ****         slaveaddrcode = ownadd1code;
 8019              		.loc 1 3721 0
 8020 007c 7B89     		ldrh	r3, [r7, #10]	@ movhi
 8021 007e BB81     		strh	r3, [r7, #12]	@ movhi
3722:../../Drivers/STM32F7xx_HAL_Driver/Src/stm32f7xx_hal_i2c.c ****         hi2c->AddrEventCount++;
 8022              		.loc 1 3722 0
 8023 0080 7B68     		ldr	r3, [r7, #4]
 8024 0082 9B6C     		ldr	r3, [r3, #72]
 8025 0084 5A1C     		adds	r2, r3, #1
 8026 0086 7B68     		ldr	r3, [r7, #4]
 8027 0088 9A64     		str	r2, [r3, #72]
3723:../../Drivers/STM32F7xx_HAL_Driver/Src/stm32f7xx_hal_i2c.c ****         if(hi2c->AddrEventCount == 2)
 8028              		.loc 1 3723 0
 8029 008a 7B68     		ldr	r3, [r7, #4]
 8030 008c 9B6C     		ldr	r3, [r3, #72]
 8031 008e 022B     		cmp	r3, #2
 8032 0090 3CD1     		bne	.L404
3724:../../Drivers/STM32F7xx_HAL_Driver/Src/stm32f7xx_hal_i2c.c ****         {
3725:../../Drivers/STM32F7xx_HAL_Driver/Src/stm32f7xx_hal_i2c.c ****           /* Reset Address Event counter  */
3726:../../Drivers/STM32F7xx_HAL_Driver/Src/stm32f7xx_hal_i2c.c ****           hi2c->AddrEventCount = 0;
 8033              		.loc 1 3726 0
 8034 0092 7B68     		ldr	r3, [r7, #4]
 8035 0094 0022     		movs	r2, #0
 8036 0096 9A64     		str	r2, [r3, #72]
3727:../../Drivers/STM32F7xx_HAL_Driver/Src/stm32f7xx_hal_i2c.c ****           
3728:../../Drivers/STM32F7xx_HAL_Driver/Src/stm32f7xx_hal_i2c.c ****           /* Clear ADDR flag */
3729:../../Drivers/STM32F7xx_HAL_Driver/Src/stm32f7xx_hal_i2c.c ****           __HAL_I2C_CLEAR_FLAG(hi2c,I2C_FLAG_ADDR);
 8037              		.loc 1 3729 0
 8038 0098 7B68     		ldr	r3, [r7, #4]
 8039 009a 1B68     		ldr	r3, [r3]
ARM GAS  /tmp/cczIhzQ0.s 			page 206


 8040 009c 0822     		movs	r2, #8
 8041 009e DA61     		str	r2, [r3, #28]
3730:../../Drivers/STM32F7xx_HAL_Driver/Src/stm32f7xx_hal_i2c.c ****           
3731:../../Drivers/STM32F7xx_HAL_Driver/Src/stm32f7xx_hal_i2c.c ****           /* Process Unlocked */
3732:../../Drivers/STM32F7xx_HAL_Driver/Src/stm32f7xx_hal_i2c.c ****           __HAL_UNLOCK(hi2c);
 8042              		.loc 1 3732 0
 8043 00a0 7B68     		ldr	r3, [r7, #4]
 8044 00a2 0022     		movs	r2, #0
 8045 00a4 83F84020 		strb	r2, [r3, #64]
3733:../../Drivers/STM32F7xx_HAL_Driver/Src/stm32f7xx_hal_i2c.c ****           
3734:../../Drivers/STM32F7xx_HAL_Driver/Src/stm32f7xx_hal_i2c.c ****           /* Call Slave Addr callback */
3735:../../Drivers/STM32F7xx_HAL_Driver/Src/stm32f7xx_hal_i2c.c ****           HAL_I2C_AddrCallback(hi2c, transferdirection, slaveaddrcode);
 8046              		.loc 1 3735 0
 8047 00a8 FA7B     		ldrb	r2, [r7, #15]	@ zero_extendqisi2
 8048 00aa BB89     		ldrh	r3, [r7, #12]
 8049 00ac 7868     		ldr	r0, [r7, #4]
 8050 00ae 1146     		mov	r1, r2
 8051 00b0 1A46     		mov	r2, r3
 8052 00b2 FFF7FEFF 		bl	HAL_I2C_AddrCallback
 8053 00b6 29E0     		b	.L404
 8054              	.L407:
3736:../../Drivers/STM32F7xx_HAL_Driver/Src/stm32f7xx_hal_i2c.c ****         }
3737:../../Drivers/STM32F7xx_HAL_Driver/Src/stm32f7xx_hal_i2c.c ****       }
3738:../../Drivers/STM32F7xx_HAL_Driver/Src/stm32f7xx_hal_i2c.c ****       else
3739:../../Drivers/STM32F7xx_HAL_Driver/Src/stm32f7xx_hal_i2c.c ****       {
3740:../../Drivers/STM32F7xx_HAL_Driver/Src/stm32f7xx_hal_i2c.c ****         slaveaddrcode = ownadd2code;
 8055              		.loc 1 3740 0
 8056 00b8 3B89     		ldrh	r3, [r7, #8]	@ movhi
 8057 00ba BB81     		strh	r3, [r7, #12]	@ movhi
3741:../../Drivers/STM32F7xx_HAL_Driver/Src/stm32f7xx_hal_i2c.c ****         
3742:../../Drivers/STM32F7xx_HAL_Driver/Src/stm32f7xx_hal_i2c.c ****         /* Disable ADDR Interrupts */
3743:../../Drivers/STM32F7xx_HAL_Driver/Src/stm32f7xx_hal_i2c.c ****         I2C_Disable_IRQ(hi2c, I2C_XFER_LISTEN_IT);
 8058              		.loc 1 3743 0
 8059 00bc 7868     		ldr	r0, [r7, #4]
 8060 00be 0421     		movs	r1, #4
 8061 00c0 FFF7FEFF 		bl	I2C_Disable_IRQ
3744:../../Drivers/STM32F7xx_HAL_Driver/Src/stm32f7xx_hal_i2c.c ****         
3745:../../Drivers/STM32F7xx_HAL_Driver/Src/stm32f7xx_hal_i2c.c ****         /* Process Unlocked */
3746:../../Drivers/STM32F7xx_HAL_Driver/Src/stm32f7xx_hal_i2c.c ****         __HAL_UNLOCK(hi2c);
 8062              		.loc 1 3746 0
 8063 00c4 7B68     		ldr	r3, [r7, #4]
 8064 00c6 0022     		movs	r2, #0
 8065 00c8 83F84020 		strb	r2, [r3, #64]
3747:../../Drivers/STM32F7xx_HAL_Driver/Src/stm32f7xx_hal_i2c.c ****         
3748:../../Drivers/STM32F7xx_HAL_Driver/Src/stm32f7xx_hal_i2c.c ****         /* Call Slave Addr callback */
3749:../../Drivers/STM32F7xx_HAL_Driver/Src/stm32f7xx_hal_i2c.c ****         HAL_I2C_AddrCallback(hi2c, transferdirection, slaveaddrcode);
 8066              		.loc 1 3749 0
 8067 00cc FA7B     		ldrb	r2, [r7, #15]	@ zero_extendqisi2
 8068 00ce BB89     		ldrh	r3, [r7, #12]
 8069 00d0 7868     		ldr	r0, [r7, #4]
 8070 00d2 1146     		mov	r1, r2
 8071 00d4 1A46     		mov	r2, r3
 8072 00d6 FFF7FEFF 		bl	HAL_I2C_AddrCallback
 8073 00da 17E0     		b	.L404
 8074              	.L406:
3750:../../Drivers/STM32F7xx_HAL_Driver/Src/stm32f7xx_hal_i2c.c ****       }
3751:../../Drivers/STM32F7xx_HAL_Driver/Src/stm32f7xx_hal_i2c.c ****     }
ARM GAS  /tmp/cczIhzQ0.s 			page 207


3752:../../Drivers/STM32F7xx_HAL_Driver/Src/stm32f7xx_hal_i2c.c ****     /* else 7 bits addressing mode is selected */
3753:../../Drivers/STM32F7xx_HAL_Driver/Src/stm32f7xx_hal_i2c.c ****     else
3754:../../Drivers/STM32F7xx_HAL_Driver/Src/stm32f7xx_hal_i2c.c ****     {
3755:../../Drivers/STM32F7xx_HAL_Driver/Src/stm32f7xx_hal_i2c.c ****       /* Disable ADDR Interrupts */
3756:../../Drivers/STM32F7xx_HAL_Driver/Src/stm32f7xx_hal_i2c.c ****       I2C_Disable_IRQ(hi2c, I2C_XFER_LISTEN_IT);
 8075              		.loc 1 3756 0
 8076 00dc 7868     		ldr	r0, [r7, #4]
 8077 00de 0421     		movs	r1, #4
 8078 00e0 FFF7FEFF 		bl	I2C_Disable_IRQ
3757:../../Drivers/STM32F7xx_HAL_Driver/Src/stm32f7xx_hal_i2c.c ****       
3758:../../Drivers/STM32F7xx_HAL_Driver/Src/stm32f7xx_hal_i2c.c ****       /* Process Unlocked */
3759:../../Drivers/STM32F7xx_HAL_Driver/Src/stm32f7xx_hal_i2c.c ****       __HAL_UNLOCK(hi2c);
 8079              		.loc 1 3759 0
 8080 00e4 7B68     		ldr	r3, [r7, #4]
 8081 00e6 0022     		movs	r2, #0
 8082 00e8 83F84020 		strb	r2, [r3, #64]
3760:../../Drivers/STM32F7xx_HAL_Driver/Src/stm32f7xx_hal_i2c.c ****       
3761:../../Drivers/STM32F7xx_HAL_Driver/Src/stm32f7xx_hal_i2c.c ****       /* Call Slave Addr callback */
3762:../../Drivers/STM32F7xx_HAL_Driver/Src/stm32f7xx_hal_i2c.c ****       HAL_I2C_AddrCallback(hi2c, transferdirection, slaveaddrcode);
 8083              		.loc 1 3762 0
 8084 00ec FA7B     		ldrb	r2, [r7, #15]	@ zero_extendqisi2
 8085 00ee BB89     		ldrh	r3, [r7, #12]
 8086 00f0 7868     		ldr	r0, [r7, #4]
 8087 00f2 1146     		mov	r1, r2
 8088 00f4 1A46     		mov	r2, r3
 8089 00f6 FFF7FEFF 		bl	HAL_I2C_AddrCallback
 8090 00fa 07E0     		b	.L404
 8091              	.L405:
3763:../../Drivers/STM32F7xx_HAL_Driver/Src/stm32f7xx_hal_i2c.c ****     }
3764:../../Drivers/STM32F7xx_HAL_Driver/Src/stm32f7xx_hal_i2c.c ****   }
3765:../../Drivers/STM32F7xx_HAL_Driver/Src/stm32f7xx_hal_i2c.c ****   /* Else clear address flag only */
3766:../../Drivers/STM32F7xx_HAL_Driver/Src/stm32f7xx_hal_i2c.c ****   else
3767:../../Drivers/STM32F7xx_HAL_Driver/Src/stm32f7xx_hal_i2c.c ****   {
3768:../../Drivers/STM32F7xx_HAL_Driver/Src/stm32f7xx_hal_i2c.c ****     /* Clear ADDR flag */
3769:../../Drivers/STM32F7xx_HAL_Driver/Src/stm32f7xx_hal_i2c.c ****     __HAL_I2C_CLEAR_FLAG(hi2c, I2C_FLAG_ADDR);
 8092              		.loc 1 3769 0
 8093 00fc 7B68     		ldr	r3, [r7, #4]
 8094 00fe 1B68     		ldr	r3, [r3]
 8095 0100 0822     		movs	r2, #8
 8096 0102 DA61     		str	r2, [r3, #28]
3770:../../Drivers/STM32F7xx_HAL_Driver/Src/stm32f7xx_hal_i2c.c ****     
3771:../../Drivers/STM32F7xx_HAL_Driver/Src/stm32f7xx_hal_i2c.c ****     /* Process Unlocked */
3772:../../Drivers/STM32F7xx_HAL_Driver/Src/stm32f7xx_hal_i2c.c ****     __HAL_UNLOCK(hi2c);
 8097              		.loc 1 3772 0
 8098 0104 7B68     		ldr	r3, [r7, #4]
 8099 0106 0022     		movs	r2, #0
 8100 0108 83F84020 		strb	r2, [r3, #64]
 8101              	.L404:
3773:../../Drivers/STM32F7xx_HAL_Driver/Src/stm32f7xx_hal_i2c.c ****   }
3774:../../Drivers/STM32F7xx_HAL_Driver/Src/stm32f7xx_hal_i2c.c **** }
 8102              		.loc 1 3774 0
 8103 010c 1037     		adds	r7, r7, #16
 8104              	.LCFI273:
 8105              		.cfi_def_cfa_offset 8
 8106 010e BD46     		mov	sp, r7
 8107              	.LCFI274:
 8108              		.cfi_def_cfa_register 13
ARM GAS  /tmp/cczIhzQ0.s 			page 208


 8109              		@ sp needed
 8110 0110 80BD     		pop	{r7, pc}
 8111              		.cfi_endproc
 8112              	.LFE186:
 8114 0112 00BF     		.section	.text.I2C_ITMasterSequentialCplt,"ax",%progbits
 8115              		.align	2
 8116              		.thumb
 8117              		.thumb_func
 8119              	I2C_ITMasterSequentialCplt:
 8120              	.LFB187:
3775:../../Drivers/STM32F7xx_HAL_Driver/Src/stm32f7xx_hal_i2c.c **** 
3776:../../Drivers/STM32F7xx_HAL_Driver/Src/stm32f7xx_hal_i2c.c **** /**
3777:../../Drivers/STM32F7xx_HAL_Driver/Src/stm32f7xx_hal_i2c.c ****   * @brief  I2C Master sequential complete process.
3778:../../Drivers/STM32F7xx_HAL_Driver/Src/stm32f7xx_hal_i2c.c ****   * @param  hi2c: I2C handle.
3779:../../Drivers/STM32F7xx_HAL_Driver/Src/stm32f7xx_hal_i2c.c ****   * @retval None
3780:../../Drivers/STM32F7xx_HAL_Driver/Src/stm32f7xx_hal_i2c.c ****   */
3781:../../Drivers/STM32F7xx_HAL_Driver/Src/stm32f7xx_hal_i2c.c **** static void I2C_ITMasterSequentialCplt(I2C_HandleTypeDef *hi2c)
3782:../../Drivers/STM32F7xx_HAL_Driver/Src/stm32f7xx_hal_i2c.c **** {
 8121              		.loc 1 3782 0
 8122              		.cfi_startproc
 8123              		@ args = 0, pretend = 0, frame = 8
 8124              		@ frame_needed = 1, uses_anonymous_args = 0
 8125 0000 80B5     		push	{r7, lr}
 8126              	.LCFI275:
 8127              		.cfi_def_cfa_offset 8
 8128              		.cfi_offset 7, -8
 8129              		.cfi_offset 14, -4
 8130 0002 82B0     		sub	sp, sp, #8
 8131              	.LCFI276:
 8132              		.cfi_def_cfa_offset 16
 8133 0004 00AF     		add	r7, sp, #0
 8134              	.LCFI277:
 8135              		.cfi_def_cfa_register 7
 8136 0006 7860     		str	r0, [r7, #4]
3783:../../Drivers/STM32F7xx_HAL_Driver/Src/stm32f7xx_hal_i2c.c ****   /* Reset I2C handle mode */
3784:../../Drivers/STM32F7xx_HAL_Driver/Src/stm32f7xx_hal_i2c.c ****   hi2c->Mode = HAL_I2C_MODE_NONE;
 8137              		.loc 1 3784 0
 8138 0008 7B68     		ldr	r3, [r7, #4]
 8139 000a 0022     		movs	r2, #0
 8140 000c 83F84220 		strb	r2, [r3, #66]
3785:../../Drivers/STM32F7xx_HAL_Driver/Src/stm32f7xx_hal_i2c.c ****   
3786:../../Drivers/STM32F7xx_HAL_Driver/Src/stm32f7xx_hal_i2c.c ****   /* No Generate Stop, to permit restart mode */
3787:../../Drivers/STM32F7xx_HAL_Driver/Src/stm32f7xx_hal_i2c.c ****   /* The stop will be done at the end of transfer, when I2C_AUTOEND_MODE enable */
3788:../../Drivers/STM32F7xx_HAL_Driver/Src/stm32f7xx_hal_i2c.c ****   if (hi2c->State == HAL_I2C_STATE_BUSY_TX)
 8141              		.loc 1 3788 0
 8142 0010 7B68     		ldr	r3, [r7, #4]
 8143 0012 93F84130 		ldrb	r3, [r3, #65]
 8144 0016 DBB2     		uxtb	r3, r3
 8145 0018 212B     		cmp	r3, #33
 8146 001a 15D1     		bne	.L413
3789:../../Drivers/STM32F7xx_HAL_Driver/Src/stm32f7xx_hal_i2c.c ****   {
3790:../../Drivers/STM32F7xx_HAL_Driver/Src/stm32f7xx_hal_i2c.c ****     hi2c->State         = HAL_I2C_STATE_READY;
 8147              		.loc 1 3790 0
 8148 001c 7B68     		ldr	r3, [r7, #4]
 8149 001e 2022     		movs	r2, #32
 8150 0020 83F84120 		strb	r2, [r3, #65]
3791:../../Drivers/STM32F7xx_HAL_Driver/Src/stm32f7xx_hal_i2c.c ****     hi2c->PreviousState = I2C_STATE_MASTER_BUSY_TX;
ARM GAS  /tmp/cczIhzQ0.s 			page 209


 8151              		.loc 1 3791 0
 8152 0024 7B68     		ldr	r3, [r7, #4]
 8153 0026 1122     		movs	r2, #17
 8154 0028 1A63     		str	r2, [r3, #48]
3792:../../Drivers/STM32F7xx_HAL_Driver/Src/stm32f7xx_hal_i2c.c ****     hi2c->XferISR       = NULL;
 8155              		.loc 1 3792 0
 8156 002a 7B68     		ldr	r3, [r7, #4]
 8157 002c 0022     		movs	r2, #0
 8158 002e 5A63     		str	r2, [r3, #52]
3793:../../Drivers/STM32F7xx_HAL_Driver/Src/stm32f7xx_hal_i2c.c ****     
3794:../../Drivers/STM32F7xx_HAL_Driver/Src/stm32f7xx_hal_i2c.c ****     /* Disable Interrupts */
3795:../../Drivers/STM32F7xx_HAL_Driver/Src/stm32f7xx_hal_i2c.c ****     I2C_Disable_IRQ(hi2c, I2C_XFER_TX_IT);
 8159              		.loc 1 3795 0
 8160 0030 7868     		ldr	r0, [r7, #4]
 8161 0032 0121     		movs	r1, #1
 8162 0034 FFF7FEFF 		bl	I2C_Disable_IRQ
3796:../../Drivers/STM32F7xx_HAL_Driver/Src/stm32f7xx_hal_i2c.c ****     
3797:../../Drivers/STM32F7xx_HAL_Driver/Src/stm32f7xx_hal_i2c.c ****     /* Process Unlocked */
3798:../../Drivers/STM32F7xx_HAL_Driver/Src/stm32f7xx_hal_i2c.c ****     __HAL_UNLOCK(hi2c);
 8163              		.loc 1 3798 0
 8164 0038 7B68     		ldr	r3, [r7, #4]
 8165 003a 0022     		movs	r2, #0
 8166 003c 83F84020 		strb	r2, [r3, #64]
3799:../../Drivers/STM32F7xx_HAL_Driver/Src/stm32f7xx_hal_i2c.c ****     
3800:../../Drivers/STM32F7xx_HAL_Driver/Src/stm32f7xx_hal_i2c.c ****     /* Call the corresponding callback to inform upper layer of End of Transfer */
3801:../../Drivers/STM32F7xx_HAL_Driver/Src/stm32f7xx_hal_i2c.c ****     HAL_I2C_MasterTxCpltCallback(hi2c);
 8167              		.loc 1 3801 0
 8168 0040 7868     		ldr	r0, [r7, #4]
 8169 0042 FFF7FEFF 		bl	HAL_I2C_MasterTxCpltCallback
 8170 0046 14E0     		b	.L412
 8171              	.L413:
3802:../../Drivers/STM32F7xx_HAL_Driver/Src/stm32f7xx_hal_i2c.c ****   }
3803:../../Drivers/STM32F7xx_HAL_Driver/Src/stm32f7xx_hal_i2c.c ****   /* hi2c->State == HAL_I2C_STATE_BUSY_RX */
3804:../../Drivers/STM32F7xx_HAL_Driver/Src/stm32f7xx_hal_i2c.c ****   else
3805:../../Drivers/STM32F7xx_HAL_Driver/Src/stm32f7xx_hal_i2c.c ****   {
3806:../../Drivers/STM32F7xx_HAL_Driver/Src/stm32f7xx_hal_i2c.c ****     hi2c->State         = HAL_I2C_STATE_READY;
 8172              		.loc 1 3806 0
 8173 0048 7B68     		ldr	r3, [r7, #4]
 8174 004a 2022     		movs	r2, #32
 8175 004c 83F84120 		strb	r2, [r3, #65]
3807:../../Drivers/STM32F7xx_HAL_Driver/Src/stm32f7xx_hal_i2c.c ****     hi2c->PreviousState = I2C_STATE_MASTER_BUSY_RX;
 8176              		.loc 1 3807 0
 8177 0050 7B68     		ldr	r3, [r7, #4]
 8178 0052 1222     		movs	r2, #18
 8179 0054 1A63     		str	r2, [r3, #48]
3808:../../Drivers/STM32F7xx_HAL_Driver/Src/stm32f7xx_hal_i2c.c ****     hi2c->XferISR       = NULL;
 8180              		.loc 1 3808 0
 8181 0056 7B68     		ldr	r3, [r7, #4]
 8182 0058 0022     		movs	r2, #0
 8183 005a 5A63     		str	r2, [r3, #52]
3809:../../Drivers/STM32F7xx_HAL_Driver/Src/stm32f7xx_hal_i2c.c ****     
3810:../../Drivers/STM32F7xx_HAL_Driver/Src/stm32f7xx_hal_i2c.c ****     /* Disable Interrupts */
3811:../../Drivers/STM32F7xx_HAL_Driver/Src/stm32f7xx_hal_i2c.c ****     I2C_Disable_IRQ(hi2c, I2C_XFER_RX_IT);
 8184              		.loc 1 3811 0
 8185 005c 7868     		ldr	r0, [r7, #4]
 8186 005e 0221     		movs	r1, #2
 8187 0060 FFF7FEFF 		bl	I2C_Disable_IRQ
ARM GAS  /tmp/cczIhzQ0.s 			page 210


3812:../../Drivers/STM32F7xx_HAL_Driver/Src/stm32f7xx_hal_i2c.c ****     
3813:../../Drivers/STM32F7xx_HAL_Driver/Src/stm32f7xx_hal_i2c.c ****     /* Process Unlocked */
3814:../../Drivers/STM32F7xx_HAL_Driver/Src/stm32f7xx_hal_i2c.c ****     __HAL_UNLOCK(hi2c);
 8188              		.loc 1 3814 0
 8189 0064 7B68     		ldr	r3, [r7, #4]
 8190 0066 0022     		movs	r2, #0
 8191 0068 83F84020 		strb	r2, [r3, #64]
3815:../../Drivers/STM32F7xx_HAL_Driver/Src/stm32f7xx_hal_i2c.c ****     
3816:../../Drivers/STM32F7xx_HAL_Driver/Src/stm32f7xx_hal_i2c.c ****     /* Call the corresponding callback to inform upper layer of End of Transfer */
3817:../../Drivers/STM32F7xx_HAL_Driver/Src/stm32f7xx_hal_i2c.c ****     HAL_I2C_MasterRxCpltCallback(hi2c);
 8192              		.loc 1 3817 0
 8193 006c 7868     		ldr	r0, [r7, #4]
 8194 006e FFF7FEFF 		bl	HAL_I2C_MasterRxCpltCallback
 8195              	.L412:
3818:../../Drivers/STM32F7xx_HAL_Driver/Src/stm32f7xx_hal_i2c.c ****   }
3819:../../Drivers/STM32F7xx_HAL_Driver/Src/stm32f7xx_hal_i2c.c **** }
 8196              		.loc 1 3819 0
 8197 0072 0837     		adds	r7, r7, #8
 8198              	.LCFI278:
 8199              		.cfi_def_cfa_offset 8
 8200 0074 BD46     		mov	sp, r7
 8201              	.LCFI279:
 8202              		.cfi_def_cfa_register 13
 8203              		@ sp needed
 8204 0076 80BD     		pop	{r7, pc}
 8205              		.cfi_endproc
 8206              	.LFE187:
 8208              		.section	.text.I2C_ITSlaveSequentialCplt,"ax",%progbits
 8209              		.align	2
 8210              		.thumb
 8211              		.thumb_func
 8213              	I2C_ITSlaveSequentialCplt:
 8214              	.LFB188:
3820:../../Drivers/STM32F7xx_HAL_Driver/Src/stm32f7xx_hal_i2c.c **** 
3821:../../Drivers/STM32F7xx_HAL_Driver/Src/stm32f7xx_hal_i2c.c **** /**
3822:../../Drivers/STM32F7xx_HAL_Driver/Src/stm32f7xx_hal_i2c.c ****   * @brief  I2C Slave sequential complete process.
3823:../../Drivers/STM32F7xx_HAL_Driver/Src/stm32f7xx_hal_i2c.c ****   * @param  hi2c: I2C handle.
3824:../../Drivers/STM32F7xx_HAL_Driver/Src/stm32f7xx_hal_i2c.c ****   * @retval None
3825:../../Drivers/STM32F7xx_HAL_Driver/Src/stm32f7xx_hal_i2c.c ****   */
3826:../../Drivers/STM32F7xx_HAL_Driver/Src/stm32f7xx_hal_i2c.c **** static void I2C_ITSlaveSequentialCplt(I2C_HandleTypeDef *hi2c)
3827:../../Drivers/STM32F7xx_HAL_Driver/Src/stm32f7xx_hal_i2c.c **** {
 8215              		.loc 1 3827 0
 8216              		.cfi_startproc
 8217              		@ args = 0, pretend = 0, frame = 8
 8218              		@ frame_needed = 1, uses_anonymous_args = 0
 8219 0000 80B5     		push	{r7, lr}
 8220              	.LCFI280:
 8221              		.cfi_def_cfa_offset 8
 8222              		.cfi_offset 7, -8
 8223              		.cfi_offset 14, -4
 8224 0002 82B0     		sub	sp, sp, #8
 8225              	.LCFI281:
 8226              		.cfi_def_cfa_offset 16
 8227 0004 00AF     		add	r7, sp, #0
 8228              	.LCFI282:
 8229              		.cfi_def_cfa_register 7
 8230 0006 7860     		str	r0, [r7, #4]
ARM GAS  /tmp/cczIhzQ0.s 			page 211


3828:../../Drivers/STM32F7xx_HAL_Driver/Src/stm32f7xx_hal_i2c.c ****   /* Reset I2C handle mode */
3829:../../Drivers/STM32F7xx_HAL_Driver/Src/stm32f7xx_hal_i2c.c ****   hi2c->Mode = HAL_I2C_MODE_NONE;
 8231              		.loc 1 3829 0
 8232 0008 7B68     		ldr	r3, [r7, #4]
 8233 000a 0022     		movs	r2, #0
 8234 000c 83F84220 		strb	r2, [r3, #66]
3830:../../Drivers/STM32F7xx_HAL_Driver/Src/stm32f7xx_hal_i2c.c ****   
3831:../../Drivers/STM32F7xx_HAL_Driver/Src/stm32f7xx_hal_i2c.c ****   if(hi2c->State == HAL_I2C_STATE_BUSY_TX_LISTEN)
 8235              		.loc 1 3831 0
 8236 0010 7B68     		ldr	r3, [r7, #4]
 8237 0012 93F84130 		ldrb	r3, [r3, #65]
 8238 0016 DBB2     		uxtb	r3, r3
 8239 0018 292B     		cmp	r3, #41
 8240 001a 12D1     		bne	.L416
3832:../../Drivers/STM32F7xx_HAL_Driver/Src/stm32f7xx_hal_i2c.c ****   {
3833:../../Drivers/STM32F7xx_HAL_Driver/Src/stm32f7xx_hal_i2c.c ****     /* Remove HAL_I2C_STATE_SLAVE_BUSY_TX, keep only HAL_I2C_STATE_LISTEN */
3834:../../Drivers/STM32F7xx_HAL_Driver/Src/stm32f7xx_hal_i2c.c ****     hi2c->State         = HAL_I2C_STATE_LISTEN;
 8241              		.loc 1 3834 0
 8242 001c 7B68     		ldr	r3, [r7, #4]
 8243 001e 2822     		movs	r2, #40
 8244 0020 83F84120 		strb	r2, [r3, #65]
3835:../../Drivers/STM32F7xx_HAL_Driver/Src/stm32f7xx_hal_i2c.c ****     hi2c->PreviousState = I2C_STATE_SLAVE_BUSY_TX;
 8245              		.loc 1 3835 0
 8246 0024 7B68     		ldr	r3, [r7, #4]
 8247 0026 2122     		movs	r2, #33
 8248 0028 1A63     		str	r2, [r3, #48]
3836:../../Drivers/STM32F7xx_HAL_Driver/Src/stm32f7xx_hal_i2c.c ****     
3837:../../Drivers/STM32F7xx_HAL_Driver/Src/stm32f7xx_hal_i2c.c ****     /* Disable Interrupts */
3838:../../Drivers/STM32F7xx_HAL_Driver/Src/stm32f7xx_hal_i2c.c ****     I2C_Disable_IRQ(hi2c, I2C_XFER_TX_IT);
 8249              		.loc 1 3838 0
 8250 002a 7868     		ldr	r0, [r7, #4]
 8251 002c 0121     		movs	r1, #1
 8252 002e FFF7FEFF 		bl	I2C_Disable_IRQ
3839:../../Drivers/STM32F7xx_HAL_Driver/Src/stm32f7xx_hal_i2c.c ****     
3840:../../Drivers/STM32F7xx_HAL_Driver/Src/stm32f7xx_hal_i2c.c ****     /* Process Unlocked */
3841:../../Drivers/STM32F7xx_HAL_Driver/Src/stm32f7xx_hal_i2c.c ****     __HAL_UNLOCK(hi2c);
 8253              		.loc 1 3841 0
 8254 0032 7B68     		ldr	r3, [r7, #4]
 8255 0034 0022     		movs	r2, #0
 8256 0036 83F84020 		strb	r2, [r3, #64]
3842:../../Drivers/STM32F7xx_HAL_Driver/Src/stm32f7xx_hal_i2c.c ****     
3843:../../Drivers/STM32F7xx_HAL_Driver/Src/stm32f7xx_hal_i2c.c ****     /* Call the Tx complete callback to inform upper layer of the end of transmit process */
3844:../../Drivers/STM32F7xx_HAL_Driver/Src/stm32f7xx_hal_i2c.c ****     HAL_I2C_SlaveTxCpltCallback(hi2c);
 8257              		.loc 1 3844 0
 8258 003a 7868     		ldr	r0, [r7, #4]
 8259 003c FFF7FEFF 		bl	HAL_I2C_SlaveTxCpltCallback
 8260 0040 17E0     		b	.L415
 8261              	.L416:
3845:../../Drivers/STM32F7xx_HAL_Driver/Src/stm32f7xx_hal_i2c.c ****   }
3846:../../Drivers/STM32F7xx_HAL_Driver/Src/stm32f7xx_hal_i2c.c ****   
3847:../../Drivers/STM32F7xx_HAL_Driver/Src/stm32f7xx_hal_i2c.c ****   else if(hi2c->State == HAL_I2C_STATE_BUSY_RX_LISTEN)
 8262              		.loc 1 3847 0
 8263 0042 7B68     		ldr	r3, [r7, #4]
 8264 0044 93F84130 		ldrb	r3, [r3, #65]
 8265 0048 DBB2     		uxtb	r3, r3
 8266 004a 2A2B     		cmp	r3, #42
 8267 004c 11D1     		bne	.L415
ARM GAS  /tmp/cczIhzQ0.s 			page 212


3848:../../Drivers/STM32F7xx_HAL_Driver/Src/stm32f7xx_hal_i2c.c ****   {
3849:../../Drivers/STM32F7xx_HAL_Driver/Src/stm32f7xx_hal_i2c.c ****     /* Remove HAL_I2C_STATE_SLAVE_BUSY_RX, keep only HAL_I2C_STATE_LISTEN */
3850:../../Drivers/STM32F7xx_HAL_Driver/Src/stm32f7xx_hal_i2c.c ****     hi2c->State         = HAL_I2C_STATE_LISTEN;
 8268              		.loc 1 3850 0
 8269 004e 7B68     		ldr	r3, [r7, #4]
 8270 0050 2822     		movs	r2, #40
 8271 0052 83F84120 		strb	r2, [r3, #65]
3851:../../Drivers/STM32F7xx_HAL_Driver/Src/stm32f7xx_hal_i2c.c ****     hi2c->PreviousState = I2C_STATE_SLAVE_BUSY_RX;
 8272              		.loc 1 3851 0
 8273 0056 7B68     		ldr	r3, [r7, #4]
 8274 0058 2222     		movs	r2, #34
 8275 005a 1A63     		str	r2, [r3, #48]
3852:../../Drivers/STM32F7xx_HAL_Driver/Src/stm32f7xx_hal_i2c.c ****     
3853:../../Drivers/STM32F7xx_HAL_Driver/Src/stm32f7xx_hal_i2c.c ****     /* Disable Interrupts */
3854:../../Drivers/STM32F7xx_HAL_Driver/Src/stm32f7xx_hal_i2c.c ****     I2C_Disable_IRQ(hi2c, I2C_XFER_RX_IT);
 8276              		.loc 1 3854 0
 8277 005c 7868     		ldr	r0, [r7, #4]
 8278 005e 0221     		movs	r1, #2
 8279 0060 FFF7FEFF 		bl	I2C_Disable_IRQ
3855:../../Drivers/STM32F7xx_HAL_Driver/Src/stm32f7xx_hal_i2c.c ****     
3856:../../Drivers/STM32F7xx_HAL_Driver/Src/stm32f7xx_hal_i2c.c ****     /* Process Unlocked */
3857:../../Drivers/STM32F7xx_HAL_Driver/Src/stm32f7xx_hal_i2c.c ****     __HAL_UNLOCK(hi2c);
 8280              		.loc 1 3857 0
 8281 0064 7B68     		ldr	r3, [r7, #4]
 8282 0066 0022     		movs	r2, #0
 8283 0068 83F84020 		strb	r2, [r3, #64]
3858:../../Drivers/STM32F7xx_HAL_Driver/Src/stm32f7xx_hal_i2c.c ****     
3859:../../Drivers/STM32F7xx_HAL_Driver/Src/stm32f7xx_hal_i2c.c ****     /* Call the Rx complete callback to inform upper layer of the end of receive process */
3860:../../Drivers/STM32F7xx_HAL_Driver/Src/stm32f7xx_hal_i2c.c ****     HAL_I2C_SlaveRxCpltCallback(hi2c);
 8284              		.loc 1 3860 0
 8285 006c 7868     		ldr	r0, [r7, #4]
 8286 006e FFF7FEFF 		bl	HAL_I2C_SlaveRxCpltCallback
 8287              	.L415:
3861:../../Drivers/STM32F7xx_HAL_Driver/Src/stm32f7xx_hal_i2c.c ****   }
3862:../../Drivers/STM32F7xx_HAL_Driver/Src/stm32f7xx_hal_i2c.c **** }
 8288              		.loc 1 3862 0
 8289 0072 0837     		adds	r7, r7, #8
 8290              	.LCFI283:
 8291              		.cfi_def_cfa_offset 8
 8292 0074 BD46     		mov	sp, r7
 8293              	.LCFI284:
 8294              		.cfi_def_cfa_register 13
 8295              		@ sp needed
 8296 0076 80BD     		pop	{r7, pc}
 8297              		.cfi_endproc
 8298              	.LFE188:
 8300              		.section	.text.I2C_ITMasterCplt,"ax",%progbits
 8301              		.align	2
 8302              		.thumb
 8303              		.thumb_func
 8305              	I2C_ITMasterCplt:
 8306              	.LFB189:
3863:../../Drivers/STM32F7xx_HAL_Driver/Src/stm32f7xx_hal_i2c.c **** 
3864:../../Drivers/STM32F7xx_HAL_Driver/Src/stm32f7xx_hal_i2c.c **** /**
3865:../../Drivers/STM32F7xx_HAL_Driver/Src/stm32f7xx_hal_i2c.c ****   * @brief  I2C Master complete process.
3866:../../Drivers/STM32F7xx_HAL_Driver/Src/stm32f7xx_hal_i2c.c ****   * @param  hi2c: I2C handle.
3867:../../Drivers/STM32F7xx_HAL_Driver/Src/stm32f7xx_hal_i2c.c ****   * @param  ITFlags: Interrupt flags to handle.
ARM GAS  /tmp/cczIhzQ0.s 			page 213


3868:../../Drivers/STM32F7xx_HAL_Driver/Src/stm32f7xx_hal_i2c.c ****   * @retval None
3869:../../Drivers/STM32F7xx_HAL_Driver/Src/stm32f7xx_hal_i2c.c ****   */
3870:../../Drivers/STM32F7xx_HAL_Driver/Src/stm32f7xx_hal_i2c.c **** static void I2C_ITMasterCplt(I2C_HandleTypeDef *hi2c, uint32_t ITFlags)
3871:../../Drivers/STM32F7xx_HAL_Driver/Src/stm32f7xx_hal_i2c.c **** {
 8307              		.loc 1 3871 0
 8308              		.cfi_startproc
 8309              		@ args = 0, pretend = 0, frame = 8
 8310              		@ frame_needed = 1, uses_anonymous_args = 0
 8311 0000 80B5     		push	{r7, lr}
 8312              	.LCFI285:
 8313              		.cfi_def_cfa_offset 8
 8314              		.cfi_offset 7, -8
 8315              		.cfi_offset 14, -4
 8316 0002 82B0     		sub	sp, sp, #8
 8317              	.LCFI286:
 8318              		.cfi_def_cfa_offset 16
 8319 0004 00AF     		add	r7, sp, #0
 8320              	.LCFI287:
 8321              		.cfi_def_cfa_register 7
 8322 0006 7860     		str	r0, [r7, #4]
 8323 0008 3960     		str	r1, [r7]
3872:../../Drivers/STM32F7xx_HAL_Driver/Src/stm32f7xx_hal_i2c.c ****   /* Clear STOP Flag */
3873:../../Drivers/STM32F7xx_HAL_Driver/Src/stm32f7xx_hal_i2c.c ****   __HAL_I2C_CLEAR_FLAG(hi2c, I2C_FLAG_STOPF);
 8324              		.loc 1 3873 0
 8325 000a 7B68     		ldr	r3, [r7, #4]
 8326 000c 1B68     		ldr	r3, [r3]
 8327 000e 2022     		movs	r2, #32
 8328 0010 DA61     		str	r2, [r3, #28]
3874:../../Drivers/STM32F7xx_HAL_Driver/Src/stm32f7xx_hal_i2c.c ****   
3875:../../Drivers/STM32F7xx_HAL_Driver/Src/stm32f7xx_hal_i2c.c ****   /* Clear Configuration Register 2 */
3876:../../Drivers/STM32F7xx_HAL_Driver/Src/stm32f7xx_hal_i2c.c ****   I2C_RESET_CR2(hi2c);
 8329              		.loc 1 3876 0
 8330 0012 7B68     		ldr	r3, [r7, #4]
 8331 0014 1A68     		ldr	r2, [r3]
 8332 0016 7B68     		ldr	r3, [r7, #4]
 8333 0018 1B68     		ldr	r3, [r3]
 8334 001a 5968     		ldr	r1, [r3, #4]
 8335 001c 3F4B     		ldr	r3, .L426
 8336 001e 0B40     		ands	r3, r3, r1
 8337 0020 5360     		str	r3, [r2, #4]
3877:../../Drivers/STM32F7xx_HAL_Driver/Src/stm32f7xx_hal_i2c.c ****   
3878:../../Drivers/STM32F7xx_HAL_Driver/Src/stm32f7xx_hal_i2c.c ****   /* Reset handle parameters */
3879:../../Drivers/STM32F7xx_HAL_Driver/Src/stm32f7xx_hal_i2c.c ****   hi2c->PreviousState = I2C_STATE_NONE;
 8338              		.loc 1 3879 0
 8339 0022 7B68     		ldr	r3, [r7, #4]
 8340 0024 0022     		movs	r2, #0
 8341 0026 1A63     		str	r2, [r3, #48]
3880:../../Drivers/STM32F7xx_HAL_Driver/Src/stm32f7xx_hal_i2c.c ****   hi2c->XferISR       = NULL;
 8342              		.loc 1 3880 0
 8343 0028 7B68     		ldr	r3, [r7, #4]
 8344 002a 0022     		movs	r2, #0
 8345 002c 5A63     		str	r2, [r3, #52]
3881:../../Drivers/STM32F7xx_HAL_Driver/Src/stm32f7xx_hal_i2c.c ****   hi2c->XferOptions   = I2C_NO_OPTION_FRAME;
 8346              		.loc 1 3881 0
 8347 002e 7B68     		ldr	r3, [r7, #4]
 8348 0030 3B4A     		ldr	r2, .L426+4
 8349 0032 DA62     		str	r2, [r3, #44]
ARM GAS  /tmp/cczIhzQ0.s 			page 214


3882:../../Drivers/STM32F7xx_HAL_Driver/Src/stm32f7xx_hal_i2c.c ****   
3883:../../Drivers/STM32F7xx_HAL_Driver/Src/stm32f7xx_hal_i2c.c ****   if((ITFlags & I2C_FLAG_AF) != RESET)
 8350              		.loc 1 3883 0
 8351 0034 3B68     		ldr	r3, [r7]
 8352 0036 03F01003 		and	r3, r3, #16
 8353 003a 002B     		cmp	r3, #0
 8354 003c 09D0     		beq	.L419
3884:../../Drivers/STM32F7xx_HAL_Driver/Src/stm32f7xx_hal_i2c.c ****   {
3885:../../Drivers/STM32F7xx_HAL_Driver/Src/stm32f7xx_hal_i2c.c ****     /* Clear NACK Flag */
3886:../../Drivers/STM32F7xx_HAL_Driver/Src/stm32f7xx_hal_i2c.c ****     __HAL_I2C_CLEAR_FLAG(hi2c, I2C_FLAG_AF);
 8355              		.loc 1 3886 0
 8356 003e 7B68     		ldr	r3, [r7, #4]
 8357 0040 1B68     		ldr	r3, [r3]
 8358 0042 1022     		movs	r2, #16
 8359 0044 DA61     		str	r2, [r3, #28]
3887:../../Drivers/STM32F7xx_HAL_Driver/Src/stm32f7xx_hal_i2c.c ****     
3888:../../Drivers/STM32F7xx_HAL_Driver/Src/stm32f7xx_hal_i2c.c ****     /* Set acknowledge error code */
3889:../../Drivers/STM32F7xx_HAL_Driver/Src/stm32f7xx_hal_i2c.c ****     hi2c->ErrorCode |= HAL_I2C_ERROR_AF;
 8360              		.loc 1 3889 0
 8361 0046 7B68     		ldr	r3, [r7, #4]
 8362 0048 5B6C     		ldr	r3, [r3, #68]
 8363 004a 43F00402 		orr	r2, r3, #4
 8364 004e 7B68     		ldr	r3, [r7, #4]
 8365 0050 5A64     		str	r2, [r3, #68]
 8366              	.L419:
3890:../../Drivers/STM32F7xx_HAL_Driver/Src/stm32f7xx_hal_i2c.c ****   }
3891:../../Drivers/STM32F7xx_HAL_Driver/Src/stm32f7xx_hal_i2c.c ****   
3892:../../Drivers/STM32F7xx_HAL_Driver/Src/stm32f7xx_hal_i2c.c ****   /* Flush TX register */
3893:../../Drivers/STM32F7xx_HAL_Driver/Src/stm32f7xx_hal_i2c.c ****   I2C_Flush_TXDR(hi2c);
 8367              		.loc 1 3893 0
 8368 0052 7868     		ldr	r0, [r7, #4]
 8369 0054 FFF7FEFF 		bl	I2C_Flush_TXDR
3894:../../Drivers/STM32F7xx_HAL_Driver/Src/stm32f7xx_hal_i2c.c ****   
3895:../../Drivers/STM32F7xx_HAL_Driver/Src/stm32f7xx_hal_i2c.c ****   /* Disable Interrupts */
3896:../../Drivers/STM32F7xx_HAL_Driver/Src/stm32f7xx_hal_i2c.c ****   I2C_Disable_IRQ(hi2c, I2C_XFER_TX_IT| I2C_XFER_RX_IT);
 8370              		.loc 1 3896 0
 8371 0058 7868     		ldr	r0, [r7, #4]
 8372 005a 0321     		movs	r1, #3
 8373 005c FFF7FEFF 		bl	I2C_Disable_IRQ
3897:../../Drivers/STM32F7xx_HAL_Driver/Src/stm32f7xx_hal_i2c.c ****   
3898:../../Drivers/STM32F7xx_HAL_Driver/Src/stm32f7xx_hal_i2c.c ****   /* Call the corresponding callback to inform upper layer of End of Transfer */
3899:../../Drivers/STM32F7xx_HAL_Driver/Src/stm32f7xx_hal_i2c.c ****   if(hi2c->ErrorCode != HAL_I2C_ERROR_NONE)
 8374              		.loc 1 3899 0
 8375 0060 7B68     		ldr	r3, [r7, #4]
 8376 0062 5B6C     		ldr	r3, [r3, #68]
 8377 0064 002B     		cmp	r3, #0
 8378 0066 06D0     		beq	.L420
3900:../../Drivers/STM32F7xx_HAL_Driver/Src/stm32f7xx_hal_i2c.c ****   {
3901:../../Drivers/STM32F7xx_HAL_Driver/Src/stm32f7xx_hal_i2c.c ****     /* Call the corresponding callback to inform upper layer of End of Transfer */
3902:../../Drivers/STM32F7xx_HAL_Driver/Src/stm32f7xx_hal_i2c.c ****     I2C_ITError(hi2c, hi2c->ErrorCode);
 8379              		.loc 1 3902 0
 8380 0068 7B68     		ldr	r3, [r7, #4]
 8381 006a 5B6C     		ldr	r3, [r3, #68]
 8382 006c 7868     		ldr	r0, [r7, #4]
 8383 006e 1946     		mov	r1, r3
 8384 0070 FFF7FEFF 		bl	I2C_ITError
 8385 0074 4EE0     		b	.L418
ARM GAS  /tmp/cczIhzQ0.s 			page 215


 8386              	.L420:
3903:../../Drivers/STM32F7xx_HAL_Driver/Src/stm32f7xx_hal_i2c.c ****   }
3904:../../Drivers/STM32F7xx_HAL_Driver/Src/stm32f7xx_hal_i2c.c ****   /* hi2c->State == HAL_I2C_STATE_BUSY_TX */
3905:../../Drivers/STM32F7xx_HAL_Driver/Src/stm32f7xx_hal_i2c.c ****   else if(hi2c->State == HAL_I2C_STATE_BUSY_TX)
 8387              		.loc 1 3905 0
 8388 0076 7B68     		ldr	r3, [r7, #4]
 8389 0078 93F84130 		ldrb	r3, [r3, #65]
 8390 007c DBB2     		uxtb	r3, r3
 8391 007e 212B     		cmp	r3, #33
 8392 0080 21D1     		bne	.L422
3906:../../Drivers/STM32F7xx_HAL_Driver/Src/stm32f7xx_hal_i2c.c ****   {
3907:../../Drivers/STM32F7xx_HAL_Driver/Src/stm32f7xx_hal_i2c.c ****     hi2c->State = HAL_I2C_STATE_READY;
 8393              		.loc 1 3907 0
 8394 0082 7B68     		ldr	r3, [r7, #4]
 8395 0084 2022     		movs	r2, #32
 8396 0086 83F84120 		strb	r2, [r3, #65]
3908:../../Drivers/STM32F7xx_HAL_Driver/Src/stm32f7xx_hal_i2c.c ****     
3909:../../Drivers/STM32F7xx_HAL_Driver/Src/stm32f7xx_hal_i2c.c ****     if (hi2c->Mode == HAL_I2C_MODE_MEM)
 8397              		.loc 1 3909 0
 8398 008a 7B68     		ldr	r3, [r7, #4]
 8399 008c 93F84230 		ldrb	r3, [r3, #66]
 8400 0090 DBB2     		uxtb	r3, r3
 8401 0092 402B     		cmp	r3, #64
 8402 0094 0BD1     		bne	.L423
3910:../../Drivers/STM32F7xx_HAL_Driver/Src/stm32f7xx_hal_i2c.c ****     {
3911:../../Drivers/STM32F7xx_HAL_Driver/Src/stm32f7xx_hal_i2c.c ****       hi2c->Mode = HAL_I2C_MODE_NONE;
 8403              		.loc 1 3911 0
 8404 0096 7B68     		ldr	r3, [r7, #4]
 8405 0098 0022     		movs	r2, #0
 8406 009a 83F84220 		strb	r2, [r3, #66]
3912:../../Drivers/STM32F7xx_HAL_Driver/Src/stm32f7xx_hal_i2c.c ****       
3913:../../Drivers/STM32F7xx_HAL_Driver/Src/stm32f7xx_hal_i2c.c ****       /* Process Unlocked */
3914:../../Drivers/STM32F7xx_HAL_Driver/Src/stm32f7xx_hal_i2c.c ****       __HAL_UNLOCK(hi2c);
 8407              		.loc 1 3914 0
 8408 009e 7B68     		ldr	r3, [r7, #4]
 8409 00a0 0022     		movs	r2, #0
 8410 00a2 83F84020 		strb	r2, [r3, #64]
3915:../../Drivers/STM32F7xx_HAL_Driver/Src/stm32f7xx_hal_i2c.c ****       
3916:../../Drivers/STM32F7xx_HAL_Driver/Src/stm32f7xx_hal_i2c.c ****       /* Call the corresponding callback to inform upper layer of End of Transfer */
3917:../../Drivers/STM32F7xx_HAL_Driver/Src/stm32f7xx_hal_i2c.c ****       HAL_I2C_MemTxCpltCallback(hi2c);
 8411              		.loc 1 3917 0
 8412 00a6 7868     		ldr	r0, [r7, #4]
 8413 00a8 FFF7FEFF 		bl	HAL_I2C_MemTxCpltCallback
 8414 00ac 32E0     		b	.L418
 8415              	.L423:
3918:../../Drivers/STM32F7xx_HAL_Driver/Src/stm32f7xx_hal_i2c.c ****     }
3919:../../Drivers/STM32F7xx_HAL_Driver/Src/stm32f7xx_hal_i2c.c ****     else
3920:../../Drivers/STM32F7xx_HAL_Driver/Src/stm32f7xx_hal_i2c.c ****     {
3921:../../Drivers/STM32F7xx_HAL_Driver/Src/stm32f7xx_hal_i2c.c ****       hi2c->Mode = HAL_I2C_MODE_NONE;
 8416              		.loc 1 3921 0
 8417 00ae 7B68     		ldr	r3, [r7, #4]
 8418 00b0 0022     		movs	r2, #0
 8419 00b2 83F84220 		strb	r2, [r3, #66]
3922:../../Drivers/STM32F7xx_HAL_Driver/Src/stm32f7xx_hal_i2c.c ****       
3923:../../Drivers/STM32F7xx_HAL_Driver/Src/stm32f7xx_hal_i2c.c ****       /* Process Unlocked */
3924:../../Drivers/STM32F7xx_HAL_Driver/Src/stm32f7xx_hal_i2c.c ****       __HAL_UNLOCK(hi2c);
 8420              		.loc 1 3924 0
ARM GAS  /tmp/cczIhzQ0.s 			page 216


 8421 00b6 7B68     		ldr	r3, [r7, #4]
 8422 00b8 0022     		movs	r2, #0
 8423 00ba 83F84020 		strb	r2, [r3, #64]
3925:../../Drivers/STM32F7xx_HAL_Driver/Src/stm32f7xx_hal_i2c.c ****       
3926:../../Drivers/STM32F7xx_HAL_Driver/Src/stm32f7xx_hal_i2c.c ****       /* Call the corresponding callback to inform upper layer of End of Transfer */
3927:../../Drivers/STM32F7xx_HAL_Driver/Src/stm32f7xx_hal_i2c.c ****       HAL_I2C_MasterTxCpltCallback(hi2c);
 8424              		.loc 1 3927 0
 8425 00be 7868     		ldr	r0, [r7, #4]
 8426 00c0 FFF7FEFF 		bl	HAL_I2C_MasterTxCpltCallback
 8427 00c4 26E0     		b	.L418
 8428              	.L422:
3928:../../Drivers/STM32F7xx_HAL_Driver/Src/stm32f7xx_hal_i2c.c ****     }
3929:../../Drivers/STM32F7xx_HAL_Driver/Src/stm32f7xx_hal_i2c.c ****   }
3930:../../Drivers/STM32F7xx_HAL_Driver/Src/stm32f7xx_hal_i2c.c ****   /* hi2c->State == HAL_I2C_STATE_BUSY_RX */
3931:../../Drivers/STM32F7xx_HAL_Driver/Src/stm32f7xx_hal_i2c.c ****   else if(hi2c->State == HAL_I2C_STATE_BUSY_RX)
 8429              		.loc 1 3931 0
 8430 00c6 7B68     		ldr	r3, [r7, #4]
 8431 00c8 93F84130 		ldrb	r3, [r3, #65]
 8432 00cc DBB2     		uxtb	r3, r3
 8433 00ce 222B     		cmp	r3, #34
 8434 00d0 20D1     		bne	.L418
3932:../../Drivers/STM32F7xx_HAL_Driver/Src/stm32f7xx_hal_i2c.c ****   {
3933:../../Drivers/STM32F7xx_HAL_Driver/Src/stm32f7xx_hal_i2c.c ****     hi2c->State = HAL_I2C_STATE_READY;
 8435              		.loc 1 3933 0
 8436 00d2 7B68     		ldr	r3, [r7, #4]
 8437 00d4 2022     		movs	r2, #32
 8438 00d6 83F84120 		strb	r2, [r3, #65]
3934:../../Drivers/STM32F7xx_HAL_Driver/Src/stm32f7xx_hal_i2c.c ****     
3935:../../Drivers/STM32F7xx_HAL_Driver/Src/stm32f7xx_hal_i2c.c ****     if (hi2c->Mode == HAL_I2C_MODE_MEM)
 8439              		.loc 1 3935 0
 8440 00da 7B68     		ldr	r3, [r7, #4]
 8441 00dc 93F84230 		ldrb	r3, [r3, #66]
 8442 00e0 DBB2     		uxtb	r3, r3
 8443 00e2 402B     		cmp	r3, #64
 8444 00e4 0BD1     		bne	.L425
3936:../../Drivers/STM32F7xx_HAL_Driver/Src/stm32f7xx_hal_i2c.c ****     {
3937:../../Drivers/STM32F7xx_HAL_Driver/Src/stm32f7xx_hal_i2c.c ****       hi2c->Mode = HAL_I2C_MODE_NONE;
 8445              		.loc 1 3937 0
 8446 00e6 7B68     		ldr	r3, [r7, #4]
 8447 00e8 0022     		movs	r2, #0
 8448 00ea 83F84220 		strb	r2, [r3, #66]
3938:../../Drivers/STM32F7xx_HAL_Driver/Src/stm32f7xx_hal_i2c.c ****       
3939:../../Drivers/STM32F7xx_HAL_Driver/Src/stm32f7xx_hal_i2c.c ****       /* Process Unlocked */
3940:../../Drivers/STM32F7xx_HAL_Driver/Src/stm32f7xx_hal_i2c.c ****       __HAL_UNLOCK(hi2c);
 8449              		.loc 1 3940 0
 8450 00ee 7B68     		ldr	r3, [r7, #4]
 8451 00f0 0022     		movs	r2, #0
 8452 00f2 83F84020 		strb	r2, [r3, #64]
3941:../../Drivers/STM32F7xx_HAL_Driver/Src/stm32f7xx_hal_i2c.c ****       
3942:../../Drivers/STM32F7xx_HAL_Driver/Src/stm32f7xx_hal_i2c.c ****       HAL_I2C_MemRxCpltCallback(hi2c);
 8453              		.loc 1 3942 0
 8454 00f6 7868     		ldr	r0, [r7, #4]
 8455 00f8 FFF7FEFF 		bl	HAL_I2C_MemRxCpltCallback
 8456 00fc 0AE0     		b	.L418
 8457              	.L425:
3943:../../Drivers/STM32F7xx_HAL_Driver/Src/stm32f7xx_hal_i2c.c ****     }
3944:../../Drivers/STM32F7xx_HAL_Driver/Src/stm32f7xx_hal_i2c.c ****     else
ARM GAS  /tmp/cczIhzQ0.s 			page 217


3945:../../Drivers/STM32F7xx_HAL_Driver/Src/stm32f7xx_hal_i2c.c ****     {
3946:../../Drivers/STM32F7xx_HAL_Driver/Src/stm32f7xx_hal_i2c.c ****       hi2c->Mode = HAL_I2C_MODE_NONE;
 8458              		.loc 1 3946 0
 8459 00fe 7B68     		ldr	r3, [r7, #4]
 8460 0100 0022     		movs	r2, #0
 8461 0102 83F84220 		strb	r2, [r3, #66]
3947:../../Drivers/STM32F7xx_HAL_Driver/Src/stm32f7xx_hal_i2c.c ****       
3948:../../Drivers/STM32F7xx_HAL_Driver/Src/stm32f7xx_hal_i2c.c ****       /* Process Unlocked */
3949:../../Drivers/STM32F7xx_HAL_Driver/Src/stm32f7xx_hal_i2c.c ****       __HAL_UNLOCK(hi2c);
 8462              		.loc 1 3949 0
 8463 0106 7B68     		ldr	r3, [r7, #4]
 8464 0108 0022     		movs	r2, #0
 8465 010a 83F84020 		strb	r2, [r3, #64]
3950:../../Drivers/STM32F7xx_HAL_Driver/Src/stm32f7xx_hal_i2c.c ****       
3951:../../Drivers/STM32F7xx_HAL_Driver/Src/stm32f7xx_hal_i2c.c ****       HAL_I2C_MasterRxCpltCallback(hi2c);
 8466              		.loc 1 3951 0
 8467 010e 7868     		ldr	r0, [r7, #4]
 8468 0110 FFF7FEFF 		bl	HAL_I2C_MasterRxCpltCallback
 8469              	.L418:
3952:../../Drivers/STM32F7xx_HAL_Driver/Src/stm32f7xx_hal_i2c.c ****     }
3953:../../Drivers/STM32F7xx_HAL_Driver/Src/stm32f7xx_hal_i2c.c ****   }
3954:../../Drivers/STM32F7xx_HAL_Driver/Src/stm32f7xx_hal_i2c.c **** }
 8470              		.loc 1 3954 0
 8471 0114 0837     		adds	r7, r7, #8
 8472              	.LCFI288:
 8473              		.cfi_def_cfa_offset 8
 8474 0116 BD46     		mov	sp, r7
 8475              	.LCFI289:
 8476              		.cfi_def_cfa_register 13
 8477              		@ sp needed
 8478 0118 80BD     		pop	{r7, pc}
 8479              	.L427:
 8480 011a 00BF     		.align	2
 8481              	.L426:
 8482 011c 00E800FE 		.word	-33495040
 8483 0120 0000FFFF 		.word	-65536
 8484              		.cfi_endproc
 8485              	.LFE189:
 8487              		.section	.text.I2C_ITSlaveCplt,"ax",%progbits
 8488              		.align	2
 8489              		.thumb
 8490              		.thumb_func
 8492              	I2C_ITSlaveCplt:
 8493              	.LFB190:
3955:../../Drivers/STM32F7xx_HAL_Driver/Src/stm32f7xx_hal_i2c.c **** 
3956:../../Drivers/STM32F7xx_HAL_Driver/Src/stm32f7xx_hal_i2c.c **** /**
3957:../../Drivers/STM32F7xx_HAL_Driver/Src/stm32f7xx_hal_i2c.c ****   * @brief  I2C Slave complete process.
3958:../../Drivers/STM32F7xx_HAL_Driver/Src/stm32f7xx_hal_i2c.c ****   * @param  hi2c: I2C handle.
3959:../../Drivers/STM32F7xx_HAL_Driver/Src/stm32f7xx_hal_i2c.c ****   * @param  ITFlags: Interrupt flags to handle.
3960:../../Drivers/STM32F7xx_HAL_Driver/Src/stm32f7xx_hal_i2c.c ****   * @retval None
3961:../../Drivers/STM32F7xx_HAL_Driver/Src/stm32f7xx_hal_i2c.c ****   */
3962:../../Drivers/STM32F7xx_HAL_Driver/Src/stm32f7xx_hal_i2c.c **** static void I2C_ITSlaveCplt(I2C_HandleTypeDef *hi2c, uint32_t ITFlags)
3963:../../Drivers/STM32F7xx_HAL_Driver/Src/stm32f7xx_hal_i2c.c **** {
 8494              		.loc 1 3963 0
 8495              		.cfi_startproc
 8496              		@ args = 0, pretend = 0, frame = 8
 8497              		@ frame_needed = 1, uses_anonymous_args = 0
ARM GAS  /tmp/cczIhzQ0.s 			page 218


 8498 0000 80B5     		push	{r7, lr}
 8499              	.LCFI290:
 8500              		.cfi_def_cfa_offset 8
 8501              		.cfi_offset 7, -8
 8502              		.cfi_offset 14, -4
 8503 0002 82B0     		sub	sp, sp, #8
 8504              	.LCFI291:
 8505              		.cfi_def_cfa_offset 16
 8506 0004 00AF     		add	r7, sp, #0
 8507              	.LCFI292:
 8508              		.cfi_def_cfa_register 7
 8509 0006 7860     		str	r0, [r7, #4]
 8510 0008 3960     		str	r1, [r7]
3964:../../Drivers/STM32F7xx_HAL_Driver/Src/stm32f7xx_hal_i2c.c ****   /* Clear STOP Flag */
3965:../../Drivers/STM32F7xx_HAL_Driver/Src/stm32f7xx_hal_i2c.c ****   __HAL_I2C_CLEAR_FLAG(hi2c, I2C_FLAG_STOPF);
 8511              		.loc 1 3965 0
 8512 000a 7B68     		ldr	r3, [r7, #4]
 8513 000c 1B68     		ldr	r3, [r3]
 8514 000e 2022     		movs	r2, #32
 8515 0010 DA61     		str	r2, [r3, #28]
3966:../../Drivers/STM32F7xx_HAL_Driver/Src/stm32f7xx_hal_i2c.c ****   
3967:../../Drivers/STM32F7xx_HAL_Driver/Src/stm32f7xx_hal_i2c.c ****   /* Clear ADDR flag */
3968:../../Drivers/STM32F7xx_HAL_Driver/Src/stm32f7xx_hal_i2c.c ****   __HAL_I2C_CLEAR_FLAG(hi2c,I2C_FLAG_ADDR);
 8516              		.loc 1 3968 0
 8517 0012 7B68     		ldr	r3, [r7, #4]
 8518 0014 1B68     		ldr	r3, [r3]
 8519 0016 0822     		movs	r2, #8
 8520 0018 DA61     		str	r2, [r3, #28]
3969:../../Drivers/STM32F7xx_HAL_Driver/Src/stm32f7xx_hal_i2c.c ****   
3970:../../Drivers/STM32F7xx_HAL_Driver/Src/stm32f7xx_hal_i2c.c ****   /* Disable all interrupts */
3971:../../Drivers/STM32F7xx_HAL_Driver/Src/stm32f7xx_hal_i2c.c ****   I2C_Disable_IRQ(hi2c, I2C_XFER_LISTEN_IT | I2C_XFER_TX_IT | I2C_XFER_RX_IT);
 8521              		.loc 1 3971 0
 8522 001a 7868     		ldr	r0, [r7, #4]
 8523 001c 0721     		movs	r1, #7
 8524 001e FFF7FEFF 		bl	I2C_Disable_IRQ
3972:../../Drivers/STM32F7xx_HAL_Driver/Src/stm32f7xx_hal_i2c.c ****   
3973:../../Drivers/STM32F7xx_HAL_Driver/Src/stm32f7xx_hal_i2c.c ****   /* Disable Address Acknowledge */
3974:../../Drivers/STM32F7xx_HAL_Driver/Src/stm32f7xx_hal_i2c.c ****   hi2c->Instance->CR2 |= I2C_CR2_NACK;
 8525              		.loc 1 3974 0
 8526 0022 7B68     		ldr	r3, [r7, #4]
 8527 0024 1B68     		ldr	r3, [r3]
 8528 0026 7A68     		ldr	r2, [r7, #4]
 8529 0028 1268     		ldr	r2, [r2]
 8530 002a 5268     		ldr	r2, [r2, #4]
 8531 002c 42F40042 		orr	r2, r2, #32768
 8532 0030 5A60     		str	r2, [r3, #4]
3975:../../Drivers/STM32F7xx_HAL_Driver/Src/stm32f7xx_hal_i2c.c ****   
3976:../../Drivers/STM32F7xx_HAL_Driver/Src/stm32f7xx_hal_i2c.c ****   /* Clear Configuration Register 2 */
3977:../../Drivers/STM32F7xx_HAL_Driver/Src/stm32f7xx_hal_i2c.c ****   I2C_RESET_CR2(hi2c);
 8533              		.loc 1 3977 0
 8534 0032 7B68     		ldr	r3, [r7, #4]
 8535 0034 1A68     		ldr	r2, [r3]
 8536 0036 7B68     		ldr	r3, [r7, #4]
 8537 0038 1B68     		ldr	r3, [r3]
 8538 003a 5968     		ldr	r1, [r3, #4]
 8539 003c 634B     		ldr	r3, .L440
 8540 003e 0B40     		ands	r3, r3, r1
ARM GAS  /tmp/cczIhzQ0.s 			page 219


 8541 0040 5360     		str	r3, [r2, #4]
3978:../../Drivers/STM32F7xx_HAL_Driver/Src/stm32f7xx_hal_i2c.c ****   
3979:../../Drivers/STM32F7xx_HAL_Driver/Src/stm32f7xx_hal_i2c.c ****   /* Flush TX register */
3980:../../Drivers/STM32F7xx_HAL_Driver/Src/stm32f7xx_hal_i2c.c ****   I2C_Flush_TXDR(hi2c);
 8542              		.loc 1 3980 0
 8543 0042 7868     		ldr	r0, [r7, #4]
 8544 0044 FFF7FEFF 		bl	I2C_Flush_TXDR
3981:../../Drivers/STM32F7xx_HAL_Driver/Src/stm32f7xx_hal_i2c.c ****   
3982:../../Drivers/STM32F7xx_HAL_Driver/Src/stm32f7xx_hal_i2c.c ****   /* If a DMA is ongoing, Update handle size context */
3983:../../Drivers/STM32F7xx_HAL_Driver/Src/stm32f7xx_hal_i2c.c ****   if(((hi2c->Instance->CR1 & I2C_CR1_TXDMAEN) == I2C_CR1_TXDMAEN) ||
 8545              		.loc 1 3983 0
 8546 0048 7B68     		ldr	r3, [r7, #4]
 8547 004a 1B68     		ldr	r3, [r3]
 8548 004c 1B68     		ldr	r3, [r3]
 8549 004e 03F48043 		and	r3, r3, #16384
 8550 0052 002B     		cmp	r3, #0
 8551 0054 06D1     		bne	.L429
3984:../../Drivers/STM32F7xx_HAL_Driver/Src/stm32f7xx_hal_i2c.c ****      ((hi2c->Instance->CR1 & I2C_CR1_RXDMAEN) == I2C_CR1_RXDMAEN))
 8552              		.loc 1 3984 0 discriminator 1
 8553 0056 7B68     		ldr	r3, [r7, #4]
 8554 0058 1B68     		ldr	r3, [r3]
 8555 005a 1B68     		ldr	r3, [r3]
 8556 005c 03F40043 		and	r3, r3, #32768
3983:../../Drivers/STM32F7xx_HAL_Driver/Src/stm32f7xx_hal_i2c.c ****      ((hi2c->Instance->CR1 & I2C_CR1_RXDMAEN) == I2C_CR1_RXDMAEN))
 8557              		.loc 1 3983 0 discriminator 1
 8558 0060 002B     		cmp	r3, #0
 8559 0062 3CD0     		beq	.L430
 8560              	.L429:
3985:../../Drivers/STM32F7xx_HAL_Driver/Src/stm32f7xx_hal_i2c.c ****   {
3986:../../Drivers/STM32F7xx_HAL_Driver/Src/stm32f7xx_hal_i2c.c ****     if((hi2c->XferSize - I2C_GET_DMA_REMAIN_DATA(hi2c)) != hi2c->XferSize)
 8561              		.loc 1 3986 0
 8562 0064 7B68     		ldr	r3, [r7, #4]
 8563 0066 93F84130 		ldrb	r3, [r3, #65]
 8564 006a DBB2     		uxtb	r3, r3
 8565 006c 212B     		cmp	r3, #33
 8566 006e 09D1     		bne	.L431
 8567              		.loc 1 3986 0 is_stmt 0 discriminator 1
 8568 0070 7B68     		ldr	r3, [r7, #4]
 8569 0072 9B6B     		ldr	r3, [r3, #56]
 8570 0074 1B68     		ldr	r3, [r3]
 8571 0076 5B68     		ldr	r3, [r3, #4]
 8572 0078 002B     		cmp	r3, #0
 8573 007a 14BF     		ite	ne
 8574 007c 0123     		movne	r3, #1
 8575 007e 0023     		moveq	r3, #0
 8576 0080 DBB2     		uxtb	r3, r3
 8577 0082 08E0     		b	.L432
 8578              	.L431:
 8579              		.loc 1 3986 0 discriminator 2
 8580 0084 7B68     		ldr	r3, [r7, #4]
 8581 0086 DB6B     		ldr	r3, [r3, #60]
 8582 0088 1B68     		ldr	r3, [r3]
 8583 008a 5B68     		ldr	r3, [r3, #4]
 8584 008c 002B     		cmp	r3, #0
 8585 008e 14BF     		ite	ne
 8586 0090 0123     		movne	r3, #1
 8587 0092 0023     		moveq	r3, #0
ARM GAS  /tmp/cczIhzQ0.s 			page 220


 8588 0094 DBB2     		uxtb	r3, r3
 8589              	.L432:
 8590              		.loc 1 3986 0 discriminator 4
 8591 0096 002B     		cmp	r3, #0
 8592 0098 21D0     		beq	.L430
3987:../../Drivers/STM32F7xx_HAL_Driver/Src/stm32f7xx_hal_i2c.c ****     {
3988:../../Drivers/STM32F7xx_HAL_Driver/Src/stm32f7xx_hal_i2c.c ****       hi2c->XferSize = I2C_GET_DMA_REMAIN_DATA(hi2c);
 8593              		.loc 1 3988 0 is_stmt 1
 8594 009a 7B68     		ldr	r3, [r7, #4]
 8595 009c 93F84130 		ldrb	r3, [r3, #65]
 8596 00a0 DBB2     		uxtb	r3, r3
 8597 00a2 212B     		cmp	r3, #33
 8598 00a4 05D1     		bne	.L433
 8599              		.loc 1 3988 0 is_stmt 0 discriminator 1
 8600 00a6 7B68     		ldr	r3, [r7, #4]
 8601 00a8 9B6B     		ldr	r3, [r3, #56]
 8602 00aa 1B68     		ldr	r3, [r3]
 8603 00ac 5B68     		ldr	r3, [r3, #4]
 8604 00ae 9BB2     		uxth	r3, r3
 8605 00b0 04E0     		b	.L434
 8606              	.L433:
 8607              		.loc 1 3988 0 discriminator 2
 8608 00b2 7B68     		ldr	r3, [r7, #4]
 8609 00b4 DB6B     		ldr	r3, [r3, #60]
 8610 00b6 1B68     		ldr	r3, [r3]
 8611 00b8 5B68     		ldr	r3, [r3, #4]
 8612 00ba 9BB2     		uxth	r3, r3
 8613              	.L434:
 8614              		.loc 1 3988 0 discriminator 4
 8615 00bc 7A68     		ldr	r2, [r7, #4]
 8616 00be 1385     		strh	r3, [r2, #40]	@ movhi
3989:../../Drivers/STM32F7xx_HAL_Driver/Src/stm32f7xx_hal_i2c.c ****       hi2c->XferCount += hi2c->XferSize;
 8617              		.loc 1 3989 0 is_stmt 1 discriminator 4
 8618 00c0 7B68     		ldr	r3, [r7, #4]
 8619 00c2 5B8D     		ldrh	r3, [r3, #42]	@ movhi
 8620 00c4 9AB2     		uxth	r2, r3
 8621 00c6 7B68     		ldr	r3, [r7, #4]
 8622 00c8 1B8D     		ldrh	r3, [r3, #40]
 8623 00ca 1344     		add	r3, r3, r2
 8624 00cc 9AB2     		uxth	r2, r3
 8625 00ce 7B68     		ldr	r3, [r7, #4]
 8626 00d0 5A85     		strh	r2, [r3, #42]	@ movhi
3990:../../Drivers/STM32F7xx_HAL_Driver/Src/stm32f7xx_hal_i2c.c ****       
3991:../../Drivers/STM32F7xx_HAL_Driver/Src/stm32f7xx_hal_i2c.c ****       /* Set ErrorCode corresponding to a Non-Acknowledge */
3992:../../Drivers/STM32F7xx_HAL_Driver/Src/stm32f7xx_hal_i2c.c ****       hi2c->ErrorCode |= HAL_I2C_ERROR_AF;
 8627              		.loc 1 3992 0 discriminator 4
 8628 00d2 7B68     		ldr	r3, [r7, #4]
 8629 00d4 5B6C     		ldr	r3, [r3, #68]
 8630 00d6 43F00402 		orr	r2, r3, #4
 8631 00da 7B68     		ldr	r3, [r7, #4]
 8632 00dc 5A64     		str	r2, [r3, #68]
 8633              	.L430:
3993:../../Drivers/STM32F7xx_HAL_Driver/Src/stm32f7xx_hal_i2c.c ****     }
3994:../../Drivers/STM32F7xx_HAL_Driver/Src/stm32f7xx_hal_i2c.c ****   }
3995:../../Drivers/STM32F7xx_HAL_Driver/Src/stm32f7xx_hal_i2c.c ****   
3996:../../Drivers/STM32F7xx_HAL_Driver/Src/stm32f7xx_hal_i2c.c ****   /* Store Last receive data if any */
3997:../../Drivers/STM32F7xx_HAL_Driver/Src/stm32f7xx_hal_i2c.c ****   if(((ITFlags & I2C_FLAG_RXNE) != RESET))
ARM GAS  /tmp/cczIhzQ0.s 			page 221


 8634              		.loc 1 3997 0
 8635 00de 3B68     		ldr	r3, [r7]
 8636 00e0 03F00403 		and	r3, r3, #4
 8637 00e4 002B     		cmp	r3, #0
 8638 00e6 20D0     		beq	.L435
3998:../../Drivers/STM32F7xx_HAL_Driver/Src/stm32f7xx_hal_i2c.c ****   {
3999:../../Drivers/STM32F7xx_HAL_Driver/Src/stm32f7xx_hal_i2c.c ****     /* Read data from RXDR */
4000:../../Drivers/STM32F7xx_HAL_Driver/Src/stm32f7xx_hal_i2c.c ****     (*hi2c->pBuffPtr++) = hi2c->Instance->RXDR;
 8639              		.loc 1 4000 0
 8640 00e8 7B68     		ldr	r3, [r7, #4]
 8641 00ea 5B6A     		ldr	r3, [r3, #36]
 8642 00ec 591C     		adds	r1, r3, #1
 8643 00ee 7A68     		ldr	r2, [r7, #4]
 8644 00f0 5162     		str	r1, [r2, #36]
 8645 00f2 7A68     		ldr	r2, [r7, #4]
 8646 00f4 1268     		ldr	r2, [r2]
 8647 00f6 526A     		ldr	r2, [r2, #36]
 8648 00f8 D2B2     		uxtb	r2, r2
 8649 00fa 1A70     		strb	r2, [r3]
4001:../../Drivers/STM32F7xx_HAL_Driver/Src/stm32f7xx_hal_i2c.c ****     
4002:../../Drivers/STM32F7xx_HAL_Driver/Src/stm32f7xx_hal_i2c.c ****     if((hi2c->XferSize > 0))
 8650              		.loc 1 4002 0
 8651 00fc 7B68     		ldr	r3, [r7, #4]
 8652 00fe 1B8D     		ldrh	r3, [r3, #40]
 8653 0100 002B     		cmp	r3, #0
 8654 0102 12D0     		beq	.L435
4003:../../Drivers/STM32F7xx_HAL_Driver/Src/stm32f7xx_hal_i2c.c ****     {
4004:../../Drivers/STM32F7xx_HAL_Driver/Src/stm32f7xx_hal_i2c.c ****       hi2c->XferSize--;
 8655              		.loc 1 4004 0
 8656 0104 7B68     		ldr	r3, [r7, #4]
 8657 0106 1B8D     		ldrh	r3, [r3, #40]
 8658 0108 013B     		subs	r3, r3, #1
 8659 010a 9AB2     		uxth	r2, r3
 8660 010c 7B68     		ldr	r3, [r7, #4]
 8661 010e 1A85     		strh	r2, [r3, #40]	@ movhi
4005:../../Drivers/STM32F7xx_HAL_Driver/Src/stm32f7xx_hal_i2c.c ****       hi2c->XferCount--;
 8662              		.loc 1 4005 0
 8663 0110 7B68     		ldr	r3, [r7, #4]
 8664 0112 5B8D     		ldrh	r3, [r3, #42]	@ movhi
 8665 0114 9BB2     		uxth	r3, r3
 8666 0116 013B     		subs	r3, r3, #1
 8667 0118 9AB2     		uxth	r2, r3
 8668 011a 7B68     		ldr	r3, [r7, #4]
 8669 011c 5A85     		strh	r2, [r3, #42]	@ movhi
4006:../../Drivers/STM32F7xx_HAL_Driver/Src/stm32f7xx_hal_i2c.c ****       
4007:../../Drivers/STM32F7xx_HAL_Driver/Src/stm32f7xx_hal_i2c.c ****       /* Set ErrorCode corresponding to a Non-Acknowledge */
4008:../../Drivers/STM32F7xx_HAL_Driver/Src/stm32f7xx_hal_i2c.c ****       hi2c->ErrorCode |= HAL_I2C_ERROR_AF;
 8670              		.loc 1 4008 0
 8671 011e 7B68     		ldr	r3, [r7, #4]
 8672 0120 5B6C     		ldr	r3, [r3, #68]
 8673 0122 43F00402 		orr	r2, r3, #4
 8674 0126 7B68     		ldr	r3, [r7, #4]
 8675 0128 5A64     		str	r2, [r3, #68]
 8676              	.L435:
4009:../../Drivers/STM32F7xx_HAL_Driver/Src/stm32f7xx_hal_i2c.c ****     }
4010:../../Drivers/STM32F7xx_HAL_Driver/Src/stm32f7xx_hal_i2c.c ****   }
4011:../../Drivers/STM32F7xx_HAL_Driver/Src/stm32f7xx_hal_i2c.c ****   
ARM GAS  /tmp/cczIhzQ0.s 			page 222


4012:../../Drivers/STM32F7xx_HAL_Driver/Src/stm32f7xx_hal_i2c.c ****   hi2c->PreviousState = I2C_STATE_NONE;
 8677              		.loc 1 4012 0
 8678 012a 7B68     		ldr	r3, [r7, #4]
 8679 012c 0022     		movs	r2, #0
 8680 012e 1A63     		str	r2, [r3, #48]
4013:../../Drivers/STM32F7xx_HAL_Driver/Src/stm32f7xx_hal_i2c.c ****   hi2c->Mode = HAL_I2C_MODE_NONE;
 8681              		.loc 1 4013 0
 8682 0130 7B68     		ldr	r3, [r7, #4]
 8683 0132 0022     		movs	r2, #0
 8684 0134 83F84220 		strb	r2, [r3, #66]
4014:../../Drivers/STM32F7xx_HAL_Driver/Src/stm32f7xx_hal_i2c.c ****   hi2c->XferISR = NULL;
 8685              		.loc 1 4014 0
 8686 0138 7B68     		ldr	r3, [r7, #4]
 8687 013a 0022     		movs	r2, #0
 8688 013c 5A63     		str	r2, [r3, #52]
4015:../../Drivers/STM32F7xx_HAL_Driver/Src/stm32f7xx_hal_i2c.c ****   
4016:../../Drivers/STM32F7xx_HAL_Driver/Src/stm32f7xx_hal_i2c.c ****   if(hi2c->ErrorCode != HAL_I2C_ERROR_NONE)
 8689              		.loc 1 4016 0
 8690 013e 7B68     		ldr	r3, [r7, #4]
 8691 0140 5B6C     		ldr	r3, [r3, #68]
 8692 0142 002B     		cmp	r3, #0
 8693 0144 0DD0     		beq	.L436
4017:../../Drivers/STM32F7xx_HAL_Driver/Src/stm32f7xx_hal_i2c.c ****   {
4018:../../Drivers/STM32F7xx_HAL_Driver/Src/stm32f7xx_hal_i2c.c ****     hi2c->XferOptions = I2C_NO_OPTION_FRAME;
 8694              		.loc 1 4018 0
 8695 0146 7B68     		ldr	r3, [r7, #4]
 8696 0148 214A     		ldr	r2, .L440+4
 8697 014a DA62     		str	r2, [r3, #44]
4019:../../Drivers/STM32F7xx_HAL_Driver/Src/stm32f7xx_hal_i2c.c ****     hi2c->State = HAL_I2C_STATE_READY;
 8698              		.loc 1 4019 0
 8699 014c 7B68     		ldr	r3, [r7, #4]
 8700 014e 2022     		movs	r2, #32
 8701 0150 83F84120 		strb	r2, [r3, #65]
4020:../../Drivers/STM32F7xx_HAL_Driver/Src/stm32f7xx_hal_i2c.c ****     
4021:../../Drivers/STM32F7xx_HAL_Driver/Src/stm32f7xx_hal_i2c.c ****     /* Call the corresponding callback to inform upper layer of End of Transfer */
4022:../../Drivers/STM32F7xx_HAL_Driver/Src/stm32f7xx_hal_i2c.c ****     I2C_ITError(hi2c, hi2c->ErrorCode);
 8702              		.loc 1 4022 0
 8703 0154 7B68     		ldr	r3, [r7, #4]
 8704 0156 5B6C     		ldr	r3, [r3, #68]
 8705 0158 7868     		ldr	r0, [r7, #4]
 8706 015a 1946     		mov	r1, r3
 8707 015c FFF7FEFF 		bl	I2C_ITError
 8708 0160 30E0     		b	.L428
 8709              	.L436:
4023:../../Drivers/STM32F7xx_HAL_Driver/Src/stm32f7xx_hal_i2c.c ****   }
4024:../../Drivers/STM32F7xx_HAL_Driver/Src/stm32f7xx_hal_i2c.c ****   else if(hi2c->XferOptions != I2C_NO_OPTION_FRAME)
 8710              		.loc 1 4024 0
 8711 0162 7B68     		ldr	r3, [r7, #4]
 8712 0164 DB6A     		ldr	r3, [r3, #44]
 8713 0166 13F5803F 		cmn	r3, #65536
 8714 016a 0ED0     		beq	.L438
4025:../../Drivers/STM32F7xx_HAL_Driver/Src/stm32f7xx_hal_i2c.c ****   {
4026:../../Drivers/STM32F7xx_HAL_Driver/Src/stm32f7xx_hal_i2c.c ****     hi2c->XferOptions = I2C_NO_OPTION_FRAME;
 8715              		.loc 1 4026 0
 8716 016c 7B68     		ldr	r3, [r7, #4]
 8717 016e 184A     		ldr	r2, .L440+4
 8718 0170 DA62     		str	r2, [r3, #44]
ARM GAS  /tmp/cczIhzQ0.s 			page 223


4027:../../Drivers/STM32F7xx_HAL_Driver/Src/stm32f7xx_hal_i2c.c ****     hi2c->State = HAL_I2C_STATE_READY;
 8719              		.loc 1 4027 0
 8720 0172 7B68     		ldr	r3, [r7, #4]
 8721 0174 2022     		movs	r2, #32
 8722 0176 83F84120 		strb	r2, [r3, #65]
4028:../../Drivers/STM32F7xx_HAL_Driver/Src/stm32f7xx_hal_i2c.c ****     
4029:../../Drivers/STM32F7xx_HAL_Driver/Src/stm32f7xx_hal_i2c.c ****     /* Process Unlocked */
4030:../../Drivers/STM32F7xx_HAL_Driver/Src/stm32f7xx_hal_i2c.c ****     __HAL_UNLOCK(hi2c);
 8723              		.loc 1 4030 0
 8724 017a 7B68     		ldr	r3, [r7, #4]
 8725 017c 0022     		movs	r2, #0
 8726 017e 83F84020 		strb	r2, [r3, #64]
4031:../../Drivers/STM32F7xx_HAL_Driver/Src/stm32f7xx_hal_i2c.c ****     
4032:../../Drivers/STM32F7xx_HAL_Driver/Src/stm32f7xx_hal_i2c.c ****     /* Call the Listen Complete callback, to inform upper layer of the end of Listen usecase */
4033:../../Drivers/STM32F7xx_HAL_Driver/Src/stm32f7xx_hal_i2c.c ****     HAL_I2C_ListenCpltCallback(hi2c);
 8727              		.loc 1 4033 0
 8728 0182 7868     		ldr	r0, [r7, #4]
 8729 0184 FFF7FEFF 		bl	HAL_I2C_ListenCpltCallback
 8730 0188 1CE0     		b	.L428
 8731              	.L438:
4034:../../Drivers/STM32F7xx_HAL_Driver/Src/stm32f7xx_hal_i2c.c ****   }
4035:../../Drivers/STM32F7xx_HAL_Driver/Src/stm32f7xx_hal_i2c.c ****   /* Call the corresponding callback to inform upper layer of End of Transfer */
4036:../../Drivers/STM32F7xx_HAL_Driver/Src/stm32f7xx_hal_i2c.c ****   else if(hi2c->State == HAL_I2C_STATE_BUSY_RX)
 8732              		.loc 1 4036 0
 8733 018a 7B68     		ldr	r3, [r7, #4]
 8734 018c 93F84130 		ldrb	r3, [r3, #65]
 8735 0190 DBB2     		uxtb	r3, r3
 8736 0192 222B     		cmp	r3, #34
 8737 0194 0BD1     		bne	.L439
4037:../../Drivers/STM32F7xx_HAL_Driver/Src/stm32f7xx_hal_i2c.c ****   {
4038:../../Drivers/STM32F7xx_HAL_Driver/Src/stm32f7xx_hal_i2c.c ****     hi2c->State = HAL_I2C_STATE_READY;
 8738              		.loc 1 4038 0
 8739 0196 7B68     		ldr	r3, [r7, #4]
 8740 0198 2022     		movs	r2, #32
 8741 019a 83F84120 		strb	r2, [r3, #65]
4039:../../Drivers/STM32F7xx_HAL_Driver/Src/stm32f7xx_hal_i2c.c ****     
4040:../../Drivers/STM32F7xx_HAL_Driver/Src/stm32f7xx_hal_i2c.c ****     /* Process Unlocked */
4041:../../Drivers/STM32F7xx_HAL_Driver/Src/stm32f7xx_hal_i2c.c ****     __HAL_UNLOCK(hi2c);
 8742              		.loc 1 4041 0
 8743 019e 7B68     		ldr	r3, [r7, #4]
 8744 01a0 0022     		movs	r2, #0
 8745 01a2 83F84020 		strb	r2, [r3, #64]
4042:../../Drivers/STM32F7xx_HAL_Driver/Src/stm32f7xx_hal_i2c.c ****     
4043:../../Drivers/STM32F7xx_HAL_Driver/Src/stm32f7xx_hal_i2c.c ****     /* Call the Slave Rx Complete callback */
4044:../../Drivers/STM32F7xx_HAL_Driver/Src/stm32f7xx_hal_i2c.c ****     HAL_I2C_SlaveRxCpltCallback(hi2c);
 8746              		.loc 1 4044 0
 8747 01a6 7868     		ldr	r0, [r7, #4]
 8748 01a8 FFF7FEFF 		bl	HAL_I2C_SlaveRxCpltCallback
 8749 01ac 0AE0     		b	.L428
 8750              	.L439:
4045:../../Drivers/STM32F7xx_HAL_Driver/Src/stm32f7xx_hal_i2c.c ****   }
4046:../../Drivers/STM32F7xx_HAL_Driver/Src/stm32f7xx_hal_i2c.c ****   else
4047:../../Drivers/STM32F7xx_HAL_Driver/Src/stm32f7xx_hal_i2c.c ****   {
4048:../../Drivers/STM32F7xx_HAL_Driver/Src/stm32f7xx_hal_i2c.c ****     hi2c->State = HAL_I2C_STATE_READY;
 8751              		.loc 1 4048 0
 8752 01ae 7B68     		ldr	r3, [r7, #4]
 8753 01b0 2022     		movs	r2, #32
ARM GAS  /tmp/cczIhzQ0.s 			page 224


 8754 01b2 83F84120 		strb	r2, [r3, #65]
4049:../../Drivers/STM32F7xx_HAL_Driver/Src/stm32f7xx_hal_i2c.c ****     
4050:../../Drivers/STM32F7xx_HAL_Driver/Src/stm32f7xx_hal_i2c.c ****     /* Process Unlocked */
4051:../../Drivers/STM32F7xx_HAL_Driver/Src/stm32f7xx_hal_i2c.c ****     __HAL_UNLOCK(hi2c);
 8755              		.loc 1 4051 0
 8756 01b6 7B68     		ldr	r3, [r7, #4]
 8757 01b8 0022     		movs	r2, #0
 8758 01ba 83F84020 		strb	r2, [r3, #64]
4052:../../Drivers/STM32F7xx_HAL_Driver/Src/stm32f7xx_hal_i2c.c ****     
4053:../../Drivers/STM32F7xx_HAL_Driver/Src/stm32f7xx_hal_i2c.c ****     /* Call the Slave Tx Complete callback */
4054:../../Drivers/STM32F7xx_HAL_Driver/Src/stm32f7xx_hal_i2c.c ****     HAL_I2C_SlaveTxCpltCallback(hi2c);
 8759              		.loc 1 4054 0
 8760 01be 7868     		ldr	r0, [r7, #4]
 8761 01c0 FFF7FEFF 		bl	HAL_I2C_SlaveTxCpltCallback
 8762              	.L428:
4055:../../Drivers/STM32F7xx_HAL_Driver/Src/stm32f7xx_hal_i2c.c ****   }
4056:../../Drivers/STM32F7xx_HAL_Driver/Src/stm32f7xx_hal_i2c.c **** }
 8763              		.loc 1 4056 0
 8764 01c4 0837     		adds	r7, r7, #8
 8765              	.LCFI293:
 8766              		.cfi_def_cfa_offset 8
 8767 01c6 BD46     		mov	sp, r7
 8768              	.LCFI294:
 8769              		.cfi_def_cfa_register 13
 8770              		@ sp needed
 8771 01c8 80BD     		pop	{r7, pc}
 8772              	.L441:
 8773 01ca 00BF     		.align	2
 8774              	.L440:
 8775 01cc 00E800FE 		.word	-33495040
 8776 01d0 0000FFFF 		.word	-65536
 8777              		.cfi_endproc
 8778              	.LFE190:
 8780              		.section	.text.I2C_ITListenCplt,"ax",%progbits
 8781              		.align	2
 8782              		.thumb
 8783              		.thumb_func
 8785              	I2C_ITListenCplt:
 8786              	.LFB191:
4057:../../Drivers/STM32F7xx_HAL_Driver/Src/stm32f7xx_hal_i2c.c **** 
4058:../../Drivers/STM32F7xx_HAL_Driver/Src/stm32f7xx_hal_i2c.c **** /**
4059:../../Drivers/STM32F7xx_HAL_Driver/Src/stm32f7xx_hal_i2c.c ****   * @brief  I2C Listen complete process.
4060:../../Drivers/STM32F7xx_HAL_Driver/Src/stm32f7xx_hal_i2c.c ****   * @param  hi2c: I2C handle.
4061:../../Drivers/STM32F7xx_HAL_Driver/Src/stm32f7xx_hal_i2c.c ****   * @param  ITFlags: Interrupt flags to handle.
4062:../../Drivers/STM32F7xx_HAL_Driver/Src/stm32f7xx_hal_i2c.c ****   * @retval None
4063:../../Drivers/STM32F7xx_HAL_Driver/Src/stm32f7xx_hal_i2c.c ****   */
4064:../../Drivers/STM32F7xx_HAL_Driver/Src/stm32f7xx_hal_i2c.c **** static void I2C_ITListenCplt(I2C_HandleTypeDef *hi2c, uint32_t ITFlags)
4065:../../Drivers/STM32F7xx_HAL_Driver/Src/stm32f7xx_hal_i2c.c **** {
 8787              		.loc 1 4065 0
 8788              		.cfi_startproc
 8789              		@ args = 0, pretend = 0, frame = 8
 8790              		@ frame_needed = 1, uses_anonymous_args = 0
 8791 0000 80B5     		push	{r7, lr}
 8792              	.LCFI295:
 8793              		.cfi_def_cfa_offset 8
 8794              		.cfi_offset 7, -8
 8795              		.cfi_offset 14, -4
ARM GAS  /tmp/cczIhzQ0.s 			page 225


 8796 0002 82B0     		sub	sp, sp, #8
 8797              	.LCFI296:
 8798              		.cfi_def_cfa_offset 16
 8799 0004 00AF     		add	r7, sp, #0
 8800              	.LCFI297:
 8801              		.cfi_def_cfa_register 7
 8802 0006 7860     		str	r0, [r7, #4]
 8803 0008 3960     		str	r1, [r7]
4066:../../Drivers/STM32F7xx_HAL_Driver/Src/stm32f7xx_hal_i2c.c ****   /* Reset handle parameters */
4067:../../Drivers/STM32F7xx_HAL_Driver/Src/stm32f7xx_hal_i2c.c ****   hi2c->XferOptions = I2C_NO_OPTION_FRAME;
 8804              		.loc 1 4067 0
 8805 000a 7B68     		ldr	r3, [r7, #4]
 8806 000c 234A     		ldr	r2, .L444
 8807 000e DA62     		str	r2, [r3, #44]
4068:../../Drivers/STM32F7xx_HAL_Driver/Src/stm32f7xx_hal_i2c.c ****   hi2c->PreviousState = I2C_STATE_NONE;
 8808              		.loc 1 4068 0
 8809 0010 7B68     		ldr	r3, [r7, #4]
 8810 0012 0022     		movs	r2, #0
 8811 0014 1A63     		str	r2, [r3, #48]
4069:../../Drivers/STM32F7xx_HAL_Driver/Src/stm32f7xx_hal_i2c.c ****   hi2c->State = HAL_I2C_STATE_READY;
 8812              		.loc 1 4069 0
 8813 0016 7B68     		ldr	r3, [r7, #4]
 8814 0018 2022     		movs	r2, #32
 8815 001a 83F84120 		strb	r2, [r3, #65]
4070:../../Drivers/STM32F7xx_HAL_Driver/Src/stm32f7xx_hal_i2c.c ****   hi2c->Mode = HAL_I2C_MODE_NONE;
 8816              		.loc 1 4070 0
 8817 001e 7B68     		ldr	r3, [r7, #4]
 8818 0020 0022     		movs	r2, #0
 8819 0022 83F84220 		strb	r2, [r3, #66]
4071:../../Drivers/STM32F7xx_HAL_Driver/Src/stm32f7xx_hal_i2c.c ****   hi2c->XferISR = NULL;
 8820              		.loc 1 4071 0
 8821 0026 7B68     		ldr	r3, [r7, #4]
 8822 0028 0022     		movs	r2, #0
 8823 002a 5A63     		str	r2, [r3, #52]
4072:../../Drivers/STM32F7xx_HAL_Driver/Src/stm32f7xx_hal_i2c.c ****   
4073:../../Drivers/STM32F7xx_HAL_Driver/Src/stm32f7xx_hal_i2c.c ****   /* Store Last receive data if any */
4074:../../Drivers/STM32F7xx_HAL_Driver/Src/stm32f7xx_hal_i2c.c ****   if(((ITFlags & I2C_FLAG_RXNE) != RESET))
 8824              		.loc 1 4074 0
 8825 002c 3B68     		ldr	r3, [r7]
 8826 002e 03F00403 		and	r3, r3, #4
 8827 0032 002B     		cmp	r3, #0
 8828 0034 20D0     		beq	.L443
4075:../../Drivers/STM32F7xx_HAL_Driver/Src/stm32f7xx_hal_i2c.c ****   {
4076:../../Drivers/STM32F7xx_HAL_Driver/Src/stm32f7xx_hal_i2c.c ****     /* Read data from RXDR */
4077:../../Drivers/STM32F7xx_HAL_Driver/Src/stm32f7xx_hal_i2c.c ****     (*hi2c->pBuffPtr++) = hi2c->Instance->RXDR;
 8829              		.loc 1 4077 0
 8830 0036 7B68     		ldr	r3, [r7, #4]
 8831 0038 5B6A     		ldr	r3, [r3, #36]
 8832 003a 591C     		adds	r1, r3, #1
 8833 003c 7A68     		ldr	r2, [r7, #4]
 8834 003e 5162     		str	r1, [r2, #36]
 8835 0040 7A68     		ldr	r2, [r7, #4]
 8836 0042 1268     		ldr	r2, [r2]
 8837 0044 526A     		ldr	r2, [r2, #36]
 8838 0046 D2B2     		uxtb	r2, r2
 8839 0048 1A70     		strb	r2, [r3]
4078:../../Drivers/STM32F7xx_HAL_Driver/Src/stm32f7xx_hal_i2c.c ****     
ARM GAS  /tmp/cczIhzQ0.s 			page 226


4079:../../Drivers/STM32F7xx_HAL_Driver/Src/stm32f7xx_hal_i2c.c ****     if((hi2c->XferSize > 0))
 8840              		.loc 1 4079 0
 8841 004a 7B68     		ldr	r3, [r7, #4]
 8842 004c 1B8D     		ldrh	r3, [r3, #40]
 8843 004e 002B     		cmp	r3, #0
 8844 0050 12D0     		beq	.L443
4080:../../Drivers/STM32F7xx_HAL_Driver/Src/stm32f7xx_hal_i2c.c ****     {
4081:../../Drivers/STM32F7xx_HAL_Driver/Src/stm32f7xx_hal_i2c.c ****       hi2c->XferSize--;
 8845              		.loc 1 4081 0
 8846 0052 7B68     		ldr	r3, [r7, #4]
 8847 0054 1B8D     		ldrh	r3, [r3, #40]
 8848 0056 013B     		subs	r3, r3, #1
 8849 0058 9AB2     		uxth	r2, r3
 8850 005a 7B68     		ldr	r3, [r7, #4]
 8851 005c 1A85     		strh	r2, [r3, #40]	@ movhi
4082:../../Drivers/STM32F7xx_HAL_Driver/Src/stm32f7xx_hal_i2c.c ****       hi2c->XferCount--;
 8852              		.loc 1 4082 0
 8853 005e 7B68     		ldr	r3, [r7, #4]
 8854 0060 5B8D     		ldrh	r3, [r3, #42]	@ movhi
 8855 0062 9BB2     		uxth	r3, r3
 8856 0064 013B     		subs	r3, r3, #1
 8857 0066 9AB2     		uxth	r2, r3
 8858 0068 7B68     		ldr	r3, [r7, #4]
 8859 006a 5A85     		strh	r2, [r3, #42]	@ movhi
4083:../../Drivers/STM32F7xx_HAL_Driver/Src/stm32f7xx_hal_i2c.c ****       
4084:../../Drivers/STM32F7xx_HAL_Driver/Src/stm32f7xx_hal_i2c.c ****       /* Set ErrorCode corresponding to a Non-Acknowledge */
4085:../../Drivers/STM32F7xx_HAL_Driver/Src/stm32f7xx_hal_i2c.c ****       hi2c->ErrorCode |= HAL_I2C_ERROR_AF;
 8860              		.loc 1 4085 0
 8861 006c 7B68     		ldr	r3, [r7, #4]
 8862 006e 5B6C     		ldr	r3, [r3, #68]
 8863 0070 43F00402 		orr	r2, r3, #4
 8864 0074 7B68     		ldr	r3, [r7, #4]
 8865 0076 5A64     		str	r2, [r3, #68]
 8866              	.L443:
4086:../../Drivers/STM32F7xx_HAL_Driver/Src/stm32f7xx_hal_i2c.c ****     }
4087:../../Drivers/STM32F7xx_HAL_Driver/Src/stm32f7xx_hal_i2c.c ****   }
4088:../../Drivers/STM32F7xx_HAL_Driver/Src/stm32f7xx_hal_i2c.c ****   
4089:../../Drivers/STM32F7xx_HAL_Driver/Src/stm32f7xx_hal_i2c.c ****   /* Disable all Interrupts*/
4090:../../Drivers/STM32F7xx_HAL_Driver/Src/stm32f7xx_hal_i2c.c ****   I2C_Disable_IRQ(hi2c, I2C_XFER_LISTEN_IT | I2C_XFER_RX_IT | I2C_XFER_TX_IT);
 8867              		.loc 1 4090 0
 8868 0078 7868     		ldr	r0, [r7, #4]
 8869 007a 0721     		movs	r1, #7
 8870 007c FFF7FEFF 		bl	I2C_Disable_IRQ
4091:../../Drivers/STM32F7xx_HAL_Driver/Src/stm32f7xx_hal_i2c.c ****   
4092:../../Drivers/STM32F7xx_HAL_Driver/Src/stm32f7xx_hal_i2c.c ****   /* Clear NACK Flag */
4093:../../Drivers/STM32F7xx_HAL_Driver/Src/stm32f7xx_hal_i2c.c ****   __HAL_I2C_CLEAR_FLAG(hi2c, I2C_FLAG_AF);
 8871              		.loc 1 4093 0
 8872 0080 7B68     		ldr	r3, [r7, #4]
 8873 0082 1B68     		ldr	r3, [r3]
 8874 0084 1022     		movs	r2, #16
 8875 0086 DA61     		str	r2, [r3, #28]
4094:../../Drivers/STM32F7xx_HAL_Driver/Src/stm32f7xx_hal_i2c.c ****   
4095:../../Drivers/STM32F7xx_HAL_Driver/Src/stm32f7xx_hal_i2c.c ****   /* Process Unlocked */
4096:../../Drivers/STM32F7xx_HAL_Driver/Src/stm32f7xx_hal_i2c.c ****   __HAL_UNLOCK(hi2c);
 8876              		.loc 1 4096 0
 8877 0088 7B68     		ldr	r3, [r7, #4]
 8878 008a 0022     		movs	r2, #0
ARM GAS  /tmp/cczIhzQ0.s 			page 227


 8879 008c 83F84020 		strb	r2, [r3, #64]
4097:../../Drivers/STM32F7xx_HAL_Driver/Src/stm32f7xx_hal_i2c.c ****   
4098:../../Drivers/STM32F7xx_HAL_Driver/Src/stm32f7xx_hal_i2c.c ****   /* Call the Listen Complete callback, to inform upper layer of the end of Listen usecase */
4099:../../Drivers/STM32F7xx_HAL_Driver/Src/stm32f7xx_hal_i2c.c ****   HAL_I2C_ListenCpltCallback(hi2c);
 8880              		.loc 1 4099 0
 8881 0090 7868     		ldr	r0, [r7, #4]
 8882 0092 FFF7FEFF 		bl	HAL_I2C_ListenCpltCallback
4100:../../Drivers/STM32F7xx_HAL_Driver/Src/stm32f7xx_hal_i2c.c **** }
 8883              		.loc 1 4100 0
 8884 0096 0837     		adds	r7, r7, #8
 8885              	.LCFI298:
 8886              		.cfi_def_cfa_offset 8
 8887 0098 BD46     		mov	sp, r7
 8888              	.LCFI299:
 8889              		.cfi_def_cfa_register 13
 8890              		@ sp needed
 8891 009a 80BD     		pop	{r7, pc}
 8892              	.L445:
 8893              		.align	2
 8894              	.L444:
 8895 009c 0000FFFF 		.word	-65536
 8896              		.cfi_endproc
 8897              	.LFE191:
 8899              		.section	.text.I2C_ITError,"ax",%progbits
 8900              		.align	2
 8901              		.thumb
 8902              		.thumb_func
 8904              	I2C_ITError:
 8905              	.LFB192:
4101:../../Drivers/STM32F7xx_HAL_Driver/Src/stm32f7xx_hal_i2c.c **** 
4102:../../Drivers/STM32F7xx_HAL_Driver/Src/stm32f7xx_hal_i2c.c **** /**
4103:../../Drivers/STM32F7xx_HAL_Driver/Src/stm32f7xx_hal_i2c.c ****   * @brief  I2C interrupts error process.
4104:../../Drivers/STM32F7xx_HAL_Driver/Src/stm32f7xx_hal_i2c.c ****   * @param  hi2c: I2C handle.
4105:../../Drivers/STM32F7xx_HAL_Driver/Src/stm32f7xx_hal_i2c.c ****   * @param  ErrorCode: Error code to handle.
4106:../../Drivers/STM32F7xx_HAL_Driver/Src/stm32f7xx_hal_i2c.c ****   * @retval None
4107:../../Drivers/STM32F7xx_HAL_Driver/Src/stm32f7xx_hal_i2c.c ****   */
4108:../../Drivers/STM32F7xx_HAL_Driver/Src/stm32f7xx_hal_i2c.c **** static void I2C_ITError(I2C_HandleTypeDef *hi2c, uint32_t ErrorCode)
4109:../../Drivers/STM32F7xx_HAL_Driver/Src/stm32f7xx_hal_i2c.c **** {
 8906              		.loc 1 4109 0
 8907              		.cfi_startproc
 8908              		@ args = 0, pretend = 0, frame = 8
 8909              		@ frame_needed = 1, uses_anonymous_args = 0
 8910 0000 80B5     		push	{r7, lr}
 8911              	.LCFI300:
 8912              		.cfi_def_cfa_offset 8
 8913              		.cfi_offset 7, -8
 8914              		.cfi_offset 14, -4
 8915 0002 82B0     		sub	sp, sp, #8
 8916              	.LCFI301:
 8917              		.cfi_def_cfa_offset 16
 8918 0004 00AF     		add	r7, sp, #0
 8919              	.LCFI302:
 8920              		.cfi_def_cfa_register 7
 8921 0006 7860     		str	r0, [r7, #4]
 8922 0008 3960     		str	r1, [r7]
4110:../../Drivers/STM32F7xx_HAL_Driver/Src/stm32f7xx_hal_i2c.c ****   /* Reset handle parameters */
4111:../../Drivers/STM32F7xx_HAL_Driver/Src/stm32f7xx_hal_i2c.c ****   hi2c->Mode          = HAL_I2C_MODE_NONE;
ARM GAS  /tmp/cczIhzQ0.s 			page 228


 8923              		.loc 1 4111 0
 8924 000a 7B68     		ldr	r3, [r7, #4]
 8925 000c 0022     		movs	r2, #0
 8926 000e 83F84220 		strb	r2, [r3, #66]
4112:../../Drivers/STM32F7xx_HAL_Driver/Src/stm32f7xx_hal_i2c.c ****   hi2c->XferOptions   = I2C_NO_OPTION_FRAME;
 8927              		.loc 1 4112 0
 8928 0012 7B68     		ldr	r3, [r7, #4]
 8929 0014 514A     		ldr	r2, .L456
 8930 0016 DA62     		str	r2, [r3, #44]
4113:../../Drivers/STM32F7xx_HAL_Driver/Src/stm32f7xx_hal_i2c.c ****   hi2c->XferCount     = 0;
 8931              		.loc 1 4113 0
 8932 0018 7B68     		ldr	r3, [r7, #4]
 8933 001a 0022     		movs	r2, #0
 8934 001c 5A85     		strh	r2, [r3, #42]	@ movhi
4114:../../Drivers/STM32F7xx_HAL_Driver/Src/stm32f7xx_hal_i2c.c ****   
4115:../../Drivers/STM32F7xx_HAL_Driver/Src/stm32f7xx_hal_i2c.c ****   /* Set new error code */
4116:../../Drivers/STM32F7xx_HAL_Driver/Src/stm32f7xx_hal_i2c.c ****   hi2c->ErrorCode |= ErrorCode;
 8935              		.loc 1 4116 0
 8936 001e 7B68     		ldr	r3, [r7, #4]
 8937 0020 5A6C     		ldr	r2, [r3, #68]
 8938 0022 3B68     		ldr	r3, [r7]
 8939 0024 1A43     		orrs	r2, r2, r3
 8940 0026 7B68     		ldr	r3, [r7, #4]
 8941 0028 5A64     		str	r2, [r3, #68]
4117:../../Drivers/STM32F7xx_HAL_Driver/Src/stm32f7xx_hal_i2c.c ****   
4118:../../Drivers/STM32F7xx_HAL_Driver/Src/stm32f7xx_hal_i2c.c ****   /* Disable Interrupts */
4119:../../Drivers/STM32F7xx_HAL_Driver/Src/stm32f7xx_hal_i2c.c ****   if((hi2c->State == HAL_I2C_STATE_LISTEN)         ||
 8942              		.loc 1 4119 0
 8943 002a 7B68     		ldr	r3, [r7, #4]
 8944 002c 93F84130 		ldrb	r3, [r3, #65]
 8945 0030 DBB2     		uxtb	r3, r3
 8946 0032 282B     		cmp	r3, #40
 8947 0034 0BD0     		beq	.L447
4120:../../Drivers/STM32F7xx_HAL_Driver/Src/stm32f7xx_hal_i2c.c ****      (hi2c->State == HAL_I2C_STATE_BUSY_TX_LISTEN) ||
 8948              		.loc 1 4120 0 discriminator 1
 8949 0036 7B68     		ldr	r3, [r7, #4]
 8950 0038 93F84130 		ldrb	r3, [r3, #65]
 8951 003c DBB2     		uxtb	r3, r3
4119:../../Drivers/STM32F7xx_HAL_Driver/Src/stm32f7xx_hal_i2c.c ****      (hi2c->State == HAL_I2C_STATE_BUSY_TX_LISTEN) ||
 8952              		.loc 1 4119 0 discriminator 1
 8953 003e 292B     		cmp	r3, #41
 8954 0040 05D0     		beq	.L447
4121:../../Drivers/STM32F7xx_HAL_Driver/Src/stm32f7xx_hal_i2c.c ****      (hi2c->State == HAL_I2C_STATE_BUSY_RX_LISTEN))
 8955              		.loc 1 4121 0
 8956 0042 7B68     		ldr	r3, [r7, #4]
 8957 0044 93F84130 		ldrb	r3, [r3, #65]
 8958 0048 DBB2     		uxtb	r3, r3
4120:../../Drivers/STM32F7xx_HAL_Driver/Src/stm32f7xx_hal_i2c.c ****      (hi2c->State == HAL_I2C_STATE_BUSY_TX_LISTEN) ||
 8959              		.loc 1 4120 0
 8960 004a 2A2B     		cmp	r3, #42
 8961 004c 0ED1     		bne	.L448
 8962              	.L447:
4122:../../Drivers/STM32F7xx_HAL_Driver/Src/stm32f7xx_hal_i2c.c ****   {
4123:../../Drivers/STM32F7xx_HAL_Driver/Src/stm32f7xx_hal_i2c.c ****     /* Disable all interrupts, except interrupts related to LISTEN state */
4124:../../Drivers/STM32F7xx_HAL_Driver/Src/stm32f7xx_hal_i2c.c ****     I2C_Disable_IRQ(hi2c, I2C_XFER_RX_IT | I2C_XFER_TX_IT);
 8963              		.loc 1 4124 0
 8964 004e 7868     		ldr	r0, [r7, #4]
ARM GAS  /tmp/cczIhzQ0.s 			page 229


 8965 0050 0321     		movs	r1, #3
 8966 0052 FFF7FEFF 		bl	I2C_Disable_IRQ
4125:../../Drivers/STM32F7xx_HAL_Driver/Src/stm32f7xx_hal_i2c.c ****     
4126:../../Drivers/STM32F7xx_HAL_Driver/Src/stm32f7xx_hal_i2c.c ****     /* keep HAL_I2C_STATE_LISTEN if set */
4127:../../Drivers/STM32F7xx_HAL_Driver/Src/stm32f7xx_hal_i2c.c ****     hi2c->State         = HAL_I2C_STATE_LISTEN;
 8967              		.loc 1 4127 0
 8968 0056 7B68     		ldr	r3, [r7, #4]
 8969 0058 2822     		movs	r2, #40
 8970 005a 83F84120 		strb	r2, [r3, #65]
4128:../../Drivers/STM32F7xx_HAL_Driver/Src/stm32f7xx_hal_i2c.c ****     hi2c->PreviousState = I2C_STATE_NONE;
 8971              		.loc 1 4128 0
 8972 005e 7B68     		ldr	r3, [r7, #4]
 8973 0060 0022     		movs	r2, #0
 8974 0062 1A63     		str	r2, [r3, #48]
4129:../../Drivers/STM32F7xx_HAL_Driver/Src/stm32f7xx_hal_i2c.c ****     hi2c->XferISR       = I2C_Slave_ISR_IT;
 8975              		.loc 1 4129 0
 8976 0064 7B68     		ldr	r3, [r7, #4]
 8977 0066 3E4A     		ldr	r2, .L456+4
 8978 0068 5A63     		str	r2, [r3, #52]
 8979 006a 0DE0     		b	.L449
 8980              	.L448:
4130:../../Drivers/STM32F7xx_HAL_Driver/Src/stm32f7xx_hal_i2c.c ****   }
4131:../../Drivers/STM32F7xx_HAL_Driver/Src/stm32f7xx_hal_i2c.c ****   else
4132:../../Drivers/STM32F7xx_HAL_Driver/Src/stm32f7xx_hal_i2c.c ****   {
4133:../../Drivers/STM32F7xx_HAL_Driver/Src/stm32f7xx_hal_i2c.c ****     /* Disable all interrupts */
4134:../../Drivers/STM32F7xx_HAL_Driver/Src/stm32f7xx_hal_i2c.c ****     I2C_Disable_IRQ(hi2c, I2C_XFER_LISTEN_IT | I2C_XFER_RX_IT | I2C_XFER_TX_IT);
 8981              		.loc 1 4134 0
 8982 006c 7868     		ldr	r0, [r7, #4]
 8983 006e 0721     		movs	r1, #7
 8984 0070 FFF7FEFF 		bl	I2C_Disable_IRQ
4135:../../Drivers/STM32F7xx_HAL_Driver/Src/stm32f7xx_hal_i2c.c ****     
4136:../../Drivers/STM32F7xx_HAL_Driver/Src/stm32f7xx_hal_i2c.c ****     /* Set HAL_I2C_STATE_READY */
4137:../../Drivers/STM32F7xx_HAL_Driver/Src/stm32f7xx_hal_i2c.c ****     hi2c->State         = HAL_I2C_STATE_READY;
 8985              		.loc 1 4137 0
 8986 0074 7B68     		ldr	r3, [r7, #4]
 8987 0076 2022     		movs	r2, #32
 8988 0078 83F84120 		strb	r2, [r3, #65]
4138:../../Drivers/STM32F7xx_HAL_Driver/Src/stm32f7xx_hal_i2c.c ****     hi2c->PreviousState = I2C_STATE_NONE;
 8989              		.loc 1 4138 0
 8990 007c 7B68     		ldr	r3, [r7, #4]
 8991 007e 0022     		movs	r2, #0
 8992 0080 1A63     		str	r2, [r3, #48]
4139:../../Drivers/STM32F7xx_HAL_Driver/Src/stm32f7xx_hal_i2c.c ****     hi2c->XferISR       = NULL;
 8993              		.loc 1 4139 0
 8994 0082 7B68     		ldr	r3, [r7, #4]
 8995 0084 0022     		movs	r2, #0
 8996 0086 5A63     		str	r2, [r3, #52]
 8997              	.L449:
4140:../../Drivers/STM32F7xx_HAL_Driver/Src/stm32f7xx_hal_i2c.c ****   }
4141:../../Drivers/STM32F7xx_HAL_Driver/Src/stm32f7xx_hal_i2c.c ****   
4142:../../Drivers/STM32F7xx_HAL_Driver/Src/stm32f7xx_hal_i2c.c ****   /* Abort DMA TX transfer if any */
4143:../../Drivers/STM32F7xx_HAL_Driver/Src/stm32f7xx_hal_i2c.c ****   if((hi2c->Instance->CR1 & I2C_CR1_TXDMAEN) == I2C_CR1_TXDMAEN)
 8998              		.loc 1 4143 0
 8999 0088 7B68     		ldr	r3, [r7, #4]
 9000 008a 1B68     		ldr	r3, [r3]
 9001 008c 1B68     		ldr	r3, [r3]
 9002 008e 03F48043 		and	r3, r3, #16384
ARM GAS  /tmp/cczIhzQ0.s 			page 230


 9003 0092 002B     		cmp	r3, #0
 9004 0094 1FD0     		beq	.L450
4144:../../Drivers/STM32F7xx_HAL_Driver/Src/stm32f7xx_hal_i2c.c ****   {
4145:../../Drivers/STM32F7xx_HAL_Driver/Src/stm32f7xx_hal_i2c.c ****     hi2c->Instance->CR1 &= ~I2C_CR1_TXDMAEN;
 9005              		.loc 1 4145 0
 9006 0096 7B68     		ldr	r3, [r7, #4]
 9007 0098 1B68     		ldr	r3, [r3]
 9008 009a 7A68     		ldr	r2, [r7, #4]
 9009 009c 1268     		ldr	r2, [r2]
 9010 009e 1268     		ldr	r2, [r2]
 9011 00a0 22F48042 		bic	r2, r2, #16384
 9012 00a4 1A60     		str	r2, [r3]
4146:../../Drivers/STM32F7xx_HAL_Driver/Src/stm32f7xx_hal_i2c.c ****     
4147:../../Drivers/STM32F7xx_HAL_Driver/Src/stm32f7xx_hal_i2c.c ****     /* Set the I2C DMA Abort callback : 
4148:../../Drivers/STM32F7xx_HAL_Driver/Src/stm32f7xx_hal_i2c.c ****        will lead to call HAL_I2C_ErrorCallback() at end of DMA abort procedure */
4149:../../Drivers/STM32F7xx_HAL_Driver/Src/stm32f7xx_hal_i2c.c ****     hi2c->hdmatx->XferAbortCallback = I2C_DMAAbort;
 9013              		.loc 1 4149 0
 9014 00a6 7B68     		ldr	r3, [r7, #4]
 9015 00a8 9B6B     		ldr	r3, [r3, #56]
 9016 00aa 2E4A     		ldr	r2, .L456+8
 9017 00ac 1A65     		str	r2, [r3, #80]
4150:../../Drivers/STM32F7xx_HAL_Driver/Src/stm32f7xx_hal_i2c.c ****     
4151:../../Drivers/STM32F7xx_HAL_Driver/Src/stm32f7xx_hal_i2c.c ****     /* Process Unlocked */
4152:../../Drivers/STM32F7xx_HAL_Driver/Src/stm32f7xx_hal_i2c.c ****     __HAL_UNLOCK(hi2c);
 9018              		.loc 1 4152 0
 9019 00ae 7B68     		ldr	r3, [r7, #4]
 9020 00b0 0022     		movs	r2, #0
 9021 00b2 83F84020 		strb	r2, [r3, #64]
4153:../../Drivers/STM32F7xx_HAL_Driver/Src/stm32f7xx_hal_i2c.c ****     
4154:../../Drivers/STM32F7xx_HAL_Driver/Src/stm32f7xx_hal_i2c.c ****     /* Abort DMA TX */
4155:../../Drivers/STM32F7xx_HAL_Driver/Src/stm32f7xx_hal_i2c.c ****     if(HAL_DMA_Abort_IT(hi2c->hdmatx) != HAL_OK)
 9022              		.loc 1 4155 0
 9023 00b6 7B68     		ldr	r3, [r7, #4]
 9024 00b8 9B6B     		ldr	r3, [r3, #56]
 9025 00ba 1846     		mov	r0, r3
 9026 00bc FFF7FEFF 		bl	HAL_DMA_Abort_IT
 9027 00c0 0346     		mov	r3, r0
 9028 00c2 002B     		cmp	r3, #0
 9029 00c4 47D0     		beq	.L446
4156:../../Drivers/STM32F7xx_HAL_Driver/Src/stm32f7xx_hal_i2c.c ****     {
4157:../../Drivers/STM32F7xx_HAL_Driver/Src/stm32f7xx_hal_i2c.c ****       /* Call Directly XferAbortCallback function in case of error */
4158:../../Drivers/STM32F7xx_HAL_Driver/Src/stm32f7xx_hal_i2c.c ****       hi2c->hdmatx->XferAbortCallback(hi2c->hdmatx);
 9030              		.loc 1 4158 0
 9031 00c6 7B68     		ldr	r3, [r7, #4]
 9032 00c8 9B6B     		ldr	r3, [r3, #56]
 9033 00ca 1B6D     		ldr	r3, [r3, #80]
 9034 00cc 7A68     		ldr	r2, [r7, #4]
 9035 00ce 926B     		ldr	r2, [r2, #56]
 9036 00d0 1046     		mov	r0, r2
 9037 00d2 9847     		blx	r3
 9038 00d4 3FE0     		b	.L446
 9039              	.L450:
4159:../../Drivers/STM32F7xx_HAL_Driver/Src/stm32f7xx_hal_i2c.c ****     }
4160:../../Drivers/STM32F7xx_HAL_Driver/Src/stm32f7xx_hal_i2c.c ****   }
4161:../../Drivers/STM32F7xx_HAL_Driver/Src/stm32f7xx_hal_i2c.c ****   /* Abort DMA RX transfer if any */
4162:../../Drivers/STM32F7xx_HAL_Driver/Src/stm32f7xx_hal_i2c.c ****   else if((hi2c->Instance->CR1 & I2C_CR1_RXDMAEN) == I2C_CR1_RXDMAEN)
 9040              		.loc 1 4162 0
ARM GAS  /tmp/cczIhzQ0.s 			page 231


 9041 00d6 7B68     		ldr	r3, [r7, #4]
 9042 00d8 1B68     		ldr	r3, [r3]
 9043 00da 1B68     		ldr	r3, [r3]
 9044 00dc 03F40043 		and	r3, r3, #32768
 9045 00e0 002B     		cmp	r3, #0
 9046 00e2 1FD0     		beq	.L453
4163:../../Drivers/STM32F7xx_HAL_Driver/Src/stm32f7xx_hal_i2c.c ****   {
4164:../../Drivers/STM32F7xx_HAL_Driver/Src/stm32f7xx_hal_i2c.c ****     hi2c->Instance->CR1 &= ~I2C_CR1_RXDMAEN;
 9047              		.loc 1 4164 0
 9048 00e4 7B68     		ldr	r3, [r7, #4]
 9049 00e6 1B68     		ldr	r3, [r3]
 9050 00e8 7A68     		ldr	r2, [r7, #4]
 9051 00ea 1268     		ldr	r2, [r2]
 9052 00ec 1268     		ldr	r2, [r2]
 9053 00ee 22F40042 		bic	r2, r2, #32768
 9054 00f2 1A60     		str	r2, [r3]
4165:../../Drivers/STM32F7xx_HAL_Driver/Src/stm32f7xx_hal_i2c.c ****     
4166:../../Drivers/STM32F7xx_HAL_Driver/Src/stm32f7xx_hal_i2c.c ****     /* Set the I2C DMA Abort callback : 
4167:../../Drivers/STM32F7xx_HAL_Driver/Src/stm32f7xx_hal_i2c.c ****        will lead to call HAL_I2C_ErrorCallback() at end of DMA abort procedure */
4168:../../Drivers/STM32F7xx_HAL_Driver/Src/stm32f7xx_hal_i2c.c ****     hi2c->hdmarx->XferAbortCallback = I2C_DMAAbort;
 9055              		.loc 1 4168 0
 9056 00f4 7B68     		ldr	r3, [r7, #4]
 9057 00f6 DB6B     		ldr	r3, [r3, #60]
 9058 00f8 1A4A     		ldr	r2, .L456+8
 9059 00fa 1A65     		str	r2, [r3, #80]
4169:../../Drivers/STM32F7xx_HAL_Driver/Src/stm32f7xx_hal_i2c.c ****     
4170:../../Drivers/STM32F7xx_HAL_Driver/Src/stm32f7xx_hal_i2c.c ****     /* Process Unlocked */
4171:../../Drivers/STM32F7xx_HAL_Driver/Src/stm32f7xx_hal_i2c.c ****     __HAL_UNLOCK(hi2c);
 9060              		.loc 1 4171 0
 9061 00fc 7B68     		ldr	r3, [r7, #4]
 9062 00fe 0022     		movs	r2, #0
 9063 0100 83F84020 		strb	r2, [r3, #64]
4172:../../Drivers/STM32F7xx_HAL_Driver/Src/stm32f7xx_hal_i2c.c ****     
4173:../../Drivers/STM32F7xx_HAL_Driver/Src/stm32f7xx_hal_i2c.c ****     /* Abort DMA RX */
4174:../../Drivers/STM32F7xx_HAL_Driver/Src/stm32f7xx_hal_i2c.c ****     if(HAL_DMA_Abort_IT(hi2c->hdmarx) != HAL_OK)
 9064              		.loc 1 4174 0
 9065 0104 7B68     		ldr	r3, [r7, #4]
 9066 0106 DB6B     		ldr	r3, [r3, #60]
 9067 0108 1846     		mov	r0, r3
 9068 010a FFF7FEFF 		bl	HAL_DMA_Abort_IT
 9069 010e 0346     		mov	r3, r0
 9070 0110 002B     		cmp	r3, #0
 9071 0112 20D0     		beq	.L446
4175:../../Drivers/STM32F7xx_HAL_Driver/Src/stm32f7xx_hal_i2c.c ****     {
4176:../../Drivers/STM32F7xx_HAL_Driver/Src/stm32f7xx_hal_i2c.c ****       /* Call Directly hi2c->hdmarx->XferAbortCallback function in case of error */
4177:../../Drivers/STM32F7xx_HAL_Driver/Src/stm32f7xx_hal_i2c.c ****       hi2c->hdmarx->XferAbortCallback(hi2c->hdmarx);
 9072              		.loc 1 4177 0
 9073 0114 7B68     		ldr	r3, [r7, #4]
 9074 0116 DB6B     		ldr	r3, [r3, #60]
 9075 0118 1B6D     		ldr	r3, [r3, #80]
 9076 011a 7A68     		ldr	r2, [r7, #4]
 9077 011c D26B     		ldr	r2, [r2, #60]
 9078 011e 1046     		mov	r0, r2
 9079 0120 9847     		blx	r3
 9080 0122 18E0     		b	.L446
 9081              	.L453:
4178:../../Drivers/STM32F7xx_HAL_Driver/Src/stm32f7xx_hal_i2c.c ****     }
ARM GAS  /tmp/cczIhzQ0.s 			page 232


4179:../../Drivers/STM32F7xx_HAL_Driver/Src/stm32f7xx_hal_i2c.c ****   }
4180:../../Drivers/STM32F7xx_HAL_Driver/Src/stm32f7xx_hal_i2c.c ****   else if(hi2c->ErrorCode == HAL_I2C_ERROR_ABORT)
 9082              		.loc 1 4180 0
 9083 0124 7B68     		ldr	r3, [r7, #4]
 9084 0126 5B6C     		ldr	r3, [r3, #68]
 9085 0128 802B     		cmp	r3, #128
 9086 012a 0DD1     		bne	.L455
4181:../../Drivers/STM32F7xx_HAL_Driver/Src/stm32f7xx_hal_i2c.c ****   {
4182:../../Drivers/STM32F7xx_HAL_Driver/Src/stm32f7xx_hal_i2c.c ****     hi2c->ErrorCode &= ~HAL_I2C_ERROR_ABORT;
 9087              		.loc 1 4182 0
 9088 012c 7B68     		ldr	r3, [r7, #4]
 9089 012e 5B6C     		ldr	r3, [r3, #68]
 9090 0130 23F08002 		bic	r2, r3, #128
 9091 0134 7B68     		ldr	r3, [r7, #4]
 9092 0136 5A64     		str	r2, [r3, #68]
4183:../../Drivers/STM32F7xx_HAL_Driver/Src/stm32f7xx_hal_i2c.c ****     
4184:../../Drivers/STM32F7xx_HAL_Driver/Src/stm32f7xx_hal_i2c.c ****     /* Process Unlocked */
4185:../../Drivers/STM32F7xx_HAL_Driver/Src/stm32f7xx_hal_i2c.c ****     __HAL_UNLOCK(hi2c);
 9093              		.loc 1 4185 0
 9094 0138 7B68     		ldr	r3, [r7, #4]
 9095 013a 0022     		movs	r2, #0
 9096 013c 83F84020 		strb	r2, [r3, #64]
4186:../../Drivers/STM32F7xx_HAL_Driver/Src/stm32f7xx_hal_i2c.c ****     
4187:../../Drivers/STM32F7xx_HAL_Driver/Src/stm32f7xx_hal_i2c.c ****     /* Call the corresponding callback to inform upper layer of End of Transfer */
4188:../../Drivers/STM32F7xx_HAL_Driver/Src/stm32f7xx_hal_i2c.c ****     HAL_I2C_AbortCpltCallback(hi2c);
 9097              		.loc 1 4188 0
 9098 0140 7868     		ldr	r0, [r7, #4]
 9099 0142 FFF7FEFF 		bl	HAL_I2C_AbortCpltCallback
 9100 0146 06E0     		b	.L446
 9101              	.L455:
4189:../../Drivers/STM32F7xx_HAL_Driver/Src/stm32f7xx_hal_i2c.c ****   }
4190:../../Drivers/STM32F7xx_HAL_Driver/Src/stm32f7xx_hal_i2c.c ****   else
4191:../../Drivers/STM32F7xx_HAL_Driver/Src/stm32f7xx_hal_i2c.c ****   {
4192:../../Drivers/STM32F7xx_HAL_Driver/Src/stm32f7xx_hal_i2c.c ****     /* Process Unlocked */
4193:../../Drivers/STM32F7xx_HAL_Driver/Src/stm32f7xx_hal_i2c.c ****     __HAL_UNLOCK(hi2c);
 9102              		.loc 1 4193 0
 9103 0148 7B68     		ldr	r3, [r7, #4]
 9104 014a 0022     		movs	r2, #0
 9105 014c 83F84020 		strb	r2, [r3, #64]
4194:../../Drivers/STM32F7xx_HAL_Driver/Src/stm32f7xx_hal_i2c.c ****     
4195:../../Drivers/STM32F7xx_HAL_Driver/Src/stm32f7xx_hal_i2c.c ****     /* Call the corresponding callback to inform upper layer of End of Transfer */
4196:../../Drivers/STM32F7xx_HAL_Driver/Src/stm32f7xx_hal_i2c.c ****     HAL_I2C_ErrorCallback(hi2c);
 9106              		.loc 1 4196 0
 9107 0150 7868     		ldr	r0, [r7, #4]
 9108 0152 FFF7FEFF 		bl	HAL_I2C_ErrorCallback
 9109              	.L446:
4197:../../Drivers/STM32F7xx_HAL_Driver/Src/stm32f7xx_hal_i2c.c ****   }
4198:../../Drivers/STM32F7xx_HAL_Driver/Src/stm32f7xx_hal_i2c.c **** }
 9110              		.loc 1 4198 0
 9111 0156 0837     		adds	r7, r7, #8
 9112              	.LCFI303:
 9113              		.cfi_def_cfa_offset 8
 9114 0158 BD46     		mov	sp, r7
 9115              	.LCFI304:
 9116              		.cfi_def_cfa_register 13
 9117              		@ sp needed
 9118 015a 80BD     		pop	{r7, pc}
ARM GAS  /tmp/cczIhzQ0.s 			page 233


 9119              	.L457:
 9120              		.align	2
 9121              	.L456:
 9122 015c 0000FFFF 		.word	-65536
 9123 0160 00000000 		.word	I2C_Slave_ISR_IT
 9124 0164 00000000 		.word	I2C_DMAAbort
 9125              		.cfi_endproc
 9126              	.LFE192:
 9128              		.section	.text.I2C_Flush_TXDR,"ax",%progbits
 9129              		.align	2
 9130              		.thumb
 9131              		.thumb_func
 9133              	I2C_Flush_TXDR:
 9134              	.LFB193:
4199:../../Drivers/STM32F7xx_HAL_Driver/Src/stm32f7xx_hal_i2c.c **** 
4200:../../Drivers/STM32F7xx_HAL_Driver/Src/stm32f7xx_hal_i2c.c **** /**
4201:../../Drivers/STM32F7xx_HAL_Driver/Src/stm32f7xx_hal_i2c.c ****   * @brief  I2C Tx data register flush process.
4202:../../Drivers/STM32F7xx_HAL_Driver/Src/stm32f7xx_hal_i2c.c ****   * @param  hi2c: I2C handle.
4203:../../Drivers/STM32F7xx_HAL_Driver/Src/stm32f7xx_hal_i2c.c ****   * @retval None
4204:../../Drivers/STM32F7xx_HAL_Driver/Src/stm32f7xx_hal_i2c.c ****   */
4205:../../Drivers/STM32F7xx_HAL_Driver/Src/stm32f7xx_hal_i2c.c **** static void I2C_Flush_TXDR(I2C_HandleTypeDef *hi2c)
4206:../../Drivers/STM32F7xx_HAL_Driver/Src/stm32f7xx_hal_i2c.c **** {
 9135              		.loc 1 4206 0
 9136              		.cfi_startproc
 9137              		@ args = 0, pretend = 0, frame = 8
 9138              		@ frame_needed = 1, uses_anonymous_args = 0
 9139              		@ link register save eliminated.
 9140 0000 80B4     		push	{r7}
 9141              	.LCFI305:
 9142              		.cfi_def_cfa_offset 4
 9143              		.cfi_offset 7, -4
 9144 0002 83B0     		sub	sp, sp, #12
 9145              	.LCFI306:
 9146              		.cfi_def_cfa_offset 16
 9147 0004 00AF     		add	r7, sp, #0
 9148              	.LCFI307:
 9149              		.cfi_def_cfa_register 7
 9150 0006 7860     		str	r0, [r7, #4]
4207:../../Drivers/STM32F7xx_HAL_Driver/Src/stm32f7xx_hal_i2c.c ****   /* If a pending TXIS flag is set */
4208:../../Drivers/STM32F7xx_HAL_Driver/Src/stm32f7xx_hal_i2c.c ****   /* Write a dummy data in TXDR to clear it */
4209:../../Drivers/STM32F7xx_HAL_Driver/Src/stm32f7xx_hal_i2c.c ****   if(__HAL_I2C_GET_FLAG(hi2c, I2C_FLAG_TXIS) != RESET)
 9151              		.loc 1 4209 0
 9152 0008 7B68     		ldr	r3, [r7, #4]
 9153 000a 1B68     		ldr	r3, [r3]
 9154 000c 9B69     		ldr	r3, [r3, #24]
 9155 000e 03F00203 		and	r3, r3, #2
 9156 0012 002B     		cmp	r3, #0
 9157 0014 03D0     		beq	.L459
4210:../../Drivers/STM32F7xx_HAL_Driver/Src/stm32f7xx_hal_i2c.c ****   {
4211:../../Drivers/STM32F7xx_HAL_Driver/Src/stm32f7xx_hal_i2c.c ****      hi2c->Instance->TXDR = 0x00;
 9158              		.loc 1 4211 0
 9159 0016 7B68     		ldr	r3, [r7, #4]
 9160 0018 1B68     		ldr	r3, [r3]
 9161 001a 0022     		movs	r2, #0
 9162 001c 9A62     		str	r2, [r3, #40]
 9163              	.L459:
4212:../../Drivers/STM32F7xx_HAL_Driver/Src/stm32f7xx_hal_i2c.c ****   }
ARM GAS  /tmp/cczIhzQ0.s 			page 234


4213:../../Drivers/STM32F7xx_HAL_Driver/Src/stm32f7xx_hal_i2c.c ****   
4214:../../Drivers/STM32F7xx_HAL_Driver/Src/stm32f7xx_hal_i2c.c ****   /* Flush TX register if not empty */
4215:../../Drivers/STM32F7xx_HAL_Driver/Src/stm32f7xx_hal_i2c.c ****   if(__HAL_I2C_GET_FLAG(hi2c, I2C_FLAG_TXE) == RESET)
 9164              		.loc 1 4215 0
 9165 001e 7B68     		ldr	r3, [r7, #4]
 9166 0020 1B68     		ldr	r3, [r3]
 9167 0022 9B69     		ldr	r3, [r3, #24]
 9168 0024 03F00103 		and	r3, r3, #1
 9169 0028 002B     		cmp	r3, #0
 9170 002a 07D1     		bne	.L458
4216:../../Drivers/STM32F7xx_HAL_Driver/Src/stm32f7xx_hal_i2c.c ****   {
4217:../../Drivers/STM32F7xx_HAL_Driver/Src/stm32f7xx_hal_i2c.c ****     __HAL_I2C_CLEAR_FLAG(hi2c, I2C_FLAG_TXE);
 9171              		.loc 1 4217 0
 9172 002c 7B68     		ldr	r3, [r7, #4]
 9173 002e 1B68     		ldr	r3, [r3]
 9174 0030 7A68     		ldr	r2, [r7, #4]
 9175 0032 1268     		ldr	r2, [r2]
 9176 0034 9269     		ldr	r2, [r2, #24]
 9177 0036 42F00102 		orr	r2, r2, #1
 9178 003a 9A61     		str	r2, [r3, #24]
 9179              	.L458:
4218:../../Drivers/STM32F7xx_HAL_Driver/Src/stm32f7xx_hal_i2c.c ****   }
4219:../../Drivers/STM32F7xx_HAL_Driver/Src/stm32f7xx_hal_i2c.c **** }
 9180              		.loc 1 4219 0
 9181 003c 0C37     		adds	r7, r7, #12
 9182              	.LCFI308:
 9183              		.cfi_def_cfa_offset 4
 9184 003e BD46     		mov	sp, r7
 9185              	.LCFI309:
 9186              		.cfi_def_cfa_register 13
 9187              		@ sp needed
 9188 0040 5DF8047B 		ldr	r7, [sp], #4
 9189              	.LCFI310:
 9190              		.cfi_restore 7
 9191              		.cfi_def_cfa_offset 0
 9192 0044 7047     		bx	lr
 9193              		.cfi_endproc
 9194              	.LFE193:
 9196 0046 00BF     		.section	.text.I2C_DMAMasterTransmitCplt,"ax",%progbits
 9197              		.align	2
 9198              		.thumb
 9199              		.thumb_func
 9201              	I2C_DMAMasterTransmitCplt:
 9202              	.LFB194:
4220:../../Drivers/STM32F7xx_HAL_Driver/Src/stm32f7xx_hal_i2c.c **** 
4221:../../Drivers/STM32F7xx_HAL_Driver/Src/stm32f7xx_hal_i2c.c **** /**
4222:../../Drivers/STM32F7xx_HAL_Driver/Src/stm32f7xx_hal_i2c.c ****   * @brief  DMA I2C master transmit process complete callback.
4223:../../Drivers/STM32F7xx_HAL_Driver/Src/stm32f7xx_hal_i2c.c ****   * @param  hdma: DMA handle
4224:../../Drivers/STM32F7xx_HAL_Driver/Src/stm32f7xx_hal_i2c.c ****   * @retval None
4225:../../Drivers/STM32F7xx_HAL_Driver/Src/stm32f7xx_hal_i2c.c ****   */
4226:../../Drivers/STM32F7xx_HAL_Driver/Src/stm32f7xx_hal_i2c.c **** static void I2C_DMAMasterTransmitCplt(DMA_HandleTypeDef *hdma)
4227:../../Drivers/STM32F7xx_HAL_Driver/Src/stm32f7xx_hal_i2c.c **** {
 9203              		.loc 1 4227 0
 9204              		.cfi_startproc
 9205              		@ args = 0, pretend = 0, frame = 16
 9206              		@ frame_needed = 1, uses_anonymous_args = 0
 9207 0000 90B5     		push	{r4, r7, lr}
ARM GAS  /tmp/cczIhzQ0.s 			page 235


 9208              	.LCFI311:
 9209              		.cfi_def_cfa_offset 12
 9210              		.cfi_offset 4, -12
 9211              		.cfi_offset 7, -8
 9212              		.cfi_offset 14, -4
 9213 0002 85B0     		sub	sp, sp, #20
 9214              	.LCFI312:
 9215              		.cfi_def_cfa_offset 32
 9216 0004 00AF     		add	r7, sp, #0
 9217              	.LCFI313:
 9218              		.cfi_def_cfa_register 7
 9219 0006 7860     		str	r0, [r7, #4]
4228:../../Drivers/STM32F7xx_HAL_Driver/Src/stm32f7xx_hal_i2c.c ****   I2C_HandleTypeDef* hi2c = (I2C_HandleTypeDef*)((DMA_HandleTypeDef*)hdma)->Parent;
 9220              		.loc 1 4228 0
 9221 0008 7B68     		ldr	r3, [r7, #4]
 9222 000a 9B6B     		ldr	r3, [r3, #56]
 9223 000c FB60     		str	r3, [r7, #12]
4229:../../Drivers/STM32F7xx_HAL_Driver/Src/stm32f7xx_hal_i2c.c ****   
4230:../../Drivers/STM32F7xx_HAL_Driver/Src/stm32f7xx_hal_i2c.c ****   /* Disable DMA Request */
4231:../../Drivers/STM32F7xx_HAL_Driver/Src/stm32f7xx_hal_i2c.c ****   hi2c->Instance->CR1 &= ~I2C_CR1_TXDMAEN;
 9224              		.loc 1 4231 0
 9225 000e FB68     		ldr	r3, [r7, #12]
 9226 0010 1B68     		ldr	r3, [r3]
 9227 0012 FA68     		ldr	r2, [r7, #12]
 9228 0014 1268     		ldr	r2, [r2]
 9229 0016 1268     		ldr	r2, [r2]
 9230 0018 22F48042 		bic	r2, r2, #16384
 9231 001c 1A60     		str	r2, [r3]
4232:../../Drivers/STM32F7xx_HAL_Driver/Src/stm32f7xx_hal_i2c.c ****   
4233:../../Drivers/STM32F7xx_HAL_Driver/Src/stm32f7xx_hal_i2c.c ****   /* If last transfer, enable STOP interrupt */
4234:../../Drivers/STM32F7xx_HAL_Driver/Src/stm32f7xx_hal_i2c.c ****   if(hi2c->XferCount == 0)
 9232              		.loc 1 4234 0
 9233 001e FB68     		ldr	r3, [r7, #12]
 9234 0020 5B8D     		ldrh	r3, [r3, #42]	@ movhi
 9235 0022 9BB2     		uxth	r3, r3
 9236 0024 002B     		cmp	r3, #0
 9237 0026 04D1     		bne	.L462
4235:../../Drivers/STM32F7xx_HAL_Driver/Src/stm32f7xx_hal_i2c.c ****   {
4236:../../Drivers/STM32F7xx_HAL_Driver/Src/stm32f7xx_hal_i2c.c ****     /* Enable STOP interrupt */
4237:../../Drivers/STM32F7xx_HAL_Driver/Src/stm32f7xx_hal_i2c.c ****     I2C_Enable_IRQ(hi2c, I2C_XFER_CPLT_IT);
 9238              		.loc 1 4237 0
 9239 0028 F868     		ldr	r0, [r7, #12]
 9240 002a 1221     		movs	r1, #18
 9241 002c FFF7FEFF 		bl	I2C_Enable_IRQ
 9242 0030 27E0     		b	.L461
 9243              	.L462:
4238:../../Drivers/STM32F7xx_HAL_Driver/Src/stm32f7xx_hal_i2c.c ****   }
4239:../../Drivers/STM32F7xx_HAL_Driver/Src/stm32f7xx_hal_i2c.c ****   /* else prepare a new DMA transfer and enable TCReload interrupt */
4240:../../Drivers/STM32F7xx_HAL_Driver/Src/stm32f7xx_hal_i2c.c ****   else
4241:../../Drivers/STM32F7xx_HAL_Driver/Src/stm32f7xx_hal_i2c.c ****   {
4242:../../Drivers/STM32F7xx_HAL_Driver/Src/stm32f7xx_hal_i2c.c ****     /* Update Buffer pointer */
4243:../../Drivers/STM32F7xx_HAL_Driver/Src/stm32f7xx_hal_i2c.c ****     hi2c->pBuffPtr += hi2c->XferSize;
 9244              		.loc 1 4243 0
 9245 0032 FB68     		ldr	r3, [r7, #12]
 9246 0034 5B6A     		ldr	r3, [r3, #36]
 9247 0036 FA68     		ldr	r2, [r7, #12]
 9248 0038 128D     		ldrh	r2, [r2, #40]
ARM GAS  /tmp/cczIhzQ0.s 			page 236


 9249 003a 1A44     		add	r2, r2, r3
 9250 003c FB68     		ldr	r3, [r7, #12]
 9251 003e 5A62     		str	r2, [r3, #36]
4244:../../Drivers/STM32F7xx_HAL_Driver/Src/stm32f7xx_hal_i2c.c ****     
4245:../../Drivers/STM32F7xx_HAL_Driver/Src/stm32f7xx_hal_i2c.c ****     /* Set the XferSize to transfer */
4246:../../Drivers/STM32F7xx_HAL_Driver/Src/stm32f7xx_hal_i2c.c ****     if(hi2c->XferCount > MAX_NBYTE_SIZE)
 9252              		.loc 1 4246 0
 9253 0040 FB68     		ldr	r3, [r7, #12]
 9254 0042 5B8D     		ldrh	r3, [r3, #42]	@ movhi
 9255 0044 9BB2     		uxth	r3, r3
 9256 0046 FF2B     		cmp	r3, #255
 9257 0048 03D9     		bls	.L464
4247:../../Drivers/STM32F7xx_HAL_Driver/Src/stm32f7xx_hal_i2c.c ****     {
4248:../../Drivers/STM32F7xx_HAL_Driver/Src/stm32f7xx_hal_i2c.c ****       hi2c->XferSize = MAX_NBYTE_SIZE;
 9258              		.loc 1 4248 0
 9259 004a FB68     		ldr	r3, [r7, #12]
 9260 004c FF22     		movs	r2, #255
 9261 004e 1A85     		strh	r2, [r3, #40]	@ movhi
 9262 0050 04E0     		b	.L465
 9263              	.L464:
4249:../../Drivers/STM32F7xx_HAL_Driver/Src/stm32f7xx_hal_i2c.c ****     }
4250:../../Drivers/STM32F7xx_HAL_Driver/Src/stm32f7xx_hal_i2c.c ****     else
4251:../../Drivers/STM32F7xx_HAL_Driver/Src/stm32f7xx_hal_i2c.c ****     {
4252:../../Drivers/STM32F7xx_HAL_Driver/Src/stm32f7xx_hal_i2c.c ****       hi2c->XferSize = hi2c->XferCount;
 9264              		.loc 1 4252 0
 9265 0052 FB68     		ldr	r3, [r7, #12]
 9266 0054 5B8D     		ldrh	r3, [r3, #42]	@ movhi
 9267 0056 9AB2     		uxth	r2, r3
 9268 0058 FB68     		ldr	r3, [r7, #12]
 9269 005a 1A85     		strh	r2, [r3, #40]	@ movhi
 9270              	.L465:
4253:../../Drivers/STM32F7xx_HAL_Driver/Src/stm32f7xx_hal_i2c.c ****     }
4254:../../Drivers/STM32F7xx_HAL_Driver/Src/stm32f7xx_hal_i2c.c ****     
4255:../../Drivers/STM32F7xx_HAL_Driver/Src/stm32f7xx_hal_i2c.c ****     /* Enable the DMA channel */
4256:../../Drivers/STM32F7xx_HAL_Driver/Src/stm32f7xx_hal_i2c.c ****     HAL_DMA_Start_IT(hi2c->hdmatx, (uint32_t)hi2c->pBuffPtr, (uint32_t)&hi2c->Instance->TXDR, hi2c-
 9271              		.loc 1 4256 0
 9272 005c FB68     		ldr	r3, [r7, #12]
 9273 005e 9A6B     		ldr	r2, [r3, #56]
 9274 0060 FB68     		ldr	r3, [r7, #12]
 9275 0062 5B6A     		ldr	r3, [r3, #36]
 9276 0064 1946     		mov	r1, r3
 9277 0066 FB68     		ldr	r3, [r7, #12]
 9278 0068 1B68     		ldr	r3, [r3]
 9279 006a 2833     		adds	r3, r3, #40
 9280 006c 1C46     		mov	r4, r3
 9281 006e FB68     		ldr	r3, [r7, #12]
 9282 0070 1B8D     		ldrh	r3, [r3, #40]
 9283 0072 1046     		mov	r0, r2
 9284 0074 2246     		mov	r2, r4
 9285 0076 FFF7FEFF 		bl	HAL_DMA_Start_IT
4257:../../Drivers/STM32F7xx_HAL_Driver/Src/stm32f7xx_hal_i2c.c ****     
4258:../../Drivers/STM32F7xx_HAL_Driver/Src/stm32f7xx_hal_i2c.c ****     /* Enable TC interrupts */
4259:../../Drivers/STM32F7xx_HAL_Driver/Src/stm32f7xx_hal_i2c.c ****     I2C_Enable_IRQ(hi2c, I2C_XFER_RELOAD_IT);
 9286              		.loc 1 4259 0
 9287 007a F868     		ldr	r0, [r7, #12]
 9288 007c 1221     		movs	r1, #18
 9289 007e FFF7FEFF 		bl	I2C_Enable_IRQ
ARM GAS  /tmp/cczIhzQ0.s 			page 237


 9290              	.L461:
4260:../../Drivers/STM32F7xx_HAL_Driver/Src/stm32f7xx_hal_i2c.c ****   }
4261:../../Drivers/STM32F7xx_HAL_Driver/Src/stm32f7xx_hal_i2c.c **** }
 9291              		.loc 1 4261 0
 9292 0082 1437     		adds	r7, r7, #20
 9293              	.LCFI314:
 9294              		.cfi_def_cfa_offset 12
 9295 0084 BD46     		mov	sp, r7
 9296              	.LCFI315:
 9297              		.cfi_def_cfa_register 13
 9298              		@ sp needed
 9299 0086 90BD     		pop	{r4, r7, pc}
 9300              		.cfi_endproc
 9301              	.LFE194:
 9303              		.section	.text.I2C_DMASlaveTransmitCplt,"ax",%progbits
 9304              		.align	2
 9305              		.thumb
 9306              		.thumb_func
 9308              	I2C_DMASlaveTransmitCplt:
 9309              	.LFB195:
4262:../../Drivers/STM32F7xx_HAL_Driver/Src/stm32f7xx_hal_i2c.c **** 
4263:../../Drivers/STM32F7xx_HAL_Driver/Src/stm32f7xx_hal_i2c.c **** /**
4264:../../Drivers/STM32F7xx_HAL_Driver/Src/stm32f7xx_hal_i2c.c ****   * @brief  DMA I2C slave transmit process complete callback.
4265:../../Drivers/STM32F7xx_HAL_Driver/Src/stm32f7xx_hal_i2c.c ****   * @param  hdma: DMA handle
4266:../../Drivers/STM32F7xx_HAL_Driver/Src/stm32f7xx_hal_i2c.c ****   * @retval None
4267:../../Drivers/STM32F7xx_HAL_Driver/Src/stm32f7xx_hal_i2c.c ****   */
4268:../../Drivers/STM32F7xx_HAL_Driver/Src/stm32f7xx_hal_i2c.c **** static void I2C_DMASlaveTransmitCplt(DMA_HandleTypeDef *hdma)
4269:../../Drivers/STM32F7xx_HAL_Driver/Src/stm32f7xx_hal_i2c.c **** {
 9310              		.loc 1 4269 0
 9311              		.cfi_startproc
 9312              		@ args = 0, pretend = 0, frame = 8
 9313              		@ frame_needed = 1, uses_anonymous_args = 0
 9314              		@ link register save eliminated.
 9315 0000 80B4     		push	{r7}
 9316              	.LCFI316:
 9317              		.cfi_def_cfa_offset 4
 9318              		.cfi_offset 7, -4
 9319 0002 83B0     		sub	sp, sp, #12
 9320              	.LCFI317:
 9321              		.cfi_def_cfa_offset 16
 9322 0004 00AF     		add	r7, sp, #0
 9323              	.LCFI318:
 9324              		.cfi_def_cfa_register 7
 9325 0006 7860     		str	r0, [r7, #4]
4270:../../Drivers/STM32F7xx_HAL_Driver/Src/stm32f7xx_hal_i2c.c ****   /* No specific action, Master fully manage the generation of STOP condition */
4271:../../Drivers/STM32F7xx_HAL_Driver/Src/stm32f7xx_hal_i2c.c ****   /* Mean that this generation can arrive at any time, at the end or during DMA process */
4272:../../Drivers/STM32F7xx_HAL_Driver/Src/stm32f7xx_hal_i2c.c ****   /* So STOP condition should be manage through Interrupt treatment */
4273:../../Drivers/STM32F7xx_HAL_Driver/Src/stm32f7xx_hal_i2c.c **** }
 9326              		.loc 1 4273 0
 9327 0008 0C37     		adds	r7, r7, #12
 9328              	.LCFI319:
 9329              		.cfi_def_cfa_offset 4
 9330 000a BD46     		mov	sp, r7
 9331              	.LCFI320:
 9332              		.cfi_def_cfa_register 13
 9333              		@ sp needed
 9334 000c 5DF8047B 		ldr	r7, [sp], #4
ARM GAS  /tmp/cczIhzQ0.s 			page 238


 9335              	.LCFI321:
 9336              		.cfi_restore 7
 9337              		.cfi_def_cfa_offset 0
 9338 0010 7047     		bx	lr
 9339              		.cfi_endproc
 9340              	.LFE195:
 9342 0012 00BF     		.section	.text.I2C_DMAMasterReceiveCplt,"ax",%progbits
 9343              		.align	2
 9344              		.thumb
 9345              		.thumb_func
 9347              	I2C_DMAMasterReceiveCplt:
 9348              	.LFB196:
4274:../../Drivers/STM32F7xx_HAL_Driver/Src/stm32f7xx_hal_i2c.c **** 
4275:../../Drivers/STM32F7xx_HAL_Driver/Src/stm32f7xx_hal_i2c.c **** /**
4276:../../Drivers/STM32F7xx_HAL_Driver/Src/stm32f7xx_hal_i2c.c ****   * @brief DMA I2C master receive process complete callback.
4277:../../Drivers/STM32F7xx_HAL_Driver/Src/stm32f7xx_hal_i2c.c ****   * @param  hdma: DMA handle
4278:../../Drivers/STM32F7xx_HAL_Driver/Src/stm32f7xx_hal_i2c.c ****   * @retval None
4279:../../Drivers/STM32F7xx_HAL_Driver/Src/stm32f7xx_hal_i2c.c ****   */
4280:../../Drivers/STM32F7xx_HAL_Driver/Src/stm32f7xx_hal_i2c.c **** static void I2C_DMAMasterReceiveCplt(DMA_HandleTypeDef *hdma)
4281:../../Drivers/STM32F7xx_HAL_Driver/Src/stm32f7xx_hal_i2c.c **** {
 9349              		.loc 1 4281 0
 9350              		.cfi_startproc
 9351              		@ args = 0, pretend = 0, frame = 16
 9352              		@ frame_needed = 1, uses_anonymous_args = 0
 9353 0000 90B5     		push	{r4, r7, lr}
 9354              	.LCFI322:
 9355              		.cfi_def_cfa_offset 12
 9356              		.cfi_offset 4, -12
 9357              		.cfi_offset 7, -8
 9358              		.cfi_offset 14, -4
 9359 0002 85B0     		sub	sp, sp, #20
 9360              	.LCFI323:
 9361              		.cfi_def_cfa_offset 32
 9362 0004 00AF     		add	r7, sp, #0
 9363              	.LCFI324:
 9364              		.cfi_def_cfa_register 7
 9365 0006 7860     		str	r0, [r7, #4]
4282:../../Drivers/STM32F7xx_HAL_Driver/Src/stm32f7xx_hal_i2c.c ****   I2C_HandleTypeDef* hi2c = (I2C_HandleTypeDef*)((DMA_HandleTypeDef*)hdma)->Parent;
 9366              		.loc 1 4282 0
 9367 0008 7B68     		ldr	r3, [r7, #4]
 9368 000a 9B6B     		ldr	r3, [r3, #56]
 9369 000c FB60     		str	r3, [r7, #12]
4283:../../Drivers/STM32F7xx_HAL_Driver/Src/stm32f7xx_hal_i2c.c ****   
4284:../../Drivers/STM32F7xx_HAL_Driver/Src/stm32f7xx_hal_i2c.c ****   /* Disable DMA Request */
4285:../../Drivers/STM32F7xx_HAL_Driver/Src/stm32f7xx_hal_i2c.c ****   hi2c->Instance->CR1 &= ~I2C_CR1_RXDMAEN;
 9370              		.loc 1 4285 0
 9371 000e FB68     		ldr	r3, [r7, #12]
 9372 0010 1B68     		ldr	r3, [r3]
 9373 0012 FA68     		ldr	r2, [r7, #12]
 9374 0014 1268     		ldr	r2, [r2]
 9375 0016 1268     		ldr	r2, [r2]
 9376 0018 22F40042 		bic	r2, r2, #32768
 9377 001c 1A60     		str	r2, [r3]
4286:../../Drivers/STM32F7xx_HAL_Driver/Src/stm32f7xx_hal_i2c.c ****   
4287:../../Drivers/STM32F7xx_HAL_Driver/Src/stm32f7xx_hal_i2c.c ****   /* If last transfer, enable STOP interrupt */
4288:../../Drivers/STM32F7xx_HAL_Driver/Src/stm32f7xx_hal_i2c.c ****   if(hi2c->XferCount == 0)
 9378              		.loc 1 4288 0
ARM GAS  /tmp/cczIhzQ0.s 			page 239


 9379 001e FB68     		ldr	r3, [r7, #12]
 9380 0020 5B8D     		ldrh	r3, [r3, #42]	@ movhi
 9381 0022 9BB2     		uxth	r3, r3
 9382 0024 002B     		cmp	r3, #0
 9383 0026 04D1     		bne	.L468
4289:../../Drivers/STM32F7xx_HAL_Driver/Src/stm32f7xx_hal_i2c.c ****   {
4290:../../Drivers/STM32F7xx_HAL_Driver/Src/stm32f7xx_hal_i2c.c ****     /* Enable STOP interrupt */
4291:../../Drivers/STM32F7xx_HAL_Driver/Src/stm32f7xx_hal_i2c.c ****     I2C_Enable_IRQ(hi2c, I2C_XFER_CPLT_IT);
 9384              		.loc 1 4291 0
 9385 0028 F868     		ldr	r0, [r7, #12]
 9386 002a 1221     		movs	r1, #18
 9387 002c FFF7FEFF 		bl	I2C_Enable_IRQ
 9388 0030 27E0     		b	.L467
 9389              	.L468:
4292:../../Drivers/STM32F7xx_HAL_Driver/Src/stm32f7xx_hal_i2c.c ****   }
4293:../../Drivers/STM32F7xx_HAL_Driver/Src/stm32f7xx_hal_i2c.c ****   /* else prepare a new DMA transfer and enable TCReload interrupt */
4294:../../Drivers/STM32F7xx_HAL_Driver/Src/stm32f7xx_hal_i2c.c ****   else
4295:../../Drivers/STM32F7xx_HAL_Driver/Src/stm32f7xx_hal_i2c.c ****   {
4296:../../Drivers/STM32F7xx_HAL_Driver/Src/stm32f7xx_hal_i2c.c ****     /* Update Buffer pointer */
4297:../../Drivers/STM32F7xx_HAL_Driver/Src/stm32f7xx_hal_i2c.c ****     hi2c->pBuffPtr += hi2c->XferSize;
 9390              		.loc 1 4297 0
 9391 0032 FB68     		ldr	r3, [r7, #12]
 9392 0034 5B6A     		ldr	r3, [r3, #36]
 9393 0036 FA68     		ldr	r2, [r7, #12]
 9394 0038 128D     		ldrh	r2, [r2, #40]
 9395 003a 1A44     		add	r2, r2, r3
 9396 003c FB68     		ldr	r3, [r7, #12]
 9397 003e 5A62     		str	r2, [r3, #36]
4298:../../Drivers/STM32F7xx_HAL_Driver/Src/stm32f7xx_hal_i2c.c ****     
4299:../../Drivers/STM32F7xx_HAL_Driver/Src/stm32f7xx_hal_i2c.c ****     /* Set the XferSize to transfer */
4300:../../Drivers/STM32F7xx_HAL_Driver/Src/stm32f7xx_hal_i2c.c ****     if(hi2c->XferCount > MAX_NBYTE_SIZE)
 9398              		.loc 1 4300 0
 9399 0040 FB68     		ldr	r3, [r7, #12]
 9400 0042 5B8D     		ldrh	r3, [r3, #42]	@ movhi
 9401 0044 9BB2     		uxth	r3, r3
 9402 0046 FF2B     		cmp	r3, #255
 9403 0048 03D9     		bls	.L470
4301:../../Drivers/STM32F7xx_HAL_Driver/Src/stm32f7xx_hal_i2c.c ****     {
4302:../../Drivers/STM32F7xx_HAL_Driver/Src/stm32f7xx_hal_i2c.c ****       hi2c->XferSize = MAX_NBYTE_SIZE;
 9404              		.loc 1 4302 0
 9405 004a FB68     		ldr	r3, [r7, #12]
 9406 004c FF22     		movs	r2, #255
 9407 004e 1A85     		strh	r2, [r3, #40]	@ movhi
 9408 0050 04E0     		b	.L471
 9409              	.L470:
4303:../../Drivers/STM32F7xx_HAL_Driver/Src/stm32f7xx_hal_i2c.c ****     }
4304:../../Drivers/STM32F7xx_HAL_Driver/Src/stm32f7xx_hal_i2c.c ****     else
4305:../../Drivers/STM32F7xx_HAL_Driver/Src/stm32f7xx_hal_i2c.c ****     {
4306:../../Drivers/STM32F7xx_HAL_Driver/Src/stm32f7xx_hal_i2c.c ****       hi2c->XferSize = hi2c->XferCount;
 9410              		.loc 1 4306 0
 9411 0052 FB68     		ldr	r3, [r7, #12]
 9412 0054 5B8D     		ldrh	r3, [r3, #42]	@ movhi
 9413 0056 9AB2     		uxth	r2, r3
 9414 0058 FB68     		ldr	r3, [r7, #12]
 9415 005a 1A85     		strh	r2, [r3, #40]	@ movhi
 9416              	.L471:
4307:../../Drivers/STM32F7xx_HAL_Driver/Src/stm32f7xx_hal_i2c.c ****     }
ARM GAS  /tmp/cczIhzQ0.s 			page 240


4308:../../Drivers/STM32F7xx_HAL_Driver/Src/stm32f7xx_hal_i2c.c ****     
4309:../../Drivers/STM32F7xx_HAL_Driver/Src/stm32f7xx_hal_i2c.c ****     /* Enable the DMA channel */
4310:../../Drivers/STM32F7xx_HAL_Driver/Src/stm32f7xx_hal_i2c.c ****     HAL_DMA_Start_IT(hi2c->hdmarx, (uint32_t)&hi2c->Instance->RXDR, (uint32_t)hi2c->pBuffPtr, hi2c-
 9417              		.loc 1 4310 0
 9418 005c FB68     		ldr	r3, [r7, #12]
 9419 005e DA6B     		ldr	r2, [r3, #60]
 9420 0060 FB68     		ldr	r3, [r7, #12]
 9421 0062 1B68     		ldr	r3, [r3]
 9422 0064 2433     		adds	r3, r3, #36
 9423 0066 1946     		mov	r1, r3
 9424 0068 FB68     		ldr	r3, [r7, #12]
 9425 006a 5B6A     		ldr	r3, [r3, #36]
 9426 006c 1C46     		mov	r4, r3
 9427 006e FB68     		ldr	r3, [r7, #12]
 9428 0070 1B8D     		ldrh	r3, [r3, #40]
 9429 0072 1046     		mov	r0, r2
 9430 0074 2246     		mov	r2, r4
 9431 0076 FFF7FEFF 		bl	HAL_DMA_Start_IT
4311:../../Drivers/STM32F7xx_HAL_Driver/Src/stm32f7xx_hal_i2c.c ****     
4312:../../Drivers/STM32F7xx_HAL_Driver/Src/stm32f7xx_hal_i2c.c ****     /* Enable TC interrupts */
4313:../../Drivers/STM32F7xx_HAL_Driver/Src/stm32f7xx_hal_i2c.c ****     I2C_Enable_IRQ(hi2c, I2C_XFER_RELOAD_IT);
 9432              		.loc 1 4313 0
 9433 007a F868     		ldr	r0, [r7, #12]
 9434 007c 1221     		movs	r1, #18
 9435 007e FFF7FEFF 		bl	I2C_Enable_IRQ
 9436              	.L467:
4314:../../Drivers/STM32F7xx_HAL_Driver/Src/stm32f7xx_hal_i2c.c ****   }
4315:../../Drivers/STM32F7xx_HAL_Driver/Src/stm32f7xx_hal_i2c.c **** }
 9437              		.loc 1 4315 0
 9438 0082 1437     		adds	r7, r7, #20
 9439              	.LCFI325:
 9440              		.cfi_def_cfa_offset 12
 9441 0084 BD46     		mov	sp, r7
 9442              	.LCFI326:
 9443              		.cfi_def_cfa_register 13
 9444              		@ sp needed
 9445 0086 90BD     		pop	{r4, r7, pc}
 9446              		.cfi_endproc
 9447              	.LFE196:
 9449              		.section	.text.I2C_DMASlaveReceiveCplt,"ax",%progbits
 9450              		.align	2
 9451              		.thumb
 9452              		.thumb_func
 9454              	I2C_DMASlaveReceiveCplt:
 9455              	.LFB197:
4316:../../Drivers/STM32F7xx_HAL_Driver/Src/stm32f7xx_hal_i2c.c **** 
4317:../../Drivers/STM32F7xx_HAL_Driver/Src/stm32f7xx_hal_i2c.c **** /**
4318:../../Drivers/STM32F7xx_HAL_Driver/Src/stm32f7xx_hal_i2c.c ****   * @brief  DMA I2C slave receive process complete callback.
4319:../../Drivers/STM32F7xx_HAL_Driver/Src/stm32f7xx_hal_i2c.c ****   * @param hdma: DMA handle
4320:../../Drivers/STM32F7xx_HAL_Driver/Src/stm32f7xx_hal_i2c.c ****   * @retval None
4321:../../Drivers/STM32F7xx_HAL_Driver/Src/stm32f7xx_hal_i2c.c ****   */
4322:../../Drivers/STM32F7xx_HAL_Driver/Src/stm32f7xx_hal_i2c.c **** static void I2C_DMASlaveReceiveCplt(DMA_HandleTypeDef *hdma)
4323:../../Drivers/STM32F7xx_HAL_Driver/Src/stm32f7xx_hal_i2c.c **** {
 9456              		.loc 1 4323 0
 9457              		.cfi_startproc
 9458              		@ args = 0, pretend = 0, frame = 8
 9459              		@ frame_needed = 1, uses_anonymous_args = 0
ARM GAS  /tmp/cczIhzQ0.s 			page 241


 9460              		@ link register save eliminated.
 9461 0000 80B4     		push	{r7}
 9462              	.LCFI327:
 9463              		.cfi_def_cfa_offset 4
 9464              		.cfi_offset 7, -4
 9465 0002 83B0     		sub	sp, sp, #12
 9466              	.LCFI328:
 9467              		.cfi_def_cfa_offset 16
 9468 0004 00AF     		add	r7, sp, #0
 9469              	.LCFI329:
 9470              		.cfi_def_cfa_register 7
 9471 0006 7860     		str	r0, [r7, #4]
4324:../../Drivers/STM32F7xx_HAL_Driver/Src/stm32f7xx_hal_i2c.c ****   /* No specific action, Master fully manage the generation of STOP condition */
4325:../../Drivers/STM32F7xx_HAL_Driver/Src/stm32f7xx_hal_i2c.c ****   /* Mean that this generation can arrive at any time, at the end or during DMA process */
4326:../../Drivers/STM32F7xx_HAL_Driver/Src/stm32f7xx_hal_i2c.c ****   /* So STOP condition should be manage through Interrupt treatment */
4327:../../Drivers/STM32F7xx_HAL_Driver/Src/stm32f7xx_hal_i2c.c **** }
 9472              		.loc 1 4327 0
 9473 0008 0C37     		adds	r7, r7, #12
 9474              	.LCFI330:
 9475              		.cfi_def_cfa_offset 4
 9476 000a BD46     		mov	sp, r7
 9477              	.LCFI331:
 9478              		.cfi_def_cfa_register 13
 9479              		@ sp needed
 9480 000c 5DF8047B 		ldr	r7, [sp], #4
 9481              	.LCFI332:
 9482              		.cfi_restore 7
 9483              		.cfi_def_cfa_offset 0
 9484 0010 7047     		bx	lr
 9485              		.cfi_endproc
 9486              	.LFE197:
 9488 0012 00BF     		.section	.text.I2C_DMAError,"ax",%progbits
 9489              		.align	2
 9490              		.thumb
 9491              		.thumb_func
 9493              	I2C_DMAError:
 9494              	.LFB198:
4328:../../Drivers/STM32F7xx_HAL_Driver/Src/stm32f7xx_hal_i2c.c **** 
4329:../../Drivers/STM32F7xx_HAL_Driver/Src/stm32f7xx_hal_i2c.c **** /**
4330:../../Drivers/STM32F7xx_HAL_Driver/Src/stm32f7xx_hal_i2c.c ****   * @brief  DMA I2C communication error callback.
4331:../../Drivers/STM32F7xx_HAL_Driver/Src/stm32f7xx_hal_i2c.c ****   * @param hdma: DMA handle
4332:../../Drivers/STM32F7xx_HAL_Driver/Src/stm32f7xx_hal_i2c.c ****   * @retval None
4333:../../Drivers/STM32F7xx_HAL_Driver/Src/stm32f7xx_hal_i2c.c ****   */
4334:../../Drivers/STM32F7xx_HAL_Driver/Src/stm32f7xx_hal_i2c.c **** static void I2C_DMAError(DMA_HandleTypeDef *hdma)
4335:../../Drivers/STM32F7xx_HAL_Driver/Src/stm32f7xx_hal_i2c.c **** {
 9495              		.loc 1 4335 0
 9496              		.cfi_startproc
 9497              		@ args = 0, pretend = 0, frame = 16
 9498              		@ frame_needed = 1, uses_anonymous_args = 0
 9499 0000 80B5     		push	{r7, lr}
 9500              	.LCFI333:
 9501              		.cfi_def_cfa_offset 8
 9502              		.cfi_offset 7, -8
 9503              		.cfi_offset 14, -4
 9504 0002 84B0     		sub	sp, sp, #16
 9505              	.LCFI334:
 9506              		.cfi_def_cfa_offset 24
ARM GAS  /tmp/cczIhzQ0.s 			page 242


 9507 0004 00AF     		add	r7, sp, #0
 9508              	.LCFI335:
 9509              		.cfi_def_cfa_register 7
 9510 0006 7860     		str	r0, [r7, #4]
4336:../../Drivers/STM32F7xx_HAL_Driver/Src/stm32f7xx_hal_i2c.c ****   I2C_HandleTypeDef* hi2c = ( I2C_HandleTypeDef* )((DMA_HandleTypeDef* )hdma)->Parent;
 9511              		.loc 1 4336 0
 9512 0008 7B68     		ldr	r3, [r7, #4]
 9513 000a 9B6B     		ldr	r3, [r3, #56]
 9514 000c FB60     		str	r3, [r7, #12]
4337:../../Drivers/STM32F7xx_HAL_Driver/Src/stm32f7xx_hal_i2c.c ****   
4338:../../Drivers/STM32F7xx_HAL_Driver/Src/stm32f7xx_hal_i2c.c ****   /* Disable Acknowledge */
4339:../../Drivers/STM32F7xx_HAL_Driver/Src/stm32f7xx_hal_i2c.c ****   hi2c->Instance->CR2 |= I2C_CR2_NACK;
 9515              		.loc 1 4339 0
 9516 000e FB68     		ldr	r3, [r7, #12]
 9517 0010 1B68     		ldr	r3, [r3]
 9518 0012 FA68     		ldr	r2, [r7, #12]
 9519 0014 1268     		ldr	r2, [r2]
 9520 0016 5268     		ldr	r2, [r2, #4]
 9521 0018 42F40042 		orr	r2, r2, #32768
 9522 001c 5A60     		str	r2, [r3, #4]
4340:../../Drivers/STM32F7xx_HAL_Driver/Src/stm32f7xx_hal_i2c.c ****   
4341:../../Drivers/STM32F7xx_HAL_Driver/Src/stm32f7xx_hal_i2c.c ****   /* Call the corresponding callback to inform upper layer of End of Transfer */
4342:../../Drivers/STM32F7xx_HAL_Driver/Src/stm32f7xx_hal_i2c.c ****   I2C_ITError(hi2c, HAL_I2C_ERROR_DMA);
 9523              		.loc 1 4342 0
 9524 001e F868     		ldr	r0, [r7, #12]
 9525 0020 1021     		movs	r1, #16
 9526 0022 FFF7FEFF 		bl	I2C_ITError
4343:../../Drivers/STM32F7xx_HAL_Driver/Src/stm32f7xx_hal_i2c.c **** }
 9527              		.loc 1 4343 0
 9528 0026 1037     		adds	r7, r7, #16
 9529              	.LCFI336:
 9530              		.cfi_def_cfa_offset 8
 9531 0028 BD46     		mov	sp, r7
 9532              	.LCFI337:
 9533              		.cfi_def_cfa_register 13
 9534              		@ sp needed
 9535 002a 80BD     		pop	{r7, pc}
 9536              		.cfi_endproc
 9537              	.LFE198:
 9539              		.section	.text.I2C_DMAAbort,"ax",%progbits
 9540              		.align	2
 9541              		.thumb
 9542              		.thumb_func
 9544              	I2C_DMAAbort:
 9545              	.LFB199:
4344:../../Drivers/STM32F7xx_HAL_Driver/Src/stm32f7xx_hal_i2c.c **** 
4345:../../Drivers/STM32F7xx_HAL_Driver/Src/stm32f7xx_hal_i2c.c **** /**
4346:../../Drivers/STM32F7xx_HAL_Driver/Src/stm32f7xx_hal_i2c.c ****   * @brief DMA I2C communication abort callback
4347:../../Drivers/STM32F7xx_HAL_Driver/Src/stm32f7xx_hal_i2c.c ****   *        (To be called at end of DMA Abort procedure).
4348:../../Drivers/STM32F7xx_HAL_Driver/Src/stm32f7xx_hal_i2c.c ****   * @param hdma: DMA handle.
4349:../../Drivers/STM32F7xx_HAL_Driver/Src/stm32f7xx_hal_i2c.c ****   * @retval None
4350:../../Drivers/STM32F7xx_HAL_Driver/Src/stm32f7xx_hal_i2c.c ****   */
4351:../../Drivers/STM32F7xx_HAL_Driver/Src/stm32f7xx_hal_i2c.c **** static void I2C_DMAAbort(DMA_HandleTypeDef *hdma)
4352:../../Drivers/STM32F7xx_HAL_Driver/Src/stm32f7xx_hal_i2c.c **** {
 9546              		.loc 1 4352 0
 9547              		.cfi_startproc
 9548              		@ args = 0, pretend = 0, frame = 16
ARM GAS  /tmp/cczIhzQ0.s 			page 243


 9549              		@ frame_needed = 1, uses_anonymous_args = 0
 9550 0000 80B5     		push	{r7, lr}
 9551              	.LCFI338:
 9552              		.cfi_def_cfa_offset 8
 9553              		.cfi_offset 7, -8
 9554              		.cfi_offset 14, -4
 9555 0002 84B0     		sub	sp, sp, #16
 9556              	.LCFI339:
 9557              		.cfi_def_cfa_offset 24
 9558 0004 00AF     		add	r7, sp, #0
 9559              	.LCFI340:
 9560              		.cfi_def_cfa_register 7
 9561 0006 7860     		str	r0, [r7, #4]
4353:../../Drivers/STM32F7xx_HAL_Driver/Src/stm32f7xx_hal_i2c.c ****   I2C_HandleTypeDef* hi2c = ( I2C_HandleTypeDef* )((DMA_HandleTypeDef* )hdma)->Parent;
 9562              		.loc 1 4353 0
 9563 0008 7B68     		ldr	r3, [r7, #4]
 9564 000a 9B6B     		ldr	r3, [r3, #56]
 9565 000c FB60     		str	r3, [r7, #12]
4354:../../Drivers/STM32F7xx_HAL_Driver/Src/stm32f7xx_hal_i2c.c ****   
4355:../../Drivers/STM32F7xx_HAL_Driver/Src/stm32f7xx_hal_i2c.c ****   /* Disable Acknowledge */
4356:../../Drivers/STM32F7xx_HAL_Driver/Src/stm32f7xx_hal_i2c.c ****   hi2c->Instance->CR2 |= I2C_CR2_NACK;
 9566              		.loc 1 4356 0
 9567 000e FB68     		ldr	r3, [r7, #12]
 9568 0010 1B68     		ldr	r3, [r3]
 9569 0012 FA68     		ldr	r2, [r7, #12]
 9570 0014 1268     		ldr	r2, [r2]
 9571 0016 5268     		ldr	r2, [r2, #4]
 9572 0018 42F40042 		orr	r2, r2, #32768
 9573 001c 5A60     		str	r2, [r3, #4]
4357:../../Drivers/STM32F7xx_HAL_Driver/Src/stm32f7xx_hal_i2c.c ****   
4358:../../Drivers/STM32F7xx_HAL_Driver/Src/stm32f7xx_hal_i2c.c ****   /* Reset AbortCpltCallback */
4359:../../Drivers/STM32F7xx_HAL_Driver/Src/stm32f7xx_hal_i2c.c ****   hi2c->hdmatx->XferAbortCallback = NULL;
 9574              		.loc 1 4359 0
 9575 001e FB68     		ldr	r3, [r7, #12]
 9576 0020 9B6B     		ldr	r3, [r3, #56]
 9577 0022 0022     		movs	r2, #0
 9578 0024 1A65     		str	r2, [r3, #80]
4360:../../Drivers/STM32F7xx_HAL_Driver/Src/stm32f7xx_hal_i2c.c ****   hi2c->hdmarx->XferAbortCallback = NULL;
 9579              		.loc 1 4360 0
 9580 0026 FB68     		ldr	r3, [r7, #12]
 9581 0028 DB6B     		ldr	r3, [r3, #60]
 9582 002a 0022     		movs	r2, #0
 9583 002c 1A65     		str	r2, [r3, #80]
4361:../../Drivers/STM32F7xx_HAL_Driver/Src/stm32f7xx_hal_i2c.c ****   
4362:../../Drivers/STM32F7xx_HAL_Driver/Src/stm32f7xx_hal_i2c.c ****   /* Check if come from abort from user */
4363:../../Drivers/STM32F7xx_HAL_Driver/Src/stm32f7xx_hal_i2c.c ****   if(hi2c->ErrorCode == HAL_I2C_ERROR_ABORT)
 9584              		.loc 1 4363 0
 9585 002e FB68     		ldr	r3, [r7, #12]
 9586 0030 5B6C     		ldr	r3, [r3, #68]
 9587 0032 802B     		cmp	r3, #128
 9588 0034 09D1     		bne	.L475
4364:../../Drivers/STM32F7xx_HAL_Driver/Src/stm32f7xx_hal_i2c.c ****   {
4365:../../Drivers/STM32F7xx_HAL_Driver/Src/stm32f7xx_hal_i2c.c ****     hi2c->ErrorCode &= ~HAL_I2C_ERROR_ABORT;
 9589              		.loc 1 4365 0
 9590 0036 FB68     		ldr	r3, [r7, #12]
 9591 0038 5B6C     		ldr	r3, [r3, #68]
 9592 003a 23F08002 		bic	r2, r3, #128
ARM GAS  /tmp/cczIhzQ0.s 			page 244


 9593 003e FB68     		ldr	r3, [r7, #12]
 9594 0040 5A64     		str	r2, [r3, #68]
4366:../../Drivers/STM32F7xx_HAL_Driver/Src/stm32f7xx_hal_i2c.c ****     
4367:../../Drivers/STM32F7xx_HAL_Driver/Src/stm32f7xx_hal_i2c.c ****     /* Call the corresponding callback to inform upper layer of End of Transfer */
4368:../../Drivers/STM32F7xx_HAL_Driver/Src/stm32f7xx_hal_i2c.c ****     HAL_I2C_AbortCpltCallback(hi2c);
 9595              		.loc 1 4368 0
 9596 0042 F868     		ldr	r0, [r7, #12]
 9597 0044 FFF7FEFF 		bl	HAL_I2C_AbortCpltCallback
 9598 0048 02E0     		b	.L474
 9599              	.L475:
4369:../../Drivers/STM32F7xx_HAL_Driver/Src/stm32f7xx_hal_i2c.c ****   }
4370:../../Drivers/STM32F7xx_HAL_Driver/Src/stm32f7xx_hal_i2c.c ****   else
4371:../../Drivers/STM32F7xx_HAL_Driver/Src/stm32f7xx_hal_i2c.c ****   {
4372:../../Drivers/STM32F7xx_HAL_Driver/Src/stm32f7xx_hal_i2c.c ****     /* Call the corresponding callback to inform upper layer of End of Transfer */
4373:../../Drivers/STM32F7xx_HAL_Driver/Src/stm32f7xx_hal_i2c.c ****     HAL_I2C_ErrorCallback(hi2c);
 9600              		.loc 1 4373 0
 9601 004a F868     		ldr	r0, [r7, #12]
 9602 004c FFF7FEFF 		bl	HAL_I2C_ErrorCallback
 9603              	.L474:
4374:../../Drivers/STM32F7xx_HAL_Driver/Src/stm32f7xx_hal_i2c.c ****   }
4375:../../Drivers/STM32F7xx_HAL_Driver/Src/stm32f7xx_hal_i2c.c **** }
 9604              		.loc 1 4375 0
 9605 0050 1037     		adds	r7, r7, #16
 9606              	.LCFI341:
 9607              		.cfi_def_cfa_offset 8
 9608 0052 BD46     		mov	sp, r7
 9609              	.LCFI342:
 9610              		.cfi_def_cfa_register 13
 9611              		@ sp needed
 9612 0054 80BD     		pop	{r7, pc}
 9613              		.cfi_endproc
 9614              	.LFE199:
 9616 0056 00BF     		.section	.text.I2C_WaitOnFlagUntilTimeout,"ax",%progbits
 9617              		.align	2
 9618              		.thumb
 9619              		.thumb_func
 9621              	I2C_WaitOnFlagUntilTimeout:
 9622              	.LFB200:
4376:../../Drivers/STM32F7xx_HAL_Driver/Src/stm32f7xx_hal_i2c.c **** 
4377:../../Drivers/STM32F7xx_HAL_Driver/Src/stm32f7xx_hal_i2c.c **** /**
4378:../../Drivers/STM32F7xx_HAL_Driver/Src/stm32f7xx_hal_i2c.c ****   * @brief  This function handles I2C Communication Timeout.
4379:../../Drivers/STM32F7xx_HAL_Driver/Src/stm32f7xx_hal_i2c.c ****   * @param  hi2c: Pointer to a I2C_HandleTypeDef structure that contains
4380:../../Drivers/STM32F7xx_HAL_Driver/Src/stm32f7xx_hal_i2c.c ****   *               the configuration information for the specified I2C.
4381:../../Drivers/STM32F7xx_HAL_Driver/Src/stm32f7xx_hal_i2c.c ****   * @param  Flag: Specifies the I2C flag to check.
4382:../../Drivers/STM32F7xx_HAL_Driver/Src/stm32f7xx_hal_i2c.c ****   * @param  Status: The new Flag status (SET or RESET).
4383:../../Drivers/STM32F7xx_HAL_Driver/Src/stm32f7xx_hal_i2c.c ****   * @param  Timeout: Timeout duration
4384:../../Drivers/STM32F7xx_HAL_Driver/Src/stm32f7xx_hal_i2c.c ****   * @param  Tickstart: Tick start value
4385:../../Drivers/STM32F7xx_HAL_Driver/Src/stm32f7xx_hal_i2c.c ****   * @retval HAL status
4386:../../Drivers/STM32F7xx_HAL_Driver/Src/stm32f7xx_hal_i2c.c ****   */
4387:../../Drivers/STM32F7xx_HAL_Driver/Src/stm32f7xx_hal_i2c.c **** static HAL_StatusTypeDef I2C_WaitOnFlagUntilTimeout(I2C_HandleTypeDef *hi2c, uint32_t Flag, FlagSta
4388:../../Drivers/STM32F7xx_HAL_Driver/Src/stm32f7xx_hal_i2c.c **** {
 9623              		.loc 1 4388 0
 9624              		.cfi_startproc
 9625              		@ args = 4, pretend = 0, frame = 16
 9626              		@ frame_needed = 1, uses_anonymous_args = 0
 9627 0000 80B5     		push	{r7, lr}
 9628              	.LCFI343:
ARM GAS  /tmp/cczIhzQ0.s 			page 245


 9629              		.cfi_def_cfa_offset 8
 9630              		.cfi_offset 7, -8
 9631              		.cfi_offset 14, -4
 9632 0002 84B0     		sub	sp, sp, #16
 9633              	.LCFI344:
 9634              		.cfi_def_cfa_offset 24
 9635 0004 00AF     		add	r7, sp, #0
 9636              	.LCFI345:
 9637              		.cfi_def_cfa_register 7
 9638 0006 F860     		str	r0, [r7, #12]
 9639 0008 B960     		str	r1, [r7, #8]
 9640 000a 3B60     		str	r3, [r7]
 9641 000c 1346     		mov	r3, r2
 9642 000e FB71     		strb	r3, [r7, #7]
4389:../../Drivers/STM32F7xx_HAL_Driver/Src/stm32f7xx_hal_i2c.c ****   while((__HAL_I2C_GET_FLAG(hi2c, Flag) ? SET : RESET) == Status)
 9643              		.loc 1 4389 0
 9644 0010 1CE0     		b	.L478
 9645              	.L481:
4390:../../Drivers/STM32F7xx_HAL_Driver/Src/stm32f7xx_hal_i2c.c ****   {
4391:../../Drivers/STM32F7xx_HAL_Driver/Src/stm32f7xx_hal_i2c.c ****     /* Check for the Timeout */
4392:../../Drivers/STM32F7xx_HAL_Driver/Src/stm32f7xx_hal_i2c.c ****     if(Timeout != HAL_MAX_DELAY)
 9646              		.loc 1 4392 0
 9647 0012 3B68     		ldr	r3, [r7]
 9648 0014 B3F1FF3F 		cmp	r3, #-1
 9649 0018 18D0     		beq	.L478
4393:../../Drivers/STM32F7xx_HAL_Driver/Src/stm32f7xx_hal_i2c.c ****     {
4394:../../Drivers/STM32F7xx_HAL_Driver/Src/stm32f7xx_hal_i2c.c ****       if((Timeout == 0)||((HAL_GetTick() - Tickstart ) > Timeout))
 9650              		.loc 1 4394 0
 9651 001a 3B68     		ldr	r3, [r7]
 9652 001c 002B     		cmp	r3, #0
 9653 001e 07D0     		beq	.L479
 9654              		.loc 1 4394 0 is_stmt 0 discriminator 1
 9655 0020 FFF7FEFF 		bl	HAL_GetTick
 9656 0024 0246     		mov	r2, r0
 9657 0026 BB69     		ldr	r3, [r7, #24]
 9658 0028 D21A     		subs	r2, r2, r3
 9659 002a 3B68     		ldr	r3, [r7]
 9660 002c 9A42     		cmp	r2, r3
 9661 002e 0DD9     		bls	.L478
 9662              	.L479:
4395:../../Drivers/STM32F7xx_HAL_Driver/Src/stm32f7xx_hal_i2c.c ****       {
4396:../../Drivers/STM32F7xx_HAL_Driver/Src/stm32f7xx_hal_i2c.c ****         hi2c->State= HAL_I2C_STATE_READY;
 9663              		.loc 1 4396 0 is_stmt 1
 9664 0030 FB68     		ldr	r3, [r7, #12]
 9665 0032 2022     		movs	r2, #32
 9666 0034 83F84120 		strb	r2, [r3, #65]
4397:../../Drivers/STM32F7xx_HAL_Driver/Src/stm32f7xx_hal_i2c.c ****         hi2c->Mode = HAL_I2C_MODE_NONE;
 9667              		.loc 1 4397 0
 9668 0038 FB68     		ldr	r3, [r7, #12]
 9669 003a 0022     		movs	r2, #0
 9670 003c 83F84220 		strb	r2, [r3, #66]
4398:../../Drivers/STM32F7xx_HAL_Driver/Src/stm32f7xx_hal_i2c.c ****         
4399:../../Drivers/STM32F7xx_HAL_Driver/Src/stm32f7xx_hal_i2c.c ****         /* Process Unlocked */
4400:../../Drivers/STM32F7xx_HAL_Driver/Src/stm32f7xx_hal_i2c.c ****         __HAL_UNLOCK(hi2c);
 9671              		.loc 1 4400 0
 9672 0040 FB68     		ldr	r3, [r7, #12]
 9673 0042 0022     		movs	r2, #0
ARM GAS  /tmp/cczIhzQ0.s 			page 246


 9674 0044 83F84020 		strb	r2, [r3, #64]
4401:../../Drivers/STM32F7xx_HAL_Driver/Src/stm32f7xx_hal_i2c.c ****         return HAL_TIMEOUT;
 9675              		.loc 1 4401 0
 9676 0048 0323     		movs	r3, #3
 9677 004a 0FE0     		b	.L480
 9678              	.L478:
4389:../../Drivers/STM32F7xx_HAL_Driver/Src/stm32f7xx_hal_i2c.c ****   {
 9679              		.loc 1 4389 0
 9680 004c FB68     		ldr	r3, [r7, #12]
 9681 004e 1B68     		ldr	r3, [r3]
 9682 0050 9A69     		ldr	r2, [r3, #24]
 9683 0052 BB68     		ldr	r3, [r7, #8]
 9684 0054 1A40     		ands	r2, r2, r3
 9685 0056 BB68     		ldr	r3, [r7, #8]
 9686 0058 9A42     		cmp	r2, r3
 9687 005a 0CBF     		ite	eq
 9688 005c 0123     		moveq	r3, #1
 9689 005e 0023     		movne	r3, #0
 9690 0060 DBB2     		uxtb	r3, r3
 9691 0062 1A46     		mov	r2, r3
 9692 0064 FB79     		ldrb	r3, [r7, #7]	@ zero_extendqisi2
 9693 0066 9A42     		cmp	r2, r3
 9694 0068 D3D0     		beq	.L481
4402:../../Drivers/STM32F7xx_HAL_Driver/Src/stm32f7xx_hal_i2c.c ****       }
4403:../../Drivers/STM32F7xx_HAL_Driver/Src/stm32f7xx_hal_i2c.c ****     }
4404:../../Drivers/STM32F7xx_HAL_Driver/Src/stm32f7xx_hal_i2c.c ****   }
4405:../../Drivers/STM32F7xx_HAL_Driver/Src/stm32f7xx_hal_i2c.c ****   return HAL_OK;
 9695              		.loc 1 4405 0
 9696 006a 0023     		movs	r3, #0
 9697              	.L480:
4406:../../Drivers/STM32F7xx_HAL_Driver/Src/stm32f7xx_hal_i2c.c **** }
 9698              		.loc 1 4406 0
 9699 006c 1846     		mov	r0, r3
 9700 006e 1037     		adds	r7, r7, #16
 9701              	.LCFI346:
 9702              		.cfi_def_cfa_offset 8
 9703 0070 BD46     		mov	sp, r7
 9704              	.LCFI347:
 9705              		.cfi_def_cfa_register 13
 9706              		@ sp needed
 9707 0072 80BD     		pop	{r7, pc}
 9708              		.cfi_endproc
 9709              	.LFE200:
 9711              		.section	.text.I2C_WaitOnTXISFlagUntilTimeout,"ax",%progbits
 9712              		.align	2
 9713              		.thumb
 9714              		.thumb_func
 9716              	I2C_WaitOnTXISFlagUntilTimeout:
 9717              	.LFB201:
4407:../../Drivers/STM32F7xx_HAL_Driver/Src/stm32f7xx_hal_i2c.c **** 
4408:../../Drivers/STM32F7xx_HAL_Driver/Src/stm32f7xx_hal_i2c.c **** /**
4409:../../Drivers/STM32F7xx_HAL_Driver/Src/stm32f7xx_hal_i2c.c ****   * @brief  This function handles I2C Communication Timeout for specific usage of TXIS flag.
4410:../../Drivers/STM32F7xx_HAL_Driver/Src/stm32f7xx_hal_i2c.c ****   * @param  hi2c: Pointer to a I2C_HandleTypeDef structure that contains
4411:../../Drivers/STM32F7xx_HAL_Driver/Src/stm32f7xx_hal_i2c.c ****   *               the configuration information for the specified I2C.
4412:../../Drivers/STM32F7xx_HAL_Driver/Src/stm32f7xx_hal_i2c.c ****   * @param  Timeout: Timeout duration
4413:../../Drivers/STM32F7xx_HAL_Driver/Src/stm32f7xx_hal_i2c.c ****   * @param  Tickstart: Tick start value
4414:../../Drivers/STM32F7xx_HAL_Driver/Src/stm32f7xx_hal_i2c.c ****   * @retval HAL status
ARM GAS  /tmp/cczIhzQ0.s 			page 247


4415:../../Drivers/STM32F7xx_HAL_Driver/Src/stm32f7xx_hal_i2c.c ****   */
4416:../../Drivers/STM32F7xx_HAL_Driver/Src/stm32f7xx_hal_i2c.c **** static HAL_StatusTypeDef I2C_WaitOnTXISFlagUntilTimeout(I2C_HandleTypeDef *hi2c, uint32_t Timeout, 
4417:../../Drivers/STM32F7xx_HAL_Driver/Src/stm32f7xx_hal_i2c.c **** {
 9718              		.loc 1 4417 0
 9719              		.cfi_startproc
 9720              		@ args = 0, pretend = 0, frame = 16
 9721              		@ frame_needed = 1, uses_anonymous_args = 0
 9722 0000 80B5     		push	{r7, lr}
 9723              	.LCFI348:
 9724              		.cfi_def_cfa_offset 8
 9725              		.cfi_offset 7, -8
 9726              		.cfi_offset 14, -4
 9727 0002 84B0     		sub	sp, sp, #16
 9728              	.LCFI349:
 9729              		.cfi_def_cfa_offset 24
 9730 0004 00AF     		add	r7, sp, #0
 9731              	.LCFI350:
 9732              		.cfi_def_cfa_register 7
 9733 0006 F860     		str	r0, [r7, #12]
 9734 0008 B960     		str	r1, [r7, #8]
 9735 000a 7A60     		str	r2, [r7, #4]
4418:../../Drivers/STM32F7xx_HAL_Driver/Src/stm32f7xx_hal_i2c.c ****   while(__HAL_I2C_GET_FLAG(hi2c, I2C_FLAG_TXIS) == RESET)
 9736              		.loc 1 4418 0
 9737 000c 2CE0     		b	.L483
 9738              	.L487:
4419:../../Drivers/STM32F7xx_HAL_Driver/Src/stm32f7xx_hal_i2c.c ****   {
4420:../../Drivers/STM32F7xx_HAL_Driver/Src/stm32f7xx_hal_i2c.c ****     /* Check if a NACK is detected */
4421:../../Drivers/STM32F7xx_HAL_Driver/Src/stm32f7xx_hal_i2c.c ****     if(I2C_IsAcknowledgeFailed(hi2c, Timeout, Tickstart) != HAL_OK)
 9739              		.loc 1 4421 0
 9740 000e F868     		ldr	r0, [r7, #12]
 9741 0010 B968     		ldr	r1, [r7, #8]
 9742 0012 7A68     		ldr	r2, [r7, #4]
 9743 0014 FFF7FEFF 		bl	I2C_IsAcknowledgeFailed
 9744 0018 0346     		mov	r3, r0
 9745 001a 002B     		cmp	r3, #0
 9746 001c 01D0     		beq	.L484
4422:../../Drivers/STM32F7xx_HAL_Driver/Src/stm32f7xx_hal_i2c.c ****     {
4423:../../Drivers/STM32F7xx_HAL_Driver/Src/stm32f7xx_hal_i2c.c ****       return HAL_ERROR;
 9747              		.loc 1 4423 0
 9748 001e 0123     		movs	r3, #1
 9749 0020 2AE0     		b	.L485
 9750              	.L484:
4424:../../Drivers/STM32F7xx_HAL_Driver/Src/stm32f7xx_hal_i2c.c ****     }
4425:../../Drivers/STM32F7xx_HAL_Driver/Src/stm32f7xx_hal_i2c.c ****     
4426:../../Drivers/STM32F7xx_HAL_Driver/Src/stm32f7xx_hal_i2c.c ****     /* Check for the Timeout */
4427:../../Drivers/STM32F7xx_HAL_Driver/Src/stm32f7xx_hal_i2c.c ****     if(Timeout != HAL_MAX_DELAY)
 9751              		.loc 1 4427 0
 9752 0022 BB68     		ldr	r3, [r7, #8]
 9753 0024 B3F1FF3F 		cmp	r3, #-1
 9754 0028 1ED0     		beq	.L483
4428:../../Drivers/STM32F7xx_HAL_Driver/Src/stm32f7xx_hal_i2c.c ****     {
4429:../../Drivers/STM32F7xx_HAL_Driver/Src/stm32f7xx_hal_i2c.c ****       if((Timeout == 0)||((HAL_GetTick() - Tickstart) > Timeout))
 9755              		.loc 1 4429 0
 9756 002a BB68     		ldr	r3, [r7, #8]
 9757 002c 002B     		cmp	r3, #0
 9758 002e 07D0     		beq	.L486
 9759              		.loc 1 4429 0 is_stmt 0 discriminator 1
ARM GAS  /tmp/cczIhzQ0.s 			page 248


 9760 0030 FFF7FEFF 		bl	HAL_GetTick
 9761 0034 0246     		mov	r2, r0
 9762 0036 7B68     		ldr	r3, [r7, #4]
 9763 0038 D21A     		subs	r2, r2, r3
 9764 003a BB68     		ldr	r3, [r7, #8]
 9765 003c 9A42     		cmp	r2, r3
 9766 003e 13D9     		bls	.L483
 9767              	.L486:
4430:../../Drivers/STM32F7xx_HAL_Driver/Src/stm32f7xx_hal_i2c.c ****       {
4431:../../Drivers/STM32F7xx_HAL_Driver/Src/stm32f7xx_hal_i2c.c ****         hi2c->ErrorCode |= HAL_I2C_ERROR_TIMEOUT;
 9768              		.loc 1 4431 0 is_stmt 1
 9769 0040 FB68     		ldr	r3, [r7, #12]
 9770 0042 5B6C     		ldr	r3, [r3, #68]
 9771 0044 43F02002 		orr	r2, r3, #32
 9772 0048 FB68     		ldr	r3, [r7, #12]
 9773 004a 5A64     		str	r2, [r3, #68]
4432:../../Drivers/STM32F7xx_HAL_Driver/Src/stm32f7xx_hal_i2c.c ****         hi2c->State= HAL_I2C_STATE_READY;
 9774              		.loc 1 4432 0
 9775 004c FB68     		ldr	r3, [r7, #12]
 9776 004e 2022     		movs	r2, #32
 9777 0050 83F84120 		strb	r2, [r3, #65]
4433:../../Drivers/STM32F7xx_HAL_Driver/Src/stm32f7xx_hal_i2c.c ****         hi2c->Mode = HAL_I2C_MODE_NONE;
 9778              		.loc 1 4433 0
 9779 0054 FB68     		ldr	r3, [r7, #12]
 9780 0056 0022     		movs	r2, #0
 9781 0058 83F84220 		strb	r2, [r3, #66]
4434:../../Drivers/STM32F7xx_HAL_Driver/Src/stm32f7xx_hal_i2c.c ****         
4435:../../Drivers/STM32F7xx_HAL_Driver/Src/stm32f7xx_hal_i2c.c ****         /* Process Unlocked */
4436:../../Drivers/STM32F7xx_HAL_Driver/Src/stm32f7xx_hal_i2c.c ****         __HAL_UNLOCK(hi2c);
 9782              		.loc 1 4436 0
 9783 005c FB68     		ldr	r3, [r7, #12]
 9784 005e 0022     		movs	r2, #0
 9785 0060 83F84020 		strb	r2, [r3, #64]
4437:../../Drivers/STM32F7xx_HAL_Driver/Src/stm32f7xx_hal_i2c.c ****         
4438:../../Drivers/STM32F7xx_HAL_Driver/Src/stm32f7xx_hal_i2c.c ****         return HAL_TIMEOUT;
 9786              		.loc 1 4438 0
 9787 0064 0323     		movs	r3, #3
 9788 0066 07E0     		b	.L485
 9789              	.L483:
4418:../../Drivers/STM32F7xx_HAL_Driver/Src/stm32f7xx_hal_i2c.c ****   {
 9790              		.loc 1 4418 0
 9791 0068 FB68     		ldr	r3, [r7, #12]
 9792 006a 1B68     		ldr	r3, [r3]
 9793 006c 9B69     		ldr	r3, [r3, #24]
 9794 006e 03F00203 		and	r3, r3, #2
 9795 0072 002B     		cmp	r3, #0
 9796 0074 CBD0     		beq	.L487
4439:../../Drivers/STM32F7xx_HAL_Driver/Src/stm32f7xx_hal_i2c.c ****       }
4440:../../Drivers/STM32F7xx_HAL_Driver/Src/stm32f7xx_hal_i2c.c ****     }
4441:../../Drivers/STM32F7xx_HAL_Driver/Src/stm32f7xx_hal_i2c.c ****   }
4442:../../Drivers/STM32F7xx_HAL_Driver/Src/stm32f7xx_hal_i2c.c ****   return HAL_OK;
 9797              		.loc 1 4442 0
 9798 0076 0023     		movs	r3, #0
 9799              	.L485:
4443:../../Drivers/STM32F7xx_HAL_Driver/Src/stm32f7xx_hal_i2c.c **** }
 9800              		.loc 1 4443 0
 9801 0078 1846     		mov	r0, r3
ARM GAS  /tmp/cczIhzQ0.s 			page 249


 9802 007a 1037     		adds	r7, r7, #16
 9803              	.LCFI351:
 9804              		.cfi_def_cfa_offset 8
 9805 007c BD46     		mov	sp, r7
 9806              	.LCFI352:
 9807              		.cfi_def_cfa_register 13
 9808              		@ sp needed
 9809 007e 80BD     		pop	{r7, pc}
 9810              		.cfi_endproc
 9811              	.LFE201:
 9813              		.section	.text.I2C_WaitOnSTOPFlagUntilTimeout,"ax",%progbits
 9814              		.align	2
 9815              		.thumb
 9816              		.thumb_func
 9818              	I2C_WaitOnSTOPFlagUntilTimeout:
 9819              	.LFB202:
4444:../../Drivers/STM32F7xx_HAL_Driver/Src/stm32f7xx_hal_i2c.c **** 
4445:../../Drivers/STM32F7xx_HAL_Driver/Src/stm32f7xx_hal_i2c.c **** /**
4446:../../Drivers/STM32F7xx_HAL_Driver/Src/stm32f7xx_hal_i2c.c ****   * @brief  This function handles I2C Communication Timeout for specific usage of STOP flag.
4447:../../Drivers/STM32F7xx_HAL_Driver/Src/stm32f7xx_hal_i2c.c ****   * @param  hi2c: Pointer to a I2C_HandleTypeDef structure that contains
4448:../../Drivers/STM32F7xx_HAL_Driver/Src/stm32f7xx_hal_i2c.c ****   *               the configuration information for the specified I2C.
4449:../../Drivers/STM32F7xx_HAL_Driver/Src/stm32f7xx_hal_i2c.c ****   * @param  Timeout: Timeout duration
4450:../../Drivers/STM32F7xx_HAL_Driver/Src/stm32f7xx_hal_i2c.c ****   * @param  Tickstart: Tick start value
4451:../../Drivers/STM32F7xx_HAL_Driver/Src/stm32f7xx_hal_i2c.c ****   * @retval HAL status
4452:../../Drivers/STM32F7xx_HAL_Driver/Src/stm32f7xx_hal_i2c.c ****   */
4453:../../Drivers/STM32F7xx_HAL_Driver/Src/stm32f7xx_hal_i2c.c **** static HAL_StatusTypeDef I2C_WaitOnSTOPFlagUntilTimeout(I2C_HandleTypeDef *hi2c, uint32_t Timeout, 
4454:../../Drivers/STM32F7xx_HAL_Driver/Src/stm32f7xx_hal_i2c.c **** {
 9820              		.loc 1 4454 0
 9821              		.cfi_startproc
 9822              		@ args = 0, pretend = 0, frame = 16
 9823              		@ frame_needed = 1, uses_anonymous_args = 0
 9824 0000 80B5     		push	{r7, lr}
 9825              	.LCFI353:
 9826              		.cfi_def_cfa_offset 8
 9827              		.cfi_offset 7, -8
 9828              		.cfi_offset 14, -4
 9829 0002 84B0     		sub	sp, sp, #16
 9830              	.LCFI354:
 9831              		.cfi_def_cfa_offset 24
 9832 0004 00AF     		add	r7, sp, #0
 9833              	.LCFI355:
 9834              		.cfi_def_cfa_register 7
 9835 0006 F860     		str	r0, [r7, #12]
 9836 0008 B960     		str	r1, [r7, #8]
 9837 000a 7A60     		str	r2, [r7, #4]
4455:../../Drivers/STM32F7xx_HAL_Driver/Src/stm32f7xx_hal_i2c.c ****   while(__HAL_I2C_GET_FLAG(hi2c, I2C_FLAG_STOPF) == RESET)
 9838              		.loc 1 4455 0
 9839 000c 28E0     		b	.L489
 9840              	.L493:
4456:../../Drivers/STM32F7xx_HAL_Driver/Src/stm32f7xx_hal_i2c.c ****   {
4457:../../Drivers/STM32F7xx_HAL_Driver/Src/stm32f7xx_hal_i2c.c ****     /* Check if a NACK is detected */
4458:../../Drivers/STM32F7xx_HAL_Driver/Src/stm32f7xx_hal_i2c.c ****     if(I2C_IsAcknowledgeFailed(hi2c, Timeout, Tickstart) != HAL_OK)
 9841              		.loc 1 4458 0
 9842 000e F868     		ldr	r0, [r7, #12]
 9843 0010 B968     		ldr	r1, [r7, #8]
 9844 0012 7A68     		ldr	r2, [r7, #4]
 9845 0014 FFF7FEFF 		bl	I2C_IsAcknowledgeFailed
ARM GAS  /tmp/cczIhzQ0.s 			page 250


 9846 0018 0346     		mov	r3, r0
 9847 001a 002B     		cmp	r3, #0
 9848 001c 01D0     		beq	.L490
4459:../../Drivers/STM32F7xx_HAL_Driver/Src/stm32f7xx_hal_i2c.c ****     {
4460:../../Drivers/STM32F7xx_HAL_Driver/Src/stm32f7xx_hal_i2c.c ****       return HAL_ERROR;
 9849              		.loc 1 4460 0
 9850 001e 0123     		movs	r3, #1
 9851 0020 26E0     		b	.L491
 9852              	.L490:
4461:../../Drivers/STM32F7xx_HAL_Driver/Src/stm32f7xx_hal_i2c.c ****     }
4462:../../Drivers/STM32F7xx_HAL_Driver/Src/stm32f7xx_hal_i2c.c ****     
4463:../../Drivers/STM32F7xx_HAL_Driver/Src/stm32f7xx_hal_i2c.c ****     /* Check for the Timeout */
4464:../../Drivers/STM32F7xx_HAL_Driver/Src/stm32f7xx_hal_i2c.c ****     if((Timeout == 0)||((HAL_GetTick() - Tickstart) > Timeout))
 9853              		.loc 1 4464 0
 9854 0022 BB68     		ldr	r3, [r7, #8]
 9855 0024 002B     		cmp	r3, #0
 9856 0026 07D0     		beq	.L492
 9857              		.loc 1 4464 0 is_stmt 0 discriminator 1
 9858 0028 FFF7FEFF 		bl	HAL_GetTick
 9859 002c 0246     		mov	r2, r0
 9860 002e 7B68     		ldr	r3, [r7, #4]
 9861 0030 D21A     		subs	r2, r2, r3
 9862 0032 BB68     		ldr	r3, [r7, #8]
 9863 0034 9A42     		cmp	r2, r3
 9864 0036 13D9     		bls	.L489
 9865              	.L492:
4465:../../Drivers/STM32F7xx_HAL_Driver/Src/stm32f7xx_hal_i2c.c ****     {
4466:../../Drivers/STM32F7xx_HAL_Driver/Src/stm32f7xx_hal_i2c.c ****       hi2c->ErrorCode |= HAL_I2C_ERROR_TIMEOUT;
 9866              		.loc 1 4466 0 is_stmt 1
 9867 0038 FB68     		ldr	r3, [r7, #12]
 9868 003a 5B6C     		ldr	r3, [r3, #68]
 9869 003c 43F02002 		orr	r2, r3, #32
 9870 0040 FB68     		ldr	r3, [r7, #12]
 9871 0042 5A64     		str	r2, [r3, #68]
4467:../../Drivers/STM32F7xx_HAL_Driver/Src/stm32f7xx_hal_i2c.c ****       hi2c->State= HAL_I2C_STATE_READY;
 9872              		.loc 1 4467 0
 9873 0044 FB68     		ldr	r3, [r7, #12]
 9874 0046 2022     		movs	r2, #32
 9875 0048 83F84120 		strb	r2, [r3, #65]
4468:../../Drivers/STM32F7xx_HAL_Driver/Src/stm32f7xx_hal_i2c.c ****       hi2c->Mode = HAL_I2C_MODE_NONE;
 9876              		.loc 1 4468 0
 9877 004c FB68     		ldr	r3, [r7, #12]
 9878 004e 0022     		movs	r2, #0
 9879 0050 83F84220 		strb	r2, [r3, #66]
4469:../../Drivers/STM32F7xx_HAL_Driver/Src/stm32f7xx_hal_i2c.c ****       
4470:../../Drivers/STM32F7xx_HAL_Driver/Src/stm32f7xx_hal_i2c.c ****       /* Process Unlocked */
4471:../../Drivers/STM32F7xx_HAL_Driver/Src/stm32f7xx_hal_i2c.c ****       __HAL_UNLOCK(hi2c);
 9880              		.loc 1 4471 0
 9881 0054 FB68     		ldr	r3, [r7, #12]
 9882 0056 0022     		movs	r2, #0
 9883 0058 83F84020 		strb	r2, [r3, #64]
4472:../../Drivers/STM32F7xx_HAL_Driver/Src/stm32f7xx_hal_i2c.c ****       
4473:../../Drivers/STM32F7xx_HAL_Driver/Src/stm32f7xx_hal_i2c.c ****       return HAL_TIMEOUT;
 9884              		.loc 1 4473 0
 9885 005c 0323     		movs	r3, #3
 9886 005e 07E0     		b	.L491
 9887              	.L489:
ARM GAS  /tmp/cczIhzQ0.s 			page 251


4455:../../Drivers/STM32F7xx_HAL_Driver/Src/stm32f7xx_hal_i2c.c ****   {
 9888              		.loc 1 4455 0
 9889 0060 FB68     		ldr	r3, [r7, #12]
 9890 0062 1B68     		ldr	r3, [r3]
 9891 0064 9B69     		ldr	r3, [r3, #24]
 9892 0066 03F02003 		and	r3, r3, #32
 9893 006a 002B     		cmp	r3, #0
 9894 006c CFD0     		beq	.L493
4474:../../Drivers/STM32F7xx_HAL_Driver/Src/stm32f7xx_hal_i2c.c ****     }
4475:../../Drivers/STM32F7xx_HAL_Driver/Src/stm32f7xx_hal_i2c.c ****   }
4476:../../Drivers/STM32F7xx_HAL_Driver/Src/stm32f7xx_hal_i2c.c ****   return HAL_OK;
 9895              		.loc 1 4476 0
 9896 006e 0023     		movs	r3, #0
 9897              	.L491:
4477:../../Drivers/STM32F7xx_HAL_Driver/Src/stm32f7xx_hal_i2c.c **** }
 9898              		.loc 1 4477 0
 9899 0070 1846     		mov	r0, r3
 9900 0072 1037     		adds	r7, r7, #16
 9901              	.LCFI356:
 9902              		.cfi_def_cfa_offset 8
 9903 0074 BD46     		mov	sp, r7
 9904              	.LCFI357:
 9905              		.cfi_def_cfa_register 13
 9906              		@ sp needed
 9907 0076 80BD     		pop	{r7, pc}
 9908              		.cfi_endproc
 9909              	.LFE202:
 9911              		.section	.text.I2C_WaitOnRXNEFlagUntilTimeout,"ax",%progbits
 9912              		.align	2
 9913              		.thumb
 9914              		.thumb_func
 9916              	I2C_WaitOnRXNEFlagUntilTimeout:
 9917              	.LFB203:
4478:../../Drivers/STM32F7xx_HAL_Driver/Src/stm32f7xx_hal_i2c.c **** 
4479:../../Drivers/STM32F7xx_HAL_Driver/Src/stm32f7xx_hal_i2c.c **** /**
4480:../../Drivers/STM32F7xx_HAL_Driver/Src/stm32f7xx_hal_i2c.c ****   * @brief  This function handles I2C Communication Timeout for specific usage of RXNE flag.
4481:../../Drivers/STM32F7xx_HAL_Driver/Src/stm32f7xx_hal_i2c.c ****   * @param  hi2c: Pointer to a I2C_HandleTypeDef structure that contains
4482:../../Drivers/STM32F7xx_HAL_Driver/Src/stm32f7xx_hal_i2c.c ****   *               the configuration information for the specified I2C.
4483:../../Drivers/STM32F7xx_HAL_Driver/Src/stm32f7xx_hal_i2c.c ****   * @param  Timeout: Timeout duration
4484:../../Drivers/STM32F7xx_HAL_Driver/Src/stm32f7xx_hal_i2c.c ****   * @param  Tickstart: Tick start value
4485:../../Drivers/STM32F7xx_HAL_Driver/Src/stm32f7xx_hal_i2c.c ****   * @retval HAL status
4486:../../Drivers/STM32F7xx_HAL_Driver/Src/stm32f7xx_hal_i2c.c ****   */
4487:../../Drivers/STM32F7xx_HAL_Driver/Src/stm32f7xx_hal_i2c.c **** static HAL_StatusTypeDef I2C_WaitOnRXNEFlagUntilTimeout(I2C_HandleTypeDef *hi2c, uint32_t Timeout, 
4488:../../Drivers/STM32F7xx_HAL_Driver/Src/stm32f7xx_hal_i2c.c **** {
 9918              		.loc 1 4488 0
 9919              		.cfi_startproc
 9920              		@ args = 0, pretend = 0, frame = 16
 9921              		@ frame_needed = 1, uses_anonymous_args = 0
 9922 0000 80B5     		push	{r7, lr}
 9923              	.LCFI358:
 9924              		.cfi_def_cfa_offset 8
 9925              		.cfi_offset 7, -8
 9926              		.cfi_offset 14, -4
 9927 0002 84B0     		sub	sp, sp, #16
 9928              	.LCFI359:
 9929              		.cfi_def_cfa_offset 24
 9930 0004 00AF     		add	r7, sp, #0
ARM GAS  /tmp/cczIhzQ0.s 			page 252


 9931              	.LCFI360:
 9932              		.cfi_def_cfa_register 7
 9933 0006 F860     		str	r0, [r7, #12]
 9934 0008 B960     		str	r1, [r7, #8]
 9935 000a 7A60     		str	r2, [r7, #4]
4489:../../Drivers/STM32F7xx_HAL_Driver/Src/stm32f7xx_hal_i2c.c ****   while(__HAL_I2C_GET_FLAG(hi2c, I2C_FLAG_RXNE) == RESET)
 9936              		.loc 1 4489 0
 9937 000c 48E0     		b	.L495
 9938              	.L500:
4490:../../Drivers/STM32F7xx_HAL_Driver/Src/stm32f7xx_hal_i2c.c ****   {
4491:../../Drivers/STM32F7xx_HAL_Driver/Src/stm32f7xx_hal_i2c.c ****     /* Check if a NACK is detected */
4492:../../Drivers/STM32F7xx_HAL_Driver/Src/stm32f7xx_hal_i2c.c ****     if(I2C_IsAcknowledgeFailed(hi2c, Timeout, Tickstart) != HAL_OK)
 9939              		.loc 1 4492 0
 9940 000e F868     		ldr	r0, [r7, #12]
 9941 0010 B968     		ldr	r1, [r7, #8]
 9942 0012 7A68     		ldr	r2, [r7, #4]
 9943 0014 FFF7FEFF 		bl	I2C_IsAcknowledgeFailed
 9944 0018 0346     		mov	r3, r0
 9945 001a 002B     		cmp	r3, #0
 9946 001c 01D0     		beq	.L496
4493:../../Drivers/STM32F7xx_HAL_Driver/Src/stm32f7xx_hal_i2c.c ****     {
4494:../../Drivers/STM32F7xx_HAL_Driver/Src/stm32f7xx_hal_i2c.c ****       return HAL_ERROR;
 9947              		.loc 1 4494 0
 9948 001e 0123     		movs	r3, #1
 9949 0020 46E0     		b	.L497
 9950              	.L496:
4495:../../Drivers/STM32F7xx_HAL_Driver/Src/stm32f7xx_hal_i2c.c ****     }
4496:../../Drivers/STM32F7xx_HAL_Driver/Src/stm32f7xx_hal_i2c.c ****     
4497:../../Drivers/STM32F7xx_HAL_Driver/Src/stm32f7xx_hal_i2c.c ****     /* Check if a STOPF is detected */
4498:../../Drivers/STM32F7xx_HAL_Driver/Src/stm32f7xx_hal_i2c.c ****     if(__HAL_I2C_GET_FLAG(hi2c, I2C_FLAG_STOPF) == SET)
 9951              		.loc 1 4498 0
 9952 0022 FB68     		ldr	r3, [r7, #12]
 9953 0024 1B68     		ldr	r3, [r3]
 9954 0026 9B69     		ldr	r3, [r3, #24]
 9955 0028 03F02003 		and	r3, r3, #32
 9956 002c 002B     		cmp	r3, #0
 9957 002e 1CD0     		beq	.L498
4499:../../Drivers/STM32F7xx_HAL_Driver/Src/stm32f7xx_hal_i2c.c ****     {
4500:../../Drivers/STM32F7xx_HAL_Driver/Src/stm32f7xx_hal_i2c.c ****       /* Clear STOP Flag */
4501:../../Drivers/STM32F7xx_HAL_Driver/Src/stm32f7xx_hal_i2c.c ****       __HAL_I2C_CLEAR_FLAG(hi2c, I2C_FLAG_STOPF);
 9958              		.loc 1 4501 0
 9959 0030 FB68     		ldr	r3, [r7, #12]
 9960 0032 1B68     		ldr	r3, [r3]
 9961 0034 2022     		movs	r2, #32
 9962 0036 DA61     		str	r2, [r3, #28]
4502:../../Drivers/STM32F7xx_HAL_Driver/Src/stm32f7xx_hal_i2c.c ****       
4503:../../Drivers/STM32F7xx_HAL_Driver/Src/stm32f7xx_hal_i2c.c ****       /* Clear Configuration Register 2 */
4504:../../Drivers/STM32F7xx_HAL_Driver/Src/stm32f7xx_hal_i2c.c ****       I2C_RESET_CR2(hi2c);
 9963              		.loc 1 4504 0
 9964 0038 FB68     		ldr	r3, [r7, #12]
 9965 003a 1A68     		ldr	r2, [r3]
 9966 003c FB68     		ldr	r3, [r7, #12]
 9967 003e 1B68     		ldr	r3, [r3]
 9968 0040 5968     		ldr	r1, [r3, #4]
 9969 0042 1D4B     		ldr	r3, .L501
 9970 0044 0B40     		ands	r3, r3, r1
 9971 0046 5360     		str	r3, [r2, #4]
ARM GAS  /tmp/cczIhzQ0.s 			page 253


4505:../../Drivers/STM32F7xx_HAL_Driver/Src/stm32f7xx_hal_i2c.c ****       
4506:../../Drivers/STM32F7xx_HAL_Driver/Src/stm32f7xx_hal_i2c.c ****       hi2c->ErrorCode = HAL_I2C_ERROR_NONE;
 9972              		.loc 1 4506 0
 9973 0048 FB68     		ldr	r3, [r7, #12]
 9974 004a 0022     		movs	r2, #0
 9975 004c 5A64     		str	r2, [r3, #68]
4507:../../Drivers/STM32F7xx_HAL_Driver/Src/stm32f7xx_hal_i2c.c ****       hi2c->State= HAL_I2C_STATE_READY;
 9976              		.loc 1 4507 0
 9977 004e FB68     		ldr	r3, [r7, #12]
 9978 0050 2022     		movs	r2, #32
 9979 0052 83F84120 		strb	r2, [r3, #65]
4508:../../Drivers/STM32F7xx_HAL_Driver/Src/stm32f7xx_hal_i2c.c ****       hi2c->Mode = HAL_I2C_MODE_NONE;
 9980              		.loc 1 4508 0
 9981 0056 FB68     		ldr	r3, [r7, #12]
 9982 0058 0022     		movs	r2, #0
 9983 005a 83F84220 		strb	r2, [r3, #66]
4509:../../Drivers/STM32F7xx_HAL_Driver/Src/stm32f7xx_hal_i2c.c ****       
4510:../../Drivers/STM32F7xx_HAL_Driver/Src/stm32f7xx_hal_i2c.c ****       /* Process Unlocked */
4511:../../Drivers/STM32F7xx_HAL_Driver/Src/stm32f7xx_hal_i2c.c ****       __HAL_UNLOCK(hi2c);
 9984              		.loc 1 4511 0
 9985 005e FB68     		ldr	r3, [r7, #12]
 9986 0060 0022     		movs	r2, #0
 9987 0062 83F84020 		strb	r2, [r3, #64]
4512:../../Drivers/STM32F7xx_HAL_Driver/Src/stm32f7xx_hal_i2c.c ****       
4513:../../Drivers/STM32F7xx_HAL_Driver/Src/stm32f7xx_hal_i2c.c ****       return HAL_ERROR;
 9988              		.loc 1 4513 0
 9989 0066 0123     		movs	r3, #1
 9990 0068 22E0     		b	.L497
 9991              	.L498:
4514:../../Drivers/STM32F7xx_HAL_Driver/Src/stm32f7xx_hal_i2c.c ****     }
4515:../../Drivers/STM32F7xx_HAL_Driver/Src/stm32f7xx_hal_i2c.c ****     
4516:../../Drivers/STM32F7xx_HAL_Driver/Src/stm32f7xx_hal_i2c.c ****     /* Check for the Timeout */
4517:../../Drivers/STM32F7xx_HAL_Driver/Src/stm32f7xx_hal_i2c.c ****     if((Timeout == 0)||((HAL_GetTick() - Tickstart) > Timeout))
 9992              		.loc 1 4517 0
 9993 006a BB68     		ldr	r3, [r7, #8]
 9994 006c 002B     		cmp	r3, #0
 9995 006e 07D0     		beq	.L499
 9996              		.loc 1 4517 0 is_stmt 0 discriminator 1
 9997 0070 FFF7FEFF 		bl	HAL_GetTick
 9998 0074 0246     		mov	r2, r0
 9999 0076 7B68     		ldr	r3, [r7, #4]
 10000 0078 D21A     		subs	r2, r2, r3
 10001 007a BB68     		ldr	r3, [r7, #8]
 10002 007c 9A42     		cmp	r2, r3
 10003 007e 0FD9     		bls	.L495
 10004              	.L499:
4518:../../Drivers/STM32F7xx_HAL_Driver/Src/stm32f7xx_hal_i2c.c ****     {
4519:../../Drivers/STM32F7xx_HAL_Driver/Src/stm32f7xx_hal_i2c.c ****       hi2c->ErrorCode |= HAL_I2C_ERROR_TIMEOUT;
 10005              		.loc 1 4519 0 is_stmt 1
 10006 0080 FB68     		ldr	r3, [r7, #12]
 10007 0082 5B6C     		ldr	r3, [r3, #68]
 10008 0084 43F02002 		orr	r2, r3, #32
 10009 0088 FB68     		ldr	r3, [r7, #12]
 10010 008a 5A64     		str	r2, [r3, #68]
4520:../../Drivers/STM32F7xx_HAL_Driver/Src/stm32f7xx_hal_i2c.c ****       hi2c->State= HAL_I2C_STATE_READY;
 10011              		.loc 1 4520 0
 10012 008c FB68     		ldr	r3, [r7, #12]
ARM GAS  /tmp/cczIhzQ0.s 			page 254


 10013 008e 2022     		movs	r2, #32
 10014 0090 83F84120 		strb	r2, [r3, #65]
4521:../../Drivers/STM32F7xx_HAL_Driver/Src/stm32f7xx_hal_i2c.c ****       
4522:../../Drivers/STM32F7xx_HAL_Driver/Src/stm32f7xx_hal_i2c.c ****       /* Process Unlocked */
4523:../../Drivers/STM32F7xx_HAL_Driver/Src/stm32f7xx_hal_i2c.c ****       __HAL_UNLOCK(hi2c);
 10015              		.loc 1 4523 0
 10016 0094 FB68     		ldr	r3, [r7, #12]
 10017 0096 0022     		movs	r2, #0
 10018 0098 83F84020 		strb	r2, [r3, #64]
4524:../../Drivers/STM32F7xx_HAL_Driver/Src/stm32f7xx_hal_i2c.c ****       
4525:../../Drivers/STM32F7xx_HAL_Driver/Src/stm32f7xx_hal_i2c.c ****       return HAL_TIMEOUT;
 10019              		.loc 1 4525 0
 10020 009c 0323     		movs	r3, #3
 10021 009e 07E0     		b	.L497
 10022              	.L495:
4489:../../Drivers/STM32F7xx_HAL_Driver/Src/stm32f7xx_hal_i2c.c ****   {
 10023              		.loc 1 4489 0
 10024 00a0 FB68     		ldr	r3, [r7, #12]
 10025 00a2 1B68     		ldr	r3, [r3]
 10026 00a4 9B69     		ldr	r3, [r3, #24]
 10027 00a6 03F00403 		and	r3, r3, #4
 10028 00aa 002B     		cmp	r3, #0
 10029 00ac AFD0     		beq	.L500
4526:../../Drivers/STM32F7xx_HAL_Driver/Src/stm32f7xx_hal_i2c.c ****     }
4527:../../Drivers/STM32F7xx_HAL_Driver/Src/stm32f7xx_hal_i2c.c ****   }
4528:../../Drivers/STM32F7xx_HAL_Driver/Src/stm32f7xx_hal_i2c.c ****   return HAL_OK;
 10030              		.loc 1 4528 0
 10031 00ae 0023     		movs	r3, #0
 10032              	.L497:
4529:../../Drivers/STM32F7xx_HAL_Driver/Src/stm32f7xx_hal_i2c.c **** }
 10033              		.loc 1 4529 0
 10034 00b0 1846     		mov	r0, r3
 10035 00b2 1037     		adds	r7, r7, #16
 10036              	.LCFI361:
 10037              		.cfi_def_cfa_offset 8
 10038 00b4 BD46     		mov	sp, r7
 10039              	.LCFI362:
 10040              		.cfi_def_cfa_register 13
 10041              		@ sp needed
 10042 00b6 80BD     		pop	{r7, pc}
 10043              	.L502:
 10044              		.align	2
 10045              	.L501:
 10046 00b8 00E800FE 		.word	-33495040
 10047              		.cfi_endproc
 10048              	.LFE203:
 10050              		.section	.text.I2C_IsAcknowledgeFailed,"ax",%progbits
 10051              		.align	2
 10052              		.thumb
 10053              		.thumb_func
 10055              	I2C_IsAcknowledgeFailed:
 10056              	.LFB204:
4530:../../Drivers/STM32F7xx_HAL_Driver/Src/stm32f7xx_hal_i2c.c **** 
4531:../../Drivers/STM32F7xx_HAL_Driver/Src/stm32f7xx_hal_i2c.c **** /**
4532:../../Drivers/STM32F7xx_HAL_Driver/Src/stm32f7xx_hal_i2c.c ****   * @brief  This function handles Acknowledge failed detection during an I2C Communication.
4533:../../Drivers/STM32F7xx_HAL_Driver/Src/stm32f7xx_hal_i2c.c ****   * @param  hi2c: Pointer to a I2C_HandleTypeDef structure that contains
4534:../../Drivers/STM32F7xx_HAL_Driver/Src/stm32f7xx_hal_i2c.c ****   *               the configuration information for the specified I2C.
ARM GAS  /tmp/cczIhzQ0.s 			page 255


4535:../../Drivers/STM32F7xx_HAL_Driver/Src/stm32f7xx_hal_i2c.c ****   * @param  Timeout: Timeout duration
4536:../../Drivers/STM32F7xx_HAL_Driver/Src/stm32f7xx_hal_i2c.c ****   * @param  Tickstart: Tick start value
4537:../../Drivers/STM32F7xx_HAL_Driver/Src/stm32f7xx_hal_i2c.c ****   * @retval HAL status
4538:../../Drivers/STM32F7xx_HAL_Driver/Src/stm32f7xx_hal_i2c.c ****   */
4539:../../Drivers/STM32F7xx_HAL_Driver/Src/stm32f7xx_hal_i2c.c **** static HAL_StatusTypeDef I2C_IsAcknowledgeFailed(I2C_HandleTypeDef *hi2c, uint32_t Timeout, uint32_
4540:../../Drivers/STM32F7xx_HAL_Driver/Src/stm32f7xx_hal_i2c.c **** {
 10057              		.loc 1 4540 0
 10058              		.cfi_startproc
 10059              		@ args = 0, pretend = 0, frame = 16
 10060              		@ frame_needed = 1, uses_anonymous_args = 0
 10061 0000 80B5     		push	{r7, lr}
 10062              	.LCFI363:
 10063              		.cfi_def_cfa_offset 8
 10064              		.cfi_offset 7, -8
 10065              		.cfi_offset 14, -4
 10066 0002 84B0     		sub	sp, sp, #16
 10067              	.LCFI364:
 10068              		.cfi_def_cfa_offset 24
 10069 0004 00AF     		add	r7, sp, #0
 10070              	.LCFI365:
 10071              		.cfi_def_cfa_register 7
 10072 0006 F860     		str	r0, [r7, #12]
 10073 0008 B960     		str	r1, [r7, #8]
 10074 000a 7A60     		str	r2, [r7, #4]
4541:../../Drivers/STM32F7xx_HAL_Driver/Src/stm32f7xx_hal_i2c.c ****   if(__HAL_I2C_GET_FLAG(hi2c, I2C_FLAG_AF) == SET)
 10075              		.loc 1 4541 0
 10076 000c FB68     		ldr	r3, [r7, #12]
 10077 000e 1B68     		ldr	r3, [r3]
 10078 0010 9B69     		ldr	r3, [r3, #24]
 10079 0012 03F01003 		and	r3, r3, #16
 10080 0016 002B     		cmp	r3, #0
 10081 0018 48D0     		beq	.L504
4542:../../Drivers/STM32F7xx_HAL_Driver/Src/stm32f7xx_hal_i2c.c ****   {
4543:../../Drivers/STM32F7xx_HAL_Driver/Src/stm32f7xx_hal_i2c.c ****     /* Wait until STOP Flag is reset */
4544:../../Drivers/STM32F7xx_HAL_Driver/Src/stm32f7xx_hal_i2c.c ****     /* AutoEnd should be initiate after AF */
4545:../../Drivers/STM32F7xx_HAL_Driver/Src/stm32f7xx_hal_i2c.c ****     while(__HAL_I2C_GET_FLAG(hi2c, I2C_FLAG_STOPF) == RESET)
 10082              		.loc 1 4545 0
 10083 001a 1CE0     		b	.L505
 10084              	.L508:
4546:../../Drivers/STM32F7xx_HAL_Driver/Src/stm32f7xx_hal_i2c.c ****     {
4547:../../Drivers/STM32F7xx_HAL_Driver/Src/stm32f7xx_hal_i2c.c ****       /* Check for the Timeout */
4548:../../Drivers/STM32F7xx_HAL_Driver/Src/stm32f7xx_hal_i2c.c ****       if(Timeout != HAL_MAX_DELAY)
 10085              		.loc 1 4548 0
 10086 001c BB68     		ldr	r3, [r7, #8]
 10087 001e B3F1FF3F 		cmp	r3, #-1
 10088 0022 18D0     		beq	.L505
4549:../../Drivers/STM32F7xx_HAL_Driver/Src/stm32f7xx_hal_i2c.c ****       {
4550:../../Drivers/STM32F7xx_HAL_Driver/Src/stm32f7xx_hal_i2c.c ****       if((Timeout == 0)||((HAL_GetTick() - Tickstart) > Timeout))
 10089              		.loc 1 4550 0
 10090 0024 BB68     		ldr	r3, [r7, #8]
 10091 0026 002B     		cmp	r3, #0
 10092 0028 07D0     		beq	.L506
 10093              		.loc 1 4550 0 is_stmt 0 discriminator 1
 10094 002a FFF7FEFF 		bl	HAL_GetTick
 10095 002e 0246     		mov	r2, r0
 10096 0030 7B68     		ldr	r3, [r7, #4]
 10097 0032 D21A     		subs	r2, r2, r3
ARM GAS  /tmp/cczIhzQ0.s 			page 256


 10098 0034 BB68     		ldr	r3, [r7, #8]
 10099 0036 9A42     		cmp	r2, r3
 10100 0038 0DD9     		bls	.L505
 10101              	.L506:
4551:../../Drivers/STM32F7xx_HAL_Driver/Src/stm32f7xx_hal_i2c.c ****         {
4552:../../Drivers/STM32F7xx_HAL_Driver/Src/stm32f7xx_hal_i2c.c ****           hi2c->State= HAL_I2C_STATE_READY;
 10102              		.loc 1 4552 0 is_stmt 1
 10103 003a FB68     		ldr	r3, [r7, #12]
 10104 003c 2022     		movs	r2, #32
 10105 003e 83F84120 		strb	r2, [r3, #65]
4553:../../Drivers/STM32F7xx_HAL_Driver/Src/stm32f7xx_hal_i2c.c ****           hi2c->Mode = HAL_I2C_MODE_NONE;
 10106              		.loc 1 4553 0
 10107 0042 FB68     		ldr	r3, [r7, #12]
 10108 0044 0022     		movs	r2, #0
 10109 0046 83F84220 		strb	r2, [r3, #66]
4554:../../Drivers/STM32F7xx_HAL_Driver/Src/stm32f7xx_hal_i2c.c ****           
4555:../../Drivers/STM32F7xx_HAL_Driver/Src/stm32f7xx_hal_i2c.c ****           /* Process Unlocked */
4556:../../Drivers/STM32F7xx_HAL_Driver/Src/stm32f7xx_hal_i2c.c ****           __HAL_UNLOCK(hi2c);
 10110              		.loc 1 4556 0
 10111 004a FB68     		ldr	r3, [r7, #12]
 10112 004c 0022     		movs	r2, #0
 10113 004e 83F84020 		strb	r2, [r3, #64]
4557:../../Drivers/STM32F7xx_HAL_Driver/Src/stm32f7xx_hal_i2c.c ****           return HAL_TIMEOUT;
 10114              		.loc 1 4557 0
 10115 0052 0323     		movs	r3, #3
 10116 0054 2BE0     		b	.L507
 10117              	.L505:
4545:../../Drivers/STM32F7xx_HAL_Driver/Src/stm32f7xx_hal_i2c.c ****     {
 10118              		.loc 1 4545 0
 10119 0056 FB68     		ldr	r3, [r7, #12]
 10120 0058 1B68     		ldr	r3, [r3]
 10121 005a 9B69     		ldr	r3, [r3, #24]
 10122 005c 03F02003 		and	r3, r3, #32
 10123 0060 002B     		cmp	r3, #0
 10124 0062 DBD0     		beq	.L508
4558:../../Drivers/STM32F7xx_HAL_Driver/Src/stm32f7xx_hal_i2c.c ****         }
4559:../../Drivers/STM32F7xx_HAL_Driver/Src/stm32f7xx_hal_i2c.c ****       }
4560:../../Drivers/STM32F7xx_HAL_Driver/Src/stm32f7xx_hal_i2c.c ****     }
4561:../../Drivers/STM32F7xx_HAL_Driver/Src/stm32f7xx_hal_i2c.c ****     
4562:../../Drivers/STM32F7xx_HAL_Driver/Src/stm32f7xx_hal_i2c.c ****     /* Clear NACKF Flag */
4563:../../Drivers/STM32F7xx_HAL_Driver/Src/stm32f7xx_hal_i2c.c ****     __HAL_I2C_CLEAR_FLAG(hi2c, I2C_FLAG_AF);
 10125              		.loc 1 4563 0
 10126 0064 FB68     		ldr	r3, [r7, #12]
 10127 0066 1B68     		ldr	r3, [r3]
 10128 0068 1022     		movs	r2, #16
 10129 006a DA61     		str	r2, [r3, #28]
4564:../../Drivers/STM32F7xx_HAL_Driver/Src/stm32f7xx_hal_i2c.c ****     
4565:../../Drivers/STM32F7xx_HAL_Driver/Src/stm32f7xx_hal_i2c.c ****     /* Clear STOP Flag */
4566:../../Drivers/STM32F7xx_HAL_Driver/Src/stm32f7xx_hal_i2c.c ****     __HAL_I2C_CLEAR_FLAG(hi2c, I2C_FLAG_STOPF);
 10130              		.loc 1 4566 0
 10131 006c FB68     		ldr	r3, [r7, #12]
 10132 006e 1B68     		ldr	r3, [r3]
 10133 0070 2022     		movs	r2, #32
 10134 0072 DA61     		str	r2, [r3, #28]
4567:../../Drivers/STM32F7xx_HAL_Driver/Src/stm32f7xx_hal_i2c.c ****     
4568:../../Drivers/STM32F7xx_HAL_Driver/Src/stm32f7xx_hal_i2c.c ****     /* Flush TX register */
4569:../../Drivers/STM32F7xx_HAL_Driver/Src/stm32f7xx_hal_i2c.c ****     I2C_Flush_TXDR(hi2c);
ARM GAS  /tmp/cczIhzQ0.s 			page 257


 10135              		.loc 1 4569 0
 10136 0074 F868     		ldr	r0, [r7, #12]
 10137 0076 FFF7FEFF 		bl	I2C_Flush_TXDR
4570:../../Drivers/STM32F7xx_HAL_Driver/Src/stm32f7xx_hal_i2c.c ****     
4571:../../Drivers/STM32F7xx_HAL_Driver/Src/stm32f7xx_hal_i2c.c ****     /* Clear Configuration Register 2 */
4572:../../Drivers/STM32F7xx_HAL_Driver/Src/stm32f7xx_hal_i2c.c ****     I2C_RESET_CR2(hi2c);
 10138              		.loc 1 4572 0
 10139 007a FB68     		ldr	r3, [r7, #12]
 10140 007c 1A68     		ldr	r2, [r3]
 10141 007e FB68     		ldr	r3, [r7, #12]
 10142 0080 1B68     		ldr	r3, [r3]
 10143 0082 5968     		ldr	r1, [r3, #4]
 10144 0084 0C4B     		ldr	r3, .L509
 10145 0086 0B40     		ands	r3, r3, r1
 10146 0088 5360     		str	r3, [r2, #4]
4573:../../Drivers/STM32F7xx_HAL_Driver/Src/stm32f7xx_hal_i2c.c ****     
4574:../../Drivers/STM32F7xx_HAL_Driver/Src/stm32f7xx_hal_i2c.c ****     hi2c->ErrorCode = HAL_I2C_ERROR_AF;
 10147              		.loc 1 4574 0
 10148 008a FB68     		ldr	r3, [r7, #12]
 10149 008c 0422     		movs	r2, #4
 10150 008e 5A64     		str	r2, [r3, #68]
4575:../../Drivers/STM32F7xx_HAL_Driver/Src/stm32f7xx_hal_i2c.c ****     hi2c->State= HAL_I2C_STATE_READY;
 10151              		.loc 1 4575 0
 10152 0090 FB68     		ldr	r3, [r7, #12]
 10153 0092 2022     		movs	r2, #32
 10154 0094 83F84120 		strb	r2, [r3, #65]
4576:../../Drivers/STM32F7xx_HAL_Driver/Src/stm32f7xx_hal_i2c.c ****     hi2c->Mode = HAL_I2C_MODE_NONE;
 10155              		.loc 1 4576 0
 10156 0098 FB68     		ldr	r3, [r7, #12]
 10157 009a 0022     		movs	r2, #0
 10158 009c 83F84220 		strb	r2, [r3, #66]
4577:../../Drivers/STM32F7xx_HAL_Driver/Src/stm32f7xx_hal_i2c.c ****     
4578:../../Drivers/STM32F7xx_HAL_Driver/Src/stm32f7xx_hal_i2c.c ****     /* Process Unlocked */
4579:../../Drivers/STM32F7xx_HAL_Driver/Src/stm32f7xx_hal_i2c.c ****     __HAL_UNLOCK(hi2c);
 10159              		.loc 1 4579 0
 10160 00a0 FB68     		ldr	r3, [r7, #12]
 10161 00a2 0022     		movs	r2, #0
 10162 00a4 83F84020 		strb	r2, [r3, #64]
4580:../../Drivers/STM32F7xx_HAL_Driver/Src/stm32f7xx_hal_i2c.c ****     
4581:../../Drivers/STM32F7xx_HAL_Driver/Src/stm32f7xx_hal_i2c.c ****     return HAL_ERROR;
 10163              		.loc 1 4581 0
 10164 00a8 0123     		movs	r3, #1
 10165 00aa 00E0     		b	.L507
 10166              	.L504:
4582:../../Drivers/STM32F7xx_HAL_Driver/Src/stm32f7xx_hal_i2c.c ****   }
4583:../../Drivers/STM32F7xx_HAL_Driver/Src/stm32f7xx_hal_i2c.c ****   return HAL_OK;
 10167              		.loc 1 4583 0
 10168 00ac 0023     		movs	r3, #0
 10169              	.L507:
4584:../../Drivers/STM32F7xx_HAL_Driver/Src/stm32f7xx_hal_i2c.c **** }
 10170              		.loc 1 4584 0
 10171 00ae 1846     		mov	r0, r3
 10172 00b0 1037     		adds	r7, r7, #16
 10173              	.LCFI366:
 10174              		.cfi_def_cfa_offset 8
 10175 00b2 BD46     		mov	sp, r7
 10176              	.LCFI367:
ARM GAS  /tmp/cczIhzQ0.s 			page 258


 10177              		.cfi_def_cfa_register 13
 10178              		@ sp needed
 10179 00b4 80BD     		pop	{r7, pc}
 10180              	.L510:
 10181 00b6 00BF     		.align	2
 10182              	.L509:
 10183 00b8 00E800FE 		.word	-33495040
 10184              		.cfi_endproc
 10185              	.LFE204:
 10187              		.section	.text.I2C_TransferConfig,"ax",%progbits
 10188              		.align	2
 10189              		.thumb
 10190              		.thumb_func
 10192              	I2C_TransferConfig:
 10193              	.LFB205:
4585:../../Drivers/STM32F7xx_HAL_Driver/Src/stm32f7xx_hal_i2c.c **** 
4586:../../Drivers/STM32F7xx_HAL_Driver/Src/stm32f7xx_hal_i2c.c **** /**
4587:../../Drivers/STM32F7xx_HAL_Driver/Src/stm32f7xx_hal_i2c.c ****   * @brief  Handles I2Cx communication when starting transfer or during transfer (TC or TCR flag ar
4588:../../Drivers/STM32F7xx_HAL_Driver/Src/stm32f7xx_hal_i2c.c ****   * @param  hi2c: I2C handle.
4589:../../Drivers/STM32F7xx_HAL_Driver/Src/stm32f7xx_hal_i2c.c ****   * @param  DevAddress: Specifies the slave address to be programmed.
4590:../../Drivers/STM32F7xx_HAL_Driver/Src/stm32f7xx_hal_i2c.c ****   * @param  Size: Specifies the number of bytes to be programmed.
4591:../../Drivers/STM32F7xx_HAL_Driver/Src/stm32f7xx_hal_i2c.c ****   *   This parameter must be a value between 0 and 255.
4592:../../Drivers/STM32F7xx_HAL_Driver/Src/stm32f7xx_hal_i2c.c ****   * @param  Mode: New state of the I2C START condition generation.
4593:../../Drivers/STM32F7xx_HAL_Driver/Src/stm32f7xx_hal_i2c.c ****   *   This parameter can be a value of @ref I2C_RELOAD_END_MODE.
4594:../../Drivers/STM32F7xx_HAL_Driver/Src/stm32f7xx_hal_i2c.c ****   * @param  Request: New state of the I2C START condition generation.
4595:../../Drivers/STM32F7xx_HAL_Driver/Src/stm32f7xx_hal_i2c.c ****   *   This parameter can be a value of I2C_START_STOP_MODE.
4596:../../Drivers/STM32F7xx_HAL_Driver/Src/stm32f7xx_hal_i2c.c ****   * @retval None
4597:../../Drivers/STM32F7xx_HAL_Driver/Src/stm32f7xx_hal_i2c.c ****   */
4598:../../Drivers/STM32F7xx_HAL_Driver/Src/stm32f7xx_hal_i2c.c **** static void I2C_TransferConfig(I2C_HandleTypeDef *hi2c,  uint16_t DevAddress, uint8_t Size, uint32_
4599:../../Drivers/STM32F7xx_HAL_Driver/Src/stm32f7xx_hal_i2c.c **** {
 10194              		.loc 1 4599 0
 10195              		.cfi_startproc
 10196              		@ args = 4, pretend = 0, frame = 24
 10197              		@ frame_needed = 1, uses_anonymous_args = 0
 10198              		@ link register save eliminated.
 10199 0000 80B4     		push	{r7}
 10200              	.LCFI368:
 10201              		.cfi_def_cfa_offset 4
 10202              		.cfi_offset 7, -4
 10203 0002 87B0     		sub	sp, sp, #28
 10204              	.LCFI369:
 10205              		.cfi_def_cfa_offset 32
 10206 0004 00AF     		add	r7, sp, #0
 10207              	.LCFI370:
 10208              		.cfi_def_cfa_register 7
 10209 0006 F860     		str	r0, [r7, #12]
 10210 0008 7B60     		str	r3, [r7, #4]
 10211 000a 0B46     		mov	r3, r1	@ movhi
 10212 000c 7B81     		strh	r3, [r7, #10]	@ movhi
 10213 000e 1346     		mov	r3, r2
 10214 0010 7B72     		strb	r3, [r7, #9]
4600:../../Drivers/STM32F7xx_HAL_Driver/Src/stm32f7xx_hal_i2c.c ****   uint32_t tmpreg = 0;
 10215              		.loc 1 4600 0
 10216 0012 0023     		movs	r3, #0
 10217 0014 7B61     		str	r3, [r7, #20]
4601:../../Drivers/STM32F7xx_HAL_Driver/Src/stm32f7xx_hal_i2c.c ****   
4602:../../Drivers/STM32F7xx_HAL_Driver/Src/stm32f7xx_hal_i2c.c ****   /* Check the parameters */
ARM GAS  /tmp/cczIhzQ0.s 			page 259


4603:../../Drivers/STM32F7xx_HAL_Driver/Src/stm32f7xx_hal_i2c.c ****   assert_param(IS_I2C_ALL_INSTANCE(hi2c->Instance));
4604:../../Drivers/STM32F7xx_HAL_Driver/Src/stm32f7xx_hal_i2c.c ****   assert_param(IS_TRANSFER_MODE(Mode));
4605:../../Drivers/STM32F7xx_HAL_Driver/Src/stm32f7xx_hal_i2c.c ****   assert_param(IS_TRANSFER_REQUEST(Request));
4606:../../Drivers/STM32F7xx_HAL_Driver/Src/stm32f7xx_hal_i2c.c ****   
4607:../../Drivers/STM32F7xx_HAL_Driver/Src/stm32f7xx_hal_i2c.c ****   /* Get the CR2 register value */
4608:../../Drivers/STM32F7xx_HAL_Driver/Src/stm32f7xx_hal_i2c.c ****   tmpreg = hi2c->Instance->CR2;
 10218              		.loc 1 4608 0
 10219 0016 FB68     		ldr	r3, [r7, #12]
 10220 0018 1B68     		ldr	r3, [r3]
 10221 001a 5B68     		ldr	r3, [r3, #4]
 10222 001c 7B61     		str	r3, [r7, #20]
4609:../../Drivers/STM32F7xx_HAL_Driver/Src/stm32f7xx_hal_i2c.c ****   
4610:../../Drivers/STM32F7xx_HAL_Driver/Src/stm32f7xx_hal_i2c.c ****   /* clear tmpreg specific bits */
4611:../../Drivers/STM32F7xx_HAL_Driver/Src/stm32f7xx_hal_i2c.c ****   tmpreg &= (uint32_t)~((uint32_t)(I2C_CR2_SADD | I2C_CR2_NBYTES | I2C_CR2_RELOAD | I2C_CR2_AUTOEND
 10223              		.loc 1 4611 0
 10224 001e 7A69     		ldr	r2, [r7, #20]
 10225 0020 0D4B     		ldr	r3, .L512
 10226 0022 1340     		ands	r3, r3, r2
 10227 0024 7B61     		str	r3, [r7, #20]
4612:../../Drivers/STM32F7xx_HAL_Driver/Src/stm32f7xx_hal_i2c.c ****   
4613:../../Drivers/STM32F7xx_HAL_Driver/Src/stm32f7xx_hal_i2c.c ****   /* update tmpreg */
4614:../../Drivers/STM32F7xx_HAL_Driver/Src/stm32f7xx_hal_i2c.c ****   tmpreg |= (uint32_t)(((uint32_t)DevAddress & I2C_CR2_SADD) | (((uint32_t)Size << 16 ) & I2C_CR2_N
 10228              		.loc 1 4614 0
 10229 0026 7B89     		ldrh	r3, [r7, #10]
 10230 0028 C3F30902 		ubfx	r2, r3, #0, #10
 10231 002c 7B7A     		ldrb	r3, [r7, #9]	@ zero_extendqisi2
 10232 002e 1B04     		lsls	r3, r3, #16
 10233 0030 03F47F03 		and	r3, r3, #16711680
 10234 0034 1A43     		orrs	r2, r2, r3
 10235 0036 7B68     		ldr	r3, [r7, #4]
 10236 0038 1A43     		orrs	r2, r2, r3
 10237 003a 3B6A     		ldr	r3, [r7, #32]
 10238 003c 1343     		orrs	r3, r3, r2
 10239 003e 7A69     		ldr	r2, [r7, #20]
 10240 0040 1343     		orrs	r3, r3, r2
 10241 0042 7B61     		str	r3, [r7, #20]
4615:../../Drivers/STM32F7xx_HAL_Driver/Src/stm32f7xx_hal_i2c.c ****             (uint32_t)Mode | (uint32_t)Request);
4616:../../Drivers/STM32F7xx_HAL_Driver/Src/stm32f7xx_hal_i2c.c ****   
4617:../../Drivers/STM32F7xx_HAL_Driver/Src/stm32f7xx_hal_i2c.c ****   /* update CR2 register */
4618:../../Drivers/STM32F7xx_HAL_Driver/Src/stm32f7xx_hal_i2c.c ****   hi2c->Instance->CR2 = tmpreg;
 10242              		.loc 1 4618 0
 10243 0044 FB68     		ldr	r3, [r7, #12]
 10244 0046 1B68     		ldr	r3, [r3]
 10245 0048 7A69     		ldr	r2, [r7, #20]
 10246 004a 5A60     		str	r2, [r3, #4]
4619:../../Drivers/STM32F7xx_HAL_Driver/Src/stm32f7xx_hal_i2c.c **** }
 10247              		.loc 1 4619 0
 10248 004c 1C37     		adds	r7, r7, #28
 10249              	.LCFI371:
 10250              		.cfi_def_cfa_offset 4
 10251 004e BD46     		mov	sp, r7
 10252              	.LCFI372:
 10253              		.cfi_def_cfa_register 13
 10254              		@ sp needed
 10255 0050 5DF8047B 		ldr	r7, [sp], #4
 10256              	.LCFI373:
 10257              		.cfi_restore 7
ARM GAS  /tmp/cczIhzQ0.s 			page 260


 10258              		.cfi_def_cfa_offset 0
 10259 0054 7047     		bx	lr
 10260              	.L513:
 10261 0056 00BF     		.align	2
 10262              	.L512:
 10263 0058 009800FC 		.word	-67069952
 10264              		.cfi_endproc
 10265              	.LFE205:
 10267              		.section	.text.I2C_Enable_IRQ,"ax",%progbits
 10268              		.align	2
 10269              		.thumb
 10270              		.thumb_func
 10272              	I2C_Enable_IRQ:
 10273              	.LFB206:
4620:../../Drivers/STM32F7xx_HAL_Driver/Src/stm32f7xx_hal_i2c.c **** 
4621:../../Drivers/STM32F7xx_HAL_Driver/Src/stm32f7xx_hal_i2c.c **** /**
4622:../../Drivers/STM32F7xx_HAL_Driver/Src/stm32f7xx_hal_i2c.c ****   * @brief  Manage the enabling of Interrupts.
4623:../../Drivers/STM32F7xx_HAL_Driver/Src/stm32f7xx_hal_i2c.c ****   * @param  hi2c: Pointer to a I2C_HandleTypeDef structure that contains
4624:../../Drivers/STM32F7xx_HAL_Driver/Src/stm32f7xx_hal_i2c.c ****   *               the configuration information for the specified I2C.
4625:../../Drivers/STM32F7xx_HAL_Driver/Src/stm32f7xx_hal_i2c.c ****   * @param  InterruptRequest: Value of @ref I2C_Interrupt_configuration_definition.
4626:../../Drivers/STM32F7xx_HAL_Driver/Src/stm32f7xx_hal_i2c.c ****   * @retval HAL status
4627:../../Drivers/STM32F7xx_HAL_Driver/Src/stm32f7xx_hal_i2c.c ****   */
4628:../../Drivers/STM32F7xx_HAL_Driver/Src/stm32f7xx_hal_i2c.c **** static HAL_StatusTypeDef I2C_Enable_IRQ(I2C_HandleTypeDef *hi2c, uint16_t InterruptRequest)
4629:../../Drivers/STM32F7xx_HAL_Driver/Src/stm32f7xx_hal_i2c.c **** {
 10274              		.loc 1 4629 0
 10275              		.cfi_startproc
 10276              		@ args = 0, pretend = 0, frame = 16
 10277              		@ frame_needed = 1, uses_anonymous_args = 0
 10278              		@ link register save eliminated.
 10279 0000 80B4     		push	{r7}
 10280              	.LCFI374:
 10281              		.cfi_def_cfa_offset 4
 10282              		.cfi_offset 7, -4
 10283 0002 85B0     		sub	sp, sp, #20
 10284              	.LCFI375:
 10285              		.cfi_def_cfa_offset 24
 10286 0004 00AF     		add	r7, sp, #0
 10287              	.LCFI376:
 10288              		.cfi_def_cfa_register 7
 10289 0006 7860     		str	r0, [r7, #4]
 10290 0008 0B46     		mov	r3, r1
 10291 000a 7B80     		strh	r3, [r7, #2]	@ movhi
4630:../../Drivers/STM32F7xx_HAL_Driver/Src/stm32f7xx_hal_i2c.c ****   uint32_t tmpisr = 0;
 10292              		.loc 1 4630 0
 10293 000c 0023     		movs	r3, #0
 10294 000e FB60     		str	r3, [r7, #12]
4631:../../Drivers/STM32F7xx_HAL_Driver/Src/stm32f7xx_hal_i2c.c ****   
4632:../../Drivers/STM32F7xx_HAL_Driver/Src/stm32f7xx_hal_i2c.c ****   if((hi2c->XferISR == I2C_Master_ISR_DMA) || \
 10295              		.loc 1 4632 0
 10296 0010 7B68     		ldr	r3, [r7, #4]
 10297 0012 5B6B     		ldr	r3, [r3, #52]
 10298 0014 304A     		ldr	r2, .L526
 10299 0016 9342     		cmp	r3, r2
 10300 0018 04D0     		beq	.L515
4633:../../Drivers/STM32F7xx_HAL_Driver/Src/stm32f7xx_hal_i2c.c ****      (hi2c->XferISR == I2C_Slave_ISR_DMA))
 10301              		.loc 1 4633 0 discriminator 1
 10302 001a 7B68     		ldr	r3, [r7, #4]
ARM GAS  /tmp/cczIhzQ0.s 			page 261


 10303 001c 5B6B     		ldr	r3, [r3, #52]
4632:../../Drivers/STM32F7xx_HAL_Driver/Src/stm32f7xx_hal_i2c.c ****      (hi2c->XferISR == I2C_Slave_ISR_DMA))
 10304              		.loc 1 4632 0 discriminator 1
 10305 001e 2F4A     		ldr	r2, .L526+4
 10306 0020 9342     		cmp	r3, r2
 10307 0022 25D1     		bne	.L516
 10308              	.L515:
4634:../../Drivers/STM32F7xx_HAL_Driver/Src/stm32f7xx_hal_i2c.c ****   {
4635:../../Drivers/STM32F7xx_HAL_Driver/Src/stm32f7xx_hal_i2c.c ****     if((InterruptRequest & I2C_XFER_LISTEN_IT) == I2C_XFER_LISTEN_IT)
 10309              		.loc 1 4635 0
 10310 0024 7B88     		ldrh	r3, [r7, #2]
 10311 0026 03F00403 		and	r3, r3, #4
 10312 002a 002B     		cmp	r3, #0
 10313 002c 03D0     		beq	.L517
4636:../../Drivers/STM32F7xx_HAL_Driver/Src/stm32f7xx_hal_i2c.c ****     {
4637:../../Drivers/STM32F7xx_HAL_Driver/Src/stm32f7xx_hal_i2c.c ****       /* Enable ERR, STOP, NACK and ADDR interrupts */
4638:../../Drivers/STM32F7xx_HAL_Driver/Src/stm32f7xx_hal_i2c.c ****       tmpisr |= I2C_IT_ADDRI | I2C_IT_STOPI | I2C_IT_NACKI | I2C_IT_ERRI;
 10314              		.loc 1 4638 0
 10315 002e FB68     		ldr	r3, [r7, #12]
 10316 0030 43F0B803 		orr	r3, r3, #184
 10317 0034 FB60     		str	r3, [r7, #12]
 10318              	.L517:
4639:../../Drivers/STM32F7xx_HAL_Driver/Src/stm32f7xx_hal_i2c.c ****     }
4640:../../Drivers/STM32F7xx_HAL_Driver/Src/stm32f7xx_hal_i2c.c ****     
4641:../../Drivers/STM32F7xx_HAL_Driver/Src/stm32f7xx_hal_i2c.c ****     if((InterruptRequest & I2C_XFER_ERROR_IT) == I2C_XFER_ERROR_IT)
 10319              		.loc 1 4641 0
 10320 0036 7B88     		ldrh	r3, [r7, #2]
 10321 0038 03F01103 		and	r3, r3, #17
 10322 003c 112B     		cmp	r3, #17
 10323 003e 03D1     		bne	.L518
4642:../../Drivers/STM32F7xx_HAL_Driver/Src/stm32f7xx_hal_i2c.c ****     {
4643:../../Drivers/STM32F7xx_HAL_Driver/Src/stm32f7xx_hal_i2c.c ****       /* Enable ERR and NACK interrupts */
4644:../../Drivers/STM32F7xx_HAL_Driver/Src/stm32f7xx_hal_i2c.c ****       tmpisr |= I2C_IT_ERRI | I2C_IT_NACKI;
 10324              		.loc 1 4644 0
 10325 0040 FB68     		ldr	r3, [r7, #12]
 10326 0042 43F09003 		orr	r3, r3, #144
 10327 0046 FB60     		str	r3, [r7, #12]
 10328              	.L518:
4645:../../Drivers/STM32F7xx_HAL_Driver/Src/stm32f7xx_hal_i2c.c ****     }
4646:../../Drivers/STM32F7xx_HAL_Driver/Src/stm32f7xx_hal_i2c.c ****     
4647:../../Drivers/STM32F7xx_HAL_Driver/Src/stm32f7xx_hal_i2c.c ****     if((InterruptRequest & I2C_XFER_CPLT_IT) == I2C_XFER_CPLT_IT)
 10329              		.loc 1 4647 0
 10330 0048 7B88     		ldrh	r3, [r7, #2]
 10331 004a 03F01203 		and	r3, r3, #18
 10332 004e 122B     		cmp	r3, #18
 10333 0050 03D1     		bne	.L519
4648:../../Drivers/STM32F7xx_HAL_Driver/Src/stm32f7xx_hal_i2c.c ****     {
4649:../../Drivers/STM32F7xx_HAL_Driver/Src/stm32f7xx_hal_i2c.c ****       /* Enable STOP interrupts */
4650:../../Drivers/STM32F7xx_HAL_Driver/Src/stm32f7xx_hal_i2c.c ****       tmpisr |= I2C_IT_STOPI;
 10334              		.loc 1 4650 0
 10335 0052 FB68     		ldr	r3, [r7, #12]
 10336 0054 43F02003 		orr	r3, r3, #32
 10337 0058 FB60     		str	r3, [r7, #12]
 10338              	.L519:
4651:../../Drivers/STM32F7xx_HAL_Driver/Src/stm32f7xx_hal_i2c.c ****     }
4652:../../Drivers/STM32F7xx_HAL_Driver/Src/stm32f7xx_hal_i2c.c ****     
4653:../../Drivers/STM32F7xx_HAL_Driver/Src/stm32f7xx_hal_i2c.c ****     if((InterruptRequest & I2C_XFER_RELOAD_IT) == I2C_XFER_RELOAD_IT)
ARM GAS  /tmp/cczIhzQ0.s 			page 262


 10339              		.loc 1 4653 0
 10340 005a 7B88     		ldrh	r3, [r7, #2]
 10341 005c 03F01203 		and	r3, r3, #18
 10342 0060 122B     		cmp	r3, #18
 10343 0062 04D1     		bne	.L520
4654:../../Drivers/STM32F7xx_HAL_Driver/Src/stm32f7xx_hal_i2c.c ****     {
4655:../../Drivers/STM32F7xx_HAL_Driver/Src/stm32f7xx_hal_i2c.c ****       /* Enable TC interrupts */
4656:../../Drivers/STM32F7xx_HAL_Driver/Src/stm32f7xx_hal_i2c.c ****       tmpisr |= I2C_IT_TCI;
 10344              		.loc 1 4656 0
 10345 0064 FB68     		ldr	r3, [r7, #12]
 10346 0066 43F04003 		orr	r3, r3, #64
 10347 006a FB60     		str	r3, [r7, #12]
4653:../../Drivers/STM32F7xx_HAL_Driver/Src/stm32f7xx_hal_i2c.c ****     {
 10348              		.loc 1 4653 0
 10349 006c 24E0     		b	.L521
 10350              	.L520:
 10351 006e 23E0     		b	.L521
 10352              	.L516:
4657:../../Drivers/STM32F7xx_HAL_Driver/Src/stm32f7xx_hal_i2c.c ****     }
4658:../../Drivers/STM32F7xx_HAL_Driver/Src/stm32f7xx_hal_i2c.c ****   }
4659:../../Drivers/STM32F7xx_HAL_Driver/Src/stm32f7xx_hal_i2c.c ****   else
4660:../../Drivers/STM32F7xx_HAL_Driver/Src/stm32f7xx_hal_i2c.c ****   {
4661:../../Drivers/STM32F7xx_HAL_Driver/Src/stm32f7xx_hal_i2c.c ****     if((InterruptRequest & I2C_XFER_LISTEN_IT) == I2C_XFER_LISTEN_IT)
 10353              		.loc 1 4661 0
 10354 0070 7B88     		ldrh	r3, [r7, #2]
 10355 0072 03F00403 		and	r3, r3, #4
 10356 0076 002B     		cmp	r3, #0
 10357 0078 03D0     		beq	.L522
4662:../../Drivers/STM32F7xx_HAL_Driver/Src/stm32f7xx_hal_i2c.c ****     {
4663:../../Drivers/STM32F7xx_HAL_Driver/Src/stm32f7xx_hal_i2c.c ****       /* Enable ERR, STOP, NACK, and ADDR interrupts */
4664:../../Drivers/STM32F7xx_HAL_Driver/Src/stm32f7xx_hal_i2c.c ****       tmpisr |= I2C_IT_ADDRI | I2C_IT_STOPI | I2C_IT_NACKI | I2C_IT_ERRI;
 10358              		.loc 1 4664 0
 10359 007a FB68     		ldr	r3, [r7, #12]
 10360 007c 43F0B803 		orr	r3, r3, #184
 10361 0080 FB60     		str	r3, [r7, #12]
 10362              	.L522:
4665:../../Drivers/STM32F7xx_HAL_Driver/Src/stm32f7xx_hal_i2c.c ****     }
4666:../../Drivers/STM32F7xx_HAL_Driver/Src/stm32f7xx_hal_i2c.c ****     
4667:../../Drivers/STM32F7xx_HAL_Driver/Src/stm32f7xx_hal_i2c.c ****     if((InterruptRequest & I2C_XFER_TX_IT) == I2C_XFER_TX_IT)
 10363              		.loc 1 4667 0
 10364 0082 7B88     		ldrh	r3, [r7, #2]
 10365 0084 03F00103 		and	r3, r3, #1
 10366 0088 002B     		cmp	r3, #0
 10367 008a 03D0     		beq	.L523
4668:../../Drivers/STM32F7xx_HAL_Driver/Src/stm32f7xx_hal_i2c.c ****     {
4669:../../Drivers/STM32F7xx_HAL_Driver/Src/stm32f7xx_hal_i2c.c ****       /* Enable ERR, TC, STOP, NACK and RXI interrupts */
4670:../../Drivers/STM32F7xx_HAL_Driver/Src/stm32f7xx_hal_i2c.c ****       tmpisr |= I2C_IT_ERRI | I2C_IT_TCI | I2C_IT_STOPI | I2C_IT_NACKI | I2C_IT_TXI;
 10368              		.loc 1 4670 0
 10369 008c FB68     		ldr	r3, [r7, #12]
 10370 008e 43F0F203 		orr	r3, r3, #242
 10371 0092 FB60     		str	r3, [r7, #12]
 10372              	.L523:
4671:../../Drivers/STM32F7xx_HAL_Driver/Src/stm32f7xx_hal_i2c.c ****     }
4672:../../Drivers/STM32F7xx_HAL_Driver/Src/stm32f7xx_hal_i2c.c ****     
4673:../../Drivers/STM32F7xx_HAL_Driver/Src/stm32f7xx_hal_i2c.c ****     if((InterruptRequest & I2C_XFER_RX_IT) == I2C_XFER_RX_IT)
 10373              		.loc 1 4673 0
 10374 0094 7B88     		ldrh	r3, [r7, #2]
ARM GAS  /tmp/cczIhzQ0.s 			page 263


 10375 0096 03F00203 		and	r3, r3, #2
 10376 009a 002B     		cmp	r3, #0
 10377 009c 03D0     		beq	.L524
4674:../../Drivers/STM32F7xx_HAL_Driver/Src/stm32f7xx_hal_i2c.c ****     {
4675:../../Drivers/STM32F7xx_HAL_Driver/Src/stm32f7xx_hal_i2c.c ****       /* Enable ERR, TC, STOP, NACK and TXI interrupts */
4676:../../Drivers/STM32F7xx_HAL_Driver/Src/stm32f7xx_hal_i2c.c ****       tmpisr |= I2C_IT_ERRI | I2C_IT_TCI | I2C_IT_STOPI | I2C_IT_NACKI | I2C_IT_RXI;
 10378              		.loc 1 4676 0
 10379 009e FB68     		ldr	r3, [r7, #12]
 10380 00a0 43F0F403 		orr	r3, r3, #244
 10381 00a4 FB60     		str	r3, [r7, #12]
 10382              	.L524:
4677:../../Drivers/STM32F7xx_HAL_Driver/Src/stm32f7xx_hal_i2c.c ****     }
4678:../../Drivers/STM32F7xx_HAL_Driver/Src/stm32f7xx_hal_i2c.c ****     
4679:../../Drivers/STM32F7xx_HAL_Driver/Src/stm32f7xx_hal_i2c.c ****     if((InterruptRequest & I2C_XFER_CPLT_IT) == I2C_XFER_CPLT_IT)
 10383              		.loc 1 4679 0
 10384 00a6 7B88     		ldrh	r3, [r7, #2]
 10385 00a8 03F01203 		and	r3, r3, #18
 10386 00ac 122B     		cmp	r3, #18
 10387 00ae 03D1     		bne	.L521
4680:../../Drivers/STM32F7xx_HAL_Driver/Src/stm32f7xx_hal_i2c.c ****     {
4681:../../Drivers/STM32F7xx_HAL_Driver/Src/stm32f7xx_hal_i2c.c ****       /* Enable STOP interrupts */
4682:../../Drivers/STM32F7xx_HAL_Driver/Src/stm32f7xx_hal_i2c.c ****       tmpisr |= I2C_IT_STOPI;
 10388              		.loc 1 4682 0
 10389 00b0 FB68     		ldr	r3, [r7, #12]
 10390 00b2 43F02003 		orr	r3, r3, #32
 10391 00b6 FB60     		str	r3, [r7, #12]
 10392              	.L521:
4683:../../Drivers/STM32F7xx_HAL_Driver/Src/stm32f7xx_hal_i2c.c ****     }
4684:../../Drivers/STM32F7xx_HAL_Driver/Src/stm32f7xx_hal_i2c.c ****   }
4685:../../Drivers/STM32F7xx_HAL_Driver/Src/stm32f7xx_hal_i2c.c ****   
4686:../../Drivers/STM32F7xx_HAL_Driver/Src/stm32f7xx_hal_i2c.c ****   /* Enable interrupts only at the end */
4687:../../Drivers/STM32F7xx_HAL_Driver/Src/stm32f7xx_hal_i2c.c ****   /* to avoid the risk of I2C interrupt handle execution before */
4688:../../Drivers/STM32F7xx_HAL_Driver/Src/stm32f7xx_hal_i2c.c ****   /* all interrupts requested done */
4689:../../Drivers/STM32F7xx_HAL_Driver/Src/stm32f7xx_hal_i2c.c ****   __HAL_I2C_ENABLE_IT(hi2c, tmpisr);
 10393              		.loc 1 4689 0
 10394 00b8 7B68     		ldr	r3, [r7, #4]
 10395 00ba 1B68     		ldr	r3, [r3]
 10396 00bc 7A68     		ldr	r2, [r7, #4]
 10397 00be 1268     		ldr	r2, [r2]
 10398 00c0 1168     		ldr	r1, [r2]
 10399 00c2 FA68     		ldr	r2, [r7, #12]
 10400 00c4 0A43     		orrs	r2, r2, r1
 10401 00c6 1A60     		str	r2, [r3]
4690:../../Drivers/STM32F7xx_HAL_Driver/Src/stm32f7xx_hal_i2c.c ****   
4691:../../Drivers/STM32F7xx_HAL_Driver/Src/stm32f7xx_hal_i2c.c ****   return HAL_OK;
 10402              		.loc 1 4691 0
 10403 00c8 0023     		movs	r3, #0
4692:../../Drivers/STM32F7xx_HAL_Driver/Src/stm32f7xx_hal_i2c.c **** }
 10404              		.loc 1 4692 0
 10405 00ca 1846     		mov	r0, r3
 10406 00cc 1437     		adds	r7, r7, #20
 10407              	.LCFI377:
 10408              		.cfi_def_cfa_offset 4
 10409 00ce BD46     		mov	sp, r7
 10410              	.LCFI378:
 10411              		.cfi_def_cfa_register 13
 10412              		@ sp needed
ARM GAS  /tmp/cczIhzQ0.s 			page 264


 10413 00d0 5DF8047B 		ldr	r7, [sp], #4
 10414              	.LCFI379:
 10415              		.cfi_restore 7
 10416              		.cfi_def_cfa_offset 0
 10417 00d4 7047     		bx	lr
 10418              	.L527:
 10419 00d6 00BF     		.align	2
 10420              	.L526:
 10421 00d8 00000000 		.word	I2C_Master_ISR_DMA
 10422 00dc 00000000 		.word	I2C_Slave_ISR_DMA
 10423              		.cfi_endproc
 10424              	.LFE206:
 10426              		.section	.text.I2C_Disable_IRQ,"ax",%progbits
 10427              		.align	2
 10428              		.thumb
 10429              		.thumb_func
 10431              	I2C_Disable_IRQ:
 10432              	.LFB207:
4693:../../Drivers/STM32F7xx_HAL_Driver/Src/stm32f7xx_hal_i2c.c **** 
4694:../../Drivers/STM32F7xx_HAL_Driver/Src/stm32f7xx_hal_i2c.c **** /**
4695:../../Drivers/STM32F7xx_HAL_Driver/Src/stm32f7xx_hal_i2c.c ****   * @brief  Manage the disabling of Interrupts.
4696:../../Drivers/STM32F7xx_HAL_Driver/Src/stm32f7xx_hal_i2c.c ****   * @param  hi2c: Pointer to a I2C_HandleTypeDef structure that contains
4697:../../Drivers/STM32F7xx_HAL_Driver/Src/stm32f7xx_hal_i2c.c ****   *               the configuration information for the specified I2C.
4698:../../Drivers/STM32F7xx_HAL_Driver/Src/stm32f7xx_hal_i2c.c ****   * @param  InterruptRequest: Value of @ref I2C_Interrupt_configuration_definition.
4699:../../Drivers/STM32F7xx_HAL_Driver/Src/stm32f7xx_hal_i2c.c ****   * @retval HAL status
4700:../../Drivers/STM32F7xx_HAL_Driver/Src/stm32f7xx_hal_i2c.c ****   */
4701:../../Drivers/STM32F7xx_HAL_Driver/Src/stm32f7xx_hal_i2c.c **** static HAL_StatusTypeDef I2C_Disable_IRQ(I2C_HandleTypeDef *hi2c, uint16_t InterruptRequest)
4702:../../Drivers/STM32F7xx_HAL_Driver/Src/stm32f7xx_hal_i2c.c **** {
 10433              		.loc 1 4702 0
 10434              		.cfi_startproc
 10435              		@ args = 0, pretend = 0, frame = 16
 10436              		@ frame_needed = 1, uses_anonymous_args = 0
 10437              		@ link register save eliminated.
 10438 0000 80B4     		push	{r7}
 10439              	.LCFI380:
 10440              		.cfi_def_cfa_offset 4
 10441              		.cfi_offset 7, -4
 10442 0002 85B0     		sub	sp, sp, #20
 10443              	.LCFI381:
 10444              		.cfi_def_cfa_offset 24
 10445 0004 00AF     		add	r7, sp, #0
 10446              	.LCFI382:
 10447              		.cfi_def_cfa_register 7
 10448 0006 7860     		str	r0, [r7, #4]
 10449 0008 0B46     		mov	r3, r1
 10450 000a 7B80     		strh	r3, [r7, #2]	@ movhi
4703:../../Drivers/STM32F7xx_HAL_Driver/Src/stm32f7xx_hal_i2c.c ****   uint32_t tmpisr = 0;
 10451              		.loc 1 4703 0
 10452 000c 0023     		movs	r3, #0
 10453 000e FB60     		str	r3, [r7, #12]
4704:../../Drivers/STM32F7xx_HAL_Driver/Src/stm32f7xx_hal_i2c.c ****   
4705:../../Drivers/STM32F7xx_HAL_Driver/Src/stm32f7xx_hal_i2c.c ****   if((InterruptRequest & I2C_XFER_TX_IT) == I2C_XFER_TX_IT)
 10454              		.loc 1 4705 0
 10455 0010 7B88     		ldrh	r3, [r7, #2]
 10456 0012 03F00103 		and	r3, r3, #1
 10457 0016 002B     		cmp	r3, #0
 10458 0018 0FD0     		beq	.L529
ARM GAS  /tmp/cczIhzQ0.s 			page 265


4706:../../Drivers/STM32F7xx_HAL_Driver/Src/stm32f7xx_hal_i2c.c ****   {
4707:../../Drivers/STM32F7xx_HAL_Driver/Src/stm32f7xx_hal_i2c.c ****     /* Disable TC and TXI interrupts */
4708:../../Drivers/STM32F7xx_HAL_Driver/Src/stm32f7xx_hal_i2c.c ****     tmpisr |= I2C_IT_TCI | I2C_IT_TXI;
 10459              		.loc 1 4708 0
 10460 001a FB68     		ldr	r3, [r7, #12]
 10461 001c 43F04203 		orr	r3, r3, #66
 10462 0020 FB60     		str	r3, [r7, #12]
4709:../../Drivers/STM32F7xx_HAL_Driver/Src/stm32f7xx_hal_i2c.c ****     
4710:../../Drivers/STM32F7xx_HAL_Driver/Src/stm32f7xx_hal_i2c.c ****     if((hi2c->State & HAL_I2C_STATE_LISTEN) != HAL_I2C_STATE_LISTEN)
 10463              		.loc 1 4710 0
 10464 0022 7B68     		ldr	r3, [r7, #4]
 10465 0024 93F84130 		ldrb	r3, [r3, #65]
 10466 0028 DBB2     		uxtb	r3, r3
 10467 002a 03F02803 		and	r3, r3, #40
 10468 002e 282B     		cmp	r3, #40
 10469 0030 03D0     		beq	.L529
4711:../../Drivers/STM32F7xx_HAL_Driver/Src/stm32f7xx_hal_i2c.c ****     {
4712:../../Drivers/STM32F7xx_HAL_Driver/Src/stm32f7xx_hal_i2c.c ****       /* Disable NACK and STOP interrupts */
4713:../../Drivers/STM32F7xx_HAL_Driver/Src/stm32f7xx_hal_i2c.c ****       tmpisr |= I2C_IT_STOPI | I2C_IT_NACKI | I2C_IT_ERRI;
 10470              		.loc 1 4713 0
 10471 0032 FB68     		ldr	r3, [r7, #12]
 10472 0034 43F0B003 		orr	r3, r3, #176
 10473 0038 FB60     		str	r3, [r7, #12]
 10474              	.L529:
4714:../../Drivers/STM32F7xx_HAL_Driver/Src/stm32f7xx_hal_i2c.c ****     }
4715:../../Drivers/STM32F7xx_HAL_Driver/Src/stm32f7xx_hal_i2c.c ****   }
4716:../../Drivers/STM32F7xx_HAL_Driver/Src/stm32f7xx_hal_i2c.c ****   
4717:../../Drivers/STM32F7xx_HAL_Driver/Src/stm32f7xx_hal_i2c.c ****   if((InterruptRequest & I2C_XFER_RX_IT) == I2C_XFER_RX_IT)
 10475              		.loc 1 4717 0
 10476 003a 7B88     		ldrh	r3, [r7, #2]
 10477 003c 03F00203 		and	r3, r3, #2
 10478 0040 002B     		cmp	r3, #0
 10479 0042 0FD0     		beq	.L530
4718:../../Drivers/STM32F7xx_HAL_Driver/Src/stm32f7xx_hal_i2c.c ****   {
4719:../../Drivers/STM32F7xx_HAL_Driver/Src/stm32f7xx_hal_i2c.c ****     /* Disable TC and RXI interrupts */
4720:../../Drivers/STM32F7xx_HAL_Driver/Src/stm32f7xx_hal_i2c.c ****     tmpisr |= I2C_IT_TCI | I2C_IT_RXI;
 10480              		.loc 1 4720 0
 10481 0044 FB68     		ldr	r3, [r7, #12]
 10482 0046 43F04403 		orr	r3, r3, #68
 10483 004a FB60     		str	r3, [r7, #12]
4721:../../Drivers/STM32F7xx_HAL_Driver/Src/stm32f7xx_hal_i2c.c ****     
4722:../../Drivers/STM32F7xx_HAL_Driver/Src/stm32f7xx_hal_i2c.c ****     if((hi2c->State & HAL_I2C_STATE_LISTEN) != HAL_I2C_STATE_LISTEN)
 10484              		.loc 1 4722 0
 10485 004c 7B68     		ldr	r3, [r7, #4]
 10486 004e 93F84130 		ldrb	r3, [r3, #65]
 10487 0052 DBB2     		uxtb	r3, r3
 10488 0054 03F02803 		and	r3, r3, #40
 10489 0058 282B     		cmp	r3, #40
 10490 005a 03D0     		beq	.L530
4723:../../Drivers/STM32F7xx_HAL_Driver/Src/stm32f7xx_hal_i2c.c ****     {
4724:../../Drivers/STM32F7xx_HAL_Driver/Src/stm32f7xx_hal_i2c.c ****       /* Disable NACK and STOP interrupts */
4725:../../Drivers/STM32F7xx_HAL_Driver/Src/stm32f7xx_hal_i2c.c ****       tmpisr |= I2C_IT_STOPI | I2C_IT_NACKI | I2C_IT_ERRI;
 10491              		.loc 1 4725 0
 10492 005c FB68     		ldr	r3, [r7, #12]
 10493 005e 43F0B003 		orr	r3, r3, #176
 10494 0062 FB60     		str	r3, [r7, #12]
 10495              	.L530:
ARM GAS  /tmp/cczIhzQ0.s 			page 266


4726:../../Drivers/STM32F7xx_HAL_Driver/Src/stm32f7xx_hal_i2c.c ****     }
4727:../../Drivers/STM32F7xx_HAL_Driver/Src/stm32f7xx_hal_i2c.c ****   }
4728:../../Drivers/STM32F7xx_HAL_Driver/Src/stm32f7xx_hal_i2c.c ****   
4729:../../Drivers/STM32F7xx_HAL_Driver/Src/stm32f7xx_hal_i2c.c ****   if((InterruptRequest & I2C_XFER_LISTEN_IT) == I2C_XFER_LISTEN_IT)
 10496              		.loc 1 4729 0
 10497 0064 7B88     		ldrh	r3, [r7, #2]
 10498 0066 03F00403 		and	r3, r3, #4
 10499 006a 002B     		cmp	r3, #0
 10500 006c 03D0     		beq	.L531
4730:../../Drivers/STM32F7xx_HAL_Driver/Src/stm32f7xx_hal_i2c.c ****   {
4731:../../Drivers/STM32F7xx_HAL_Driver/Src/stm32f7xx_hal_i2c.c ****     /* Disable ADDR, NACK and STOP interrupts */
4732:../../Drivers/STM32F7xx_HAL_Driver/Src/stm32f7xx_hal_i2c.c ****     tmpisr |= I2C_IT_ADDRI | I2C_IT_STOPI | I2C_IT_NACKI | I2C_IT_ERRI;
 10501              		.loc 1 4732 0
 10502 006e FB68     		ldr	r3, [r7, #12]
 10503 0070 43F0B803 		orr	r3, r3, #184
 10504 0074 FB60     		str	r3, [r7, #12]
 10505              	.L531:
4733:../../Drivers/STM32F7xx_HAL_Driver/Src/stm32f7xx_hal_i2c.c ****   }
4734:../../Drivers/STM32F7xx_HAL_Driver/Src/stm32f7xx_hal_i2c.c ****   
4735:../../Drivers/STM32F7xx_HAL_Driver/Src/stm32f7xx_hal_i2c.c ****   if((InterruptRequest & I2C_XFER_ERROR_IT) == I2C_XFER_ERROR_IT)
 10506              		.loc 1 4735 0
 10507 0076 7B88     		ldrh	r3, [r7, #2]
 10508 0078 03F01103 		and	r3, r3, #17
 10509 007c 112B     		cmp	r3, #17
 10510 007e 03D1     		bne	.L532
4736:../../Drivers/STM32F7xx_HAL_Driver/Src/stm32f7xx_hal_i2c.c ****   {
4737:../../Drivers/STM32F7xx_HAL_Driver/Src/stm32f7xx_hal_i2c.c ****     /* Enable ERR and NACK interrupts */
4738:../../Drivers/STM32F7xx_HAL_Driver/Src/stm32f7xx_hal_i2c.c ****     tmpisr |= I2C_IT_ERRI | I2C_IT_NACKI;
 10511              		.loc 1 4738 0
 10512 0080 FB68     		ldr	r3, [r7, #12]
 10513 0082 43F09003 		orr	r3, r3, #144
 10514 0086 FB60     		str	r3, [r7, #12]
 10515              	.L532:
4739:../../Drivers/STM32F7xx_HAL_Driver/Src/stm32f7xx_hal_i2c.c ****   }
4740:../../Drivers/STM32F7xx_HAL_Driver/Src/stm32f7xx_hal_i2c.c ****   
4741:../../Drivers/STM32F7xx_HAL_Driver/Src/stm32f7xx_hal_i2c.c ****   if((InterruptRequest & I2C_XFER_CPLT_IT) == I2C_XFER_CPLT_IT)
 10516              		.loc 1 4741 0
 10517 0088 7B88     		ldrh	r3, [r7, #2]
 10518 008a 03F01203 		and	r3, r3, #18
 10519 008e 122B     		cmp	r3, #18
 10520 0090 03D1     		bne	.L533
4742:../../Drivers/STM32F7xx_HAL_Driver/Src/stm32f7xx_hal_i2c.c ****   {
4743:../../Drivers/STM32F7xx_HAL_Driver/Src/stm32f7xx_hal_i2c.c ****     /* Enable STOP interrupts */
4744:../../Drivers/STM32F7xx_HAL_Driver/Src/stm32f7xx_hal_i2c.c ****     tmpisr |= I2C_IT_STOPI;
 10521              		.loc 1 4744 0
 10522 0092 FB68     		ldr	r3, [r7, #12]
 10523 0094 43F02003 		orr	r3, r3, #32
 10524 0098 FB60     		str	r3, [r7, #12]
 10525              	.L533:
4745:../../Drivers/STM32F7xx_HAL_Driver/Src/stm32f7xx_hal_i2c.c ****   }
4746:../../Drivers/STM32F7xx_HAL_Driver/Src/stm32f7xx_hal_i2c.c ****   
4747:../../Drivers/STM32F7xx_HAL_Driver/Src/stm32f7xx_hal_i2c.c ****   if((InterruptRequest & I2C_XFER_RELOAD_IT) == I2C_XFER_RELOAD_IT)
 10526              		.loc 1 4747 0
 10527 009a 7B88     		ldrh	r3, [r7, #2]
 10528 009c 03F01203 		and	r3, r3, #18
 10529 00a0 122B     		cmp	r3, #18
 10530 00a2 03D1     		bne	.L534
ARM GAS  /tmp/cczIhzQ0.s 			page 267


4748:../../Drivers/STM32F7xx_HAL_Driver/Src/stm32f7xx_hal_i2c.c ****   {
4749:../../Drivers/STM32F7xx_HAL_Driver/Src/stm32f7xx_hal_i2c.c ****     /* Enable TC interrupts */
4750:../../Drivers/STM32F7xx_HAL_Driver/Src/stm32f7xx_hal_i2c.c ****     tmpisr |= I2C_IT_TCI;
 10531              		.loc 1 4750 0
 10532 00a4 FB68     		ldr	r3, [r7, #12]
 10533 00a6 43F04003 		orr	r3, r3, #64
 10534 00aa FB60     		str	r3, [r7, #12]
 10535              	.L534:
4751:../../Drivers/STM32F7xx_HAL_Driver/Src/stm32f7xx_hal_i2c.c ****   }
4752:../../Drivers/STM32F7xx_HAL_Driver/Src/stm32f7xx_hal_i2c.c ****   
4753:../../Drivers/STM32F7xx_HAL_Driver/Src/stm32f7xx_hal_i2c.c ****   /* Disable interrupts only at the end */
4754:../../Drivers/STM32F7xx_HAL_Driver/Src/stm32f7xx_hal_i2c.c ****   /* to avoid a breaking situation like at "t" time */
4755:../../Drivers/STM32F7xx_HAL_Driver/Src/stm32f7xx_hal_i2c.c ****   /* all disable interrupts request are not done */
4756:../../Drivers/STM32F7xx_HAL_Driver/Src/stm32f7xx_hal_i2c.c ****   __HAL_I2C_DISABLE_IT(hi2c, tmpisr);
 10536              		.loc 1 4756 0
 10537 00ac 7B68     		ldr	r3, [r7, #4]
 10538 00ae 1B68     		ldr	r3, [r3]
 10539 00b0 7A68     		ldr	r2, [r7, #4]
 10540 00b2 1268     		ldr	r2, [r2]
 10541 00b4 1168     		ldr	r1, [r2]
 10542 00b6 FA68     		ldr	r2, [r7, #12]
 10543 00b8 D243     		mvns	r2, r2
 10544 00ba 0A40     		ands	r2, r2, r1
 10545 00bc 1A60     		str	r2, [r3]
4757:../../Drivers/STM32F7xx_HAL_Driver/Src/stm32f7xx_hal_i2c.c ****   
4758:../../Drivers/STM32F7xx_HAL_Driver/Src/stm32f7xx_hal_i2c.c ****   return HAL_OK;
 10546              		.loc 1 4758 0
 10547 00be 0023     		movs	r3, #0
4759:../../Drivers/STM32F7xx_HAL_Driver/Src/stm32f7xx_hal_i2c.c **** }
 10548              		.loc 1 4759 0
 10549 00c0 1846     		mov	r0, r3
 10550 00c2 1437     		adds	r7, r7, #20
 10551              	.LCFI383:
 10552              		.cfi_def_cfa_offset 4
 10553 00c4 BD46     		mov	sp, r7
 10554              	.LCFI384:
 10555              		.cfi_def_cfa_register 13
 10556              		@ sp needed
 10557 00c6 5DF8047B 		ldr	r7, [sp], #4
 10558              	.LCFI385:
 10559              		.cfi_restore 7
 10560              		.cfi_def_cfa_offset 0
 10561 00ca 7047     		bx	lr
 10562              		.cfi_endproc
 10563              	.LFE207:
 10565              		.text
 10566              	.Letext0:
 10567              		.file 2 "/usr/arm-none-eabi/include/machine/_default_types.h"
 10568              		.file 3 "/usr/arm-none-eabi/include/sys/_stdint.h"
 10569              		.file 4 "../../Drivers/CMSIS/Device/ST/STM32F7xx/Include/stm32f769xx.h"
 10570              		.file 5 "../../Drivers/CMSIS/Device/ST/STM32F7xx/Include/stm32f7xx.h"
 10571              		.file 6 "../../Drivers/STM32F7xx_HAL_Driver/Inc/stm32f7xx_hal_def.h"
 10572              		.file 7 "../../Drivers/STM32F7xx_HAL_Driver/Inc/stm32f7xx_hal_dma.h"
 10573              		.file 8 "../../Drivers/STM32F7xx_HAL_Driver/Inc/stm32f7xx_hal_i2c.h"
 10574              		.file 9 "../../Drivers/CMSIS/Include/core_cm7.h"
ARM GAS  /tmp/cczIhzQ0.s 			page 268


DEFINED SYMBOLS
                            *ABS*:0000000000000000 stm32f7xx_hal_i2c.c
     /tmp/cczIhzQ0.s:21     .text.HAL_I2C_Init:0000000000000000 $t
     /tmp/cczIhzQ0.s:26     .text.HAL_I2C_Init:0000000000000000 HAL_I2C_Init
     /tmp/cczIhzQ0.s:299    .text.HAL_I2C_MspInit:0000000000000000 HAL_I2C_MspInit
     /tmp/cczIhzQ0.s:206    .text.HAL_I2C_Init:0000000000000118 $d
     /tmp/cczIhzQ0.s:211    .text.HAL_I2C_DeInit:0000000000000000 $t
     /tmp/cczIhzQ0.s:216    .text.HAL_I2C_DeInit:0000000000000000 HAL_I2C_DeInit
     /tmp/cczIhzQ0.s:339    .text.HAL_I2C_MspDeInit:0000000000000000 HAL_I2C_MspDeInit
     /tmp/cczIhzQ0.s:294    .text.HAL_I2C_MspInit:0000000000000000 $t
     /tmp/cczIhzQ0.s:334    .text.HAL_I2C_MspDeInit:0000000000000000 $t
     /tmp/cczIhzQ0.s:374    .text.HAL_I2C_Master_Transmit:0000000000000000 $t
     /tmp/cczIhzQ0.s:379    .text.HAL_I2C_Master_Transmit:0000000000000000 HAL_I2C_Master_Transmit
     /tmp/cczIhzQ0.s:9621   .text.I2C_WaitOnFlagUntilTimeout:0000000000000000 I2C_WaitOnFlagUntilTimeout
     /tmp/cczIhzQ0.s:10192  .text.I2C_TransferConfig:0000000000000000 I2C_TransferConfig
     /tmp/cczIhzQ0.s:9716   .text.I2C_WaitOnTXISFlagUntilTimeout:0000000000000000 I2C_WaitOnTXISFlagUntilTimeout
     /tmp/cczIhzQ0.s:9818   .text.I2C_WaitOnSTOPFlagUntilTimeout:0000000000000000 I2C_WaitOnSTOPFlagUntilTimeout
     /tmp/cczIhzQ0.s:692    .text.HAL_I2C_Master_Transmit:00000000000001fc $d
     /tmp/cczIhzQ0.s:697    .text.HAL_I2C_Master_Receive:0000000000000000 $t
     /tmp/cczIhzQ0.s:702    .text.HAL_I2C_Master_Receive:0000000000000000 HAL_I2C_Master_Receive
     /tmp/cczIhzQ0.s:9916   .text.I2C_WaitOnRXNEFlagUntilTimeout:0000000000000000 I2C_WaitOnRXNEFlagUntilTimeout
     /tmp/cczIhzQ0.s:1016   .text.HAL_I2C_Master_Receive:00000000000001fc $d
     /tmp/cczIhzQ0.s:1021   .text.HAL_I2C_Slave_Transmit:0000000000000000 $t
     /tmp/cczIhzQ0.s:1026   .text.HAL_I2C_Slave_Transmit:0000000000000000 HAL_I2C_Slave_Transmit
     /tmp/cczIhzQ0.s:1360   .text.HAL_I2C_Slave_Receive:0000000000000000 $t
     /tmp/cczIhzQ0.s:1365   .text.HAL_I2C_Slave_Receive:0000000000000000 HAL_I2C_Slave_Receive
     /tmp/cczIhzQ0.s:1691   .text.HAL_I2C_Master_Transmit_IT:0000000000000000 $t
     /tmp/cczIhzQ0.s:1696   .text.HAL_I2C_Master_Transmit_IT:0000000000000000 HAL_I2C_Master_Transmit_IT
     /tmp/cczIhzQ0.s:10272  .text.I2C_Enable_IRQ:0000000000000000 I2C_Enable_IRQ
     /tmp/cczIhzQ0.s:1844   .text.HAL_I2C_Master_Transmit_IT:00000000000000d8 $d
     /tmp/cczIhzQ0.s:6648   .text.I2C_Master_ISR_IT:0000000000000000 I2C_Master_ISR_IT
     /tmp/cczIhzQ0.s:1850   .text.HAL_I2C_Master_Receive_IT:0000000000000000 $t
     /tmp/cczIhzQ0.s:1855   .text.HAL_I2C_Master_Receive_IT:0000000000000000 HAL_I2C_Master_Receive_IT
     /tmp/cczIhzQ0.s:2003   .text.HAL_I2C_Master_Receive_IT:00000000000000d8 $d
     /tmp/cczIhzQ0.s:2009   .text.HAL_I2C_Slave_Transmit_IT:0000000000000000 $t
     /tmp/cczIhzQ0.s:2014   .text.HAL_I2C_Slave_Transmit_IT:0000000000000000 HAL_I2C_Slave_Transmit_IT
     /tmp/cczIhzQ0.s:2124   .text.HAL_I2C_Slave_Transmit_IT:0000000000000098 $d
     /tmp/cczIhzQ0.s:6983   .text.I2C_Slave_ISR_IT:0000000000000000 I2C_Slave_ISR_IT
     /tmp/cczIhzQ0.s:2130   .text.HAL_I2C_Slave_Receive_IT:0000000000000000 $t
     /tmp/cczIhzQ0.s:2135   .text.HAL_I2C_Slave_Receive_IT:0000000000000000 HAL_I2C_Slave_Receive_IT
     /tmp/cczIhzQ0.s:2245   .text.HAL_I2C_Slave_Receive_IT:0000000000000098 $d
     /tmp/cczIhzQ0.s:2251   .text.HAL_I2C_Master_Transmit_DMA:0000000000000000 $t
     /tmp/cczIhzQ0.s:2256   .text.HAL_I2C_Master_Transmit_DMA:0000000000000000 HAL_I2C_Master_Transmit_DMA
     /tmp/cczIhzQ0.s:2457   .text.HAL_I2C_Master_Transmit_DMA:0000000000000138 $d
     /tmp/cczIhzQ0.s:7283   .text.I2C_Master_ISR_DMA:0000000000000000 I2C_Master_ISR_DMA
     /tmp/cczIhzQ0.s:9201   .text.I2C_DMAMasterTransmitCplt:0000000000000000 I2C_DMAMasterTransmitCplt
     /tmp/cczIhzQ0.s:9493   .text.I2C_DMAError:0000000000000000 I2C_DMAError
     /tmp/cczIhzQ0.s:2465   .text.HAL_I2C_Master_Receive_DMA:0000000000000000 $t
     /tmp/cczIhzQ0.s:2470   .text.HAL_I2C_Master_Receive_DMA:0000000000000000 HAL_I2C_Master_Receive_DMA
     /tmp/cczIhzQ0.s:2690   .text.HAL_I2C_Master_Receive_DMA:0000000000000158 $d
     /tmp/cczIhzQ0.s:9347   .text.I2C_DMAMasterReceiveCplt:0000000000000000 I2C_DMAMasterReceiveCplt
     /tmp/cczIhzQ0.s:2698   .text.HAL_I2C_Slave_Transmit_DMA:0000000000000000 $t
     /tmp/cczIhzQ0.s:2703   .text.HAL_I2C_Slave_Transmit_DMA:0000000000000000 HAL_I2C_Slave_Transmit_DMA
     /tmp/cczIhzQ0.s:2869   .text.HAL_I2C_Slave_Transmit_DMA:00000000000000f4 $d
     /tmp/cczIhzQ0.s:7503   .text.I2C_Slave_ISR_DMA:0000000000000000 I2C_Slave_ISR_DMA
     /tmp/cczIhzQ0.s:9308   .text.I2C_DMASlaveTransmitCplt:0000000000000000 I2C_DMASlaveTransmitCplt
     /tmp/cczIhzQ0.s:2877   .text.HAL_I2C_Slave_Receive_DMA:0000000000000000 $t
ARM GAS  /tmp/cczIhzQ0.s 			page 269


     /tmp/cczIhzQ0.s:2882   .text.HAL_I2C_Slave_Receive_DMA:0000000000000000 HAL_I2C_Slave_Receive_DMA
     /tmp/cczIhzQ0.s:3047   .text.HAL_I2C_Slave_Receive_DMA:00000000000000f0 $d
     /tmp/cczIhzQ0.s:9454   .text.I2C_DMASlaveReceiveCplt:0000000000000000 I2C_DMASlaveReceiveCplt
     /tmp/cczIhzQ0.s:3055   .text.HAL_I2C_Mem_Write:0000000000000000 $t
     /tmp/cczIhzQ0.s:3060   .text.HAL_I2C_Mem_Write:0000000000000000 HAL_I2C_Mem_Write
     /tmp/cczIhzQ0.s:7657   .text.I2C_RequestMemoryWrite:0000000000000000 I2C_RequestMemoryWrite
     /tmp/cczIhzQ0.s:3423   .text.HAL_I2C_Mem_Write:0000000000000248 $d
     /tmp/cczIhzQ0.s:3428   .text.HAL_I2C_Mem_Read:0000000000000000 $t
     /tmp/cczIhzQ0.s:3433   .text.HAL_I2C_Mem_Read:0000000000000000 HAL_I2C_Mem_Read
     /tmp/cczIhzQ0.s:7798   .text.I2C_RequestMemoryRead:0000000000000000 I2C_RequestMemoryRead
     /tmp/cczIhzQ0.s:3791   .text.HAL_I2C_Mem_Read:0000000000000248 $d
     /tmp/cczIhzQ0.s:3796   .text.HAL_I2C_Mem_Write_IT:0000000000000000 $t
     /tmp/cczIhzQ0.s:3801   .text.HAL_I2C_Mem_Write_IT:0000000000000000 HAL_I2C_Mem_Write_IT
     /tmp/cczIhzQ0.s:4007   .text.HAL_I2C_Mem_Write_IT:0000000000000130 $d
     /tmp/cczIhzQ0.s:4013   .text.HAL_I2C_Mem_Read_IT:0000000000000000 $t
     /tmp/cczIhzQ0.s:4018   .text.HAL_I2C_Mem_Read_IT:0000000000000000 HAL_I2C_Mem_Read_IT
     /tmp/cczIhzQ0.s:4224   .text.HAL_I2C_Mem_Read_IT:0000000000000134 $d
     /tmp/cczIhzQ0.s:4230   .text.HAL_I2C_Mem_Write_DMA:0000000000000000 $t
     /tmp/cczIhzQ0.s:4235   .text.HAL_I2C_Mem_Write_DMA:0000000000000000 HAL_I2C_Mem_Write_DMA
     /tmp/cczIhzQ0.s:4493   .text.HAL_I2C_Mem_Write_DMA:0000000000000190 $d
     /tmp/cczIhzQ0.s:4501   .text.HAL_I2C_Mem_Read_DMA:0000000000000000 $t
     /tmp/cczIhzQ0.s:4506   .text.HAL_I2C_Mem_Read_DMA:0000000000000000 HAL_I2C_Mem_Read_DMA
     /tmp/cczIhzQ0.s:4763   .text.HAL_I2C_Mem_Read_DMA:0000000000000190 $d
     /tmp/cczIhzQ0.s:4771   .text.HAL_I2C_IsDeviceReady:0000000000000000 $t
     /tmp/cczIhzQ0.s:4776   .text.HAL_I2C_IsDeviceReady:0000000000000000 HAL_I2C_IsDeviceReady
     /tmp/cczIhzQ0.s:5053   .text.HAL_I2C_IsDeviceReady:00000000000001b8 $d
     /tmp/cczIhzQ0.s:5058   .text.HAL_I2C_Master_Sequential_Transmit_IT:0000000000000000 $t
     /tmp/cczIhzQ0.s:5063   .text.HAL_I2C_Master_Sequential_Transmit_IT:0000000000000000 HAL_I2C_Master_Sequential_Transmit_IT
     /tmp/cczIhzQ0.s:5213   .text.HAL_I2C_Master_Sequential_Transmit_IT:00000000000000d4 $d
     /tmp/cczIhzQ0.s:5218   .text.HAL_I2C_Master_Sequential_Receive_IT:0000000000000000 $t
     /tmp/cczIhzQ0.s:5223   .text.HAL_I2C_Master_Sequential_Receive_IT:0000000000000000 HAL_I2C_Master_Sequential_Receive_IT
     /tmp/cczIhzQ0.s:5373   .text.HAL_I2C_Master_Sequential_Receive_IT:00000000000000d4 $d
     /tmp/cczIhzQ0.s:5378   .text.HAL_I2C_Slave_Sequential_Transmit_IT:0000000000000000 $t
     /tmp/cczIhzQ0.s:5383   .text.HAL_I2C_Slave_Sequential_Transmit_IT:0000000000000000 HAL_I2C_Slave_Sequential_Transmit_IT
     /tmp/cczIhzQ0.s:10431  .text.I2C_Disable_IRQ:0000000000000000 I2C_Disable_IRQ
     /tmp/cczIhzQ0.s:5525   .text.HAL_I2C_Slave_Sequential_Transmit_IT:00000000000000c8 $d
     /tmp/cczIhzQ0.s:5530   .text.HAL_I2C_Slave_Sequential_Receive_IT:0000000000000000 $t
     /tmp/cczIhzQ0.s:5535   .text.HAL_I2C_Slave_Sequential_Receive_IT:0000000000000000 HAL_I2C_Slave_Sequential_Receive_IT
     /tmp/cczIhzQ0.s:5677   .text.HAL_I2C_Slave_Sequential_Receive_IT:00000000000000c8 $d
     /tmp/cczIhzQ0.s:5682   .text.HAL_I2C_EnableListen_IT:0000000000000000 $t
     /tmp/cczIhzQ0.s:5687   .text.HAL_I2C_EnableListen_IT:0000000000000000 HAL_I2C_EnableListen_IT
     /tmp/cczIhzQ0.s:5743   .text.HAL_I2C_EnableListen_IT:0000000000000038 $d
     /tmp/cczIhzQ0.s:5748   .text.HAL_I2C_DisableListen_IT:0000000000000000 $t
     /tmp/cczIhzQ0.s:5753   .text.HAL_I2C_DisableListen_IT:0000000000000000 HAL_I2C_DisableListen_IT
     /tmp/cczIhzQ0.s:5829   .text.HAL_I2C_Master_Abort_IT:0000000000000000 $t
     /tmp/cczIhzQ0.s:5834   .text.HAL_I2C_Master_Abort_IT:0000000000000000 HAL_I2C_Master_Abort_IT
     /tmp/cczIhzQ0.s:5922   .text.HAL_I2C_EV_IRQHandler:0000000000000000 $t
     /tmp/cczIhzQ0.s:5927   .text.HAL_I2C_EV_IRQHandler:0000000000000000 HAL_I2C_EV_IRQHandler
     /tmp/cczIhzQ0.s:5981   .text.HAL_I2C_ER_IRQHandler:0000000000000000 $t
     /tmp/cczIhzQ0.s:5986   .text.HAL_I2C_ER_IRQHandler:0000000000000000 HAL_I2C_ER_IRQHandler
     /tmp/cczIhzQ0.s:8904   .text.I2C_ITError:0000000000000000 I2C_ITError
     /tmp/cczIhzQ0.s:6106   .text.HAL_I2C_MasterTxCpltCallback:0000000000000000 $t
     /tmp/cczIhzQ0.s:6111   .text.HAL_I2C_MasterTxCpltCallback:0000000000000000 HAL_I2C_MasterTxCpltCallback
     /tmp/cczIhzQ0.s:6146   .text.HAL_I2C_MasterRxCpltCallback:0000000000000000 $t
     /tmp/cczIhzQ0.s:6151   .text.HAL_I2C_MasterRxCpltCallback:0000000000000000 HAL_I2C_MasterRxCpltCallback
     /tmp/cczIhzQ0.s:6186   .text.HAL_I2C_SlaveTxCpltCallback:0000000000000000 $t
     /tmp/cczIhzQ0.s:6191   .text.HAL_I2C_SlaveTxCpltCallback:0000000000000000 HAL_I2C_SlaveTxCpltCallback
ARM GAS  /tmp/cczIhzQ0.s 			page 270


     /tmp/cczIhzQ0.s:6226   .text.HAL_I2C_SlaveRxCpltCallback:0000000000000000 $t
     /tmp/cczIhzQ0.s:6231   .text.HAL_I2C_SlaveRxCpltCallback:0000000000000000 HAL_I2C_SlaveRxCpltCallback
     /tmp/cczIhzQ0.s:6266   .text.HAL_I2C_AddrCallback:0000000000000000 $t
     /tmp/cczIhzQ0.s:6271   .text.HAL_I2C_AddrCallback:0000000000000000 HAL_I2C_AddrCallback
     /tmp/cczIhzQ0.s:6310   .text.HAL_I2C_ListenCpltCallback:0000000000000000 $t
     /tmp/cczIhzQ0.s:6315   .text.HAL_I2C_ListenCpltCallback:0000000000000000 HAL_I2C_ListenCpltCallback
     /tmp/cczIhzQ0.s:6350   .text.HAL_I2C_MemTxCpltCallback:0000000000000000 $t
     /tmp/cczIhzQ0.s:6355   .text.HAL_I2C_MemTxCpltCallback:0000000000000000 HAL_I2C_MemTxCpltCallback
     /tmp/cczIhzQ0.s:6390   .text.HAL_I2C_MemRxCpltCallback:0000000000000000 $t
     /tmp/cczIhzQ0.s:6395   .text.HAL_I2C_MemRxCpltCallback:0000000000000000 HAL_I2C_MemRxCpltCallback
     /tmp/cczIhzQ0.s:6430   .text.HAL_I2C_ErrorCallback:0000000000000000 $t
     /tmp/cczIhzQ0.s:6435   .text.HAL_I2C_ErrorCallback:0000000000000000 HAL_I2C_ErrorCallback
     /tmp/cczIhzQ0.s:6470   .text.HAL_I2C_AbortCpltCallback:0000000000000000 $t
     /tmp/cczIhzQ0.s:6475   .text.HAL_I2C_AbortCpltCallback:0000000000000000 HAL_I2C_AbortCpltCallback
     /tmp/cczIhzQ0.s:6510   .text.HAL_I2C_GetState:0000000000000000 $t
     /tmp/cczIhzQ0.s:6515   .text.HAL_I2C_GetState:0000000000000000 HAL_I2C_GetState
     /tmp/cczIhzQ0.s:6555   .text.HAL_I2C_GetMode:0000000000000000 $t
     /tmp/cczIhzQ0.s:6560   .text.HAL_I2C_GetMode:0000000000000000 HAL_I2C_GetMode
     /tmp/cczIhzQ0.s:6600   .text.HAL_I2C_GetError:0000000000000000 $t
     /tmp/cczIhzQ0.s:6605   .text.HAL_I2C_GetError:0000000000000000 HAL_I2C_GetError
     /tmp/cczIhzQ0.s:6644   .text.I2C_Master_ISR_IT:0000000000000000 $t
     /tmp/cczIhzQ0.s:9133   .text.I2C_Flush_TXDR:0000000000000000 I2C_Flush_TXDR
     /tmp/cczIhzQ0.s:8119   .text.I2C_ITMasterSequentialCplt:0000000000000000 I2C_ITMasterSequentialCplt
     /tmp/cczIhzQ0.s:8305   .text.I2C_ITMasterCplt:0000000000000000 I2C_ITMasterCplt
     /tmp/cczIhzQ0.s:6979   .text.I2C_Slave_ISR_IT:0000000000000000 $t
     /tmp/cczIhzQ0.s:8785   .text.I2C_ITListenCplt:0000000000000000 I2C_ITListenCplt
     /tmp/cczIhzQ0.s:8213   .text.I2C_ITSlaveSequentialCplt:0000000000000000 I2C_ITSlaveSequentialCplt
     /tmp/cczIhzQ0.s:7939   .text.I2C_ITAddrCplt:0000000000000000 I2C_ITAddrCplt
     /tmp/cczIhzQ0.s:8492   .text.I2C_ITSlaveCplt:0000000000000000 I2C_ITSlaveCplt
     /tmp/cczIhzQ0.s:7279   .text.I2C_Master_ISR_DMA:0000000000000000 $t
     /tmp/cczIhzQ0.s:7499   .text.I2C_Slave_ISR_DMA:0000000000000000 $t
     /tmp/cczIhzQ0.s:7653   .text.I2C_RequestMemoryWrite:0000000000000000 $t
     /tmp/cczIhzQ0.s:7794   .text.I2C_RequestMemoryRead:0000000000000000 $t
     /tmp/cczIhzQ0.s:7935   .text.I2C_ITAddrCplt:0000000000000000 $t
     /tmp/cczIhzQ0.s:8115   .text.I2C_ITMasterSequentialCplt:0000000000000000 $t
     /tmp/cczIhzQ0.s:8209   .text.I2C_ITSlaveSequentialCplt:0000000000000000 $t
     /tmp/cczIhzQ0.s:8301   .text.I2C_ITMasterCplt:0000000000000000 $t
     /tmp/cczIhzQ0.s:8482   .text.I2C_ITMasterCplt:000000000000011c $d
     /tmp/cczIhzQ0.s:8488   .text.I2C_ITSlaveCplt:0000000000000000 $t
     /tmp/cczIhzQ0.s:8775   .text.I2C_ITSlaveCplt:00000000000001cc $d
     /tmp/cczIhzQ0.s:8781   .text.I2C_ITListenCplt:0000000000000000 $t
     /tmp/cczIhzQ0.s:8895   .text.I2C_ITListenCplt:000000000000009c $d
     /tmp/cczIhzQ0.s:8900   .text.I2C_ITError:0000000000000000 $t
     /tmp/cczIhzQ0.s:9122   .text.I2C_ITError:000000000000015c $d
     /tmp/cczIhzQ0.s:9544   .text.I2C_DMAAbort:0000000000000000 I2C_DMAAbort
     /tmp/cczIhzQ0.s:9129   .text.I2C_Flush_TXDR:0000000000000000 $t
     /tmp/cczIhzQ0.s:9197   .text.I2C_DMAMasterTransmitCplt:0000000000000000 $t
     /tmp/cczIhzQ0.s:9304   .text.I2C_DMASlaveTransmitCplt:0000000000000000 $t
     /tmp/cczIhzQ0.s:9343   .text.I2C_DMAMasterReceiveCplt:0000000000000000 $t
     /tmp/cczIhzQ0.s:9450   .text.I2C_DMASlaveReceiveCplt:0000000000000000 $t
     /tmp/cczIhzQ0.s:9489   .text.I2C_DMAError:0000000000000000 $t
     /tmp/cczIhzQ0.s:9540   .text.I2C_DMAAbort:0000000000000000 $t
     /tmp/cczIhzQ0.s:9617   .text.I2C_WaitOnFlagUntilTimeout:0000000000000000 $t
     /tmp/cczIhzQ0.s:9712   .text.I2C_WaitOnTXISFlagUntilTimeout:0000000000000000 $t
     /tmp/cczIhzQ0.s:10055  .text.I2C_IsAcknowledgeFailed:0000000000000000 I2C_IsAcknowledgeFailed
     /tmp/cczIhzQ0.s:9814   .text.I2C_WaitOnSTOPFlagUntilTimeout:0000000000000000 $t
     /tmp/cczIhzQ0.s:9912   .text.I2C_WaitOnRXNEFlagUntilTimeout:0000000000000000 $t
ARM GAS  /tmp/cczIhzQ0.s 			page 271


     /tmp/cczIhzQ0.s:10046  .text.I2C_WaitOnRXNEFlagUntilTimeout:00000000000000b8 $d
     /tmp/cczIhzQ0.s:10051  .text.I2C_IsAcknowledgeFailed:0000000000000000 $t
     /tmp/cczIhzQ0.s:10183  .text.I2C_IsAcknowledgeFailed:00000000000000b8 $d
     /tmp/cczIhzQ0.s:10188  .text.I2C_TransferConfig:0000000000000000 $t
     /tmp/cczIhzQ0.s:10263  .text.I2C_TransferConfig:0000000000000058 $d
     /tmp/cczIhzQ0.s:10268  .text.I2C_Enable_IRQ:0000000000000000 $t
     /tmp/cczIhzQ0.s:10421  .text.I2C_Enable_IRQ:00000000000000d8 $d
     /tmp/cczIhzQ0.s:10427  .text.I2C_Disable_IRQ:0000000000000000 $t
                     .debug_frame:0000000000000010 $d

UNDEFINED SYMBOLS
HAL_GetTick
HAL_DMA_Start_IT
HAL_DMA_Abort_IT
