ARM GAS  /tmp/ccKfhE3W.s 			page 1


   1              		.syntax unified
   2              		.cpu cortex-m7
   3              		.eabi_attribute 27, 1
   4              		.eabi_attribute 28, 1
   5              		.fpu fpv5-sp-d16
   6              		.eabi_attribute 20, 1
   7              		.eabi_attribute 21, 1
   8              		.eabi_attribute 23, 3
   9              		.eabi_attribute 24, 1
  10              		.eabi_attribute 25, 1
  11              		.eabi_attribute 26, 1
  12              		.eabi_attribute 30, 6
  13              		.eabi_attribute 34, 1
  14              		.eabi_attribute 18, 4
  15              		.thumb
  16              		.file	"stm32f7xx_hal.c"
  17              		.text
  18              	.Ltext0:
  19              		.cfi_sections	.debug_frame
  20              		.comm	uwTick,4,4
  21              		.section	.text.HAL_Init,"ax",%progbits
  22              		.align	2
  23              		.global	HAL_Init
  24              		.thumb
  25              		.thumb_func
  27              	HAL_Init:
  28              	.LFB135:
  29              		.file 1 "../../Drivers/STM32F7xx_HAL_Driver/Src/stm32f7xx_hal.c"
   1:../../Drivers/STM32F7xx_HAL_Driver/Src/stm32f7xx_hal.c **** /**
   2:../../Drivers/STM32F7xx_HAL_Driver/Src/stm32f7xx_hal.c ****   ******************************************************************************
   3:../../Drivers/STM32F7xx_HAL_Driver/Src/stm32f7xx_hal.c ****   * @file    stm32f7xx_hal.c
   4:../../Drivers/STM32F7xx_HAL_Driver/Src/stm32f7xx_hal.c ****   * @author  MCD Application Team
   5:../../Drivers/STM32F7xx_HAL_Driver/Src/stm32f7xx_hal.c ****   * @version V1.1.2
   6:../../Drivers/STM32F7xx_HAL_Driver/Src/stm32f7xx_hal.c ****   * @date    23-September-2016 
   7:../../Drivers/STM32F7xx_HAL_Driver/Src/stm32f7xx_hal.c ****   * @brief   HAL module driver.
   8:../../Drivers/STM32F7xx_HAL_Driver/Src/stm32f7xx_hal.c ****   *          This is the common part of the HAL initialization
   9:../../Drivers/STM32F7xx_HAL_Driver/Src/stm32f7xx_hal.c ****   *
  10:../../Drivers/STM32F7xx_HAL_Driver/Src/stm32f7xx_hal.c ****   @verbatim
  11:../../Drivers/STM32F7xx_HAL_Driver/Src/stm32f7xx_hal.c ****   ==============================================================================
  12:../../Drivers/STM32F7xx_HAL_Driver/Src/stm32f7xx_hal.c ****                      ##### How to use this driver #####
  13:../../Drivers/STM32F7xx_HAL_Driver/Src/stm32f7xx_hal.c ****   ==============================================================================
  14:../../Drivers/STM32F7xx_HAL_Driver/Src/stm32f7xx_hal.c ****     [..]
  15:../../Drivers/STM32F7xx_HAL_Driver/Src/stm32f7xx_hal.c ****     The common HAL driver contains a set of generic and common APIs that can be
  16:../../Drivers/STM32F7xx_HAL_Driver/Src/stm32f7xx_hal.c ****     used by the PPP peripheral drivers and the user to start using the HAL. 
  17:../../Drivers/STM32F7xx_HAL_Driver/Src/stm32f7xx_hal.c ****     [..]
  18:../../Drivers/STM32F7xx_HAL_Driver/Src/stm32f7xx_hal.c ****     The HAL contains two APIs' categories: 
  19:../../Drivers/STM32F7xx_HAL_Driver/Src/stm32f7xx_hal.c ****          (+) Common HAL APIs
  20:../../Drivers/STM32F7xx_HAL_Driver/Src/stm32f7xx_hal.c ****          (+) Services HAL APIs
  21:../../Drivers/STM32F7xx_HAL_Driver/Src/stm32f7xx_hal.c **** 
  22:../../Drivers/STM32F7xx_HAL_Driver/Src/stm32f7xx_hal.c ****   @endverbatim
  23:../../Drivers/STM32F7xx_HAL_Driver/Src/stm32f7xx_hal.c ****   ******************************************************************************
  24:../../Drivers/STM32F7xx_HAL_Driver/Src/stm32f7xx_hal.c ****   * @attention
  25:../../Drivers/STM32F7xx_HAL_Driver/Src/stm32f7xx_hal.c ****   *
  26:../../Drivers/STM32F7xx_HAL_Driver/Src/stm32f7xx_hal.c ****   * <h2><center>&copy; COPYRIGHT(c) 2016 STMicroelectronics</center></h2>
  27:../../Drivers/STM32F7xx_HAL_Driver/Src/stm32f7xx_hal.c ****   *
  28:../../Drivers/STM32F7xx_HAL_Driver/Src/stm32f7xx_hal.c ****   * Redistribution and use in source and binary forms, with or without modification,
  29:../../Drivers/STM32F7xx_HAL_Driver/Src/stm32f7xx_hal.c ****   * are permitted provided that the following conditions are met:
ARM GAS  /tmp/ccKfhE3W.s 			page 2


  30:../../Drivers/STM32F7xx_HAL_Driver/Src/stm32f7xx_hal.c ****   *   1. Redistributions of source code must retain the above copyright notice,
  31:../../Drivers/STM32F7xx_HAL_Driver/Src/stm32f7xx_hal.c ****   *      this list of conditions and the following disclaimer.
  32:../../Drivers/STM32F7xx_HAL_Driver/Src/stm32f7xx_hal.c ****   *   2. Redistributions in binary form must reproduce the above copyright notice,
  33:../../Drivers/STM32F7xx_HAL_Driver/Src/stm32f7xx_hal.c ****   *      this list of conditions and the following disclaimer in the documentation
  34:../../Drivers/STM32F7xx_HAL_Driver/Src/stm32f7xx_hal.c ****   *      and/or other materials provided with the distribution.
  35:../../Drivers/STM32F7xx_HAL_Driver/Src/stm32f7xx_hal.c ****   *   3. Neither the name of STMicroelectronics nor the names of its contributors
  36:../../Drivers/STM32F7xx_HAL_Driver/Src/stm32f7xx_hal.c ****   *      may be used to endorse or promote products derived from this software
  37:../../Drivers/STM32F7xx_HAL_Driver/Src/stm32f7xx_hal.c ****   *      without specific prior written permission.
  38:../../Drivers/STM32F7xx_HAL_Driver/Src/stm32f7xx_hal.c ****   *
  39:../../Drivers/STM32F7xx_HAL_Driver/Src/stm32f7xx_hal.c ****   * THIS SOFTWARE IS PROVIDED BY THE COPYRIGHT HOLDERS AND CONTRIBUTORS "AS IS"
  40:../../Drivers/STM32F7xx_HAL_Driver/Src/stm32f7xx_hal.c ****   * AND ANY EXPRESS OR IMPLIED WARRANTIES, INCLUDING, BUT NOT LIMITED TO, THE
  41:../../Drivers/STM32F7xx_HAL_Driver/Src/stm32f7xx_hal.c ****   * IMPLIED WARRANTIES OF MERCHANTABILITY AND FITNESS FOR A PARTICULAR PURPOSE ARE
  42:../../Drivers/STM32F7xx_HAL_Driver/Src/stm32f7xx_hal.c ****   * DISCLAIMED. IN NO EVENT SHALL THE COPYRIGHT HOLDER OR CONTRIBUTORS BE LIABLE
  43:../../Drivers/STM32F7xx_HAL_Driver/Src/stm32f7xx_hal.c ****   * FOR ANY DIRECT, INDIRECT, INCIDENTAL, SPECIAL, EXEMPLARY, OR CONSEQUENTIAL
  44:../../Drivers/STM32F7xx_HAL_Driver/Src/stm32f7xx_hal.c ****   * DAMAGES (INCLUDING, BUT NOT LIMITED TO, PROCUREMENT OF SUBSTITUTE GOODS OR
  45:../../Drivers/STM32F7xx_HAL_Driver/Src/stm32f7xx_hal.c ****   * SERVICES; LOSS OF USE, DATA, OR PROFITS; OR BUSINESS INTERRUPTION) HOWEVER
  46:../../Drivers/STM32F7xx_HAL_Driver/Src/stm32f7xx_hal.c ****   * CAUSED AND ON ANY THEORY OF LIABILITY, WHETHER IN CONTRACT, STRICT LIABILITY,
  47:../../Drivers/STM32F7xx_HAL_Driver/Src/stm32f7xx_hal.c ****   * OR TORT (INCLUDING NEGLIGENCE OR OTHERWISE) ARISING IN ANY WAY OUT OF THE USE
  48:../../Drivers/STM32F7xx_HAL_Driver/Src/stm32f7xx_hal.c ****   * OF THIS SOFTWARE, EVEN IF ADVISED OF THE POSSIBILITY OF SUCH DAMAGE.
  49:../../Drivers/STM32F7xx_HAL_Driver/Src/stm32f7xx_hal.c ****   *
  50:../../Drivers/STM32F7xx_HAL_Driver/Src/stm32f7xx_hal.c ****   ******************************************************************************
  51:../../Drivers/STM32F7xx_HAL_Driver/Src/stm32f7xx_hal.c ****   */ 
  52:../../Drivers/STM32F7xx_HAL_Driver/Src/stm32f7xx_hal.c **** 
  53:../../Drivers/STM32F7xx_HAL_Driver/Src/stm32f7xx_hal.c **** /* Includes ------------------------------------------------------------------*/
  54:../../Drivers/STM32F7xx_HAL_Driver/Src/stm32f7xx_hal.c **** #include "stm32f7xx_hal.h"
  55:../../Drivers/STM32F7xx_HAL_Driver/Src/stm32f7xx_hal.c **** 
  56:../../Drivers/STM32F7xx_HAL_Driver/Src/stm32f7xx_hal.c **** /** @addtogroup STM32F7xx_HAL_Driver
  57:../../Drivers/STM32F7xx_HAL_Driver/Src/stm32f7xx_hal.c ****   * @{
  58:../../Drivers/STM32F7xx_HAL_Driver/Src/stm32f7xx_hal.c ****   */
  59:../../Drivers/STM32F7xx_HAL_Driver/Src/stm32f7xx_hal.c **** 
  60:../../Drivers/STM32F7xx_HAL_Driver/Src/stm32f7xx_hal.c **** /** @defgroup HAL HAL
  61:../../Drivers/STM32F7xx_HAL_Driver/Src/stm32f7xx_hal.c ****   * @brief HAL module driver.
  62:../../Drivers/STM32F7xx_HAL_Driver/Src/stm32f7xx_hal.c ****   * @{
  63:../../Drivers/STM32F7xx_HAL_Driver/Src/stm32f7xx_hal.c ****   */
  64:../../Drivers/STM32F7xx_HAL_Driver/Src/stm32f7xx_hal.c **** 
  65:../../Drivers/STM32F7xx_HAL_Driver/Src/stm32f7xx_hal.c **** /* Private typedef -----------------------------------------------------------*/
  66:../../Drivers/STM32F7xx_HAL_Driver/Src/stm32f7xx_hal.c **** /* Private define ------------------------------------------------------------*/
  67:../../Drivers/STM32F7xx_HAL_Driver/Src/stm32f7xx_hal.c **** /** @addtogroup HAL_Private_Constants
  68:../../Drivers/STM32F7xx_HAL_Driver/Src/stm32f7xx_hal.c ****   * @{
  69:../../Drivers/STM32F7xx_HAL_Driver/Src/stm32f7xx_hal.c ****   */
  70:../../Drivers/STM32F7xx_HAL_Driver/Src/stm32f7xx_hal.c **** /**
  71:../../Drivers/STM32F7xx_HAL_Driver/Src/stm32f7xx_hal.c ****  * @brief STM32F7xx HAL Driver version number V1.1.2
  72:../../Drivers/STM32F7xx_HAL_Driver/Src/stm32f7xx_hal.c ****    */
  73:../../Drivers/STM32F7xx_HAL_Driver/Src/stm32f7xx_hal.c **** #define __STM32F7xx_HAL_VERSION_MAIN   (0x01) /*!< [31:24] main version */
  74:../../Drivers/STM32F7xx_HAL_Driver/Src/stm32f7xx_hal.c **** #define __STM32F7xx_HAL_VERSION_SUB1   (0x01) /*!< [23:16] sub1 version */
  75:../../Drivers/STM32F7xx_HAL_Driver/Src/stm32f7xx_hal.c **** #define __STM32F7xx_HAL_VERSION_SUB2   (0x02) /*!< [15:8]  sub2 version */
  76:../../Drivers/STM32F7xx_HAL_Driver/Src/stm32f7xx_hal.c **** #define __STM32F7xx_HAL_VERSION_RC     (0x00) /*!< [7:0]  release candidate */ 
  77:../../Drivers/STM32F7xx_HAL_Driver/Src/stm32f7xx_hal.c **** #define __STM32F7xx_HAL_VERSION         ((__STM32F7xx_HAL_VERSION_MAIN << 24)\
  78:../../Drivers/STM32F7xx_HAL_Driver/Src/stm32f7xx_hal.c ****                                         |(__STM32F7xx_HAL_VERSION_SUB1 << 16)\
  79:../../Drivers/STM32F7xx_HAL_Driver/Src/stm32f7xx_hal.c ****                                         |(__STM32F7xx_HAL_VERSION_SUB2 << 8 )\
  80:../../Drivers/STM32F7xx_HAL_Driver/Src/stm32f7xx_hal.c ****                                         |(__STM32F7xx_HAL_VERSION_RC))
  81:../../Drivers/STM32F7xx_HAL_Driver/Src/stm32f7xx_hal.c ****                                         
  82:../../Drivers/STM32F7xx_HAL_Driver/Src/stm32f7xx_hal.c **** #define IDCODE_DEVID_MASK    ((uint32_t)0x00000FFF)
  83:../../Drivers/STM32F7xx_HAL_Driver/Src/stm32f7xx_hal.c **** /**
  84:../../Drivers/STM32F7xx_HAL_Driver/Src/stm32f7xx_hal.c ****   * @}
  85:../../Drivers/STM32F7xx_HAL_Driver/Src/stm32f7xx_hal.c ****   */
  86:../../Drivers/STM32F7xx_HAL_Driver/Src/stm32f7xx_hal.c **** 
ARM GAS  /tmp/ccKfhE3W.s 			page 3


  87:../../Drivers/STM32F7xx_HAL_Driver/Src/stm32f7xx_hal.c **** /* Private macro -------------------------------------------------------------*/
  88:../../Drivers/STM32F7xx_HAL_Driver/Src/stm32f7xx_hal.c **** /* Private variables ---------------------------------------------------------*/
  89:../../Drivers/STM32F7xx_HAL_Driver/Src/stm32f7xx_hal.c **** /** @addtogroup HAL_Private_Variables
  90:../../Drivers/STM32F7xx_HAL_Driver/Src/stm32f7xx_hal.c ****   * @{
  91:../../Drivers/STM32F7xx_HAL_Driver/Src/stm32f7xx_hal.c ****   */
  92:../../Drivers/STM32F7xx_HAL_Driver/Src/stm32f7xx_hal.c **** __IO uint32_t uwTick;
  93:../../Drivers/STM32F7xx_HAL_Driver/Src/stm32f7xx_hal.c **** /**
  94:../../Drivers/STM32F7xx_HAL_Driver/Src/stm32f7xx_hal.c ****   * @}
  95:../../Drivers/STM32F7xx_HAL_Driver/Src/stm32f7xx_hal.c ****   */
  96:../../Drivers/STM32F7xx_HAL_Driver/Src/stm32f7xx_hal.c **** 
  97:../../Drivers/STM32F7xx_HAL_Driver/Src/stm32f7xx_hal.c **** /* Private function prototypes -----------------------------------------------*/
  98:../../Drivers/STM32F7xx_HAL_Driver/Src/stm32f7xx_hal.c **** /* Private functions ---------------------------------------------------------*/
  99:../../Drivers/STM32F7xx_HAL_Driver/Src/stm32f7xx_hal.c **** 
 100:../../Drivers/STM32F7xx_HAL_Driver/Src/stm32f7xx_hal.c **** /** @defgroup HAL_Exported_Functions HAL Exported Functions
 101:../../Drivers/STM32F7xx_HAL_Driver/Src/stm32f7xx_hal.c ****   * @{
 102:../../Drivers/STM32F7xx_HAL_Driver/Src/stm32f7xx_hal.c ****   */
 103:../../Drivers/STM32F7xx_HAL_Driver/Src/stm32f7xx_hal.c **** 
 104:../../Drivers/STM32F7xx_HAL_Driver/Src/stm32f7xx_hal.c **** /** @defgroup HAL_Exported_Functions_Group1 Initialization and de-initialization Functions 
 105:../../Drivers/STM32F7xx_HAL_Driver/Src/stm32f7xx_hal.c ****  *  @brief    Initialization and de-initialization functions
 106:../../Drivers/STM32F7xx_HAL_Driver/Src/stm32f7xx_hal.c ****  *
 107:../../Drivers/STM32F7xx_HAL_Driver/Src/stm32f7xx_hal.c **** @verbatim    
 108:../../Drivers/STM32F7xx_HAL_Driver/Src/stm32f7xx_hal.c ****  ===============================================================================
 109:../../Drivers/STM32F7xx_HAL_Driver/Src/stm32f7xx_hal.c ****               ##### Initialization and de-initialization functions #####
 110:../../Drivers/STM32F7xx_HAL_Driver/Src/stm32f7xx_hal.c ****  ===============================================================================
 111:../../Drivers/STM32F7xx_HAL_Driver/Src/stm32f7xx_hal.c ****     [..]  This section provides functions allowing to:
 112:../../Drivers/STM32F7xx_HAL_Driver/Src/stm32f7xx_hal.c ****       (+) Initializes the Flash interface the NVIC allocation and initial clock 
 113:../../Drivers/STM32F7xx_HAL_Driver/Src/stm32f7xx_hal.c ****           configuration. It initializes the systick also when timeout is needed 
 114:../../Drivers/STM32F7xx_HAL_Driver/Src/stm32f7xx_hal.c ****           and the backup domain when enabled.
 115:../../Drivers/STM32F7xx_HAL_Driver/Src/stm32f7xx_hal.c ****       (+) de-Initializes common part of the HAL
 116:../../Drivers/STM32F7xx_HAL_Driver/Src/stm32f7xx_hal.c ****       (+) Configure The time base source to have 1ms time base with a dedicated 
 117:../../Drivers/STM32F7xx_HAL_Driver/Src/stm32f7xx_hal.c ****           Tick interrupt priority. 
 118:../../Drivers/STM32F7xx_HAL_Driver/Src/stm32f7xx_hal.c ****         (++) Systick timer is used by default as source of time base, but user 
 119:../../Drivers/STM32F7xx_HAL_Driver/Src/stm32f7xx_hal.c ****              can eventually implement his proper time base source (a general purpose 
 120:../../Drivers/STM32F7xx_HAL_Driver/Src/stm32f7xx_hal.c ****              timer for example or other time source), keeping in mind that Time base 
 121:../../Drivers/STM32F7xx_HAL_Driver/Src/stm32f7xx_hal.c ****              duration should be kept 1ms since PPP_TIMEOUT_VALUEs are defined and 
 122:../../Drivers/STM32F7xx_HAL_Driver/Src/stm32f7xx_hal.c ****              handled in milliseconds basis.
 123:../../Drivers/STM32F7xx_HAL_Driver/Src/stm32f7xx_hal.c ****         (++) Time base configuration function (HAL_InitTick ()) is called automatically 
 124:../../Drivers/STM32F7xx_HAL_Driver/Src/stm32f7xx_hal.c ****              at the beginning of the program after reset by HAL_Init() or at any time 
 125:../../Drivers/STM32F7xx_HAL_Driver/Src/stm32f7xx_hal.c ****              when clock is configured, by HAL_RCC_ClockConfig(). 
 126:../../Drivers/STM32F7xx_HAL_Driver/Src/stm32f7xx_hal.c ****         (++) Source of time base is configured  to generate interrupts at regular 
 127:../../Drivers/STM32F7xx_HAL_Driver/Src/stm32f7xx_hal.c ****              time intervals. Care must be taken if HAL_Delay() is called from a 
 128:../../Drivers/STM32F7xx_HAL_Driver/Src/stm32f7xx_hal.c ****              peripheral ISR process, the Tick interrupt line must have higher priority 
 129:../../Drivers/STM32F7xx_HAL_Driver/Src/stm32f7xx_hal.c ****             (numerically lower) than the peripheral interrupt. Otherwise the caller 
 130:../../Drivers/STM32F7xx_HAL_Driver/Src/stm32f7xx_hal.c ****             ISR process will be blocked. 
 131:../../Drivers/STM32F7xx_HAL_Driver/Src/stm32f7xx_hal.c ****        (++) functions affecting time base configurations are declared as __weak  
 132:../../Drivers/STM32F7xx_HAL_Driver/Src/stm32f7xx_hal.c ****              to make  override possible  in case of other  implementations in user file.
 133:../../Drivers/STM32F7xx_HAL_Driver/Src/stm32f7xx_hal.c **** @endverbatim
 134:../../Drivers/STM32F7xx_HAL_Driver/Src/stm32f7xx_hal.c ****   * @{
 135:../../Drivers/STM32F7xx_HAL_Driver/Src/stm32f7xx_hal.c ****   */
 136:../../Drivers/STM32F7xx_HAL_Driver/Src/stm32f7xx_hal.c **** 
 137:../../Drivers/STM32F7xx_HAL_Driver/Src/stm32f7xx_hal.c **** /**
 138:../../Drivers/STM32F7xx_HAL_Driver/Src/stm32f7xx_hal.c ****   * @brief  This function is used to initialize the HAL Library; it must be the first 
 139:../../Drivers/STM32F7xx_HAL_Driver/Src/stm32f7xx_hal.c ****   *         instruction to be executed in the main program (before to call any other
 140:../../Drivers/STM32F7xx_HAL_Driver/Src/stm32f7xx_hal.c ****   *         HAL function), it performs the following:
 141:../../Drivers/STM32F7xx_HAL_Driver/Src/stm32f7xx_hal.c ****   *           Configure the Flash prefetch, and instruction cache through ART accelerator.
 142:../../Drivers/STM32F7xx_HAL_Driver/Src/stm32f7xx_hal.c ****   *           Configures the SysTick to generate an interrupt each 1 millisecond,
 143:../../Drivers/STM32F7xx_HAL_Driver/Src/stm32f7xx_hal.c ****   *           which is clocked by the HSI (at this stage, the clock is not yet
ARM GAS  /tmp/ccKfhE3W.s 			page 4


 144:../../Drivers/STM32F7xx_HAL_Driver/Src/stm32f7xx_hal.c ****   *           configured and thus the system is running from the internal HSI at 16 MHz).
 145:../../Drivers/STM32F7xx_HAL_Driver/Src/stm32f7xx_hal.c ****   *           Set NVIC Group Priority to 4.
 146:../../Drivers/STM32F7xx_HAL_Driver/Src/stm32f7xx_hal.c ****   *           Calls the HAL_MspInit() callback function defined in user file 
 147:../../Drivers/STM32F7xx_HAL_Driver/Src/stm32f7xx_hal.c ****   *           "stm32f7xx_hal_msp.c" to do the global low level hardware initialization 
 148:../../Drivers/STM32F7xx_HAL_Driver/Src/stm32f7xx_hal.c ****   *            
 149:../../Drivers/STM32F7xx_HAL_Driver/Src/stm32f7xx_hal.c ****   * @note   SysTick is used as time base for the HAL_Delay() function, the application
 150:../../Drivers/STM32F7xx_HAL_Driver/Src/stm32f7xx_hal.c ****   *         need to ensure that the SysTick time base is always set to 1 millisecond
 151:../../Drivers/STM32F7xx_HAL_Driver/Src/stm32f7xx_hal.c ****   *         to have correct HAL operation.
 152:../../Drivers/STM32F7xx_HAL_Driver/Src/stm32f7xx_hal.c ****   * @retval HAL status
 153:../../Drivers/STM32F7xx_HAL_Driver/Src/stm32f7xx_hal.c ****   */
 154:../../Drivers/STM32F7xx_HAL_Driver/Src/stm32f7xx_hal.c **** HAL_StatusTypeDef HAL_Init(void)
 155:../../Drivers/STM32F7xx_HAL_Driver/Src/stm32f7xx_hal.c **** {
  30              		.loc 1 155 0
  31              		.cfi_startproc
  32              		@ args = 0, pretend = 0, frame = 0
  33              		@ frame_needed = 1, uses_anonymous_args = 0
  34 0000 80B5     		push	{r7, lr}
  35              	.LCFI0:
  36              		.cfi_def_cfa_offset 8
  37              		.cfi_offset 7, -8
  38              		.cfi_offset 14, -4
  39 0002 00AF     		add	r7, sp, #0
  40              	.LCFI1:
  41              		.cfi_def_cfa_register 7
 156:../../Drivers/STM32F7xx_HAL_Driver/Src/stm32f7xx_hal.c ****   /* Configure Flash prefetch and Instruction cache through ART accelerator */ 
 157:../../Drivers/STM32F7xx_HAL_Driver/Src/stm32f7xx_hal.c **** #if (ART_ACCLERATOR_ENABLE != 0)
 158:../../Drivers/STM32F7xx_HAL_Driver/Src/stm32f7xx_hal.c ****    __HAL_FLASH_ART_ENABLE();
  42              		.loc 1 158 0
  43 0004 084A     		ldr	r2, .L3
  44 0006 084B     		ldr	r3, .L3
  45 0008 1B68     		ldr	r3, [r3]
  46 000a 43F40073 		orr	r3, r3, #512
  47 000e 1360     		str	r3, [r2]
 159:../../Drivers/STM32F7xx_HAL_Driver/Src/stm32f7xx_hal.c **** #endif /* ART_ACCLERATOR_ENABLE */
 160:../../Drivers/STM32F7xx_HAL_Driver/Src/stm32f7xx_hal.c **** 
 161:../../Drivers/STM32F7xx_HAL_Driver/Src/stm32f7xx_hal.c ****   /* Set Interrupt Group Priority */
 162:../../Drivers/STM32F7xx_HAL_Driver/Src/stm32f7xx_hal.c ****   HAL_NVIC_SetPriorityGrouping(NVIC_PRIORITYGROUP_4);
  48              		.loc 1 162 0
  49 0010 0320     		movs	r0, #3
  50 0012 FFF7FEFF 		bl	HAL_NVIC_SetPriorityGrouping
 163:../../Drivers/STM32F7xx_HAL_Driver/Src/stm32f7xx_hal.c **** 
 164:../../Drivers/STM32F7xx_HAL_Driver/Src/stm32f7xx_hal.c ****   /* Use systick as time base source and configure 1ms tick (default clock after Reset is HSI) */
 165:../../Drivers/STM32F7xx_HAL_Driver/Src/stm32f7xx_hal.c ****   HAL_InitTick(TICK_INT_PRIORITY);
  51              		.loc 1 165 0
  52 0016 0F20     		movs	r0, #15
  53 0018 FFF7FEFF 		bl	HAL_InitTick
 166:../../Drivers/STM32F7xx_HAL_Driver/Src/stm32f7xx_hal.c ****   
 167:../../Drivers/STM32F7xx_HAL_Driver/Src/stm32f7xx_hal.c ****   /* Init the low level hardware */
 168:../../Drivers/STM32F7xx_HAL_Driver/Src/stm32f7xx_hal.c ****   HAL_MspInit();
  54              		.loc 1 168 0
  55 001c FFF7FEFF 		bl	HAL_MspInit
 169:../../Drivers/STM32F7xx_HAL_Driver/Src/stm32f7xx_hal.c ****   
 170:../../Drivers/STM32F7xx_HAL_Driver/Src/stm32f7xx_hal.c ****   /* Return function status */
 171:../../Drivers/STM32F7xx_HAL_Driver/Src/stm32f7xx_hal.c ****   return HAL_OK;
  56              		.loc 1 171 0
  57 0020 0023     		movs	r3, #0
 172:../../Drivers/STM32F7xx_HAL_Driver/Src/stm32f7xx_hal.c **** }
ARM GAS  /tmp/ccKfhE3W.s 			page 5


  58              		.loc 1 172 0
  59 0022 1846     		mov	r0, r3
  60 0024 80BD     		pop	{r7, pc}
  61              	.L4:
  62 0026 00BF     		.align	2
  63              	.L3:
  64 0028 003C0240 		.word	1073888256
  65              		.cfi_endproc
  66              	.LFE135:
  68              		.section	.text.HAL_DeInit,"ax",%progbits
  69              		.align	2
  70              		.global	HAL_DeInit
  71              		.thumb
  72              		.thumb_func
  74              	HAL_DeInit:
  75              	.LFB136:
 173:../../Drivers/STM32F7xx_HAL_Driver/Src/stm32f7xx_hal.c **** 
 174:../../Drivers/STM32F7xx_HAL_Driver/Src/stm32f7xx_hal.c **** /**
 175:../../Drivers/STM32F7xx_HAL_Driver/Src/stm32f7xx_hal.c ****   * @brief  This function de-Initializes common part of the HAL and stops the systick.
 176:../../Drivers/STM32F7xx_HAL_Driver/Src/stm32f7xx_hal.c ****   *         This function is optional.   
 177:../../Drivers/STM32F7xx_HAL_Driver/Src/stm32f7xx_hal.c ****   * @retval HAL status
 178:../../Drivers/STM32F7xx_HAL_Driver/Src/stm32f7xx_hal.c ****   */
 179:../../Drivers/STM32F7xx_HAL_Driver/Src/stm32f7xx_hal.c **** HAL_StatusTypeDef HAL_DeInit(void)
 180:../../Drivers/STM32F7xx_HAL_Driver/Src/stm32f7xx_hal.c **** {
  76              		.loc 1 180 0
  77              		.cfi_startproc
  78              		@ args = 0, pretend = 0, frame = 0
  79              		@ frame_needed = 1, uses_anonymous_args = 0
  80 0000 80B5     		push	{r7, lr}
  81              	.LCFI2:
  82              		.cfi_def_cfa_offset 8
  83              		.cfi_offset 7, -8
  84              		.cfi_offset 14, -4
  85 0002 00AF     		add	r7, sp, #0
  86              	.LCFI3:
  87              		.cfi_def_cfa_register 7
 181:../../Drivers/STM32F7xx_HAL_Driver/Src/stm32f7xx_hal.c ****   /* Reset of all peripherals */
 182:../../Drivers/STM32F7xx_HAL_Driver/Src/stm32f7xx_hal.c ****   __HAL_RCC_APB1_FORCE_RESET();
  88              		.loc 1 182 0
  89 0004 134B     		ldr	r3, .L7
  90 0006 4FF0FF32 		mov	r2, #-1
  91 000a 1A62     		str	r2, [r3, #32]
 183:../../Drivers/STM32F7xx_HAL_Driver/Src/stm32f7xx_hal.c ****   __HAL_RCC_APB1_RELEASE_RESET();
  92              		.loc 1 183 0
  93 000c 114B     		ldr	r3, .L7
  94 000e 0022     		movs	r2, #0
  95 0010 1A62     		str	r2, [r3, #32]
 184:../../Drivers/STM32F7xx_HAL_Driver/Src/stm32f7xx_hal.c **** 
 185:../../Drivers/STM32F7xx_HAL_Driver/Src/stm32f7xx_hal.c ****   __HAL_RCC_APB2_FORCE_RESET();
  96              		.loc 1 185 0
  97 0012 104B     		ldr	r3, .L7
  98 0014 4FF0FF32 		mov	r2, #-1
  99 0018 5A62     		str	r2, [r3, #36]
 186:../../Drivers/STM32F7xx_HAL_Driver/Src/stm32f7xx_hal.c ****   __HAL_RCC_APB2_RELEASE_RESET();
 100              		.loc 1 186 0
 101 001a 0E4B     		ldr	r3, .L7
 102 001c 0022     		movs	r2, #0
ARM GAS  /tmp/ccKfhE3W.s 			page 6


 103 001e 5A62     		str	r2, [r3, #36]
 187:../../Drivers/STM32F7xx_HAL_Driver/Src/stm32f7xx_hal.c **** 
 188:../../Drivers/STM32F7xx_HAL_Driver/Src/stm32f7xx_hal.c ****   __HAL_RCC_AHB1_FORCE_RESET();
 104              		.loc 1 188 0
 105 0020 0C4B     		ldr	r3, .L7
 106 0022 4FF0FF32 		mov	r2, #-1
 107 0026 1A61     		str	r2, [r3, #16]
 189:../../Drivers/STM32F7xx_HAL_Driver/Src/stm32f7xx_hal.c ****   __HAL_RCC_AHB1_RELEASE_RESET();
 108              		.loc 1 189 0
 109 0028 0A4B     		ldr	r3, .L7
 110 002a 0022     		movs	r2, #0
 111 002c 1A61     		str	r2, [r3, #16]
 190:../../Drivers/STM32F7xx_HAL_Driver/Src/stm32f7xx_hal.c **** 
 191:../../Drivers/STM32F7xx_HAL_Driver/Src/stm32f7xx_hal.c ****   __HAL_RCC_AHB2_FORCE_RESET();
 112              		.loc 1 191 0
 113 002e 094B     		ldr	r3, .L7
 114 0030 4FF0FF32 		mov	r2, #-1
 115 0034 5A61     		str	r2, [r3, #20]
 192:../../Drivers/STM32F7xx_HAL_Driver/Src/stm32f7xx_hal.c ****   __HAL_RCC_AHB2_RELEASE_RESET();
 116              		.loc 1 192 0
 117 0036 074B     		ldr	r3, .L7
 118 0038 0022     		movs	r2, #0
 119 003a 5A61     		str	r2, [r3, #20]
 193:../../Drivers/STM32F7xx_HAL_Driver/Src/stm32f7xx_hal.c **** 
 194:../../Drivers/STM32F7xx_HAL_Driver/Src/stm32f7xx_hal.c ****   __HAL_RCC_AHB3_FORCE_RESET();
 120              		.loc 1 194 0
 121 003c 054B     		ldr	r3, .L7
 122 003e 4FF0FF32 		mov	r2, #-1
 123 0042 9A61     		str	r2, [r3, #24]
 195:../../Drivers/STM32F7xx_HAL_Driver/Src/stm32f7xx_hal.c ****   __HAL_RCC_AHB3_RELEASE_RESET();
 124              		.loc 1 195 0
 125 0044 034B     		ldr	r3, .L7
 126 0046 0022     		movs	r2, #0
 127 0048 9A61     		str	r2, [r3, #24]
 196:../../Drivers/STM32F7xx_HAL_Driver/Src/stm32f7xx_hal.c **** 
 197:../../Drivers/STM32F7xx_HAL_Driver/Src/stm32f7xx_hal.c ****   /* De-Init the low level hardware */
 198:../../Drivers/STM32F7xx_HAL_Driver/Src/stm32f7xx_hal.c ****   HAL_MspDeInit();
 128              		.loc 1 198 0
 129 004a FFF7FEFF 		bl	HAL_MspDeInit
 199:../../Drivers/STM32F7xx_HAL_Driver/Src/stm32f7xx_hal.c ****     
 200:../../Drivers/STM32F7xx_HAL_Driver/Src/stm32f7xx_hal.c ****   /* Return function status */
 201:../../Drivers/STM32F7xx_HAL_Driver/Src/stm32f7xx_hal.c ****   return HAL_OK;
 130              		.loc 1 201 0
 131 004e 0023     		movs	r3, #0
 202:../../Drivers/STM32F7xx_HAL_Driver/Src/stm32f7xx_hal.c **** }
 132              		.loc 1 202 0
 133 0050 1846     		mov	r0, r3
 134 0052 80BD     		pop	{r7, pc}
 135              	.L8:
 136              		.align	2
 137              	.L7:
 138 0054 00380240 		.word	1073887232
 139              		.cfi_endproc
 140              	.LFE136:
 142              		.section	.text.HAL_MspInit,"ax",%progbits
 143              		.align	2
 144              		.weak	HAL_MspInit
ARM GAS  /tmp/ccKfhE3W.s 			page 7


 145              		.thumb
 146              		.thumb_func
 148              	HAL_MspInit:
 149              	.LFB137:
 203:../../Drivers/STM32F7xx_HAL_Driver/Src/stm32f7xx_hal.c **** 
 204:../../Drivers/STM32F7xx_HAL_Driver/Src/stm32f7xx_hal.c **** /**
 205:../../Drivers/STM32F7xx_HAL_Driver/Src/stm32f7xx_hal.c ****   * @brief  Initializes the MSP.
 206:../../Drivers/STM32F7xx_HAL_Driver/Src/stm32f7xx_hal.c ****   * @retval None
 207:../../Drivers/STM32F7xx_HAL_Driver/Src/stm32f7xx_hal.c ****   */
 208:../../Drivers/STM32F7xx_HAL_Driver/Src/stm32f7xx_hal.c **** __weak void HAL_MspInit(void)
 209:../../Drivers/STM32F7xx_HAL_Driver/Src/stm32f7xx_hal.c **** {
 150              		.loc 1 209 0
 151              		.cfi_startproc
 152              		@ args = 0, pretend = 0, frame = 0
 153              		@ frame_needed = 1, uses_anonymous_args = 0
 154              		@ link register save eliminated.
 155 0000 80B4     		push	{r7}
 156              	.LCFI4:
 157              		.cfi_def_cfa_offset 4
 158              		.cfi_offset 7, -4
 159 0002 00AF     		add	r7, sp, #0
 160              	.LCFI5:
 161              		.cfi_def_cfa_register 7
 210:../../Drivers/STM32F7xx_HAL_Driver/Src/stm32f7xx_hal.c ****   /* NOTE : This function Should not be modified, when the callback is needed,
 211:../../Drivers/STM32F7xx_HAL_Driver/Src/stm32f7xx_hal.c ****             the HAL_MspInit could be implemented in the user file
 212:../../Drivers/STM32F7xx_HAL_Driver/Src/stm32f7xx_hal.c ****    */
 213:../../Drivers/STM32F7xx_HAL_Driver/Src/stm32f7xx_hal.c **** }
 162              		.loc 1 213 0
 163 0004 BD46     		mov	sp, r7
 164              	.LCFI6:
 165              		.cfi_def_cfa_register 13
 166              		@ sp needed
 167 0006 5DF8047B 		ldr	r7, [sp], #4
 168              	.LCFI7:
 169              		.cfi_restore 7
 170              		.cfi_def_cfa_offset 0
 171 000a 7047     		bx	lr
 172              		.cfi_endproc
 173              	.LFE137:
 175              		.section	.text.HAL_MspDeInit,"ax",%progbits
 176              		.align	2
 177              		.weak	HAL_MspDeInit
 178              		.thumb
 179              		.thumb_func
 181              	HAL_MspDeInit:
 182              	.LFB138:
 214:../../Drivers/STM32F7xx_HAL_Driver/Src/stm32f7xx_hal.c **** 
 215:../../Drivers/STM32F7xx_HAL_Driver/Src/stm32f7xx_hal.c **** /**
 216:../../Drivers/STM32F7xx_HAL_Driver/Src/stm32f7xx_hal.c ****   * @brief  DeInitializes the MSP.
 217:../../Drivers/STM32F7xx_HAL_Driver/Src/stm32f7xx_hal.c ****   * @retval None
 218:../../Drivers/STM32F7xx_HAL_Driver/Src/stm32f7xx_hal.c ****   */
 219:../../Drivers/STM32F7xx_HAL_Driver/Src/stm32f7xx_hal.c **** __weak void HAL_MspDeInit(void)
 220:../../Drivers/STM32F7xx_HAL_Driver/Src/stm32f7xx_hal.c **** {
 183              		.loc 1 220 0
 184              		.cfi_startproc
 185              		@ args = 0, pretend = 0, frame = 0
 186              		@ frame_needed = 1, uses_anonymous_args = 0
ARM GAS  /tmp/ccKfhE3W.s 			page 8


 187              		@ link register save eliminated.
 188 0000 80B4     		push	{r7}
 189              	.LCFI8:
 190              		.cfi_def_cfa_offset 4
 191              		.cfi_offset 7, -4
 192 0002 00AF     		add	r7, sp, #0
 193              	.LCFI9:
 194              		.cfi_def_cfa_register 7
 221:../../Drivers/STM32F7xx_HAL_Driver/Src/stm32f7xx_hal.c ****   /* NOTE : This function Should not be modified, when the callback is needed,
 222:../../Drivers/STM32F7xx_HAL_Driver/Src/stm32f7xx_hal.c ****             the HAL_MspDeInit could be implemented in the user file
 223:../../Drivers/STM32F7xx_HAL_Driver/Src/stm32f7xx_hal.c ****    */ 
 224:../../Drivers/STM32F7xx_HAL_Driver/Src/stm32f7xx_hal.c **** }
 195              		.loc 1 224 0
 196 0004 BD46     		mov	sp, r7
 197              	.LCFI10:
 198              		.cfi_def_cfa_register 13
 199              		@ sp needed
 200 0006 5DF8047B 		ldr	r7, [sp], #4
 201              	.LCFI11:
 202              		.cfi_restore 7
 203              		.cfi_def_cfa_offset 0
 204 000a 7047     		bx	lr
 205              		.cfi_endproc
 206              	.LFE138:
 208              		.section	.text.HAL_InitTick,"ax",%progbits
 209              		.align	2
 210              		.weak	HAL_InitTick
 211              		.thumb
 212              		.thumb_func
 214              	HAL_InitTick:
 215              	.LFB139:
 225:../../Drivers/STM32F7xx_HAL_Driver/Src/stm32f7xx_hal.c **** 
 226:../../Drivers/STM32F7xx_HAL_Driver/Src/stm32f7xx_hal.c **** /**
 227:../../Drivers/STM32F7xx_HAL_Driver/Src/stm32f7xx_hal.c ****   * @brief This function configures the source of the time base.
 228:../../Drivers/STM32F7xx_HAL_Driver/Src/stm32f7xx_hal.c ****   *        The time source is configured  to have 1ms time base with a dedicated 
 229:../../Drivers/STM32F7xx_HAL_Driver/Src/stm32f7xx_hal.c ****   *        Tick interrupt priority.
 230:../../Drivers/STM32F7xx_HAL_Driver/Src/stm32f7xx_hal.c ****   * @note This function is called  automatically at the beginning of program after
 231:../../Drivers/STM32F7xx_HAL_Driver/Src/stm32f7xx_hal.c ****   *       reset by HAL_Init() or at any time when clock is reconfigured  by HAL_RCC_ClockConfig().
 232:../../Drivers/STM32F7xx_HAL_Driver/Src/stm32f7xx_hal.c ****   * @note In the default implementation, SysTick timer is the source of time base. 
 233:../../Drivers/STM32F7xx_HAL_Driver/Src/stm32f7xx_hal.c ****   *       It is used to generate interrupts at regular time intervals. 
 234:../../Drivers/STM32F7xx_HAL_Driver/Src/stm32f7xx_hal.c ****   *       Care must be taken if HAL_Delay() is called from a peripheral ISR process, 
 235:../../Drivers/STM32F7xx_HAL_Driver/Src/stm32f7xx_hal.c ****   *       The the SysTick interrupt must have higher priority (numerically lower) 
 236:../../Drivers/STM32F7xx_HAL_Driver/Src/stm32f7xx_hal.c ****   *       than the peripheral interrupt. Otherwise the caller ISR process will be blocked.
 237:../../Drivers/STM32F7xx_HAL_Driver/Src/stm32f7xx_hal.c ****   *       The function is declared as __weak  to be overwritten  in case of other
 238:../../Drivers/STM32F7xx_HAL_Driver/Src/stm32f7xx_hal.c ****   *       implementation  in user file.
 239:../../Drivers/STM32F7xx_HAL_Driver/Src/stm32f7xx_hal.c ****   * @param TickPriority: Tick interrupt priority.
 240:../../Drivers/STM32F7xx_HAL_Driver/Src/stm32f7xx_hal.c ****   * @retval HAL status
 241:../../Drivers/STM32F7xx_HAL_Driver/Src/stm32f7xx_hal.c ****   */
 242:../../Drivers/STM32F7xx_HAL_Driver/Src/stm32f7xx_hal.c **** __weak HAL_StatusTypeDef HAL_InitTick(uint32_t TickPriority)
 243:../../Drivers/STM32F7xx_HAL_Driver/Src/stm32f7xx_hal.c **** {
 216              		.loc 1 243 0
 217              		.cfi_startproc
 218              		@ args = 0, pretend = 0, frame = 8
 219              		@ frame_needed = 1, uses_anonymous_args = 0
 220 0000 80B5     		push	{r7, lr}
 221              	.LCFI12:
 222              		.cfi_def_cfa_offset 8
ARM GAS  /tmp/ccKfhE3W.s 			page 9


 223              		.cfi_offset 7, -8
 224              		.cfi_offset 14, -4
 225 0002 82B0     		sub	sp, sp, #8
 226              	.LCFI13:
 227              		.cfi_def_cfa_offset 16
 228 0004 00AF     		add	r7, sp, #0
 229              	.LCFI14:
 230              		.cfi_def_cfa_register 7
 231 0006 7860     		str	r0, [r7, #4]
 244:../../Drivers/STM32F7xx_HAL_Driver/Src/stm32f7xx_hal.c ****   /*Configure the SysTick to have interrupt in 1ms time basis*/
 245:../../Drivers/STM32F7xx_HAL_Driver/Src/stm32f7xx_hal.c ****   HAL_SYSTICK_Config(SystemCoreClock/1000);
 232              		.loc 1 245 0
 233 0008 094B     		ldr	r3, .L13
 234 000a 1B68     		ldr	r3, [r3]
 235 000c 094A     		ldr	r2, .L13+4
 236 000e A2FB0323 		umull	r2, r3, r2, r3
 237 0012 9B09     		lsrs	r3, r3, #6
 238 0014 1846     		mov	r0, r3
 239 0016 FFF7FEFF 		bl	HAL_SYSTICK_Config
 246:../../Drivers/STM32F7xx_HAL_Driver/Src/stm32f7xx_hal.c **** 
 247:../../Drivers/STM32F7xx_HAL_Driver/Src/stm32f7xx_hal.c ****   /*Configure the SysTick IRQ priority */
 248:../../Drivers/STM32F7xx_HAL_Driver/Src/stm32f7xx_hal.c ****   HAL_NVIC_SetPriority(SysTick_IRQn, TickPriority ,0);
 240              		.loc 1 248 0
 241 001a 4FF0FF30 		mov	r0, #-1
 242 001e 7968     		ldr	r1, [r7, #4]
 243 0020 0022     		movs	r2, #0
 244 0022 FFF7FEFF 		bl	HAL_NVIC_SetPriority
 249:../../Drivers/STM32F7xx_HAL_Driver/Src/stm32f7xx_hal.c **** 
 250:../../Drivers/STM32F7xx_HAL_Driver/Src/stm32f7xx_hal.c ****   /* Return function status */
 251:../../Drivers/STM32F7xx_HAL_Driver/Src/stm32f7xx_hal.c ****   return HAL_OK;
 245              		.loc 1 251 0
 246 0026 0023     		movs	r3, #0
 252:../../Drivers/STM32F7xx_HAL_Driver/Src/stm32f7xx_hal.c **** }
 247              		.loc 1 252 0
 248 0028 1846     		mov	r0, r3
 249 002a 0837     		adds	r7, r7, #8
 250              	.LCFI15:
 251              		.cfi_def_cfa_offset 8
 252 002c BD46     		mov	sp, r7
 253              	.LCFI16:
 254              		.cfi_def_cfa_register 13
 255              		@ sp needed
 256 002e 80BD     		pop	{r7, pc}
 257              	.L14:
 258              		.align	2
 259              	.L13:
 260 0030 00000000 		.word	SystemCoreClock
 261 0034 D34D6210 		.word	274877907
 262              		.cfi_endproc
 263              	.LFE139:
 265              		.section	.text.HAL_IncTick,"ax",%progbits
 266              		.align	2
 267              		.weak	HAL_IncTick
 268              		.thumb
 269              		.thumb_func
 271              	HAL_IncTick:
 272              	.LFB140:
ARM GAS  /tmp/ccKfhE3W.s 			page 10


 253:../../Drivers/STM32F7xx_HAL_Driver/Src/stm32f7xx_hal.c **** 
 254:../../Drivers/STM32F7xx_HAL_Driver/Src/stm32f7xx_hal.c **** /**
 255:../../Drivers/STM32F7xx_HAL_Driver/Src/stm32f7xx_hal.c ****   * @}
 256:../../Drivers/STM32F7xx_HAL_Driver/Src/stm32f7xx_hal.c ****   */
 257:../../Drivers/STM32F7xx_HAL_Driver/Src/stm32f7xx_hal.c **** 
 258:../../Drivers/STM32F7xx_HAL_Driver/Src/stm32f7xx_hal.c **** /** @defgroup HAL_Exported_Functions_Group2 HAL Control functions 
 259:../../Drivers/STM32F7xx_HAL_Driver/Src/stm32f7xx_hal.c ****  *  @brief    HAL Control functions
 260:../../Drivers/STM32F7xx_HAL_Driver/Src/stm32f7xx_hal.c ****  *
 261:../../Drivers/STM32F7xx_HAL_Driver/Src/stm32f7xx_hal.c **** @verbatim
 262:../../Drivers/STM32F7xx_HAL_Driver/Src/stm32f7xx_hal.c ****  ===============================================================================
 263:../../Drivers/STM32F7xx_HAL_Driver/Src/stm32f7xx_hal.c ****                       ##### HAL Control functions #####
 264:../../Drivers/STM32F7xx_HAL_Driver/Src/stm32f7xx_hal.c ****  ===============================================================================
 265:../../Drivers/STM32F7xx_HAL_Driver/Src/stm32f7xx_hal.c ****     [..]  This section provides functions allowing to:
 266:../../Drivers/STM32F7xx_HAL_Driver/Src/stm32f7xx_hal.c ****       (+) Provide a tick value in millisecond
 267:../../Drivers/STM32F7xx_HAL_Driver/Src/stm32f7xx_hal.c ****       (+) Provide a blocking delay in millisecond
 268:../../Drivers/STM32F7xx_HAL_Driver/Src/stm32f7xx_hal.c ****       (+) Suspend the time base source interrupt
 269:../../Drivers/STM32F7xx_HAL_Driver/Src/stm32f7xx_hal.c ****       (+) Resume the time base source interrupt
 270:../../Drivers/STM32F7xx_HAL_Driver/Src/stm32f7xx_hal.c ****       (+) Get the HAL API driver version
 271:../../Drivers/STM32F7xx_HAL_Driver/Src/stm32f7xx_hal.c ****       (+) Get the device identifier
 272:../../Drivers/STM32F7xx_HAL_Driver/Src/stm32f7xx_hal.c ****       (+) Get the device revision identifier
 273:../../Drivers/STM32F7xx_HAL_Driver/Src/stm32f7xx_hal.c ****       (+) Enable/Disable Debug module during SLEEP mode
 274:../../Drivers/STM32F7xx_HAL_Driver/Src/stm32f7xx_hal.c ****       (+) Enable/Disable Debug module during STOP mode
 275:../../Drivers/STM32F7xx_HAL_Driver/Src/stm32f7xx_hal.c ****       (+) Enable/Disable Debug module during STANDBY mode
 276:../../Drivers/STM32F7xx_HAL_Driver/Src/stm32f7xx_hal.c **** 
 277:../../Drivers/STM32F7xx_HAL_Driver/Src/stm32f7xx_hal.c **** @endverbatim
 278:../../Drivers/STM32F7xx_HAL_Driver/Src/stm32f7xx_hal.c ****   * @{
 279:../../Drivers/STM32F7xx_HAL_Driver/Src/stm32f7xx_hal.c ****   */
 280:../../Drivers/STM32F7xx_HAL_Driver/Src/stm32f7xx_hal.c **** 
 281:../../Drivers/STM32F7xx_HAL_Driver/Src/stm32f7xx_hal.c **** /**
 282:../../Drivers/STM32F7xx_HAL_Driver/Src/stm32f7xx_hal.c ****   * @brief This function is called to increment  a global variable "uwTick"
 283:../../Drivers/STM32F7xx_HAL_Driver/Src/stm32f7xx_hal.c ****   *        used as application time base.
 284:../../Drivers/STM32F7xx_HAL_Driver/Src/stm32f7xx_hal.c ****   * @note In the default implementation, this variable is incremented each 1ms
 285:../../Drivers/STM32F7xx_HAL_Driver/Src/stm32f7xx_hal.c ****   *       in Systick ISR.
 286:../../Drivers/STM32F7xx_HAL_Driver/Src/stm32f7xx_hal.c ****  * @note This function is declared as __weak to be overwritten in case of other 
 287:../../Drivers/STM32F7xx_HAL_Driver/Src/stm32f7xx_hal.c ****   *      implementations in user file.
 288:../../Drivers/STM32F7xx_HAL_Driver/Src/stm32f7xx_hal.c ****   * @retval None
 289:../../Drivers/STM32F7xx_HAL_Driver/Src/stm32f7xx_hal.c ****   */
 290:../../Drivers/STM32F7xx_HAL_Driver/Src/stm32f7xx_hal.c **** __weak void HAL_IncTick(void)
 291:../../Drivers/STM32F7xx_HAL_Driver/Src/stm32f7xx_hal.c **** {
 273              		.loc 1 291 0
 274              		.cfi_startproc
 275              		@ args = 0, pretend = 0, frame = 0
 276              		@ frame_needed = 1, uses_anonymous_args = 0
 277              		@ link register save eliminated.
 278 0000 80B4     		push	{r7}
 279              	.LCFI17:
 280              		.cfi_def_cfa_offset 4
 281              		.cfi_offset 7, -4
 282 0002 00AF     		add	r7, sp, #0
 283              	.LCFI18:
 284              		.cfi_def_cfa_register 7
 292:../../Drivers/STM32F7xx_HAL_Driver/Src/stm32f7xx_hal.c ****   uwTick++;
 285              		.loc 1 292 0
 286 0004 044B     		ldr	r3, .L16
 287 0006 1B68     		ldr	r3, [r3]
 288 0008 0133     		adds	r3, r3, #1
 289 000a 034A     		ldr	r2, .L16
ARM GAS  /tmp/ccKfhE3W.s 			page 11


 290 000c 1360     		str	r3, [r2]
 293:../../Drivers/STM32F7xx_HAL_Driver/Src/stm32f7xx_hal.c **** }
 291              		.loc 1 293 0
 292 000e BD46     		mov	sp, r7
 293              	.LCFI19:
 294              		.cfi_def_cfa_register 13
 295              		@ sp needed
 296 0010 5DF8047B 		ldr	r7, [sp], #4
 297              	.LCFI20:
 298              		.cfi_restore 7
 299              		.cfi_def_cfa_offset 0
 300 0014 7047     		bx	lr
 301              	.L17:
 302 0016 00BF     		.align	2
 303              	.L16:
 304 0018 00000000 		.word	uwTick
 305              		.cfi_endproc
 306              	.LFE140:
 308              		.section	.text.HAL_GetTick,"ax",%progbits
 309              		.align	2
 310              		.weak	HAL_GetTick
 311              		.thumb
 312              		.thumb_func
 314              	HAL_GetTick:
 315              	.LFB141:
 294:../../Drivers/STM32F7xx_HAL_Driver/Src/stm32f7xx_hal.c **** 
 295:../../Drivers/STM32F7xx_HAL_Driver/Src/stm32f7xx_hal.c **** /**
 296:../../Drivers/STM32F7xx_HAL_Driver/Src/stm32f7xx_hal.c ****   * @brief Provides a tick value in millisecond.
 297:../../Drivers/STM32F7xx_HAL_Driver/Src/stm32f7xx_hal.c ****   * @note This function is declared as __weak to be overwritten in case of other 
 298:../../Drivers/STM32F7xx_HAL_Driver/Src/stm32f7xx_hal.c ****   *       implementations in user file.
 299:../../Drivers/STM32F7xx_HAL_Driver/Src/stm32f7xx_hal.c ****   * @retval tick value
 300:../../Drivers/STM32F7xx_HAL_Driver/Src/stm32f7xx_hal.c ****   */
 301:../../Drivers/STM32F7xx_HAL_Driver/Src/stm32f7xx_hal.c **** __weak uint32_t HAL_GetTick(void)
 302:../../Drivers/STM32F7xx_HAL_Driver/Src/stm32f7xx_hal.c **** {
 316              		.loc 1 302 0
 317              		.cfi_startproc
 318              		@ args = 0, pretend = 0, frame = 0
 319              		@ frame_needed = 1, uses_anonymous_args = 0
 320              		@ link register save eliminated.
 321 0000 80B4     		push	{r7}
 322              	.LCFI21:
 323              		.cfi_def_cfa_offset 4
 324              		.cfi_offset 7, -4
 325 0002 00AF     		add	r7, sp, #0
 326              	.LCFI22:
 327              		.cfi_def_cfa_register 7
 303:../../Drivers/STM32F7xx_HAL_Driver/Src/stm32f7xx_hal.c ****   return uwTick;
 328              		.loc 1 303 0
 329 0004 034B     		ldr	r3, .L20
 330 0006 1B68     		ldr	r3, [r3]
 304:../../Drivers/STM32F7xx_HAL_Driver/Src/stm32f7xx_hal.c **** }
 331              		.loc 1 304 0
 332 0008 1846     		mov	r0, r3
 333 000a BD46     		mov	sp, r7
 334              	.LCFI23:
 335              		.cfi_def_cfa_register 13
 336              		@ sp needed
ARM GAS  /tmp/ccKfhE3W.s 			page 12


 337 000c 5DF8047B 		ldr	r7, [sp], #4
 338              	.LCFI24:
 339              		.cfi_restore 7
 340              		.cfi_def_cfa_offset 0
 341 0010 7047     		bx	lr
 342              	.L21:
 343 0012 00BF     		.align	2
 344              	.L20:
 345 0014 00000000 		.word	uwTick
 346              		.cfi_endproc
 347              	.LFE141:
 349              		.section	.text.HAL_Delay,"ax",%progbits
 350              		.align	2
 351              		.weak	HAL_Delay
 352              		.thumb
 353              		.thumb_func
 355              	HAL_Delay:
 356              	.LFB142:
 305:../../Drivers/STM32F7xx_HAL_Driver/Src/stm32f7xx_hal.c **** 
 306:../../Drivers/STM32F7xx_HAL_Driver/Src/stm32f7xx_hal.c **** /**
 307:../../Drivers/STM32F7xx_HAL_Driver/Src/stm32f7xx_hal.c ****   * @brief This function provides accurate delay (in milliseconds) based 
 308:../../Drivers/STM32F7xx_HAL_Driver/Src/stm32f7xx_hal.c ****   *        on variable incremented.
 309:../../Drivers/STM32F7xx_HAL_Driver/Src/stm32f7xx_hal.c ****   * @note In the default implementation , SysTick timer is the source of time base.
 310:../../Drivers/STM32F7xx_HAL_Driver/Src/stm32f7xx_hal.c ****   *       It is used to generate interrupts at regular time intervals where uwTick
 311:../../Drivers/STM32F7xx_HAL_Driver/Src/stm32f7xx_hal.c ****   *       is incremented.
 312:../../Drivers/STM32F7xx_HAL_Driver/Src/stm32f7xx_hal.c ****   * @note This function is declared as __weak to be overwritten in case of other
 313:../../Drivers/STM32F7xx_HAL_Driver/Src/stm32f7xx_hal.c ****   *       implementations in user file.
 314:../../Drivers/STM32F7xx_HAL_Driver/Src/stm32f7xx_hal.c ****   * @param Delay: specifies the delay time length, in milliseconds.
 315:../../Drivers/STM32F7xx_HAL_Driver/Src/stm32f7xx_hal.c ****   * @retval None
 316:../../Drivers/STM32F7xx_HAL_Driver/Src/stm32f7xx_hal.c ****   */
 317:../../Drivers/STM32F7xx_HAL_Driver/Src/stm32f7xx_hal.c **** __weak void HAL_Delay(__IO uint32_t Delay)
 318:../../Drivers/STM32F7xx_HAL_Driver/Src/stm32f7xx_hal.c **** {
 357              		.loc 1 318 0
 358              		.cfi_startproc
 359              		@ args = 0, pretend = 0, frame = 16
 360              		@ frame_needed = 1, uses_anonymous_args = 0
 361 0000 80B5     		push	{r7, lr}
 362              	.LCFI25:
 363              		.cfi_def_cfa_offset 8
 364              		.cfi_offset 7, -8
 365              		.cfi_offset 14, -4
 366 0002 84B0     		sub	sp, sp, #16
 367              	.LCFI26:
 368              		.cfi_def_cfa_offset 24
 369 0004 00AF     		add	r7, sp, #0
 370              	.LCFI27:
 371              		.cfi_def_cfa_register 7
 372 0006 7860     		str	r0, [r7, #4]
 319:../../Drivers/STM32F7xx_HAL_Driver/Src/stm32f7xx_hal.c ****   uint32_t tickstart = 0;
 373              		.loc 1 319 0
 374 0008 0023     		movs	r3, #0
 375 000a FB60     		str	r3, [r7, #12]
 320:../../Drivers/STM32F7xx_HAL_Driver/Src/stm32f7xx_hal.c ****   tickstart = HAL_GetTick();
 376              		.loc 1 320 0
 377 000c FFF7FEFF 		bl	HAL_GetTick
 378 0010 F860     		str	r0, [r7, #12]
 321:../../Drivers/STM32F7xx_HAL_Driver/Src/stm32f7xx_hal.c ****   while((HAL_GetTick() - tickstart) < Delay)
ARM GAS  /tmp/ccKfhE3W.s 			page 13


 379              		.loc 1 321 0
 380 0012 00BF     		nop
 381              	.L23:
 382              		.loc 1 321 0 is_stmt 0 discriminator 1
 383 0014 FFF7FEFF 		bl	HAL_GetTick
 384 0018 0246     		mov	r2, r0
 385 001a FB68     		ldr	r3, [r7, #12]
 386 001c D21A     		subs	r2, r2, r3
 387 001e 7B68     		ldr	r3, [r7, #4]
 388 0020 9A42     		cmp	r2, r3
 389 0022 F7D3     		bcc	.L23
 322:../../Drivers/STM32F7xx_HAL_Driver/Src/stm32f7xx_hal.c ****   {
 323:../../Drivers/STM32F7xx_HAL_Driver/Src/stm32f7xx_hal.c ****   }
 324:../../Drivers/STM32F7xx_HAL_Driver/Src/stm32f7xx_hal.c **** }
 390              		.loc 1 324 0 is_stmt 1
 391 0024 1037     		adds	r7, r7, #16
 392              	.LCFI28:
 393              		.cfi_def_cfa_offset 8
 394 0026 BD46     		mov	sp, r7
 395              	.LCFI29:
 396              		.cfi_def_cfa_register 13
 397              		@ sp needed
 398 0028 80BD     		pop	{r7, pc}
 399              		.cfi_endproc
 400              	.LFE142:
 402 002a 00BF     		.section	.text.HAL_SuspendTick,"ax",%progbits
 403              		.align	2
 404              		.weak	HAL_SuspendTick
 405              		.thumb
 406              		.thumb_func
 408              	HAL_SuspendTick:
 409              	.LFB143:
 325:../../Drivers/STM32F7xx_HAL_Driver/Src/stm32f7xx_hal.c **** 
 326:../../Drivers/STM32F7xx_HAL_Driver/Src/stm32f7xx_hal.c **** /**
 327:../../Drivers/STM32F7xx_HAL_Driver/Src/stm32f7xx_hal.c ****   * @brief Suspend Tick increment.
 328:../../Drivers/STM32F7xx_HAL_Driver/Src/stm32f7xx_hal.c ****   * @note In the default implementation , SysTick timer is the source of time base. It is
 329:../../Drivers/STM32F7xx_HAL_Driver/Src/stm32f7xx_hal.c ****   *       used to generate interrupts at regular time intervals. Once HAL_SuspendTick()
 330:../../Drivers/STM32F7xx_HAL_Driver/Src/stm32f7xx_hal.c ****   *       is called, the SysTick interrupt will be disabled and so Tick increment 
 331:../../Drivers/STM32F7xx_HAL_Driver/Src/stm32f7xx_hal.c ****   *       is suspended.
 332:../../Drivers/STM32F7xx_HAL_Driver/Src/stm32f7xx_hal.c ****   * @note This function is declared as __weak to be overwritten in case of other
 333:../../Drivers/STM32F7xx_HAL_Driver/Src/stm32f7xx_hal.c ****   *       implementations in user file.
 334:../../Drivers/STM32F7xx_HAL_Driver/Src/stm32f7xx_hal.c ****   * @retval None
 335:../../Drivers/STM32F7xx_HAL_Driver/Src/stm32f7xx_hal.c ****   */
 336:../../Drivers/STM32F7xx_HAL_Driver/Src/stm32f7xx_hal.c **** __weak void HAL_SuspendTick(void)
 337:../../Drivers/STM32F7xx_HAL_Driver/Src/stm32f7xx_hal.c **** {
 410              		.loc 1 337 0
 411              		.cfi_startproc
 412              		@ args = 0, pretend = 0, frame = 0
 413              		@ frame_needed = 1, uses_anonymous_args = 0
 414              		@ link register save eliminated.
 415 0000 80B4     		push	{r7}
 416              	.LCFI30:
 417              		.cfi_def_cfa_offset 4
 418              		.cfi_offset 7, -4
 419 0002 00AF     		add	r7, sp, #0
 420              	.LCFI31:
 421              		.cfi_def_cfa_register 7
ARM GAS  /tmp/ccKfhE3W.s 			page 14


 338:../../Drivers/STM32F7xx_HAL_Driver/Src/stm32f7xx_hal.c ****   /* Disable SysTick Interrupt */
 339:../../Drivers/STM32F7xx_HAL_Driver/Src/stm32f7xx_hal.c ****   SysTick->CTRL &= ~SysTick_CTRL_TICKINT_Msk;
 422              		.loc 1 339 0
 423 0004 044A     		ldr	r2, .L25
 424 0006 044B     		ldr	r3, .L25
 425 0008 1B68     		ldr	r3, [r3]
 426 000a 23F00203 		bic	r3, r3, #2
 427 000e 1360     		str	r3, [r2]
 340:../../Drivers/STM32F7xx_HAL_Driver/Src/stm32f7xx_hal.c **** }
 428              		.loc 1 340 0
 429 0010 BD46     		mov	sp, r7
 430              	.LCFI32:
 431              		.cfi_def_cfa_register 13
 432              		@ sp needed
 433 0012 5DF8047B 		ldr	r7, [sp], #4
 434              	.LCFI33:
 435              		.cfi_restore 7
 436              		.cfi_def_cfa_offset 0
 437 0016 7047     		bx	lr
 438              	.L26:
 439              		.align	2
 440              	.L25:
 441 0018 10E000E0 		.word	-536813552
 442              		.cfi_endproc
 443              	.LFE143:
 445              		.section	.text.HAL_ResumeTick,"ax",%progbits
 446              		.align	2
 447              		.weak	HAL_ResumeTick
 448              		.thumb
 449              		.thumb_func
 451              	HAL_ResumeTick:
 452              	.LFB144:
 341:../../Drivers/STM32F7xx_HAL_Driver/Src/stm32f7xx_hal.c **** 
 342:../../Drivers/STM32F7xx_HAL_Driver/Src/stm32f7xx_hal.c **** /**
 343:../../Drivers/STM32F7xx_HAL_Driver/Src/stm32f7xx_hal.c ****   * @brief Resume Tick increment.
 344:../../Drivers/STM32F7xx_HAL_Driver/Src/stm32f7xx_hal.c ****   * @note In the default implementation , SysTick timer is the source of time base. It is
 345:../../Drivers/STM32F7xx_HAL_Driver/Src/stm32f7xx_hal.c ****   *       used to generate interrupts at regular time intervals. Once HAL_ResumeTick()
 346:../../Drivers/STM32F7xx_HAL_Driver/Src/stm32f7xx_hal.c ****   *       is called, the SysTick interrupt will be enabled and so Tick increment 
 347:../../Drivers/STM32F7xx_HAL_Driver/Src/stm32f7xx_hal.c ****   *       is resumed.
 348:../../Drivers/STM32F7xx_HAL_Driver/Src/stm32f7xx_hal.c ****   * @note This function is declared as __weak to be overwritten in case of other
 349:../../Drivers/STM32F7xx_HAL_Driver/Src/stm32f7xx_hal.c ****   *       implementations in user file.
 350:../../Drivers/STM32F7xx_HAL_Driver/Src/stm32f7xx_hal.c ****   * @retval None
 351:../../Drivers/STM32F7xx_HAL_Driver/Src/stm32f7xx_hal.c ****   */
 352:../../Drivers/STM32F7xx_HAL_Driver/Src/stm32f7xx_hal.c **** __weak void HAL_ResumeTick(void)
 353:../../Drivers/STM32F7xx_HAL_Driver/Src/stm32f7xx_hal.c **** {
 453              		.loc 1 353 0
 454              		.cfi_startproc
 455              		@ args = 0, pretend = 0, frame = 0
 456              		@ frame_needed = 1, uses_anonymous_args = 0
 457              		@ link register save eliminated.
 458 0000 80B4     		push	{r7}
 459              	.LCFI34:
 460              		.cfi_def_cfa_offset 4
 461              		.cfi_offset 7, -4
 462 0002 00AF     		add	r7, sp, #0
 463              	.LCFI35:
 464              		.cfi_def_cfa_register 7
ARM GAS  /tmp/ccKfhE3W.s 			page 15


 354:../../Drivers/STM32F7xx_HAL_Driver/Src/stm32f7xx_hal.c ****   /* Enable SysTick Interrupt */
 355:../../Drivers/STM32F7xx_HAL_Driver/Src/stm32f7xx_hal.c ****   SysTick->CTRL  |= SysTick_CTRL_TICKINT_Msk;
 465              		.loc 1 355 0
 466 0004 044A     		ldr	r2, .L28
 467 0006 044B     		ldr	r3, .L28
 468 0008 1B68     		ldr	r3, [r3]
 469 000a 43F00203 		orr	r3, r3, #2
 470 000e 1360     		str	r3, [r2]
 356:../../Drivers/STM32F7xx_HAL_Driver/Src/stm32f7xx_hal.c **** }
 471              		.loc 1 356 0
 472 0010 BD46     		mov	sp, r7
 473              	.LCFI36:
 474              		.cfi_def_cfa_register 13
 475              		@ sp needed
 476 0012 5DF8047B 		ldr	r7, [sp], #4
 477              	.LCFI37:
 478              		.cfi_restore 7
 479              		.cfi_def_cfa_offset 0
 480 0016 7047     		bx	lr
 481              	.L29:
 482              		.align	2
 483              	.L28:
 484 0018 10E000E0 		.word	-536813552
 485              		.cfi_endproc
 486              	.LFE144:
 488              		.section	.text.HAL_GetHalVersion,"ax",%progbits
 489              		.align	2
 490              		.global	HAL_GetHalVersion
 491              		.thumb
 492              		.thumb_func
 494              	HAL_GetHalVersion:
 495              	.LFB145:
 357:../../Drivers/STM32F7xx_HAL_Driver/Src/stm32f7xx_hal.c **** 
 358:../../Drivers/STM32F7xx_HAL_Driver/Src/stm32f7xx_hal.c **** /**
 359:../../Drivers/STM32F7xx_HAL_Driver/Src/stm32f7xx_hal.c ****   * @brief  Returns the HAL revision
 360:../../Drivers/STM32F7xx_HAL_Driver/Src/stm32f7xx_hal.c ****   * @retval version : 0xXYZR (8bits for each decimal, R for RC)
 361:../../Drivers/STM32F7xx_HAL_Driver/Src/stm32f7xx_hal.c ****   */
 362:../../Drivers/STM32F7xx_HAL_Driver/Src/stm32f7xx_hal.c **** uint32_t HAL_GetHalVersion(void)
 363:../../Drivers/STM32F7xx_HAL_Driver/Src/stm32f7xx_hal.c **** {
 496              		.loc 1 363 0
 497              		.cfi_startproc
 498              		@ args = 0, pretend = 0, frame = 0
 499              		@ frame_needed = 1, uses_anonymous_args = 0
 500              		@ link register save eliminated.
 501 0000 80B4     		push	{r7}
 502              	.LCFI38:
 503              		.cfi_def_cfa_offset 4
 504              		.cfi_offset 7, -4
 505 0002 00AF     		add	r7, sp, #0
 506              	.LCFI39:
 507              		.cfi_def_cfa_register 7
 364:../../Drivers/STM32F7xx_HAL_Driver/Src/stm32f7xx_hal.c ****  return __STM32F7xx_HAL_VERSION;
 508              		.loc 1 364 0
 509 0004 024B     		ldr	r3, .L32
 365:../../Drivers/STM32F7xx_HAL_Driver/Src/stm32f7xx_hal.c **** }
 510              		.loc 1 365 0
 511 0006 1846     		mov	r0, r3
ARM GAS  /tmp/ccKfhE3W.s 			page 16


 512 0008 BD46     		mov	sp, r7
 513              	.LCFI40:
 514              		.cfi_def_cfa_register 13
 515              		@ sp needed
 516 000a 5DF8047B 		ldr	r7, [sp], #4
 517              	.LCFI41:
 518              		.cfi_restore 7
 519              		.cfi_def_cfa_offset 0
 520 000e 7047     		bx	lr
 521              	.L33:
 522              		.align	2
 523              	.L32:
 524 0010 00020101 		.word	16843264
 525              		.cfi_endproc
 526              	.LFE145:
 528              		.section	.text.HAL_GetREVID,"ax",%progbits
 529              		.align	2
 530              		.global	HAL_GetREVID
 531              		.thumb
 532              		.thumb_func
 534              	HAL_GetREVID:
 535              	.LFB146:
 366:../../Drivers/STM32F7xx_HAL_Driver/Src/stm32f7xx_hal.c **** 
 367:../../Drivers/STM32F7xx_HAL_Driver/Src/stm32f7xx_hal.c **** /**
 368:../../Drivers/STM32F7xx_HAL_Driver/Src/stm32f7xx_hal.c ****   * @brief  Returns the device revision identifier.
 369:../../Drivers/STM32F7xx_HAL_Driver/Src/stm32f7xx_hal.c ****   * @retval Device revision identifier
 370:../../Drivers/STM32F7xx_HAL_Driver/Src/stm32f7xx_hal.c ****   */
 371:../../Drivers/STM32F7xx_HAL_Driver/Src/stm32f7xx_hal.c **** uint32_t HAL_GetREVID(void)
 372:../../Drivers/STM32F7xx_HAL_Driver/Src/stm32f7xx_hal.c **** {
 536              		.loc 1 372 0
 537              		.cfi_startproc
 538              		@ args = 0, pretend = 0, frame = 0
 539              		@ frame_needed = 1, uses_anonymous_args = 0
 540              		@ link register save eliminated.
 541 0000 80B4     		push	{r7}
 542              	.LCFI42:
 543              		.cfi_def_cfa_offset 4
 544              		.cfi_offset 7, -4
 545 0002 00AF     		add	r7, sp, #0
 546              	.LCFI43:
 547              		.cfi_def_cfa_register 7
 373:../../Drivers/STM32F7xx_HAL_Driver/Src/stm32f7xx_hal.c ****    return((DBGMCU->IDCODE) >> 16U);
 548              		.loc 1 373 0
 549 0004 034B     		ldr	r3, .L36
 550 0006 1B68     		ldr	r3, [r3]
 551 0008 1B0C     		lsrs	r3, r3, #16
 374:../../Drivers/STM32F7xx_HAL_Driver/Src/stm32f7xx_hal.c **** }
 552              		.loc 1 374 0
 553 000a 1846     		mov	r0, r3
 554 000c BD46     		mov	sp, r7
 555              	.LCFI44:
 556              		.cfi_def_cfa_register 13
 557              		@ sp needed
 558 000e 5DF8047B 		ldr	r7, [sp], #4
 559              	.LCFI45:
 560              		.cfi_restore 7
 561              		.cfi_def_cfa_offset 0
ARM GAS  /tmp/ccKfhE3W.s 			page 17


 562 0012 7047     		bx	lr
 563              	.L37:
 564              		.align	2
 565              	.L36:
 566 0014 002004E0 		.word	-536600576
 567              		.cfi_endproc
 568              	.LFE146:
 570              		.section	.text.HAL_GetDEVID,"ax",%progbits
 571              		.align	2
 572              		.global	HAL_GetDEVID
 573              		.thumb
 574              		.thumb_func
 576              	HAL_GetDEVID:
 577              	.LFB147:
 375:../../Drivers/STM32F7xx_HAL_Driver/Src/stm32f7xx_hal.c **** 
 376:../../Drivers/STM32F7xx_HAL_Driver/Src/stm32f7xx_hal.c **** /**
 377:../../Drivers/STM32F7xx_HAL_Driver/Src/stm32f7xx_hal.c ****   * @brief  Returns the device identifier.
 378:../../Drivers/STM32F7xx_HAL_Driver/Src/stm32f7xx_hal.c ****   * @retval Device identifier
 379:../../Drivers/STM32F7xx_HAL_Driver/Src/stm32f7xx_hal.c ****   */
 380:../../Drivers/STM32F7xx_HAL_Driver/Src/stm32f7xx_hal.c **** uint32_t HAL_GetDEVID(void)
 381:../../Drivers/STM32F7xx_HAL_Driver/Src/stm32f7xx_hal.c **** {
 578              		.loc 1 381 0
 579              		.cfi_startproc
 580              		@ args = 0, pretend = 0, frame = 0
 581              		@ frame_needed = 1, uses_anonymous_args = 0
 582              		@ link register save eliminated.
 583 0000 80B4     		push	{r7}
 584              	.LCFI46:
 585              		.cfi_def_cfa_offset 4
 586              		.cfi_offset 7, -4
 587 0002 00AF     		add	r7, sp, #0
 588              	.LCFI47:
 589              		.cfi_def_cfa_register 7
 382:../../Drivers/STM32F7xx_HAL_Driver/Src/stm32f7xx_hal.c ****    return((DBGMCU->IDCODE) & IDCODE_DEVID_MASK);
 590              		.loc 1 382 0
 591 0004 044B     		ldr	r3, .L40
 592 0006 1B68     		ldr	r3, [r3]
 593 0008 C3F30B03 		ubfx	r3, r3, #0, #12
 383:../../Drivers/STM32F7xx_HAL_Driver/Src/stm32f7xx_hal.c **** }
 594              		.loc 1 383 0
 595 000c 1846     		mov	r0, r3
 596 000e BD46     		mov	sp, r7
 597              	.LCFI48:
 598              		.cfi_def_cfa_register 13
 599              		@ sp needed
 600 0010 5DF8047B 		ldr	r7, [sp], #4
 601              	.LCFI49:
 602              		.cfi_restore 7
 603              		.cfi_def_cfa_offset 0
 604 0014 7047     		bx	lr
 605              	.L41:
 606 0016 00BF     		.align	2
 607              	.L40:
 608 0018 002004E0 		.word	-536600576
 609              		.cfi_endproc
 610              	.LFE147:
 612              		.section	.text.HAL_DBGMCU_EnableDBGSleepMode,"ax",%progbits
ARM GAS  /tmp/ccKfhE3W.s 			page 18


 613              		.align	2
 614              		.global	HAL_DBGMCU_EnableDBGSleepMode
 615              		.thumb
 616              		.thumb_func
 618              	HAL_DBGMCU_EnableDBGSleepMode:
 619              	.LFB148:
 384:../../Drivers/STM32F7xx_HAL_Driver/Src/stm32f7xx_hal.c **** 
 385:../../Drivers/STM32F7xx_HAL_Driver/Src/stm32f7xx_hal.c **** /**
 386:../../Drivers/STM32F7xx_HAL_Driver/Src/stm32f7xx_hal.c ****   * @brief  Enable the Debug Module during SLEEP mode
 387:../../Drivers/STM32F7xx_HAL_Driver/Src/stm32f7xx_hal.c ****   * @retval None
 388:../../Drivers/STM32F7xx_HAL_Driver/Src/stm32f7xx_hal.c ****   */
 389:../../Drivers/STM32F7xx_HAL_Driver/Src/stm32f7xx_hal.c **** void HAL_DBGMCU_EnableDBGSleepMode(void)
 390:../../Drivers/STM32F7xx_HAL_Driver/Src/stm32f7xx_hal.c **** {
 620              		.loc 1 390 0
 621              		.cfi_startproc
 622              		@ args = 0, pretend = 0, frame = 0
 623              		@ frame_needed = 1, uses_anonymous_args = 0
 624              		@ link register save eliminated.
 625 0000 80B4     		push	{r7}
 626              	.LCFI50:
 627              		.cfi_def_cfa_offset 4
 628              		.cfi_offset 7, -4
 629 0002 00AF     		add	r7, sp, #0
 630              	.LCFI51:
 631              		.cfi_def_cfa_register 7
 391:../../Drivers/STM32F7xx_HAL_Driver/Src/stm32f7xx_hal.c ****   SET_BIT(DBGMCU->CR, DBGMCU_CR_DBG_SLEEP);
 632              		.loc 1 391 0
 633 0004 044A     		ldr	r2, .L43
 634 0006 044B     		ldr	r3, .L43
 635 0008 5B68     		ldr	r3, [r3, #4]
 636 000a 43F00103 		orr	r3, r3, #1
 637 000e 5360     		str	r3, [r2, #4]
 392:../../Drivers/STM32F7xx_HAL_Driver/Src/stm32f7xx_hal.c **** }
 638              		.loc 1 392 0
 639 0010 BD46     		mov	sp, r7
 640              	.LCFI52:
 641              		.cfi_def_cfa_register 13
 642              		@ sp needed
 643 0012 5DF8047B 		ldr	r7, [sp], #4
 644              	.LCFI53:
 645              		.cfi_restore 7
 646              		.cfi_def_cfa_offset 0
 647 0016 7047     		bx	lr
 648              	.L44:
 649              		.align	2
 650              	.L43:
 651 0018 002004E0 		.word	-536600576
 652              		.cfi_endproc
 653              	.LFE148:
 655              		.section	.text.HAL_DBGMCU_DisableDBGSleepMode,"ax",%progbits
 656              		.align	2
 657              		.global	HAL_DBGMCU_DisableDBGSleepMode
 658              		.thumb
 659              		.thumb_func
 661              	HAL_DBGMCU_DisableDBGSleepMode:
 662              	.LFB149:
 393:../../Drivers/STM32F7xx_HAL_Driver/Src/stm32f7xx_hal.c **** 
ARM GAS  /tmp/ccKfhE3W.s 			page 19


 394:../../Drivers/STM32F7xx_HAL_Driver/Src/stm32f7xx_hal.c **** /**
 395:../../Drivers/STM32F7xx_HAL_Driver/Src/stm32f7xx_hal.c ****   * @brief  Disable the Debug Module during SLEEP mode
 396:../../Drivers/STM32F7xx_HAL_Driver/Src/stm32f7xx_hal.c ****   * @retval None
 397:../../Drivers/STM32F7xx_HAL_Driver/Src/stm32f7xx_hal.c ****   */
 398:../../Drivers/STM32F7xx_HAL_Driver/Src/stm32f7xx_hal.c **** void HAL_DBGMCU_DisableDBGSleepMode(void)
 399:../../Drivers/STM32F7xx_HAL_Driver/Src/stm32f7xx_hal.c **** {
 663              		.loc 1 399 0
 664              		.cfi_startproc
 665              		@ args = 0, pretend = 0, frame = 0
 666              		@ frame_needed = 1, uses_anonymous_args = 0
 667              		@ link register save eliminated.
 668 0000 80B4     		push	{r7}
 669              	.LCFI54:
 670              		.cfi_def_cfa_offset 4
 671              		.cfi_offset 7, -4
 672 0002 00AF     		add	r7, sp, #0
 673              	.LCFI55:
 674              		.cfi_def_cfa_register 7
 400:../../Drivers/STM32F7xx_HAL_Driver/Src/stm32f7xx_hal.c ****   CLEAR_BIT(DBGMCU->CR, DBGMCU_CR_DBG_SLEEP);
 675              		.loc 1 400 0
 676 0004 044A     		ldr	r2, .L46
 677 0006 044B     		ldr	r3, .L46
 678 0008 5B68     		ldr	r3, [r3, #4]
 679 000a 23F00103 		bic	r3, r3, #1
 680 000e 5360     		str	r3, [r2, #4]
 401:../../Drivers/STM32F7xx_HAL_Driver/Src/stm32f7xx_hal.c **** }
 681              		.loc 1 401 0
 682 0010 BD46     		mov	sp, r7
 683              	.LCFI56:
 684              		.cfi_def_cfa_register 13
 685              		@ sp needed
 686 0012 5DF8047B 		ldr	r7, [sp], #4
 687              	.LCFI57:
 688              		.cfi_restore 7
 689              		.cfi_def_cfa_offset 0
 690 0016 7047     		bx	lr
 691              	.L47:
 692              		.align	2
 693              	.L46:
 694 0018 002004E0 		.word	-536600576
 695              		.cfi_endproc
 696              	.LFE149:
 698              		.section	.text.HAL_DBGMCU_EnableDBGStopMode,"ax",%progbits
 699              		.align	2
 700              		.global	HAL_DBGMCU_EnableDBGStopMode
 701              		.thumb
 702              		.thumb_func
 704              	HAL_DBGMCU_EnableDBGStopMode:
 705              	.LFB150:
 402:../../Drivers/STM32F7xx_HAL_Driver/Src/stm32f7xx_hal.c **** 
 403:../../Drivers/STM32F7xx_HAL_Driver/Src/stm32f7xx_hal.c **** /**
 404:../../Drivers/STM32F7xx_HAL_Driver/Src/stm32f7xx_hal.c ****   * @brief  Enable the Debug Module during STOP mode
 405:../../Drivers/STM32F7xx_HAL_Driver/Src/stm32f7xx_hal.c ****   * @retval None
 406:../../Drivers/STM32F7xx_HAL_Driver/Src/stm32f7xx_hal.c ****   */
 407:../../Drivers/STM32F7xx_HAL_Driver/Src/stm32f7xx_hal.c **** void HAL_DBGMCU_EnableDBGStopMode(void)
 408:../../Drivers/STM32F7xx_HAL_Driver/Src/stm32f7xx_hal.c **** {
 706              		.loc 1 408 0
ARM GAS  /tmp/ccKfhE3W.s 			page 20


 707              		.cfi_startproc
 708              		@ args = 0, pretend = 0, frame = 0
 709              		@ frame_needed = 1, uses_anonymous_args = 0
 710              		@ link register save eliminated.
 711 0000 80B4     		push	{r7}
 712              	.LCFI58:
 713              		.cfi_def_cfa_offset 4
 714              		.cfi_offset 7, -4
 715 0002 00AF     		add	r7, sp, #0
 716              	.LCFI59:
 717              		.cfi_def_cfa_register 7
 409:../../Drivers/STM32F7xx_HAL_Driver/Src/stm32f7xx_hal.c ****   SET_BIT(DBGMCU->CR, DBGMCU_CR_DBG_STOP);
 718              		.loc 1 409 0
 719 0004 044A     		ldr	r2, .L49
 720 0006 044B     		ldr	r3, .L49
 721 0008 5B68     		ldr	r3, [r3, #4]
 722 000a 43F00203 		orr	r3, r3, #2
 723 000e 5360     		str	r3, [r2, #4]
 410:../../Drivers/STM32F7xx_HAL_Driver/Src/stm32f7xx_hal.c **** }
 724              		.loc 1 410 0
 725 0010 BD46     		mov	sp, r7
 726              	.LCFI60:
 727              		.cfi_def_cfa_register 13
 728              		@ sp needed
 729 0012 5DF8047B 		ldr	r7, [sp], #4
 730              	.LCFI61:
 731              		.cfi_restore 7
 732              		.cfi_def_cfa_offset 0
 733 0016 7047     		bx	lr
 734              	.L50:
 735              		.align	2
 736              	.L49:
 737 0018 002004E0 		.word	-536600576
 738              		.cfi_endproc
 739              	.LFE150:
 741              		.section	.text.HAL_DBGMCU_DisableDBGStopMode,"ax",%progbits
 742              		.align	2
 743              		.global	HAL_DBGMCU_DisableDBGStopMode
 744              		.thumb
 745              		.thumb_func
 747              	HAL_DBGMCU_DisableDBGStopMode:
 748              	.LFB151:
 411:../../Drivers/STM32F7xx_HAL_Driver/Src/stm32f7xx_hal.c **** 
 412:../../Drivers/STM32F7xx_HAL_Driver/Src/stm32f7xx_hal.c **** /**
 413:../../Drivers/STM32F7xx_HAL_Driver/Src/stm32f7xx_hal.c ****   * @brief  Disable the Debug Module during STOP mode
 414:../../Drivers/STM32F7xx_HAL_Driver/Src/stm32f7xx_hal.c ****   * @retval None
 415:../../Drivers/STM32F7xx_HAL_Driver/Src/stm32f7xx_hal.c ****   */
 416:../../Drivers/STM32F7xx_HAL_Driver/Src/stm32f7xx_hal.c **** void HAL_DBGMCU_DisableDBGStopMode(void)
 417:../../Drivers/STM32F7xx_HAL_Driver/Src/stm32f7xx_hal.c **** {
 749              		.loc 1 417 0
 750              		.cfi_startproc
 751              		@ args = 0, pretend = 0, frame = 0
 752              		@ frame_needed = 1, uses_anonymous_args = 0
 753              		@ link register save eliminated.
 754 0000 80B4     		push	{r7}
 755              	.LCFI62:
 756              		.cfi_def_cfa_offset 4
ARM GAS  /tmp/ccKfhE3W.s 			page 21


 757              		.cfi_offset 7, -4
 758 0002 00AF     		add	r7, sp, #0
 759              	.LCFI63:
 760              		.cfi_def_cfa_register 7
 418:../../Drivers/STM32F7xx_HAL_Driver/Src/stm32f7xx_hal.c ****   CLEAR_BIT(DBGMCU->CR, DBGMCU_CR_DBG_STOP);
 761              		.loc 1 418 0
 762 0004 044A     		ldr	r2, .L52
 763 0006 044B     		ldr	r3, .L52
 764 0008 5B68     		ldr	r3, [r3, #4]
 765 000a 23F00203 		bic	r3, r3, #2
 766 000e 5360     		str	r3, [r2, #4]
 419:../../Drivers/STM32F7xx_HAL_Driver/Src/stm32f7xx_hal.c **** }
 767              		.loc 1 419 0
 768 0010 BD46     		mov	sp, r7
 769              	.LCFI64:
 770              		.cfi_def_cfa_register 13
 771              		@ sp needed
 772 0012 5DF8047B 		ldr	r7, [sp], #4
 773              	.LCFI65:
 774              		.cfi_restore 7
 775              		.cfi_def_cfa_offset 0
 776 0016 7047     		bx	lr
 777              	.L53:
 778              		.align	2
 779              	.L52:
 780 0018 002004E0 		.word	-536600576
 781              		.cfi_endproc
 782              	.LFE151:
 784              		.section	.text.HAL_DBGMCU_EnableDBGStandbyMode,"ax",%progbits
 785              		.align	2
 786              		.global	HAL_DBGMCU_EnableDBGStandbyMode
 787              		.thumb
 788              		.thumb_func
 790              	HAL_DBGMCU_EnableDBGStandbyMode:
 791              	.LFB152:
 420:../../Drivers/STM32F7xx_HAL_Driver/Src/stm32f7xx_hal.c **** 
 421:../../Drivers/STM32F7xx_HAL_Driver/Src/stm32f7xx_hal.c **** /**
 422:../../Drivers/STM32F7xx_HAL_Driver/Src/stm32f7xx_hal.c ****   * @brief  Enable the Debug Module during STANDBY mode
 423:../../Drivers/STM32F7xx_HAL_Driver/Src/stm32f7xx_hal.c ****   * @retval None
 424:../../Drivers/STM32F7xx_HAL_Driver/Src/stm32f7xx_hal.c ****   */
 425:../../Drivers/STM32F7xx_HAL_Driver/Src/stm32f7xx_hal.c **** void HAL_DBGMCU_EnableDBGStandbyMode(void)
 426:../../Drivers/STM32F7xx_HAL_Driver/Src/stm32f7xx_hal.c **** {
 792              		.loc 1 426 0
 793              		.cfi_startproc
 794              		@ args = 0, pretend = 0, frame = 0
 795              		@ frame_needed = 1, uses_anonymous_args = 0
 796              		@ link register save eliminated.
 797 0000 80B4     		push	{r7}
 798              	.LCFI66:
 799              		.cfi_def_cfa_offset 4
 800              		.cfi_offset 7, -4
 801 0002 00AF     		add	r7, sp, #0
 802              	.LCFI67:
 803              		.cfi_def_cfa_register 7
 427:../../Drivers/STM32F7xx_HAL_Driver/Src/stm32f7xx_hal.c ****   SET_BIT(DBGMCU->CR, DBGMCU_CR_DBG_STANDBY);
 804              		.loc 1 427 0
 805 0004 044A     		ldr	r2, .L55
ARM GAS  /tmp/ccKfhE3W.s 			page 22


 806 0006 044B     		ldr	r3, .L55
 807 0008 5B68     		ldr	r3, [r3, #4]
 808 000a 43F00403 		orr	r3, r3, #4
 809 000e 5360     		str	r3, [r2, #4]
 428:../../Drivers/STM32F7xx_HAL_Driver/Src/stm32f7xx_hal.c **** }
 810              		.loc 1 428 0
 811 0010 BD46     		mov	sp, r7
 812              	.LCFI68:
 813              		.cfi_def_cfa_register 13
 814              		@ sp needed
 815 0012 5DF8047B 		ldr	r7, [sp], #4
 816              	.LCFI69:
 817              		.cfi_restore 7
 818              		.cfi_def_cfa_offset 0
 819 0016 7047     		bx	lr
 820              	.L56:
 821              		.align	2
 822              	.L55:
 823 0018 002004E0 		.word	-536600576
 824              		.cfi_endproc
 825              	.LFE152:
 827              		.section	.text.HAL_DBGMCU_DisableDBGStandbyMode,"ax",%progbits
 828              		.align	2
 829              		.global	HAL_DBGMCU_DisableDBGStandbyMode
 830              		.thumb
 831              		.thumb_func
 833              	HAL_DBGMCU_DisableDBGStandbyMode:
 834              	.LFB153:
 429:../../Drivers/STM32F7xx_HAL_Driver/Src/stm32f7xx_hal.c **** 
 430:../../Drivers/STM32F7xx_HAL_Driver/Src/stm32f7xx_hal.c **** /**
 431:../../Drivers/STM32F7xx_HAL_Driver/Src/stm32f7xx_hal.c ****   * @brief  Disable the Debug Module during STANDBY mode
 432:../../Drivers/STM32F7xx_HAL_Driver/Src/stm32f7xx_hal.c ****   * @retval None
 433:../../Drivers/STM32F7xx_HAL_Driver/Src/stm32f7xx_hal.c ****   */
 434:../../Drivers/STM32F7xx_HAL_Driver/Src/stm32f7xx_hal.c **** void HAL_DBGMCU_DisableDBGStandbyMode(void)
 435:../../Drivers/STM32F7xx_HAL_Driver/Src/stm32f7xx_hal.c **** {
 835              		.loc 1 435 0
 836              		.cfi_startproc
 837              		@ args = 0, pretend = 0, frame = 0
 838              		@ frame_needed = 1, uses_anonymous_args = 0
 839              		@ link register save eliminated.
 840 0000 80B4     		push	{r7}
 841              	.LCFI70:
 842              		.cfi_def_cfa_offset 4
 843              		.cfi_offset 7, -4
 844 0002 00AF     		add	r7, sp, #0
 845              	.LCFI71:
 846              		.cfi_def_cfa_register 7
 436:../../Drivers/STM32F7xx_HAL_Driver/Src/stm32f7xx_hal.c ****   CLEAR_BIT(DBGMCU->CR, DBGMCU_CR_DBG_STANDBY);
 847              		.loc 1 436 0
 848 0004 044A     		ldr	r2, .L58
 849 0006 044B     		ldr	r3, .L58
 850 0008 5B68     		ldr	r3, [r3, #4]
 851 000a 23F00403 		bic	r3, r3, #4
 852 000e 5360     		str	r3, [r2, #4]
 437:../../Drivers/STM32F7xx_HAL_Driver/Src/stm32f7xx_hal.c **** }
 853              		.loc 1 437 0
 854 0010 BD46     		mov	sp, r7
ARM GAS  /tmp/ccKfhE3W.s 			page 23


 855              	.LCFI72:
 856              		.cfi_def_cfa_register 13
 857              		@ sp needed
 858 0012 5DF8047B 		ldr	r7, [sp], #4
 859              	.LCFI73:
 860              		.cfi_restore 7
 861              		.cfi_def_cfa_offset 0
 862 0016 7047     		bx	lr
 863              	.L59:
 864              		.align	2
 865              	.L58:
 866 0018 002004E0 		.word	-536600576
 867              		.cfi_endproc
 868              	.LFE153:
 870              		.section	.text.HAL_EnableCompensationCell,"ax",%progbits
 871              		.align	2
 872              		.global	HAL_EnableCompensationCell
 873              		.thumb
 874              		.thumb_func
 876              	HAL_EnableCompensationCell:
 877              	.LFB154:
 438:../../Drivers/STM32F7xx_HAL_Driver/Src/stm32f7xx_hal.c **** 
 439:../../Drivers/STM32F7xx_HAL_Driver/Src/stm32f7xx_hal.c **** /**
 440:../../Drivers/STM32F7xx_HAL_Driver/Src/stm32f7xx_hal.c ****   * @brief  Enables the I/O Compensation Cell.
 441:../../Drivers/STM32F7xx_HAL_Driver/Src/stm32f7xx_hal.c ****   * @note   The I/O compensation cell can be used only when the device supply
 442:../../Drivers/STM32F7xx_HAL_Driver/Src/stm32f7xx_hal.c ****   *         voltage ranges from 2.4 to 3.6 V.  
 443:../../Drivers/STM32F7xx_HAL_Driver/Src/stm32f7xx_hal.c ****   * @retval None
 444:../../Drivers/STM32F7xx_HAL_Driver/Src/stm32f7xx_hal.c ****   */
 445:../../Drivers/STM32F7xx_HAL_Driver/Src/stm32f7xx_hal.c **** void HAL_EnableCompensationCell(void)
 446:../../Drivers/STM32F7xx_HAL_Driver/Src/stm32f7xx_hal.c **** {
 878              		.loc 1 446 0
 879              		.cfi_startproc
 880              		@ args = 0, pretend = 0, frame = 0
 881              		@ frame_needed = 1, uses_anonymous_args = 0
 882              		@ link register save eliminated.
 883 0000 80B4     		push	{r7}
 884              	.LCFI74:
 885              		.cfi_def_cfa_offset 4
 886              		.cfi_offset 7, -4
 887 0002 00AF     		add	r7, sp, #0
 888              	.LCFI75:
 889              		.cfi_def_cfa_register 7
 447:../../Drivers/STM32F7xx_HAL_Driver/Src/stm32f7xx_hal.c ****   SYSCFG->CMPCR |= SYSCFG_CMPCR_CMP_PD;
 890              		.loc 1 447 0
 891 0004 044A     		ldr	r2, .L61
 892 0006 044B     		ldr	r3, .L61
 893 0008 1B6A     		ldr	r3, [r3, #32]
 894 000a 43F00103 		orr	r3, r3, #1
 895 000e 1362     		str	r3, [r2, #32]
 448:../../Drivers/STM32F7xx_HAL_Driver/Src/stm32f7xx_hal.c **** }
 896              		.loc 1 448 0
 897 0010 BD46     		mov	sp, r7
 898              	.LCFI76:
 899              		.cfi_def_cfa_register 13
 900              		@ sp needed
 901 0012 5DF8047B 		ldr	r7, [sp], #4
 902              	.LCFI77:
ARM GAS  /tmp/ccKfhE3W.s 			page 24


 903              		.cfi_restore 7
 904              		.cfi_def_cfa_offset 0
 905 0016 7047     		bx	lr
 906              	.L62:
 907              		.align	2
 908              	.L61:
 909 0018 00380140 		.word	1073821696
 910              		.cfi_endproc
 911              	.LFE154:
 913              		.section	.text.HAL_DisableCompensationCell,"ax",%progbits
 914              		.align	2
 915              		.global	HAL_DisableCompensationCell
 916              		.thumb
 917              		.thumb_func
 919              	HAL_DisableCompensationCell:
 920              	.LFB155:
 449:../../Drivers/STM32F7xx_HAL_Driver/Src/stm32f7xx_hal.c **** 
 450:../../Drivers/STM32F7xx_HAL_Driver/Src/stm32f7xx_hal.c **** /**
 451:../../Drivers/STM32F7xx_HAL_Driver/Src/stm32f7xx_hal.c ****   * @brief  Power-down the I/O Compensation Cell.
 452:../../Drivers/STM32F7xx_HAL_Driver/Src/stm32f7xx_hal.c ****   * @note   The I/O compensation cell can be used only when the device supply
 453:../../Drivers/STM32F7xx_HAL_Driver/Src/stm32f7xx_hal.c ****   *         voltage ranges from 2.4 to 3.6 V.  
 454:../../Drivers/STM32F7xx_HAL_Driver/Src/stm32f7xx_hal.c ****   * @retval None
 455:../../Drivers/STM32F7xx_HAL_Driver/Src/stm32f7xx_hal.c ****   */
 456:../../Drivers/STM32F7xx_HAL_Driver/Src/stm32f7xx_hal.c **** void HAL_DisableCompensationCell(void)
 457:../../Drivers/STM32F7xx_HAL_Driver/Src/stm32f7xx_hal.c **** {
 921              		.loc 1 457 0
 922              		.cfi_startproc
 923              		@ args = 0, pretend = 0, frame = 0
 924              		@ frame_needed = 1, uses_anonymous_args = 0
 925              		@ link register save eliminated.
 926 0000 80B4     		push	{r7}
 927              	.LCFI78:
 928              		.cfi_def_cfa_offset 4
 929              		.cfi_offset 7, -4
 930 0002 00AF     		add	r7, sp, #0
 931              	.LCFI79:
 932              		.cfi_def_cfa_register 7
 458:../../Drivers/STM32F7xx_HAL_Driver/Src/stm32f7xx_hal.c ****   SYSCFG->CMPCR &= (uint32_t)~((uint32_t)SYSCFG_CMPCR_CMP_PD);
 933              		.loc 1 458 0
 934 0004 044A     		ldr	r2, .L64
 935 0006 044B     		ldr	r3, .L64
 936 0008 1B6A     		ldr	r3, [r3, #32]
 937 000a 23F00103 		bic	r3, r3, #1
 938 000e 1362     		str	r3, [r2, #32]
 459:../../Drivers/STM32F7xx_HAL_Driver/Src/stm32f7xx_hal.c **** }
 939              		.loc 1 459 0
 940 0010 BD46     		mov	sp, r7
 941              	.LCFI80:
 942              		.cfi_def_cfa_register 13
 943              		@ sp needed
 944 0012 5DF8047B 		ldr	r7, [sp], #4
 945              	.LCFI81:
 946              		.cfi_restore 7
 947              		.cfi_def_cfa_offset 0
 948 0016 7047     		bx	lr
 949              	.L65:
 950              		.align	2
ARM GAS  /tmp/ccKfhE3W.s 			page 25


 951              	.L64:
 952 0018 00380140 		.word	1073821696
 953              		.cfi_endproc
 954              	.LFE155:
 956              		.section	.text.HAL_EnableFMCMemorySwapping,"ax",%progbits
 957              		.align	2
 958              		.global	HAL_EnableFMCMemorySwapping
 959              		.thumb
 960              		.thumb_func
 962              	HAL_EnableFMCMemorySwapping:
 963              	.LFB156:
 460:../../Drivers/STM32F7xx_HAL_Driver/Src/stm32f7xx_hal.c **** 
 461:../../Drivers/STM32F7xx_HAL_Driver/Src/stm32f7xx_hal.c **** /**
 462:../../Drivers/STM32F7xx_HAL_Driver/Src/stm32f7xx_hal.c ****   * @brief  Enables the FMC Memory Mapping Swapping.
 463:../../Drivers/STM32F7xx_HAL_Driver/Src/stm32f7xx_hal.c ****   *   
 464:../../Drivers/STM32F7xx_HAL_Driver/Src/stm32f7xx_hal.c ****   * @note   SDRAM is accessible at 0x60000000 
 465:../../Drivers/STM32F7xx_HAL_Driver/Src/stm32f7xx_hal.c ****   *         and NOR/RAM is accessible at 0xC0000000   
 466:../../Drivers/STM32F7xx_HAL_Driver/Src/stm32f7xx_hal.c ****   *
 467:../../Drivers/STM32F7xx_HAL_Driver/Src/stm32f7xx_hal.c ****   * @retval None
 468:../../Drivers/STM32F7xx_HAL_Driver/Src/stm32f7xx_hal.c ****   */
 469:../../Drivers/STM32F7xx_HAL_Driver/Src/stm32f7xx_hal.c **** void HAL_EnableFMCMemorySwapping(void)
 470:../../Drivers/STM32F7xx_HAL_Driver/Src/stm32f7xx_hal.c **** {
 964              		.loc 1 470 0
 965              		.cfi_startproc
 966              		@ args = 0, pretend = 0, frame = 0
 967              		@ frame_needed = 1, uses_anonymous_args = 0
 968              		@ link register save eliminated.
 969 0000 80B4     		push	{r7}
 970              	.LCFI82:
 971              		.cfi_def_cfa_offset 4
 972              		.cfi_offset 7, -4
 973 0002 00AF     		add	r7, sp, #0
 974              	.LCFI83:
 975              		.cfi_def_cfa_register 7
 471:../../Drivers/STM32F7xx_HAL_Driver/Src/stm32f7xx_hal.c ****   SYSCFG->MEMRMP |= SYSCFG_MEMRMP_SWP_FMC_0;
 976              		.loc 1 471 0
 977 0004 044A     		ldr	r2, .L67
 978 0006 044B     		ldr	r3, .L67
 979 0008 1B68     		ldr	r3, [r3]
 980 000a 43F48063 		orr	r3, r3, #1024
 981 000e 1360     		str	r3, [r2]
 472:../../Drivers/STM32F7xx_HAL_Driver/Src/stm32f7xx_hal.c **** }
 982              		.loc 1 472 0
 983 0010 BD46     		mov	sp, r7
 984              	.LCFI84:
 985              		.cfi_def_cfa_register 13
 986              		@ sp needed
 987 0012 5DF8047B 		ldr	r7, [sp], #4
 988              	.LCFI85:
 989              		.cfi_restore 7
 990              		.cfi_def_cfa_offset 0
 991 0016 7047     		bx	lr
 992              	.L68:
 993              		.align	2
 994              	.L67:
 995 0018 00380140 		.word	1073821696
 996              		.cfi_endproc
ARM GAS  /tmp/ccKfhE3W.s 			page 26


 997              	.LFE156:
 999              		.section	.text.HAL_DisableFMCMemorySwapping,"ax",%progbits
 1000              		.align	2
 1001              		.global	HAL_DisableFMCMemorySwapping
 1002              		.thumb
 1003              		.thumb_func
 1005              	HAL_DisableFMCMemorySwapping:
 1006              	.LFB157:
 473:../../Drivers/STM32F7xx_HAL_Driver/Src/stm32f7xx_hal.c **** 
 474:../../Drivers/STM32F7xx_HAL_Driver/Src/stm32f7xx_hal.c **** /**
 475:../../Drivers/STM32F7xx_HAL_Driver/Src/stm32f7xx_hal.c ****   * @brief  Disables the FMC Memory Mapping Swapping
 476:../../Drivers/STM32F7xx_HAL_Driver/Src/stm32f7xx_hal.c ****   *   
 477:../../Drivers/STM32F7xx_HAL_Driver/Src/stm32f7xx_hal.c ****   * @note   SDRAM is accessible at 0xC0000000 (default mapping)  
 478:../../Drivers/STM32F7xx_HAL_Driver/Src/stm32f7xx_hal.c ****   *         and NOR/RAM is accessible at 0x60000000 (default mapping)    
 479:../../Drivers/STM32F7xx_HAL_Driver/Src/stm32f7xx_hal.c ****   *           
 480:../../Drivers/STM32F7xx_HAL_Driver/Src/stm32f7xx_hal.c ****   * @retval None
 481:../../Drivers/STM32F7xx_HAL_Driver/Src/stm32f7xx_hal.c ****   */
 482:../../Drivers/STM32F7xx_HAL_Driver/Src/stm32f7xx_hal.c **** void HAL_DisableFMCMemorySwapping(void)
 483:../../Drivers/STM32F7xx_HAL_Driver/Src/stm32f7xx_hal.c **** {
 1007              		.loc 1 483 0
 1008              		.cfi_startproc
 1009              		@ args = 0, pretend = 0, frame = 0
 1010              		@ frame_needed = 1, uses_anonymous_args = 0
 1011              		@ link register save eliminated.
 1012 0000 80B4     		push	{r7}
 1013              	.LCFI86:
 1014              		.cfi_def_cfa_offset 4
 1015              		.cfi_offset 7, -4
 1016 0002 00AF     		add	r7, sp, #0
 1017              	.LCFI87:
 1018              		.cfi_def_cfa_register 7
 484:../../Drivers/STM32F7xx_HAL_Driver/Src/stm32f7xx_hal.c **** 
 485:../../Drivers/STM32F7xx_HAL_Driver/Src/stm32f7xx_hal.c ****   SYSCFG->MEMRMP &= (uint32_t)~((uint32_t)SYSCFG_MEMRMP_SWP_FMC);
 1019              		.loc 1 485 0
 1020 0004 044A     		ldr	r2, .L70
 1021 0006 044B     		ldr	r3, .L70
 1022 0008 1B68     		ldr	r3, [r3]
 1023 000a 23F44063 		bic	r3, r3, #3072
 1024 000e 1360     		str	r3, [r2]
 486:../../Drivers/STM32F7xx_HAL_Driver/Src/stm32f7xx_hal.c **** }
 1025              		.loc 1 486 0
 1026 0010 BD46     		mov	sp, r7
 1027              	.LCFI88:
 1028              		.cfi_def_cfa_register 13
 1029              		@ sp needed
 1030 0012 5DF8047B 		ldr	r7, [sp], #4
 1031              	.LCFI89:
 1032              		.cfi_restore 7
 1033              		.cfi_def_cfa_offset 0
 1034 0016 7047     		bx	lr
 1035              	.L71:
 1036              		.align	2
 1037              	.L70:
 1038 0018 00380140 		.word	1073821696
 1039              		.cfi_endproc
 1040              	.LFE157:
 1042              		.section	.text.HAL_EnableMemorySwappingBank,"ax",%progbits
ARM GAS  /tmp/ccKfhE3W.s 			page 27


 1043              		.align	2
 1044              		.global	HAL_EnableMemorySwappingBank
 1045              		.thumb
 1046              		.thumb_func
 1048              	HAL_EnableMemorySwappingBank:
 1049              	.LFB158:
 487:../../Drivers/STM32F7xx_HAL_Driver/Src/stm32f7xx_hal.c **** 
 488:../../Drivers/STM32F7xx_HAL_Driver/Src/stm32f7xx_hal.c **** #if defined (STM32F765xx) || defined (STM32F767xx) || defined (STM32F769xx) || defined (STM32F777xx
 489:../../Drivers/STM32F7xx_HAL_Driver/Src/stm32f7xx_hal.c **** /**
 490:../../Drivers/STM32F7xx_HAL_Driver/Src/stm32f7xx_hal.c **** * @brief  Enable the Internal FLASH Bank Swapping.
 491:../../Drivers/STM32F7xx_HAL_Driver/Src/stm32f7xx_hal.c **** *   
 492:../../Drivers/STM32F7xx_HAL_Driver/Src/stm32f7xx_hal.c **** * @note   This function can be used only for STM32F77xx/STM32F76xx devices. 
 493:../../Drivers/STM32F7xx_HAL_Driver/Src/stm32f7xx_hal.c **** *
 494:../../Drivers/STM32F7xx_HAL_Driver/Src/stm32f7xx_hal.c **** * @note   Flash Bank2 mapped at 0x08000000 (AXI) (aliased at 0x00200000 (TCM)) 
 495:../../Drivers/STM32F7xx_HAL_Driver/Src/stm32f7xx_hal.c **** *         and Flash Bank1 mapped at 0x08100000 (AXI) (aliased at 0x00300000 (TCM))   
 496:../../Drivers/STM32F7xx_HAL_Driver/Src/stm32f7xx_hal.c **** *
 497:../../Drivers/STM32F7xx_HAL_Driver/Src/stm32f7xx_hal.c **** * @retval None
 498:../../Drivers/STM32F7xx_HAL_Driver/Src/stm32f7xx_hal.c **** */
 499:../../Drivers/STM32F7xx_HAL_Driver/Src/stm32f7xx_hal.c **** void HAL_EnableMemorySwappingBank(void)
 500:../../Drivers/STM32F7xx_HAL_Driver/Src/stm32f7xx_hal.c **** {
 1050              		.loc 1 500 0
 1051              		.cfi_startproc
 1052              		@ args = 0, pretend = 0, frame = 0
 1053              		@ frame_needed = 1, uses_anonymous_args = 0
 1054              		@ link register save eliminated.
 1055 0000 80B4     		push	{r7}
 1056              	.LCFI90:
 1057              		.cfi_def_cfa_offset 4
 1058              		.cfi_offset 7, -4
 1059 0002 00AF     		add	r7, sp, #0
 1060              	.LCFI91:
 1061              		.cfi_def_cfa_register 7
 501:../../Drivers/STM32F7xx_HAL_Driver/Src/stm32f7xx_hal.c ****   SET_BIT(SYSCFG->MEMRMP, SYSCFG_MEMRMP_SWP_FB);
 1062              		.loc 1 501 0
 1063 0004 044A     		ldr	r2, .L73
 1064 0006 044B     		ldr	r3, .L73
 1065 0008 1B68     		ldr	r3, [r3]
 1066 000a 43F48073 		orr	r3, r3, #256
 1067 000e 1360     		str	r3, [r2]
 502:../../Drivers/STM32F7xx_HAL_Driver/Src/stm32f7xx_hal.c **** }
 1068              		.loc 1 502 0
 1069 0010 BD46     		mov	sp, r7
 1070              	.LCFI92:
 1071              		.cfi_def_cfa_register 13
 1072              		@ sp needed
 1073 0012 5DF8047B 		ldr	r7, [sp], #4
 1074              	.LCFI93:
 1075              		.cfi_restore 7
 1076              		.cfi_def_cfa_offset 0
 1077 0016 7047     		bx	lr
 1078              	.L74:
 1079              		.align	2
 1080              	.L73:
 1081 0018 00380140 		.word	1073821696
 1082              		.cfi_endproc
 1083              	.LFE158:
 1085              		.section	.text.HAL_DisableMemorySwappingBank,"ax",%progbits
ARM GAS  /tmp/ccKfhE3W.s 			page 28


 1086              		.align	2
 1087              		.global	HAL_DisableMemorySwappingBank
 1088              		.thumb
 1089              		.thumb_func
 1091              	HAL_DisableMemorySwappingBank:
 1092              	.LFB159:
 503:../../Drivers/STM32F7xx_HAL_Driver/Src/stm32f7xx_hal.c **** 
 504:../../Drivers/STM32F7xx_HAL_Driver/Src/stm32f7xx_hal.c **** /**
 505:../../Drivers/STM32F7xx_HAL_Driver/Src/stm32f7xx_hal.c **** * @brief  Disable the Internal FLASH Bank Swapping.
 506:../../Drivers/STM32F7xx_HAL_Driver/Src/stm32f7xx_hal.c **** *   
 507:../../Drivers/STM32F7xx_HAL_Driver/Src/stm32f7xx_hal.c **** * @note   This function can be used only for STM32F77xx/STM32F76xx devices. 
 508:../../Drivers/STM32F7xx_HAL_Driver/Src/stm32f7xx_hal.c **** *
 509:../../Drivers/STM32F7xx_HAL_Driver/Src/stm32f7xx_hal.c **** * @note   The default state : Flash Bank1 mapped at 0x08000000 (AXI) (aliased at 0x00200000 (TCM)) 
 510:../../Drivers/STM32F7xx_HAL_Driver/Src/stm32f7xx_hal.c **** *         and Flash Bank2 mapped at 0x08100000 (AXI)( aliased at 0x00300000 (TCM)) 
 511:../../Drivers/STM32F7xx_HAL_Driver/Src/stm32f7xx_hal.c **** *           
 512:../../Drivers/STM32F7xx_HAL_Driver/Src/stm32f7xx_hal.c **** * @retval None
 513:../../Drivers/STM32F7xx_HAL_Driver/Src/stm32f7xx_hal.c **** */
 514:../../Drivers/STM32F7xx_HAL_Driver/Src/stm32f7xx_hal.c **** void HAL_DisableMemorySwappingBank(void)
 515:../../Drivers/STM32F7xx_HAL_Driver/Src/stm32f7xx_hal.c **** {
 1093              		.loc 1 515 0
 1094              		.cfi_startproc
 1095              		@ args = 0, pretend = 0, frame = 0
 1096              		@ frame_needed = 1, uses_anonymous_args = 0
 1097              		@ link register save eliminated.
 1098 0000 80B4     		push	{r7}
 1099              	.LCFI94:
 1100              		.cfi_def_cfa_offset 4
 1101              		.cfi_offset 7, -4
 1102 0002 00AF     		add	r7, sp, #0
 1103              	.LCFI95:
 1104              		.cfi_def_cfa_register 7
 516:../../Drivers/STM32F7xx_HAL_Driver/Src/stm32f7xx_hal.c ****   CLEAR_BIT(SYSCFG->MEMRMP, SYSCFG_MEMRMP_SWP_FB);
 1105              		.loc 1 516 0
 1106 0004 044A     		ldr	r2, .L76
 1107 0006 044B     		ldr	r3, .L76
 1108 0008 1B68     		ldr	r3, [r3]
 1109 000a 23F48073 		bic	r3, r3, #256
 1110 000e 1360     		str	r3, [r2]
 517:../../Drivers/STM32F7xx_HAL_Driver/Src/stm32f7xx_hal.c **** }
 1111              		.loc 1 517 0
 1112 0010 BD46     		mov	sp, r7
 1113              	.LCFI96:
 1114              		.cfi_def_cfa_register 13
 1115              		@ sp needed
 1116 0012 5DF8047B 		ldr	r7, [sp], #4
 1117              	.LCFI97:
 1118              		.cfi_restore 7
 1119              		.cfi_def_cfa_offset 0
 1120 0016 7047     		bx	lr
 1121              	.L77:
 1122              		.align	2
 1123              	.L76:
 1124 0018 00380140 		.word	1073821696
 1125              		.cfi_endproc
 1126              	.LFE159:
 1128              		.text
 1129              	.Letext0:
ARM GAS  /tmp/ccKfhE3W.s 			page 29


 1130              		.file 2 "/usr/arm-none-eabi/include/machine/_default_types.h"
 1131              		.file 3 "/usr/arm-none-eabi/include/sys/_stdint.h"
 1132              		.file 4 "../../Drivers/CMSIS/Include/core_cm7.h"
 1133              		.file 5 "../../Drivers/CMSIS/Device/ST/STM32F7xx/Include/stm32f769xx.h"
 1134              		.file 6 "../../Drivers/STM32F7xx_HAL_Driver/Inc/stm32f7xx_hal_def.h"
 1135              		.file 7 "../../Drivers/CMSIS/Device/ST/STM32F7xx/Include/system_stm32f7xx.h"
ARM GAS  /tmp/ccKfhE3W.s 			page 30

