Archive member included because of file (symbol)

/usr/bin/../lib/gcc/arm-none-eabi/4.9.3/../../../../arm-none-eabi/lib/cortex-m7/fpu/fpv5-sp-d16/libc_nano.a(lib_a-errno.o)
                              build/syscalls.o (__errno)
/usr/bin/../lib/gcc/arm-none-eabi/4.9.3/../../../../arm-none-eabi/lib/cortex-m7/fpu/fpv5-sp-d16/libc_nano.a(lib_a-exit.o)
                              /usr/bin/../lib/gcc/arm-none-eabi/4.9.3/../../../../arm-none-eabi/lib/cortex-m7/fpu/fpv5-sp-d16/crt0.o (exit)
/usr/bin/../lib/gcc/arm-none-eabi/4.9.3/../../../../arm-none-eabi/lib/cortex-m7/fpu/fpv5-sp-d16/libc_nano.a(lib_a-impure.o)
                              /usr/bin/../lib/gcc/arm-none-eabi/4.9.3/../../../../arm-none-eabi/lib/cortex-m7/fpu/fpv5-sp-d16/libc_nano.a(lib_a-exit.o) (_global_impure_ptr)
/usr/bin/../lib/gcc/arm-none-eabi/4.9.3/../../../../arm-none-eabi/lib/cortex-m7/fpu/fpv5-sp-d16/libc_nano.a(lib_a-init.o)
                              /usr/bin/../lib/gcc/arm-none-eabi/4.9.3/../../../../arm-none-eabi/lib/cortex-m7/fpu/fpv5-sp-d16/crt0.o (__libc_init_array)
/usr/bin/../lib/gcc/arm-none-eabi/4.9.3/../../../../arm-none-eabi/lib/cortex-m7/fpu/fpv5-sp-d16/libc_nano.a(lib_a-memcpy.o)
                              build/queue.o (memcpy)
/usr/bin/../lib/gcc/arm-none-eabi/4.9.3/../../../../arm-none-eabi/lib/cortex-m7/fpu/fpv5-sp-d16/libc_nano.a(lib_a-memset.o)
                              /usr/bin/../lib/gcc/arm-none-eabi/4.9.3/../../../../arm-none-eabi/lib/cortex-m7/fpu/fpv5-sp-d16/crt0.o (memset)
/usr/bin/../lib/gcc/arm-none-eabi/4.9.3/../../../../arm-none-eabi/lib/cortex-m7/fpu/fpv5-sp-d16/libc_nano.a(lib_a-puts.o)
                              build/main.o (puts)
/usr/bin/../lib/gcc/arm-none-eabi/4.9.3/../../../../arm-none-eabi/lib/cortex-m7/fpu/fpv5-sp-d16/libc_nano.a(lib_a-wbuf.o)
                              /usr/bin/../lib/gcc/arm-none-eabi/4.9.3/../../../../arm-none-eabi/lib/cortex-m7/fpu/fpv5-sp-d16/libc_nano.a(lib_a-puts.o) (__swbuf_r)
/usr/bin/../lib/gcc/arm-none-eabi/4.9.3/../../../../arm-none-eabi/lib/cortex-m7/fpu/fpv5-sp-d16/libc_nano.a(lib_a-wsetup.o)
                              /usr/bin/../lib/gcc/arm-none-eabi/4.9.3/../../../../arm-none-eabi/lib/cortex-m7/fpu/fpv5-sp-d16/libc_nano.a(lib_a-puts.o) (__swsetup_r)
/usr/bin/../lib/gcc/arm-none-eabi/4.9.3/../../../../arm-none-eabi/lib/cortex-m7/fpu/fpv5-sp-d16/libc_nano.a(lib_a-fflush.o)
                              /usr/bin/../lib/gcc/arm-none-eabi/4.9.3/../../../../arm-none-eabi/lib/cortex-m7/fpu/fpv5-sp-d16/libc_nano.a(lib_a-wbuf.o) (_fflush_r)
/usr/bin/../lib/gcc/arm-none-eabi/4.9.3/../../../../arm-none-eabi/lib/cortex-m7/fpu/fpv5-sp-d16/libc_nano.a(lib_a-findfp.o)
                              /usr/bin/../lib/gcc/arm-none-eabi/4.9.3/../../../../arm-none-eabi/lib/cortex-m7/fpu/fpv5-sp-d16/libc_nano.a(lib_a-puts.o) (__sinit)
/usr/bin/../lib/gcc/arm-none-eabi/4.9.3/../../../../arm-none-eabi/lib/cortex-m7/fpu/fpv5-sp-d16/libc_nano.a(lib_a-fwalk.o)
                              /usr/bin/../lib/gcc/arm-none-eabi/4.9.3/../../../../arm-none-eabi/lib/cortex-m7/fpu/fpv5-sp-d16/libc_nano.a(lib_a-findfp.o) (_fwalk)
/usr/bin/../lib/gcc/arm-none-eabi/4.9.3/../../../../arm-none-eabi/lib/cortex-m7/fpu/fpv5-sp-d16/libc_nano.a(lib_a-makebuf.o)
                              /usr/bin/../lib/gcc/arm-none-eabi/4.9.3/../../../../arm-none-eabi/lib/cortex-m7/fpu/fpv5-sp-d16/libc_nano.a(lib_a-wsetup.o) (__smakebuf_r)
/usr/bin/../lib/gcc/arm-none-eabi/4.9.3/../../../../arm-none-eabi/lib/cortex-m7/fpu/fpv5-sp-d16/libc_nano.a(lib_a-nano-freer.o)
                              /usr/bin/../lib/gcc/arm-none-eabi/4.9.3/../../../../arm-none-eabi/lib/cortex-m7/fpu/fpv5-sp-d16/libc_nano.a(lib_a-wsetup.o) (_free_r)
/usr/bin/../lib/gcc/arm-none-eabi/4.9.3/../../../../arm-none-eabi/lib/cortex-m7/fpu/fpv5-sp-d16/libc_nano.a(lib_a-nano-mallocr.o)
                              /usr/bin/../lib/gcc/arm-none-eabi/4.9.3/../../../../arm-none-eabi/lib/cortex-m7/fpu/fpv5-sp-d16/libc_nano.a(lib_a-findfp.o) (_malloc_r)
/usr/bin/../lib/gcc/arm-none-eabi/4.9.3/../../../../arm-none-eabi/lib/cortex-m7/fpu/fpv5-sp-d16/libc_nano.a(lib_a-sbrkr.o)
                              /usr/bin/../lib/gcc/arm-none-eabi/4.9.3/../../../../arm-none-eabi/lib/cortex-m7/fpu/fpv5-sp-d16/libc_nano.a(lib_a-nano-mallocr.o) (_sbrk_r)
/usr/bin/../lib/gcc/arm-none-eabi/4.9.3/../../../../arm-none-eabi/lib/cortex-m7/fpu/fpv5-sp-d16/libc_nano.a(lib_a-stdio.o)
                              /usr/bin/../lib/gcc/arm-none-eabi/4.9.3/../../../../arm-none-eabi/lib/cortex-m7/fpu/fpv5-sp-d16/libc_nano.a(lib_a-findfp.o) (__sread)
/usr/bin/../lib/gcc/arm-none-eabi/4.9.3/../../../../arm-none-eabi/lib/cortex-m7/fpu/fpv5-sp-d16/libc_nano.a(lib_a-writer.o)
                              /usr/bin/../lib/gcc/arm-none-eabi/4.9.3/../../../../arm-none-eabi/lib/cortex-m7/fpu/fpv5-sp-d16/libc_nano.a(lib_a-stdio.o) (_write_r)
/usr/bin/../lib/gcc/arm-none-eabi/4.9.3/../../../../arm-none-eabi/lib/cortex-m7/fpu/fpv5-sp-d16/libc_nano.a(lib_a-closer.o)
                              /usr/bin/../lib/gcc/arm-none-eabi/4.9.3/../../../../arm-none-eabi/lib/cortex-m7/fpu/fpv5-sp-d16/libc_nano.a(lib_a-stdio.o) (_close_r)
/usr/bin/../lib/gcc/arm-none-eabi/4.9.3/../../../../arm-none-eabi/lib/cortex-m7/fpu/fpv5-sp-d16/libc_nano.a(lib_a-fstatr.o)
                              /usr/bin/../lib/gcc/arm-none-eabi/4.9.3/../../../../arm-none-eabi/lib/cortex-m7/fpu/fpv5-sp-d16/libc_nano.a(lib_a-makebuf.o) (_fstat_r)
/usr/bin/../lib/gcc/arm-none-eabi/4.9.3/../../../../arm-none-eabi/lib/cortex-m7/fpu/fpv5-sp-d16/libc_nano.a(lib_a-isattyr.o)
                              /usr/bin/../lib/gcc/arm-none-eabi/4.9.3/../../../../arm-none-eabi/lib/cortex-m7/fpu/fpv5-sp-d16/libc_nano.a(lib_a-makebuf.o) (_isatty_r)
/usr/bin/../lib/gcc/arm-none-eabi/4.9.3/../../../../arm-none-eabi/lib/cortex-m7/fpu/fpv5-sp-d16/libc_nano.a(lib_a-lseekr.o)
                              /usr/bin/../lib/gcc/arm-none-eabi/4.9.3/../../../../arm-none-eabi/lib/cortex-m7/fpu/fpv5-sp-d16/libc_nano.a(lib_a-stdio.o) (_lseek_r)
/usr/bin/../lib/gcc/arm-none-eabi/4.9.3/../../../../arm-none-eabi/lib/cortex-m7/fpu/fpv5-sp-d16/libc_nano.a(lib_a-readr.o)
                              /usr/bin/../lib/gcc/arm-none-eabi/4.9.3/../../../../arm-none-eabi/lib/cortex-m7/fpu/fpv5-sp-d16/libc_nano.a(lib_a-stdio.o) (_read_r)
/usr/bin/../lib/gcc/arm-none-eabi/4.9.3/../../../../arm-none-eabi/lib/cortex-m7/fpu/fpv5-sp-d16/libc_nano.a(lib_a-reent.o)
                              /usr/bin/../lib/gcc/arm-none-eabi/4.9.3/../../../../arm-none-eabi/lib/cortex-m7/fpu/fpv5-sp-d16/libc_nano.a(lib_a-sbrkr.o) (errno)

Allocating common symbols
Common symbol       size              file

LCD_CacheBuffer_yptr_bottom_bak
                    0x2               build/lcd_log.o
sdramHandle         0x34              build/stm32f769i_discovery_sdram.o
LCD_CacheBuffer_yptr_top_bak
                    0x2               build/lcd_log.o
errno               0x4               /usr/bin/../lib/gcc/arm-none-eabi/4.9.3/../../../../arm-none-eabi/lib/cortex-m7/fpu/fpv5-sp-d16/libc_nano.a(lib_a-reent.o)
uwTick              0x4               build/stm32f7xx_hal.o
xQueueRegistry      0x40              build/queue.o
LCD_CacheBuffer_yptr_bottom
                    0x2               build/lcd_log.o
pFlash              0x1c              build/stm32f7xx_hal_flash.o
LCD_CacheBuffer_xptr
                    0x2               build/lcd_log.o
LCD_CacheBuffer_yptr_invert
                    0x1               build/lcd_log.o
LCD_Lock            0x1               build/lcd_log.o
htim13              0x40              build/stm32f7xx_hal_timebase_tim.o
LCD_Scrolled        0x1               build/lcd_log.o
hrtc                0x20              build/main.o
hdma2d_discovery    0x58              build/stm32f769i_discovery_lcd.o
LCD_CacheBuffer_yptr_top
                    0x2               build/lcd_log.o
LCD_ScrollActive    0x1               build/lcd_log.o
hltdc_discovery     0xa8              build/stm32f769i_discovery_lcd.o
LCD_CacheBuffer     0x3c54            build/lcd_log.o
LCD_LineColor       0x4               build/lcd_log.o
hsdram1             0x34              build/main.o
hdsi_discovery      0x1c              build/stm32f769i_discovery_lcd.o
LCD_ScrollBackStep  0x2               build/lcd_log.o

Discarded input sections

 .text          0x0000000000000000        0x0 /usr/bin/../lib/gcc/arm-none-eabi/4.9.3/cortex-m7/fpu/fpv5-sp-d16/crti.o
 .data          0x0000000000000000        0x0 /usr/bin/../lib/gcc/arm-none-eabi/4.9.3/cortex-m7/fpu/fpv5-sp-d16/crti.o
 .bss           0x0000000000000000        0x0 /usr/bin/../lib/gcc/arm-none-eabi/4.9.3/cortex-m7/fpu/fpv5-sp-d16/crti.o
 .data          0x0000000000000000        0x4 /usr/bin/../lib/gcc/arm-none-eabi/4.9.3/cortex-m7/fpu/fpv5-sp-d16/crtbegin.o
 .text          0x0000000000000000       0x74 /usr/bin/../lib/gcc/arm-none-eabi/4.9.3/../../../../arm-none-eabi/lib/cortex-m7/fpu/fpv5-sp-d16/crt0.o
 .data          0x0000000000000000        0x0 /usr/bin/../lib/gcc/arm-none-eabi/4.9.3/../../../../arm-none-eabi/lib/cortex-m7/fpu/fpv5-sp-d16/crt0.o
 .bss           0x0000000000000000        0x0 /usr/bin/../lib/gcc/arm-none-eabi/4.9.3/../../../../arm-none-eabi/lib/cortex-m7/fpu/fpv5-sp-d16/crt0.o
 .ARM.extab     0x0000000000000000        0x0 /usr/bin/../lib/gcc/arm-none-eabi/4.9.3/../../../../arm-none-eabi/lib/cortex-m7/fpu/fpv5-sp-d16/crt0.o
 .ARM.exidx     0x0000000000000000        0x8 /usr/bin/../lib/gcc/arm-none-eabi/4.9.3/../../../../arm-none-eabi/lib/cortex-m7/fpu/fpv5-sp-d16/crt0.o
 .ARM.attributes
                0x0000000000000000       0x25 /usr/bin/../lib/gcc/arm-none-eabi/4.9.3/../../../../arm-none-eabi/lib/cortex-m7/fpu/fpv5-sp-d16/crt0.o
 .text          0x0000000000000000        0x0 build/stm32f7xx_hal.o
 .data          0x0000000000000000        0x0 build/stm32f7xx_hal.o
 .bss           0x0000000000000000        0x0 build/stm32f7xx_hal.o
 .text.HAL_DeInit
                0x0000000000000000       0x58 build/stm32f7xx_hal.o
 .text.HAL_MspInit
                0x0000000000000000        0xc build/stm32f7xx_hal.o
 .text.HAL_MspDeInit
                0x0000000000000000        0xc build/stm32f7xx_hal.o
 .text.HAL_InitTick
                0x0000000000000000       0x38 build/stm32f7xx_hal.o
 .text.HAL_SuspendTick
                0x0000000000000000       0x1c build/stm32f7xx_hal.o
 .text.HAL_ResumeTick
                0x0000000000000000       0x1c build/stm32f7xx_hal.o
 .text.HAL_GetHalVersion
                0x0000000000000000       0x14 build/stm32f7xx_hal.o
 .text.HAL_GetREVID
                0x0000000000000000       0x18 build/stm32f7xx_hal.o
 .text.HAL_GetDEVID
                0x0000000000000000       0x1c build/stm32f7xx_hal.o
 .text.HAL_DBGMCU_EnableDBGSleepMode
                0x0000000000000000       0x1c build/stm32f7xx_hal.o
 .text.HAL_DBGMCU_DisableDBGSleepMode
                0x0000000000000000       0x1c build/stm32f7xx_hal.o
 .text.HAL_DBGMCU_EnableDBGStopMode
                0x0000000000000000       0x1c build/stm32f7xx_hal.o
 .text.HAL_DBGMCU_DisableDBGStopMode
                0x0000000000000000       0x1c build/stm32f7xx_hal.o
 .text.HAL_DBGMCU_EnableDBGStandbyMode
                0x0000000000000000       0x1c build/stm32f7xx_hal.o
 .text.HAL_DBGMCU_DisableDBGStandbyMode
                0x0000000000000000       0x1c build/stm32f7xx_hal.o
 .text.HAL_EnableCompensationCell
                0x0000000000000000       0x1c build/stm32f7xx_hal.o
 .text.HAL_DisableCompensationCell
                0x0000000000000000       0x1c build/stm32f7xx_hal.o
 .text.HAL_EnableFMCMemorySwapping
                0x0000000000000000       0x1c build/stm32f7xx_hal.o
 .text.HAL_DisableFMCMemorySwapping
                0x0000000000000000       0x1c build/stm32f7xx_hal.o
 .text.HAL_EnableMemorySwappingBank
                0x0000000000000000       0x1c build/stm32f7xx_hal.o
 .text.HAL_DisableMemorySwappingBank
                0x0000000000000000       0x1c build/stm32f7xx_hal.o
 .text          0x0000000000000000        0x0 build/stm32f7xx_hal_adc.o
 .data          0x0000000000000000        0x0 build/stm32f7xx_hal_adc.o
 .bss           0x0000000000000000        0x0 build/stm32f7xx_hal_adc.o
 .debug_info    0x0000000000000000       0x9b build/stm32f7xx_hal_adc.o
 .debug_abbrev  0x0000000000000000       0x4b build/stm32f7xx_hal_adc.o
 .debug_aranges
                0x0000000000000000       0x18 build/stm32f7xx_hal_adc.o
 .debug_line    0x0000000000000000       0xaa build/stm32f7xx_hal_adc.o
 .debug_str     0x0000000000000000      0x1e1 build/stm32f7xx_hal_adc.o
 .comment       0x0000000000000000       0x71 build/stm32f7xx_hal_adc.o
 .ARM.attributes
                0x0000000000000000       0x39 build/stm32f7xx_hal_adc.o
 .text          0x0000000000000000        0x0 build/stm32f7xx_hal_adc_ex.o
 .data          0x0000000000000000        0x0 build/stm32f7xx_hal_adc_ex.o
 .bss           0x0000000000000000        0x0 build/stm32f7xx_hal_adc_ex.o
 .debug_info    0x0000000000000000       0x9b build/stm32f7xx_hal_adc_ex.o
 .debug_abbrev  0x0000000000000000       0x4b build/stm32f7xx_hal_adc_ex.o
 .debug_aranges
                0x0000000000000000       0x18 build/stm32f7xx_hal_adc_ex.o
 .debug_line    0x0000000000000000       0xaa build/stm32f7xx_hal_adc_ex.o
 .debug_str     0x0000000000000000      0x1e4 build/stm32f7xx_hal_adc_ex.o
 .comment       0x0000000000000000       0x71 build/stm32f7xx_hal_adc_ex.o
 .ARM.attributes
                0x0000000000000000       0x39 build/stm32f7xx_hal_adc_ex.o
 .text          0x0000000000000000        0x0 build/stm32f7xx_hal_cortex.o
 .data          0x0000000000000000        0x0 build/stm32f7xx_hal_cortex.o
 .bss           0x0000000000000000        0x0 build/stm32f7xx_hal_cortex.o
 .text.NVIC_DisableIRQ
                0x0000000000000000       0x34 build/stm32f7xx_hal_cortex.o
 .text.NVIC_GetPendingIRQ
                0x0000000000000000       0x38 build/stm32f7xx_hal_cortex.o
 .text.NVIC_SetPendingIRQ
                0x0000000000000000       0x34 build/stm32f7xx_hal_cortex.o
 .text.NVIC_ClearPendingIRQ
                0x0000000000000000       0x34 build/stm32f7xx_hal_cortex.o
 .text.NVIC_GetActive
                0x0000000000000000       0x38 build/stm32f7xx_hal_cortex.o
 .text.NVIC_GetPriority
                0x0000000000000000       0x50 build/stm32f7xx_hal_cortex.o
 .text.NVIC_DecodePriority
                0x0000000000000000       0x68 build/stm32f7xx_hal_cortex.o
 .text.NVIC_SystemReset
                0x0000000000000000       0x28 build/stm32f7xx_hal_cortex.o
 .text.HAL_NVIC_DisableIRQ
                0x0000000000000000       0x1c build/stm32f7xx_hal_cortex.o
 .text.HAL_NVIC_SystemReset
                0x0000000000000000        0xc build/stm32f7xx_hal_cortex.o
 .text.HAL_MPU_Disable
                0x0000000000000000       0x2c build/stm32f7xx_hal_cortex.o
 .text.HAL_MPU_Enable
                0x0000000000000000       0x38 build/stm32f7xx_hal_cortex.o
 .text.HAL_MPU_ConfigRegion
                0x0000000000000000       0x84 build/stm32f7xx_hal_cortex.o
 .text.HAL_NVIC_GetPriorityGrouping
                0x0000000000000000       0x10 build/stm32f7xx_hal_cortex.o
 .text.HAL_NVIC_GetPriority
                0x0000000000000000       0x30 build/stm32f7xx_hal_cortex.o
 .text.HAL_NVIC_SetPendingIRQ
                0x0000000000000000       0x1c build/stm32f7xx_hal_cortex.o
 .text.HAL_NVIC_GetPendingIRQ
                0x0000000000000000       0x20 build/stm32f7xx_hal_cortex.o
 .text.HAL_NVIC_ClearPendingIRQ
                0x0000000000000000       0x1c build/stm32f7xx_hal_cortex.o
 .text.HAL_NVIC_GetActive
                0x0000000000000000       0x20 build/stm32f7xx_hal_cortex.o
 .text.HAL_SYSTICK_IRQHandler
                0x0000000000000000        0xc build/stm32f7xx_hal_cortex.o
 .text.HAL_SYSTICK_Callback
                0x0000000000000000        0xc build/stm32f7xx_hal_cortex.o
 .text          0x0000000000000000        0x0 build/stm32f7xx_hal_dma.o
 .data          0x0000000000000000        0x0 build/stm32f7xx_hal_dma.o
 .bss           0x0000000000000000        0x0 build/stm32f7xx_hal_dma.o
 .text.HAL_DMA_Start
                0x0000000000000000       0x78 build/stm32f7xx_hal_dma.o
 .text.HAL_DMA_Start_IT
                0x0000000000000000       0xc4 build/stm32f7xx_hal_dma.o
 .text.HAL_DMA_Abort
                0x0000000000000000       0xe4 build/stm32f7xx_hal_dma.o
 .text.HAL_DMA_Abort_IT
                0x0000000000000000       0x44 build/stm32f7xx_hal_dma.o
 .text.HAL_DMA_PollForTransfer
                0x0000000000000000      0x1ec build/stm32f7xx_hal_dma.o
 .text.HAL_DMA_IRQHandler
                0x0000000000000000      0x344 build/stm32f7xx_hal_dma.o
 .text.HAL_DMA_RegisterCallback
                0x0000000000000000       0xa8 build/stm32f7xx_hal_dma.o
 .text.HAL_DMA_UnRegisterCallback
                0x0000000000000000       0xd4 build/stm32f7xx_hal_dma.o
 .text.HAL_DMA_GetState
                0x0000000000000000       0x1c build/stm32f7xx_hal_dma.o
 .text.HAL_DMA_GetError
                0x0000000000000000       0x18 build/stm32f7xx_hal_dma.o
 .text.DMA_SetConfig
                0x0000000000000000       0x5c build/stm32f7xx_hal_dma.o
 .text          0x0000000000000000        0x0 build/stm32f7xx_hal_dma2d.o
 .data          0x0000000000000000        0x0 build/stm32f7xx_hal_dma2d.o
 .bss           0x0000000000000000        0x0 build/stm32f7xx_hal_dma2d.o
 .text.HAL_DMA2D_DeInit
                0x0000000000000000       0xd8 build/stm32f7xx_hal_dma2d.o
 .text.HAL_DMA2D_MspDeInit
                0x0000000000000000       0x14 build/stm32f7xx_hal_dma2d.o
 .text.HAL_DMA2D_Start_IT
                0x0000000000000000       0x68 build/stm32f7xx_hal_dma2d.o
 .text.HAL_DMA2D_BlendingStart
                0x0000000000000000       0x60 build/stm32f7xx_hal_dma2d.o
 .text.HAL_DMA2D_BlendingStart_IT
                0x0000000000000000       0x70 build/stm32f7xx_hal_dma2d.o
 .text.HAL_DMA2D_Abort
                0x0000000000000000       0x90 build/stm32f7xx_hal_dma2d.o
 .text.HAL_DMA2D_Suspend
                0x0000000000000000       0xa0 build/stm32f7xx_hal_dma2d.o
 .text.HAL_DMA2D_Resume
                0x0000000000000000       0x3c build/stm32f7xx_hal_dma2d.o
 .text.HAL_DMA2D_EnableCLUT
                0x0000000000000000       0x60 build/stm32f7xx_hal_dma2d.o
 .text.HAL_DMA2D_CLUTLoad
                0x0000000000000000       0xfc build/stm32f7xx_hal_dma2d.o
 .text.HAL_DMA2D_CLUTLoad_IT
                0x0000000000000000      0x11c build/stm32f7xx_hal_dma2d.o
 .text.HAL_DMA2D_CLUTLoading_Abort
                0x0000000000000000       0xa4 build/stm32f7xx_hal_dma2d.o
 .text.HAL_DMA2D_CLUTLoading_Suspend
                0x0000000000000000       0xb0 build/stm32f7xx_hal_dma2d.o
 .text.HAL_DMA2D_CLUTLoading_Resume
                0x0000000000000000       0x78 build/stm32f7xx_hal_dma2d.o
 .text.HAL_DMA2D_IRQHandler
                0x0000000000000000      0x1f8 build/stm32f7xx_hal_dma2d.o
 .text.HAL_DMA2D_LineEventCallback
                0x0000000000000000       0x14 build/stm32f7xx_hal_dma2d.o
 .text.HAL_DMA2D_CLUTLoadingCpltCallback
                0x0000000000000000       0x14 build/stm32f7xx_hal_dma2d.o
 .text.HAL_DMA2D_ConfigCLUT
                0x0000000000000000       0xec build/stm32f7xx_hal_dma2d.o
 .text.HAL_DMA2D_ProgramLineEvent
                0x0000000000000000       0x6c build/stm32f7xx_hal_dma2d.o
 .text.HAL_DMA2D_EnableDeadTime
                0x0000000000000000       0x54 build/stm32f7xx_hal_dma2d.o
 .text.HAL_DMA2D_DisableDeadTime
                0x0000000000000000       0x54 build/stm32f7xx_hal_dma2d.o
 .text.HAL_DMA2D_ConfigDeadTime
                0x0000000000000000       0x74 build/stm32f7xx_hal_dma2d.o
 .text.HAL_DMA2D_GetState
                0x0000000000000000       0x1c build/stm32f7xx_hal_dma2d.o
 .text.HAL_DMA2D_GetError
                0x0000000000000000       0x18 build/stm32f7xx_hal_dma2d.o
 .text          0x0000000000000000        0x0 build/stm32f7xx_hal_dma_ex.o
 .data          0x0000000000000000        0x0 build/stm32f7xx_hal_dma_ex.o
 .bss           0x0000000000000000        0x0 build/stm32f7xx_hal_dma_ex.o
 .text.HAL_DMAEx_MultiBufferStart
                0x0000000000000000       0x98 build/stm32f7xx_hal_dma_ex.o
 .text.HAL_DMAEx_MultiBufferStart_IT
                0x0000000000000000     0x1470 build/stm32f7xx_hal_dma_ex.o
 .text.HAL_DMAEx_ChangeMemory
                0x0000000000000000       0x34 build/stm32f7xx_hal_dma_ex.o
 .text.DMA_MultiBufferSetConfig
                0x0000000000000000       0x4c build/stm32f7xx_hal_dma_ex.o
 .debug_info    0x0000000000000000      0x570 build/stm32f7xx_hal_dma_ex.o
 .debug_abbrev  0x0000000000000000      0x167 build/stm32f7xx_hal_dma_ex.o
 .debug_loc     0x0000000000000000      0x158 build/stm32f7xx_hal_dma_ex.o
 .debug_aranges
                0x0000000000000000       0x38 build/stm32f7xx_hal_dma_ex.o
 .debug_ranges  0x0000000000000000       0x28 build/stm32f7xx_hal_dma_ex.o
 .debug_line    0x0000000000000000      0xd29 build/stm32f7xx_hal_dma_ex.o
 .debug_str     0x0000000000000000      0x57a build/stm32f7xx_hal_dma_ex.o
 .comment       0x0000000000000000       0x71 build/stm32f7xx_hal_dma_ex.o
 .debug_frame   0x0000000000000000       0xb0 build/stm32f7xx_hal_dma_ex.o
 .ARM.attributes
                0x0000000000000000       0x39 build/stm32f7xx_hal_dma_ex.o
 .text          0x0000000000000000        0x0 build/stm32f7xx_hal_dsi.o
 .data          0x0000000000000000        0x0 build/stm32f7xx_hal_dsi.o
 .bss           0x0000000000000000        0x0 build/stm32f7xx_hal_dsi.o
 .text.HAL_DSI_GetError
                0x0000000000000000       0x18 build/stm32f7xx_hal_dsi.o
 .text.HAL_DSI_ConfigErrorMonitor
                0x0000000000000000      0x178 build/stm32f7xx_hal_dsi.o
 .text.HAL_DSI_IRQHandler
                0x0000000000000000      0x190 build/stm32f7xx_hal_dsi.o
 .text.HAL_DSI_TearingEffectCallback
                0x0000000000000000       0x14 build/stm32f7xx_hal_dsi.o
 .text.HAL_DSI_EndOfRefreshCallback
                0x0000000000000000       0x14 build/stm32f7xx_hal_dsi.o
 .text.HAL_DSI_ErrorCallback
                0x0000000000000000       0x14 build/stm32f7xx_hal_dsi.o
 .text.HAL_DSI_SetGenericVCID
                0x0000000000000000       0x50 build/stm32f7xx_hal_dsi.o
 .text.HAL_DSI_ConfigAdaptedCommandMode
                0x0000000000000000      0x1b4 build/stm32f7xx_hal_dsi.o
 .text.HAL_DSI_ConfigCommand
                0x0000000000000000       0xbc build/stm32f7xx_hal_dsi.o
 .text.HAL_DSI_ConfigFlowControl
                0x0000000000000000       0x50 build/stm32f7xx_hal_dsi.o
 .text.HAL_DSI_ConfigPhyTimer
                0x0000000000000000       0xd4 build/stm32f7xx_hal_dsi.o
 .text.HAL_DSI_ConfigHostTimeouts
                0x0000000000000000      0x190 build/stm32f7xx_hal_dsi.o
 .text.HAL_DSI_Stop
                0x0000000000000000       0x54 build/stm32f7xx_hal_dsi.o
 .text.HAL_DSI_Refresh
                0x0000000000000000       0x44 build/stm32f7xx_hal_dsi.o
 .text.HAL_DSI_ColorMode
                0x0000000000000000       0x58 build/stm32f7xx_hal_dsi.o
 .text.HAL_DSI_Shutdown
                0x0000000000000000       0x58 build/stm32f7xx_hal_dsi.o
 .text.HAL_DSI_Read
                0x0000000000000000      0x180 build/stm32f7xx_hal_dsi.o
 .text.HAL_DSI_EnterULPMData
                0x0000000000000000       0xc4 build/stm32f7xx_hal_dsi.o
 .text.HAL_DSI_ExitULPMData
                0x0000000000000000       0xd0 build/stm32f7xx_hal_dsi.o
 .text.HAL_DSI_EnterULPM
                0x0000000000000000      0x100 build/stm32f7xx_hal_dsi.o
 .text.HAL_DSI_ExitULPM
                0x0000000000000000      0x13c build/stm32f7xx_hal_dsi.o
 .text.HAL_DSI_PatternGeneratorStart
                0x0000000000000000       0x6c build/stm32f7xx_hal_dsi.o
 .text.HAL_DSI_PatternGeneratorStop
                0x0000000000000000       0x40 build/stm32f7xx_hal_dsi.o
 .text.HAL_DSI_SetSlewRateAndDelayTuning
                0x0000000000000000      0x174 build/stm32f7xx_hal_dsi.o
 .text.HAL_DSI_SetLowPowerRXFilter
                0x0000000000000000       0x5c build/stm32f7xx_hal_dsi.o
 .text.HAL_DSI_SetSDD
                0x0000000000000000       0x5c build/stm32f7xx_hal_dsi.o
 .text.HAL_DSI_SetLanePinsConfiguration
                0x0000000000000000      0x170 build/stm32f7xx_hal_dsi.o
 .text.HAL_DSI_SetPHYTimings
                0x0000000000000000      0x3c4 build/stm32f7xx_hal_dsi.o
 .text.HAL_DSI_ForceTXStopMode
                0x0000000000000000       0x98 build/stm32f7xx_hal_dsi.o
 .text.HAL_DSI_ForceRXLowPower
                0x0000000000000000       0x5c build/stm32f7xx_hal_dsi.o
 .text.HAL_DSI_ForceDataLanesInRX
                0x0000000000000000       0x5c build/stm32f7xx_hal_dsi.o
 .text.HAL_DSI_SetPullDown
                0x0000000000000000       0x5c build/stm32f7xx_hal_dsi.o
 .text.HAL_DSI_SetContentionDetectionOff
                0x0000000000000000       0x5c build/stm32f7xx_hal_dsi.o
 .text.HAL_DSI_GetState
                0x0000000000000000       0x1c build/stm32f7xx_hal_dsi.o
 .text          0x0000000000000000        0x0 build/stm32f7xx_hal_eth.o
 .data          0x0000000000000000        0x0 build/stm32f7xx_hal_eth.o
 .bss           0x0000000000000000        0x0 build/stm32f7xx_hal_eth.o
 .debug_info    0x0000000000000000       0x9b build/stm32f7xx_hal_eth.o
 .debug_abbrev  0x0000000000000000       0x4b build/stm32f7xx_hal_eth.o
 .debug_aranges
                0x0000000000000000       0x18 build/stm32f7xx_hal_eth.o
 .debug_line    0x0000000000000000       0xaa build/stm32f7xx_hal_eth.o
 .debug_str     0x0000000000000000      0x1e1 build/stm32f7xx_hal_eth.o
 .comment       0x0000000000000000       0x71 build/stm32f7xx_hal_eth.o
 .ARM.attributes
                0x0000000000000000       0x39 build/stm32f7xx_hal_eth.o
 .text          0x0000000000000000        0x0 build/stm32f7xx_hal_flash.o
 .data          0x0000000000000000        0x0 build/stm32f7xx_hal_flash.o
 .bss           0x0000000000000000        0x0 build/stm32f7xx_hal_flash.o
 .text.HAL_FLASH_Program
                0x0000000000000000       0xb8 build/stm32f7xx_hal_flash.o
 .text.HAL_FLASH_Program_IT
                0x0000000000000000       0xb0 build/stm32f7xx_hal_flash.o
 .text.HAL_FLASH_IRQHandler
                0x0000000000000000      0x15c build/stm32f7xx_hal_flash.o
 .text.HAL_FLASH_EndOfOperationCallback
                0x0000000000000000       0x14 build/stm32f7xx_hal_flash.o
 .text.HAL_FLASH_OperationErrorCallback
                0x0000000000000000       0x14 build/stm32f7xx_hal_flash.o
 .text.HAL_FLASH_Unlock
                0x0000000000000000       0x34 build/stm32f7xx_hal_flash.o
 .text.HAL_FLASH_Lock
                0x0000000000000000       0x20 build/stm32f7xx_hal_flash.o
 .text.HAL_FLASH_OB_Unlock
                0x0000000000000000       0x38 build/stm32f7xx_hal_flash.o
 .text.HAL_FLASH_OB_Lock
                0x0000000000000000       0x20 build/stm32f7xx_hal_flash.o
 .text.HAL_FLASH_OB_Launch
                0x0000000000000000       0x24 build/stm32f7xx_hal_flash.o
 .text.HAL_FLASH_GetError
                0x0000000000000000       0x18 build/stm32f7xx_hal_flash.o
 .text.FLASH_WaitForLastOperation
                0x0000000000000000       0x80 build/stm32f7xx_hal_flash.o
 .text.FLASH_Program_DoubleWord
                0x0000000000000000       0x4c build/stm32f7xx_hal_flash.o
 .text.FLASH_Program_Word
                0x0000000000000000       0x48 build/stm32f7xx_hal_flash.o
 .text.FLASH_Program_HalfWord
                0x0000000000000000       0x48 build/stm32f7xx_hal_flash.o
 .text.FLASH_Program_Byte
                0x0000000000000000       0x44 build/stm32f7xx_hal_flash.o
 .text.FLASH_SetErrorCode
                0x0000000000000000       0x94 build/stm32f7xx_hal_flash.o
 .debug_info    0x0000000000000000      0x5f3 build/stm32f7xx_hal_flash.o
 .debug_abbrev  0x0000000000000000      0x1fd build/stm32f7xx_hal_flash.o
 .debug_loc     0x0000000000000000      0x52c build/stm32f7xx_hal_flash.o
 .debug_aranges
                0x0000000000000000       0xa0 build/stm32f7xx_hal_flash.o
 .debug_ranges  0x0000000000000000       0x90 build/stm32f7xx_hal_flash.o
 .debug_line    0x0000000000000000      0x3c5 build/stm32f7xx_hal_flash.o
 .debug_str     0x0000000000000000      0x53f build/stm32f7xx_hal_flash.o
 .comment       0x0000000000000000       0x71 build/stm32f7xx_hal_flash.o
 .debug_frame   0x0000000000000000      0x294 build/stm32f7xx_hal_flash.o
 .ARM.attributes
                0x0000000000000000       0x39 build/stm32f7xx_hal_flash.o
 COMMON         0x0000000000000000       0x1c build/stm32f7xx_hal_flash.o
 .text          0x0000000000000000        0x0 build/stm32f7xx_hal_flash_ex.o
 .data          0x0000000000000000        0x0 build/stm32f7xx_hal_flash_ex.o
 .bss           0x0000000000000000        0x0 build/stm32f7xx_hal_flash_ex.o
 .text.HAL_FLASHEx_Erase
                0x0000000000000000       0xe0 build/stm32f7xx_hal_flash_ex.o
 .text.HAL_FLASHEx_Erase_IT
                0x0000000000000000       0xa4 build/stm32f7xx_hal_flash_ex.o
 .text.HAL_FLASHEx_OBProgram
                0x0000000000000000      0x138 build/stm32f7xx_hal_flash_ex.o
 .text.HAL_FLASHEx_OBGetConfig
                0x0000000000000000       0x58 build/stm32f7xx_hal_flash_ex.o
 .text.FLASH_MassErase
                0x0000000000000000       0x74 build/stm32f7xx_hal_flash_ex.o
 .text.FLASH_Erase_Sector
                0x0000000000000000       0xb4 build/stm32f7xx_hal_flash_ex.o
 .text.FLASH_OB_GetWRP
                0x0000000000000000       0x20 build/stm32f7xx_hal_flash_ex.o
 .text.FLASH_OB_UserConfig
                0x0000000000000000       0x74 build/stm32f7xx_hal_flash_ex.o
 .text.FLASH_OB_GetUser
                0x0000000000000000       0x20 build/stm32f7xx_hal_flash_ex.o
 .text.FLASH_OB_EnableWRP
                0x0000000000000000       0x3c build/stm32f7xx_hal_flash_ex.o
 .text.FLASH_OB_DisableWRP
                0x0000000000000000       0x38 build/stm32f7xx_hal_flash_ex.o
 .text.FLASH_OB_RDP_LevelConfig
                0x0000000000000000       0x34 build/stm32f7xx_hal_flash_ex.o
 .text.FLASH_OB_BOR_LevelConfig
                0x0000000000000000       0x2c build/stm32f7xx_hal_flash_ex.o
 .text.FLASH_OB_BootAddressConfig
                0x0000000000000000       0x5c build/stm32f7xx_hal_flash_ex.o
 .text.FLASH_OB_GetRDP
                0x0000000000000000       0x40 build/stm32f7xx_hal_flash_ex.o
 .text.FLASH_OB_GetBOR
                0x0000000000000000       0x1c build/stm32f7xx_hal_flash_ex.o
 .text.FLASH_OB_GetBootAddress
                0x0000000000000000       0x38 build/stm32f7xx_hal_flash_ex.o
 .debug_info    0x0000000000000000      0x7f9 build/stm32f7xx_hal_flash_ex.o
 .debug_abbrev  0x0000000000000000      0x258 build/stm32f7xx_hal_flash_ex.o
 .debug_loc     0x0000000000000000      0x568 build/stm32f7xx_hal_flash_ex.o
 .debug_aranges
                0x0000000000000000       0xa0 build/stm32f7xx_hal_flash_ex.o
 .debug_ranges  0x0000000000000000       0x90 build/stm32f7xx_hal_flash_ex.o
 .debug_line    0x0000000000000000      0x3d9 build/stm32f7xx_hal_flash_ex.o
 .debug_str     0x0000000000000000      0x626 build/stm32f7xx_hal_flash_ex.o
 .comment       0x0000000000000000       0x71 build/stm32f7xx_hal_flash_ex.o
 .debug_frame   0x0000000000000000      0x2b4 build/stm32f7xx_hal_flash_ex.o
 .ARM.attributes
                0x0000000000000000       0x39 build/stm32f7xx_hal_flash_ex.o
 .text          0x0000000000000000        0x0 build/stm32f7xx_hal_gpio.o
 .data          0x0000000000000000        0x0 build/stm32f7xx_hal_gpio.o
 .bss           0x0000000000000000        0x0 build/stm32f7xx_hal_gpio.o
 .text.HAL_GPIO_DeInit
                0x0000000000000000      0x214 build/stm32f7xx_hal_gpio.o
 .text.HAL_GPIO_ReadPin
                0x0000000000000000       0x30 build/stm32f7xx_hal_gpio.o
 .text.HAL_GPIO_LockPin
                0x0000000000000000       0x50 build/stm32f7xx_hal_gpio.o
 .text.HAL_GPIO_EXTI_IRQHandler
                0x0000000000000000       0x30 build/stm32f7xx_hal_gpio.o
 .text.HAL_GPIO_EXTI_Callback
                0x0000000000000000       0x14 build/stm32f7xx_hal_gpio.o
 .text          0x0000000000000000        0x0 build/stm32f7xx_hal_i2c.o
 .data          0x0000000000000000        0x0 build/stm32f7xx_hal_i2c.o
 .bss           0x0000000000000000        0x0 build/stm32f7xx_hal_i2c.o
 .text.HAL_I2C_Init
                0x0000000000000000      0x11c build/stm32f7xx_hal_i2c.o
 .text.HAL_I2C_DeInit
                0x0000000000000000       0x60 build/stm32f7xx_hal_i2c.o
 .text.HAL_I2C_MspInit
                0x0000000000000000       0x14 build/stm32f7xx_hal_i2c.o
 .text.HAL_I2C_MspDeInit
                0x0000000000000000       0x14 build/stm32f7xx_hal_i2c.o
 .text.HAL_I2C_Master_Transmit
                0x0000000000000000      0x200 build/stm32f7xx_hal_i2c.o
 .text.HAL_I2C_Master_Receive
                0x0000000000000000      0x200 build/stm32f7xx_hal_i2c.o
 .text.HAL_I2C_Slave_Transmit
                0x0000000000000000      0x218 build/stm32f7xx_hal_i2c.o
 .text.HAL_I2C_Slave_Receive
                0x0000000000000000      0x20c build/stm32f7xx_hal_i2c.o
 .text.HAL_I2C_Master_Transmit_IT
                0x0000000000000000       0xe0 build/stm32f7xx_hal_i2c.o
 .text.HAL_I2C_Master_Receive_IT
                0x0000000000000000       0xe0 build/stm32f7xx_hal_i2c.o
 .text.HAL_I2C_Slave_Transmit_IT
                0x0000000000000000       0xa0 build/stm32f7xx_hal_i2c.o
 .text.HAL_I2C_Slave_Receive_IT
                0x0000000000000000       0xa0 build/stm32f7xx_hal_i2c.o
 .text.HAL_I2C_Master_Transmit_DMA
                0x0000000000000000      0x148 build/stm32f7xx_hal_i2c.o
 .text.HAL_I2C_Master_Receive_DMA
                0x0000000000000000      0x168 build/stm32f7xx_hal_i2c.o
 .text.HAL_I2C_Slave_Transmit_DMA
                0x0000000000000000      0x104 build/stm32f7xx_hal_i2c.o
 .text.HAL_I2C_Slave_Receive_DMA
                0x0000000000000000      0x100 build/stm32f7xx_hal_i2c.o
 .text.HAL_I2C_Mem_Write
                0x0000000000000000      0x24c build/stm32f7xx_hal_i2c.o
 .text.HAL_I2C_Mem_Read
                0x0000000000000000      0x24c build/stm32f7xx_hal_i2c.o
 .text.HAL_I2C_Mem_Write_IT
                0x0000000000000000      0x138 build/stm32f7xx_hal_i2c.o
 .text.HAL_I2C_Mem_Read_IT
                0x0000000000000000      0x13c build/stm32f7xx_hal_i2c.o
 .text.HAL_I2C_Mem_Write_DMA
                0x0000000000000000      0x1a0 build/stm32f7xx_hal_i2c.o
 .text.HAL_I2C_Mem_Read_DMA
                0x0000000000000000      0x1a0 build/stm32f7xx_hal_i2c.o
 .text.HAL_I2C_IsDeviceReady
                0x0000000000000000      0x1bc build/stm32f7xx_hal_i2c.o
 .text.HAL_I2C_Master_Sequential_Transmit_IT
                0x0000000000000000       0xd8 build/stm32f7xx_hal_i2c.o
 .text.HAL_I2C_Master_Sequential_Receive_IT
                0x0000000000000000       0xd8 build/stm32f7xx_hal_i2c.o
 .text.HAL_I2C_Slave_Sequential_Transmit_IT
                0x0000000000000000       0xcc build/stm32f7xx_hal_i2c.o
 .text.HAL_I2C_Slave_Sequential_Receive_IT
                0x0000000000000000       0xcc build/stm32f7xx_hal_i2c.o
 .text.HAL_I2C_EnableListen_IT
                0x0000000000000000       0x3c build/stm32f7xx_hal_i2c.o
 .text.HAL_I2C_DisableListen_IT
                0x0000000000000000       0x60 build/stm32f7xx_hal_i2c.o
 .text.HAL_I2C_Master_Abort_IT
                0x0000000000000000       0x78 build/stm32f7xx_hal_i2c.o
 .text.HAL_I2C_EV_IRQHandler
                0x0000000000000000       0x34 build/stm32f7xx_hal_i2c.o
 .text.HAL_I2C_ER_IRQHandler
                0x0000000000000000       0xb4 build/stm32f7xx_hal_i2c.o
 .text.HAL_I2C_MasterTxCpltCallback
                0x0000000000000000       0x14 build/stm32f7xx_hal_i2c.o
 .text.HAL_I2C_MasterRxCpltCallback
                0x0000000000000000       0x14 build/stm32f7xx_hal_i2c.o
 .text.HAL_I2C_SlaveTxCpltCallback
                0x0000000000000000       0x14 build/stm32f7xx_hal_i2c.o
 .text.HAL_I2C_SlaveRxCpltCallback
                0x0000000000000000       0x14 build/stm32f7xx_hal_i2c.o
 .text.HAL_I2C_AddrCallback
                0x0000000000000000       0x1c build/stm32f7xx_hal_i2c.o
 .text.HAL_I2C_ListenCpltCallback
                0x0000000000000000       0x14 build/stm32f7xx_hal_i2c.o
 .text.HAL_I2C_MemTxCpltCallback
                0x0000000000000000       0x14 build/stm32f7xx_hal_i2c.o
 .text.HAL_I2C_MemRxCpltCallback
                0x0000000000000000       0x14 build/stm32f7xx_hal_i2c.o
 .text.HAL_I2C_ErrorCallback
                0x0000000000000000       0x14 build/stm32f7xx_hal_i2c.o
 .text.HAL_I2C_AbortCpltCallback
                0x0000000000000000       0x14 build/stm32f7xx_hal_i2c.o
 .text.HAL_I2C_GetState
                0x0000000000000000       0x1c build/stm32f7xx_hal_i2c.o
 .text.HAL_I2C_GetMode
                0x0000000000000000       0x1c build/stm32f7xx_hal_i2c.o
 .text.HAL_I2C_GetError
                0x0000000000000000       0x18 build/stm32f7xx_hal_i2c.o
 .text.I2C_Master_ISR_IT
                0x0000000000000000      0x224 build/stm32f7xx_hal_i2c.o
 .text.I2C_Slave_ISR_IT
                0x0000000000000000      0x1d4 build/stm32f7xx_hal_i2c.o
 .text.I2C_Master_ISR_DMA
                0x0000000000000000      0x154 build/stm32f7xx_hal_i2c.o
 .text.I2C_Slave_ISR_DMA
                0x0000000000000000       0xd8 build/stm32f7xx_hal_i2c.o
 .text.I2C_RequestMemoryWrite
                0x0000000000000000       0xc0 build/stm32f7xx_hal_i2c.o
 .text.I2C_RequestMemoryRead
                0x0000000000000000       0xbc build/stm32f7xx_hal_i2c.o
 .text.I2C_ITAddrCplt
                0x0000000000000000      0x114 build/stm32f7xx_hal_i2c.o
 .text.I2C_ITMasterSequentialCplt
                0x0000000000000000       0x78 build/stm32f7xx_hal_i2c.o
 .text.I2C_ITSlaveSequentialCplt
                0x0000000000000000       0x78 build/stm32f7xx_hal_i2c.o
 .text.I2C_ITMasterCplt
                0x0000000000000000      0x124 build/stm32f7xx_hal_i2c.o
 .text.I2C_ITSlaveCplt
                0x0000000000000000      0x1d4 build/stm32f7xx_hal_i2c.o
 .text.I2C_ITListenCplt
                0x0000000000000000       0xa0 build/stm32f7xx_hal_i2c.o
 .text.I2C_ITError
                0x0000000000000000      0x168 build/stm32f7xx_hal_i2c.o
 .text.I2C_Flush_TXDR
                0x0000000000000000       0x48 build/stm32f7xx_hal_i2c.o
 .text.I2C_DMAMasterTransmitCplt
                0x0000000000000000       0x88 build/stm32f7xx_hal_i2c.o
 .text.I2C_DMASlaveTransmitCplt
                0x0000000000000000       0x14 build/stm32f7xx_hal_i2c.o
 .text.I2C_DMAMasterReceiveCplt
                0x0000000000000000       0x88 build/stm32f7xx_hal_i2c.o
 .text.I2C_DMASlaveReceiveCplt
                0x0000000000000000       0x14 build/stm32f7xx_hal_i2c.o
 .text.I2C_DMAError
                0x0000000000000000       0x2c build/stm32f7xx_hal_i2c.o
 .text.I2C_DMAAbort
                0x0000000000000000       0x58 build/stm32f7xx_hal_i2c.o
 .text.I2C_WaitOnFlagUntilTimeout
                0x0000000000000000       0x74 build/stm32f7xx_hal_i2c.o
 .text.I2C_WaitOnTXISFlagUntilTimeout
                0x0000000000000000       0x80 build/stm32f7xx_hal_i2c.o
 .text.I2C_WaitOnSTOPFlagUntilTimeout
                0x0000000000000000       0x78 build/stm32f7xx_hal_i2c.o
 .text.I2C_WaitOnRXNEFlagUntilTimeout
                0x0000000000000000       0xbc build/stm32f7xx_hal_i2c.o
 .text.I2C_IsAcknowledgeFailed
                0x0000000000000000       0xbc build/stm32f7xx_hal_i2c.o
 .text.I2C_TransferConfig
                0x0000000000000000       0x5c build/stm32f7xx_hal_i2c.o
 .text.I2C_Enable_IRQ
                0x0000000000000000       0xe0 build/stm32f7xx_hal_i2c.o
 .text.I2C_Disable_IRQ
                0x0000000000000000       0xcc build/stm32f7xx_hal_i2c.o
 .debug_info    0x0000000000000000     0x1d87 build/stm32f7xx_hal_i2c.o
 .debug_abbrev  0x0000000000000000      0x1fb build/stm32f7xx_hal_i2c.o
 .debug_loc     0x0000000000000000     0x17cc build/stm32f7xx_hal_i2c.o
 .debug_aranges
                0x0000000000000000      0x260 build/stm32f7xx_hal_i2c.o
 .debug_ranges  0x0000000000000000      0x250 build/stm32f7xx_hal_i2c.o
 .debug_line    0x0000000000000000     0x1240 build/stm32f7xx_hal_i2c.o
 .debug_str     0x0000000000000000      0xf00 build/stm32f7xx_hal_i2c.o
 .comment       0x0000000000000000       0x71 build/stm32f7xx_hal_i2c.o
 .debug_frame   0x0000000000000000      0xba4 build/stm32f7xx_hal_i2c.o
 .ARM.attributes
                0x0000000000000000       0x39 build/stm32f7xx_hal_i2c.o
 .text          0x0000000000000000        0x0 build/stm32f7xx_hal_i2c_ex.o
 .data          0x0000000000000000        0x0 build/stm32f7xx_hal_i2c_ex.o
 .bss           0x0000000000000000        0x0 build/stm32f7xx_hal_i2c_ex.o
 .text.HAL_I2CEx_ConfigAnalogFilter
                0x0000000000000000       0x98 build/stm32f7xx_hal_i2c_ex.o
 .text.HAL_I2CEx_ConfigDigitalFilter
                0x0000000000000000       0x9c build/stm32f7xx_hal_i2c_ex.o
 .text.HAL_I2CEx_EnableFastModePlus
                0x0000000000000000       0x40 build/stm32f7xx_hal_i2c_ex.o
 .text.HAL_I2CEx_DisableFastModePlus
                0x0000000000000000       0x40 build/stm32f7xx_hal_i2c_ex.o
 .debug_info    0x0000000000000000      0xa3e build/stm32f7xx_hal_i2c_ex.o
 .debug_abbrev  0x0000000000000000      0x164 build/stm32f7xx_hal_i2c_ex.o
 .debug_loc     0x0000000000000000      0x170 build/stm32f7xx_hal_i2c_ex.o
 .debug_aranges
                0x0000000000000000       0x38 build/stm32f7xx_hal_i2c_ex.o
 .debug_ranges  0x0000000000000000       0x28 build/stm32f7xx_hal_i2c_ex.o
 .debug_line    0x0000000000000000      0x259 build/stm32f7xx_hal_i2c_ex.o
 .debug_str     0x0000000000000000      0x932 build/stm32f7xx_hal_i2c_ex.o
 .comment       0x0000000000000000       0x71 build/stm32f7xx_hal_i2c_ex.o
 .debug_frame   0x0000000000000000       0xb0 build/stm32f7xx_hal_i2c_ex.o
 .ARM.attributes
                0x0000000000000000       0x39 build/stm32f7xx_hal_i2c_ex.o
 .text          0x0000000000000000        0x0 build/stm32f7xx_hal_ltdc.o
 .data          0x0000000000000000        0x0 build/stm32f7xx_hal_ltdc.o
 .bss           0x0000000000000000        0x0 build/stm32f7xx_hal_ltdc.o
 .text.HAL_LTDC_DeInit
                0x0000000000000000       0x30 build/stm32f7xx_hal_ltdc.o
 .text.HAL_LTDC_MspDeInit
                0x0000000000000000       0x14 build/stm32f7xx_hal_ltdc.o
 .text.HAL_LTDC_IRQHandler
                0x0000000000000000      0x158 build/stm32f7xx_hal_ltdc.o
 .text.HAL_LTDC_ErrorCallback
                0x0000000000000000       0x14 build/stm32f7xx_hal_ltdc.o
 .text.HAL_LTDC_LineEventCallback
                0x0000000000000000       0x14 build/stm32f7xx_hal_ltdc.o
 .text.HAL_LTDC_ReloadEventCallback
                0x0000000000000000       0x14 build/stm32f7xx_hal_ltdc.o
 .text.HAL_LTDC_ConfigColorKeying
                0x0000000000000000       0x8c build/stm32f7xx_hal_ltdc.o
 .text.HAL_LTDC_ConfigCLUT
                0x0000000000000000       0xe8 build/stm32f7xx_hal_ltdc.o
 .text.HAL_LTDC_EnableColorKeying
                0x0000000000000000       0x74 build/stm32f7xx_hal_ltdc.o
 .text.HAL_LTDC_DisableColorKeying
                0x0000000000000000       0x74 build/stm32f7xx_hal_ltdc.o
 .text.HAL_LTDC_EnableCLUT
                0x0000000000000000       0x74 build/stm32f7xx_hal_ltdc.o
 .text.HAL_LTDC_DisableCLUT
                0x0000000000000000       0x74 build/stm32f7xx_hal_ltdc.o
 .text.HAL_LTDC_EnableDither
                0x0000000000000000       0x54 build/stm32f7xx_hal_ltdc.o
 .text.HAL_LTDC_DisableDither
                0x0000000000000000       0x54 build/stm32f7xx_hal_ltdc.o
 .text.HAL_LTDC_SetWindowSize
                0x0000000000000000       0x98 build/stm32f7xx_hal_ltdc.o
 .text.HAL_LTDC_SetWindowPosition
                0x0000000000000000       0x8c build/stm32f7xx_hal_ltdc.o
 .text.HAL_LTDC_SetPixelFormat
                0x0000000000000000       0x6c build/stm32f7xx_hal_ltdc.o
 .text.HAL_LTDC_SetAlpha
                0x0000000000000000       0x6c build/stm32f7xx_hal_ltdc.o
 .text.HAL_LTDC_SetAddress
                0x0000000000000000       0x6c build/stm32f7xx_hal_ltdc.o
 .text.HAL_LTDC_SetPitch
                0x0000000000000000      0x118 build/stm32f7xx_hal_ltdc.o
 .text.HAL_LTDC_ProgramLineEvent
                0x0000000000000000       0x60 build/stm32f7xx_hal_ltdc.o
 .text.HAL_LTDC_Reload
                0x0000000000000000       0x60 build/stm32f7xx_hal_ltdc.o
 .text.HAL_LTDC_ConfigLayer_NoReload
                0x0000000000000000       0x74 build/stm32f7xx_hal_ltdc.o
 .text.HAL_LTDC_SetWindowSize_NoReload
                0x0000000000000000       0x90 build/stm32f7xx_hal_ltdc.o
 .text.HAL_LTDC_SetWindowPosition_NoReload
                0x0000000000000000       0x84 build/stm32f7xx_hal_ltdc.o
 .text.HAL_LTDC_SetPixelFormat_NoReload
                0x0000000000000000       0x64 build/stm32f7xx_hal_ltdc.o
 .text.HAL_LTDC_SetAlpha_NoReload
                0x0000000000000000       0x64 build/stm32f7xx_hal_ltdc.o
 .text.HAL_LTDC_SetAddress_NoReload
                0x0000000000000000       0x64 build/stm32f7xx_hal_ltdc.o
 .text.HAL_LTDC_SetPitch_NoReload
                0x0000000000000000       0xfc build/stm32f7xx_hal_ltdc.o
 .text.HAL_LTDC_ConfigColorKeying_NoReload
                0x0000000000000000       0x84 build/stm32f7xx_hal_ltdc.o
 .text.HAL_LTDC_EnableColorKeying_NoReload
                0x0000000000000000       0x6c build/stm32f7xx_hal_ltdc.o
 .text.HAL_LTDC_DisableColorKeying_NoReload
                0x0000000000000000       0x6c build/stm32f7xx_hal_ltdc.o
 .text.HAL_LTDC_EnableCLUT_NoReload
                0x0000000000000000       0x6c build/stm32f7xx_hal_ltdc.o
 .text.HAL_LTDC_DisableCLUT_NoReload
                0x0000000000000000       0x6c build/stm32f7xx_hal_ltdc.o
 .text.HAL_LTDC_GetState
                0x0000000000000000       0x1c build/stm32f7xx_hal_ltdc.o
 .text.HAL_LTDC_GetError
                0x0000000000000000       0x1c build/stm32f7xx_hal_ltdc.o
 .text          0x0000000000000000        0x0 build/stm32f7xx_hal_ltdc_ex.o
 .data          0x0000000000000000        0x0 build/stm32f7xx_hal_ltdc_ex.o
 .bss           0x0000000000000000        0x0 build/stm32f7xx_hal_ltdc_ex.o
 .text.HAL_LTDC_StructInitFromAdaptedCommandConfig
                0x0000000000000000       0x54 build/stm32f7xx_hal_ltdc_ex.o
 .text          0x0000000000000000        0x0 build/stm32f7xx_hal_pwr.o
 .data          0x0000000000000000        0x0 build/stm32f7xx_hal_pwr.o
 .bss           0x0000000000000000        0x0 build/stm32f7xx_hal_pwr.o
 .text.HAL_PWR_DeInit
                0x0000000000000000       0x28 build/stm32f7xx_hal_pwr.o
 .text.HAL_PWR_EnableBkUpAccess
                0x0000000000000000       0x1c build/stm32f7xx_hal_pwr.o
 .text.HAL_PWR_DisableBkUpAccess
                0x0000000000000000       0x1c build/stm32f7xx_hal_pwr.o
 .text.HAL_PWR_ConfigPVD
                0x0000000000000000       0xbc build/stm32f7xx_hal_pwr.o
 .text.HAL_PWR_EnablePVD
                0x0000000000000000       0x1c build/stm32f7xx_hal_pwr.o
 .text.HAL_PWR_DisablePVD
                0x0000000000000000       0x1c build/stm32f7xx_hal_pwr.o
 .text.HAL_PWR_EnableWakeUpPin
                0x0000000000000000       0x40 build/stm32f7xx_hal_pwr.o
 .text.HAL_PWR_DisableWakeUpPin
                0x0000000000000000       0x24 build/stm32f7xx_hal_pwr.o
 .text.HAL_PWR_EnterSLEEPMode
                0x0000000000000000       0x38 build/stm32f7xx_hal_pwr.o
 .text.HAL_PWR_EnterSTOPMode
                0x0000000000000000       0x68 build/stm32f7xx_hal_pwr.o
 .text.HAL_PWR_EnterSTANDBYMode
                0x0000000000000000       0x30 build/stm32f7xx_hal_pwr.o
 .text.HAL_PWR_PVD_IRQHandler
                0x0000000000000000       0x24 build/stm32f7xx_hal_pwr.o
 .text.HAL_PWR_PVDCallback
                0x0000000000000000        0xc build/stm32f7xx_hal_pwr.o
 .text.HAL_PWR_EnableSleepOnExit
                0x0000000000000000       0x1c build/stm32f7xx_hal_pwr.o
 .text.HAL_PWR_DisableSleepOnExit
                0x0000000000000000       0x1c build/stm32f7xx_hal_pwr.o
 .text.HAL_PWR_EnableSEVOnPend
                0x0000000000000000       0x1c build/stm32f7xx_hal_pwr.o
 .text.HAL_PWR_DisableSEVOnPend
                0x0000000000000000       0x1c build/stm32f7xx_hal_pwr.o
 .debug_info    0x0000000000000000      0xa7e build/stm32f7xx_hal_pwr.o
 .debug_abbrev  0x0000000000000000      0x191 build/stm32f7xx_hal_pwr.o
 .debug_loc     0x0000000000000000      0x4e4 build/stm32f7xx_hal_pwr.o
 .debug_aranges
                0x0000000000000000       0xa0 build/stm32f7xx_hal_pwr.o
 .debug_ranges  0x0000000000000000       0x90 build/stm32f7xx_hal_pwr.o
 .debug_line    0x0000000000000000      0x2fa build/stm32f7xx_hal_pwr.o
 .debug_str     0x0000000000000000      0x674 build/stm32f7xx_hal_pwr.o
 .comment       0x0000000000000000       0x71 build/stm32f7xx_hal_pwr.o
 .debug_frame   0x0000000000000000      0x280 build/stm32f7xx_hal_pwr.o
 .ARM.attributes
                0x0000000000000000       0x39 build/stm32f7xx_hal_pwr.o
 .text          0x0000000000000000        0x0 build/stm32f7xx_hal_pwr_ex.o
 .data          0x0000000000000000        0x0 build/stm32f7xx_hal_pwr_ex.o
 .bss           0x0000000000000000        0x0 build/stm32f7xx_hal_pwr_ex.o
 .text.HAL_PWREx_EnableBkUpReg
                0x0000000000000000       0x58 build/stm32f7xx_hal_pwr_ex.o
 .text.HAL_PWREx_DisableBkUpReg
                0x0000000000000000       0x58 build/stm32f7xx_hal_pwr_ex.o
 .text.HAL_PWREx_EnableFlashPowerDown
                0x0000000000000000       0x1c build/stm32f7xx_hal_pwr_ex.o
 .text.HAL_PWREx_DisableFlashPowerDown
                0x0000000000000000       0x1c build/stm32f7xx_hal_pwr_ex.o
 .text.HAL_PWREx_EnableMainRegulatorLowVoltage
                0x0000000000000000       0x1c build/stm32f7xx_hal_pwr_ex.o
 .text.HAL_PWREx_DisableMainRegulatorLowVoltage
                0x0000000000000000       0x1c build/stm32f7xx_hal_pwr_ex.o
 .text.HAL_PWREx_EnableLowRegulatorLowVoltage
                0x0000000000000000       0x1c build/stm32f7xx_hal_pwr_ex.o
 .text.HAL_PWREx_DisableLowRegulatorLowVoltage
                0x0000000000000000       0x1c build/stm32f7xx_hal_pwr_ex.o
 .text.HAL_PWREx_DisableOverDrive
                0x0000000000000000       0x9c build/stm32f7xx_hal_pwr_ex.o
 .text.HAL_PWREx_EnterUnderDriveSTOPMode
                0x0000000000000000       0xc8 build/stm32f7xx_hal_pwr_ex.o
 .text.HAL_PWREx_GetVoltageRange
                0x0000000000000000       0x1c build/stm32f7xx_hal_pwr_ex.o
 .text.HAL_PWREx_ControlVoltageScaling
                0x0000000000000000       0xf0 build/stm32f7xx_hal_pwr_ex.o
 .text          0x0000000000000000        0x0 build/stm32f7xx_hal_rcc.o
 .data          0x0000000000000000        0x0 build/stm32f7xx_hal_rcc.o
 .bss           0x0000000000000000        0x0 build/stm32f7xx_hal_rcc.o
 .text.HAL_RCC_DeInit
                0x0000000000000000       0x84 build/stm32f7xx_hal_rcc.o
 .text.HAL_RCC_MCOConfig
                0x0000000000000000       0xc4 build/stm32f7xx_hal_rcc.o
 .text.HAL_RCC_EnableCSS
                0x0000000000000000       0x1c build/stm32f7xx_hal_rcc.o
 .text.HAL_RCC_DisableCSS
                0x0000000000000000       0x1c build/stm32f7xx_hal_rcc.o
 .text.HAL_RCC_GetPCLK2Freq
                0x0000000000000000       0x44 build/stm32f7xx_hal_rcc.o
 .text.HAL_RCC_GetOscConfig
                0x0000000000000000      0x174 build/stm32f7xx_hal_rcc.o
 .text.HAL_RCC_NMI_IRQHandler
                0x0000000000000000       0x24 build/stm32f7xx_hal_rcc.o
 .text.HAL_RCC_CSSCallback
                0x0000000000000000        0xc build/stm32f7xx_hal_rcc.o
 .text          0x0000000000000000        0x0 build/stm32f7xx_hal_rcc_ex.o
 .data          0x0000000000000000        0x0 build/stm32f7xx_hal_rcc_ex.o
 .bss           0x0000000000000000        0x0 build/stm32f7xx_hal_rcc_ex.o
 .text.HAL_RCCEx_GetPeriphCLKConfig
                0x0000000000000000      0x330 build/stm32f7xx_hal_rcc_ex.o
 .text.HAL_RCCEx_GetPeriphCLKFreq
                0x0000000000000000      0x2b8 build/stm32f7xx_hal_rcc_ex.o
 .text          0x0000000000000000        0x0 build/stm32f7xx_hal_sdram.o
 .data          0x0000000000000000        0x0 build/stm32f7xx_hal_sdram.o
 .bss           0x0000000000000000        0x0 build/stm32f7xx_hal_sdram.o
 .text.HAL_SDRAM_DeInit
                0x0000000000000000       0x38 build/stm32f7xx_hal_sdram.o
 .text.HAL_SDRAM_MspDeInit
                0x0000000000000000       0x14 build/stm32f7xx_hal_sdram.o
 .text.HAL_SDRAM_IRQHandler
                0x0000000000000000       0x34 build/stm32f7xx_hal_sdram.o
 .text.HAL_SDRAM_RefreshErrorCallback
                0x0000000000000000       0x14 build/stm32f7xx_hal_sdram.o
 .text.HAL_SDRAM_DMA_XferCpltCallback
                0x0000000000000000       0x14 build/stm32f7xx_hal_sdram.o
 .text.HAL_SDRAM_DMA_XferErrorCallback
                0x0000000000000000       0x14 build/stm32f7xx_hal_sdram.o
 .text.HAL_SDRAM_Read_8b
                0x0000000000000000       0x84 build/stm32f7xx_hal_sdram.o
 .text.HAL_SDRAM_Write_8b
                0x0000000000000000       0x88 build/stm32f7xx_hal_sdram.o
 .text.HAL_SDRAM_Read_16b
                0x0000000000000000       0x84 build/stm32f7xx_hal_sdram.o
 .text.HAL_SDRAM_Write_16b
                0x0000000000000000       0x88 build/stm32f7xx_hal_sdram.o
 .text.HAL_SDRAM_Read_32b
                0x0000000000000000       0x80 build/stm32f7xx_hal_sdram.o
 .text.HAL_SDRAM_Write_32b
                0x0000000000000000       0x88 build/stm32f7xx_hal_sdram.o
 .text.HAL_SDRAM_Read_DMA
                0x0000000000000000       0x84 build/stm32f7xx_hal_sdram.o
 .text.HAL_SDRAM_Write_DMA
                0x0000000000000000       0x8c build/stm32f7xx_hal_sdram.o
 .text.HAL_SDRAM_WriteProtection_Enable
                0x0000000000000000       0x44 build/stm32f7xx_hal_sdram.o
 .text.HAL_SDRAM_WriteProtection_Disable
                0x0000000000000000       0x44 build/stm32f7xx_hal_sdram.o
 .text.HAL_SDRAM_SetAutoRefreshNumber
                0x0000000000000000       0x40 build/stm32f7xx_hal_sdram.o
 .text.HAL_SDRAM_GetModeStatus
                0x0000000000000000       0x24 build/stm32f7xx_hal_sdram.o
 .text.HAL_SDRAM_GetState
                0x0000000000000000       0x1c build/stm32f7xx_hal_sdram.o
 .text          0x0000000000000000        0x0 build/stm32f7xx_hal_tim.o
 .data          0x0000000000000000        0x0 build/stm32f7xx_hal_tim.o
 .bss           0x0000000000000000        0x0 build/stm32f7xx_hal_tim.o
 .text.HAL_TIM_Base_DeInit
                0x0000000000000000       0x60 build/stm32f7xx_hal_tim.o
 .text.HAL_TIM_Base_MspDeInit
                0x0000000000000000       0x14 build/stm32f7xx_hal_tim.o
 .text.HAL_TIM_Base_Start
                0x0000000000000000       0x38 build/stm32f7xx_hal_tim.o
 .text.HAL_TIM_Base_Stop
                0x0000000000000000       0x58 build/stm32f7xx_hal_tim.o
 .text.HAL_TIM_Base_Stop_IT
                0x0000000000000000       0x58 build/stm32f7xx_hal_tim.o
 .text.HAL_TIM_Base_Start_DMA
                0x0000000000000000       0xa0 build/stm32f7xx_hal_tim.o
 .text.HAL_TIM_Base_Stop_DMA
                0x0000000000000000       0x60 build/stm32f7xx_hal_tim.o
 .text.HAL_TIM_OC_Init
                0x0000000000000000       0x58 build/stm32f7xx_hal_tim.o
 .text.HAL_TIM_OC_DeInit
                0x0000000000000000       0x60 build/stm32f7xx_hal_tim.o
 .text.HAL_TIM_OC_MspInit
                0x0000000000000000       0x14 build/stm32f7xx_hal_tim.o
 .text.HAL_TIM_OC_MspDeInit
                0x0000000000000000       0x14 build/stm32f7xx_hal_tim.o
 .text.HAL_TIM_OC_Start
                0x0000000000000000       0x68 build/stm32f7xx_hal_tim.o
 .text.HAL_TIM_OC_Stop
                0x0000000000000000       0xa8 build/stm32f7xx_hal_tim.o
 .text.HAL_TIM_OC_Start_IT
                0x0000000000000000       0xf4 build/stm32f7xx_hal_tim.o
 .text.HAL_TIM_OC_Stop_IT
                0x0000000000000000      0x134 build/stm32f7xx_hal_tim.o
 .text.HAL_TIM_OC_Start_DMA
                0x0000000000000000      0x1dc build/stm32f7xx_hal_tim.o
 .text.HAL_TIM_OC_Stop_DMA
                0x0000000000000000      0x13c build/stm32f7xx_hal_tim.o
 .text.HAL_TIM_PWM_Init
                0x0000000000000000       0x58 build/stm32f7xx_hal_tim.o
 .text.HAL_TIM_PWM_DeInit
                0x0000000000000000       0x60 build/stm32f7xx_hal_tim.o
 .text.HAL_TIM_PWM_MspInit
                0x0000000000000000       0x14 build/stm32f7xx_hal_tim.o
 .text.HAL_TIM_PWM_MspDeInit
                0x0000000000000000       0x14 build/stm32f7xx_hal_tim.o
 .text.HAL_TIM_PWM_Start
                0x0000000000000000       0x68 build/stm32f7xx_hal_tim.o
 .text.HAL_TIM_PWM_Stop
                0x0000000000000000       0xb0 build/stm32f7xx_hal_tim.o
 .text.HAL_TIM_PWM_Start_IT
                0x0000000000000000       0xf4 build/stm32f7xx_hal_tim.o
 .text.HAL_TIM_PWM_Stop_IT
                0x0000000000000000      0x134 build/stm32f7xx_hal_tim.o
 .text.HAL_TIM_PWM_Start_DMA
                0x0000000000000000      0x1dc build/stm32f7xx_hal_tim.o
 .text.HAL_TIM_PWM_Stop_DMA
                0x0000000000000000      0x13c build/stm32f7xx_hal_tim.o
 .text.HAL_TIM_IC_Init
                0x0000000000000000       0x58 build/stm32f7xx_hal_tim.o
 .text.HAL_TIM_IC_DeInit
                0x0000000000000000       0x60 build/stm32f7xx_hal_tim.o
 .text.HAL_TIM_IC_MspInit
                0x0000000000000000       0x14 build/stm32f7xx_hal_tim.o
 .text.HAL_TIM_IC_MspDeInit
                0x0000000000000000       0x14 build/stm32f7xx_hal_tim.o
 .text.HAL_TIM_IC_Start
                0x0000000000000000       0x34 build/stm32f7xx_hal_tim.o
 .text.HAL_TIM_IC_Stop
                0x0000000000000000       0x54 build/stm32f7xx_hal_tim.o
 .text.HAL_TIM_IC_Start_IT
                0x0000000000000000       0xc0 build/stm32f7xx_hal_tim.o
 .text.HAL_TIM_IC_Stop_IT
                0x0000000000000000       0xe0 build/stm32f7xx_hal_tim.o
 .text.HAL_TIM_IC_Start_DMA
                0x0000000000000000      0x1a0 build/stm32f7xx_hal_tim.o
 .text.HAL_TIM_IC_Stop_DMA
                0x0000000000000000       0xe8 build/stm32f7xx_hal_tim.o
 .text.HAL_TIM_OnePulse_Init
                0x0000000000000000       0x78 build/stm32f7xx_hal_tim.o
 .text.HAL_TIM_OnePulse_DeInit
                0x0000000000000000       0x60 build/stm32f7xx_hal_tim.o
 .text.HAL_TIM_OnePulse_MspInit
                0x0000000000000000       0x14 build/stm32f7xx_hal_tim.o
 .text.HAL_TIM_OnePulse_MspDeInit
                0x0000000000000000       0x14 build/stm32f7xx_hal_tim.o
 .text.HAL_TIM_OnePulse_Start
                0x0000000000000000       0x68 build/stm32f7xx_hal_tim.o
 .text.HAL_TIM_OnePulse_Stop
                0x0000000000000000       0xb8 build/stm32f7xx_hal_tim.o
 .text.HAL_TIM_OnePulse_Start_IT
                0x0000000000000000       0x88 build/stm32f7xx_hal_tim.o
 .text.HAL_TIM_OnePulse_Stop_IT
                0x0000000000000000       0xd8 build/stm32f7xx_hal_tim.o
 .text.HAL_TIM_Encoder_Init
                0x0000000000000000      0x130 build/stm32f7xx_hal_tim.o
 .text.HAL_TIM_Encoder_DeInit
                0x0000000000000000       0x60 build/stm32f7xx_hal_tim.o
 .text.HAL_TIM_Encoder_MspInit
                0x0000000000000000       0x14 build/stm32f7xx_hal_tim.o
 .text.HAL_TIM_Encoder_MspDeInit
                0x0000000000000000       0x14 build/stm32f7xx_hal_tim.o
 .text.HAL_TIM_Encoder_Start
                0x0000000000000000       0x70 build/stm32f7xx_hal_tim.o
 .text.HAL_TIM_Encoder_Stop
                0x0000000000000000       0x90 build/stm32f7xx_hal_tim.o
 .text.HAL_TIM_Encoder_Start_IT
                0x0000000000000000       0xb0 build/stm32f7xx_hal_tim.o
 .text.HAL_TIM_Encoder_Stop_IT
                0x0000000000000000       0xd4 build/stm32f7xx_hal_tim.o
 .text.HAL_TIM_Encoder_Start_DMA
                0x0000000000000000      0x1b8 build/stm32f7xx_hal_tim.o
 .text.HAL_TIM_Encoder_Stop_DMA
                0x0000000000000000       0xd4 build/stm32f7xx_hal_tim.o
 .text.HAL_TIM_OC_ConfigChannel
                0x0000000000000000       0xc0 build/stm32f7xx_hal_tim.o
 .text.HAL_TIM_IC_ConfigChannel
                0x0000000000000000      0x138 build/stm32f7xx_hal_tim.o
 .text.HAL_TIM_PWM_ConfigChannel
                0x0000000000000000      0x18c build/stm32f7xx_hal_tim.o
 .text.HAL_TIM_OnePulse_ConfigChannel
                0x0000000000000000      0x184 build/stm32f7xx_hal_tim.o
 .text.HAL_TIM_DMABurst_WriteStart
                0x0000000000000000      0x20c build/stm32f7xx_hal_tim.o
 .text.HAL_TIM_DMABurst_WriteStop
                0x0000000000000000       0xb0 build/stm32f7xx_hal_tim.o
 .text.HAL_TIM_DMABurst_ReadStart
                0x0000000000000000      0x200 build/stm32f7xx_hal_tim.o
 .text.HAL_TIM_DMABurst_ReadStop
                0x0000000000000000       0xb0 build/stm32f7xx_hal_tim.o
 .text.HAL_TIM_GenerateEvent
                0x0000000000000000       0x50 build/stm32f7xx_hal_tim.o
 .text.HAL_TIM_ConfigOCrefClear
                0x0000000000000000      0x154 build/stm32f7xx_hal_tim.o
 .text.HAL_TIM_ConfigClockSource
                0x0000000000000000      0x1cc build/stm32f7xx_hal_tim.o
 .text.HAL_TIM_ConfigTI1Input
                0x0000000000000000       0x3c build/stm32f7xx_hal_tim.o
 .text.HAL_TIM_SlaveConfigSynchronization
                0x0000000000000000      0x154 build/stm32f7xx_hal_tim.o
 .text.HAL_TIM_SlaveConfigSynchronization_IT
                0x0000000000000000       0x6c build/stm32f7xx_hal_tim.o
 .text.HAL_TIM_ReadCapturedValue
                0x0000000000000000       0xa4 build/stm32f7xx_hal_tim.o
 .text.HAL_TIM_PeriodElapsedCallback
                0x0000000000000000       0x14 build/stm32f7xx_hal_tim.o
 .text.HAL_TIM_ErrorCallback
                0x0000000000000000       0x14 build/stm32f7xx_hal_tim.o
 .text.HAL_TIM_Base_GetState
                0x0000000000000000       0x1c build/stm32f7xx_hal_tim.o
 .text.HAL_TIM_OC_GetState
                0x0000000000000000       0x1c build/stm32f7xx_hal_tim.o
 .text.HAL_TIM_PWM_GetState
                0x0000000000000000       0x1c build/stm32f7xx_hal_tim.o
 .text.HAL_TIM_IC_GetState
                0x0000000000000000       0x1c build/stm32f7xx_hal_tim.o
 .text.HAL_TIM_OnePulse_GetState
                0x0000000000000000       0x1c build/stm32f7xx_hal_tim.o
 .text.HAL_TIM_Encoder_GetState
                0x0000000000000000       0x1c build/stm32f7xx_hal_tim.o
 .text.TIM_DMAError
                0x0000000000000000       0x24 build/stm32f7xx_hal_tim.o
 .text.TIM_DMADelayPulseCplt
                0x0000000000000000       0x70 build/stm32f7xx_hal_tim.o
 .text.TIM_DMACaptureCplt
                0x0000000000000000       0x70 build/stm32f7xx_hal_tim.o
 .text.TIM_DMAPeriodElapsedCplt
                0x0000000000000000       0x24 build/stm32f7xx_hal_tim.o
 .text.TIM_DMATriggerCplt
                0x0000000000000000       0x24 build/stm32f7xx_hal_tim.o
 .text.TIM_OC1_SetConfig
                0x0000000000000000       0xe8 build/stm32f7xx_hal_tim.o
 .text.TIM_OC2_SetConfig
                0x0000000000000000       0xf4 build/stm32f7xx_hal_tim.o
 .text.TIM_OC3_SetConfig
                0x0000000000000000       0xf0 build/stm32f7xx_hal_tim.o
 .text.TIM_OC4_SetConfig
                0x0000000000000000       0xc4 build/stm32f7xx_hal_tim.o
 .text.TIM_SlaveTimer_SetConfig
                0x0000000000000000      0x120 build/stm32f7xx_hal_tim.o
 .text.TIM_TI1_SetConfig
                0x0000000000000000       0xec build/stm32f7xx_hal_tim.o
 .text.TIM_TI1_ConfigInputStage
                0x0000000000000000       0x64 build/stm32f7xx_hal_tim.o
 .text.TIM_TI2_SetConfig
                0x0000000000000000       0x80 build/stm32f7xx_hal_tim.o
 .text.TIM_TI2_ConfigInputStage
                0x0000000000000000       0x68 build/stm32f7xx_hal_tim.o
 .text.TIM_TI3_SetConfig
                0x0000000000000000       0x80 build/stm32f7xx_hal_tim.o
 .text.TIM_TI4_SetConfig
                0x0000000000000000       0x80 build/stm32f7xx_hal_tim.o
 .text.TIM_ITRx_SetConfig
                0x0000000000000000       0x40 build/stm32f7xx_hal_tim.o
 .text.TIM_ETR_SetConfig
                0x0000000000000000       0x44 build/stm32f7xx_hal_tim.o
 .text.TIM_CCxChannelCmd
                0x0000000000000000       0x44 build/stm32f7xx_hal_tim.o
 .text          0x0000000000000000        0x0 build/stm32f7xx_hal_tim_ex.o
 .data          0x0000000000000000        0x0 build/stm32f7xx_hal_tim_ex.o
 .bss           0x0000000000000000        0x0 build/stm32f7xx_hal_tim_ex.o
 .text.HAL_TIMEx_HallSensor_Init
                0x0000000000000000      0x120 build/stm32f7xx_hal_tim_ex.o
 .text.HAL_TIMEx_HallSensor_DeInit
                0x0000000000000000       0x60 build/stm32f7xx_hal_tim_ex.o
 .text.HAL_TIMEx_HallSensor_MspInit
                0x0000000000000000       0x14 build/stm32f7xx_hal_tim_ex.o
 .text.HAL_TIMEx_HallSensor_MspDeInit
                0x0000000000000000       0x14 build/stm32f7xx_hal_tim_ex.o
 .text.HAL_TIMEx_HallSensor_Start
                0x0000000000000000       0x30 build/stm32f7xx_hal_tim_ex.o
 .text.HAL_TIMEx_HallSensor_Stop
                0x0000000000000000       0x50 build/stm32f7xx_hal_tim_ex.o
 .text.HAL_TIMEx_HallSensor_Start_IT
                0x0000000000000000       0x40 build/stm32f7xx_hal_tim_ex.o
 .text.HAL_TIMEx_HallSensor_Stop_IT
                0x0000000000000000       0x60 build/stm32f7xx_hal_tim_ex.o
 .text.HAL_TIMEx_HallSensor_Start_DMA
                0x0000000000000000       0xac build/stm32f7xx_hal_tim_ex.o
 .text.HAL_TIMEx_HallSensor_Stop_DMA
                0x0000000000000000       0x60 build/stm32f7xx_hal_tim_ex.o
 .text.HAL_TIMEx_OCN_Start
                0x0000000000000000       0x44 build/stm32f7xx_hal_tim_ex.o
 .text.HAL_TIMEx_OCN_Stop
                0x0000000000000000       0x84 build/stm32f7xx_hal_tim_ex.o
 .text.HAL_TIMEx_OCN_Start_IT
                0x0000000000000000       0xe0 build/stm32f7xx_hal_tim_ex.o
 .text.HAL_TIMEx_OCN_Stop_IT
                0x0000000000000000      0x138 build/stm32f7xx_hal_tim_ex.o
 .text.HAL_TIMEx_OCN_Start_DMA
                0x0000000000000000      0x1b8 build/stm32f7xx_hal_tim_ex.o
 .text.HAL_TIMEx_OCN_Stop_DMA
                0x0000000000000000      0x118 build/stm32f7xx_hal_tim_ex.o
 .text.HAL_TIMEx_PWMN_Start
                0x0000000000000000       0x44 build/stm32f7xx_hal_tim_ex.o
 .text.HAL_TIMEx_PWMN_Stop
                0x0000000000000000       0x84 build/stm32f7xx_hal_tim_ex.o
 .text.HAL_TIMEx_PWMN_Start_IT
                0x0000000000000000       0xe0 build/stm32f7xx_hal_tim_ex.o
 .text.HAL_TIMEx_PWMN_Stop_IT
                0x0000000000000000      0x138 build/stm32f7xx_hal_tim_ex.o
 .text.HAL_TIMEx_PWMN_Start_DMA
                0x0000000000000000      0x1b8 build/stm32f7xx_hal_tim_ex.o
 .text.HAL_TIMEx_PWMN_Stop_DMA
                0x0000000000000000      0x118 build/stm32f7xx_hal_tim_ex.o
 .text.HAL_TIMEx_OnePulseN_Start
                0x0000000000000000       0x34 build/stm32f7xx_hal_tim_ex.o
 .text.HAL_TIMEx_OnePulseN_Stop
                0x0000000000000000       0x84 build/stm32f7xx_hal_tim_ex.o
 .text.HAL_TIMEx_OnePulseN_Start_IT
                0x0000000000000000       0x54 build/stm32f7xx_hal_tim_ex.o
 .text.HAL_TIMEx_OnePulseN_Stop_IT
                0x0000000000000000       0xa4 build/stm32f7xx_hal_tim_ex.o
 .text.HAL_TIMEx_ConfigCommutationEvent
                0x0000000000000000       0xa0 build/stm32f7xx_hal_tim_ex.o
 .text.HAL_TIMEx_ConfigCommutationEvent_IT
                0x0000000000000000       0xb0 build/stm32f7xx_hal_tim_ex.o
 .text.HAL_TIMEx_ConfigCommutationEvent_DMA
                0x0000000000000000       0xc8 build/stm32f7xx_hal_tim_ex.o
 .text.HAL_TIM_OC_ConfigChannel
                0x0000000000000000       0xfc build/stm32f7xx_hal_tim_ex.o
 .text.HAL_TIM_PWM_ConfigChannel
                0x0000000000000000      0x230 build/stm32f7xx_hal_tim_ex.o
 .text.HAL_TIM_ConfigOCrefClear
                0x0000000000000000      0x210 build/stm32f7xx_hal_tim_ex.o
 .text.HAL_TIMEx_MasterConfigSynchronization
                0x0000000000000000       0xa8 build/stm32f7xx_hal_tim_ex.o
 .text.HAL_TIMEx_ConfigBreakDeadTime
                0x0000000000000000       0xc4 build/stm32f7xx_hal_tim_ex.o
 .text.HAL_TIMEx_ConfigBreakInput
                0x0000000000000000       0xd0 build/stm32f7xx_hal_tim_ex.o
 .text.HAL_TIMEx_RemapConfig
                0x0000000000000000       0x48 build/stm32f7xx_hal_tim_ex.o
 .text.HAL_TIMEx_GroupChannel5
                0x0000000000000000       0x68 build/stm32f7xx_hal_tim_ex.o
 .text.HAL_TIMEx_HallSensor_GetState
                0x0000000000000000       0x1c build/stm32f7xx_hal_tim_ex.o
 .text.TIMEx_DMACommutationCplt
                0x0000000000000000       0x24 build/stm32f7xx_hal_tim_ex.o
 .text.TIM_CCxNChannelCmd
                0x0000000000000000       0x44 build/stm32f7xx_hal_tim_ex.o
 .text.TIM_OC5_SetConfig
                0x0000000000000000       0xb0 build/stm32f7xx_hal_tim_ex.o
 .text.TIM_OC6_SetConfig
                0x0000000000000000       0xb0 build/stm32f7xx_hal_tim_ex.o
 .text          0x0000000000000000        0x0 build/stm32f7xx_hal_uart.o
 .data          0x0000000000000000        0x0 build/stm32f7xx_hal_uart.o
 .bss           0x0000000000000000        0x0 build/stm32f7xx_hal_uart.o
 .debug_info    0x0000000000000000       0x9b build/stm32f7xx_hal_uart.o
 .debug_abbrev  0x0000000000000000       0x4b build/stm32f7xx_hal_uart.o
 .debug_aranges
                0x0000000000000000       0x18 build/stm32f7xx_hal_uart.o
 .debug_line    0x0000000000000000       0xaa build/stm32f7xx_hal_uart.o
 .debug_str     0x0000000000000000      0x1e2 build/stm32f7xx_hal_uart.o
 .comment       0x0000000000000000       0x71 build/stm32f7xx_hal_uart.o
 .ARM.attributes
                0x0000000000000000       0x39 build/stm32f7xx_hal_uart.o
 .text          0x0000000000000000        0x0 build/stm32f7xx_ll_fmc.o
 .data          0x0000000000000000        0x0 build/stm32f7xx_ll_fmc.o
 .bss           0x0000000000000000        0x0 build/stm32f7xx_ll_fmc.o
 .text.FMC_NORSRAM_Init
                0x0000000000000000       0xe0 build/stm32f7xx_ll_fmc.o
 .text.FMC_NORSRAM_DeInit
                0x0000000000000000       0x68 build/stm32f7xx_ll_fmc.o
 .text.FMC_NORSRAM_Timing_Init
                0x0000000000000000       0xa4 build/stm32f7xx_ll_fmc.o
 .text.FMC_NORSRAM_Extended_Timing_Init
                0x0000000000000000       0x80 build/stm32f7xx_ll_fmc.o
 .text.FMC_NORSRAM_WriteOperation_Enable
                0x0000000000000000       0x2c build/stm32f7xx_ll_fmc.o
 .text.FMC_NORSRAM_WriteOperation_Disable
                0x0000000000000000       0x2c build/stm32f7xx_ll_fmc.o
 .text.FMC_NAND_Init
                0x0000000000000000       0x64 build/stm32f7xx_ll_fmc.o
 .text.FMC_NAND_CommonSpace_Timing_Init
                0x0000000000000000       0x50 build/stm32f7xx_ll_fmc.o
 .text.FMC_NAND_AttributeSpace_Timing_Init
                0x0000000000000000       0x50 build/stm32f7xx_ll_fmc.o
 .text.FMC_NAND_DeInit
                0x0000000000000000       0x40 build/stm32f7xx_ll_fmc.o
 .text.FMC_NAND_ECC_Enable
                0x0000000000000000       0x24 build/stm32f7xx_ll_fmc.o
 .text.FMC_NAND_ECC_Disable
                0x0000000000000000       0x24 build/stm32f7xx_ll_fmc.o
 .text.FMC_NAND_GetECC
                0x0000000000000000       0x5c build/stm32f7xx_ll_fmc.o
 .text.FMC_SDRAM_DeInit
                0x0000000000000000       0x44 build/stm32f7xx_ll_fmc.o
 .text.FMC_SDRAM_WriteProtection_Enable
                0x0000000000000000       0x2c build/stm32f7xx_ll_fmc.o
 .text.FMC_SDRAM_WriteProtection_Disable
                0x0000000000000000       0x2c build/stm32f7xx_ll_fmc.o
 .text.FMC_SDRAM_SetAutoRefreshNumber
                0x0000000000000000       0x28 build/stm32f7xx_ll_fmc.o
 .text.FMC_SDRAM_GetModeStatus
                0x0000000000000000       0x3c build/stm32f7xx_ll_fmc.o
 .text          0x0000000000000000        0x0 build/stm32f7xx_hal_rtc.o
 .data          0x0000000000000000        0x0 build/stm32f7xx_hal_rtc.o
 .bss           0x0000000000000000        0x0 build/stm32f7xx_hal_rtc.o
 .text.HAL_RTC_DeInit
                0x0000000000000000      0x158 build/stm32f7xx_hal_rtc.o
 .text.HAL_RTC_MspInit
                0x0000000000000000       0x14 build/stm32f7xx_hal_rtc.o
 .text.HAL_RTC_MspDeInit
                0x0000000000000000       0x14 build/stm32f7xx_hal_rtc.o
 .text.HAL_RTC_SetTime
                0x0000000000000000      0x18c build/stm32f7xx_hal_rtc.o
 .text.HAL_RTC_GetTime
                0x0000000000000000       0xb8 build/stm32f7xx_hal_rtc.o
 .text.HAL_RTC_SetDate
                0x0000000000000000      0x16c build/stm32f7xx_hal_rtc.o
 .text.HAL_RTC_GetDate
                0x0000000000000000       0xa0 build/stm32f7xx_hal_rtc.o
 .text.HAL_RTC_SetAlarm
                0x0000000000000000      0x26c build/stm32f7xx_hal_rtc.o
 .text.HAL_RTC_SetAlarm_IT
                0x0000000000000000      0x2ac build/stm32f7xx_hal_rtc.o
 .text.HAL_RTC_DeactivateAlarm
                0x0000000000000000      0x11c build/stm32f7xx_hal_rtc.o
 .text.HAL_RTC_GetAlarm
                0x0000000000000000      0x118 build/stm32f7xx_hal_rtc.o
 .text.HAL_RTC_AlarmIRQHandler
                0x0000000000000000       0x88 build/stm32f7xx_hal_rtc.o
 .text.HAL_RTC_AlarmAEventCallback
                0x0000000000000000       0x14 build/stm32f7xx_hal_rtc.o
 .text.HAL_RTC_PollForAlarmAEvent
                0x0000000000000000       0x70 build/stm32f7xx_hal_rtc.o
 .text.HAL_RTC_WaitForSynchro
                0x0000000000000000       0x50 build/stm32f7xx_hal_rtc.o
 .text.HAL_RTC_GetState
                0x0000000000000000       0x1c build/stm32f7xx_hal_rtc.o
 .text.RTC_ByteToBcd2
                0x0000000000000000       0x3c build/stm32f7xx_hal_rtc.o
 .text.RTC_Bcd2ToByte
                0x0000000000000000       0x3c build/stm32f7xx_hal_rtc.o
 .text          0x0000000000000000        0x0 build/croutine.o
 .data          0x0000000000000000        0x0 build/croutine.o
 .bss           0x0000000000000000        0x0 build/croutine.o
 .debug_info    0x0000000000000000       0x72 build/croutine.o
 .debug_abbrev  0x0000000000000000       0x26 build/croutine.o
 .debug_aranges
                0x0000000000000000       0x18 build/croutine.o
 .debug_line    0x0000000000000000       0x1d build/croutine.o
 .debug_str     0x0000000000000000      0x1af build/croutine.o
 .comment       0x0000000000000000       0x71 build/croutine.o
 .ARM.attributes
                0x0000000000000000       0x39 build/croutine.o
 .text          0x0000000000000000        0x0 build/list.o
 .data          0x0000000000000000        0x0 build/list.o
 .bss           0x0000000000000000        0x0 build/list.o
 .text          0x0000000000000000        0x0 build/port.o
 .data          0x0000000000000000        0x0 build/port.o
 .bss           0x0000000000000000        0x0 build/port.o
 .rodata.pcInterruptPriorityRegisters
                0x0000000000000000        0x4 build/port.o
 .text.vPortEndScheduler
                0x0000000000000000       0x34 build/port.o
 .text.vPortValidateInterruptPriority
                0x0000000000000000       0x78 build/port.o
 .text          0x0000000000000000        0x0 build/heap_4.o
 .data          0x0000000000000000        0x0 build/heap_4.o
 .bss           0x0000000000000000        0x0 build/heap_4.o
 .rodata.xHeapStructSize
                0x0000000000000000        0x4 build/heap_4.o
 .text.xPortGetFreeHeapSize
                0x0000000000000000       0x18 build/heap_4.o
 .text.xPortGetMinimumEverFreeHeapSize
                0x0000000000000000       0x18 build/heap_4.o
 .text.vPortInitialiseBlocks
                0x0000000000000000        0xc build/heap_4.o
 .text          0x0000000000000000        0x0 build/queue.o
 .data          0x0000000000000000        0x0 build/queue.o
 .bss           0x0000000000000000        0x0 build/queue.o
 .text.xQueueGenericReset
                0x0000000000000000       0xd0 build/queue.o
 .text.xQueueGenericCreate
                0x0000000000000000       0x74 build/queue.o
 .text.prvInitialiseNewQueue
                0x0000000000000000       0x44 build/queue.o
 .text.prvInitialiseMutex
                0x0000000000000000       0x34 build/queue.o
 .text.xQueueCreateMutex
                0x0000000000000000       0x30 build/queue.o
 .text.xQueueGenericSend
                0x0000000000000000      0x1fc build/queue.o
 .text.xQueueGenericSendFromISR
                0x0000000000000000      0x128 build/queue.o
 .text.xQueueGiveFromISR
                0x0000000000000000      0x114 build/queue.o
 .text.xQueueGenericReceive
                0x0000000000000000      0x22c build/queue.o
 .text.xQueueReceiveFromISR
                0x0000000000000000       0xfc build/queue.o
 .text.xQueuePeekFromISR
                0x0000000000000000       0xcc build/queue.o
 .text.uxQueueMessagesWaiting
                0x0000000000000000       0x3c build/queue.o
 .text.uxQueueSpacesAvailable
                0x0000000000000000       0x44 build/queue.o
 .text.uxQueueMessagesWaitingFromISR
                0x0000000000000000       0x38 build/queue.o
 .text.vQueueDelete
                0x0000000000000000       0x38 build/queue.o
 .text.uxQueueGetQueueNumber
                0x0000000000000000       0x18 build/queue.o
 .text.vQueueSetQueueNumber
                0x0000000000000000       0x1c build/queue.o
 .text.ucQueueGetQueueType
                0x0000000000000000       0x1c build/queue.o
 .text.prvCopyDataToQueue
                0x0000000000000000       0xd8 build/queue.o
 .text.prvCopyDataFromQueue
                0x0000000000000000       0x4c build/queue.o
 .text.prvUnlockQueue
                0x0000000000000000       0xa4 build/queue.o
 .text.prvIsQueueEmpty
                0x0000000000000000       0x2c build/queue.o
 .text.xQueueIsQueueEmptyFromISR
                0x0000000000000000       0x44 build/queue.o
 .text.prvIsQueueFull
                0x0000000000000000       0x30 build/queue.o
 .text.xQueueIsQueueFullFromISR
                0x0000000000000000       0x48 build/queue.o
 .text.vQueueAddToRegistry
                0x0000000000000000       0x50 build/queue.o
 .text.pcQueueGetName
                0x0000000000000000       0x4c build/queue.o
 .text.vQueueUnregisterQueue
                0x0000000000000000       0x50 build/queue.o
 .debug_info    0x0000000000000000     0x12fa build/queue.o
 .debug_abbrev  0x0000000000000000      0x226 build/queue.o
 .debug_loc     0x0000000000000000      0x936 build/queue.o
 .debug_aranges
                0x0000000000000000       0xf8 build/queue.o
 .debug_ranges  0x0000000000000000       0xe8 build/queue.o
 .debug_line    0x0000000000000000      0x883 build/queue.o
 .debug_str     0x0000000000000000      0x7e7 build/queue.o
 .comment       0x0000000000000000       0x71 build/queue.o
 .debug_frame   0x0000000000000000      0x474 build/queue.o
 .ARM.attributes
                0x0000000000000000       0x39 build/queue.o
 COMMON         0x0000000000000000       0x40 build/queue.o
 .text          0x0000000000000000        0x0 build/tasks.o
 .data          0x0000000000000000        0x0 build/tasks.o
 .bss           0x0000000000000000        0x0 build/tasks.o
 .text.vTaskDelete
                0x0000000000000000      0x11c build/tasks.o
 .text.eTaskGetState
                0x0000000000000000       0xb0 build/tasks.o
 .text.uxTaskPriorityGet
                0x0000000000000000       0x34 build/tasks.o
 .text.uxTaskPriorityGetFromISR
                0x0000000000000000       0x58 build/tasks.o
 .text.vTaskPrioritySet
                0x0000000000000000      0x15c build/tasks.o
 .text.vTaskSuspend
                0x0000000000000000      0x10c build/tasks.o
 .text.prvTaskIsTaskSuspended
                0x0000000000000000       0x74 build/tasks.o
 .text.vTaskResume
                0x0000000000000000       0xbc build/tasks.o
 .text.xTaskResumeFromISR
                0x0000000000000000       0xe4 build/tasks.o
 .text.vTaskEndScheduler
                0x0000000000000000       0x2c build/tasks.o
 .text.xTaskGetTickCount
                0x0000000000000000       0x20 build/tasks.o
 .text.xTaskGetTickCountFromISR
                0x0000000000000000       0x24 build/tasks.o
 .text.uxTaskGetNumberOfTasks
                0x0000000000000000       0x18 build/tasks.o
 .text.pcTaskGetName
                0x0000000000000000       0x48 build/tasks.o
 .text.uxTaskGetSystemState
                0x0000000000000000      0x120 build/tasks.o
 .text.vTaskPlaceOnEventList
                0x0000000000000000       0x44 build/tasks.o
 .text.vTaskPlaceOnUnorderedEventList
                0x0000000000000000       0x74 build/tasks.o
 .text.xTaskRemoveFromEventList
                0x0000000000000000       0xc8 build/tasks.o
 .text.xTaskRemoveFromUnorderedEventList
                0x0000000000000000       0xd0 build/tasks.o
 .text.vTaskSetTimeOutState
                0x0000000000000000       0x44 build/tasks.o
 .text.xTaskCheckForTimeOut
                0x0000000000000000       0xbc build/tasks.o
 .text.vTaskMissedYield
                0x0000000000000000       0x18 build/tasks.o
 .text.uxTaskGetTaskNumber
                0x0000000000000000       0x2c build/tasks.o
 .text.vTaskSetTaskNumber
                0x0000000000000000       0x24 build/tasks.o
 .text.vTaskGetInfo
                0x0000000000000000       0xb8 build/tasks.o
 .text.prvListTasksWithinSingleList
                0x0000000000000000       0xa8 build/tasks.o
 .text.prvTaskCheckFreeStackSpace
                0x0000000000000000       0x38 build/tasks.o
 .text.xTaskGetCurrentTaskHandle
                0x0000000000000000       0x20 build/tasks.o
 .text.vTaskPriorityInherit
                0x0000000000000000       0xf0 build/tasks.o
 .text.xTaskPriorityDisinherit
                0x0000000000000000      0x10c build/tasks.o
 .text.uxTaskResetEventItemValue
                0x0000000000000000       0x30 build/tasks.o
 .text.pvTaskIncrementMutexHeldCount
                0x0000000000000000       0x28 build/tasks.o
 .text.ulTaskNotifyTake
                0x0000000000000000       0x90 build/tasks.o
 .text.xTaskNotifyWait
                0x0000000000000000       0xb4 build/tasks.o
 .text.xTaskGenericNotify
                0x0000000000000000      0x144 build/tasks.o
 .text.xTaskGenericNotifyFromISR
                0x0000000000000000      0x190 build/tasks.o
 .text.vTaskNotifyGiveFromISR
                0x0000000000000000      0x120 build/tasks.o
 .text.xTaskNotifyStateClear
                0x0000000000000000       0x4c build/tasks.o
 .text          0x0000000000000000        0x0 build/timers.o
 .data          0x0000000000000000        0x0 build/timers.o
 .bss           0x0000000000000000        0x0 build/timers.o
 .debug_info    0x0000000000000000       0x72 build/timers.o
 .debug_abbrev  0x0000000000000000       0x26 build/timers.o
 .debug_aranges
                0x0000000000000000       0x18 build/timers.o
 .debug_line    0x0000000000000000       0x1d build/timers.o
 .debug_str     0x0000000000000000      0x1ad build/timers.o
 .comment       0x0000000000000000       0x71 build/timers.o
 .ARM.attributes
                0x0000000000000000       0x39 build/timers.o
 .text          0x0000000000000000        0x0 build/lcd_log.o
 .data          0x0000000000000000        0x0 build/lcd_log.o
 .bss           0x0000000000000000        0x0 build/lcd_log.o
 .text.LCD_LOG_ClearTextZone
                0x0000000000000000       0x30 build/lcd_log.o
 .text.LCD_LOG_ScrollBack
                0x0000000000000000      0x134 build/lcd_log.o
 .text.LCD_LOG_ScrollForward
                0x0000000000000000       0xe4 build/lcd_log.o
 .text          0x0000000000000000        0x0 build/main.o
 .data          0x0000000000000000        0x0 build/main.o
 .bss           0x0000000000000000        0x0 build/main.o
 .text          0x0000000000000000        0x0 build/stm32f7xx_hal_msp.o
 .data          0x0000000000000000        0x0 build/stm32f7xx_hal_msp.o
 .bss           0x0000000000000000        0x0 build/stm32f7xx_hal_msp.o
 .text.HAL_RTC_MspDeInit
                0x0000000000000000       0x30 build/stm32f7xx_hal_msp.o
 .text          0x0000000000000000        0x0 build/stm32f7xx_hal_timebase_tim.o
 .data          0x0000000000000000        0x0 build/stm32f7xx_hal_timebase_tim.o
 .bss           0x0000000000000000        0x0 build/stm32f7xx_hal_timebase_tim.o
 .bss.uwIncrementState
                0x0000000000000000        0x4 build/stm32f7xx_hal_timebase_tim.o
 .text.HAL_SuspendTick
                0x0000000000000000       0x20 build/stm32f7xx_hal_timebase_tim.o
 .text.HAL_ResumeTick
                0x0000000000000000       0x20 build/stm32f7xx_hal_timebase_tim.o
 .text          0x0000000000000000        0x0 build/stm32f7xx_it.o
 .data          0x0000000000000000        0x0 build/stm32f7xx_it.o
 .bss           0x0000000000000000        0x0 build/stm32f7xx_it.o
 .text          0x0000000000000000        0x0 build/system_stm32f7xx.o
 .data          0x0000000000000000        0x0 build/system_stm32f7xx.o
 .bss           0x0000000000000000        0x0 build/system_stm32f7xx.o
 .text.SystemCoreClockUpdate
                0x0000000000000000       0xf8 build/system_stm32f7xx.o
 .text          0x0000000000000000        0x0 build/syscalls.o
 .data          0x0000000000000000        0x0 build/syscalls.o
 .bss           0x0000000000000000        0x0 build/syscalls.o
 .text._gettimeofday
                0x0000000000000000       0x2c build/syscalls.o
 .text.initialise_monitor_handles
                0x0000000000000000        0xc build/syscalls.o
 .text._getpid  0x0000000000000000       0x10 build/syscalls.o
 .text._kill    0x0000000000000000       0x20 build/syscalls.o
 .text._exit    0x0000000000000000       0x14 build/syscalls.o
 .text._open    0x0000000000000000       0x1c build/syscalls.o
 .text._wait    0x0000000000000000       0x20 build/syscalls.o
 .text._unlink  0x0000000000000000       0x20 build/syscalls.o
 .text._times   0x0000000000000000       0x18 build/syscalls.o
 .text._stat    0x0000000000000000       0x20 build/syscalls.o
 .text._link    0x0000000000000000       0x20 build/syscalls.o
 .text._fork    0x0000000000000000       0x18 build/syscalls.o
 .text._execve  0x0000000000000000       0x24 build/syscalls.o
 .text          0x0000000000000000        0x0 build/mfxstm32l152.o
 .data          0x0000000000000000        0x0 build/mfxstm32l152.o
 .bss           0x0000000000000000        0x0 build/mfxstm32l152.o
 .data.mfxstm32l152_ts_drv
                0x0000000000000000       0x28 build/mfxstm32l152.o
 .data.mfxstm32l152_io_drv
                0x0000000000000000       0x2c build/mfxstm32l152.o
 .data.mfxstm32l152_idd_drv
                0x0000000000000000       0x4c build/mfxstm32l152.o
 .bss.mfxstm32l152
                0x0000000000000000        0x3 build/mfxstm32l152.o
 .text.mfxstm32l152_Init
                0x0000000000000000       0x58 build/mfxstm32l152.o
 .text.mfxstm32l152_DeInit
                0x0000000000000000       0x28 build/mfxstm32l152.o
 .text.mfxstm32l152_Reset
                0x0000000000000000       0x24 build/mfxstm32l152.o
 .text.mfxstm32l152_LowPower
                0x0000000000000000       0x20 build/mfxstm32l152.o
 .text.mfxstm32l152_WakeUp
                0x0000000000000000       0x2c build/mfxstm32l152.o
 .text.mfxstm32l152_ReadID
                0x0000000000000000       0x30 build/mfxstm32l152.o
 .text.mfxstm32l152_ReadFwVersion
                0x0000000000000000       0x38 build/mfxstm32l152.o
 .text.mfxstm32l152_EnableITSource
                0x0000000000000000       0x40 build/mfxstm32l152.o
 .text.mfxstm32l152_DisableITSource
                0x0000000000000000       0x44 build/mfxstm32l152.o
 .text.mfxstm32l152_GlobalITStatus
                0x0000000000000000       0x2c build/mfxstm32l152.o
 .text.mfxstm32l152_ClearGlobalIT
                0x0000000000000000       0x24 build/mfxstm32l152.o
 .text.mfxstm32l152_SetIrqOutPinPolarity
                0x0000000000000000       0x4c build/mfxstm32l152.o
 .text.mfxstm32l152_SetIrqOutPinType
                0x0000000000000000       0x4c build/mfxstm32l152.o
 .text.mfxstm32l152_IO_Start
                0x0000000000000000       0x58 build/mfxstm32l152.o
 .text.mfxstm32l152_IO_Config
                0x0000000000000000      0x624 build/mfxstm32l152.o
 .text.mfxstm32l152_IO_InitPin
                0x0000000000000000       0x24 build/mfxstm32l152.o
 .text.mfxstm32l152_IO_SetIrqEvtMode
                0x0000000000000000       0x2c build/mfxstm32l152.o
 .text.mfxstm32l152_IO_SetIrqTypeMode
                0x0000000000000000       0x2c build/mfxstm32l152.o
 .text.mfxstm32l152_IO_WritePin
                0x0000000000000000       0x3c build/mfxstm32l152.o
 .text.mfxstm32l152_IO_ReadPin
                0x0000000000000000       0x58 build/mfxstm32l152.o
 .text.mfxstm32l152_IO_EnableIT
                0x0000000000000000       0x20 build/mfxstm32l152.o
 .text.mfxstm32l152_IO_DisableIT
                0x0000000000000000       0x1c build/mfxstm32l152.o
 .text.mfxstm32l152_IO_EnablePinIT
                0x0000000000000000       0x20 build/mfxstm32l152.o
 .text.mfxstm32l152_IO_DisablePinIT
                0x0000000000000000       0x20 build/mfxstm32l152.o
 .text.mfxstm32l152_IO_ITStatus
                0x0000000000000000       0x58 build/mfxstm32l152.o
 .text.mfxstm32l152_IO_ClearIT
                0x0000000000000000       0x60 build/mfxstm32l152.o
 .text.mfxstm32l152_IO_EnableAF
                0x0000000000000000       0x34 build/mfxstm32l152.o
 .text.mfxstm32l152_IO_DisableAF
                0x0000000000000000       0x34 build/mfxstm32l152.o
 .text.mfxstm32l152_TS_Start
                0x0000000000000000       0x94 build/mfxstm32l152.o
 .text.mfxstm32l152_TS_DetectTouch
                0x0000000000000000       0x54 build/mfxstm32l152.o
 .text.mfxstm32l152_TS_GetXY
                0x0000000000000000       0x64 build/mfxstm32l152.o
 .text.mfxstm32l152_TS_EnableIT
                0x0000000000000000       0x20 build/mfxstm32l152.o
 .text.mfxstm32l152_TS_DisableIT
                0x0000000000000000       0x1c build/mfxstm32l152.o
 .text.mfxstm32l152_TS_ITStatus
                0x0000000000000000       0x20 build/mfxstm32l152.o
 .text.mfxstm32l152_TS_ClearIT
                0x0000000000000000       0x1c build/mfxstm32l152.o
 .text.mfxstm32l152_IDD_Start
                0x0000000000000000       0x40 build/mfxstm32l152.o
 .text.mfxstm32l152_IDD_Config
                0x0000000000000000      0x2f8 build/mfxstm32l152.o
 .text.mfxstm32l152_IDD_ConfigShuntNbLimit
                0x0000000000000000       0x5c build/mfxstm32l152.o
 .text.mfxstm32l152_IDD_GetValue
                0x0000000000000000       0x3c build/mfxstm32l152.o
 .text.mfxstm32l152_IDD_GetShuntUsed
                0x0000000000000000       0x24 build/mfxstm32l152.o
 .text.mfxstm32l152_IDD_EnableIT
                0x0000000000000000       0x20 build/mfxstm32l152.o
 .text.mfxstm32l152_IDD_ClearIT
                0x0000000000000000       0x1c build/mfxstm32l152.o
 .text.mfxstm32l152_IDD_GetITStatus
                0x0000000000000000       0x20 build/mfxstm32l152.o
 .text.mfxstm32l152_IDD_DisableIT
                0x0000000000000000       0x1c build/mfxstm32l152.o
 .text.mfxstm32l152_Error_ReadSrc
                0x0000000000000000       0x24 build/mfxstm32l152.o
 .text.mfxstm32l152_Error_ReadMsg
                0x0000000000000000       0x24 build/mfxstm32l152.o
 .text.mfxstm32l152_Error_EnableIT
                0x0000000000000000       0x20 build/mfxstm32l152.o
 .text.mfxstm32l152_Error_ClearIT
                0x0000000000000000       0x1c build/mfxstm32l152.o
 .text.mfxstm32l152_Error_GetITStatus
                0x0000000000000000       0x20 build/mfxstm32l152.o
 .text.mfxstm32l152_Error_DisableIT
                0x0000000000000000       0x1c build/mfxstm32l152.o
 .text.mfxstm32l152_ReadReg
                0x0000000000000000       0x2c build/mfxstm32l152.o
 .text.mfxstm32l152_WriteReg
                0x0000000000000000       0x2c build/mfxstm32l152.o
 .text.mfxstm32l152_GetInstance
                0x0000000000000000       0x44 build/mfxstm32l152.o
 .text.mfxstm32l152_ReleaseInstance
                0x0000000000000000       0x4c build/mfxstm32l152.o
 .text.mfxstm32l152_reg24_setPinValue
                0x0000000000000000      0x10c build/mfxstm32l152.o
 .debug_info    0x0000000000000000     0x13fd build/mfxstm32l152.o
 .debug_abbrev  0x0000000000000000      0x18e build/mfxstm32l152.o
 .debug_loc     0x0000000000000000     0x116c build/mfxstm32l152.o
 .debug_aranges
                0x0000000000000000      0x1d0 build/mfxstm32l152.o
 .debug_ranges  0x0000000000000000      0x1c0 build/mfxstm32l152.o
 .debug_line    0x0000000000000000      0x64c build/mfxstm32l152.o
 .debug_str     0x0000000000000000      0xd09 build/mfxstm32l152.o
 .comment       0x0000000000000000       0x71 build/mfxstm32l152.o
 .debug_frame   0x0000000000000000      0x8bc build/mfxstm32l152.o
 .ARM.attributes
                0x0000000000000000       0x39 build/mfxstm32l152.o
 .text          0x0000000000000000        0x0 build/otm8009a.o
 .data          0x0000000000000000        0x0 build/otm8009a.o
 .bss           0x0000000000000000        0x0 build/otm8009a.o
 .text.DSI_IO_WriteCmd
                0x0000000000000000       0x14 build/otm8009a.o
 .text          0x0000000000000000        0x0 build/stm32f769i_discovery.o
 .data          0x0000000000000000        0x0 build/stm32f769i_discovery.o
 .bss           0x0000000000000000        0x0 build/stm32f769i_discovery.o
 .data.BUTTON_PORT
                0x0000000000000000        0x4 build/stm32f769i_discovery.o
 .rodata.BUTTON_PIN
                0x0000000000000000        0x2 build/stm32f769i_discovery.o
 .rodata.BUTTON_IRQn
                0x0000000000000000        0x2 build/stm32f769i_discovery.o
 .bss.hI2cAudioHandler
                0x0000000000000000       0x4c build/stm32f769i_discovery.o
 .bss.hI2cExtHandler
                0x0000000000000000       0x4c build/stm32f769i_discovery.o
 .text.BSP_GetVersion
                0x0000000000000000       0x14 build/stm32f769i_discovery.o
 .text.BSP_LED_DeInit
                0x0000000000000000       0x50 build/stm32f769i_discovery.o
 .text.BSP_LED_On
                0x0000000000000000       0x34 build/stm32f769i_discovery.o
 .text.BSP_LED_Off
                0x0000000000000000       0x34 build/stm32f769i_discovery.o
 .text.BSP_PB_Init
                0x0000000000000000       0xac build/stm32f769i_discovery.o
 .text.BSP_PB_DeInit
                0x0000000000000000       0x38 build/stm32f769i_discovery.o
 .text.BSP_PB_GetState
                0x0000000000000000       0x2c build/stm32f769i_discovery.o
 .text.I2Cx_MspInit
                0x0000000000000000      0x17c build/stm32f769i_discovery.o
 .text.I2Cx_Init
                0x0000000000000000       0x78 build/stm32f769i_discovery.o
 .text.I2Cx_ReadMultiple
                0x0000000000000000       0x5c build/stm32f769i_discovery.o
 .text.I2Cx_WriteMultiple
                0x0000000000000000       0x5c build/stm32f769i_discovery.o
 .text.I2Cx_IsDeviceReady
                0x0000000000000000       0x28 build/stm32f769i_discovery.o
 .text.I2Cx_Error
                0x0000000000000000       0x20 build/stm32f769i_discovery.o
 .text.AUDIO_IO_Init
                0x0000000000000000       0x10 build/stm32f769i_discovery.o
 .text.AUDIO_IO_DeInit
                0x0000000000000000        0xc build/stm32f769i_discovery.o
 .text.AUDIO_IO_Write
                0x0000000000000000       0x50 build/stm32f769i_discovery.o
 .text.AUDIO_IO_Read
                0x0000000000000000       0x58 build/stm32f769i_discovery.o
 .text.AUDIO_IO_Delay
                0x0000000000000000       0x14 build/stm32f769i_discovery.o
 .text.EEPROM_IO_Init
                0x0000000000000000       0x10 build/stm32f769i_discovery.o
 .text.EEPROM_IO_WriteData
                0x0000000000000000       0x3c build/stm32f769i_discovery.o
 .text.EEPROM_IO_ReadData
                0x0000000000000000       0x3c build/stm32f769i_discovery.o
 .text.EEPROM_IO_IsDeviceReady
                0x0000000000000000       0x28 build/stm32f769i_discovery.o
 .text.TS_IO_Init
                0x0000000000000000       0x10 build/stm32f769i_discovery.o
 .text.TS_IO_Write
                0x0000000000000000       0x34 build/stm32f769i_discovery.o
 .text.TS_IO_Read
                0x0000000000000000       0x3c build/stm32f769i_discovery.o
 .text.TS_IO_ReadMultiple
                0x0000000000000000       0x3c build/stm32f769i_discovery.o
 .text.TS_IO_WriteMultiple
                0x0000000000000000       0x38 build/stm32f769i_discovery.o
 .text.TS_IO_Delay
                0x0000000000000000       0x14 build/stm32f769i_discovery.o
 .text.HDMI_IO_Init
                0x0000000000000000       0x10 build/stm32f769i_discovery.o
 .text.HDMI_IO_Write
                0x0000000000000000       0x34 build/stm32f769i_discovery.o
 .text.HDMI_IO_Read
                0x0000000000000000       0x3c build/stm32f769i_discovery.o
 .text.HDMI_IO_Delay
                0x0000000000000000       0x14 build/stm32f769i_discovery.o
 .text          0x0000000000000000        0x0 build/stm32f769i_discovery_lcd.o
 .data          0x0000000000000000        0x0 build/stm32f769i_discovery_lcd.o
 .bss           0x0000000000000000        0x0 build/stm32f769i_discovery_lcd.o
 .rodata.Font20_Table
                0x0000000000000000      0xed8 build/stm32f769i_discovery_lcd.o
 .data.Font20   0x0000000000000000        0x8 build/stm32f769i_discovery_lcd.o
 .rodata.Font8_Table
                0x0000000000000000      0x2f8 build/stm32f769i_discovery_lcd.o
 .data.Font8    0x0000000000000000        0x8 build/stm32f769i_discovery_lcd.o
 .text.BSP_LCD_SetXSize
                0x0000000000000000       0x30 build/stm32f769i_discovery_lcd.o
 .text.BSP_LCD_SetYSize
                0x0000000000000000       0x30 build/stm32f769i_discovery_lcd.o
 .text.BSP_LCD_SetLayerVisible
                0x0000000000000000       0x80 build/stm32f769i_discovery_lcd.o
 .text.BSP_LCD_SetTransparency
                0x0000000000000000       0x24 build/stm32f769i_discovery_lcd.o
 .text.BSP_LCD_SetLayerAddress
                0x0000000000000000       0x20 build/stm32f769i_discovery_lcd.o
 .text.BSP_LCD_SetLayerWindow
                0x0000000000000000       0x40 build/stm32f769i_discovery_lcd.o
 .text.BSP_LCD_SetColorKeying
                0x0000000000000000       0x28 build/stm32f769i_discovery_lcd.o
 .text.BSP_LCD_ResetColorKeying
                0x0000000000000000       0x1c build/stm32f769i_discovery_lcd.o
 .text.BSP_LCD_GetTextColor
                0x0000000000000000       0x28 build/stm32f769i_discovery_lcd.o
 .text.BSP_LCD_GetBackColor
                0x0000000000000000       0x28 build/stm32f769i_discovery_lcd.o
 .text.BSP_LCD_ReadPixel
                0x0000000000000000      0x14c build/stm32f769i_discovery_lcd.o
 .text.BSP_LCD_ClearStringLine
                0x0000000000000000       0xc4 build/stm32f769i_discovery_lcd.o
 .text.BSP_LCD_DrawHLine
                0x0000000000000000       0x7c build/stm32f769i_discovery_lcd.o
 .text.BSP_LCD_DrawVLine
                0x0000000000000000       0x84 build/stm32f769i_discovery_lcd.o
 .text.BSP_LCD_DrawLine
                0x0000000000000000      0x190 build/stm32f769i_discovery_lcd.o
 .text.BSP_LCD_DrawRect
                0x0000000000000000       0x70 build/stm32f769i_discovery_lcd.o
 .text.BSP_LCD_DrawCircle
                0x0000000000000000      0x1e0 build/stm32f769i_discovery_lcd.o
 .text.BSP_LCD_DrawPolygon
                0x0000000000000000       0x8c build/stm32f769i_discovery_lcd.o
 .text.BSP_LCD_DrawEllipse
                0x0000000000000000      0x1f8 build/stm32f769i_discovery_lcd.o
 .text.BSP_LCD_DrawBitmap
                0x0000000000000000      0x128 build/stm32f769i_discovery_lcd.o
 .text.BSP_LCD_FillCircle
                0x0000000000000000      0x150 build/stm32f769i_discovery_lcd.o
 .text.BSP_LCD_FillPolygon
                0x0000000000000000      0x1bc build/stm32f769i_discovery_lcd.o
 .text.BSP_LCD_FillEllipse
                0x0000000000000000      0x184 build/stm32f769i_discovery_lcd.o
 .text.BSP_LCD_DisplayOn
                0x0000000000000000       0x28 build/stm32f769i_discovery_lcd.o
 .text.BSP_LCD_DisplayOff
                0x0000000000000000       0x28 build/stm32f769i_discovery_lcd.o
 .text.BSP_LCD_SetBrightness
                0x0000000000000000       0x3c build/stm32f769i_discovery_lcd.o
 .text.BSP_LCD_MspDeInit
                0x0000000000000000       0x64 build/stm32f769i_discovery_lcd.o
 .text.FillTriangle
                0x0000000000000000      0x178 build/stm32f769i_discovery_lcd.o
 .text.LL_ConvertLineToARGB8888
                0x0000000000000000       0x88 build/stm32f769i_discovery_lcd.o
 .text          0x0000000000000000        0x0 build/stm32f769i_discovery_sdram.o
 .data          0x0000000000000000        0x0 build/stm32f769i_discovery_sdram.o
 .bss           0x0000000000000000        0x0 build/stm32f769i_discovery_sdram.o
 .text.BSP_SDRAM_DeInit
                0x0000000000000000       0x40 build/stm32f769i_discovery_sdram.o
 .text.BSP_SDRAM_ReadData
                0x0000000000000000       0x34 build/stm32f769i_discovery_sdram.o
 .text.BSP_SDRAM_ReadData_DMA
                0x0000000000000000       0x34 build/stm32f769i_discovery_sdram.o
 .text.BSP_SDRAM_WriteData
                0x0000000000000000       0x34 build/stm32f769i_discovery_sdram.o
 .text.BSP_SDRAM_WriteData_DMA
                0x0000000000000000       0x34 build/stm32f769i_discovery_sdram.o
 .text.BSP_SDRAM_Sendcmd
                0x0000000000000000       0x2c build/stm32f769i_discovery_sdram.o
 .text.BSP_SDRAM_MspDeInit
                0x0000000000000000       0x2c build/stm32f769i_discovery_sdram.o
 .data.sdramstatus.9222
                0x0000000000000000        0x1 build/stm32f769i_discovery_sdram.o
 .bss.dma_handle.9268
                0x0000000000000000       0x60 build/stm32f769i_discovery_sdram.o
 .text          0x0000000000000000       0x14 build/startup_stm32f769xx.o
 .data          0x0000000000000000        0x0 build/startup_stm32f769xx.o
 .bss           0x0000000000000000        0x0 build/startup_stm32f769xx.o
 .text          0x0000000000000000        0x0 /usr/bin/../lib/gcc/arm-none-eabi/4.9.3/../../../../arm-none-eabi/lib/cortex-m7/fpu/fpv5-sp-d16/libc_nano.a(lib_a-errno.o)
 .data          0x0000000000000000        0x0 /usr/bin/../lib/gcc/arm-none-eabi/4.9.3/../../../../arm-none-eabi/lib/cortex-m7/fpu/fpv5-sp-d16/libc_nano.a(lib_a-errno.o)
 .bss           0x0000000000000000        0x0 /usr/bin/../lib/gcc/arm-none-eabi/4.9.3/../../../../arm-none-eabi/lib/cortex-m7/fpu/fpv5-sp-d16/libc_nano.a(lib_a-errno.o)
 .text          0x0000000000000000        0x0 /usr/bin/../lib/gcc/arm-none-eabi/4.9.3/../../../../arm-none-eabi/lib/cortex-m7/fpu/fpv5-sp-d16/libc_nano.a(lib_a-exit.o)
 .data          0x0000000000000000        0x0 /usr/bin/../lib/gcc/arm-none-eabi/4.9.3/../../../../arm-none-eabi/lib/cortex-m7/fpu/fpv5-sp-d16/libc_nano.a(lib_a-exit.o)
 .bss           0x0000000000000000        0x0 /usr/bin/../lib/gcc/arm-none-eabi/4.9.3/../../../../arm-none-eabi/lib/cortex-m7/fpu/fpv5-sp-d16/libc_nano.a(lib_a-exit.o)
 .text.exit     0x0000000000000000       0x28 /usr/bin/../lib/gcc/arm-none-eabi/4.9.3/../../../../arm-none-eabi/lib/cortex-m7/fpu/fpv5-sp-d16/libc_nano.a(lib_a-exit.o)
 .debug_frame   0x0000000000000000       0x28 /usr/bin/../lib/gcc/arm-none-eabi/4.9.3/../../../../arm-none-eabi/lib/cortex-m7/fpu/fpv5-sp-d16/libc_nano.a(lib_a-exit.o)
 .ARM.attributes
                0x0000000000000000       0x39 /usr/bin/../lib/gcc/arm-none-eabi/4.9.3/../../../../arm-none-eabi/lib/cortex-m7/fpu/fpv5-sp-d16/libc_nano.a(lib_a-exit.o)
 .text          0x0000000000000000        0x0 /usr/bin/../lib/gcc/arm-none-eabi/4.9.3/../../../../arm-none-eabi/lib/cortex-m7/fpu/fpv5-sp-d16/libc_nano.a(lib_a-impure.o)
 .data          0x0000000000000000        0x0 /usr/bin/../lib/gcc/arm-none-eabi/4.9.3/../../../../arm-none-eabi/lib/cortex-m7/fpu/fpv5-sp-d16/libc_nano.a(lib_a-impure.o)
 .bss           0x0000000000000000        0x0 /usr/bin/../lib/gcc/arm-none-eabi/4.9.3/../../../../arm-none-eabi/lib/cortex-m7/fpu/fpv5-sp-d16/libc_nano.a(lib_a-impure.o)
 .text          0x0000000000000000        0x0 /usr/bin/../lib/gcc/arm-none-eabi/4.9.3/../../../../arm-none-eabi/lib/cortex-m7/fpu/fpv5-sp-d16/libc_nano.a(lib_a-init.o)
 .data          0x0000000000000000        0x0 /usr/bin/../lib/gcc/arm-none-eabi/4.9.3/../../../../arm-none-eabi/lib/cortex-m7/fpu/fpv5-sp-d16/libc_nano.a(lib_a-init.o)
 .bss           0x0000000000000000        0x0 /usr/bin/../lib/gcc/arm-none-eabi/4.9.3/../../../../arm-none-eabi/lib/cortex-m7/fpu/fpv5-sp-d16/libc_nano.a(lib_a-init.o)
 .text          0x0000000000000000        0x0 /usr/bin/../lib/gcc/arm-none-eabi/4.9.3/../../../../arm-none-eabi/lib/cortex-m7/fpu/fpv5-sp-d16/libc_nano.a(lib_a-memcpy.o)
 .data          0x0000000000000000        0x0 /usr/bin/../lib/gcc/arm-none-eabi/4.9.3/../../../../arm-none-eabi/lib/cortex-m7/fpu/fpv5-sp-d16/libc_nano.a(lib_a-memcpy.o)
 .bss           0x0000000000000000        0x0 /usr/bin/../lib/gcc/arm-none-eabi/4.9.3/../../../../arm-none-eabi/lib/cortex-m7/fpu/fpv5-sp-d16/libc_nano.a(lib_a-memcpy.o)
 .text.memcpy   0x0000000000000000       0x16 /usr/bin/../lib/gcc/arm-none-eabi/4.9.3/../../../../arm-none-eabi/lib/cortex-m7/fpu/fpv5-sp-d16/libc_nano.a(lib_a-memcpy.o)
 .debug_frame   0x0000000000000000       0x28 /usr/bin/../lib/gcc/arm-none-eabi/4.9.3/../../../../arm-none-eabi/lib/cortex-m7/fpu/fpv5-sp-d16/libc_nano.a(lib_a-memcpy.o)
 .ARM.attributes
                0x0000000000000000       0x39 /usr/bin/../lib/gcc/arm-none-eabi/4.9.3/../../../../arm-none-eabi/lib/cortex-m7/fpu/fpv5-sp-d16/libc_nano.a(lib_a-memcpy.o)
 .text          0x0000000000000000        0x0 /usr/bin/../lib/gcc/arm-none-eabi/4.9.3/../../../../arm-none-eabi/lib/cortex-m7/fpu/fpv5-sp-d16/libc_nano.a(lib_a-memset.o)
 .data          0x0000000000000000        0x0 /usr/bin/../lib/gcc/arm-none-eabi/4.9.3/../../../../arm-none-eabi/lib/cortex-m7/fpu/fpv5-sp-d16/libc_nano.a(lib_a-memset.o)
 .bss           0x0000000000000000        0x0 /usr/bin/../lib/gcc/arm-none-eabi/4.9.3/../../../../arm-none-eabi/lib/cortex-m7/fpu/fpv5-sp-d16/libc_nano.a(lib_a-memset.o)
 .text          0x0000000000000000        0x0 /usr/bin/../lib/gcc/arm-none-eabi/4.9.3/../../../../arm-none-eabi/lib/cortex-m7/fpu/fpv5-sp-d16/libc_nano.a(lib_a-puts.o)
 .data          0x0000000000000000        0x0 /usr/bin/../lib/gcc/arm-none-eabi/4.9.3/../../../../arm-none-eabi/lib/cortex-m7/fpu/fpv5-sp-d16/libc_nano.a(lib_a-puts.o)
 .bss           0x0000000000000000        0x0 /usr/bin/../lib/gcc/arm-none-eabi/4.9.3/../../../../arm-none-eabi/lib/cortex-m7/fpu/fpv5-sp-d16/libc_nano.a(lib_a-puts.o)
 .text          0x0000000000000000        0x0 /usr/bin/../lib/gcc/arm-none-eabi/4.9.3/../../../../arm-none-eabi/lib/cortex-m7/fpu/fpv5-sp-d16/libc_nano.a(lib_a-wbuf.o)
 .data          0x0000000000000000        0x0 /usr/bin/../lib/gcc/arm-none-eabi/4.9.3/../../../../arm-none-eabi/lib/cortex-m7/fpu/fpv5-sp-d16/libc_nano.a(lib_a-wbuf.o)
 .bss           0x0000000000000000        0x0 /usr/bin/../lib/gcc/arm-none-eabi/4.9.3/../../../../arm-none-eabi/lib/cortex-m7/fpu/fpv5-sp-d16/libc_nano.a(lib_a-wbuf.o)
 .text.__swbuf  0x0000000000000000       0x14 /usr/bin/../lib/gcc/arm-none-eabi/4.9.3/../../../../arm-none-eabi/lib/cortex-m7/fpu/fpv5-sp-d16/libc_nano.a(lib_a-wbuf.o)
 .text          0x0000000000000000        0x0 /usr/bin/../lib/gcc/arm-none-eabi/4.9.3/../../../../arm-none-eabi/lib/cortex-m7/fpu/fpv5-sp-d16/libc_nano.a(lib_a-wsetup.o)
 .data          0x0000000000000000        0x0 /usr/bin/../lib/gcc/arm-none-eabi/4.9.3/../../../../arm-none-eabi/lib/cortex-m7/fpu/fpv5-sp-d16/libc_nano.a(lib_a-wsetup.o)
 .bss           0x0000000000000000        0x0 /usr/bin/../lib/gcc/arm-none-eabi/4.9.3/../../../../arm-none-eabi/lib/cortex-m7/fpu/fpv5-sp-d16/libc_nano.a(lib_a-wsetup.o)
 .text          0x0000000000000000        0x0 /usr/bin/../lib/gcc/arm-none-eabi/4.9.3/../../../../arm-none-eabi/lib/cortex-m7/fpu/fpv5-sp-d16/libc_nano.a(lib_a-fflush.o)
 .data          0x0000000000000000        0x0 /usr/bin/../lib/gcc/arm-none-eabi/4.9.3/../../../../arm-none-eabi/lib/cortex-m7/fpu/fpv5-sp-d16/libc_nano.a(lib_a-fflush.o)
 .bss           0x0000000000000000        0x0 /usr/bin/../lib/gcc/arm-none-eabi/4.9.3/../../../../arm-none-eabi/lib/cortex-m7/fpu/fpv5-sp-d16/libc_nano.a(lib_a-fflush.o)
 .text.fflush   0x0000000000000000       0x24 /usr/bin/../lib/gcc/arm-none-eabi/4.9.3/../../../../arm-none-eabi/lib/cortex-m7/fpu/fpv5-sp-d16/libc_nano.a(lib_a-fflush.o)
 .text          0x0000000000000000        0x0 /usr/bin/../lib/gcc/arm-none-eabi/4.9.3/../../../../arm-none-eabi/lib/cortex-m7/fpu/fpv5-sp-d16/libc_nano.a(lib_a-findfp.o)
 .data          0x0000000000000000        0x0 /usr/bin/../lib/gcc/arm-none-eabi/4.9.3/../../../../arm-none-eabi/lib/cortex-m7/fpu/fpv5-sp-d16/libc_nano.a(lib_a-findfp.o)
 .bss           0x0000000000000000        0x0 /usr/bin/../lib/gcc/arm-none-eabi/4.9.3/../../../../arm-none-eabi/lib/cortex-m7/fpu/fpv5-sp-d16/libc_nano.a(lib_a-findfp.o)
 .text.__fp_lock
                0x0000000000000000        0x4 /usr/bin/../lib/gcc/arm-none-eabi/4.9.3/../../../../arm-none-eabi/lib/cortex-m7/fpu/fpv5-sp-d16/libc_nano.a(lib_a-findfp.o)
 .text.__fp_unlock
                0x0000000000000000        0x4 /usr/bin/../lib/gcc/arm-none-eabi/4.9.3/../../../../arm-none-eabi/lib/cortex-m7/fpu/fpv5-sp-d16/libc_nano.a(lib_a-findfp.o)
 .text._cleanup
                0x0000000000000000        0xc /usr/bin/../lib/gcc/arm-none-eabi/4.9.3/../../../../arm-none-eabi/lib/cortex-m7/fpu/fpv5-sp-d16/libc_nano.a(lib_a-findfp.o)
 .text.__sfp_lock_acquire
                0x0000000000000000        0x2 /usr/bin/../lib/gcc/arm-none-eabi/4.9.3/../../../../arm-none-eabi/lib/cortex-m7/fpu/fpv5-sp-d16/libc_nano.a(lib_a-findfp.o)
 .text.__sfp_lock_release
                0x0000000000000000        0x2 /usr/bin/../lib/gcc/arm-none-eabi/4.9.3/../../../../arm-none-eabi/lib/cortex-m7/fpu/fpv5-sp-d16/libc_nano.a(lib_a-findfp.o)
 .text.__sinit_lock_acquire
                0x0000000000000000        0x2 /usr/bin/../lib/gcc/arm-none-eabi/4.9.3/../../../../arm-none-eabi/lib/cortex-m7/fpu/fpv5-sp-d16/libc_nano.a(lib_a-findfp.o)
 .text.__sinit_lock_release
                0x0000000000000000        0x2 /usr/bin/../lib/gcc/arm-none-eabi/4.9.3/../../../../arm-none-eabi/lib/cortex-m7/fpu/fpv5-sp-d16/libc_nano.a(lib_a-findfp.o)
 .text.__fp_lock_all
                0x0000000000000000       0x14 /usr/bin/../lib/gcc/arm-none-eabi/4.9.3/../../../../arm-none-eabi/lib/cortex-m7/fpu/fpv5-sp-d16/libc_nano.a(lib_a-findfp.o)
 .text.__fp_unlock_all
                0x0000000000000000       0x14 /usr/bin/../lib/gcc/arm-none-eabi/4.9.3/../../../../arm-none-eabi/lib/cortex-m7/fpu/fpv5-sp-d16/libc_nano.a(lib_a-findfp.o)
 .text          0x0000000000000000        0x0 /usr/bin/../lib/gcc/arm-none-eabi/4.9.3/../../../../arm-none-eabi/lib/cortex-m7/fpu/fpv5-sp-d16/libc_nano.a(lib_a-fwalk.o)
 .data          0x0000000000000000        0x0 /usr/bin/../lib/gcc/arm-none-eabi/4.9.3/../../../../arm-none-eabi/lib/cortex-m7/fpu/fpv5-sp-d16/libc_nano.a(lib_a-fwalk.o)
 .bss           0x0000000000000000        0x0 /usr/bin/../lib/gcc/arm-none-eabi/4.9.3/../../../../arm-none-eabi/lib/cortex-m7/fpu/fpv5-sp-d16/libc_nano.a(lib_a-fwalk.o)
 .text._fwalk   0x0000000000000000       0x38 /usr/bin/../lib/gcc/arm-none-eabi/4.9.3/../../../../arm-none-eabi/lib/cortex-m7/fpu/fpv5-sp-d16/libc_nano.a(lib_a-fwalk.o)
 .text          0x0000000000000000        0x0 /usr/bin/../lib/gcc/arm-none-eabi/4.9.3/../../../../arm-none-eabi/lib/cortex-m7/fpu/fpv5-sp-d16/libc_nano.a(lib_a-makebuf.o)
 .data          0x0000000000000000        0x0 /usr/bin/../lib/gcc/arm-none-eabi/4.9.3/../../../../arm-none-eabi/lib/cortex-m7/fpu/fpv5-sp-d16/libc_nano.a(lib_a-makebuf.o)
 .bss           0x0000000000000000        0x0 /usr/bin/../lib/gcc/arm-none-eabi/4.9.3/../../../../arm-none-eabi/lib/cortex-m7/fpu/fpv5-sp-d16/libc_nano.a(lib_a-makebuf.o)
 .text          0x0000000000000000        0x0 /usr/bin/../lib/gcc/arm-none-eabi/4.9.3/../../../../arm-none-eabi/lib/cortex-m7/fpu/fpv5-sp-d16/libc_nano.a(lib_a-nano-freer.o)
 .data          0x0000000000000000        0x0 /usr/bin/../lib/gcc/arm-none-eabi/4.9.3/../../../../arm-none-eabi/lib/cortex-m7/fpu/fpv5-sp-d16/libc_nano.a(lib_a-nano-freer.o)
 .bss           0x0000000000000000        0x0 /usr/bin/../lib/gcc/arm-none-eabi/4.9.3/../../../../arm-none-eabi/lib/cortex-m7/fpu/fpv5-sp-d16/libc_nano.a(lib_a-nano-freer.o)
 .text          0x0000000000000000        0x0 /usr/bin/../lib/gcc/arm-none-eabi/4.9.3/../../../../arm-none-eabi/lib/cortex-m7/fpu/fpv5-sp-d16/libc_nano.a(lib_a-nano-mallocr.o)
 .data          0x0000000000000000        0x0 /usr/bin/../lib/gcc/arm-none-eabi/4.9.3/../../../../arm-none-eabi/lib/cortex-m7/fpu/fpv5-sp-d16/libc_nano.a(lib_a-nano-mallocr.o)
 .bss           0x0000000000000000        0x0 /usr/bin/../lib/gcc/arm-none-eabi/4.9.3/../../../../arm-none-eabi/lib/cortex-m7/fpu/fpv5-sp-d16/libc_nano.a(lib_a-nano-mallocr.o)
 .text          0x0000000000000000        0x0 /usr/bin/../lib/gcc/arm-none-eabi/4.9.3/../../../../arm-none-eabi/lib/cortex-m7/fpu/fpv5-sp-d16/libc_nano.a(lib_a-sbrkr.o)
 .data          0x0000000000000000        0x0 /usr/bin/../lib/gcc/arm-none-eabi/4.9.3/../../../../arm-none-eabi/lib/cortex-m7/fpu/fpv5-sp-d16/libc_nano.a(lib_a-sbrkr.o)
 .bss           0x0000000000000000        0x0 /usr/bin/../lib/gcc/arm-none-eabi/4.9.3/../../../../arm-none-eabi/lib/cortex-m7/fpu/fpv5-sp-d16/libc_nano.a(lib_a-sbrkr.o)
 .text          0x0000000000000000        0x0 /usr/bin/../lib/gcc/arm-none-eabi/4.9.3/../../../../arm-none-eabi/lib/cortex-m7/fpu/fpv5-sp-d16/libc_nano.a(lib_a-stdio.o)
 .data          0x0000000000000000        0x0 /usr/bin/../lib/gcc/arm-none-eabi/4.9.3/../../../../arm-none-eabi/lib/cortex-m7/fpu/fpv5-sp-d16/libc_nano.a(lib_a-stdio.o)
 .bss           0x0000000000000000        0x0 /usr/bin/../lib/gcc/arm-none-eabi/4.9.3/../../../../arm-none-eabi/lib/cortex-m7/fpu/fpv5-sp-d16/libc_nano.a(lib_a-stdio.o)
 .text.__seofread
                0x0000000000000000        0x4 /usr/bin/../lib/gcc/arm-none-eabi/4.9.3/../../../../arm-none-eabi/lib/cortex-m7/fpu/fpv5-sp-d16/libc_nano.a(lib_a-stdio.o)
 .text          0x0000000000000000        0x0 /usr/bin/../lib/gcc/arm-none-eabi/4.9.3/../../../../arm-none-eabi/lib/cortex-m7/fpu/fpv5-sp-d16/libc_nano.a(lib_a-writer.o)
 .data          0x0000000000000000        0x0 /usr/bin/../lib/gcc/arm-none-eabi/4.9.3/../../../../arm-none-eabi/lib/cortex-m7/fpu/fpv5-sp-d16/libc_nano.a(lib_a-writer.o)
 .bss           0x0000000000000000        0x0 /usr/bin/../lib/gcc/arm-none-eabi/4.9.3/../../../../arm-none-eabi/lib/cortex-m7/fpu/fpv5-sp-d16/libc_nano.a(lib_a-writer.o)
 .text          0x0000000000000000        0x0 /usr/bin/../lib/gcc/arm-none-eabi/4.9.3/../../../../arm-none-eabi/lib/cortex-m7/fpu/fpv5-sp-d16/libc_nano.a(lib_a-closer.o)
 .data          0x0000000000000000        0x0 /usr/bin/../lib/gcc/arm-none-eabi/4.9.3/../../../../arm-none-eabi/lib/cortex-m7/fpu/fpv5-sp-d16/libc_nano.a(lib_a-closer.o)
 .bss           0x0000000000000000        0x0 /usr/bin/../lib/gcc/arm-none-eabi/4.9.3/../../../../arm-none-eabi/lib/cortex-m7/fpu/fpv5-sp-d16/libc_nano.a(lib_a-closer.o)
 .text          0x0000000000000000        0x0 /usr/bin/../lib/gcc/arm-none-eabi/4.9.3/../../../../arm-none-eabi/lib/cortex-m7/fpu/fpv5-sp-d16/libc_nano.a(lib_a-fstatr.o)
 .data          0x0000000000000000        0x0 /usr/bin/../lib/gcc/arm-none-eabi/4.9.3/../../../../arm-none-eabi/lib/cortex-m7/fpu/fpv5-sp-d16/libc_nano.a(lib_a-fstatr.o)
 .bss           0x0000000000000000        0x0 /usr/bin/../lib/gcc/arm-none-eabi/4.9.3/../../../../arm-none-eabi/lib/cortex-m7/fpu/fpv5-sp-d16/libc_nano.a(lib_a-fstatr.o)
 .text          0x0000000000000000        0x0 /usr/bin/../lib/gcc/arm-none-eabi/4.9.3/../../../../arm-none-eabi/lib/cortex-m7/fpu/fpv5-sp-d16/libc_nano.a(lib_a-isattyr.o)
 .data          0x0000000000000000        0x0 /usr/bin/../lib/gcc/arm-none-eabi/4.9.3/../../../../arm-none-eabi/lib/cortex-m7/fpu/fpv5-sp-d16/libc_nano.a(lib_a-isattyr.o)
 .bss           0x0000000000000000        0x0 /usr/bin/../lib/gcc/arm-none-eabi/4.9.3/../../../../arm-none-eabi/lib/cortex-m7/fpu/fpv5-sp-d16/libc_nano.a(lib_a-isattyr.o)
 .text          0x0000000000000000        0x0 /usr/bin/../lib/gcc/arm-none-eabi/4.9.3/../../../../arm-none-eabi/lib/cortex-m7/fpu/fpv5-sp-d16/libc_nano.a(lib_a-lseekr.o)
 .data          0x0000000000000000        0x0 /usr/bin/../lib/gcc/arm-none-eabi/4.9.3/../../../../arm-none-eabi/lib/cortex-m7/fpu/fpv5-sp-d16/libc_nano.a(lib_a-lseekr.o)
 .bss           0x0000000000000000        0x0 /usr/bin/../lib/gcc/arm-none-eabi/4.9.3/../../../../arm-none-eabi/lib/cortex-m7/fpu/fpv5-sp-d16/libc_nano.a(lib_a-lseekr.o)
 .text          0x0000000000000000        0x0 /usr/bin/../lib/gcc/arm-none-eabi/4.9.3/../../../../arm-none-eabi/lib/cortex-m7/fpu/fpv5-sp-d16/libc_nano.a(lib_a-readr.o)
 .data          0x0000000000000000        0x0 /usr/bin/../lib/gcc/arm-none-eabi/4.9.3/../../../../arm-none-eabi/lib/cortex-m7/fpu/fpv5-sp-d16/libc_nano.a(lib_a-readr.o)
 .bss           0x0000000000000000        0x0 /usr/bin/../lib/gcc/arm-none-eabi/4.9.3/../../../../arm-none-eabi/lib/cortex-m7/fpu/fpv5-sp-d16/libc_nano.a(lib_a-readr.o)
 .text          0x0000000000000000        0x0 /usr/bin/../lib/gcc/arm-none-eabi/4.9.3/../../../../arm-none-eabi/lib/cortex-m7/fpu/fpv5-sp-d16/libc_nano.a(lib_a-reent.o)
 .data          0x0000000000000000        0x0 /usr/bin/../lib/gcc/arm-none-eabi/4.9.3/../../../../arm-none-eabi/lib/cortex-m7/fpu/fpv5-sp-d16/libc_nano.a(lib_a-reent.o)
 .bss           0x0000000000000000        0x0 /usr/bin/../lib/gcc/arm-none-eabi/4.9.3/../../../../arm-none-eabi/lib/cortex-m7/fpu/fpv5-sp-d16/libc_nano.a(lib_a-reent.o)
 .text.cleanup_glue
                0x0000000000000000       0x1a /usr/bin/../lib/gcc/arm-none-eabi/4.9.3/../../../../arm-none-eabi/lib/cortex-m7/fpu/fpv5-sp-d16/libc_nano.a(lib_a-reent.o)
 .text._reclaim_reent
                0x0000000000000000       0xb4 /usr/bin/../lib/gcc/arm-none-eabi/4.9.3/../../../../arm-none-eabi/lib/cortex-m7/fpu/fpv5-sp-d16/libc_nano.a(lib_a-reent.o)
 .text          0x0000000000000000        0x0 /usr/bin/../lib/gcc/arm-none-eabi/4.9.3/cortex-m7/fpu/fpv5-sp-d16/crtend.o
 .data          0x0000000000000000        0x0 /usr/bin/../lib/gcc/arm-none-eabi/4.9.3/cortex-m7/fpu/fpv5-sp-d16/crtend.o
 .bss           0x0000000000000000        0x0 /usr/bin/../lib/gcc/arm-none-eabi/4.9.3/cortex-m7/fpu/fpv5-sp-d16/crtend.o
 .eh_frame      0x0000000000000000        0x4 /usr/bin/../lib/gcc/arm-none-eabi/4.9.3/cortex-m7/fpu/fpv5-sp-d16/crtend.o
 .jcr           0x0000000000000000        0x4 /usr/bin/../lib/gcc/arm-none-eabi/4.9.3/cortex-m7/fpu/fpv5-sp-d16/crtend.o
 .ARM.attributes
                0x0000000000000000       0x39 /usr/bin/../lib/gcc/arm-none-eabi/4.9.3/cortex-m7/fpu/fpv5-sp-d16/crtend.o
 .text          0x0000000000000000        0x0 /usr/bin/../lib/gcc/arm-none-eabi/4.9.3/cortex-m7/fpu/fpv5-sp-d16/crtn.o
 .data          0x0000000000000000        0x0 /usr/bin/../lib/gcc/arm-none-eabi/4.9.3/cortex-m7/fpu/fpv5-sp-d16/crtn.o
 .bss           0x0000000000000000        0x0 /usr/bin/../lib/gcc/arm-none-eabi/4.9.3/cortex-m7/fpu/fpv5-sp-d16/crtn.o

Memory Configuration

Name             Origin             Length             Attributes
FLASH            0x0000000008000000 0x0000000000200000 xr
Memory_B1        0x000000002000e000 0x0000000000000080 xrw
Memory_B2        0x000000002000e100 0x0000000000000080 xrw
Memory_B3        0x000000002000e200 0x00000000000017d0 xrw
Memory_B4        0x000000002000ffc4 0x00000000000017d0 xrw
RAM              0x0000000020011795 0x000000000007cf60 xrw
*default*        0x0000000000000000 0xffffffffffffffff

Linker script and memory map

LOAD /usr/bin/../lib/gcc/arm-none-eabi/4.9.3/cortex-m7/fpu/fpv5-sp-d16/crti.o
LOAD /usr/bin/../lib/gcc/arm-none-eabi/4.9.3/cortex-m7/fpu/fpv5-sp-d16/crtbegin.o
LOAD /usr/bin/../lib/gcc/arm-none-eabi/4.9.3/../../../../arm-none-eabi/lib/cortex-m7/fpu/fpv5-sp-d16/crt0.o
LOAD build/stm32f7xx_hal.o
LOAD build/stm32f7xx_hal_adc.o
LOAD build/stm32f7xx_hal_adc_ex.o
LOAD build/stm32f7xx_hal_cortex.o
LOAD build/stm32f7xx_hal_dma.o
LOAD build/stm32f7xx_hal_dma2d.o
LOAD build/stm32f7xx_hal_dma_ex.o
LOAD build/stm32f7xx_hal_dsi.o
LOAD build/stm32f7xx_hal_eth.o
LOAD build/stm32f7xx_hal_flash.o
LOAD build/stm32f7xx_hal_flash_ex.o
LOAD build/stm32f7xx_hal_gpio.o
LOAD build/stm32f7xx_hal_i2c.o
LOAD build/stm32f7xx_hal_i2c_ex.o
LOAD build/stm32f7xx_hal_ltdc.o
LOAD build/stm32f7xx_hal_ltdc_ex.o
LOAD build/stm32f7xx_hal_pwr.o
LOAD build/stm32f7xx_hal_pwr_ex.o
LOAD build/stm32f7xx_hal_rcc.o
LOAD build/stm32f7xx_hal_rcc_ex.o
LOAD build/stm32f7xx_hal_sdram.o
LOAD build/stm32f7xx_hal_tim.o
LOAD build/stm32f7xx_hal_tim_ex.o
LOAD build/stm32f7xx_hal_uart.o
LOAD build/stm32f7xx_ll_fmc.o
LOAD build/stm32f7xx_hal_rtc.o
LOAD build/croutine.o
LOAD build/list.o
LOAD build/port.o
LOAD build/heap_4.o
LOAD build/queue.o
LOAD build/tasks.o
LOAD build/timers.o
LOAD build/lcd_log.o
LOAD build/main.o
LOAD build/stm32f7xx_hal_msp.o
LOAD build/stm32f7xx_hal_timebase_tim.o
LOAD build/stm32f7xx_it.o
LOAD build/system_stm32f7xx.o
LOAD build/syscalls.o
LOAD build/mfxstm32l152.o
LOAD build/otm8009a.o
LOAD build/stm32f769i_discovery.o
LOAD build/stm32f769i_discovery_lcd.o
LOAD build/stm32f769i_discovery_sdram.o
LOAD build/startup_stm32f769xx.o
LOAD /usr/bin/../lib/gcc/arm-none-eabi/4.9.3/../../../../arm-none-eabi/lib/cortex-m7/fpu/fpv5-sp-d16/libc_nano.a
LOAD /usr/bin/../lib/gcc/arm-none-eabi/4.9.3/../../../../arm-none-eabi/lib/cortex-m7/fpu/fpv5-sp-d16/libm.a
LOAD /usr/bin/../lib/gcc/arm-none-eabi/4.9.3/../../../../arm-none-eabi/lib/cortex-m7/fpu/fpv5-sp-d16/libnosys.a
START GROUP
LOAD /usr/bin/../lib/gcc/arm-none-eabi/4.9.3/cortex-m7/fpu/fpv5-sp-d16/libgcc.a
LOAD /usr/bin/../lib/gcc/arm-none-eabi/4.9.3/../../../../arm-none-eabi/lib/cortex-m7/fpu/fpv5-sp-d16/libc_nano.a
END GROUP
START GROUP
LOAD /usr/bin/../lib/gcc/arm-none-eabi/4.9.3/cortex-m7/fpu/fpv5-sp-d16/libgcc.a
LOAD /usr/bin/../lib/gcc/arm-none-eabi/4.9.3/../../../../arm-none-eabi/lib/cortex-m7/fpu/fpv5-sp-d16/libc_nano.a
END GROUP
LOAD /usr/bin/../lib/gcc/arm-none-eabi/4.9.3/cortex-m7/fpu/fpv5-sp-d16/crtend.o
LOAD /usr/bin/../lib/gcc/arm-none-eabi/4.9.3/cortex-m7/fpu/fpv5-sp-d16/crtn.o
                0x0000000020080000                _estack = 0x20080000
                0x0000000000000200                _Min_Heap_Size = 0x200
                0x0000000000000400                _Min_Stack_Size = 0x400

.isr_vector     0x0000000008000000      0x1f8
                0x0000000008000000                . = ALIGN (0x4)
 *(.isr_vector)
 .isr_vector    0x0000000008000000      0x1f8 build/startup_stm32f769xx.o
                0x0000000008000000                g_pfnVectors
                0x00000000080001f8                . = ALIGN (0x4)

.text           0x0000000008000200     0x8408
                0x0000000008000200                . = ALIGN (0x4)
 *(.text)
 .text          0x0000000008000200       0x5c /usr/bin/../lib/gcc/arm-none-eabi/4.9.3/cortex-m7/fpu/fpv5-sp-d16/crtbegin.o
 *(.text*)
 .text.HAL_Init
                0x000000000800025c       0x2c build/stm32f7xx_hal.o
                0x000000000800025c                HAL_Init
 .text.HAL_IncTick
                0x0000000008000288       0x1c build/stm32f7xx_hal.o
                0x0000000008000288                HAL_IncTick
 .text.HAL_GetTick
                0x00000000080002a4       0x18 build/stm32f7xx_hal.o
                0x00000000080002a4                HAL_GetTick
 .text.HAL_Delay
                0x00000000080002bc       0x2c build/stm32f7xx_hal.o
                0x00000000080002bc                HAL_Delay
 .text.NVIC_SetPriorityGrouping
                0x00000000080002e8       0x48 build/stm32f7xx_hal_cortex.o
 .text.NVIC_GetPriorityGrouping
                0x0000000008000330       0x1c build/stm32f7xx_hal_cortex.o
 .text.NVIC_EnableIRQ
                0x000000000800034c       0x30 build/stm32f7xx_hal_cortex.o
 .text.NVIC_SetPriority
                0x000000000800037c       0x54 build/stm32f7xx_hal_cortex.o
 .text.NVIC_EncodePriority
                0x00000000080003d0       0x64 build/stm32f7xx_hal_cortex.o
 .text.SysTick_Config
                0x0000000008000434       0x44 build/stm32f7xx_hal_cortex.o
 .text.HAL_NVIC_SetPriorityGrouping
                0x0000000008000478       0x14 build/stm32f7xx_hal_cortex.o
                0x0000000008000478                HAL_NVIC_SetPriorityGrouping
 .text.HAL_NVIC_SetPriority
                0x000000000800048c       0x38 build/stm32f7xx_hal_cortex.o
                0x000000000800048c                HAL_NVIC_SetPriority
 .text.HAL_NVIC_EnableIRQ
                0x00000000080004c4       0x1c build/stm32f7xx_hal_cortex.o
                0x00000000080004c4                HAL_NVIC_EnableIRQ
 .text.HAL_SYSTICK_Config
                0x00000000080004e0       0x18 build/stm32f7xx_hal_cortex.o
                0x00000000080004e0                HAL_SYSTICK_Config
 .text.HAL_SYSTICK_CLKSourceConfig
                0x00000000080004f8       0x38 build/stm32f7xx_hal_cortex.o
                0x00000000080004f8                HAL_SYSTICK_CLKSourceConfig
 .text.HAL_DMA_Init
                0x0000000008000530      0x158 build/stm32f7xx_hal_dma.o
                0x0000000008000530                HAL_DMA_Init
 .text.HAL_DMA_DeInit
                0x0000000008000688       0x9c build/stm32f7xx_hal_dma.o
                0x0000000008000688                HAL_DMA_DeInit
 .text.DMA_CalcBaseAndBitshift
                0x0000000008000724       0x6c build/stm32f7xx_hal_dma.o
 .text.DMA_CheckFifoParam
                0x0000000008000790      0x108 build/stm32f7xx_hal_dma.o
 .text.HAL_DMA2D_Init
                0x0000000008000898       0xf0 build/stm32f7xx_hal_dma2d.o
                0x0000000008000898                HAL_DMA2D_Init
 .text.HAL_DMA2D_MspInit
                0x0000000008000988       0x14 build/stm32f7xx_hal_dma2d.o
                0x0000000008000988                HAL_DMA2D_MspInit
 .text.HAL_DMA2D_Start
                0x000000000800099c       0x58 build/stm32f7xx_hal_dma2d.o
                0x000000000800099c                HAL_DMA2D_Start
 .text.HAL_DMA2D_PollForTransfer
                0x00000000080009f4      0x1d0 build/stm32f7xx_hal_dma2d.o
                0x00000000080009f4                HAL_DMA2D_PollForTransfer
 .text.HAL_DMA2D_ConfigLayer
                0x0000000008000bc4      0x1b0 build/stm32f7xx_hal_dma2d.o
                0x0000000008000bc4                HAL_DMA2D_ConfigLayer
 .text.DMA2D_SetConfig
                0x0000000008000d74      0x160 build/stm32f7xx_hal_dma2d.o
 .text.DSI_ConfigPacketHeader
                0x0000000008000ed4       0x30 build/stm32f7xx_hal_dsi.o
 .text.HAL_DSI_Init
                0x0000000008000f04      0x214 build/stm32f7xx_hal_dsi.o
                0x0000000008000f04                HAL_DSI_Init
 .text.HAL_DSI_DeInit
                0x0000000008001118       0x9c build/stm32f7xx_hal_dsi.o
                0x0000000008001118                HAL_DSI_DeInit
 .text.HAL_DSI_MspInit
                0x00000000080011b4       0x14 build/stm32f7xx_hal_dsi.o
                0x00000000080011b4                HAL_DSI_MspInit
 .text.HAL_DSI_MspDeInit
                0x00000000080011c8       0x14 build/stm32f7xx_hal_dsi.o
                0x00000000080011c8                HAL_DSI_MspDeInit
 .text.HAL_DSI_ConfigVideoMode
                0x00000000080011dc      0x400 build/stm32f7xx_hal_dsi.o
                0x00000000080011dc                HAL_DSI_ConfigVideoMode
 .text.HAL_DSI_Start
                0x00000000080015dc       0x54 build/stm32f7xx_hal_dsi.o
                0x00000000080015dc                HAL_DSI_Start
 .text.HAL_DSI_ShortWrite
                0x0000000008001630       0x78 build/stm32f7xx_hal_dsi.o
                0x0000000008001630                HAL_DSI_ShortWrite
 .text.HAL_DSI_LongWrite
                0x00000000080016a8      0x114 build/stm32f7xx_hal_dsi.o
                0x00000000080016a8                HAL_DSI_LongWrite
 .text.HAL_GPIO_Init
                0x00000000080017bc      0x34c build/stm32f7xx_hal_gpio.o
                0x00000000080017bc                HAL_GPIO_Init
 .text.HAL_GPIO_WritePin
                0x0000000008001b08       0x30 build/stm32f7xx_hal_gpio.o
                0x0000000008001b08                HAL_GPIO_WritePin
 .text.HAL_GPIO_TogglePin
                0x0000000008001b38       0x24 build/stm32f7xx_hal_gpio.o
                0x0000000008001b38                HAL_GPIO_TogglePin
 .text.HAL_LTDC_Init
                0x0000000008001b5c      0x1b8 build/stm32f7xx_hal_ltdc.o
                0x0000000008001b5c                HAL_LTDC_Init
 .text.HAL_LTDC_MspInit
                0x0000000008001d14       0x14 build/stm32f7xx_hal_ltdc.o
                0x0000000008001d14                HAL_LTDC_MspInit
 .text.HAL_LTDC_ConfigLayer
                0x0000000008001d28       0x7c build/stm32f7xx_hal_ltdc.o
                0x0000000008001d28                HAL_LTDC_ConfigLayer
 .text.LTDC_SetConfig
                0x0000000008001da4      0x350 build/stm32f7xx_hal_ltdc.o
 .text.HAL_LTDC_StructInitFromVideoConfig
                0x00000000080020f4       0xa0 build/stm32f7xx_hal_ltdc_ex.o
                0x00000000080020f4                HAL_LTDC_StructInitFromVideoConfig
 .text.HAL_PWREx_EnableOverDrive
                0x0000000008002194       0x9c build/stm32f7xx_hal_pwr_ex.o
                0x0000000008002194                HAL_PWREx_EnableOverDrive
 .text.HAL_RCC_OscConfig
                0x0000000008002230      0x530 build/stm32f7xx_hal_rcc.o
                0x0000000008002230                HAL_RCC_OscConfig
 .text.HAL_RCC_ClockConfig
                0x0000000008002760      0x200 build/stm32f7xx_hal_rcc.o
                0x0000000008002760                HAL_RCC_ClockConfig
 .text.HAL_RCC_GetSysClockFreq
                0x0000000008002960       0xfc build/stm32f7xx_hal_rcc.o
                0x0000000008002960                HAL_RCC_GetSysClockFreq
 .text.HAL_RCC_GetHCLKFreq
                0x0000000008002a5c       0x18 build/stm32f7xx_hal_rcc.o
                0x0000000008002a5c                HAL_RCC_GetHCLKFreq
 .text.HAL_RCC_GetPCLK1Freq
                0x0000000008002a74       0x44 build/stm32f7xx_hal_rcc.o
                0x0000000008002a74                HAL_RCC_GetPCLK1Freq
 .text.HAL_RCC_GetClockConfig
                0x0000000008002ab8       0x60 build/stm32f7xx_hal_rcc.o
                0x0000000008002ab8                HAL_RCC_GetClockConfig
 .text.HAL_RCCEx_PeriphCLKConfig
                0x0000000008002b18      0xe84 build/stm32f7xx_hal_rcc_ex.o
                0x0000000008002b18                HAL_RCCEx_PeriphCLKConfig
 .text.HAL_SDRAM_Init
                0x000000000800399c       0x6c build/stm32f7xx_hal_sdram.o
                0x000000000800399c                HAL_SDRAM_Init
 .text.HAL_SDRAM_MspInit
                0x0000000008003a08       0x14 build/stm32f7xx_hal_sdram.o
                0x0000000008003a08                HAL_SDRAM_MspInit
 .text.HAL_SDRAM_SendCommand
                0x0000000008003a1c       0x58 build/stm32f7xx_hal_sdram.o
                0x0000000008003a1c                HAL_SDRAM_SendCommand
 .text.HAL_SDRAM_ProgramRefreshRate
                0x0000000008003a74       0x40 build/stm32f7xx_hal_sdram.o
                0x0000000008003a74                HAL_SDRAM_ProgramRefreshRate
 .text.HAL_TIM_Base_Init
                0x0000000008003ab4       0x58 build/stm32f7xx_hal_tim.o
                0x0000000008003ab4                HAL_TIM_Base_Init
 .text.HAL_TIM_Base_MspInit
                0x0000000008003b0c       0x14 build/stm32f7xx_hal_tim.o
                0x0000000008003b0c                HAL_TIM_Base_MspInit
 .text.HAL_TIM_Base_Start_IT
                0x0000000008003b20       0x38 build/stm32f7xx_hal_tim.o
                0x0000000008003b20                HAL_TIM_Base_Start_IT
 .text.HAL_TIM_IRQHandler
                0x0000000008003b58      0x23c build/stm32f7xx_hal_tim.o
                0x0000000008003b58                HAL_TIM_IRQHandler
 .text.HAL_TIM_OC_DelayElapsedCallback
                0x0000000008003d94       0x14 build/stm32f7xx_hal_tim.o
                0x0000000008003d94                HAL_TIM_OC_DelayElapsedCallback
 .text.HAL_TIM_IC_CaptureCallback
                0x0000000008003da8       0x14 build/stm32f7xx_hal_tim.o
                0x0000000008003da8                HAL_TIM_IC_CaptureCallback
 .text.HAL_TIM_PWM_PulseFinishedCallback
                0x0000000008003dbc       0x14 build/stm32f7xx_hal_tim.o
                0x0000000008003dbc                HAL_TIM_PWM_PulseFinishedCallback
 .text.HAL_TIM_TriggerCallback
                0x0000000008003dd0       0x14 build/stm32f7xx_hal_tim.o
                0x0000000008003dd0                HAL_TIM_TriggerCallback
 .text.TIM_Base_SetConfig
                0x0000000008003de4      0x160 build/stm32f7xx_hal_tim.o
                0x0000000008003de4                TIM_Base_SetConfig
 .text.HAL_TIMEx_CommutationCallback
                0x0000000008003f44       0x14 build/stm32f7xx_hal_tim_ex.o
                0x0000000008003f44                HAL_TIMEx_CommutationCallback
 .text.HAL_TIMEx_BreakCallback
                0x0000000008003f58       0x14 build/stm32f7xx_hal_tim_ex.o
                0x0000000008003f58                HAL_TIMEx_BreakCallback
 .text.FMC_SDRAM_Init
                0x0000000008003f6c       0xe4 build/stm32f7xx_ll_fmc.o
                0x0000000008003f6c                FMC_SDRAM_Init
 .text.FMC_SDRAM_Timing_Init
                0x0000000008004050      0x100 build/stm32f7xx_ll_fmc.o
                0x0000000008004050                FMC_SDRAM_Timing_Init
 .text.FMC_SDRAM_SendCommand
                0x0000000008004150       0x78 build/stm32f7xx_ll_fmc.o
                0x0000000008004150                FMC_SDRAM_SendCommand
 .text.FMC_SDRAM_ProgramRefreshRate
                0x00000000080041c8       0x28 build/stm32f7xx_ll_fmc.o
                0x00000000080041c8                FMC_SDRAM_ProgramRefreshRate
 .text.HAL_RTC_Init
                0x00000000080041f0       0xf8 build/stm32f7xx_hal_rtc.o
                0x00000000080041f0                HAL_RTC_Init
 .text.RTC_EnterInitMode
                0x00000000080042e8       0x58 build/stm32f7xx_hal_rtc.o
                0x00000000080042e8                RTC_EnterInitMode
 .text.vListInitialise
                0x0000000008004340       0x40 build/list.o
                0x0000000008004340                vListInitialise
 .text.vListInitialiseItem
                0x0000000008004380       0x18 build/list.o
                0x0000000008004380                vListInitialiseItem
 .text.vListInsertEnd
                0x0000000008004398       0x48 build/list.o
                0x0000000008004398                vListInsertEnd
 .text.vListInsert
                0x00000000080043e0       0x70 build/list.o
                0x00000000080043e0                vListInsert
 .text.uxListRemove
                0x0000000008004450       0x54 build/list.o
                0x0000000008004450                uxListRemove
 .text.pxPortInitialiseStack
                0x00000000080044a4       0x68 build/port.o
                0x00000000080044a4                pxPortInitialiseStack
 .text.prvTaskExitError
                0x000000000800450c       0x3c build/port.o
 *fill*         0x0000000008004548        0x8 
 .text.SVC_Handler
                0x0000000008004550       0x24 build/port.o
                0x0000000008004550                SVC_Handler
 .text.prvPortStartFirstTask
                0x0000000008004574       0x20 build/port.o
 .text.xPortStartScheduler
                0x0000000008004594       0xd0 build/port.o
                0x0000000008004594                xPortStartScheduler
 .text.vPortEnterCritical
                0x0000000008004664       0x5c build/port.o
                0x0000000008004664                vPortEnterCritical
 .text.vPortExitCritical
                0x00000000080046c0       0x4c build/port.o
                0x00000000080046c0                vPortExitCritical
 *fill*         0x000000000800470c        0x4 
 .text.PendSV_Handler
                0x0000000008004710       0x64 build/port.o
                0x0000000008004710                PendSV_Handler
 .text.xPortSysTickHandler
                0x0000000008004774       0x40 build/port.o
                0x0000000008004774                xPortSysTickHandler
 .text.vPortSetupTimerInterrupt
                0x00000000080047b4       0x34 build/port.o
                0x00000000080047b4                vPortSetupTimerInterrupt
 .text.vPortEnableVFP
                0x00000000080047e8       0x14 build/port.o
 .text.pvPortMalloc
                0x00000000080047fc      0x184 build/heap_4.o
                0x00000000080047fc                pvPortMalloc
 .text.vPortFree
                0x0000000008004980       0xb0 build/heap_4.o
                0x0000000008004980                vPortFree
 .text.prvHeapInit
                0x0000000008004a30       0xc4 build/heap_4.o
 .text.prvInsertBlockIntoFreeList
                0x0000000008004af4       0xb0 build/heap_4.o
 .text.xTaskCreate
                0x0000000008004ba4       0x84 build/tasks.o
                0x0000000008004ba4                xTaskCreate
 .text.prvInitialiseNewTask
                0x0000000008004c28      0x10c build/tasks.o
 .text.prvAddNewTaskToReadyList
                0x0000000008004d34       0xe0 build/tasks.o
 .text.vTaskDelay
                0x0000000008004e14       0x64 build/tasks.o
                0x0000000008004e14                vTaskDelay
 .text.vTaskStartScheduler
                0x0000000008004e78       0x88 build/tasks.o
                0x0000000008004e78                vTaskStartScheduler
 .text.vTaskSuspendAll
                0x0000000008004f00       0x1c build/tasks.o
                0x0000000008004f00                vTaskSuspendAll
 .text.xTaskResumeAll
                0x0000000008004f1c      0x13c build/tasks.o
                0x0000000008004f1c                xTaskResumeAll
 .text.xTaskIncrementTick
                0x0000000008005058      0x17c build/tasks.o
                0x0000000008005058                xTaskIncrementTick
 .text.vTaskSwitchContext
                0x00000000080051d4       0xb4 build/tasks.o
                0x00000000080051d4                vTaskSwitchContext
 .text.prvIdleTask
                0x0000000008005288       0x30 build/tasks.o
 .text.prvInitialiseTaskLists
                0x00000000080052b8       0x7c build/tasks.o
 .text.prvCheckTasksWaitingTermination
                0x0000000008005334       0x74 build/tasks.o
 .text.prvDeleteTCB
                0x00000000080053a8       0x20 build/tasks.o
 .text.prvResetNextTaskUnblockTime
                0x00000000080053c8       0x48 build/tasks.o
 .text.xTaskGetSchedulerState
                0x0000000008005410       0x3c build/tasks.o
                0x0000000008005410                xTaskGetSchedulerState
 .text.prvAddCurrentTaskToDelayedList
                0x000000000800544c       0xc8 build/tasks.o
 .text.LCD_LOG_Init
                0x0000000008005514       0x14 build/lcd_log.o
                0x0000000008005514                LCD_LOG_Init
 .text.LCD_LOG_DeInit
                0x0000000008005528       0x80 build/lcd_log.o
                0x0000000008005528                LCD_LOG_DeInit
 .text.LCD_LOG_SetHeader
                0x00000000080055a8       0x78 build/lcd_log.o
                0x00000000080055a8                LCD_LOG_SetHeader
 .text.LCD_LOG_SetFooter
                0x0000000008005620       0x90 build/lcd_log.o
                0x0000000008005620                LCD_LOG_SetFooter
 .text.__io_putchar
                0x00000000080056b0      0x1c0 build/lcd_log.o
                0x00000000080056b0                __io_putchar
 .text.LCD_LOG_UpdateDisplay
                0x0000000008005870      0x110 build/lcd_log.o
                0x0000000008005870                LCD_LOG_UpdateDisplay
 .text.SCB_EnableICache
                0x0000000008005980       0x34 build/main.o
 .text.SCB_EnableDCache
                0x00000000080059b4       0x84 build/main.o
 .text.blink_task
                0x0000000008005a38       0x18 build/main.o
 .text.main     0x0000000008005a50       0x60 build/main.o
                0x0000000008005a50                main
 .text.BSP_Config_task
                0x0000000008005ab0       0x6c build/main.o
 .text.SystemClock_Config
                0x0000000008005b1c      0x130 build/main.o
 .text.MX_RTC_Init
                0x0000000008005c4c       0x48 build/main.o
 .text.MX_FMC_Init
                0x0000000008005c94       0x88 build/main.o
 .text.MX_GPIO_Init
                0x0000000008005d1c      0x7b4 build/main.o
 .text.HAL_TIM_PeriodElapsedCallback
                0x00000000080064d0       0x20 build/main.o
                0x00000000080064d0                HAL_TIM_PeriodElapsedCallback
 .text.Error_Handler
                0x00000000080064f0        0x8 build/main.o
                0x00000000080064f0                Error_Handler
 .text.CPU_CACHE_Enable
                0x00000000080064f8       0x10 build/main.o
 .text.HAL_MspInit
                0x0000000008006508       0x60 build/stm32f7xx_hal_msp.o
                0x0000000008006508                HAL_MspInit
 .text.HAL_RTC_MspInit
                0x0000000008006568       0x30 build/stm32f7xx_hal_msp.o
                0x0000000008006568                HAL_RTC_MspInit
 .text.HAL_InitTick
                0x0000000008006598       0xb0 build/stm32f7xx_hal_timebase_tim.o
                0x0000000008006598                HAL_InitTick
 .text.NMI_Handler
                0x0000000008006648        0xc build/stm32f7xx_it.o
                0x0000000008006648                NMI_Handler
 .text.HardFault_Handler
                0x0000000008006654        0x8 build/stm32f7xx_it.o
                0x0000000008006654                HardFault_Handler
 .text.MemManage_Handler
                0x000000000800665c        0x8 build/stm32f7xx_it.o
                0x000000000800665c                MemManage_Handler
 .text.BusFault_Handler
                0x0000000008006664        0x8 build/stm32f7xx_it.o
                0x0000000008006664                BusFault_Handler
 .text.UsageFault_Handler
                0x000000000800666c        0x8 build/stm32f7xx_it.o
                0x000000000800666c                UsageFault_Handler
 .text.DebugMon_Handler
                0x0000000008006674        0xc build/stm32f7xx_it.o
                0x0000000008006674                DebugMon_Handler
 .text.SysTick_Handler
                0x0000000008006680       0x18 build/stm32f7xx_it.o
                0x0000000008006680                SysTick_Handler
 .text.TIM8_UP_TIM13_IRQHandler
                0x0000000008006698       0x10 build/stm32f7xx_it.o
                0x0000000008006698                TIM8_UP_TIM13_IRQHandler
 .text.SystemInit
                0x00000000080066a8       0x6c build/system_stm32f7xx.o
                0x00000000080066a8                SystemInit
 .text._sbrk    0x0000000008006714       0x6c build/syscalls.o
                0x0000000008006714                _sbrk
 .text._write   0x0000000008006780       0x38 build/syscalls.o
                0x0000000008006780                _write
 .text._close   0x00000000080067b8       0x18 build/syscalls.o
                0x00000000080067b8                _close
 .text._fstat   0x00000000080067d0       0x20 build/syscalls.o
                0x00000000080067d0                _fstat
 .text._isatty  0x00000000080067f0       0x18 build/syscalls.o
                0x00000000080067f0                _isatty
 .text._lseek   0x0000000008006808       0x1c build/syscalls.o
                0x0000000008006808                _lseek
 .text._read    0x0000000008006824       0x3c build/syscalls.o
                0x0000000008006824                _read
 .text.OTM8009A_Init
                0x0000000008006860      0x494 build/otm8009a.o
                0x0000000008006860                OTM8009A_Init
 .text.BSP_LED_Init
                0x0000000008006cf4       0x60 build/stm32f769i_discovery.o
                0x0000000008006cf4                BSP_LED_Init
 .text.BSP_LED_Toggle
                0x0000000008006d54       0x34 build/stm32f769i_discovery.o
                0x0000000008006d54                BSP_LED_Toggle
 .text.OTM8009A_IO_Delay
                0x0000000008006d88       0x14 build/stm32f769i_discovery.o
                0x0000000008006d88                OTM8009A_IO_Delay
 .text.BSP_LCD_Init
                0x0000000008006d9c       0x10 build/stm32f769i_discovery_lcd.o
                0x0000000008006d9c                BSP_LCD_Init
 .text.BSP_LCD_InitEx
                0x0000000008006dac      0x288 build/stm32f769i_discovery_lcd.o
                0x0000000008006dac                BSP_LCD_InitEx
 .text.BSP_LCD_Reset
                0x0000000008007034       0x6c build/stm32f769i_discovery_lcd.o
                0x0000000008007034                BSP_LCD_Reset
 .text.BSP_LCD_GetXSize
                0x00000000080070a0       0x18 build/stm32f769i_discovery_lcd.o
                0x00000000080070a0                BSP_LCD_GetXSize
 .text.BSP_LCD_GetYSize
                0x00000000080070b8       0x18 build/stm32f769i_discovery_lcd.o
                0x00000000080070b8                BSP_LCD_GetYSize
 .text.BSP_LCD_LayerDefaultInit
                0x00000000080070d0       0xc0 build/stm32f769i_discovery_lcd.o
                0x00000000080070d0                BSP_LCD_LayerDefaultInit
 .text.BSP_LCD_SelectLayer
                0x0000000008007190       0x1c build/stm32f769i_discovery_lcd.o
                0x0000000008007190                BSP_LCD_SelectLayer
 .text.BSP_LCD_SetTextColor
                0x00000000080071ac       0x30 build/stm32f769i_discovery_lcd.o
                0x00000000080071ac                BSP_LCD_SetTextColor
 .text.BSP_LCD_SetBackColor
                0x00000000080071dc       0x30 build/stm32f769i_discovery_lcd.o
                0x00000000080071dc                BSP_LCD_SetBackColor
 .text.BSP_LCD_SetFont
                0x000000000800720c       0x30 build/stm32f769i_discovery_lcd.o
                0x000000000800720c                BSP_LCD_SetFont
 .text.BSP_LCD_GetFont
                0x000000000800723c       0x2c build/stm32f769i_discovery_lcd.o
                0x000000000800723c                BSP_LCD_GetFont
 .text.BSP_LCD_Clear
                0x0000000008007268       0x54 build/stm32f769i_discovery_lcd.o
                0x0000000008007268                BSP_LCD_Clear
 .text.BSP_LCD_DisplayChar
                0x00000000080072bc       0x8c build/stm32f769i_discovery_lcd.o
                0x00000000080072bc                BSP_LCD_DisplayChar
 .text.BSP_LCD_DisplayStringAt
                0x0000000008007348      0x188 build/stm32f769i_discovery_lcd.o
                0x0000000008007348                BSP_LCD_DisplayStringAt
 .text.BSP_LCD_DisplayStringAtLine
                0x00000000080074d0       0x30 build/stm32f769i_discovery_lcd.o
                0x00000000080074d0                BSP_LCD_DisplayStringAtLine
 .text.BSP_LCD_FillRect
                0x0000000008007500       0xb0 build/stm32f769i_discovery_lcd.o
                0x0000000008007500                BSP_LCD_FillRect
 .text.DSI_IO_WriteCmd
                0x00000000080075b0       0x50 build/stm32f769i_discovery_lcd.o
                0x00000000080075b0                DSI_IO_WriteCmd
 .text.LCD_IO_GetID
                0x0000000008007600       0x10 build/stm32f769i_discovery_lcd.o
 .text.BSP_LCD_MspInit
                0x0000000008007610       0xd0 build/stm32f769i_discovery_lcd.o
                0x0000000008007610                BSP_LCD_MspInit
 .text.BSP_LCD_DrawPixel
                0x00000000080076e0       0x4c build/stm32f769i_discovery_lcd.o
                0x00000000080076e0                BSP_LCD_DrawPixel
 .text.DrawChar
                0x000000000800772c      0x170 build/stm32f769i_discovery_lcd.o
 .text.LL_FillBuffer
                0x000000000800789c       0x70 build/stm32f769i_discovery_lcd.o
 .text.BSP_SDRAM_Init
                0x000000000800790c       0xbc build/stm32f769i_discovery_sdram.o
                0x000000000800790c                BSP_SDRAM_Init
 .text.BSP_SDRAM_Initialization_sequence
                0x00000000080079c8       0xc0 build/stm32f769i_discovery_sdram.o
                0x00000000080079c8                BSP_SDRAM_Initialization_sequence
 .text.BSP_SDRAM_MspInit
                0x0000000008007a88      0x1f0 build/stm32f769i_discovery_sdram.o
                0x0000000008007a88                BSP_SDRAM_MspInit
 .text.Reset_Handler
                0x0000000008007c78       0x50 build/startup_stm32f769xx.o
                0x0000000008007c78                Reset_Handler
 .text.Default_Handler
                0x0000000008007cc8        0x2 build/startup_stm32f769xx.o
                0x0000000008007cc8                RTC_Alarm_IRQHandler
                0x0000000008007cc8                EXTI2_IRQHandler
                0x0000000008007cc8                TIM8_CC_IRQHandler
                0x0000000008007cc8                UART8_IRQHandler
                0x0000000008007cc8                SPI4_IRQHandler
                0x0000000008007cc8                TIM1_CC_IRQHandler
                0x0000000008007cc8                DMA2_Stream5_IRQHandler
                0x0000000008007cc8                JPEG_IRQHandler
                0x0000000008007cc8                DMA1_Stream5_IRQHandler
                0x0000000008007cc8                CAN3_RX1_IRQHandler
                0x0000000008007cc8                PVD_IRQHandler
                0x0000000008007cc8                TAMP_STAMP_IRQHandler
                0x0000000008007cc8                CAN2_RX1_IRQHandler
                0x0000000008007cc8                EXTI3_IRQHandler
                0x0000000008007cc8                TIM8_TRG_COM_TIM14_IRQHandler
                0x0000000008007cc8                DFSDM1_FLT1_IRQHandler
                0x0000000008007cc8                TIM1_UP_TIM10_IRQHandler
                0x0000000008007cc8                I2C3_ER_IRQHandler
                0x0000000008007cc8                DFSDM1_FLT2_IRQHandler
                0x0000000008007cc8                EXTI0_IRQHandler
                0x0000000008007cc8                I2C2_EV_IRQHandler
                0x0000000008007cc8                DMA1_Stream2_IRQHandler
                0x0000000008007cc8                CAN1_RX0_IRQHandler
                0x0000000008007cc8                FPU_IRQHandler
                0x0000000008007cc8                OTG_HS_WKUP_IRQHandler
                0x0000000008007cc8                CAN3_SCE_IRQHandler
                0x0000000008007cc8                LTDC_ER_IRQHandler
                0x0000000008007cc8                CAN2_SCE_IRQHandler
                0x0000000008007cc8                DMA2_Stream2_IRQHandler
                0x0000000008007cc8                SPI1_IRQHandler
                0x0000000008007cc8                TIM6_DAC_IRQHandler
                0x0000000008007cc8                TIM1_BRK_TIM9_IRQHandler
                0x0000000008007cc8                DCMI_IRQHandler
                0x0000000008007cc8                CAN2_RX0_IRQHandler
                0x0000000008007cc8                DMA2_Stream3_IRQHandler
                0x0000000008007cc8                SAI2_IRQHandler
                0x0000000008007cc8                DFSDM1_FLT3_IRQHandler
                0x0000000008007cc8                USART6_IRQHandler
                0x0000000008007cc8                CAN3_RX0_IRQHandler
                0x0000000008007cc8                USART3_IRQHandler
                0x0000000008007cc8                CAN1_RX1_IRQHandler
                0x0000000008007cc8                UART5_IRQHandler
                0x0000000008007cc8                DMA2_Stream0_IRQHandler
                0x0000000008007cc8                TIM4_IRQHandler
                0x0000000008007cc8                QUADSPI_IRQHandler
                0x0000000008007cc8                I2C1_EV_IRQHandler
                0x0000000008007cc8                DMA1_Stream6_IRQHandler
                0x0000000008007cc8                DMA1_Stream1_IRQHandler
                0x0000000008007cc8                UART4_IRQHandler
                0x0000000008007cc8                TIM3_IRQHandler
                0x0000000008007cc8                RCC_IRQHandler
                0x0000000008007cc8                TIM8_BRK_TIM12_IRQHandler
                0x0000000008007cc8                Default_Handler
                0x0000000008007cc8                CEC_IRQHandler
                0x0000000008007cc8                EXTI15_10_IRQHandler
                0x0000000008007cc8                ADC_IRQHandler
                0x0000000008007cc8                DMA1_Stream7_IRQHandler
                0x0000000008007cc8                SPI5_IRQHandler
                0x0000000008007cc8                TIM7_IRQHandler
                0x0000000008007cc8                SDMMC1_IRQHandler
                0x0000000008007cc8                CAN2_TX_IRQHandler
                0x0000000008007cc8                TIM5_IRQHandler
                0x0000000008007cc8                DMA2_Stream7_IRQHandler
                0x0000000008007cc8                I2C3_EV_IRQHandler
                0x0000000008007cc8                EXTI9_5_IRQHandler
                0x0000000008007cc8                RTC_WKUP_IRQHandler
                0x0000000008007cc8                LTDC_IRQHandler
                0x0000000008007cc8                ETH_WKUP_IRQHandler
                0x0000000008007cc8                SPDIF_RX_IRQHandler
                0x0000000008007cc8                SPI2_IRQHandler
                0x0000000008007cc8                OTG_HS_EP1_IN_IRQHandler
                0x0000000008007cc8                DMA1_Stream0_IRQHandler
                0x0000000008007cc8                CAN1_TX_IRQHandler
                0x0000000008007cc8                EXTI4_IRQHandler
                0x0000000008007cc8                RNG_IRQHandler
                0x0000000008007cc8                DSI_IRQHandler
                0x0000000008007cc8                ETH_IRQHandler
                0x0000000008007cc8                OTG_HS_EP1_OUT_IRQHandler
                0x0000000008007cc8                WWDG_IRQHandler
                0x0000000008007cc8                SPI6_IRQHandler
                0x0000000008007cc8                MDIOS_IRQHandler
                0x0000000008007cc8                I2C4_EV_IRQHandler
                0x0000000008007cc8                CAN3_TX_IRQHandler
                0x0000000008007cc8                TIM2_IRQHandler
                0x0000000008007cc8                OTG_FS_WKUP_IRQHandler
                0x0000000008007cc8                TIM1_TRG_COM_TIM11_IRQHandler
                0x0000000008007cc8                OTG_HS_IRQHandler
                0x0000000008007cc8                DMA2D_IRQHandler
                0x0000000008007cc8                EXTI1_IRQHandler
                0x0000000008007cc8                SDMMC2_IRQHandler
                0x0000000008007cc8                UART7_IRQHandler
                0x0000000008007cc8                USART2_IRQHandler
                0x0000000008007cc8                DFSDM1_FLT0_IRQHandler
                0x0000000008007cc8                I2C2_ER_IRQHandler
                0x0000000008007cc8                DMA2_Stream1_IRQHandler
                0x0000000008007cc8                CAN1_SCE_IRQHandler
                0x0000000008007cc8                FLASH_IRQHandler
                0x0000000008007cc8                DMA2_Stream4_IRQHandler
                0x0000000008007cc8                USART1_IRQHandler
                0x0000000008007cc8                OTG_FS_IRQHandler
                0x0000000008007cc8                SPI3_IRQHandler
                0x0000000008007cc8                DMA1_Stream4_IRQHandler
                0x0000000008007cc8                I2C1_ER_IRQHandler
                0x0000000008007cc8                FMC_IRQHandler
                0x0000000008007cc8                LPTIM1_IRQHandler
                0x0000000008007cc8                I2C4_ER_IRQHandler
                0x0000000008007cc8                DMA2_Stream6_IRQHandler
                0x0000000008007cc8                SAI1_IRQHandler
                0x0000000008007cc8                DMA1_Stream3_IRQHandler
 *fill*         0x0000000008007cca        0x2 
 .text.__errno  0x0000000008007ccc        0xc /usr/bin/../lib/gcc/arm-none-eabi/4.9.3/../../../../arm-none-eabi/lib/cortex-m7/fpu/fpv5-sp-d16/libc_nano.a(lib_a-errno.o)
                0x0000000008007ccc                __errno
 .text.__libc_init_array
                0x0000000008007cd8       0x4c /usr/bin/../lib/gcc/arm-none-eabi/4.9.3/../../../../arm-none-eabi/lib/cortex-m7/fpu/fpv5-sp-d16/libc_nano.a(lib_a-init.o)
                0x0000000008007cd8                __libc_init_array
 .text.memset   0x0000000008007d24       0x10 /usr/bin/../lib/gcc/arm-none-eabi/4.9.3/../../../../arm-none-eabi/lib/cortex-m7/fpu/fpv5-sp-d16/libc_nano.a(lib_a-memset.o)
                0x0000000008007d24                memset
 .text._puts_r  0x0000000008007d34       0xf0 /usr/bin/../lib/gcc/arm-none-eabi/4.9.3/../../../../arm-none-eabi/lib/cortex-m7/fpu/fpv5-sp-d16/libc_nano.a(lib_a-puts.o)
                0x0000000008007d34                _puts_r
 .text.puts     0x0000000008007e24       0x10 /usr/bin/../lib/gcc/arm-none-eabi/4.9.3/../../../../arm-none-eabi/lib/cortex-m7/fpu/fpv5-sp-d16/libc_nano.a(lib_a-puts.o)
                0x0000000008007e24                puts
 .text.__swbuf_r
                0x0000000008007e34       0xa8 /usr/bin/../lib/gcc/arm-none-eabi/4.9.3/../../../../arm-none-eabi/lib/cortex-m7/fpu/fpv5-sp-d16/libc_nano.a(lib_a-wbuf.o)
                0x0000000008007e34                __swbuf_r
 .text.__swsetup_r
                0x0000000008007edc       0xd8 /usr/bin/../lib/gcc/arm-none-eabi/4.9.3/../../../../arm-none-eabi/lib/cortex-m7/fpu/fpv5-sp-d16/libc_nano.a(lib_a-wsetup.o)
                0x0000000008007edc                __swsetup_r
 .text.__sflush_r
                0x0000000008007fb4      0x106 /usr/bin/../lib/gcc/arm-none-eabi/4.9.3/../../../../arm-none-eabi/lib/cortex-m7/fpu/fpv5-sp-d16/libc_nano.a(lib_a-fflush.o)
                0x0000000008007fb4                __sflush_r
 *fill*         0x00000000080080ba        0x2 
 .text._fflush_r
                0x00000000080080bc       0x54 /usr/bin/../lib/gcc/arm-none-eabi/4.9.3/../../../../arm-none-eabi/lib/cortex-m7/fpu/fpv5-sp-d16/libc_nano.a(lib_a-fflush.o)
                0x00000000080080bc                _fflush_r
 .text._cleanup_r
                0x0000000008008110        0xc /usr/bin/../lib/gcc/arm-none-eabi/4.9.3/../../../../arm-none-eabi/lib/cortex-m7/fpu/fpv5-sp-d16/libc_nano.a(lib_a-findfp.o)
                0x0000000008008110                _cleanup_r
 .text.std.isra.0
                0x000000000800811c       0x54 /usr/bin/../lib/gcc/arm-none-eabi/4.9.3/../../../../arm-none-eabi/lib/cortex-m7/fpu/fpv5-sp-d16/libc_nano.a(lib_a-findfp.o)
 .text.__sfmoreglue
                0x0000000008008170       0x2c /usr/bin/../lib/gcc/arm-none-eabi/4.9.3/../../../../arm-none-eabi/lib/cortex-m7/fpu/fpv5-sp-d16/libc_nano.a(lib_a-findfp.o)
                0x0000000008008170                __sfmoreglue
 .text.__sinit  0x000000000800819c       0x60 /usr/bin/../lib/gcc/arm-none-eabi/4.9.3/../../../../arm-none-eabi/lib/cortex-m7/fpu/fpv5-sp-d16/libc_nano.a(lib_a-findfp.o)
                0x000000000800819c                __sinit
 .text.__sfp    0x00000000080081fc       0x74 /usr/bin/../lib/gcc/arm-none-eabi/4.9.3/../../../../arm-none-eabi/lib/cortex-m7/fpu/fpv5-sp-d16/libc_nano.a(lib_a-findfp.o)
                0x00000000080081fc                __sfp
 .text._fwalk_reent
                0x0000000008008270       0x3c /usr/bin/../lib/gcc/arm-none-eabi/4.9.3/../../../../arm-none-eabi/lib/cortex-m7/fpu/fpv5-sp-d16/libc_nano.a(lib_a-fwalk.o)
                0x0000000008008270                _fwalk_reent
 .text.__smakebuf_r
                0x00000000080082ac       0x98 /usr/bin/../lib/gcc/arm-none-eabi/4.9.3/../../../../arm-none-eabi/lib/cortex-m7/fpu/fpv5-sp-d16/libc_nano.a(lib_a-makebuf.o)
                0x00000000080082ac                __smakebuf_r
 .text._free_r  0x0000000008008344       0x88 /usr/bin/../lib/gcc/arm-none-eabi/4.9.3/../../../../arm-none-eabi/lib/cortex-m7/fpu/fpv5-sp-d16/libc_nano.a(lib_a-nano-freer.o)
                0x0000000008008344                _free_r
 .text._malloc_r
                0x00000000080083cc       0xac /usr/bin/../lib/gcc/arm-none-eabi/4.9.3/../../../../arm-none-eabi/lib/cortex-m7/fpu/fpv5-sp-d16/libc_nano.a(lib_a-nano-mallocr.o)
                0x00000000080083cc                _malloc_r
 .text._sbrk_r  0x0000000008008478       0x20 /usr/bin/../lib/gcc/arm-none-eabi/4.9.3/../../../../arm-none-eabi/lib/cortex-m7/fpu/fpv5-sp-d16/libc_nano.a(lib_a-sbrkr.o)
                0x0000000008008478                _sbrk_r
 .text.__sread  0x0000000008008498       0x22 /usr/bin/../lib/gcc/arm-none-eabi/4.9.3/../../../../arm-none-eabi/lib/cortex-m7/fpu/fpv5-sp-d16/libc_nano.a(lib_a-stdio.o)
                0x0000000008008498                __sread
 .text.__swrite
                0x00000000080084ba       0x38 /usr/bin/../lib/gcc/arm-none-eabi/4.9.3/../../../../arm-none-eabi/lib/cortex-m7/fpu/fpv5-sp-d16/libc_nano.a(lib_a-stdio.o)
                0x00000000080084ba                __swrite
 .text.__sseek  0x00000000080084f2       0x24 /usr/bin/../lib/gcc/arm-none-eabi/4.9.3/../../../../arm-none-eabi/lib/cortex-m7/fpu/fpv5-sp-d16/libc_nano.a(lib_a-stdio.o)
                0x00000000080084f2                __sseek
 .text.__sclose
                0x0000000008008516        0x8 /usr/bin/../lib/gcc/arm-none-eabi/4.9.3/../../../../arm-none-eabi/lib/cortex-m7/fpu/fpv5-sp-d16/libc_nano.a(lib_a-stdio.o)
                0x0000000008008516                __sclose
 *fill*         0x000000000800851e        0x2 
 .text._write_r
                0x0000000008008520       0x24 /usr/bin/../lib/gcc/arm-none-eabi/4.9.3/../../../../arm-none-eabi/lib/cortex-m7/fpu/fpv5-sp-d16/libc_nano.a(lib_a-writer.o)
                0x0000000008008520                _write_r
 .text._close_r
                0x0000000008008544       0x20 /usr/bin/../lib/gcc/arm-none-eabi/4.9.3/../../../../arm-none-eabi/lib/cortex-m7/fpu/fpv5-sp-d16/libc_nano.a(lib_a-closer.o)
                0x0000000008008544                _close_r
 .text._fstat_r
                0x0000000008008564       0x24 /usr/bin/../lib/gcc/arm-none-eabi/4.9.3/../../../../arm-none-eabi/lib/cortex-m7/fpu/fpv5-sp-d16/libc_nano.a(lib_a-fstatr.o)
                0x0000000008008564                _fstat_r
 .text._isatty_r
                0x0000000008008588       0x20 /usr/bin/../lib/gcc/arm-none-eabi/4.9.3/../../../../arm-none-eabi/lib/cortex-m7/fpu/fpv5-sp-d16/libc_nano.a(lib_a-isattyr.o)
                0x0000000008008588                _isatty_r
 .text._lseek_r
                0x00000000080085a8       0x24 /usr/bin/../lib/gcc/arm-none-eabi/4.9.3/../../../../arm-none-eabi/lib/cortex-m7/fpu/fpv5-sp-d16/libc_nano.a(lib_a-lseekr.o)
                0x00000000080085a8                _lseek_r
 .text._read_r  0x00000000080085cc       0x24 /usr/bin/../lib/gcc/arm-none-eabi/4.9.3/../../../../arm-none-eabi/lib/cortex-m7/fpu/fpv5-sp-d16/libc_nano.a(lib_a-readr.o)
                0x00000000080085cc                _read_r
 *(.glue_7)
 .glue_7        0x0000000000000000        0x0 linker stubs
 *(.glue_7t)
 .glue_7t       0x0000000000000000        0x0 linker stubs
 *(.eh_frame)
 .eh_frame      0x00000000080085f0        0x0 /usr/bin/../lib/gcc/arm-none-eabi/4.9.3/cortex-m7/fpu/fpv5-sp-d16/crtbegin.o
 *(.init)
 .init          0x00000000080085f0        0x4 /usr/bin/../lib/gcc/arm-none-eabi/4.9.3/cortex-m7/fpu/fpv5-sp-d16/crti.o
                0x00000000080085f0                _init
 .init          0x00000000080085f4        0x8 /usr/bin/../lib/gcc/arm-none-eabi/4.9.3/cortex-m7/fpu/fpv5-sp-d16/crtn.o
 *(.fini)
 .fini          0x00000000080085fc        0x4 /usr/bin/../lib/gcc/arm-none-eabi/4.9.3/cortex-m7/fpu/fpv5-sp-d16/crti.o
                0x00000000080085fc                _fini
 .fini          0x0000000008008600        0x8 /usr/bin/../lib/gcc/arm-none-eabi/4.9.3/cortex-m7/fpu/fpv5-sp-d16/crtn.o
                0x0000000008008608                . = ALIGN (0x4)
                0x0000000008008608                _etext = .

.vfp11_veneer   0x0000000008008608        0x0
 .vfp11_veneer  0x0000000000000000        0x0 linker stubs

.v4_bx          0x0000000008008608        0x0
 .v4_bx         0x0000000000000000        0x0 linker stubs

.iplt           0x0000000008008608        0x0
 .iplt          0x0000000000000000        0x0 /usr/bin/../lib/gcc/arm-none-eabi/4.9.3/cortex-m7/fpu/fpv5-sp-d16/crtbegin.o

.rodata         0x0000000008008608     0x2e04
                0x0000000008008608                . = ALIGN (0x4)
 *(.rodata)
 .rodata        0x0000000008008608        0x5 build/tasks.o
 *fill*         0x000000000800860d        0x3 
 .rodata        0x0000000008008610       0x5c build/main.o
 *(.rodata*)
 .rodata.flagBitshiftOffset.9302
                0x000000000800866c        0x8 build/stm32f7xx_hal_dma.o
 .rodata.AHBPrescTable
                0x0000000008008674       0x10 build/system_stm32f7xx.o
                0x0000000008008674                AHBPrescTable
 .rodata.APBPrescTable
                0x0000000008008684        0x8 build/system_stm32f7xx.o
                0x0000000008008684                APBPrescTable
 .rodata.lcdRegData1
                0x000000000800868c        0x4 build/otm8009a.o
                0x000000000800868c                lcdRegData1
 .rodata.lcdRegData2
                0x0000000008008690        0x3 build/otm8009a.o
                0x0000000008008690                lcdRegData2
 *fill*         0x0000000008008693        0x1 
 .rodata.lcdRegData3
                0x0000000008008694       0x11 build/otm8009a.o
                0x0000000008008694                lcdRegData3
 *fill*         0x00000000080086a5        0x3 
 .rodata.lcdRegData4
                0x00000000080086a8       0x11 build/otm8009a.o
                0x00000000080086a8                lcdRegData4
 *fill*         0x00000000080086b9        0x3 
 .rodata.lcdRegData5
                0x00000000080086bc        0x3 build/otm8009a.o
                0x00000000080086bc                lcdRegData5
 *fill*         0x00000000080086bf        0x1 
 .rodata.lcdRegData6
                0x00000000080086c0        0x3 build/otm8009a.o
                0x00000000080086c0                lcdRegData6
 *fill*         0x00000000080086c3        0x1 
 .rodata.lcdRegData7
                0x00000000080086c4        0x7 build/otm8009a.o
                0x00000000080086c4                lcdRegData7
 *fill*         0x00000000080086cb        0x1 
 .rodata.lcdRegData8
                0x00000000080086cc        0xf build/otm8009a.o
                0x00000000080086cc                lcdRegData8
 *fill*         0x00000000080086db        0x1 
 .rodata.lcdRegData9
                0x00000000080086dc        0xf build/otm8009a.o
                0x00000000080086dc                lcdRegData9
 *fill*         0x00000000080086eb        0x1 
 .rodata.lcdRegData10
                0x00000000080086ec        0xb build/otm8009a.o
                0x00000000080086ec                lcdRegData10
 *fill*         0x00000000080086f7        0x1 
 .rodata.lcdRegData11
                0x00000000080086f8        0xb build/otm8009a.o
                0x00000000080086f8                lcdRegData11
 *fill*         0x0000000008008703        0x1 
 .rodata.lcdRegData12
                0x0000000008008704       0x10 build/otm8009a.o
                0x0000000008008704                lcdRegData12
 .rodata.lcdRegData13
                0x0000000008008714       0x10 build/otm8009a.o
                0x0000000008008714                lcdRegData13
 .rodata.lcdRegData14
                0x0000000008008724        0xb build/otm8009a.o
                0x0000000008008724                lcdRegData14
 *fill*         0x000000000800872f        0x1 
 .rodata.lcdRegData15
                0x0000000008008730       0x10 build/otm8009a.o
                0x0000000008008730                lcdRegData15
 .rodata.lcdRegData16
                0x0000000008008740       0x10 build/otm8009a.o
                0x0000000008008740                lcdRegData16
 .rodata.lcdRegData17
                0x0000000008008750        0xb build/otm8009a.o
                0x0000000008008750                lcdRegData17
 *fill*         0x000000000800875b        0x1 
 .rodata.lcdRegData18
                0x000000000800875c        0xb build/otm8009a.o
                0x000000000800875c                lcdRegData18
 *fill*         0x0000000008008767        0x1 
 .rodata.lcdRegData19
                0x0000000008008768        0xb build/otm8009a.o
                0x0000000008008768                lcdRegData19
 *fill*         0x0000000008008773        0x1 
 .rodata.lcdRegData20
                0x0000000008008774       0x10 build/otm8009a.o
                0x0000000008008774                lcdRegData20
 .rodata.lcdRegData21
                0x0000000008008784       0x10 build/otm8009a.o
                0x0000000008008784                lcdRegData21
 .rodata.lcdRegData22
                0x0000000008008794        0xb build/otm8009a.o
                0x0000000008008794                lcdRegData22
 *fill*         0x000000000800879f        0x1 
 .rodata.lcdRegData23
                0x00000000080087a0       0x10 build/otm8009a.o
                0x00000000080087a0                lcdRegData23
 .rodata.lcdRegData24
                0x00000000080087b0       0x10 build/otm8009a.o
                0x00000000080087b0                lcdRegData24
 .rodata.lcdRegData25
                0x00000000080087c0        0x4 build/otm8009a.o
                0x00000000080087c0                lcdRegData25
 .rodata.lcdRegData27
                0x00000000080087c4        0x5 build/otm8009a.o
                0x00000000080087c4                lcdRegData27
 *fill*         0x00000000080087c9        0x3 
 .rodata.lcdRegData28
                0x00000000080087cc        0x5 build/otm8009a.o
                0x00000000080087cc                lcdRegData28
 *fill*         0x00000000080087d1        0x3 
 .rodata.ShortRegData1
                0x00000000080087d4        0x2 build/otm8009a.o
                0x00000000080087d4                ShortRegData1
 *fill*         0x00000000080087d6        0x2 
 .rodata.ShortRegData2
                0x00000000080087d8        0x2 build/otm8009a.o
                0x00000000080087d8                ShortRegData2
 *fill*         0x00000000080087da        0x2 
 .rodata.ShortRegData3
                0x00000000080087dc        0x2 build/otm8009a.o
                0x00000000080087dc                ShortRegData3
 *fill*         0x00000000080087de        0x2 
 .rodata.ShortRegData4
                0x00000000080087e0        0x2 build/otm8009a.o
                0x00000000080087e0                ShortRegData4
 *fill*         0x00000000080087e2        0x2 
 .rodata.ShortRegData5
                0x00000000080087e4        0x2 build/otm8009a.o
                0x00000000080087e4                ShortRegData5
 *fill*         0x00000000080087e6        0x2 
 .rodata.ShortRegData6
                0x00000000080087e8        0x2 build/otm8009a.o
                0x00000000080087e8                ShortRegData6
 *fill*         0x00000000080087ea        0x2 
 .rodata.ShortRegData7
                0x00000000080087ec        0x2 build/otm8009a.o
                0x00000000080087ec                ShortRegData7
 *fill*         0x00000000080087ee        0x2 
 .rodata.ShortRegData8
                0x00000000080087f0        0x2 build/otm8009a.o
                0x00000000080087f0                ShortRegData8
 *fill*         0x00000000080087f2        0x2 
 .rodata.ShortRegData9
                0x00000000080087f4        0x2 build/otm8009a.o
                0x00000000080087f4                ShortRegData9
 *fill*         0x00000000080087f6        0x2 
 .rodata.ShortRegData10
                0x00000000080087f8        0x2 build/otm8009a.o
                0x00000000080087f8                ShortRegData10
 *fill*         0x00000000080087fa        0x2 
 .rodata.ShortRegData11
                0x00000000080087fc        0x2 build/otm8009a.o
                0x00000000080087fc                ShortRegData11
 *fill*         0x00000000080087fe        0x2 
 .rodata.ShortRegData12
                0x0000000008008800        0x2 build/otm8009a.o
                0x0000000008008800                ShortRegData12
 *fill*         0x0000000008008802        0x2 
 .rodata.ShortRegData13
                0x0000000008008804        0x2 build/otm8009a.o
                0x0000000008008804                ShortRegData13
 *fill*         0x0000000008008806        0x2 
 .rodata.ShortRegData14
                0x0000000008008808        0x2 build/otm8009a.o
                0x0000000008008808                ShortRegData14
 *fill*         0x000000000800880a        0x2 
 .rodata.ShortRegData15
                0x000000000800880c        0x2 build/otm8009a.o
                0x000000000800880c                ShortRegData15
 *fill*         0x000000000800880e        0x2 
 .rodata.ShortRegData16
                0x0000000008008810        0x2 build/otm8009a.o
                0x0000000008008810                ShortRegData16
 *fill*         0x0000000008008812        0x2 
 .rodata.ShortRegData17
                0x0000000008008814        0x2 build/otm8009a.o
                0x0000000008008814                ShortRegData17
 *fill*         0x0000000008008816        0x2 
 .rodata.ShortRegData18
                0x0000000008008818        0x2 build/otm8009a.o
                0x0000000008008818                ShortRegData18
 *fill*         0x000000000800881a        0x2 
 .rodata.ShortRegData19
                0x000000000800881c        0x2 build/otm8009a.o
                0x000000000800881c                ShortRegData19
 *fill*         0x000000000800881e        0x2 
 .rodata.ShortRegData20
                0x0000000008008820        0x2 build/otm8009a.o
                0x0000000008008820                ShortRegData20
 *fill*         0x0000000008008822        0x2 
 .rodata.ShortRegData21
                0x0000000008008824        0x2 build/otm8009a.o
                0x0000000008008824                ShortRegData21
 *fill*         0x0000000008008826        0x2 
 .rodata.ShortRegData22
                0x0000000008008828        0x2 build/otm8009a.o
                0x0000000008008828                ShortRegData22
 *fill*         0x000000000800882a        0x2 
 .rodata.ShortRegData23
                0x000000000800882c        0x2 build/otm8009a.o
                0x000000000800882c                ShortRegData23
 *fill*         0x000000000800882e        0x2 
 .rodata.ShortRegData24
                0x0000000008008830        0x2 build/otm8009a.o
                0x0000000008008830                ShortRegData24
 *fill*         0x0000000008008832        0x2 
 .rodata.ShortRegData25
                0x0000000008008834        0x2 build/otm8009a.o
                0x0000000008008834                ShortRegData25
 *fill*         0x0000000008008836        0x2 
 .rodata.ShortRegData26
                0x0000000008008838        0x2 build/otm8009a.o
                0x0000000008008838                ShortRegData26
 *fill*         0x000000000800883a        0x2 
 .rodata.ShortRegData27
                0x000000000800883c        0x2 build/otm8009a.o
                0x000000000800883c                ShortRegData27
 *fill*         0x000000000800883e        0x2 
 .rodata.ShortRegData28
                0x0000000008008840        0x2 build/otm8009a.o
                0x0000000008008840                ShortRegData28
 *fill*         0x0000000008008842        0x2 
 .rodata.ShortRegData29
                0x0000000008008844        0x2 build/otm8009a.o
                0x0000000008008844                ShortRegData29
 *fill*         0x0000000008008846        0x2 
 .rodata.ShortRegData30
                0x0000000008008848        0x2 build/otm8009a.o
                0x0000000008008848                ShortRegData30
 *fill*         0x000000000800884a        0x2 
 .rodata.ShortRegData31
                0x000000000800884c        0x2 build/otm8009a.o
                0x000000000800884c                ShortRegData31
 *fill*         0x000000000800884e        0x2 
 .rodata.ShortRegData32
                0x0000000008008850        0x2 build/otm8009a.o
                0x0000000008008850                ShortRegData32
 *fill*         0x0000000008008852        0x2 
 .rodata.ShortRegData33
                0x0000000008008854        0x2 build/otm8009a.o
                0x0000000008008854                ShortRegData33
 *fill*         0x0000000008008856        0x2 
 .rodata.ShortRegData34
                0x0000000008008858        0x2 build/otm8009a.o
                0x0000000008008858                ShortRegData34
 *fill*         0x000000000800885a        0x2 
 .rodata.ShortRegData35
                0x000000000800885c        0x2 build/otm8009a.o
                0x000000000800885c                ShortRegData35
 *fill*         0x000000000800885e        0x2 
 .rodata.ShortRegData36
                0x0000000008008860        0x2 build/otm8009a.o
                0x0000000008008860                ShortRegData36
 *fill*         0x0000000008008862        0x2 
 .rodata.ShortRegData37
                0x0000000008008864        0x2 build/otm8009a.o
                0x0000000008008864                ShortRegData37
 *fill*         0x0000000008008866        0x2 
 .rodata.ShortRegData38
                0x0000000008008868        0x2 build/otm8009a.o
                0x0000000008008868                ShortRegData38
 *fill*         0x000000000800886a        0x2 
 .rodata.ShortRegData39
                0x000000000800886c        0x2 build/otm8009a.o
                0x000000000800886c                ShortRegData39
 *fill*         0x000000000800886e        0x2 
 .rodata.ShortRegData40
                0x0000000008008870        0x2 build/otm8009a.o
                0x0000000008008870                ShortRegData40
 *fill*         0x0000000008008872        0x2 
 .rodata.ShortRegData41
                0x0000000008008874        0x2 build/otm8009a.o
                0x0000000008008874                ShortRegData41
 *fill*         0x0000000008008876        0x2 
 .rodata.ShortRegData42
                0x0000000008008878        0x2 build/otm8009a.o
                0x0000000008008878                ShortRegData42
 *fill*         0x000000000800887a        0x2 
 .rodata.ShortRegData43
                0x000000000800887c        0x2 build/otm8009a.o
                0x000000000800887c                ShortRegData43
 *fill*         0x000000000800887e        0x2 
 .rodata.ShortRegData44
                0x0000000008008880        0x2 build/otm8009a.o
                0x0000000008008880                ShortRegData44
 *fill*         0x0000000008008882        0x2 
 .rodata.ShortRegData45
                0x0000000008008884        0x2 build/otm8009a.o
                0x0000000008008884                ShortRegData45
 *fill*         0x0000000008008886        0x2 
 .rodata.ShortRegData46
                0x0000000008008888        0x2 build/otm8009a.o
                0x0000000008008888                ShortRegData46
 *fill*         0x000000000800888a        0x2 
 .rodata.ShortRegData47
                0x000000000800888c        0x2 build/otm8009a.o
                0x000000000800888c                ShortRegData47
 *fill*         0x000000000800888e        0x2 
 .rodata.ShortRegData48
                0x0000000008008890        0x2 build/otm8009a.o
                0x0000000008008890                ShortRegData48
 *fill*         0x0000000008008892        0x2 
 .rodata.ShortRegData49
                0x0000000008008894        0x2 build/otm8009a.o
                0x0000000008008894                ShortRegData49
 *fill*         0x0000000008008896        0x2 
 .rodata.Font24_Table
                0x0000000008008898     0x1ab8 build/stm32f769i_discovery_lcd.o
                0x0000000008008898                Font24_Table
 .rodata.Font16_Table
                0x000000000800a350      0xbe0 build/stm32f769i_discovery_lcd.o
                0x000000000800a350                Font16_Table
 .rodata.Font12_Table
                0x000000000800af30      0x474 build/stm32f769i_discovery_lcd.o
                0x000000000800af30                Font12_Table
 .rodata.str1.1
                0x000000000800b3a4        0x2 /usr/bin/../lib/gcc/arm-none-eabi/4.9.3/../../../../arm-none-eabi/lib/cortex-m7/fpu/fpv5-sp-d16/libc_nano.a(lib_a-impure.o)
 *fill*         0x000000000800b3a6        0x2 
 .rodata._global_impure_ptr
                0x000000000800b3a8        0x4 /usr/bin/../lib/gcc/arm-none-eabi/4.9.3/../../../../arm-none-eabi/lib/cortex-m7/fpu/fpv5-sp-d16/libc_nano.a(lib_a-impure.o)
                0x000000000800b3a8                _global_impure_ptr
 .rodata.__sf_fake_stdin
                0x000000000800b3ac       0x20 /usr/bin/../lib/gcc/arm-none-eabi/4.9.3/../../../../arm-none-eabi/lib/cortex-m7/fpu/fpv5-sp-d16/libc_nano.a(lib_a-findfp.o)
                0x000000000800b3ac                __sf_fake_stdin
 .rodata.__sf_fake_stdout
                0x000000000800b3cc       0x20 /usr/bin/../lib/gcc/arm-none-eabi/4.9.3/../../../../arm-none-eabi/lib/cortex-m7/fpu/fpv5-sp-d16/libc_nano.a(lib_a-findfp.o)
                0x000000000800b3cc                __sf_fake_stdout
 .rodata.__sf_fake_stderr
                0x000000000800b3ec       0x20 /usr/bin/../lib/gcc/arm-none-eabi/4.9.3/../../../../arm-none-eabi/lib/cortex-m7/fpu/fpv5-sp-d16/libc_nano.a(lib_a-findfp.o)
                0x000000000800b3ec                __sf_fake_stderr
                0x000000000800b40c                . = ALIGN (0x4)

.rel.dyn        0x000000000800b40c        0x0
 .rel.iplt      0x0000000000000000        0x0 /usr/bin/../lib/gcc/arm-none-eabi/4.9.3/cortex-m7/fpu/fpv5-sp-d16/crtbegin.o

.ARM.extab
 *(.ARM.extab* .gnu.linkonce.armextab.*)

.ARM            0x000000000800b40c        0x0
                0x000000000800b40c                __exidx_start = .
 *(.ARM.exidx*)
                0x000000000800b40c                __exidx_end = .

.preinit_array  0x000000000800b40c        0x0
                0x000000000800b40c                PROVIDE (__preinit_array_start, .)
 *(.preinit_array*)
                0x000000000800b40c                PROVIDE (__preinit_array_end, .)

.init_array     0x000000000800b40c        0x4
                0x000000000800b40c                PROVIDE (__init_array_start, .)
 *(SORT(.init_array.*))
 *(.init_array*)
 .init_array    0x000000000800b40c        0x4 /usr/bin/../lib/gcc/arm-none-eabi/4.9.3/cortex-m7/fpu/fpv5-sp-d16/crtbegin.o
                0x000000000800b410                PROVIDE (__init_array_end, .)

.fini_array     0x000000000800b410        0x4
                0x000000000800b410                PROVIDE (__fini_array_start, .)
 *(SORT(.fini_array.*))
 *(.fini_array*)
 .fini_array    0x000000000800b410        0x4 /usr/bin/../lib/gcc/arm-none-eabi/4.9.3/cortex-m7/fpu/fpv5-sp-d16/crtbegin.o
                0x000000000800b414                PROVIDE (__fini_array_end, .)
                0x000000000800b414                _sidata = LOADADDR (.data)

.data           0x0000000020011798       0xa0 load address 0x000000000800b414
                0x0000000020011798                . = ALIGN (0x4)
                0x0000000020011798                _sdata = .
 *(.data)
 *(.data*)
 .data.uxCriticalNesting
                0x0000000020011798        0x4 build/port.o
 .data.SystemCoreClock
                0x000000002001179c        0x4 build/system_stm32f7xx.o
                0x000000002001179c                SystemCoreClock
 .data.GPIO_PIN
                0x00000000200117a0        0x8 build/stm32f769i_discovery.o
                0x00000000200117a0                GPIO_PIN
 .data.GPIO_PORT
                0x00000000200117a8        0x8 build/stm32f769i_discovery.o
                0x00000000200117a8                GPIO_PORT
 .data.Font24   0x00000000200117b0        0x8 build/stm32f769i_discovery_lcd.o
                0x00000000200117b0                Font24
 .data.Font16   0x00000000200117b8        0x8 build/stm32f769i_discovery_lcd.o
                0x00000000200117b8                Font16
 .data.Font12   0x00000000200117c0        0x8 build/stm32f769i_discovery_lcd.o
                0x00000000200117c0                Font12
 .data.lcd_x_size
                0x00000000200117c8        0x4 build/stm32f769i_discovery_lcd.o
                0x00000000200117c8                lcd_x_size
 .data.lcd_y_size
                0x00000000200117cc        0x4 build/stm32f769i_discovery_lcd.o
                0x00000000200117cc                lcd_y_size
 .data.sdramstatus.9218
                0x00000000200117d0        0x1 build/stm32f769i_discovery_sdram.o
 *fill*         0x00000000200117d1        0x3 
 .data.impure_data
                0x00000000200117d4       0x60 /usr/bin/../lib/gcc/arm-none-eabi/4.9.3/../../../../arm-none-eabi/lib/cortex-m7/fpu/fpv5-sp-d16/libc_nano.a(lib_a-impure.o)
 .data._impure_ptr
                0x0000000020011834        0x4 /usr/bin/../lib/gcc/arm-none-eabi/4.9.3/../../../../arm-none-eabi/lib/cortex-m7/fpu/fpv5-sp-d16/libc_nano.a(lib_a-impure.o)
                0x0000000020011834                _impure_ptr
                0x0000000020011838                . = ALIGN (0x4)
                0x0000000020011838                _edata = .

.jcr            0x0000000020011838        0x0 load address 0x000000000800b4b4
 .jcr           0x0000000020011838        0x0 /usr/bin/../lib/gcc/arm-none-eabi/4.9.3/cortex-m7/fpu/fpv5-sp-d16/crtbegin.o

.igot.plt       0x0000000020011838        0x0 load address 0x000000000800b4b4
 .igot.plt      0x0000000000000000        0x0 /usr/bin/../lib/gcc/arm-none-eabi/4.9.3/cortex-m7/fpu/fpv5-sp-d16/crtbegin.o
                0x0000000020011838                . = ALIGN (0x4)

.bss            0x0000000020011838     0x7d70 load address 0x000000000800b4b4
                0x0000000020011838                _sbss = .
                0x0000000020011838                __bss_start__ = _sbss
 *(.bss)
 .bss           0x0000000020011838       0x1c /usr/bin/../lib/gcc/arm-none-eabi/4.9.3/cortex-m7/fpu/fpv5-sp-d16/crtbegin.o
 *(.bss*)
 .bss.ucMaxSysCallPriority
                0x0000000020011854        0x1 build/port.o
 *fill*         0x0000000020011855        0x3 
 .bss.ulMaxPRIGROUPValue
                0x0000000020011858        0x4 build/port.o
 .bss.ucHeap    0x000000002001185c     0x3c00 build/heap_4.o
 .bss.xStart    0x000000002001545c        0x8 build/heap_4.o
 .bss.pxEnd     0x0000000020015464        0x4 build/heap_4.o
 .bss.xFreeBytesRemaining
                0x0000000020015468        0x4 build/heap_4.o
 .bss.xMinimumEverFreeBytesRemaining
                0x000000002001546c        0x4 build/heap_4.o
 .bss.xBlockAllocatedBit
                0x0000000020015470        0x4 build/heap_4.o
 .bss.pxCurrentTCB
                0x0000000020015474        0x4 build/tasks.o
                0x0000000020015474                pxCurrentTCB
 .bss.pxReadyTasksLists
                0x0000000020015478       0x8c build/tasks.o
 .bss.xDelayedTaskList1
                0x0000000020015504       0x14 build/tasks.o
 .bss.xDelayedTaskList2
                0x0000000020015518       0x14 build/tasks.o
 .bss.pxDelayedTaskList
                0x000000002001552c        0x4 build/tasks.o
 .bss.pxOverflowDelayedTaskList
                0x0000000020015530        0x4 build/tasks.o
 .bss.xPendingReadyList
                0x0000000020015534       0x14 build/tasks.o
 .bss.xTasksWaitingTermination
                0x0000000020015548       0x14 build/tasks.o
 .bss.uxDeletedTasksWaitingCleanUp
                0x000000002001555c        0x4 build/tasks.o
 .bss.xSuspendedTaskList
                0x0000000020015560       0x14 build/tasks.o
 .bss.uxCurrentNumberOfTasks
                0x0000000020015574        0x4 build/tasks.o
 .bss.xTickCount
                0x0000000020015578        0x4 build/tasks.o
 .bss.uxTopReadyPriority
                0x000000002001557c        0x4 build/tasks.o
 .bss.xSchedulerRunning
                0x0000000020015580        0x4 build/tasks.o
 .bss.uxPendedTicks
                0x0000000020015584        0x4 build/tasks.o
 .bss.xYieldPending
                0x0000000020015588        0x4 build/tasks.o
 .bss.xNumOfOverflows
                0x000000002001558c        0x4 build/tasks.o
 .bss.uxTaskNumber
                0x0000000020015590        0x4 build/tasks.o
 .bss.xNextTaskUnblockTime
                0x0000000020015594        0x4 build/tasks.o
 .bss.xIdleTaskHandle
                0x0000000020015598        0x4 build/tasks.o
 .bss.uxSchedulerSuspended
                0x000000002001559c        0x4 build/tasks.o
 .bss.heap_end.5710
                0x00000000200155a0        0x4 build/syscalls.o
 .bss.hdsivideo_handle
                0x00000000200155a4       0x6c build/stm32f769i_discovery_lcd.o
 .bss.ActiveLayer
                0x0000000020015610        0x4 build/stm32f769i_discovery_lcd.o
 .bss.DrawProp  0x0000000020015614       0x18 build/stm32f769i_discovery_lcd.o
 .bss.PeriphClkInitStruct.9746
                0x000000002001562c       0x90 build/stm32f769i_discovery_lcd.o
 .bss.Timing    0x00000000200156bc       0x1c build/stm32f769i_discovery_sdram.o
 .bss.Command   0x00000000200156d8       0x10 build/stm32f769i_discovery_sdram.o
 .bss.dma_handle.9254
                0x00000000200156e8       0x60 build/stm32f769i_discovery_sdram.o
 .bss.__malloc_sbrk_start
                0x0000000020015748        0x4 /usr/bin/../lib/gcc/arm-none-eabi/4.9.3/../../../../arm-none-eabi/lib/cortex-m7/fpu/fpv5-sp-d16/libc_nano.a(lib_a-nano-mallocr.o)
                0x0000000020015748                __malloc_sbrk_start
 .bss.__malloc_free_list
                0x000000002001574c        0x4 /usr/bin/../lib/gcc/arm-none-eabi/4.9.3/../../../../arm-none-eabi/lib/cortex-m7/fpu/fpv5-sp-d16/libc_nano.a(lib_a-nano-mallocr.o)
                0x000000002001574c                __malloc_free_list
 *(COMMON)
 COMMON         0x0000000020015750        0x4 build/stm32f7xx_hal.o
                0x0000000020015750                uwTick
 COMMON         0x0000000020015754     0x3c6a build/lcd_log.o
                0x0000000020015754                LCD_CacheBuffer_yptr_bottom_bak
                0x0000000020015756                LCD_CacheBuffer_yptr_top_bak
                0x0000000020015758                LCD_CacheBuffer_yptr_bottom
                0x000000002001575a                LCD_CacheBuffer_xptr
                0x000000002001575c                LCD_CacheBuffer_yptr_invert
                0x000000002001575d                LCD_Lock
                0x000000002001575e                LCD_Scrolled
                0x0000000020015760                LCD_CacheBuffer_yptr_top
                0x0000000020015762                LCD_ScrollActive
                0x0000000020015764                LCD_CacheBuffer
                0x00000000200193b8                LCD_LineColor
                0x00000000200193bc                LCD_ScrollBackStep
 *fill*         0x00000000200193be        0x2 
 COMMON         0x00000000200193c0       0x54 build/main.o
                0x00000000200193c0                hrtc
                0x00000000200193e0                hsdram1
 COMMON         0x0000000020019414       0x40 build/stm32f7xx_hal_timebase_tim.o
                0x0000000020019414                htim13
 COMMON         0x0000000020019454      0x11c build/stm32f769i_discovery_lcd.o
                0x0000000020019454                hdma2d_discovery
                0x00000000200194ac                hltdc_discovery
                0x0000000020019554                hdsi_discovery
 COMMON         0x0000000020019570       0x34 build/stm32f769i_discovery_sdram.o
                0x0000000020019570                sdramHandle
 COMMON         0x00000000200195a4        0x4 /usr/bin/../lib/gcc/arm-none-eabi/4.9.3/../../../../arm-none-eabi/lib/cortex-m7/fpu/fpv5-sp-d16/libc_nano.a(lib_a-reent.o)
                0x00000000200195a4                errno
                0x00000000200195a8                . = ALIGN (0x4)
                0x00000000200195a8                _ebss = .
                0x00000000200195a8                __bss_end__ = _ebss

._user_heap_stack
                0x00000000200195a8      0x600 load address 0x000000000800b4b4
                0x00000000200195a8                . = ALIGN (0x8)
                0x00000000200195a8                PROVIDE (end, .)
                0x00000000200195a8                PROVIDE (_end, .)
                0x00000000200197a8                . = (. + _Min_Heap_Size)
 *fill*         0x00000000200195a8      0x200 
                0x0000000020019ba8                . = (. + _Min_Stack_Size)
 *fill*         0x00000000200197a8      0x400 
                0x0000000020019ba8                . = ALIGN (0x8)

/DISCARD/
 libc.a(*)
 libm.a(*)
 libgcc.a(*)

.ARM.attributes
                0x0000000000000000       0x35
 *(.ARM.attributes)
 .ARM.attributes
                0x0000000000000000       0x27 /usr/bin/../lib/gcc/arm-none-eabi/4.9.3/cortex-m7/fpu/fpv5-sp-d16/crti.o
 .ARM.attributes
                0x0000000000000027       0x39 /usr/bin/../lib/gcc/arm-none-eabi/4.9.3/cortex-m7/fpu/fpv5-sp-d16/crtbegin.o
 .ARM.attributes
                0x0000000000000060       0x39 build/stm32f7xx_hal.o
 .ARM.attributes
                0x0000000000000099       0x39 build/stm32f7xx_hal_cortex.o
 .ARM.attributes
                0x00000000000000d2       0x39 build/stm32f7xx_hal_dma.o
 .ARM.attributes
                0x000000000000010b       0x39 build/stm32f7xx_hal_dma2d.o
 .ARM.attributes
                0x0000000000000144       0x39 build/stm32f7xx_hal_dsi.o
 .ARM.attributes
                0x000000000000017d       0x39 build/stm32f7xx_hal_gpio.o
 .ARM.attributes
                0x00000000000001b6       0x39 build/stm32f7xx_hal_ltdc.o
 .ARM.attributes
                0x00000000000001ef       0x39 build/stm32f7xx_hal_ltdc_ex.o
 .ARM.attributes
                0x0000000000000228       0x39 build/stm32f7xx_hal_pwr_ex.o
 .ARM.attributes
                0x0000000000000261       0x39 build/stm32f7xx_hal_rcc.o
 .ARM.attributes
                0x000000000000029a       0x39 build/stm32f7xx_hal_rcc_ex.o
 .ARM.attributes
                0x00000000000002d3       0x39 build/stm32f7xx_hal_sdram.o
 .ARM.attributes
                0x000000000000030c       0x39 build/stm32f7xx_hal_tim.o
 .ARM.attributes
                0x0000000000000345       0x39 build/stm32f7xx_hal_tim_ex.o
 .ARM.attributes
                0x000000000000037e       0x39 build/stm32f7xx_ll_fmc.o
 .ARM.attributes
                0x00000000000003b7       0x39 build/stm32f7xx_hal_rtc.o
 .ARM.attributes
                0x00000000000003f0       0x39 build/list.o
 .ARM.attributes
                0x0000000000000429       0x39 build/port.o
 .ARM.attributes
                0x0000000000000462       0x39 build/heap_4.o
 .ARM.attributes
                0x000000000000049b       0x39 build/tasks.o
 .ARM.attributes
                0x00000000000004d4       0x39 build/lcd_log.o
 .ARM.attributes
                0x000000000000050d       0x39 build/main.o
 .ARM.attributes
                0x0000000000000546       0x39 build/stm32f7xx_hal_msp.o
 .ARM.attributes
                0x000000000000057f       0x39 build/stm32f7xx_hal_timebase_tim.o
 .ARM.attributes
                0x00000000000005b8       0x39 build/stm32f7xx_it.o
 .ARM.attributes
                0x00000000000005f1       0x39 build/system_stm32f7xx.o
 .ARM.attributes
                0x000000000000062a       0x39 build/syscalls.o
 .ARM.attributes
                0x0000000000000663       0x39 build/otm8009a.o
 .ARM.attributes
                0x000000000000069c       0x39 build/stm32f769i_discovery.o
 .ARM.attributes
                0x00000000000006d5       0x39 build/stm32f769i_discovery_lcd.o
 .ARM.attributes
                0x000000000000070e       0x39 build/stm32f769i_discovery_sdram.o
 .ARM.attributes
                0x0000000000000747       0x21 build/startup_stm32f769xx.o
 .ARM.attributes
                0x0000000000000768       0x39 /usr/bin/../lib/gcc/arm-none-eabi/4.9.3/../../../../arm-none-eabi/lib/cortex-m7/fpu/fpv5-sp-d16/libc_nano.a(lib_a-errno.o)
 .ARM.attributes
                0x00000000000007a1       0x39 /usr/bin/../lib/gcc/arm-none-eabi/4.9.3/../../../../arm-none-eabi/lib/cortex-m7/fpu/fpv5-sp-d16/libc_nano.a(lib_a-impure.o)
 .ARM.attributes
                0x00000000000007da       0x39 /usr/bin/../lib/gcc/arm-none-eabi/4.9.3/../../../../arm-none-eabi/lib/cortex-m7/fpu/fpv5-sp-d16/libc_nano.a(lib_a-init.o)
 .ARM.attributes
                0x0000000000000813       0x39 /usr/bin/../lib/gcc/arm-none-eabi/4.9.3/../../../../arm-none-eabi/lib/cortex-m7/fpu/fpv5-sp-d16/libc_nano.a(lib_a-memset.o)
 .ARM.attributes
                0x000000000000084c       0x39 /usr/bin/../lib/gcc/arm-none-eabi/4.9.3/../../../../arm-none-eabi/lib/cortex-m7/fpu/fpv5-sp-d16/libc_nano.a(lib_a-puts.o)
 .ARM.attributes
                0x0000000000000885       0x39 /usr/bin/../lib/gcc/arm-none-eabi/4.9.3/../../../../arm-none-eabi/lib/cortex-m7/fpu/fpv5-sp-d16/libc_nano.a(lib_a-wbuf.o)
 .ARM.attributes
                0x00000000000008be       0x39 /usr/bin/../lib/gcc/arm-none-eabi/4.9.3/../../../../arm-none-eabi/lib/cortex-m7/fpu/fpv5-sp-d16/libc_nano.a(lib_a-wsetup.o)
 .ARM.attributes
                0x00000000000008f7       0x39 /usr/bin/../lib/gcc/arm-none-eabi/4.9.3/../../../../arm-none-eabi/lib/cortex-m7/fpu/fpv5-sp-d16/libc_nano.a(lib_a-fflush.o)
 .ARM.attributes
                0x0000000000000930       0x39 /usr/bin/../lib/gcc/arm-none-eabi/4.9.3/../../../../arm-none-eabi/lib/cortex-m7/fpu/fpv5-sp-d16/libc_nano.a(lib_a-findfp.o)
 .ARM.attributes
                0x0000000000000969       0x39 /usr/bin/../lib/gcc/arm-none-eabi/4.9.3/../../../../arm-none-eabi/lib/cortex-m7/fpu/fpv5-sp-d16/libc_nano.a(lib_a-fwalk.o)
 .ARM.attributes
                0x00000000000009a2       0x39 /usr/bin/../lib/gcc/arm-none-eabi/4.9.3/../../../../arm-none-eabi/lib/cortex-m7/fpu/fpv5-sp-d16/libc_nano.a(lib_a-makebuf.o)
 .ARM.attributes
                0x00000000000009db       0x39 /usr/bin/../lib/gcc/arm-none-eabi/4.9.3/../../../../arm-none-eabi/lib/cortex-m7/fpu/fpv5-sp-d16/libc_nano.a(lib_a-nano-freer.o)
 .ARM.attributes
                0x0000000000000a14       0x39 /usr/bin/../lib/gcc/arm-none-eabi/4.9.3/../../../../arm-none-eabi/lib/cortex-m7/fpu/fpv5-sp-d16/libc_nano.a(lib_a-nano-mallocr.o)
 .ARM.attributes
                0x0000000000000a4d       0x39 /usr/bin/../lib/gcc/arm-none-eabi/4.9.3/../../../../arm-none-eabi/lib/cortex-m7/fpu/fpv5-sp-d16/libc_nano.a(lib_a-sbrkr.o)
 .ARM.attributes
                0x0000000000000a86       0x39 /usr/bin/../lib/gcc/arm-none-eabi/4.9.3/../../../../arm-none-eabi/lib/cortex-m7/fpu/fpv5-sp-d16/libc_nano.a(lib_a-stdio.o)
 .ARM.attributes
                0x0000000000000abf       0x39 /usr/bin/../lib/gcc/arm-none-eabi/4.9.3/../../../../arm-none-eabi/lib/cortex-m7/fpu/fpv5-sp-d16/libc_nano.a(lib_a-writer.o)
 .ARM.attributes
                0x0000000000000af8       0x39 /usr/bin/../lib/gcc/arm-none-eabi/4.9.3/../../../../arm-none-eabi/lib/cortex-m7/fpu/fpv5-sp-d16/libc_nano.a(lib_a-closer.o)
 .ARM.attributes
                0x0000000000000b31       0x39 /usr/bin/../lib/gcc/arm-none-eabi/4.9.3/../../../../arm-none-eabi/lib/cortex-m7/fpu/fpv5-sp-d16/libc_nano.a(lib_a-fstatr.o)
 .ARM.attributes
                0x0000000000000b6a       0x39 /usr/bin/../lib/gcc/arm-none-eabi/4.9.3/../../../../arm-none-eabi/lib/cortex-m7/fpu/fpv5-sp-d16/libc_nano.a(lib_a-isattyr.o)
 .ARM.attributes
                0x0000000000000ba3       0x39 /usr/bin/../lib/gcc/arm-none-eabi/4.9.3/../../../../arm-none-eabi/lib/cortex-m7/fpu/fpv5-sp-d16/libc_nano.a(lib_a-lseekr.o)
 .ARM.attributes
                0x0000000000000bdc       0x39 /usr/bin/../lib/gcc/arm-none-eabi/4.9.3/../../../../arm-none-eabi/lib/cortex-m7/fpu/fpv5-sp-d16/libc_nano.a(lib_a-readr.o)
 .ARM.attributes
                0x0000000000000c15       0x39 /usr/bin/../lib/gcc/arm-none-eabi/4.9.3/../../../../arm-none-eabi/lib/cortex-m7/fpu/fpv5-sp-d16/libc_nano.a(lib_a-reent.o)
 .ARM.attributes
                0x0000000000000c4e       0x27 /usr/bin/../lib/gcc/arm-none-eabi/4.9.3/cortex-m7/fpu/fpv5-sp-d16/crtn.o

.DMARxDscrTab_section
 *(.DMARxDscrTab_section)

.DMATxDscrTab_section
 *(.DMATxDscrTab_section)

.Rx_Buff_section
 *(.Rx_Buff_section)

.Tx_Buff_section
 *(.Tx_Buff_section)
OUTPUT(build/STM32F769I_DISCOVERY.elf elf32-littlearm)

.debug_info     0x0000000000000000    0x1d27e
 .debug_info    0x0000000000000000      0xa50 build/stm32f7xx_hal.o
 .debug_info    0x0000000000000a50     0x1172 build/stm32f7xx_hal_cortex.o
 .debug_info    0x0000000000001bc2      0x967 build/stm32f7xx_hal_dma.o
 .debug_info    0x0000000000002529     0x1344 build/stm32f7xx_hal_dma2d.o
 .debug_info    0x000000000000386d     0x196f build/stm32f7xx_hal_dsi.o
 .debug_info    0x00000000000051dc      0x7d5 build/stm32f7xx_hal_gpio.o
 .debug_info    0x00000000000059b1     0x11a5 build/stm32f7xx_hal_ltdc.o
 .debug_info    0x0000000000006b56      0x7b5 build/stm32f7xx_hal_ltdc_ex.o
 .debug_info    0x000000000000730b      0x9e8 build/stm32f7xx_hal_pwr_ex.o
 .debug_info    0x0000000000007cf3      0xc84 build/stm32f7xx_hal_rcc.o
 .debug_info    0x0000000000008977     0x10e7 build/stm32f7xx_hal_rcc_ex.o
 .debug_info    0x0000000000009a5e      0xce5 build/stm32f7xx_hal_sdram.o
 .debug_info    0x000000000000a743     0x24dd build/stm32f7xx_hal_tim.o
 .debug_info    0x000000000000cc20     0x149c build/stm32f7xx_hal_tim_ex.o
 .debug_info    0x000000000000e0bc      0xd21 build/stm32f7xx_ll_fmc.o
 .debug_info    0x000000000000eddd      0xcd1 build/stm32f7xx_hal_rtc.o
 .debug_info    0x000000000000faae      0x2d0 build/list.o
 .debug_info    0x000000000000fd7e      0x4f7 build/port.o
 .debug_info    0x0000000000010275      0x3f5 build/heap_4.o
 .debug_info    0x000000000001066a     0x1daa build/tasks.o
 .debug_info    0x0000000000012414      0x460 build/lcd_log.o
 .debug_info    0x0000000000012874     0x1f28 build/main.o
 .debug_info    0x000000000001479c      0xa80 build/stm32f7xx_hal_msp.o
 .debug_info    0x000000000001521c      0xca1 build/stm32f7xx_hal_timebase_tim.o
 .debug_info    0x0000000000015ebd      0x709 build/stm32f7xx_it.o
 .debug_info    0x00000000000165c6      0x781 build/system_stm32f7xx.o
 .debug_info    0x0000000000016d47      0x730 build/syscalls.o
 .debug_info    0x0000000000017477      0x87f build/otm8009a.o
 .debug_info    0x0000000000017cf6     0x16f9 build/stm32f769i_discovery.o
 .debug_info    0x00000000000193ef     0x2e25 build/stm32f769i_discovery_lcd.o
 .debug_info    0x000000000001c214      0xff4 build/stm32f769i_discovery_sdram.o
 .debug_info    0x000000000001d208       0x76 build/startup_stm32f769xx.o

.debug_abbrev   0x0000000000000000     0x372d
 .debug_abbrev  0x0000000000000000      0x1a1 build/stm32f7xx_hal.o
 .debug_abbrev  0x00000000000001a1      0x2a2 build/stm32f7xx_hal_cortex.o
 .debug_abbrev  0x0000000000000443      0x226 build/stm32f7xx_hal_dma.o
 .debug_abbrev  0x0000000000000669      0x24f build/stm32f7xx_hal_dma2d.o
 .debug_abbrev  0x00000000000008b8      0x1d5 build/stm32f7xx_hal_dsi.o
 .debug_abbrev  0x0000000000000a8d      0x1ac build/stm32f7xx_hal_gpio.o
 .debug_abbrev  0x0000000000000c39      0x1f7 build/stm32f7xx_hal_ltdc.o
 .debug_abbrev  0x0000000000000e30      0x110 build/stm32f7xx_hal_ltdc_ex.o
 .debug_abbrev  0x0000000000000f40      0x1af build/stm32f7xx_hal_pwr_ex.o
 .debug_abbrev  0x00000000000010ef      0x265 build/stm32f7xx_hal_rcc.o
 .debug_abbrev  0x0000000000001354      0x1e0 build/stm32f7xx_hal_rcc_ex.o
 .debug_abbrev  0x0000000000001534      0x1da build/stm32f7xx_hal_sdram.o
 .debug_abbrev  0x000000000000170e      0x206 build/stm32f7xx_hal_tim.o
 .debug_abbrev  0x0000000000001914      0x1fd build/stm32f7xx_hal_tim_ex.o
 .debug_abbrev  0x0000000000001b11      0x153 build/stm32f7xx_ll_fmc.o
 .debug_abbrev  0x0000000000001c64      0x191 build/stm32f7xx_hal_rtc.o
 .debug_abbrev  0x0000000000001df5       0xc0 build/list.o
 .debug_abbrev  0x0000000000001eb5      0x1e6 build/port.o
 .debug_abbrev  0x000000000000209b      0x1bb build/heap_4.o
 .debug_abbrev  0x0000000000002256      0x2ba build/tasks.o
 .debug_abbrev  0x0000000000002510      0x1ca build/lcd_log.o
 .debug_abbrev  0x00000000000026da      0x27c build/main.o
 .debug_abbrev  0x0000000000002956      0x117 build/stm32f7xx_hal_msp.o
 .debug_abbrev  0x0000000000002a6d      0x175 build/stm32f7xx_hal_timebase_tim.o
 .debug_abbrev  0x0000000000002be2      0x14a build/stm32f7xx_it.o
 .debug_abbrev  0x0000000000002d2c      0x110 build/system_stm32f7xx.o
 .debug_abbrev  0x0000000000002e3c      0x16c build/syscalls.o
 .debug_abbrev  0x0000000000002fa8       0xb1 build/otm8009a.o
 .debug_abbrev  0x0000000000003059      0x268 build/stm32f769i_discovery.o
 .debug_abbrev  0x00000000000032c1      0x282 build/stm32f769i_discovery_lcd.o
 .debug_abbrev  0x0000000000003543      0x1d8 build/stm32f769i_discovery_sdram.o
 .debug_abbrev  0x000000000000371b       0x12 build/startup_stm32f769xx.o

.debug_loc      0x0000000000000000     0xd5f9
 .debug_loc     0x0000000000000000      0x68c build/stm32f7xx_hal.o
 .debug_loc     0x000000000000068c      0x9f4 build/stm32f7xx_hal_cortex.o
 .debug_loc     0x0000000000001080      0x510 build/stm32f7xx_hal_dma.o
 .debug_loc     0x0000000000001590      0xa3a build/stm32f7xx_hal_dma2d.o
 .debug_loc     0x0000000000001fca      0xefc build/stm32f7xx_hal_dsi.o
 .debug_loc     0x0000000000002ec6      0x2d4 build/stm32f7xx_hal_gpio.o
 .debug_loc     0x000000000000319a      0xdac build/stm32f7xx_hal_ltdc.o
 .debug_loc     0x0000000000003f46       0xb8 build/stm32f7xx_hal_ltdc_ex.o
 .debug_loc     0x0000000000003ffe      0x3bc build/stm32f7xx_hal_pwr_ex.o
 .debug_loc     0x00000000000043ba      0x426 build/stm32f7xx_hal_rcc.o
 .debug_loc     0x00000000000047e0      0x10c build/stm32f7xx_hal_rcc_ex.o
 .debug_loc     0x00000000000048ec      0x7c0 build/stm32f7xx_hal_sdram.o
 .debug_loc     0x00000000000050ac     0x2348 build/stm32f7xx_hal_tim.o
 .debug_loc     0x00000000000073f4      0xe80 build/stm32f7xx_hal_tim_ex.o
 .debug_loc     0x0000000000008274      0x7d0 build/stm32f7xx_ll_fmc.o
 .debug_loc     0x0000000000008a44      0x688 build/stm32f7xx_hal_rtc.o
 .debug_loc     0x00000000000090cc      0x1cc build/list.o
 .debug_loc     0x0000000000009298      0x2e8 build/port.o
 .debug_loc     0x0000000000009580      0x224 build/heap_4.o
 .debug_loc     0x00000000000097a4     0x112a build/tasks.o
 .debug_loc     0x000000000000a8ce      0x258 build/lcd_log.o
 .debug_loc     0x000000000000ab26      0x310 build/main.o
 .debug_loc     0x000000000000ae36       0xe4 build/stm32f7xx_hal_msp.o
 .debug_loc     0x000000000000af1a       0xd8 build/stm32f7xx_hal_timebase_tim.o
 .debug_loc     0x000000000000aff2      0x190 build/stm32f7xx_it.o
 .debug_loc     0x000000000000b182       0xa0 build/system_stm32f7xx.o
 .debug_loc     0x000000000000b222      0x664 build/syscalls.o
 .debug_loc     0x000000000000b886       0xac build/otm8009a.o
 .debug_loc     0x000000000000b932      0xa48 build/stm32f769i_discovery.o
 .debug_loc     0x000000000000c37a      0xfa5 build/stm32f769i_discovery_lcd.o
 .debug_loc     0x000000000000d31f      0x2da build/stm32f769i_discovery_sdram.o

.debug_aranges  0x0000000000000000     0x1820
 .debug_aranges
                0x0000000000000000       0xe0 build/stm32f7xx_hal.o
 .debug_aranges
                0x00000000000000e0      0x118 build/stm32f7xx_hal_cortex.o
 .debug_aranges
                0x00000000000001f8       0x90 build/stm32f7xx_hal_dma.o
 .debug_aranges
                0x0000000000000288      0x108 build/stm32f7xx_hal_dma2d.o
 .debug_aranges
                0x0000000000000390      0x170 build/stm32f7xx_hal_dsi.o
 .debug_aranges
                0x0000000000000500       0x58 build/stm32f7xx_hal_gpio.o
 .debug_aranges
                0x0000000000000558      0x158 build/stm32f7xx_hal_ltdc.o
 .debug_aranges
                0x00000000000006b0       0x28 build/stm32f7xx_hal_ltdc_ex.o
 .debug_aranges
                0x00000000000006d8       0x80 build/stm32f7xx_hal_pwr_ex.o
 .debug_aranges
                0x0000000000000758       0x88 build/stm32f7xx_hal_rcc.o
 .debug_aranges
                0x00000000000007e0       0x30 build/stm32f7xx_hal_rcc_ex.o
 .debug_aranges
                0x0000000000000810       0xd0 build/stm32f7xx_hal_sdram.o
 .debug_aranges
                0x00000000000008e0      0x368 build/stm32f7xx_hal_tim.o
 .debug_aranges
                0x0000000000000c48      0x178 build/stm32f7xx_hal_tim_ex.o
 .debug_aranges
                0x0000000000000dc0       0xc8 build/stm32f7xx_ll_fmc.o
 .debug_aranges
                0x0000000000000e88       0xb8 build/stm32f7xx_hal_rtc.o
 .debug_aranges
                0x0000000000000f40       0x40 build/list.o
 .debug_aranges
                0x0000000000000f80       0x80 build/port.o
 .debug_aranges
                0x0000000000001000       0x50 build/heap_4.o
 .debug_aranges
                0x0000000000001050      0x1c8 build/tasks.o
 .debug_aranges
                0x0000000000001218       0x60 build/lcd_log.o
 .debug_aranges
                0x0000000000001278       0x78 build/main.o
 .debug_aranges
                0x00000000000012f0       0x30 build/stm32f7xx_hal_msp.o
 .debug_aranges
                0x0000000000001320       0x30 build/stm32f7xx_hal_timebase_tim.o
 .debug_aranges
                0x0000000000001350       0x58 build/stm32f7xx_it.o
 .debug_aranges
                0x00000000000013a8       0x28 build/system_stm32f7xx.o
 .debug_aranges
                0x00000000000013d0       0xb8 build/syscalls.o
 .debug_aranges
                0x0000000000001488       0x28 build/otm8009a.o
 .debug_aranges
                0x00000000000014b0      0x130 build/stm32f769i_discovery.o
 .debug_aranges
                0x00000000000015e0      0x1b0 build/stm32f769i_discovery_lcd.o
 .debug_aranges
                0x0000000000001790       0x68 build/stm32f769i_discovery_sdram.o
 .debug_aranges
                0x00000000000017f8       0x28 build/startup_stm32f769xx.o

.debug_ranges   0x0000000000000000     0x1628
 .debug_ranges  0x0000000000000000       0xd0 build/stm32f7xx_hal.o
 .debug_ranges  0x00000000000000d0      0x108 build/stm32f7xx_hal_cortex.o
 .debug_ranges  0x00000000000001d8       0x80 build/stm32f7xx_hal_dma.o
 .debug_ranges  0x0000000000000258       0xf8 build/stm32f7xx_hal_dma2d.o
 .debug_ranges  0x0000000000000350      0x160 build/stm32f7xx_hal_dsi.o
 .debug_ranges  0x00000000000004b0       0x48 build/stm32f7xx_hal_gpio.o
 .debug_ranges  0x00000000000004f8      0x148 build/stm32f7xx_hal_ltdc.o
 .debug_ranges  0x0000000000000640       0x18 build/stm32f7xx_hal_ltdc_ex.o
 .debug_ranges  0x0000000000000658       0x70 build/stm32f7xx_hal_pwr_ex.o
 .debug_ranges  0x00000000000006c8       0x78 build/stm32f7xx_hal_rcc.o
 .debug_ranges  0x0000000000000740       0x20 build/stm32f7xx_hal_rcc_ex.o
 .debug_ranges  0x0000000000000760       0xc0 build/stm32f7xx_hal_sdram.o
 .debug_ranges  0x0000000000000820      0x358 build/stm32f7xx_hal_tim.o
 .debug_ranges  0x0000000000000b78      0x168 build/stm32f7xx_hal_tim_ex.o
 .debug_ranges  0x0000000000000ce0       0xb8 build/stm32f7xx_ll_fmc.o
 .debug_ranges  0x0000000000000d98       0xa8 build/stm32f7xx_hal_rtc.o
 .debug_ranges  0x0000000000000e40       0x30 build/list.o
 .debug_ranges  0x0000000000000e70       0x70 build/port.o
 .debug_ranges  0x0000000000000ee0       0x40 build/heap_4.o
 .debug_ranges  0x0000000000000f20      0x1b8 build/tasks.o
 .debug_ranges  0x00000000000010d8       0x50 build/lcd_log.o
 .debug_ranges  0x0000000000001128       0x68 build/main.o
 .debug_ranges  0x0000000000001190       0x20 build/stm32f7xx_hal_msp.o
 .debug_ranges  0x00000000000011b0       0x20 build/stm32f7xx_hal_timebase_tim.o
 .debug_ranges  0x00000000000011d0       0x48 build/stm32f7xx_it.o
 .debug_ranges  0x0000000000001218       0x18 build/system_stm32f7xx.o
 .debug_ranges  0x0000000000001230       0xa8 build/syscalls.o
 .debug_ranges  0x00000000000012d8       0x18 build/otm8009a.o
 .debug_ranges  0x00000000000012f0      0x120 build/stm32f769i_discovery.o
 .debug_ranges  0x0000000000001410      0x1a0 build/stm32f769i_discovery_lcd.o
 .debug_ranges  0x00000000000015b0       0x58 build/stm32f769i_discovery_sdram.o
 .debug_ranges  0x0000000000001608       0x20 build/startup_stm32f769xx.o

.debug_line     0x0000000000000000     0xa257
 .debug_line    0x0000000000000000      0x353 build/stm32f7xx_hal.o
 .debug_line    0x0000000000000353      0x4a3 build/stm32f7xx_hal_cortex.o
 .debug_line    0x00000000000007f6      0x46c build/stm32f7xx_hal_dma.o
 .debug_line    0x0000000000000c62      0x82f build/stm32f7xx_hal_dma2d.o
 .debug_line    0x0000000000001491      0xbd3 build/stm32f7xx_hal_dsi.o
 .debug_line    0x0000000000002064      0x39c build/stm32f7xx_hal_gpio.o
 .debug_line    0x0000000000002400      0xa6b build/stm32f7xx_hal_ltdc.o
 .debug_line    0x0000000000002e6b      0x260 build/stm32f7xx_hal_ltdc_ex.o
 .debug_line    0x00000000000030cb      0x2dd build/stm32f7xx_hal_pwr_ex.o
 .debug_line    0x00000000000033a8      0x51d build/stm32f7xx_hal_rcc.o
 .debug_line    0x00000000000038c5      0x606 build/stm32f7xx_hal_rcc_ex.o
 .debug_line    0x0000000000003ecb      0x510 build/stm32f7xx_hal_sdram.o
 .debug_line    0x00000000000043db     0x139d build/stm32f7xx_hal_tim.o
 .debug_line    0x0000000000005778      0x933 build/stm32f7xx_hal_tim_ex.o
 .debug_line    0x00000000000060ab      0x44c build/stm32f7xx_ll_fmc.o
 .debug_line    0x00000000000064f7      0x531 build/stm32f7xx_hal_rtc.o
 .debug_line    0x0000000000006a28      0x19e build/list.o
 .debug_line    0x0000000000006bc6      0x319 build/port.o
 .debug_line    0x0000000000006edf      0x27e build/heap_4.o
 .debug_line    0x000000000000715d      0xcb7 build/tasks.o
 .debug_line    0x0000000000007e14      0x332 build/lcd_log.o
 .debug_line    0x0000000000008146      0x5b3 build/main.o
 .debug_line    0x00000000000086f9      0x199 build/stm32f7xx_hal_msp.o
 .debug_line    0x0000000000008892      0x1da build/stm32f7xx_hal_timebase_tim.o
 .debug_line    0x0000000000008a6c      0x24a build/stm32f7xx_it.o
 .debug_line    0x0000000000008cb6      0x142 build/system_stm32f7xx.o
 .debug_line    0x0000000000008df8      0x22e build/syscalls.o
 .debug_line    0x0000000000009026      0x14a build/otm8009a.o
 .debug_line    0x0000000000009170      0x49b build/stm32f769i_discovery.o
 .debug_line    0x000000000000960b      0x8ee build/stm32f769i_discovery_lcd.o
 .debug_line    0x0000000000009ef9      0x2ea build/stm32f769i_discovery_sdram.o
 .debug_line    0x000000000000a1e3       0x74 build/startup_stm32f769xx.o

.debug_str      0x0000000000000000     0x87ba
 .debug_str     0x0000000000000000      0xc05 build/stm32f7xx_hal.o
                                        0xc5f (size before relaxing)
 .debug_str     0x0000000000000c05      0x4d9 build/stm32f7xx_hal_cortex.o
                                        0xe63 (size before relaxing)
 .debug_str     0x00000000000010de      0x508 build/stm32f7xx_hal_dma.o
                                        0x79b (size before relaxing)
 .debug_str     0x00000000000015e6      0x52c build/stm32f7xx_hal_dma2d.o
                                        0x93a (size before relaxing)
 .debug_str     0x0000000000001b12      0xbf7 build/stm32f7xx_hal_dsi.o
                                       0x1013 (size before relaxing)
 .debug_str     0x0000000000002709      0x1ae build/stm32f7xx_hal_gpio.o
                                        0x52e (size before relaxing)
 .debug_str     0x00000000000028b7      0x6c9 build/stm32f7xx_hal_ltdc.o
                                        0x9d5 (size before relaxing)
 .debug_str     0x0000000000002f80       0x8e build/stm32f7xx_hal_ltdc_ex.o
                                        0x7c1 (size before relaxing)
 .debug_str     0x000000000000300e      0x21d build/stm32f7xx_hal_pwr_ex.o
                                        0x67d (size before relaxing)
 .debug_str     0x000000000000322b      0x2dd build/stm32f7xx_hal_rcc.o
                                        0x6ed (size before relaxing)
 .debug_str     0x0000000000003508      0x398 build/stm32f7xx_hal_rcc_ex.o
                                        0x6fe (size before relaxing)
 .debug_str     0x00000000000038a0      0x4d9 build/stm32f7xx_hal_sdram.o
                                        0x983 (size before relaxing)
 .debug_str     0x0000000000003d79      0xedf build/stm32f7xx_hal_tim.o
                                       0x1391 (size before relaxing)
 .debug_str     0x0000000000004c58      0x647 build/stm32f7xx_hal_tim_ex.o
                                        0xe59 (size before relaxing)
 .debug_str     0x000000000000529f      0x4b1 build/stm32f7xx_ll_fmc.o
                                        0x8c1 (size before relaxing)
 .debug_str     0x0000000000005750      0x4da build/stm32f7xx_hal_rtc.o
                                        0x783 (size before relaxing)
 .debug_str     0x0000000000005c2a      0x158 build/list.o
                                        0x2fe (size before relaxing)
 .debug_str     0x0000000000005d82      0x275 build/port.o
                                        0x454 (size before relaxing)
 .debug_str     0x0000000000005ff7      0x1f1 build/heap_4.o
                                        0x3c8 (size before relaxing)
 .debug_str     0x00000000000061e8      0xbe0 build/tasks.o
                                        0xf24 (size before relaxing)
 .debug_str     0x0000000000006dc8      0x240 build/lcd_log.o
                                        0x46a (size before relaxing)
 .debug_str     0x0000000000007008      0x100 build/main.o
                                       0x1893 (size before relaxing)
 .debug_str     0x0000000000007108       0x18 build/stm32f7xx_hal_msp.o
                                        0xbbf (size before relaxing)
 .debug_str     0x0000000000007120       0x5f build/stm32f7xx_hal_timebase_tim.o
                                        0xe81 (size before relaxing)
 .debug_str     0x000000000000717f       0xa1 build/stm32f7xx_it.o
                                        0x69c (size before relaxing)
 .debug_str     0x0000000000007220       0x42 build/system_stm32f7xx.o
                                        0x481 (size before relaxing)
 .debug_str     0x0000000000007262      0x21f build/syscalls.o
                                        0x3d9 (size before relaxing)
 .debug_str     0x0000000000007481      0x499 build/otm8009a.o
                                        0x64d (size before relaxing)
 .debug_str     0x000000000000791a      0x5e6 build/stm32f769i_discovery.o
                                       0x1297 (size before relaxing)
 .debug_str     0x0000000000007f00      0x74c build/stm32f769i_discovery_lcd.o
                                       0x1e55 (size before relaxing)
 .debug_str     0x000000000000864c      0x16e build/stm32f769i_discovery_sdram.o
                                       0x1024 (size before relaxing)

.comment        0x0000000000000000       0x70
 .comment       0x0000000000000000       0x70 build/stm32f7xx_hal.o
                                         0x71 (size before relaxing)
 .comment       0x0000000000000000       0x71 build/stm32f7xx_hal_cortex.o
 .comment       0x0000000000000000       0x71 build/stm32f7xx_hal_dma.o
 .comment       0x0000000000000000       0x71 build/stm32f7xx_hal_dma2d.o
 .comment       0x0000000000000000       0x71 build/stm32f7xx_hal_dsi.o
 .comment       0x0000000000000000       0x71 build/stm32f7xx_hal_gpio.o
 .comment       0x0000000000000000       0x71 build/stm32f7xx_hal_ltdc.o
 .comment       0x0000000000000000       0x71 build/stm32f7xx_hal_ltdc_ex.o
 .comment       0x0000000000000000       0x71 build/stm32f7xx_hal_pwr_ex.o
 .comment       0x0000000000000000       0x71 build/stm32f7xx_hal_rcc.o
 .comment       0x0000000000000000       0x71 build/stm32f7xx_hal_rcc_ex.o
 .comment       0x0000000000000000       0x71 build/stm32f7xx_hal_sdram.o
 .comment       0x0000000000000000       0x71 build/stm32f7xx_hal_tim.o
 .comment       0x0000000000000000       0x71 build/stm32f7xx_hal_tim_ex.o
 .comment       0x0000000000000000       0x71 build/stm32f7xx_ll_fmc.o
 .comment       0x0000000000000000       0x71 build/stm32f7xx_hal_rtc.o
 .comment       0x0000000000000000       0x71 build/list.o
 .comment       0x0000000000000000       0x71 build/port.o
 .comment       0x0000000000000000       0x71 build/heap_4.o
 .comment       0x0000000000000000       0x71 build/tasks.o
 .comment       0x0000000000000000       0x71 build/lcd_log.o
 .comment       0x0000000000000000       0x71 build/main.o
 .comment       0x0000000000000000       0x71 build/stm32f7xx_hal_msp.o
 .comment       0x0000000000000000       0x71 build/stm32f7xx_hal_timebase_tim.o
 .comment       0x0000000000000000       0x71 build/stm32f7xx_it.o
 .comment       0x0000000000000000       0x71 build/system_stm32f7xx.o
 .comment       0x0000000000000000       0x71 build/syscalls.o
 .comment       0x0000000000000000       0x71 build/otm8009a.o
 .comment       0x0000000000000000       0x71 build/stm32f769i_discovery.o
 .comment       0x0000000000000000       0x71 build/stm32f769i_discovery_lcd.o
 .comment       0x0000000000000000       0x71 build/stm32f769i_discovery_sdram.o

.debug_frame    0x0000000000000000     0x6edc
 .debug_frame   0x0000000000000000      0x38c build/stm32f7xx_hal.o
 .debug_frame   0x000000000000038c      0x4d4 build/stm32f7xx_hal_cortex.o
 .debug_frame   0x0000000000000860      0x268 build/stm32f7xx_hal_dma.o
 .debug_frame   0x0000000000000ac8      0x4d8 build/stm32f7xx_hal_dma2d.o
 .debug_frame   0x0000000000000fa0      0x6d8 build/stm32f7xx_hal_dsi.o
 .debug_frame   0x0000000000001678      0x154 build/stm32f7xx_hal_gpio.o
 .debug_frame   0x00000000000017cc      0x65c build/stm32f7xx_hal_ltdc.o
 .debug_frame   0x0000000000001e28       0x60 build/stm32f7xx_hal_ltdc_ex.o
 .debug_frame   0x0000000000001e88      0x1fc build/stm32f7xx_hal_pwr_ex.o
 .debug_frame   0x0000000000002084      0x220 build/stm32f7xx_hal_rcc.o
 .debug_frame   0x00000000000022a4       0x94 build/stm32f7xx_hal_rcc_ex.o
 .debug_frame   0x0000000000002338      0x3a8 build/stm32f7xx_hal_sdram.o
 .debug_frame   0x00000000000026e0     0x10bc build/stm32f7xx_hal_tim.o
 .debug_frame   0x000000000000379c      0x6fc build/stm32f7xx_hal_tim_ex.o
 .debug_frame   0x0000000000003e98      0x380 build/stm32f7xx_ll_fmc.o
 .debug_frame   0x0000000000004218      0x340 build/stm32f7xx_hal_rtc.o
 .debug_frame   0x0000000000004558       0xd8 build/list.o
 .debug_frame   0x0000000000004630      0x1a8 build/port.o
 .debug_frame   0x00000000000047d8      0x11c build/heap_4.o
 .debug_frame   0x00000000000048f4      0x868 build/tasks.o
 .debug_frame   0x000000000000515c      0x154 build/lcd_log.o
 .debug_frame   0x00000000000052b0      0x1b0 build/main.o
 .debug_frame   0x0000000000005460       0x7c build/stm32f7xx_hal_msp.o
 .debug_frame   0x00000000000054dc       0x80 build/stm32f7xx_hal_timebase_tim.o
 .debug_frame   0x000000000000555c      0x100 build/stm32f7xx_it.o
 .debug_frame   0x000000000000565c       0x5c build/system_stm32f7xx.o
 .debug_frame   0x00000000000056b8      0x328 build/syscalls.o
 .debug_frame   0x00000000000059e0       0x60 build/otm8009a.o
 .debug_frame   0x0000000000005a40      0x560 build/stm32f769i_discovery.o
 .debug_frame   0x0000000000005fa0      0x828 build/stm32f769i_discovery_lcd.o
 .debug_frame   0x00000000000067c8      0x188 build/stm32f769i_discovery_sdram.o
 .debug_frame   0x0000000000006950       0x20 /usr/bin/../lib/gcc/arm-none-eabi/4.9.3/../../../../arm-none-eabi/lib/cortex-m7/fpu/fpv5-sp-d16/libc_nano.a(lib_a-errno.o)
 .debug_frame   0x0000000000006970       0x2c /usr/bin/../lib/gcc/arm-none-eabi/4.9.3/../../../../arm-none-eabi/lib/cortex-m7/fpu/fpv5-sp-d16/libc_nano.a(lib_a-init.o)
 .debug_frame   0x000000000000699c       0x20 /usr/bin/../lib/gcc/arm-none-eabi/4.9.3/../../../../arm-none-eabi/lib/cortex-m7/fpu/fpv5-sp-d16/libc_nano.a(lib_a-memset.o)
 .debug_frame   0x00000000000069bc       0x3c /usr/bin/../lib/gcc/arm-none-eabi/4.9.3/../../../../arm-none-eabi/lib/cortex-m7/fpu/fpv5-sp-d16/libc_nano.a(lib_a-puts.o)
 .debug_frame   0x00000000000069f8       0x3c /usr/bin/../lib/gcc/arm-none-eabi/4.9.3/../../../../arm-none-eabi/lib/cortex-m7/fpu/fpv5-sp-d16/libc_nano.a(lib_a-wbuf.o)
 .debug_frame   0x0000000000006a34       0x2c /usr/bin/../lib/gcc/arm-none-eabi/4.9.3/../../../../arm-none-eabi/lib/cortex-m7/fpu/fpv5-sp-d16/libc_nano.a(lib_a-wsetup.o)
 .debug_frame   0x0000000000006a60       0x68 /usr/bin/../lib/gcc/arm-none-eabi/4.9.3/../../../../arm-none-eabi/lib/cortex-m7/fpu/fpv5-sp-d16/libc_nano.a(lib_a-fflush.o)
 .debug_frame   0x0000000000006ac8      0x11c /usr/bin/../lib/gcc/arm-none-eabi/4.9.3/../../../../arm-none-eabi/lib/cortex-m7/fpu/fpv5-sp-d16/libc_nano.a(lib_a-findfp.o)
 .debug_frame   0x0000000000006be4       0x54 /usr/bin/../lib/gcc/arm-none-eabi/4.9.3/../../../../arm-none-eabi/lib/cortex-m7/fpu/fpv5-sp-d16/libc_nano.a(lib_a-fwalk.o)
 .debug_frame   0x0000000000006c38       0x34 /usr/bin/../lib/gcc/arm-none-eabi/4.9.3/../../../../arm-none-eabi/lib/cortex-m7/fpu/fpv5-sp-d16/libc_nano.a(lib_a-makebuf.o)
 .debug_frame   0x0000000000006c6c       0x2c /usr/bin/../lib/gcc/arm-none-eabi/4.9.3/../../../../arm-none-eabi/lib/cortex-m7/fpu/fpv5-sp-d16/libc_nano.a(lib_a-nano-freer.o)
 .debug_frame   0x0000000000006c98       0x2c /usr/bin/../lib/gcc/arm-none-eabi/4.9.3/../../../../arm-none-eabi/lib/cortex-m7/fpu/fpv5-sp-d16/libc_nano.a(lib_a-nano-mallocr.o)
 .debug_frame   0x0000000000006cc4       0x2c /usr/bin/../lib/gcc/arm-none-eabi/4.9.3/../../../../arm-none-eabi/lib/cortex-m7/fpu/fpv5-sp-d16/libc_nano.a(lib_a-sbrkr.o)
 .debug_frame   0x0000000000006cf0       0x88 /usr/bin/../lib/gcc/arm-none-eabi/4.9.3/../../../../arm-none-eabi/lib/cortex-m7/fpu/fpv5-sp-d16/libc_nano.a(lib_a-stdio.o)
 .debug_frame   0x0000000000006d78       0x2c /usr/bin/../lib/gcc/arm-none-eabi/4.9.3/../../../../arm-none-eabi/lib/cortex-m7/fpu/fpv5-sp-d16/libc_nano.a(lib_a-writer.o)
 .debug_frame   0x0000000000006da4       0x2c /usr/bin/../lib/gcc/arm-none-eabi/4.9.3/../../../../arm-none-eabi/lib/cortex-m7/fpu/fpv5-sp-d16/libc_nano.a(lib_a-closer.o)
 .debug_frame   0x0000000000006dd0       0x2c /usr/bin/../lib/gcc/arm-none-eabi/4.9.3/../../../../arm-none-eabi/lib/cortex-m7/fpu/fpv5-sp-d16/libc_nano.a(lib_a-fstatr.o)
 .debug_frame   0x0000000000006dfc       0x2c /usr/bin/../lib/gcc/arm-none-eabi/4.9.3/../../../../arm-none-eabi/lib/cortex-m7/fpu/fpv5-sp-d16/libc_nano.a(lib_a-isattyr.o)
 .debug_frame   0x0000000000006e28       0x2c /usr/bin/../lib/gcc/arm-none-eabi/4.9.3/../../../../arm-none-eabi/lib/cortex-m7/fpu/fpv5-sp-d16/libc_nano.a(lib_a-lseekr.o)
 .debug_frame   0x0000000000006e54       0x2c /usr/bin/../lib/gcc/arm-none-eabi/4.9.3/../../../../arm-none-eabi/lib/cortex-m7/fpu/fpv5-sp-d16/libc_nano.a(lib_a-readr.o)
 .debug_frame   0x0000000000006e80       0x5c /usr/bin/../lib/gcc/arm-none-eabi/4.9.3/../../../../arm-none-eabi/lib/cortex-m7/fpu/fpv5-sp-d16/libc_nano.a(lib_a-reent.o)

Cross Reference Table

Symbol                                            File
ADC_IRQHandler                                    build/startup_stm32f769xx.o
AHBPrescTable                                     build/system_stm32f7xx.o
                                                  build/stm32f7xx_hal_rcc.o
APBPrescTable                                     build/system_stm32f7xx.o
                                                  build/stm32f7xx_hal_rcc.o
AUDIO_IO_DeInit                                   build/stm32f769i_discovery.o
AUDIO_IO_Delay                                    build/stm32f769i_discovery.o
AUDIO_IO_Init                                     build/stm32f769i_discovery.o
AUDIO_IO_Read                                     build/stm32f769i_discovery.o
AUDIO_IO_Write                                    build/stm32f769i_discovery.o
BSP_GetVersion                                    build/stm32f769i_discovery.o
BSP_LCD_Clear                                     build/stm32f769i_discovery_lcd.o
                                                  build/lcd_log.o
BSP_LCD_ClearStringLine                           build/stm32f769i_discovery_lcd.o
                                                  build/lcd_log.o
BSP_LCD_DisplayChar                               build/stm32f769i_discovery_lcd.o
BSP_LCD_DisplayOff                                build/stm32f769i_discovery_lcd.o
BSP_LCD_DisplayOn                                 build/stm32f769i_discovery_lcd.o
BSP_LCD_DisplayStringAt                           build/stm32f769i_discovery_lcd.o
                                                  build/lcd_log.o
BSP_LCD_DisplayStringAtLine                       build/stm32f769i_discovery_lcd.o
                                                  build/lcd_log.o
BSP_LCD_DrawBitmap                                build/stm32f769i_discovery_lcd.o
BSP_LCD_DrawCircle                                build/stm32f769i_discovery_lcd.o
BSP_LCD_DrawEllipse                               build/stm32f769i_discovery_lcd.o
BSP_LCD_DrawHLine                                 build/stm32f769i_discovery_lcd.o
BSP_LCD_DrawLine                                  build/stm32f769i_discovery_lcd.o
BSP_LCD_DrawPixel                                 build/stm32f769i_discovery_lcd.o
BSP_LCD_DrawPolygon                               build/stm32f769i_discovery_lcd.o
BSP_LCD_DrawRect                                  build/stm32f769i_discovery_lcd.o
BSP_LCD_DrawVLine                                 build/stm32f769i_discovery_lcd.o
BSP_LCD_FillCircle                                build/stm32f769i_discovery_lcd.o
BSP_LCD_FillEllipse                               build/stm32f769i_discovery_lcd.o
BSP_LCD_FillPolygon                               build/stm32f769i_discovery_lcd.o
BSP_LCD_FillRect                                  build/stm32f769i_discovery_lcd.o
                                                  build/lcd_log.o
BSP_LCD_GetBackColor                              build/stm32f769i_discovery_lcd.o
BSP_LCD_GetFont                                   build/stm32f769i_discovery_lcd.o
                                                  build/lcd_log.o
BSP_LCD_GetTextColor                              build/stm32f769i_discovery_lcd.o
BSP_LCD_GetXSize                                  build/stm32f769i_discovery_lcd.o
                                                  build/lcd_log.o
BSP_LCD_GetYSize                                  build/stm32f769i_discovery_lcd.o
                                                  build/lcd_log.o
BSP_LCD_Init                                      build/stm32f769i_discovery_lcd.o
                                                  build/main.o
BSP_LCD_InitEx                                    build/stm32f769i_discovery_lcd.o
BSP_LCD_LayerDefaultInit                          build/stm32f769i_discovery_lcd.o
                                                  build/main.o
BSP_LCD_MspDeInit                                 build/stm32f769i_discovery_lcd.o
BSP_LCD_MspInit                                   build/stm32f769i_discovery_lcd.o
BSP_LCD_ReadPixel                                 build/stm32f769i_discovery_lcd.o
BSP_LCD_Reset                                     build/stm32f769i_discovery_lcd.o
BSP_LCD_ResetColorKeying                          build/stm32f769i_discovery_lcd.o
BSP_LCD_SelectLayer                               build/stm32f769i_discovery_lcd.o
                                                  build/main.o
BSP_LCD_SetBackColor                              build/stm32f769i_discovery_lcd.o
                                                  build/lcd_log.o
BSP_LCD_SetBrightness                             build/stm32f769i_discovery_lcd.o
BSP_LCD_SetColorKeying                            build/stm32f769i_discovery_lcd.o
BSP_LCD_SetFont                                   build/stm32f769i_discovery_lcd.o
                                                  build/main.o
                                                  build/lcd_log.o
BSP_LCD_SetLayerAddress                           build/stm32f769i_discovery_lcd.o
BSP_LCD_SetLayerVisible                           build/stm32f769i_discovery_lcd.o
BSP_LCD_SetLayerWindow                            build/stm32f769i_discovery_lcd.o
BSP_LCD_SetTextColor                              build/stm32f769i_discovery_lcd.o
                                                  build/lcd_log.o
BSP_LCD_SetTransparency                           build/stm32f769i_discovery_lcd.o
BSP_LCD_SetXSize                                  build/stm32f769i_discovery_lcd.o
BSP_LCD_SetYSize                                  build/stm32f769i_discovery_lcd.o
BSP_LED_DeInit                                    build/stm32f769i_discovery.o
BSP_LED_Init                                      build/stm32f769i_discovery.o
                                                  build/main.o
BSP_LED_Off                                       build/stm32f769i_discovery.o
BSP_LED_On                                        build/stm32f769i_discovery.o
BSP_LED_Toggle                                    build/stm32f769i_discovery.o
                                                  build/main.o
BSP_PB_DeInit                                     build/stm32f769i_discovery.o
BSP_PB_GetState                                   build/stm32f769i_discovery.o
BSP_PB_Init                                       build/stm32f769i_discovery.o
BSP_SDRAM_DeInit                                  build/stm32f769i_discovery_sdram.o
BSP_SDRAM_Init                                    build/stm32f769i_discovery_sdram.o
                                                  build/stm32f769i_discovery_lcd.o
BSP_SDRAM_Initialization_sequence                 build/stm32f769i_discovery_sdram.o
BSP_SDRAM_MspDeInit                               build/stm32f769i_discovery_sdram.o
BSP_SDRAM_MspInit                                 build/stm32f769i_discovery_sdram.o
BSP_SDRAM_ReadData                                build/stm32f769i_discovery_sdram.o
BSP_SDRAM_ReadData_DMA                            build/stm32f769i_discovery_sdram.o
BSP_SDRAM_Sendcmd                                 build/stm32f769i_discovery_sdram.o
BSP_SDRAM_WriteData                               build/stm32f769i_discovery_sdram.o
BSP_SDRAM_WriteData_DMA                           build/stm32f769i_discovery_sdram.o
BUTTON_IRQn                                       build/stm32f769i_discovery.o
BUTTON_PIN                                        build/stm32f769i_discovery.o
BUTTON_PORT                                       build/stm32f769i_discovery.o
BusFault_Handler                                  build/stm32f7xx_it.o
CAN1_RX0_IRQHandler                               build/startup_stm32f769xx.o
CAN1_RX1_IRQHandler                               build/startup_stm32f769xx.o
CAN1_SCE_IRQHandler                               build/startup_stm32f769xx.o
CAN1_TX_IRQHandler                                build/startup_stm32f769xx.o
CAN2_RX0_IRQHandler                               build/startup_stm32f769xx.o
CAN2_RX1_IRQHandler                               build/startup_stm32f769xx.o
CAN2_SCE_IRQHandler                               build/startup_stm32f769xx.o
CAN2_TX_IRQHandler                                build/startup_stm32f769xx.o
CAN3_RX0_IRQHandler                               build/startup_stm32f769xx.o
CAN3_RX1_IRQHandler                               build/startup_stm32f769xx.o
CAN3_SCE_IRQHandler                               build/startup_stm32f769xx.o
CAN3_TX_IRQHandler                                build/startup_stm32f769xx.o
CEC_IRQHandler                                    build/startup_stm32f769xx.o
DCMI_IRQHandler                                   build/startup_stm32f769xx.o
DFSDM1_FLT0_IRQHandler                            build/startup_stm32f769xx.o
DFSDM1_FLT1_IRQHandler                            build/startup_stm32f769xx.o
DFSDM1_FLT2_IRQHandler                            build/startup_stm32f769xx.o
DFSDM1_FLT3_IRQHandler                            build/startup_stm32f769xx.o
DMA1_Stream0_IRQHandler                           build/startup_stm32f769xx.o
DMA1_Stream1_IRQHandler                           build/startup_stm32f769xx.o
DMA1_Stream2_IRQHandler                           build/startup_stm32f769xx.o
DMA1_Stream3_IRQHandler                           build/startup_stm32f769xx.o
DMA1_Stream4_IRQHandler                           build/startup_stm32f769xx.o
DMA1_Stream5_IRQHandler                           build/startup_stm32f769xx.o
DMA1_Stream6_IRQHandler                           build/startup_stm32f769xx.o
DMA1_Stream7_IRQHandler                           build/startup_stm32f769xx.o
DMA2D_IRQHandler                                  build/startup_stm32f769xx.o
DMA2_Stream0_IRQHandler                           build/startup_stm32f769xx.o
DMA2_Stream1_IRQHandler                           build/startup_stm32f769xx.o
DMA2_Stream2_IRQHandler                           build/startup_stm32f769xx.o
DMA2_Stream3_IRQHandler                           build/startup_stm32f769xx.o
DMA2_Stream4_IRQHandler                           build/startup_stm32f769xx.o
DMA2_Stream5_IRQHandler                           build/startup_stm32f769xx.o
DMA2_Stream6_IRQHandler                           build/startup_stm32f769xx.o
DMA2_Stream7_IRQHandler                           build/startup_stm32f769xx.o
DSI_IO_WriteCmd                                   build/stm32f769i_discovery_lcd.o
                                                  build/otm8009a.o
DSI_IRQHandler                                    build/startup_stm32f769xx.o
DebugMon_Handler                                  build/stm32f7xx_it.o
Default_Handler                                   build/startup_stm32f769xx.o
EEPROM_IO_Init                                    build/stm32f769i_discovery.o
EEPROM_IO_IsDeviceReady                           build/stm32f769i_discovery.o
EEPROM_IO_ReadData                                build/stm32f769i_discovery.o
EEPROM_IO_WriteData                               build/stm32f769i_discovery.o
ETH_IRQHandler                                    build/startup_stm32f769xx.o
ETH_WKUP_IRQHandler                               build/startup_stm32f769xx.o
EXTI0_IRQHandler                                  build/startup_stm32f769xx.o
EXTI15_10_IRQHandler                              build/startup_stm32f769xx.o
EXTI1_IRQHandler                                  build/startup_stm32f769xx.o
EXTI2_IRQHandler                                  build/startup_stm32f769xx.o
EXTI3_IRQHandler                                  build/startup_stm32f769xx.o
EXTI4_IRQHandler                                  build/startup_stm32f769xx.o
EXTI9_5_IRQHandler                                build/startup_stm32f769xx.o
Error_Handler                                     build/main.o
FLASH_Erase_Sector                                build/stm32f7xx_hal_flash_ex.o
                                                  build/stm32f7xx_hal_flash.o
FLASH_IRQHandler                                  build/startup_stm32f769xx.o
FLASH_WaitForLastOperation                        build/stm32f7xx_hal_flash.o
                                                  build/stm32f7xx_hal_flash_ex.o
FMC_IRQHandler                                    build/startup_stm32f769xx.o
FMC_NAND_AttributeSpace_Timing_Init               build/stm32f7xx_ll_fmc.o
FMC_NAND_CommonSpace_Timing_Init                  build/stm32f7xx_ll_fmc.o
FMC_NAND_DeInit                                   build/stm32f7xx_ll_fmc.o
FMC_NAND_ECC_Disable                              build/stm32f7xx_ll_fmc.o
FMC_NAND_ECC_Enable                               build/stm32f7xx_ll_fmc.o
FMC_NAND_GetECC                                   build/stm32f7xx_ll_fmc.o
FMC_NAND_Init                                     build/stm32f7xx_ll_fmc.o
FMC_NORSRAM_DeInit                                build/stm32f7xx_ll_fmc.o
FMC_NORSRAM_Extended_Timing_Init                  build/stm32f7xx_ll_fmc.o
FMC_NORSRAM_Init                                  build/stm32f7xx_ll_fmc.o
FMC_NORSRAM_Timing_Init                           build/stm32f7xx_ll_fmc.o
FMC_NORSRAM_WriteOperation_Disable                build/stm32f7xx_ll_fmc.o
FMC_NORSRAM_WriteOperation_Enable                 build/stm32f7xx_ll_fmc.o
FMC_SDRAM_DeInit                                  build/stm32f7xx_ll_fmc.o
                                                  build/stm32f7xx_hal_sdram.o
FMC_SDRAM_GetModeStatus                           build/stm32f7xx_ll_fmc.o
                                                  build/stm32f7xx_hal_sdram.o
FMC_SDRAM_Init                                    build/stm32f7xx_ll_fmc.o
                                                  build/stm32f7xx_hal_sdram.o
FMC_SDRAM_ProgramRefreshRate                      build/stm32f7xx_ll_fmc.o
                                                  build/stm32f7xx_hal_sdram.o
FMC_SDRAM_SendCommand                             build/stm32f7xx_ll_fmc.o
                                                  build/stm32f7xx_hal_sdram.o
FMC_SDRAM_SetAutoRefreshNumber                    build/stm32f7xx_ll_fmc.o
                                                  build/stm32f7xx_hal_sdram.o
FMC_SDRAM_Timing_Init                             build/stm32f7xx_ll_fmc.o
                                                  build/stm32f7xx_hal_sdram.o
FMC_SDRAM_WriteProtection_Disable                 build/stm32f7xx_ll_fmc.o
                                                  build/stm32f7xx_hal_sdram.o
FMC_SDRAM_WriteProtection_Enable                  build/stm32f7xx_ll_fmc.o
                                                  build/stm32f7xx_hal_sdram.o
FPU_IRQHandler                                    build/startup_stm32f769xx.o
Font12                                            build/stm32f769i_discovery_lcd.o
                                                  build/lcd_log.o
Font12_Table                                      build/stm32f769i_discovery_lcd.o
Font16                                            build/stm32f769i_discovery_lcd.o
                                                  build/lcd_log.o
Font16_Table                                      build/stm32f769i_discovery_lcd.o
Font20                                            build/stm32f769i_discovery_lcd.o
Font20_Table                                      build/stm32f769i_discovery_lcd.o
Font24                                            build/stm32f769i_discovery_lcd.o
                                                  build/main.o
Font24_Table                                      build/stm32f769i_discovery_lcd.o
Font8                                             build/stm32f769i_discovery_lcd.o
Font8_Table                                       build/stm32f769i_discovery_lcd.o
GPIO_PIN                                          build/stm32f769i_discovery.o
GPIO_PORT                                         build/stm32f769i_discovery.o
HAL_DBGMCU_DisableDBGSleepMode                    build/stm32f7xx_hal.o
HAL_DBGMCU_DisableDBGStandbyMode                  build/stm32f7xx_hal.o
HAL_DBGMCU_DisableDBGStopMode                     build/stm32f7xx_hal.o
HAL_DBGMCU_EnableDBGSleepMode                     build/stm32f7xx_hal.o
HAL_DBGMCU_EnableDBGStandbyMode                   build/stm32f7xx_hal.o
HAL_DBGMCU_EnableDBGStopMode                      build/stm32f7xx_hal.o
HAL_DMA2D_Abort                                   build/stm32f7xx_hal_dma2d.o
HAL_DMA2D_BlendingStart                           build/stm32f7xx_hal_dma2d.o
HAL_DMA2D_BlendingStart_IT                        build/stm32f7xx_hal_dma2d.o
HAL_DMA2D_CLUTLoad                                build/stm32f7xx_hal_dma2d.o
HAL_DMA2D_CLUTLoad_IT                             build/stm32f7xx_hal_dma2d.o
HAL_DMA2D_CLUTLoadingCpltCallback                 build/stm32f7xx_hal_dma2d.o
HAL_DMA2D_CLUTLoading_Abort                       build/stm32f7xx_hal_dma2d.o
HAL_DMA2D_CLUTLoading_Resume                      build/stm32f7xx_hal_dma2d.o
HAL_DMA2D_CLUTLoading_Suspend                     build/stm32f7xx_hal_dma2d.o
HAL_DMA2D_ConfigCLUT                              build/stm32f7xx_hal_dma2d.o
HAL_DMA2D_ConfigDeadTime                          build/stm32f7xx_hal_dma2d.o
HAL_DMA2D_ConfigLayer                             build/stm32f7xx_hal_dma2d.o
                                                  build/stm32f769i_discovery_lcd.o
HAL_DMA2D_DeInit                                  build/stm32f7xx_hal_dma2d.o
HAL_DMA2D_DisableDeadTime                         build/stm32f7xx_hal_dma2d.o
HAL_DMA2D_EnableCLUT                              build/stm32f7xx_hal_dma2d.o
HAL_DMA2D_EnableDeadTime                          build/stm32f7xx_hal_dma2d.o
HAL_DMA2D_GetError                                build/stm32f7xx_hal_dma2d.o
HAL_DMA2D_GetState                                build/stm32f7xx_hal_dma2d.o
HAL_DMA2D_IRQHandler                              build/stm32f7xx_hal_dma2d.o
HAL_DMA2D_Init                                    build/stm32f7xx_hal_dma2d.o
                                                  build/stm32f769i_discovery_lcd.o
HAL_DMA2D_LineEventCallback                       build/stm32f7xx_hal_dma2d.o
HAL_DMA2D_MspDeInit                               build/stm32f7xx_hal_dma2d.o
HAL_DMA2D_MspInit                                 build/stm32f7xx_hal_dma2d.o
HAL_DMA2D_PollForTransfer                         build/stm32f7xx_hal_dma2d.o
                                                  build/stm32f769i_discovery_lcd.o
HAL_DMA2D_ProgramLineEvent                        build/stm32f7xx_hal_dma2d.o
HAL_DMA2D_Resume                                  build/stm32f7xx_hal_dma2d.o
HAL_DMA2D_Start                                   build/stm32f7xx_hal_dma2d.o
                                                  build/stm32f769i_discovery_lcd.o
HAL_DMA2D_Start_IT                                build/stm32f7xx_hal_dma2d.o
HAL_DMA2D_Suspend                                 build/stm32f7xx_hal_dma2d.o
HAL_DMAEx_ChangeMemory                            build/stm32f7xx_hal_dma_ex.o
HAL_DMAEx_MultiBufferStart                        build/stm32f7xx_hal_dma_ex.o
HAL_DMAEx_MultiBufferStart_IT                     build/stm32f7xx_hal_dma_ex.o
HAL_DMA_Abort                                     build/stm32f7xx_hal_dma.o
                                                  build/stm32f7xx_hal_tim.o
HAL_DMA_Abort_IT                                  build/stm32f7xx_hal_dma.o
                                                  build/stm32f7xx_hal_i2c.o
HAL_DMA_DeInit                                    build/stm32f7xx_hal_dma.o
                                                  build/stm32f769i_discovery_sdram.o
HAL_DMA_GetError                                  build/stm32f7xx_hal_dma.o
HAL_DMA_GetState                                  build/stm32f7xx_hal_dma.o
HAL_DMA_IRQHandler                                build/stm32f7xx_hal_dma.o
HAL_DMA_Init                                      build/stm32f7xx_hal_dma.o
                                                  build/stm32f769i_discovery_sdram.o
HAL_DMA_PollForTransfer                           build/stm32f7xx_hal_dma.o
HAL_DMA_RegisterCallback                          build/stm32f7xx_hal_dma.o
HAL_DMA_Start                                     build/stm32f7xx_hal_dma.o
HAL_DMA_Start_IT                                  build/stm32f7xx_hal_dma.o
                                                  build/stm32f7xx_hal_tim_ex.o
                                                  build/stm32f7xx_hal_tim.o
                                                  build/stm32f7xx_hal_sdram.o
                                                  build/stm32f7xx_hal_i2c.o
HAL_DMA_UnRegisterCallback                        build/stm32f7xx_hal_dma.o
HAL_DSI_ColorMode                                 build/stm32f7xx_hal_dsi.o
HAL_DSI_ConfigAdaptedCommandMode                  build/stm32f7xx_hal_dsi.o
HAL_DSI_ConfigCommand                             build/stm32f7xx_hal_dsi.o
HAL_DSI_ConfigErrorMonitor                        build/stm32f7xx_hal_dsi.o
HAL_DSI_ConfigFlowControl                         build/stm32f7xx_hal_dsi.o
HAL_DSI_ConfigHostTimeouts                        build/stm32f7xx_hal_dsi.o
HAL_DSI_ConfigPhyTimer                            build/stm32f7xx_hal_dsi.o
HAL_DSI_ConfigVideoMode                           build/stm32f7xx_hal_dsi.o
                                                  build/stm32f769i_discovery_lcd.o
HAL_DSI_DeInit                                    build/stm32f7xx_hal_dsi.o
                                                  build/stm32f769i_discovery_lcd.o
HAL_DSI_EndOfRefreshCallback                      build/stm32f7xx_hal_dsi.o
HAL_DSI_EnterULPM                                 build/stm32f7xx_hal_dsi.o
HAL_DSI_EnterULPMData                             build/stm32f7xx_hal_dsi.o
HAL_DSI_ErrorCallback                             build/stm32f7xx_hal_dsi.o
HAL_DSI_ExitULPM                                  build/stm32f7xx_hal_dsi.o
HAL_DSI_ExitULPMData                              build/stm32f7xx_hal_dsi.o
HAL_DSI_ForceDataLanesInRX                        build/stm32f7xx_hal_dsi.o
HAL_DSI_ForceRXLowPower                           build/stm32f7xx_hal_dsi.o
HAL_DSI_ForceTXStopMode                           build/stm32f7xx_hal_dsi.o
HAL_DSI_GetError                                  build/stm32f7xx_hal_dsi.o
HAL_DSI_GetState                                  build/stm32f7xx_hal_dsi.o
HAL_DSI_IRQHandler                                build/stm32f7xx_hal_dsi.o
HAL_DSI_Init                                      build/stm32f7xx_hal_dsi.o
                                                  build/stm32f769i_discovery_lcd.o
HAL_DSI_LongWrite                                 build/stm32f7xx_hal_dsi.o
                                                  build/stm32f769i_discovery_lcd.o
HAL_DSI_MspDeInit                                 build/stm32f7xx_hal_dsi.o
HAL_DSI_MspInit                                   build/stm32f7xx_hal_dsi.o
HAL_DSI_PatternGeneratorStart                     build/stm32f7xx_hal_dsi.o
HAL_DSI_PatternGeneratorStop                      build/stm32f7xx_hal_dsi.o
HAL_DSI_Read                                      build/stm32f7xx_hal_dsi.o
HAL_DSI_Refresh                                   build/stm32f7xx_hal_dsi.o
HAL_DSI_SetContentionDetectionOff                 build/stm32f7xx_hal_dsi.o
HAL_DSI_SetGenericVCID                            build/stm32f7xx_hal_dsi.o
HAL_DSI_SetLanePinsConfiguration                  build/stm32f7xx_hal_dsi.o
HAL_DSI_SetLowPowerRXFilter                       build/stm32f7xx_hal_dsi.o
HAL_DSI_SetPHYTimings                             build/stm32f7xx_hal_dsi.o
HAL_DSI_SetPullDown                               build/stm32f7xx_hal_dsi.o
HAL_DSI_SetSDD                                    build/stm32f7xx_hal_dsi.o
HAL_DSI_SetSlewRateAndDelayTuning                 build/stm32f7xx_hal_dsi.o
HAL_DSI_ShortWrite                                build/stm32f7xx_hal_dsi.o
                                                  build/stm32f769i_discovery_lcd.o
HAL_DSI_Shutdown                                  build/stm32f7xx_hal_dsi.o
HAL_DSI_Start                                     build/stm32f7xx_hal_dsi.o
                                                  build/stm32f769i_discovery_lcd.o
HAL_DSI_Stop                                      build/stm32f7xx_hal_dsi.o
HAL_DSI_TearingEffectCallback                     build/stm32f7xx_hal_dsi.o
HAL_DeInit                                        build/stm32f7xx_hal.o
HAL_Delay                                         build/stm32f7xx_hal.o
                                                  build/stm32f769i_discovery_sdram.o
                                                  build/stm32f769i_discovery_lcd.o
                                                  build/stm32f769i_discovery.o
                                                  build/main.o
HAL_DisableCompensationCell                       build/stm32f7xx_hal.o
HAL_DisableFMCMemorySwapping                      build/stm32f7xx_hal.o
HAL_DisableMemorySwappingBank                     build/stm32f7xx_hal.o
HAL_EnableCompensationCell                        build/stm32f7xx_hal.o
HAL_EnableFMCMemorySwapping                       build/stm32f7xx_hal.o
HAL_EnableMemorySwappingBank                      build/stm32f7xx_hal.o
HAL_FLASHEx_Erase                                 build/stm32f7xx_hal_flash_ex.o
HAL_FLASHEx_Erase_IT                              build/stm32f7xx_hal_flash_ex.o
HAL_FLASHEx_OBGetConfig                           build/stm32f7xx_hal_flash_ex.o
HAL_FLASHEx_OBProgram                             build/stm32f7xx_hal_flash_ex.o
HAL_FLASH_EndOfOperationCallback                  build/stm32f7xx_hal_flash.o
HAL_FLASH_GetError                                build/stm32f7xx_hal_flash.o
HAL_FLASH_IRQHandler                              build/stm32f7xx_hal_flash.o
HAL_FLASH_Lock                                    build/stm32f7xx_hal_flash.o
HAL_FLASH_OB_Launch                               build/stm32f7xx_hal_flash.o
HAL_FLASH_OB_Lock                                 build/stm32f7xx_hal_flash.o
HAL_FLASH_OB_Unlock                               build/stm32f7xx_hal_flash.o
HAL_FLASH_OperationErrorCallback                  build/stm32f7xx_hal_flash.o
HAL_FLASH_Program                                 build/stm32f7xx_hal_flash.o
HAL_FLASH_Program_IT                              build/stm32f7xx_hal_flash.o
HAL_FLASH_Unlock                                  build/stm32f7xx_hal_flash.o
HAL_GPIO_DeInit                                   build/stm32f7xx_hal_gpio.o
                                                  build/stm32f769i_discovery.o
HAL_GPIO_EXTI_Callback                            build/stm32f7xx_hal_gpio.o
HAL_GPIO_EXTI_IRQHandler                          build/stm32f7xx_hal_gpio.o
HAL_GPIO_Init                                     build/stm32f7xx_hal_gpio.o
                                                  build/stm32f769i_discovery_sdram.o
                                                  build/stm32f769i_discovery_lcd.o
                                                  build/stm32f769i_discovery.o
                                                  build/main.o
                                                  build/stm32f7xx_hal_rcc.o
HAL_GPIO_LockPin                                  build/stm32f7xx_hal_gpio.o
HAL_GPIO_ReadPin                                  build/stm32f7xx_hal_gpio.o
                                                  build/stm32f769i_discovery.o
HAL_GPIO_TogglePin                                build/stm32f7xx_hal_gpio.o
                                                  build/stm32f769i_discovery.o
HAL_GPIO_WritePin                                 build/stm32f7xx_hal_gpio.o
                                                  build/stm32f769i_discovery_lcd.o
                                                  build/stm32f769i_discovery.o
HAL_GetDEVID                                      build/stm32f7xx_hal.o
HAL_GetHalVersion                                 build/stm32f7xx_hal.o
HAL_GetREVID                                      build/stm32f7xx_hal.o
HAL_GetTick                                       build/stm32f7xx_hal.o
                                                  build/stm32f7xx_hal_rtc.o
                                                  build/stm32f7xx_ll_fmc.o
                                                  build/stm32f7xx_hal_rcc_ex.o
                                                  build/stm32f7xx_hal_rcc.o
                                                  build/stm32f7xx_hal_pwr_ex.o
                                                  build/stm32f7xx_hal_i2c.o
                                                  build/stm32f7xx_hal_flash.o
                                                  build/stm32f7xx_hal_dsi.o
                                                  build/stm32f7xx_hal_dma2d.o
                                                  build/stm32f7xx_hal_dma.o
HAL_I2CEx_ConfigAnalogFilter                      build/stm32f7xx_hal_i2c_ex.o
HAL_I2CEx_ConfigDigitalFilter                     build/stm32f7xx_hal_i2c_ex.o
HAL_I2CEx_DisableFastModePlus                     build/stm32f7xx_hal_i2c_ex.o
HAL_I2CEx_EnableFastModePlus                      build/stm32f7xx_hal_i2c_ex.o
HAL_I2C_AbortCpltCallback                         build/stm32f7xx_hal_i2c.o
HAL_I2C_AddrCallback                              build/stm32f7xx_hal_i2c.o
HAL_I2C_DeInit                                    build/stm32f7xx_hal_i2c.o
                                                  build/stm32f769i_discovery.o
HAL_I2C_DisableListen_IT                          build/stm32f7xx_hal_i2c.o
HAL_I2C_ER_IRQHandler                             build/stm32f7xx_hal_i2c.o
HAL_I2C_EV_IRQHandler                             build/stm32f7xx_hal_i2c.o
HAL_I2C_EnableListen_IT                           build/stm32f7xx_hal_i2c.o
HAL_I2C_ErrorCallback                             build/stm32f7xx_hal_i2c.o
HAL_I2C_GetError                                  build/stm32f7xx_hal_i2c.o
HAL_I2C_GetMode                                   build/stm32f7xx_hal_i2c.o
HAL_I2C_GetState                                  build/stm32f7xx_hal_i2c.o
                                                  build/stm32f769i_discovery.o
HAL_I2C_Init                                      build/stm32f7xx_hal_i2c.o
                                                  build/stm32f769i_discovery.o
HAL_I2C_IsDeviceReady                             build/stm32f7xx_hal_i2c.o
                                                  build/stm32f769i_discovery.o
HAL_I2C_ListenCpltCallback                        build/stm32f7xx_hal_i2c.o
HAL_I2C_MasterRxCpltCallback                      build/stm32f7xx_hal_i2c.o
HAL_I2C_MasterTxCpltCallback                      build/stm32f7xx_hal_i2c.o
HAL_I2C_Master_Abort_IT                           build/stm32f7xx_hal_i2c.o
HAL_I2C_Master_Receive                            build/stm32f7xx_hal_i2c.o
HAL_I2C_Master_Receive_DMA                        build/stm32f7xx_hal_i2c.o
HAL_I2C_Master_Receive_IT                         build/stm32f7xx_hal_i2c.o
HAL_I2C_Master_Sequential_Receive_IT              build/stm32f7xx_hal_i2c.o
HAL_I2C_Master_Sequential_Transmit_IT             build/stm32f7xx_hal_i2c.o
HAL_I2C_Master_Transmit                           build/stm32f7xx_hal_i2c.o
HAL_I2C_Master_Transmit_DMA                       build/stm32f7xx_hal_i2c.o
HAL_I2C_Master_Transmit_IT                        build/stm32f7xx_hal_i2c.o
HAL_I2C_MemRxCpltCallback                         build/stm32f7xx_hal_i2c.o
HAL_I2C_MemTxCpltCallback                         build/stm32f7xx_hal_i2c.o
HAL_I2C_Mem_Read                                  build/stm32f7xx_hal_i2c.o
                                                  build/stm32f769i_discovery.o
HAL_I2C_Mem_Read_DMA                              build/stm32f7xx_hal_i2c.o
HAL_I2C_Mem_Read_IT                               build/stm32f7xx_hal_i2c.o
HAL_I2C_Mem_Write                                 build/stm32f7xx_hal_i2c.o
                                                  build/stm32f769i_discovery.o
HAL_I2C_Mem_Write_DMA                             build/stm32f7xx_hal_i2c.o
HAL_I2C_Mem_Write_IT                              build/stm32f7xx_hal_i2c.o
HAL_I2C_MspDeInit                                 build/stm32f7xx_hal_i2c.o
HAL_I2C_MspInit                                   build/stm32f7xx_hal_i2c.o
HAL_I2C_SlaveRxCpltCallback                       build/stm32f7xx_hal_i2c.o
HAL_I2C_SlaveTxCpltCallback                       build/stm32f7xx_hal_i2c.o
HAL_I2C_Slave_Receive                             build/stm32f7xx_hal_i2c.o
HAL_I2C_Slave_Receive_DMA                         build/stm32f7xx_hal_i2c.o
HAL_I2C_Slave_Receive_IT                          build/stm32f7xx_hal_i2c.o
HAL_I2C_Slave_Sequential_Receive_IT               build/stm32f7xx_hal_i2c.o
HAL_I2C_Slave_Sequential_Transmit_IT              build/stm32f7xx_hal_i2c.o
HAL_I2C_Slave_Transmit                            build/stm32f7xx_hal_i2c.o
HAL_I2C_Slave_Transmit_DMA                        build/stm32f7xx_hal_i2c.o
HAL_I2C_Slave_Transmit_IT                         build/stm32f7xx_hal_i2c.o
HAL_IncTick                                       build/stm32f7xx_hal.o
                                                  build/stm32f7xx_it.o
                                                  build/main.o
HAL_Init                                          build/stm32f7xx_hal.o
                                                  build/main.o
HAL_InitTick                                      build/stm32f7xx_hal_timebase_tim.o
                                                  build/stm32f7xx_hal.o
                                                  build/stm32f7xx_hal_rcc.o
HAL_LTDC_ConfigCLUT                               build/stm32f7xx_hal_ltdc.o
HAL_LTDC_ConfigColorKeying                        build/stm32f7xx_hal_ltdc.o
                                                  build/stm32f769i_discovery_lcd.o
HAL_LTDC_ConfigColorKeying_NoReload               build/stm32f7xx_hal_ltdc.o
HAL_LTDC_ConfigLayer                              build/stm32f7xx_hal_ltdc.o
                                                  build/stm32f769i_discovery_lcd.o
HAL_LTDC_ConfigLayer_NoReload                     build/stm32f7xx_hal_ltdc.o
HAL_LTDC_DeInit                                   build/stm32f7xx_hal_ltdc.o
HAL_LTDC_DisableCLUT                              build/stm32f7xx_hal_ltdc.o
HAL_LTDC_DisableCLUT_NoReload                     build/stm32f7xx_hal_ltdc.o
HAL_LTDC_DisableColorKeying                       build/stm32f7xx_hal_ltdc.o
                                                  build/stm32f769i_discovery_lcd.o
HAL_LTDC_DisableColorKeying_NoReload              build/stm32f7xx_hal_ltdc.o
HAL_LTDC_DisableDither                            build/stm32f7xx_hal_ltdc.o
HAL_LTDC_EnableCLUT                               build/stm32f7xx_hal_ltdc.o
HAL_LTDC_EnableCLUT_NoReload                      build/stm32f7xx_hal_ltdc.o
HAL_LTDC_EnableColorKeying                        build/stm32f7xx_hal_ltdc.o
                                                  build/stm32f769i_discovery_lcd.o
HAL_LTDC_EnableColorKeying_NoReload               build/stm32f7xx_hal_ltdc.o
HAL_LTDC_EnableDither                             build/stm32f7xx_hal_ltdc.o
HAL_LTDC_ErrorCallback                            build/stm32f7xx_hal_ltdc.o
HAL_LTDC_GetError                                 build/stm32f7xx_hal_ltdc.o
HAL_LTDC_GetState                                 build/stm32f7xx_hal_ltdc.o
HAL_LTDC_IRQHandler                               build/stm32f7xx_hal_ltdc.o
HAL_LTDC_Init                                     build/stm32f7xx_hal_ltdc.o
                                                  build/stm32f769i_discovery_lcd.o
HAL_LTDC_LineEventCallback                        build/stm32f7xx_hal_ltdc.o
HAL_LTDC_MspDeInit                                build/stm32f7xx_hal_ltdc.o
HAL_LTDC_MspInit                                  build/stm32f7xx_hal_ltdc.o
HAL_LTDC_ProgramLineEvent                         build/stm32f7xx_hal_ltdc.o
HAL_LTDC_Reload                                   build/stm32f7xx_hal_ltdc.o
HAL_LTDC_ReloadEventCallback                      build/stm32f7xx_hal_ltdc.o
HAL_LTDC_SetAddress                               build/stm32f7xx_hal_ltdc.o
                                                  build/stm32f769i_discovery_lcd.o
HAL_LTDC_SetAddress_NoReload                      build/stm32f7xx_hal_ltdc.o
HAL_LTDC_SetAlpha                                 build/stm32f7xx_hal_ltdc.o
                                                  build/stm32f769i_discovery_lcd.o
HAL_LTDC_SetAlpha_NoReload                        build/stm32f7xx_hal_ltdc.o
HAL_LTDC_SetPitch                                 build/stm32f7xx_hal_ltdc.o
HAL_LTDC_SetPitch_NoReload                        build/stm32f7xx_hal_ltdc.o
HAL_LTDC_SetPixelFormat                           build/stm32f7xx_hal_ltdc.o
HAL_LTDC_SetPixelFormat_NoReload                  build/stm32f7xx_hal_ltdc.o
HAL_LTDC_SetWindowPosition                        build/stm32f7xx_hal_ltdc.o
                                                  build/stm32f769i_discovery_lcd.o
HAL_LTDC_SetWindowPosition_NoReload               build/stm32f7xx_hal_ltdc.o
HAL_LTDC_SetWindowSize                            build/stm32f7xx_hal_ltdc.o
                                                  build/stm32f769i_discovery_lcd.o
HAL_LTDC_SetWindowSize_NoReload                   build/stm32f7xx_hal_ltdc.o
HAL_LTDC_StructInitFromAdaptedCommandConfig       build/stm32f7xx_hal_ltdc_ex.o
HAL_LTDC_StructInitFromVideoConfig                build/stm32f7xx_hal_ltdc_ex.o
                                                  build/stm32f769i_discovery_lcd.o
HAL_MPU_ConfigRegion                              build/stm32f7xx_hal_cortex.o
HAL_MPU_Disable                                   build/stm32f7xx_hal_cortex.o
HAL_MPU_Enable                                    build/stm32f7xx_hal_cortex.o
HAL_MspDeInit                                     build/stm32f7xx_hal.o
HAL_MspInit                                       build/stm32f7xx_hal_msp.o
                                                  build/stm32f7xx_hal.o
HAL_NVIC_ClearPendingIRQ                          build/stm32f7xx_hal_cortex.o
HAL_NVIC_DisableIRQ                               build/stm32f7xx_hal_cortex.o
                                                  build/stm32f769i_discovery_sdram.o
                                                  build/stm32f769i_discovery_lcd.o
                                                  build/stm32f769i_discovery.o
HAL_NVIC_EnableIRQ                                build/stm32f7xx_hal_cortex.o
                                                  build/stm32f769i_discovery_sdram.o
                                                  build/stm32f769i_discovery_lcd.o
                                                  build/stm32f769i_discovery.o
                                                  build/stm32f7xx_hal_timebase_tim.o
HAL_NVIC_GetActive                                build/stm32f7xx_hal_cortex.o
HAL_NVIC_GetPendingIRQ                            build/stm32f7xx_hal_cortex.o
HAL_NVIC_GetPriority                              build/stm32f7xx_hal_cortex.o
HAL_NVIC_GetPriorityGrouping                      build/stm32f7xx_hal_cortex.o
HAL_NVIC_SetPendingIRQ                            build/stm32f7xx_hal_cortex.o
HAL_NVIC_SetPriority                              build/stm32f7xx_hal_cortex.o
                                                  build/stm32f769i_discovery_sdram.o
                                                  build/stm32f769i_discovery_lcd.o
                                                  build/stm32f769i_discovery.o
                                                  build/stm32f7xx_hal_timebase_tim.o
                                                  build/stm32f7xx_hal_msp.o
                                                  build/main.o
                                                  build/stm32f7xx_hal.o
HAL_NVIC_SetPriorityGrouping                      build/stm32f7xx_hal_cortex.o
                                                  build/stm32f7xx_hal_msp.o
                                                  build/stm32f7xx_hal.o
HAL_NVIC_SystemReset                              build/stm32f7xx_hal_cortex.o
HAL_PWREx_ControlVoltageScaling                   build/stm32f7xx_hal_pwr_ex.o
HAL_PWREx_DisableBkUpReg                          build/stm32f7xx_hal_pwr_ex.o
HAL_PWREx_DisableFlashPowerDown                   build/stm32f7xx_hal_pwr_ex.o
HAL_PWREx_DisableLowRegulatorLowVoltage           build/stm32f7xx_hal_pwr_ex.o
HAL_PWREx_DisableMainRegulatorLowVoltage          build/stm32f7xx_hal_pwr_ex.o
HAL_PWREx_DisableOverDrive                        build/stm32f7xx_hal_pwr_ex.o
HAL_PWREx_EnableBkUpReg                           build/stm32f7xx_hal_pwr_ex.o
HAL_PWREx_EnableFlashPowerDown                    build/stm32f7xx_hal_pwr_ex.o
HAL_PWREx_EnableLowRegulatorLowVoltage            build/stm32f7xx_hal_pwr_ex.o
HAL_PWREx_EnableMainRegulatorLowVoltage           build/stm32f7xx_hal_pwr_ex.o
HAL_PWREx_EnableOverDrive                         build/stm32f7xx_hal_pwr_ex.o
                                                  build/main.o
HAL_PWREx_EnterUnderDriveSTOPMode                 build/stm32f7xx_hal_pwr_ex.o
HAL_PWREx_GetVoltageRange                         build/stm32f7xx_hal_pwr_ex.o
HAL_PWR_ConfigPVD                                 build/stm32f7xx_hal_pwr.o
HAL_PWR_DeInit                                    build/stm32f7xx_hal_pwr.o
HAL_PWR_DisableBkUpAccess                         build/stm32f7xx_hal_pwr.o
HAL_PWR_DisablePVD                                build/stm32f7xx_hal_pwr.o
HAL_PWR_DisableSEVOnPend                          build/stm32f7xx_hal_pwr.o
HAL_PWR_DisableSleepOnExit                        build/stm32f7xx_hal_pwr.o
HAL_PWR_DisableWakeUpPin                          build/stm32f7xx_hal_pwr.o
HAL_PWR_EnableBkUpAccess                          build/stm32f7xx_hal_pwr.o
HAL_PWR_EnablePVD                                 build/stm32f7xx_hal_pwr.o
HAL_PWR_EnableSEVOnPend                           build/stm32f7xx_hal_pwr.o
HAL_PWR_EnableSleepOnExit                         build/stm32f7xx_hal_pwr.o
HAL_PWR_EnableWakeUpPin                           build/stm32f7xx_hal_pwr.o
HAL_PWR_EnterSLEEPMode                            build/stm32f7xx_hal_pwr.o
HAL_PWR_EnterSTANDBYMode                          build/stm32f7xx_hal_pwr.o
HAL_PWR_EnterSTOPMode                             build/stm32f7xx_hal_pwr.o
HAL_PWR_PVDCallback                               build/stm32f7xx_hal_pwr.o
HAL_PWR_PVD_IRQHandler                            build/stm32f7xx_hal_pwr.o
HAL_RCCEx_GetPeriphCLKConfig                      build/stm32f7xx_hal_rcc_ex.o
HAL_RCCEx_GetPeriphCLKFreq                        build/stm32f7xx_hal_rcc_ex.o
HAL_RCCEx_PeriphCLKConfig                         build/stm32f7xx_hal_rcc_ex.o
                                                  build/stm32f769i_discovery_lcd.o
                                                  build/main.o
HAL_RCC_CSSCallback                               build/stm32f7xx_hal_rcc.o
HAL_RCC_ClockConfig                               build/stm32f7xx_hal_rcc.o
                                                  build/main.o
HAL_RCC_DeInit                                    build/stm32f7xx_hal_rcc.o
HAL_RCC_DisableCSS                                build/stm32f7xx_hal_rcc.o
HAL_RCC_EnableCSS                                 build/stm32f7xx_hal_rcc.o
HAL_RCC_GetClockConfig                            build/stm32f7xx_hal_rcc.o
                                                  build/stm32f7xx_hal_timebase_tim.o
HAL_RCC_GetHCLKFreq                               build/stm32f7xx_hal_rcc.o
                                                  build/main.o
HAL_RCC_GetOscConfig                              build/stm32f7xx_hal_rcc.o
HAL_RCC_GetPCLK1Freq                              build/stm32f7xx_hal_rcc.o
                                                  build/stm32f7xx_hal_timebase_tim.o
HAL_RCC_GetPCLK2Freq                              build/stm32f7xx_hal_rcc.o
HAL_RCC_GetSysClockFreq                           build/stm32f7xx_hal_rcc.o
HAL_RCC_MCOConfig                                 build/stm32f7xx_hal_rcc.o
HAL_RCC_NMI_IRQHandler                            build/stm32f7xx_hal_rcc.o
HAL_RCC_OscConfig                                 build/stm32f7xx_hal_rcc.o
                                                  build/main.o
HAL_RTCEx_AlarmBEventCallback                     build/stm32f7xx_hal_rtc.o
HAL_RTC_AlarmAEventCallback                       build/stm32f7xx_hal_rtc.o
HAL_RTC_AlarmIRQHandler                           build/stm32f7xx_hal_rtc.o
HAL_RTC_DeInit                                    build/stm32f7xx_hal_rtc.o
HAL_RTC_DeactivateAlarm                           build/stm32f7xx_hal_rtc.o
HAL_RTC_GetAlarm                                  build/stm32f7xx_hal_rtc.o
HAL_RTC_GetDate                                   build/stm32f7xx_hal_rtc.o
HAL_RTC_GetState                                  build/stm32f7xx_hal_rtc.o
HAL_RTC_GetTime                                   build/stm32f7xx_hal_rtc.o
HAL_RTC_Init                                      build/stm32f7xx_hal_rtc.o
                                                  build/main.o
HAL_RTC_MspDeInit                                 build/stm32f7xx_hal_msp.o
                                                  build/stm32f7xx_hal_rtc.o
HAL_RTC_MspInit                                   build/stm32f7xx_hal_msp.o
                                                  build/stm32f7xx_hal_rtc.o
HAL_RTC_PollForAlarmAEvent                        build/stm32f7xx_hal_rtc.o
HAL_RTC_SetAlarm                                  build/stm32f7xx_hal_rtc.o
HAL_RTC_SetAlarm_IT                               build/stm32f7xx_hal_rtc.o
HAL_RTC_SetDate                                   build/stm32f7xx_hal_rtc.o
HAL_RTC_SetTime                                   build/stm32f7xx_hal_rtc.o
HAL_RTC_WaitForSynchro                            build/stm32f7xx_hal_rtc.o
HAL_ResumeTick                                    build/stm32f7xx_hal_timebase_tim.o
                                                  build/stm32f7xx_hal.o
HAL_SDRAM_DMA_XferCpltCallback                    build/stm32f7xx_hal_sdram.o
HAL_SDRAM_DMA_XferErrorCallback                   build/stm32f7xx_hal_sdram.o
HAL_SDRAM_DeInit                                  build/stm32f7xx_hal_sdram.o
                                                  build/stm32f769i_discovery_sdram.o
HAL_SDRAM_GetModeStatus                           build/stm32f7xx_hal_sdram.o
HAL_SDRAM_GetState                                build/stm32f7xx_hal_sdram.o
HAL_SDRAM_IRQHandler                              build/stm32f7xx_hal_sdram.o
HAL_SDRAM_Init                                    build/stm32f7xx_hal_sdram.o
                                                  build/stm32f769i_discovery_sdram.o
                                                  build/main.o
HAL_SDRAM_MspDeInit                               build/stm32f7xx_hal_sdram.o
HAL_SDRAM_MspInit                                 build/stm32f7xx_hal_sdram.o
HAL_SDRAM_ProgramRefreshRate                      build/stm32f7xx_hal_sdram.o
                                                  build/stm32f769i_discovery_sdram.o
HAL_SDRAM_Read_16b                                build/stm32f7xx_hal_sdram.o
HAL_SDRAM_Read_32b                                build/stm32f7xx_hal_sdram.o
                                                  build/stm32f769i_discovery_sdram.o
HAL_SDRAM_Read_8b                                 build/stm32f7xx_hal_sdram.o
HAL_SDRAM_Read_DMA                                build/stm32f7xx_hal_sdram.o
                                                  build/stm32f769i_discovery_sdram.o
HAL_SDRAM_RefreshErrorCallback                    build/stm32f7xx_hal_sdram.o
HAL_SDRAM_SendCommand                             build/stm32f7xx_hal_sdram.o
                                                  build/stm32f769i_discovery_sdram.o
HAL_SDRAM_SetAutoRefreshNumber                    build/stm32f7xx_hal_sdram.o
HAL_SDRAM_WriteProtection_Disable                 build/stm32f7xx_hal_sdram.o
HAL_SDRAM_WriteProtection_Enable                  build/stm32f7xx_hal_sdram.o
HAL_SDRAM_Write_16b                               build/stm32f7xx_hal_sdram.o
HAL_SDRAM_Write_32b                               build/stm32f7xx_hal_sdram.o
                                                  build/stm32f769i_discovery_sdram.o
HAL_SDRAM_Write_8b                                build/stm32f7xx_hal_sdram.o
HAL_SDRAM_Write_DMA                               build/stm32f7xx_hal_sdram.o
                                                  build/stm32f769i_discovery_sdram.o
HAL_SYSTICK_CLKSourceConfig                       build/stm32f7xx_hal_cortex.o
                                                  build/main.o
HAL_SYSTICK_Callback                              build/stm32f7xx_hal_cortex.o
HAL_SYSTICK_Config                                build/stm32f7xx_hal_cortex.o
                                                  build/main.o
                                                  build/stm32f7xx_hal.o
HAL_SYSTICK_IRQHandler                            build/stm32f7xx_hal_cortex.o
HAL_SuspendTick                                   build/stm32f7xx_hal_timebase_tim.o
                                                  build/stm32f7xx_hal.o
HAL_TIMEx_BreakCallback                           build/stm32f7xx_hal_tim_ex.o
                                                  build/stm32f7xx_hal_tim.o
HAL_TIMEx_CommutationCallback                     build/stm32f7xx_hal_tim_ex.o
                                                  build/stm32f7xx_hal_tim.o
HAL_TIMEx_ConfigBreakDeadTime                     build/stm32f7xx_hal_tim_ex.o
HAL_TIMEx_ConfigBreakInput                        build/stm32f7xx_hal_tim_ex.o
HAL_TIMEx_ConfigCommutationEvent                  build/stm32f7xx_hal_tim_ex.o
HAL_TIMEx_ConfigCommutationEvent_DMA              build/stm32f7xx_hal_tim_ex.o
HAL_TIMEx_ConfigCommutationEvent_IT               build/stm32f7xx_hal_tim_ex.o
HAL_TIMEx_GroupChannel5                           build/stm32f7xx_hal_tim_ex.o
HAL_TIMEx_HallSensor_DeInit                       build/stm32f7xx_hal_tim_ex.o
HAL_TIMEx_HallSensor_GetState                     build/stm32f7xx_hal_tim_ex.o
HAL_TIMEx_HallSensor_Init                         build/stm32f7xx_hal_tim_ex.o
HAL_TIMEx_HallSensor_MspDeInit                    build/stm32f7xx_hal_tim_ex.o
HAL_TIMEx_HallSensor_MspInit                      build/stm32f7xx_hal_tim_ex.o
HAL_TIMEx_HallSensor_Start                        build/stm32f7xx_hal_tim_ex.o
HAL_TIMEx_HallSensor_Start_DMA                    build/stm32f7xx_hal_tim_ex.o
HAL_TIMEx_HallSensor_Start_IT                     build/stm32f7xx_hal_tim_ex.o
HAL_TIMEx_HallSensor_Stop                         build/stm32f7xx_hal_tim_ex.o
HAL_TIMEx_HallSensor_Stop_DMA                     build/stm32f7xx_hal_tim_ex.o
HAL_TIMEx_HallSensor_Stop_IT                      build/stm32f7xx_hal_tim_ex.o
HAL_TIMEx_MasterConfigSynchronization             build/stm32f7xx_hal_tim_ex.o
HAL_TIMEx_OCN_Start                               build/stm32f7xx_hal_tim_ex.o
HAL_TIMEx_OCN_Start_DMA                           build/stm32f7xx_hal_tim_ex.o
HAL_TIMEx_OCN_Start_IT                            build/stm32f7xx_hal_tim_ex.o
HAL_TIMEx_OCN_Stop                                build/stm32f7xx_hal_tim_ex.o
HAL_TIMEx_OCN_Stop_DMA                            build/stm32f7xx_hal_tim_ex.o
HAL_TIMEx_OCN_Stop_IT                             build/stm32f7xx_hal_tim_ex.o
HAL_TIMEx_OnePulseN_Start                         build/stm32f7xx_hal_tim_ex.o
HAL_TIMEx_OnePulseN_Start_IT                      build/stm32f7xx_hal_tim_ex.o
HAL_TIMEx_OnePulseN_Stop                          build/stm32f7xx_hal_tim_ex.o
HAL_TIMEx_OnePulseN_Stop_IT                       build/stm32f7xx_hal_tim_ex.o
HAL_TIMEx_PWMN_Start                              build/stm32f7xx_hal_tim_ex.o
HAL_TIMEx_PWMN_Start_DMA                          build/stm32f7xx_hal_tim_ex.o
HAL_TIMEx_PWMN_Start_IT                           build/stm32f7xx_hal_tim_ex.o
HAL_TIMEx_PWMN_Stop                               build/stm32f7xx_hal_tim_ex.o
HAL_TIMEx_PWMN_Stop_DMA                           build/stm32f7xx_hal_tim_ex.o
HAL_TIMEx_PWMN_Stop_IT                            build/stm32f7xx_hal_tim_ex.o
HAL_TIMEx_RemapConfig                             build/stm32f7xx_hal_tim_ex.o
HAL_TIM_Base_DeInit                               build/stm32f7xx_hal_tim.o
HAL_TIM_Base_GetState                             build/stm32f7xx_hal_tim.o
HAL_TIM_Base_Init                                 build/stm32f7xx_hal_tim.o
                                                  build/stm32f7xx_hal_timebase_tim.o
HAL_TIM_Base_MspDeInit                            build/stm32f7xx_hal_tim.o
HAL_TIM_Base_MspInit                              build/stm32f7xx_hal_tim.o
HAL_TIM_Base_Start                                build/stm32f7xx_hal_tim.o
HAL_TIM_Base_Start_DMA                            build/stm32f7xx_hal_tim.o
HAL_TIM_Base_Start_IT                             build/stm32f7xx_hal_tim.o
                                                  build/stm32f7xx_hal_timebase_tim.o
HAL_TIM_Base_Stop                                 build/stm32f7xx_hal_tim.o
HAL_TIM_Base_Stop_DMA                             build/stm32f7xx_hal_tim.o
HAL_TIM_Base_Stop_IT                              build/stm32f7xx_hal_tim.o
HAL_TIM_ConfigClockSource                         build/stm32f7xx_hal_tim.o
HAL_TIM_ConfigOCrefClear                          build/stm32f7xx_hal_tim_ex.o
                                                  build/stm32f7xx_hal_tim.o
HAL_TIM_ConfigTI1Input                            build/stm32f7xx_hal_tim.o
HAL_TIM_DMABurst_ReadStart                        build/stm32f7xx_hal_tim.o
HAL_TIM_DMABurst_ReadStop                         build/stm32f7xx_hal_tim.o
HAL_TIM_DMABurst_WriteStart                       build/stm32f7xx_hal_tim.o
HAL_TIM_DMABurst_WriteStop                        build/stm32f7xx_hal_tim.o
HAL_TIM_Encoder_DeInit                            build/stm32f7xx_hal_tim.o
HAL_TIM_Encoder_GetState                          build/stm32f7xx_hal_tim.o
HAL_TIM_Encoder_Init                              build/stm32f7xx_hal_tim.o
HAL_TIM_Encoder_MspDeInit                         build/stm32f7xx_hal_tim.o
HAL_TIM_Encoder_MspInit                           build/stm32f7xx_hal_tim.o
HAL_TIM_Encoder_Start                             build/stm32f7xx_hal_tim.o
HAL_TIM_Encoder_Start_DMA                         build/stm32f7xx_hal_tim.o
HAL_TIM_Encoder_Start_IT                          build/stm32f7xx_hal_tim.o
HAL_TIM_Encoder_Stop                              build/stm32f7xx_hal_tim.o
HAL_TIM_Encoder_Stop_DMA                          build/stm32f7xx_hal_tim.o
HAL_TIM_Encoder_Stop_IT                           build/stm32f7xx_hal_tim.o
HAL_TIM_ErrorCallback                             build/stm32f7xx_hal_tim.o
HAL_TIM_GenerateEvent                             build/stm32f7xx_hal_tim.o
HAL_TIM_IC_CaptureCallback                        build/stm32f7xx_hal_tim.o
HAL_TIM_IC_ConfigChannel                          build/stm32f7xx_hal_tim.o
HAL_TIM_IC_DeInit                                 build/stm32f7xx_hal_tim.o
HAL_TIM_IC_GetState                               build/stm32f7xx_hal_tim.o
HAL_TIM_IC_Init                                   build/stm32f7xx_hal_tim.o
HAL_TIM_IC_MspDeInit                              build/stm32f7xx_hal_tim.o
HAL_TIM_IC_MspInit                                build/stm32f7xx_hal_tim.o
HAL_TIM_IC_Start                                  build/stm32f7xx_hal_tim.o
HAL_TIM_IC_Start_DMA                              build/stm32f7xx_hal_tim.o
HAL_TIM_IC_Start_IT                               build/stm32f7xx_hal_tim.o
HAL_TIM_IC_Stop                                   build/stm32f7xx_hal_tim.o
HAL_TIM_IC_Stop_DMA                               build/stm32f7xx_hal_tim.o
HAL_TIM_IC_Stop_IT                                build/stm32f7xx_hal_tim.o
HAL_TIM_IRQHandler                                build/stm32f7xx_hal_tim.o
                                                  build/stm32f7xx_it.o
HAL_TIM_OC_ConfigChannel                          build/stm32f7xx_hal_tim_ex.o
                                                  build/stm32f7xx_hal_tim.o
HAL_TIM_OC_DeInit                                 build/stm32f7xx_hal_tim.o
HAL_TIM_OC_DelayElapsedCallback                   build/stm32f7xx_hal_tim.o
HAL_TIM_OC_GetState                               build/stm32f7xx_hal_tim.o
HAL_TIM_OC_Init                                   build/stm32f7xx_hal_tim.o
HAL_TIM_OC_MspDeInit                              build/stm32f7xx_hal_tim.o
HAL_TIM_OC_MspInit                                build/stm32f7xx_hal_tim.o
HAL_TIM_OC_Start                                  build/stm32f7xx_hal_tim.o
HAL_TIM_OC_Start_DMA                              build/stm32f7xx_hal_tim.o
HAL_TIM_OC_Start_IT                               build/stm32f7xx_hal_tim.o
HAL_TIM_OC_Stop                                   build/stm32f7xx_hal_tim.o
HAL_TIM_OC_Stop_DMA                               build/stm32f7xx_hal_tim.o
HAL_TIM_OC_Stop_IT                                build/stm32f7xx_hal_tim.o
HAL_TIM_OnePulse_ConfigChannel                    build/stm32f7xx_hal_tim.o
HAL_TIM_OnePulse_DeInit                           build/stm32f7xx_hal_tim.o
HAL_TIM_OnePulse_GetState                         build/stm32f7xx_hal_tim.o
HAL_TIM_OnePulse_Init                             build/stm32f7xx_hal_tim.o
HAL_TIM_OnePulse_MspDeInit                        build/stm32f7xx_hal_tim.o
HAL_TIM_OnePulse_MspInit                          build/stm32f7xx_hal_tim.o
HAL_TIM_OnePulse_Start                            build/stm32f7xx_hal_tim.o
HAL_TIM_OnePulse_Start_IT                         build/stm32f7xx_hal_tim.o
HAL_TIM_OnePulse_Stop                             build/stm32f7xx_hal_tim.o
HAL_TIM_OnePulse_Stop_IT                          build/stm32f7xx_hal_tim.o
HAL_TIM_PWM_ConfigChannel                         build/stm32f7xx_hal_tim_ex.o
                                                  build/stm32f7xx_hal_tim.o
HAL_TIM_PWM_DeInit                                build/stm32f7xx_hal_tim.o
HAL_TIM_PWM_GetState                              build/stm32f7xx_hal_tim.o
HAL_TIM_PWM_Init                                  build/stm32f7xx_hal_tim.o
HAL_TIM_PWM_MspDeInit                             build/stm32f7xx_hal_tim.o
HAL_TIM_PWM_MspInit                               build/stm32f7xx_hal_tim.o
HAL_TIM_PWM_PulseFinishedCallback                 build/stm32f7xx_hal_tim.o
HAL_TIM_PWM_Start                                 build/stm32f7xx_hal_tim.o
HAL_TIM_PWM_Start_DMA                             build/stm32f7xx_hal_tim.o
HAL_TIM_PWM_Start_IT                              build/stm32f7xx_hal_tim.o
HAL_TIM_PWM_Stop                                  build/stm32f7xx_hal_tim.o
HAL_TIM_PWM_Stop_DMA                              build/stm32f7xx_hal_tim.o
HAL_TIM_PWM_Stop_IT                               build/stm32f7xx_hal_tim.o
HAL_TIM_PeriodElapsedCallback                     build/main.o
                                                  build/stm32f7xx_hal_tim.o
HAL_TIM_ReadCapturedValue                         build/stm32f7xx_hal_tim.o
HAL_TIM_SlaveConfigSynchronization                build/stm32f7xx_hal_tim.o
HAL_TIM_SlaveConfigSynchronization_IT             build/stm32f7xx_hal_tim.o
HAL_TIM_TriggerCallback                           build/stm32f7xx_hal_tim.o
HDMI_IO_Delay                                     build/stm32f769i_discovery.o
HDMI_IO_Init                                      build/stm32f769i_discovery.o
HDMI_IO_Read                                      build/stm32f769i_discovery.o
HDMI_IO_Write                                     build/stm32f769i_discovery.o
HardFault_Handler                                 build/stm32f7xx_it.o
I2C1_ER_IRQHandler                                build/startup_stm32f769xx.o
I2C1_EV_IRQHandler                                build/startup_stm32f769xx.o
I2C2_ER_IRQHandler                                build/startup_stm32f769xx.o
I2C2_EV_IRQHandler                                build/startup_stm32f769xx.o
I2C3_ER_IRQHandler                                build/startup_stm32f769xx.o
I2C3_EV_IRQHandler                                build/startup_stm32f769xx.o
I2C4_ER_IRQHandler                                build/startup_stm32f769xx.o
I2C4_EV_IRQHandler                                build/startup_stm32f769xx.o
JPEG_IRQHandler                                   build/startup_stm32f769xx.o
LCD_CacheBuffer                                   build/lcd_log.o
LCD_CacheBuffer_xptr                              build/lcd_log.o
LCD_CacheBuffer_yptr_bottom                       build/lcd_log.o
LCD_CacheBuffer_yptr_bottom_bak                   build/lcd_log.o
LCD_CacheBuffer_yptr_invert                       build/lcd_log.o
LCD_CacheBuffer_yptr_top                          build/lcd_log.o
LCD_CacheBuffer_yptr_top_bak                      build/lcd_log.o
LCD_LOG_ClearTextZone                             build/lcd_log.o
LCD_LOG_DeInit                                    build/lcd_log.o
LCD_LOG_Init                                      build/lcd_log.o
                                                  build/main.o
LCD_LOG_ScrollBack                                build/lcd_log.o
LCD_LOG_ScrollForward                             build/lcd_log.o
LCD_LOG_SetFooter                                 build/lcd_log.o
                                                  build/main.o
LCD_LOG_SetHeader                                 build/lcd_log.o
                                                  build/main.o
LCD_LOG_UpdateDisplay                             build/lcd_log.o
LCD_LineColor                                     build/lcd_log.o
                                                  build/main.o
LCD_Lock                                          build/lcd_log.o
LCD_ScrollActive                                  build/lcd_log.o
LCD_ScrollBackStep                                build/lcd_log.o
LCD_Scrolled                                      build/lcd_log.o
LPTIM1_IRQHandler                                 build/startup_stm32f769xx.o
LTDC_ER_IRQHandler                                build/startup_stm32f769xx.o
LTDC_IRQHandler                                   build/startup_stm32f769xx.o
MDIOS_IRQHandler                                  build/startup_stm32f769xx.o
MFX_IO_DeInit                                     build/mfxstm32l152.o
MFX_IO_Delay                                      build/mfxstm32l152.o
MFX_IO_EnableWakeupPin                            build/mfxstm32l152.o
MFX_IO_ITConfig                                   build/mfxstm32l152.o
MFX_IO_Init                                       build/mfxstm32l152.o
MFX_IO_Read                                       build/mfxstm32l152.o
MFX_IO_ReadMultiple                               build/mfxstm32l152.o
MFX_IO_Wakeup                                     build/mfxstm32l152.o
MFX_IO_Write                                      build/mfxstm32l152.o
MemManage_Handler                                 build/stm32f7xx_it.o
NMI_Handler                                       build/stm32f7xx_it.o
OTG_FS_IRQHandler                                 build/startup_stm32f769xx.o
OTG_FS_WKUP_IRQHandler                            build/startup_stm32f769xx.o
OTG_HS_EP1_IN_IRQHandler                          build/startup_stm32f769xx.o
OTG_HS_EP1_OUT_IRQHandler                         build/startup_stm32f769xx.o
OTG_HS_IRQHandler                                 build/startup_stm32f769xx.o
OTG_HS_WKUP_IRQHandler                            build/startup_stm32f769xx.o
OTM8009A_IO_Delay                                 build/stm32f769i_discovery.o
                                                  build/otm8009a.o
OTM8009A_Init                                     build/otm8009a.o
                                                  build/stm32f769i_discovery_lcd.o
PVD_IRQHandler                                    build/startup_stm32f769xx.o
PendSV_Handler                                    build/port.o
QUADSPI_IRQHandler                                build/startup_stm32f769xx.o
RCC_IRQHandler                                    build/startup_stm32f769xx.o
RNG_IRQHandler                                    build/startup_stm32f769xx.o
RTC_Alarm_IRQHandler                              build/startup_stm32f769xx.o
RTC_Bcd2ToByte                                    build/stm32f7xx_hal_rtc.o
RTC_ByteToBcd2                                    build/stm32f7xx_hal_rtc.o
RTC_EnterInitMode                                 build/stm32f7xx_hal_rtc.o
RTC_WKUP_IRQHandler                               build/startup_stm32f769xx.o
Reset_Handler                                     build/startup_stm32f769xx.o
SAI1_IRQHandler                                   build/startup_stm32f769xx.o
SAI2_IRQHandler                                   build/startup_stm32f769xx.o
SDMMC1_IRQHandler                                 build/startup_stm32f769xx.o
SDMMC2_IRQHandler                                 build/startup_stm32f769xx.o
SPDIF_RX_IRQHandler                               build/startup_stm32f769xx.o
SPI1_IRQHandler                                   build/startup_stm32f769xx.o
SPI2_IRQHandler                                   build/startup_stm32f769xx.o
SPI3_IRQHandler                                   build/startup_stm32f769xx.o
SPI4_IRQHandler                                   build/startup_stm32f769xx.o
SPI5_IRQHandler                                   build/startup_stm32f769xx.o
SPI6_IRQHandler                                   build/startup_stm32f769xx.o
SVC_Handler                                       build/port.o
ShortRegData1                                     build/otm8009a.o
ShortRegData10                                    build/otm8009a.o
ShortRegData11                                    build/otm8009a.o
ShortRegData12                                    build/otm8009a.o
ShortRegData13                                    build/otm8009a.o
ShortRegData14                                    build/otm8009a.o
ShortRegData15                                    build/otm8009a.o
ShortRegData16                                    build/otm8009a.o
ShortRegData17                                    build/otm8009a.o
ShortRegData18                                    build/otm8009a.o
ShortRegData19                                    build/otm8009a.o
ShortRegData2                                     build/otm8009a.o
ShortRegData20                                    build/otm8009a.o
ShortRegData21                                    build/otm8009a.o
ShortRegData22                                    build/otm8009a.o
ShortRegData23                                    build/otm8009a.o
ShortRegData24                                    build/otm8009a.o
ShortRegData25                                    build/otm8009a.o
ShortRegData26                                    build/otm8009a.o
ShortRegData27                                    build/otm8009a.o
ShortRegData28                                    build/otm8009a.o
ShortRegData29                                    build/otm8009a.o
ShortRegData3                                     build/otm8009a.o
ShortRegData30                                    build/otm8009a.o
ShortRegData31                                    build/otm8009a.o
ShortRegData32                                    build/otm8009a.o
ShortRegData33                                    build/otm8009a.o
ShortRegData34                                    build/otm8009a.o
ShortRegData35                                    build/otm8009a.o
ShortRegData36                                    build/otm8009a.o
ShortRegData37                                    build/otm8009a.o
ShortRegData38                                    build/otm8009a.o
ShortRegData39                                    build/otm8009a.o
ShortRegData4                                     build/otm8009a.o
ShortRegData40                                    build/otm8009a.o
ShortRegData41                                    build/otm8009a.o
ShortRegData42                                    build/otm8009a.o
ShortRegData43                                    build/otm8009a.o
ShortRegData44                                    build/otm8009a.o
ShortRegData45                                    build/otm8009a.o
ShortRegData46                                    build/otm8009a.o
ShortRegData47                                    build/otm8009a.o
ShortRegData48                                    build/otm8009a.o
ShortRegData49                                    build/otm8009a.o
ShortRegData5                                     build/otm8009a.o
ShortRegData6                                     build/otm8009a.o
ShortRegData7                                     build/otm8009a.o
ShortRegData8                                     build/otm8009a.o
ShortRegData9                                     build/otm8009a.o
SysTick_Handler                                   build/stm32f7xx_it.o
SystemCoreClock                                   build/system_stm32f7xx.o
                                                  build/port.o
                                                  build/stm32f7xx_hal_rcc.o
                                                  build/stm32f7xx_hal_dma.o
                                                  build/stm32f7xx_hal.o
SystemCoreClockUpdate                             build/system_stm32f7xx.o
SystemInit                                        build/system_stm32f7xx.o
                                                  build/startup_stm32f769xx.o
TAMP_STAMP_IRQHandler                             build/startup_stm32f769xx.o
TIM1_BRK_TIM9_IRQHandler                          build/startup_stm32f769xx.o
TIM1_CC_IRQHandler                                build/startup_stm32f769xx.o
TIM1_TRG_COM_TIM11_IRQHandler                     build/startup_stm32f769xx.o
TIM1_UP_TIM10_IRQHandler                          build/startup_stm32f769xx.o
TIM2_IRQHandler                                   build/startup_stm32f769xx.o
TIM3_IRQHandler                                   build/startup_stm32f769xx.o
TIM4_IRQHandler                                   build/startup_stm32f769xx.o
TIM5_IRQHandler                                   build/startup_stm32f769xx.o
TIM6_DAC_IRQHandler                               build/startup_stm32f769xx.o
TIM7_IRQHandler                                   build/startup_stm32f769xx.o
TIM8_BRK_TIM12_IRQHandler                         build/startup_stm32f769xx.o
TIM8_CC_IRQHandler                                build/startup_stm32f769xx.o
TIM8_TRG_COM_TIM14_IRQHandler                     build/startup_stm32f769xx.o
TIM8_UP_TIM13_IRQHandler                          build/stm32f7xx_it.o
TIMEx_DMACommutationCplt                          build/stm32f7xx_hal_tim_ex.o
                                                  build/stm32f7xx_hal_tim.o
TIM_Base_SetConfig                                build/stm32f7xx_hal_tim.o
                                                  build/stm32f7xx_hal_tim_ex.o
TIM_CCxChannelCmd                                 build/stm32f7xx_hal_tim.o
                                                  build/stm32f7xx_hal_tim_ex.o
TIM_DMACaptureCplt                                build/stm32f7xx_hal_tim.o
                                                  build/stm32f7xx_hal_tim_ex.o
TIM_DMADelayPulseCplt                             build/stm32f7xx_hal_tim.o
                                                  build/stm32f7xx_hal_tim_ex.o
TIM_DMAError                                      build/stm32f7xx_hal_tim.o
                                                  build/stm32f7xx_hal_tim_ex.o
TIM_ETR_SetConfig                                 build/stm32f7xx_hal_tim.o
                                                  build/stm32f7xx_hal_tim_ex.o
TIM_OC1_SetConfig                                 build/stm32f7xx_hal_tim.o
                                                  build/stm32f7xx_hal_tim_ex.o
TIM_OC2_SetConfig                                 build/stm32f7xx_hal_tim.o
                                                  build/stm32f7xx_hal_tim_ex.o
TIM_OC3_SetConfig                                 build/stm32f7xx_hal_tim.o
                                                  build/stm32f7xx_hal_tim_ex.o
TIM_OC4_SetConfig                                 build/stm32f7xx_hal_tim.o
                                                  build/stm32f7xx_hal_tim_ex.o
TIM_TI1_SetConfig                                 build/stm32f7xx_hal_tim.o
                                                  build/stm32f7xx_hal_tim_ex.o
TS_IO_Delay                                       build/stm32f769i_discovery.o
TS_IO_Init                                        build/stm32f769i_discovery.o
TS_IO_Read                                        build/stm32f769i_discovery.o
TS_IO_ReadMultiple                                build/stm32f769i_discovery.o
TS_IO_Write                                       build/stm32f769i_discovery.o
TS_IO_WriteMultiple                               build/stm32f769i_discovery.o
UART4_IRQHandler                                  build/startup_stm32f769xx.o
UART5_IRQHandler                                  build/startup_stm32f769xx.o
UART7_IRQHandler                                  build/startup_stm32f769xx.o
UART8_IRQHandler                                  build/startup_stm32f769xx.o
USART1_IRQHandler                                 build/startup_stm32f769xx.o
USART2_IRQHandler                                 build/startup_stm32f769xx.o
USART3_IRQHandler                                 build/startup_stm32f769xx.o
USART6_IRQHandler                                 build/startup_stm32f769xx.o
UsageFault_Handler                                build/stm32f7xx_it.o
WWDG_IRQHandler                                   build/startup_stm32f769xx.o
_Jv_RegisterClasses                               /usr/bin/../lib/gcc/arm-none-eabi/4.9.3/cortex-m7/fpu/fpv5-sp-d16/crtbegin.o
__bss_end__                                       /usr/bin/../lib/gcc/arm-none-eabi/4.9.3/../../../../arm-none-eabi/lib/cortex-m7/fpu/fpv5-sp-d16/crt0.o
__bss_start__                                     /usr/bin/../lib/gcc/arm-none-eabi/4.9.3/../../../../arm-none-eabi/lib/cortex-m7/fpu/fpv5-sp-d16/crt0.o
__call_exitprocs                                  /usr/bin/../lib/gcc/arm-none-eabi/4.9.3/../../../../arm-none-eabi/lib/cortex-m7/fpu/fpv5-sp-d16/libc_nano.a(lib_a-exit.o)
__deregister_frame_info                           /usr/bin/../lib/gcc/arm-none-eabi/4.9.3/cortex-m7/fpu/fpv5-sp-d16/crtbegin.o
__dso_handle                                      /usr/bin/../lib/gcc/arm-none-eabi/4.9.3/cortex-m7/fpu/fpv5-sp-d16/crtbegin.o
__errno                                           /usr/bin/../lib/gcc/arm-none-eabi/4.9.3/../../../../arm-none-eabi/lib/cortex-m7/fpu/fpv5-sp-d16/libc_nano.a(lib_a-errno.o)
                                                  build/syscalls.o
__fp_lock_all                                     /usr/bin/../lib/gcc/arm-none-eabi/4.9.3/../../../../arm-none-eabi/lib/cortex-m7/fpu/fpv5-sp-d16/libc_nano.a(lib_a-findfp.o)
__fp_unlock_all                                   /usr/bin/../lib/gcc/arm-none-eabi/4.9.3/../../../../arm-none-eabi/lib/cortex-m7/fpu/fpv5-sp-d16/libc_nano.a(lib_a-findfp.o)
__init_array_end                                  /usr/bin/../lib/gcc/arm-none-eabi/4.9.3/../../../../arm-none-eabi/lib/cortex-m7/fpu/fpv5-sp-d16/libc_nano.a(lib_a-init.o)
__init_array_start                                /usr/bin/../lib/gcc/arm-none-eabi/4.9.3/../../../../arm-none-eabi/lib/cortex-m7/fpu/fpv5-sp-d16/libc_nano.a(lib_a-init.o)
__io_getchar                                      build/syscalls.o
__io_putchar                                      build/lcd_log.o
                                                  build/syscalls.o
__libc_fini_array                                 /usr/bin/../lib/gcc/arm-none-eabi/4.9.3/../../../../arm-none-eabi/lib/cortex-m7/fpu/fpv5-sp-d16/crt0.o
__libc_init_array                                 /usr/bin/../lib/gcc/arm-none-eabi/4.9.3/../../../../arm-none-eabi/lib/cortex-m7/fpu/fpv5-sp-d16/libc_nano.a(lib_a-init.o)
                                                  build/startup_stm32f769xx.o
                                                  /usr/bin/../lib/gcc/arm-none-eabi/4.9.3/../../../../arm-none-eabi/lib/cortex-m7/fpu/fpv5-sp-d16/crt0.o
__malloc_free_list                                /usr/bin/../lib/gcc/arm-none-eabi/4.9.3/../../../../arm-none-eabi/lib/cortex-m7/fpu/fpv5-sp-d16/libc_nano.a(lib_a-nano-mallocr.o)
                                                  /usr/bin/../lib/gcc/arm-none-eabi/4.9.3/../../../../arm-none-eabi/lib/cortex-m7/fpu/fpv5-sp-d16/libc_nano.a(lib_a-nano-freer.o)
__malloc_sbrk_start                               /usr/bin/../lib/gcc/arm-none-eabi/4.9.3/../../../../arm-none-eabi/lib/cortex-m7/fpu/fpv5-sp-d16/libc_nano.a(lib_a-nano-mallocr.o)
__preinit_array_end                               /usr/bin/../lib/gcc/arm-none-eabi/4.9.3/../../../../arm-none-eabi/lib/cortex-m7/fpu/fpv5-sp-d16/libc_nano.a(lib_a-init.o)
__preinit_array_start                             /usr/bin/../lib/gcc/arm-none-eabi/4.9.3/../../../../arm-none-eabi/lib/cortex-m7/fpu/fpv5-sp-d16/libc_nano.a(lib_a-init.o)
__register_frame_info                             /usr/bin/../lib/gcc/arm-none-eabi/4.9.3/cortex-m7/fpu/fpv5-sp-d16/crtbegin.o
__sclose                                          /usr/bin/../lib/gcc/arm-none-eabi/4.9.3/../../../../arm-none-eabi/lib/cortex-m7/fpu/fpv5-sp-d16/libc_nano.a(lib_a-stdio.o)
                                                  /usr/bin/../lib/gcc/arm-none-eabi/4.9.3/../../../../arm-none-eabi/lib/cortex-m7/fpu/fpv5-sp-d16/libc_nano.a(lib_a-findfp.o)
__seofread                                        /usr/bin/../lib/gcc/arm-none-eabi/4.9.3/../../../../arm-none-eabi/lib/cortex-m7/fpu/fpv5-sp-d16/libc_nano.a(lib_a-stdio.o)
__sf_fake_stderr                                  /usr/bin/../lib/gcc/arm-none-eabi/4.9.3/../../../../arm-none-eabi/lib/cortex-m7/fpu/fpv5-sp-d16/libc_nano.a(lib_a-findfp.o)
                                                  /usr/bin/../lib/gcc/arm-none-eabi/4.9.3/../../../../arm-none-eabi/lib/cortex-m7/fpu/fpv5-sp-d16/libc_nano.a(lib_a-fflush.o)
                                                  /usr/bin/../lib/gcc/arm-none-eabi/4.9.3/../../../../arm-none-eabi/lib/cortex-m7/fpu/fpv5-sp-d16/libc_nano.a(lib_a-wsetup.o)
                                                  /usr/bin/../lib/gcc/arm-none-eabi/4.9.3/../../../../arm-none-eabi/lib/cortex-m7/fpu/fpv5-sp-d16/libc_nano.a(lib_a-wbuf.o)
                                                  /usr/bin/../lib/gcc/arm-none-eabi/4.9.3/../../../../arm-none-eabi/lib/cortex-m7/fpu/fpv5-sp-d16/libc_nano.a(lib_a-puts.o)
                                                  /usr/bin/../lib/gcc/arm-none-eabi/4.9.3/../../../../arm-none-eabi/lib/cortex-m7/fpu/fpv5-sp-d16/libc_nano.a(lib_a-impure.o)
__sf_fake_stdin                                   /usr/bin/../lib/gcc/arm-none-eabi/4.9.3/../../../../arm-none-eabi/lib/cortex-m7/fpu/fpv5-sp-d16/libc_nano.a(lib_a-findfp.o)
                                                  /usr/bin/../lib/gcc/arm-none-eabi/4.9.3/../../../../arm-none-eabi/lib/cortex-m7/fpu/fpv5-sp-d16/libc_nano.a(lib_a-fflush.o)
                                                  /usr/bin/../lib/gcc/arm-none-eabi/4.9.3/../../../../arm-none-eabi/lib/cortex-m7/fpu/fpv5-sp-d16/libc_nano.a(lib_a-wsetup.o)
                                                  /usr/bin/../lib/gcc/arm-none-eabi/4.9.3/../../../../arm-none-eabi/lib/cortex-m7/fpu/fpv5-sp-d16/libc_nano.a(lib_a-wbuf.o)
                                                  /usr/bin/../lib/gcc/arm-none-eabi/4.9.3/../../../../arm-none-eabi/lib/cortex-m7/fpu/fpv5-sp-d16/libc_nano.a(lib_a-puts.o)
                                                  /usr/bin/../lib/gcc/arm-none-eabi/4.9.3/../../../../arm-none-eabi/lib/cortex-m7/fpu/fpv5-sp-d16/libc_nano.a(lib_a-impure.o)
__sf_fake_stdout                                  /usr/bin/../lib/gcc/arm-none-eabi/4.9.3/../../../../arm-none-eabi/lib/cortex-m7/fpu/fpv5-sp-d16/libc_nano.a(lib_a-findfp.o)
                                                  /usr/bin/../lib/gcc/arm-none-eabi/4.9.3/../../../../arm-none-eabi/lib/cortex-m7/fpu/fpv5-sp-d16/libc_nano.a(lib_a-fflush.o)
                                                  /usr/bin/../lib/gcc/arm-none-eabi/4.9.3/../../../../arm-none-eabi/lib/cortex-m7/fpu/fpv5-sp-d16/libc_nano.a(lib_a-wsetup.o)
                                                  /usr/bin/../lib/gcc/arm-none-eabi/4.9.3/../../../../arm-none-eabi/lib/cortex-m7/fpu/fpv5-sp-d16/libc_nano.a(lib_a-wbuf.o)
                                                  /usr/bin/../lib/gcc/arm-none-eabi/4.9.3/../../../../arm-none-eabi/lib/cortex-m7/fpu/fpv5-sp-d16/libc_nano.a(lib_a-puts.o)
                                                  /usr/bin/../lib/gcc/arm-none-eabi/4.9.3/../../../../arm-none-eabi/lib/cortex-m7/fpu/fpv5-sp-d16/libc_nano.a(lib_a-impure.o)
__sflush_r                                        /usr/bin/../lib/gcc/arm-none-eabi/4.9.3/../../../../arm-none-eabi/lib/cortex-m7/fpu/fpv5-sp-d16/libc_nano.a(lib_a-fflush.o)
__sfmoreglue                                      /usr/bin/../lib/gcc/arm-none-eabi/4.9.3/../../../../arm-none-eabi/lib/cortex-m7/fpu/fpv5-sp-d16/libc_nano.a(lib_a-findfp.o)
__sfp                                             /usr/bin/../lib/gcc/arm-none-eabi/4.9.3/../../../../arm-none-eabi/lib/cortex-m7/fpu/fpv5-sp-d16/libc_nano.a(lib_a-findfp.o)
__sfp_lock_acquire                                /usr/bin/../lib/gcc/arm-none-eabi/4.9.3/../../../../arm-none-eabi/lib/cortex-m7/fpu/fpv5-sp-d16/libc_nano.a(lib_a-findfp.o)
__sfp_lock_release                                /usr/bin/../lib/gcc/arm-none-eabi/4.9.3/../../../../arm-none-eabi/lib/cortex-m7/fpu/fpv5-sp-d16/libc_nano.a(lib_a-findfp.o)
__sinit                                           /usr/bin/../lib/gcc/arm-none-eabi/4.9.3/../../../../arm-none-eabi/lib/cortex-m7/fpu/fpv5-sp-d16/libc_nano.a(lib_a-findfp.o)
                                                  /usr/bin/../lib/gcc/arm-none-eabi/4.9.3/../../../../arm-none-eabi/lib/cortex-m7/fpu/fpv5-sp-d16/libc_nano.a(lib_a-fflush.o)
                                                  /usr/bin/../lib/gcc/arm-none-eabi/4.9.3/../../../../arm-none-eabi/lib/cortex-m7/fpu/fpv5-sp-d16/libc_nano.a(lib_a-wsetup.o)
                                                  /usr/bin/../lib/gcc/arm-none-eabi/4.9.3/../../../../arm-none-eabi/lib/cortex-m7/fpu/fpv5-sp-d16/libc_nano.a(lib_a-wbuf.o)
                                                  /usr/bin/../lib/gcc/arm-none-eabi/4.9.3/../../../../arm-none-eabi/lib/cortex-m7/fpu/fpv5-sp-d16/libc_nano.a(lib_a-puts.o)
__sinit_lock_acquire                              /usr/bin/../lib/gcc/arm-none-eabi/4.9.3/../../../../arm-none-eabi/lib/cortex-m7/fpu/fpv5-sp-d16/libc_nano.a(lib_a-findfp.o)
__sinit_lock_release                              /usr/bin/../lib/gcc/arm-none-eabi/4.9.3/../../../../arm-none-eabi/lib/cortex-m7/fpu/fpv5-sp-d16/libc_nano.a(lib_a-findfp.o)
__smakebuf_r                                      /usr/bin/../lib/gcc/arm-none-eabi/4.9.3/../../../../arm-none-eabi/lib/cortex-m7/fpu/fpv5-sp-d16/libc_nano.a(lib_a-makebuf.o)
                                                  /usr/bin/../lib/gcc/arm-none-eabi/4.9.3/../../../../arm-none-eabi/lib/cortex-m7/fpu/fpv5-sp-d16/libc_nano.a(lib_a-wsetup.o)
__sread                                           /usr/bin/../lib/gcc/arm-none-eabi/4.9.3/../../../../arm-none-eabi/lib/cortex-m7/fpu/fpv5-sp-d16/libc_nano.a(lib_a-stdio.o)
                                                  /usr/bin/../lib/gcc/arm-none-eabi/4.9.3/../../../../arm-none-eabi/lib/cortex-m7/fpu/fpv5-sp-d16/libc_nano.a(lib_a-findfp.o)
__sseek                                           /usr/bin/../lib/gcc/arm-none-eabi/4.9.3/../../../../arm-none-eabi/lib/cortex-m7/fpu/fpv5-sp-d16/libc_nano.a(lib_a-stdio.o)
                                                  /usr/bin/../lib/gcc/arm-none-eabi/4.9.3/../../../../arm-none-eabi/lib/cortex-m7/fpu/fpv5-sp-d16/libc_nano.a(lib_a-findfp.o)
__stack                                           /usr/bin/../lib/gcc/arm-none-eabi/4.9.3/../../../../arm-none-eabi/lib/cortex-m7/fpu/fpv5-sp-d16/crt0.o
__swbuf                                           /usr/bin/../lib/gcc/arm-none-eabi/4.9.3/../../../../arm-none-eabi/lib/cortex-m7/fpu/fpv5-sp-d16/libc_nano.a(lib_a-wbuf.o)
__swbuf_r                                         /usr/bin/../lib/gcc/arm-none-eabi/4.9.3/../../../../arm-none-eabi/lib/cortex-m7/fpu/fpv5-sp-d16/libc_nano.a(lib_a-wbuf.o)
                                                  /usr/bin/../lib/gcc/arm-none-eabi/4.9.3/../../../../arm-none-eabi/lib/cortex-m7/fpu/fpv5-sp-d16/libc_nano.a(lib_a-puts.o)
__swrite                                          /usr/bin/../lib/gcc/arm-none-eabi/4.9.3/../../../../arm-none-eabi/lib/cortex-m7/fpu/fpv5-sp-d16/libc_nano.a(lib_a-stdio.o)
                                                  /usr/bin/../lib/gcc/arm-none-eabi/4.9.3/../../../../arm-none-eabi/lib/cortex-m7/fpu/fpv5-sp-d16/libc_nano.a(lib_a-findfp.o)
__swsetup_r                                       /usr/bin/../lib/gcc/arm-none-eabi/4.9.3/../../../../arm-none-eabi/lib/cortex-m7/fpu/fpv5-sp-d16/libc_nano.a(lib_a-wsetup.o)
                                                  /usr/bin/../lib/gcc/arm-none-eabi/4.9.3/../../../../arm-none-eabi/lib/cortex-m7/fpu/fpv5-sp-d16/libc_nano.a(lib_a-wbuf.o)
                                                  /usr/bin/../lib/gcc/arm-none-eabi/4.9.3/../../../../arm-none-eabi/lib/cortex-m7/fpu/fpv5-sp-d16/libc_nano.a(lib_a-puts.o)
_cleanup                                          /usr/bin/../lib/gcc/arm-none-eabi/4.9.3/../../../../arm-none-eabi/lib/cortex-m7/fpu/fpv5-sp-d16/libc_nano.a(lib_a-findfp.o)
_cleanup_r                                        /usr/bin/../lib/gcc/arm-none-eabi/4.9.3/../../../../arm-none-eabi/lib/cortex-m7/fpu/fpv5-sp-d16/libc_nano.a(lib_a-findfp.o)
                                                  /usr/bin/../lib/gcc/arm-none-eabi/4.9.3/../../../../arm-none-eabi/lib/cortex-m7/fpu/fpv5-sp-d16/libc_nano.a(lib_a-makebuf.o)
_close                                            build/syscalls.o
                                                  /usr/bin/../lib/gcc/arm-none-eabi/4.9.3/../../../../arm-none-eabi/lib/cortex-m7/fpu/fpv5-sp-d16/libc_nano.a(lib_a-closer.o)
_close_r                                          /usr/bin/../lib/gcc/arm-none-eabi/4.9.3/../../../../arm-none-eabi/lib/cortex-m7/fpu/fpv5-sp-d16/libc_nano.a(lib_a-closer.o)
                                                  /usr/bin/../lib/gcc/arm-none-eabi/4.9.3/../../../../arm-none-eabi/lib/cortex-m7/fpu/fpv5-sp-d16/libc_nano.a(lib_a-stdio.o)
_ebss                                             build/startup_stm32f769xx.o
_edata                                            build/startup_stm32f769xx.o
_estack                                           build/startup_stm32f769xx.o
_execve                                           build/syscalls.o
_exit                                             build/syscalls.o
                                                  /usr/bin/../lib/gcc/arm-none-eabi/4.9.3/../../../../arm-none-eabi/lib/cortex-m7/fpu/fpv5-sp-d16/libc_nano.a(lib_a-exit.o)
_fflush_r                                         /usr/bin/../lib/gcc/arm-none-eabi/4.9.3/../../../../arm-none-eabi/lib/cortex-m7/fpu/fpv5-sp-d16/libc_nano.a(lib_a-fflush.o)
                                                  /usr/bin/../lib/gcc/arm-none-eabi/4.9.3/../../../../arm-none-eabi/lib/cortex-m7/fpu/fpv5-sp-d16/libc_nano.a(lib_a-findfp.o)
                                                  /usr/bin/../lib/gcc/arm-none-eabi/4.9.3/../../../../arm-none-eabi/lib/cortex-m7/fpu/fpv5-sp-d16/libc_nano.a(lib_a-wbuf.o)
_fini                                             /usr/bin/../lib/gcc/arm-none-eabi/4.9.3/cortex-m7/fpu/fpv5-sp-d16/crti.o
_fork                                             build/syscalls.o
_free_r                                           /usr/bin/../lib/gcc/arm-none-eabi/4.9.3/../../../../arm-none-eabi/lib/cortex-m7/fpu/fpv5-sp-d16/libc_nano.a(lib_a-nano-freer.o)
                                                  /usr/bin/../lib/gcc/arm-none-eabi/4.9.3/../../../../arm-none-eabi/lib/cortex-m7/fpu/fpv5-sp-d16/libc_nano.a(lib_a-reent.o)
                                                  /usr/bin/../lib/gcc/arm-none-eabi/4.9.3/../../../../arm-none-eabi/lib/cortex-m7/fpu/fpv5-sp-d16/libc_nano.a(lib_a-fflush.o)
                                                  /usr/bin/../lib/gcc/arm-none-eabi/4.9.3/../../../../arm-none-eabi/lib/cortex-m7/fpu/fpv5-sp-d16/libc_nano.a(lib_a-wsetup.o)
_fstat                                            build/syscalls.o
                                                  /usr/bin/../lib/gcc/arm-none-eabi/4.9.3/../../../../arm-none-eabi/lib/cortex-m7/fpu/fpv5-sp-d16/libc_nano.a(lib_a-fstatr.o)
_fstat_r                                          /usr/bin/../lib/gcc/arm-none-eabi/4.9.3/../../../../arm-none-eabi/lib/cortex-m7/fpu/fpv5-sp-d16/libc_nano.a(lib_a-fstatr.o)
                                                  /usr/bin/../lib/gcc/arm-none-eabi/4.9.3/../../../../arm-none-eabi/lib/cortex-m7/fpu/fpv5-sp-d16/libc_nano.a(lib_a-makebuf.o)
_fwalk                                            /usr/bin/../lib/gcc/arm-none-eabi/4.9.3/../../../../arm-none-eabi/lib/cortex-m7/fpu/fpv5-sp-d16/libc_nano.a(lib_a-fwalk.o)
                                                  /usr/bin/../lib/gcc/arm-none-eabi/4.9.3/../../../../arm-none-eabi/lib/cortex-m7/fpu/fpv5-sp-d16/libc_nano.a(lib_a-findfp.o)
_fwalk_reent                                      /usr/bin/../lib/gcc/arm-none-eabi/4.9.3/../../../../arm-none-eabi/lib/cortex-m7/fpu/fpv5-sp-d16/libc_nano.a(lib_a-fwalk.o)
                                                  /usr/bin/../lib/gcc/arm-none-eabi/4.9.3/../../../../arm-none-eabi/lib/cortex-m7/fpu/fpv5-sp-d16/libc_nano.a(lib_a-findfp.o)
                                                  /usr/bin/../lib/gcc/arm-none-eabi/4.9.3/../../../../arm-none-eabi/lib/cortex-m7/fpu/fpv5-sp-d16/libc_nano.a(lib_a-fflush.o)
_getpid                                           build/syscalls.o
_gettimeofday                                     build/syscalls.o
_global_impure_ptr                                /usr/bin/../lib/gcc/arm-none-eabi/4.9.3/../../../../arm-none-eabi/lib/cortex-m7/fpu/fpv5-sp-d16/libc_nano.a(lib_a-impure.o)
                                                  /usr/bin/../lib/gcc/arm-none-eabi/4.9.3/../../../../arm-none-eabi/lib/cortex-m7/fpu/fpv5-sp-d16/libc_nano.a(lib_a-findfp.o)
                                                  /usr/bin/../lib/gcc/arm-none-eabi/4.9.3/../../../../arm-none-eabi/lib/cortex-m7/fpu/fpv5-sp-d16/libc_nano.a(lib_a-fflush.o)
                                                  /usr/bin/../lib/gcc/arm-none-eabi/4.9.3/../../../../arm-none-eabi/lib/cortex-m7/fpu/fpv5-sp-d16/libc_nano.a(lib_a-exit.o)
_impure_ptr                                       /usr/bin/../lib/gcc/arm-none-eabi/4.9.3/../../../../arm-none-eabi/lib/cortex-m7/fpu/fpv5-sp-d16/libc_nano.a(lib_a-impure.o)
                                                  /usr/bin/../lib/gcc/arm-none-eabi/4.9.3/../../../../arm-none-eabi/lib/cortex-m7/fpu/fpv5-sp-d16/libc_nano.a(lib_a-reent.o)
                                                  /usr/bin/../lib/gcc/arm-none-eabi/4.9.3/../../../../arm-none-eabi/lib/cortex-m7/fpu/fpv5-sp-d16/libc_nano.a(lib_a-findfp.o)
                                                  /usr/bin/../lib/gcc/arm-none-eabi/4.9.3/../../../../arm-none-eabi/lib/cortex-m7/fpu/fpv5-sp-d16/libc_nano.a(lib_a-fflush.o)
                                                  /usr/bin/../lib/gcc/arm-none-eabi/4.9.3/../../../../arm-none-eabi/lib/cortex-m7/fpu/fpv5-sp-d16/libc_nano.a(lib_a-wsetup.o)
                                                  /usr/bin/../lib/gcc/arm-none-eabi/4.9.3/../../../../arm-none-eabi/lib/cortex-m7/fpu/fpv5-sp-d16/libc_nano.a(lib_a-wbuf.o)
                                                  /usr/bin/../lib/gcc/arm-none-eabi/4.9.3/../../../../arm-none-eabi/lib/cortex-m7/fpu/fpv5-sp-d16/libc_nano.a(lib_a-puts.o)
                                                  /usr/bin/../lib/gcc/arm-none-eabi/4.9.3/../../../../arm-none-eabi/lib/cortex-m7/fpu/fpv5-sp-d16/libc_nano.a(lib_a-errno.o)
_init                                             /usr/bin/../lib/gcc/arm-none-eabi/4.9.3/cortex-m7/fpu/fpv5-sp-d16/crti.o
                                                  /usr/bin/../lib/gcc/arm-none-eabi/4.9.3/../../../../arm-none-eabi/lib/cortex-m7/fpu/fpv5-sp-d16/libc_nano.a(lib_a-init.o)
_isatty                                           build/syscalls.o
                                                  /usr/bin/../lib/gcc/arm-none-eabi/4.9.3/../../../../arm-none-eabi/lib/cortex-m7/fpu/fpv5-sp-d16/libc_nano.a(lib_a-isattyr.o)
_isatty_r                                         /usr/bin/../lib/gcc/arm-none-eabi/4.9.3/../../../../arm-none-eabi/lib/cortex-m7/fpu/fpv5-sp-d16/libc_nano.a(lib_a-isattyr.o)
                                                  /usr/bin/../lib/gcc/arm-none-eabi/4.9.3/../../../../arm-none-eabi/lib/cortex-m7/fpu/fpv5-sp-d16/libc_nano.a(lib_a-makebuf.o)
_kill                                             build/syscalls.o
_link                                             build/syscalls.o
_lseek                                            build/syscalls.o
                                                  /usr/bin/../lib/gcc/arm-none-eabi/4.9.3/../../../../arm-none-eabi/lib/cortex-m7/fpu/fpv5-sp-d16/libc_nano.a(lib_a-lseekr.o)
_lseek_r                                          /usr/bin/../lib/gcc/arm-none-eabi/4.9.3/../../../../arm-none-eabi/lib/cortex-m7/fpu/fpv5-sp-d16/libc_nano.a(lib_a-lseekr.o)
                                                  /usr/bin/../lib/gcc/arm-none-eabi/4.9.3/../../../../arm-none-eabi/lib/cortex-m7/fpu/fpv5-sp-d16/libc_nano.a(lib_a-stdio.o)
_mainCRTStartup                                   /usr/bin/../lib/gcc/arm-none-eabi/4.9.3/../../../../arm-none-eabi/lib/cortex-m7/fpu/fpv5-sp-d16/crt0.o
_malloc_r                                         /usr/bin/../lib/gcc/arm-none-eabi/4.9.3/../../../../arm-none-eabi/lib/cortex-m7/fpu/fpv5-sp-d16/libc_nano.a(lib_a-nano-mallocr.o)
                                                  /usr/bin/../lib/gcc/arm-none-eabi/4.9.3/../../../../arm-none-eabi/lib/cortex-m7/fpu/fpv5-sp-d16/libc_nano.a(lib_a-makebuf.o)
                                                  /usr/bin/../lib/gcc/arm-none-eabi/4.9.3/../../../../arm-none-eabi/lib/cortex-m7/fpu/fpv5-sp-d16/libc_nano.a(lib_a-findfp.o)
_open                                             build/syscalls.o
_puts_r                                           /usr/bin/../lib/gcc/arm-none-eabi/4.9.3/../../../../arm-none-eabi/lib/cortex-m7/fpu/fpv5-sp-d16/libc_nano.a(lib_a-puts.o)
_read                                             build/syscalls.o
                                                  /usr/bin/../lib/gcc/arm-none-eabi/4.9.3/../../../../arm-none-eabi/lib/cortex-m7/fpu/fpv5-sp-d16/libc_nano.a(lib_a-readr.o)
_read_r                                           /usr/bin/../lib/gcc/arm-none-eabi/4.9.3/../../../../arm-none-eabi/lib/cortex-m7/fpu/fpv5-sp-d16/libc_nano.a(lib_a-readr.o)
                                                  /usr/bin/../lib/gcc/arm-none-eabi/4.9.3/../../../../arm-none-eabi/lib/cortex-m7/fpu/fpv5-sp-d16/libc_nano.a(lib_a-stdio.o)
_reclaim_reent                                    /usr/bin/../lib/gcc/arm-none-eabi/4.9.3/../../../../arm-none-eabi/lib/cortex-m7/fpu/fpv5-sp-d16/libc_nano.a(lib_a-reent.o)
_sbrk                                             build/syscalls.o
                                                  /usr/bin/../lib/gcc/arm-none-eabi/4.9.3/../../../../arm-none-eabi/lib/cortex-m7/fpu/fpv5-sp-d16/libc_nano.a(lib_a-sbrkr.o)
_sbrk_r                                           /usr/bin/../lib/gcc/arm-none-eabi/4.9.3/../../../../arm-none-eabi/lib/cortex-m7/fpu/fpv5-sp-d16/libc_nano.a(lib_a-sbrkr.o)
                                                  /usr/bin/../lib/gcc/arm-none-eabi/4.9.3/../../../../arm-none-eabi/lib/cortex-m7/fpu/fpv5-sp-d16/libc_nano.a(lib_a-nano-mallocr.o)
_sbss                                             build/startup_stm32f769xx.o
_sdata                                            build/startup_stm32f769xx.o
_sidata                                           build/startup_stm32f769xx.o
_start                                            /usr/bin/../lib/gcc/arm-none-eabi/4.9.3/../../../../arm-none-eabi/lib/cortex-m7/fpu/fpv5-sp-d16/crt0.o
_stat                                             build/syscalls.o
_times                                            build/syscalls.o
_unlink                                           build/syscalls.o
_wait                                             build/syscalls.o
_write                                            build/syscalls.o
                                                  /usr/bin/../lib/gcc/arm-none-eabi/4.9.3/../../../../arm-none-eabi/lib/cortex-m7/fpu/fpv5-sp-d16/libc_nano.a(lib_a-writer.o)
_write_r                                          /usr/bin/../lib/gcc/arm-none-eabi/4.9.3/../../../../arm-none-eabi/lib/cortex-m7/fpu/fpv5-sp-d16/libc_nano.a(lib_a-writer.o)
                                                  /usr/bin/../lib/gcc/arm-none-eabi/4.9.3/../../../../arm-none-eabi/lib/cortex-m7/fpu/fpv5-sp-d16/libc_nano.a(lib_a-stdio.o)
atexit                                            /usr/bin/../lib/gcc/arm-none-eabi/4.9.3/../../../../arm-none-eabi/lib/cortex-m7/fpu/fpv5-sp-d16/crt0.o
cleanup_glue                                      /usr/bin/../lib/gcc/arm-none-eabi/4.9.3/../../../../arm-none-eabi/lib/cortex-m7/fpu/fpv5-sp-d16/libc_nano.a(lib_a-reent.o)
eTaskGetState                                     build/tasks.o
end                                               build/syscalls.o
errno                                             /usr/bin/../lib/gcc/arm-none-eabi/4.9.3/../../../../arm-none-eabi/lib/cortex-m7/fpu/fpv5-sp-d16/libc_nano.a(lib_a-reent.o)
                                                  /usr/bin/../lib/gcc/arm-none-eabi/4.9.3/../../../../arm-none-eabi/lib/cortex-m7/fpu/fpv5-sp-d16/libc_nano.a(lib_a-readr.o)
                                                  /usr/bin/../lib/gcc/arm-none-eabi/4.9.3/../../../../arm-none-eabi/lib/cortex-m7/fpu/fpv5-sp-d16/libc_nano.a(lib_a-lseekr.o)
                                                  /usr/bin/../lib/gcc/arm-none-eabi/4.9.3/../../../../arm-none-eabi/lib/cortex-m7/fpu/fpv5-sp-d16/libc_nano.a(lib_a-isattyr.o)
                                                  /usr/bin/../lib/gcc/arm-none-eabi/4.9.3/../../../../arm-none-eabi/lib/cortex-m7/fpu/fpv5-sp-d16/libc_nano.a(lib_a-fstatr.o)
                                                  /usr/bin/../lib/gcc/arm-none-eabi/4.9.3/../../../../arm-none-eabi/lib/cortex-m7/fpu/fpv5-sp-d16/libc_nano.a(lib_a-closer.o)
                                                  /usr/bin/../lib/gcc/arm-none-eabi/4.9.3/../../../../arm-none-eabi/lib/cortex-m7/fpu/fpv5-sp-d16/libc_nano.a(lib_a-writer.o)
                                                  /usr/bin/../lib/gcc/arm-none-eabi/4.9.3/../../../../arm-none-eabi/lib/cortex-m7/fpu/fpv5-sp-d16/libc_nano.a(lib_a-sbrkr.o)
exit                                              /usr/bin/../lib/gcc/arm-none-eabi/4.9.3/../../../../arm-none-eabi/lib/cortex-m7/fpu/fpv5-sp-d16/libc_nano.a(lib_a-exit.o)
                                                  /usr/bin/../lib/gcc/arm-none-eabi/4.9.3/../../../../arm-none-eabi/lib/cortex-m7/fpu/fpv5-sp-d16/crt0.o
fflush                                            /usr/bin/../lib/gcc/arm-none-eabi/4.9.3/../../../../arm-none-eabi/lib/cortex-m7/fpu/fpv5-sp-d16/libc_nano.a(lib_a-fflush.o)
g_pfnVectors                                      build/startup_stm32f769xx.o
hardware_init_hook                                /usr/bin/../lib/gcc/arm-none-eabi/4.9.3/../../../../arm-none-eabi/lib/cortex-m7/fpu/fpv5-sp-d16/crt0.o
hdma2d_discovery                                  build/stm32f769i_discovery_lcd.o
hdsi_discovery                                    build/stm32f769i_discovery_lcd.o
hltdc_discovery                                   build/stm32f769i_discovery_lcd.o
hrtc                                              build/main.o
hsdram1                                           build/main.o
htim13                                            build/stm32f7xx_hal_timebase_tim.o
                                                  build/stm32f7xx_it.o
initialise_monitor_handles                        build/syscalls.o
lcdRegData1                                       build/otm8009a.o
lcdRegData10                                      build/otm8009a.o
lcdRegData11                                      build/otm8009a.o
lcdRegData12                                      build/otm8009a.o
lcdRegData13                                      build/otm8009a.o
lcdRegData14                                      build/otm8009a.o
lcdRegData15                                      build/otm8009a.o
lcdRegData16                                      build/otm8009a.o
lcdRegData17                                      build/otm8009a.o
lcdRegData18                                      build/otm8009a.o
lcdRegData19                                      build/otm8009a.o
lcdRegData2                                       build/otm8009a.o
lcdRegData20                                      build/otm8009a.o
lcdRegData21                                      build/otm8009a.o
lcdRegData22                                      build/otm8009a.o
lcdRegData23                                      build/otm8009a.o
lcdRegData24                                      build/otm8009a.o
lcdRegData25                                      build/otm8009a.o
lcdRegData27                                      build/otm8009a.o
lcdRegData28                                      build/otm8009a.o
lcdRegData3                                       build/otm8009a.o
lcdRegData4                                       build/otm8009a.o
lcdRegData5                                       build/otm8009a.o
lcdRegData6                                       build/otm8009a.o
lcdRegData7                                       build/otm8009a.o
lcdRegData8                                       build/otm8009a.o
lcdRegData9                                       build/otm8009a.o
lcd_x_size                                        build/stm32f769i_discovery_lcd.o
lcd_y_size                                        build/stm32f769i_discovery_lcd.o
main                                              build/main.o
                                                  build/startup_stm32f769xx.o
                                                  /usr/bin/../lib/gcc/arm-none-eabi/4.9.3/../../../../arm-none-eabi/lib/cortex-m7/fpu/fpv5-sp-d16/crt0.o
memcpy                                            /usr/bin/../lib/gcc/arm-none-eabi/4.9.3/../../../../arm-none-eabi/lib/cortex-m7/fpu/fpv5-sp-d16/libc_nano.a(lib_a-memcpy.o)
                                                  build/queue.o
memset                                            /usr/bin/../lib/gcc/arm-none-eabi/4.9.3/../../../../arm-none-eabi/lib/cortex-m7/fpu/fpv5-sp-d16/libc_nano.a(lib_a-memset.o)
                                                  /usr/bin/../lib/gcc/arm-none-eabi/4.9.3/../../../../arm-none-eabi/lib/cortex-m7/fpu/fpv5-sp-d16/libc_nano.a(lib_a-findfp.o)
                                                  build/tasks.o
                                                  /usr/bin/../lib/gcc/arm-none-eabi/4.9.3/../../../../arm-none-eabi/lib/cortex-m7/fpu/fpv5-sp-d16/crt0.o
mfxstm32l152                                      build/mfxstm32l152.o
mfxstm32l152_ClearGlobalIT                        build/mfxstm32l152.o
mfxstm32l152_DeInit                               build/mfxstm32l152.o
mfxstm32l152_DisableITSource                      build/mfxstm32l152.o
mfxstm32l152_EnableITSource                       build/mfxstm32l152.o
mfxstm32l152_Error_ClearIT                        build/mfxstm32l152.o
mfxstm32l152_Error_DisableIT                      build/mfxstm32l152.o
mfxstm32l152_Error_EnableIT                       build/mfxstm32l152.o
mfxstm32l152_Error_GetITStatus                    build/mfxstm32l152.o
mfxstm32l152_Error_ReadMsg                        build/mfxstm32l152.o
mfxstm32l152_Error_ReadSrc                        build/mfxstm32l152.o
mfxstm32l152_GlobalITStatus                       build/mfxstm32l152.o
mfxstm32l152_IDD_ClearIT                          build/mfxstm32l152.o
mfxstm32l152_IDD_Config                           build/mfxstm32l152.o
mfxstm32l152_IDD_ConfigShuntNbLimit               build/mfxstm32l152.o
mfxstm32l152_IDD_DisableIT                        build/mfxstm32l152.o
mfxstm32l152_IDD_EnableIT                         build/mfxstm32l152.o
mfxstm32l152_IDD_GetITStatus                      build/mfxstm32l152.o
mfxstm32l152_IDD_GetShuntUsed                     build/mfxstm32l152.o
mfxstm32l152_IDD_GetValue                         build/mfxstm32l152.o
mfxstm32l152_IDD_Start                            build/mfxstm32l152.o
mfxstm32l152_IO_ClearIT                           build/mfxstm32l152.o
mfxstm32l152_IO_Config                            build/mfxstm32l152.o
mfxstm32l152_IO_DisableAF                         build/mfxstm32l152.o
mfxstm32l152_IO_DisableIT                         build/mfxstm32l152.o
mfxstm32l152_IO_DisablePinIT                      build/mfxstm32l152.o
mfxstm32l152_IO_EnableAF                          build/mfxstm32l152.o
mfxstm32l152_IO_EnableIT                          build/mfxstm32l152.o
mfxstm32l152_IO_EnablePinIT                       build/mfxstm32l152.o
mfxstm32l152_IO_ITStatus                          build/mfxstm32l152.o
mfxstm32l152_IO_InitPin                           build/mfxstm32l152.o
mfxstm32l152_IO_ReadPin                           build/mfxstm32l152.o
mfxstm32l152_IO_SetIrqEvtMode                     build/mfxstm32l152.o
mfxstm32l152_IO_SetIrqTypeMode                    build/mfxstm32l152.o
mfxstm32l152_IO_Start                             build/mfxstm32l152.o
mfxstm32l152_IO_WritePin                          build/mfxstm32l152.o
mfxstm32l152_Init                                 build/mfxstm32l152.o
mfxstm32l152_LowPower                             build/mfxstm32l152.o
mfxstm32l152_ReadFwVersion                        build/mfxstm32l152.o
mfxstm32l152_ReadID                               build/mfxstm32l152.o
mfxstm32l152_ReadReg                              build/mfxstm32l152.o
mfxstm32l152_Reset                                build/mfxstm32l152.o
mfxstm32l152_SetIrqOutPinPolarity                 build/mfxstm32l152.o
mfxstm32l152_SetIrqOutPinType                     build/mfxstm32l152.o
mfxstm32l152_TS_ClearIT                           build/mfxstm32l152.o
mfxstm32l152_TS_DetectTouch                       build/mfxstm32l152.o
mfxstm32l152_TS_DisableIT                         build/mfxstm32l152.o
mfxstm32l152_TS_EnableIT                          build/mfxstm32l152.o
mfxstm32l152_TS_GetXY                             build/mfxstm32l152.o
mfxstm32l152_TS_ITStatus                          build/mfxstm32l152.o
mfxstm32l152_TS_Start                             build/mfxstm32l152.o
mfxstm32l152_WakeUp                               build/mfxstm32l152.o
mfxstm32l152_WriteReg                             build/mfxstm32l152.o
mfxstm32l152_idd_drv                              build/mfxstm32l152.o
mfxstm32l152_io_drv                               build/mfxstm32l152.o
mfxstm32l152_ts_drv                               build/mfxstm32l152.o
pFlash                                            build/stm32f7xx_hal_flash.o
                                                  build/stm32f7xx_hal_flash_ex.o
pcQueueGetName                                    build/queue.o
pcTaskGetName                                     build/tasks.o
puts                                              /usr/bin/../lib/gcc/arm-none-eabi/4.9.3/../../../../arm-none-eabi/lib/cortex-m7/fpu/fpv5-sp-d16/libc_nano.a(lib_a-puts.o)
                                                  build/main.o
pvPortMalloc                                      build/heap_4.o
                                                  build/tasks.o
                                                  build/queue.o
pvTaskIncrementMutexHeldCount                     build/tasks.o
                                                  build/queue.o
pxCurrentTCB                                      build/tasks.o
                                                  build/port.o
pxPortInitialiseStack                             build/port.o
                                                  build/tasks.o
sdramHandle                                       build/stm32f769i_discovery_sdram.o
software_init_hook                                /usr/bin/../lib/gcc/arm-none-eabi/4.9.3/../../../../arm-none-eabi/lib/cortex-m7/fpu/fpv5-sp-d16/crt0.o
ucQueueGetQueueType                               build/queue.o
ulTaskNotifyTake                                  build/tasks.o
uwIncrementState                                  build/stm32f7xx_hal_timebase_tim.o
uwTick                                            build/stm32f7xx_hal.o
uxListRemove                                      build/list.o
                                                  build/tasks.o
uxQueueGetQueueNumber                             build/queue.o
uxQueueMessagesWaiting                            build/queue.o
uxQueueMessagesWaitingFromISR                     build/queue.o
uxQueueSpacesAvailable                            build/queue.o
uxTaskGetNumberOfTasks                            build/tasks.o
uxTaskGetSystemState                              build/tasks.o
uxTaskGetTaskNumber                               build/tasks.o
uxTaskPriorityGet                                 build/tasks.o
uxTaskPriorityGetFromISR                          build/tasks.o
uxTaskResetEventItemValue                         build/tasks.o
vListInitialise                                   build/list.o
                                                  build/tasks.o
                                                  build/queue.o
vListInitialiseItem                               build/list.o
                                                  build/tasks.o
vListInsert                                       build/list.o
                                                  build/tasks.o
vListInsertEnd                                    build/list.o
                                                  build/tasks.o
vPortEndScheduler                                 build/port.o
                                                  build/tasks.o
vPortEnterCritical                                build/port.o
                                                  build/tasks.o
                                                  build/queue.o
vPortExitCritical                                 build/port.o
                                                  build/tasks.o
                                                  build/queue.o
vPortFree                                         build/heap_4.o
                                                  build/tasks.o
                                                  build/queue.o
vPortInitialiseBlocks                             build/heap_4.o
vPortSetupTimerInterrupt                          build/port.o
vPortValidateInterruptPriority                    build/port.o
                                                  build/tasks.o
                                                  build/queue.o
vQueueAddToRegistry                               build/queue.o
vQueueDelete                                      build/queue.o
vQueueSetQueueNumber                              build/queue.o
vQueueUnregisterQueue                             build/queue.o
vTaskDelay                                        build/tasks.o
                                                  build/main.o
vTaskDelete                                       build/tasks.o
vTaskEndScheduler                                 build/tasks.o
vTaskGetInfo                                      build/tasks.o
vTaskMissedYield                                  build/tasks.o
                                                  build/queue.o
vTaskNotifyGiveFromISR                            build/tasks.o
vTaskPlaceOnEventList                             build/tasks.o
                                                  build/queue.o
vTaskPlaceOnUnorderedEventList                    build/tasks.o
vTaskPriorityInherit                              build/tasks.o
                                                  build/queue.o
vTaskPrioritySet                                  build/tasks.o
vTaskResume                                       build/tasks.o
vTaskSetTaskNumber                                build/tasks.o
vTaskSetTimeOutState                              build/tasks.o
                                                  build/queue.o
vTaskStartScheduler                               build/tasks.o
                                                  build/main.o
vTaskSuspend                                      build/tasks.o
vTaskSuspendAll                                   build/tasks.o
                                                  build/queue.o
                                                  build/heap_4.o
vTaskSwitchContext                                build/tasks.o
                                                  build/port.o
xPortGetFreeHeapSize                              build/heap_4.o
xPortGetMinimumEverFreeHeapSize                   build/heap_4.o
xPortStartScheduler                               build/port.o
                                                  build/tasks.o
xPortSysTickHandler                               build/port.o
                                                  build/stm32f7xx_it.o
xQueueCreateMutex                                 build/queue.o
xQueueGenericCreate                               build/queue.o
xQueueGenericReceive                              build/queue.o
xQueueGenericReset                                build/queue.o
xQueueGenericSend                                 build/queue.o
xQueueGenericSendFromISR                          build/queue.o
xQueueGiveFromISR                                 build/queue.o
xQueueIsQueueEmptyFromISR                         build/queue.o
xQueueIsQueueFullFromISR                          build/queue.o
xQueuePeekFromISR                                 build/queue.o
xQueueReceiveFromISR                              build/queue.o
xQueueRegistry                                    build/queue.o
xTaskCheckForTimeOut                              build/tasks.o
                                                  build/queue.o
xTaskCreate                                       build/tasks.o
                                                  build/main.o
xTaskGenericNotify                                build/tasks.o
xTaskGenericNotifyFromISR                         build/tasks.o
xTaskGetCurrentTaskHandle                         build/tasks.o
xTaskGetSchedulerState                            build/tasks.o
                                                  build/stm32f7xx_it.o
                                                  build/queue.o
xTaskGetTickCount                                 build/tasks.o
xTaskGetTickCountFromISR                          build/tasks.o
xTaskIncrementTick                                build/tasks.o
                                                  build/port.o
xTaskNotifyStateClear                             build/tasks.o
xTaskNotifyWait                                   build/tasks.o
xTaskPriorityDisinherit                           build/tasks.o
                                                  build/queue.o
xTaskRemoveFromEventList                          build/tasks.o
                                                  build/queue.o
xTaskRemoveFromUnorderedEventList                 build/tasks.o
xTaskResumeAll                                    build/tasks.o
                                                  build/queue.o
                                                  build/heap_4.o
xTaskResumeFromISR                                build/tasks.o
