ARM GAS  /tmp/ccn0LRTe.s 			page 1


   1              		.syntax unified
   2              		.cpu cortex-m7
   3              		.eabi_attribute 27, 1
   4              		.eabi_attribute 28, 1
   5              		.fpu fpv5-sp-d16
   6              		.eabi_attribute 20, 1
   7              		.eabi_attribute 21, 1
   8              		.eabi_attribute 23, 3
   9              		.eabi_attribute 24, 1
  10              		.eabi_attribute 25, 1
  11              		.eabi_attribute 26, 1
  12              		.eabi_attribute 30, 6
  13              		.eabi_attribute 34, 1
  14              		.eabi_attribute 18, 4
  15              		.thumb
  16              		.file	"stm32f7xx_hal_dma_ex.c"
  17              		.text
  18              	.Ltext0:
  19              		.cfi_sections	.debug_frame
  20              		.section	.text.HAL_DMAEx_MultiBufferStart,"ax",%progbits
  21              		.align	2
  22              		.global	HAL_DMAEx_MultiBufferStart
  23              		.thumb
  24              		.thumb_func
  26              	HAL_DMAEx_MultiBufferStart:
  27              	.LFB135:
  28              		.file 1 "../../Drivers/STM32F7xx_HAL_Driver/Src/stm32f7xx_hal_dma_ex.c"
   1:../../Drivers/STM32F7xx_HAL_Driver/Src/stm32f7xx_hal_dma_ex.c **** /**
   2:../../Drivers/STM32F7xx_HAL_Driver/Src/stm32f7xx_hal_dma_ex.c ****   ******************************************************************************
   3:../../Drivers/STM32F7xx_HAL_Driver/Src/stm32f7xx_hal_dma_ex.c ****   * @file    stm32f7xx_hal_dma_ex.c
   4:../../Drivers/STM32F7xx_HAL_Driver/Src/stm32f7xx_hal_dma_ex.c ****   * @author  MCD Application Team
   5:../../Drivers/STM32F7xx_HAL_Driver/Src/stm32f7xx_hal_dma_ex.c ****   * @version V1.1.2
   6:../../Drivers/STM32F7xx_HAL_Driver/Src/stm32f7xx_hal_dma_ex.c ****   * @date    23-September-2016 
   7:../../Drivers/STM32F7xx_HAL_Driver/Src/stm32f7xx_hal_dma_ex.c ****   * @brief   DMA Extension HAL module driver
   8:../../Drivers/STM32F7xx_HAL_Driver/Src/stm32f7xx_hal_dma_ex.c ****   *         This file provides firmware functions to manage the following 
   9:../../Drivers/STM32F7xx_HAL_Driver/Src/stm32f7xx_hal_dma_ex.c ****   *         functionalities of the DMA Extension peripheral:
  10:../../Drivers/STM32F7xx_HAL_Driver/Src/stm32f7xx_hal_dma_ex.c ****   *           + Extended features functions
  11:../../Drivers/STM32F7xx_HAL_Driver/Src/stm32f7xx_hal_dma_ex.c ****   *
  12:../../Drivers/STM32F7xx_HAL_Driver/Src/stm32f7xx_hal_dma_ex.c ****   @verbatim
  13:../../Drivers/STM32F7xx_HAL_Driver/Src/stm32f7xx_hal_dma_ex.c ****   ==============================================================================
  14:../../Drivers/STM32F7xx_HAL_Driver/Src/stm32f7xx_hal_dma_ex.c ****                         ##### How to use this driver #####
  15:../../Drivers/STM32F7xx_HAL_Driver/Src/stm32f7xx_hal_dma_ex.c ****   ==============================================================================
  16:../../Drivers/STM32F7xx_HAL_Driver/Src/stm32f7xx_hal_dma_ex.c ****   [..]
  17:../../Drivers/STM32F7xx_HAL_Driver/Src/stm32f7xx_hal_dma_ex.c ****   The DMA Extension HAL driver can be used as follows:
  18:../../Drivers/STM32F7xx_HAL_Driver/Src/stm32f7xx_hal_dma_ex.c ****    (+) Start a multi buffer transfer using the HAL_DMA_MultiBufferStart() function
  19:../../Drivers/STM32F7xx_HAL_Driver/Src/stm32f7xx_hal_dma_ex.c ****        for polling mode or HAL_DMA_MultiBufferStart_IT() for interrupt mode.
  20:../../Drivers/STM32F7xx_HAL_Driver/Src/stm32f7xx_hal_dma_ex.c **** 
  21:../../Drivers/STM32F7xx_HAL_Driver/Src/stm32f7xx_hal_dma_ex.c ****      -@-  In Memory-to-Memory transfer mode, Multi (Double) Buffer mode is not allowed.
  22:../../Drivers/STM32F7xx_HAL_Driver/Src/stm32f7xx_hal_dma_ex.c ****      -@-  When Multi (Double) Buffer mode is enabled, the transfer is circular by default.
  23:../../Drivers/STM32F7xx_HAL_Driver/Src/stm32f7xx_hal_dma_ex.c ****      -@-  In Multi (Double) buffer mode, it is possible to update the base address for 
  24:../../Drivers/STM32F7xx_HAL_Driver/Src/stm32f7xx_hal_dma_ex.c ****           the AHB memory port on the fly (DMA_SxM0AR or DMA_SxM1AR) when the stream is enabled.
  25:../../Drivers/STM32F7xx_HAL_Driver/Src/stm32f7xx_hal_dma_ex.c ****   
  26:../../Drivers/STM32F7xx_HAL_Driver/Src/stm32f7xx_hal_dma_ex.c ****   @endverbatim
  27:../../Drivers/STM32F7xx_HAL_Driver/Src/stm32f7xx_hal_dma_ex.c ****   ******************************************************************************
  28:../../Drivers/STM32F7xx_HAL_Driver/Src/stm32f7xx_hal_dma_ex.c ****   * @attention
  29:../../Drivers/STM32F7xx_HAL_Driver/Src/stm32f7xx_hal_dma_ex.c ****   *
  30:../../Drivers/STM32F7xx_HAL_Driver/Src/stm32f7xx_hal_dma_ex.c ****   * <h2><center>&copy; COPYRIGHT(c) 2016 STMicroelectronics</center></h2>
ARM GAS  /tmp/ccn0LRTe.s 			page 2


  31:../../Drivers/STM32F7xx_HAL_Driver/Src/stm32f7xx_hal_dma_ex.c ****   *
  32:../../Drivers/STM32F7xx_HAL_Driver/Src/stm32f7xx_hal_dma_ex.c ****   * Redistribution and use in source and binary forms, with or without modification,
  33:../../Drivers/STM32F7xx_HAL_Driver/Src/stm32f7xx_hal_dma_ex.c ****   * are permitted provided that the following conditions are met:
  34:../../Drivers/STM32F7xx_HAL_Driver/Src/stm32f7xx_hal_dma_ex.c ****   *   1. Redistributions of source code must retain the above copyright notice,
  35:../../Drivers/STM32F7xx_HAL_Driver/Src/stm32f7xx_hal_dma_ex.c ****   *      this list of conditions and the following disclaimer.
  36:../../Drivers/STM32F7xx_HAL_Driver/Src/stm32f7xx_hal_dma_ex.c ****   *   2. Redistributions in binary form must reproduce the above copyright notice,
  37:../../Drivers/STM32F7xx_HAL_Driver/Src/stm32f7xx_hal_dma_ex.c ****   *      this list of conditions and the following disclaimer in the documentation
  38:../../Drivers/STM32F7xx_HAL_Driver/Src/stm32f7xx_hal_dma_ex.c ****   *      and/or other materials provided with the distribution.
  39:../../Drivers/STM32F7xx_HAL_Driver/Src/stm32f7xx_hal_dma_ex.c ****   *   3. Neither the name of STMicroelectronics nor the names of its contributors
  40:../../Drivers/STM32F7xx_HAL_Driver/Src/stm32f7xx_hal_dma_ex.c ****   *      may be used to endorse or promote products derived from this software
  41:../../Drivers/STM32F7xx_HAL_Driver/Src/stm32f7xx_hal_dma_ex.c ****   *      without specific prior written permission.
  42:../../Drivers/STM32F7xx_HAL_Driver/Src/stm32f7xx_hal_dma_ex.c ****   *
  43:../../Drivers/STM32F7xx_HAL_Driver/Src/stm32f7xx_hal_dma_ex.c ****   * THIS SOFTWARE IS PROVIDED BY THE COPYRIGHT HOLDERS AND CONTRIBUTORS "AS IS"
  44:../../Drivers/STM32F7xx_HAL_Driver/Src/stm32f7xx_hal_dma_ex.c ****   * AND ANY EXPRESS OR IMPLIED WARRANTIES, INCLUDING, BUT NOT LIMITED TO, THE
  45:../../Drivers/STM32F7xx_HAL_Driver/Src/stm32f7xx_hal_dma_ex.c ****   * IMPLIED WARRANTIES OF MERCHANTABILITY AND FITNESS FOR A PARTICULAR PURPOSE ARE
  46:../../Drivers/STM32F7xx_HAL_Driver/Src/stm32f7xx_hal_dma_ex.c ****   * DISCLAIMED. IN NO EVENT SHALL THE COPYRIGHT HOLDER OR CONTRIBUTORS BE LIABLE
  47:../../Drivers/STM32F7xx_HAL_Driver/Src/stm32f7xx_hal_dma_ex.c ****   * FOR ANY DIRECT, INDIRECT, INCIDENTAL, SPECIAL, EXEMPLARY, OR CONSEQUENTIAL
  48:../../Drivers/STM32F7xx_HAL_Driver/Src/stm32f7xx_hal_dma_ex.c ****   * DAMAGES (INCLUDING, BUT NOT LIMITED TO, PROCUREMENT OF SUBSTITUTE GOODS OR
  49:../../Drivers/STM32F7xx_HAL_Driver/Src/stm32f7xx_hal_dma_ex.c ****   * SERVICES; LOSS OF USE, DATA, OR PROFITS; OR BUSINESS INTERRUPTION) HOWEVER
  50:../../Drivers/STM32F7xx_HAL_Driver/Src/stm32f7xx_hal_dma_ex.c ****   * CAUSED AND ON ANY THEORY OF LIABILITY, WHETHER IN CONTRACT, STRICT LIABILITY,
  51:../../Drivers/STM32F7xx_HAL_Driver/Src/stm32f7xx_hal_dma_ex.c ****   * OR TORT (INCLUDING NEGLIGENCE OR OTHERWISE) ARISING IN ANY WAY OUT OF THE USE
  52:../../Drivers/STM32F7xx_HAL_Driver/Src/stm32f7xx_hal_dma_ex.c ****   * OF THIS SOFTWARE, EVEN IF ADVISED OF THE POSSIBILITY OF SUCH DAMAGE.
  53:../../Drivers/STM32F7xx_HAL_Driver/Src/stm32f7xx_hal_dma_ex.c ****   *
  54:../../Drivers/STM32F7xx_HAL_Driver/Src/stm32f7xx_hal_dma_ex.c ****   ******************************************************************************
  55:../../Drivers/STM32F7xx_HAL_Driver/Src/stm32f7xx_hal_dma_ex.c ****   */
  56:../../Drivers/STM32F7xx_HAL_Driver/Src/stm32f7xx_hal_dma_ex.c **** 
  57:../../Drivers/STM32F7xx_HAL_Driver/Src/stm32f7xx_hal_dma_ex.c **** /* Includes ------------------------------------------------------------------*/
  58:../../Drivers/STM32F7xx_HAL_Driver/Src/stm32f7xx_hal_dma_ex.c **** #include "stm32f7xx_hal.h"
  59:../../Drivers/STM32F7xx_HAL_Driver/Src/stm32f7xx_hal_dma_ex.c **** 
  60:../../Drivers/STM32F7xx_HAL_Driver/Src/stm32f7xx_hal_dma_ex.c **** /** @addtogroup STM32F7xx_HAL_Driver
  61:../../Drivers/STM32F7xx_HAL_Driver/Src/stm32f7xx_hal_dma_ex.c ****   * @{
  62:../../Drivers/STM32F7xx_HAL_Driver/Src/stm32f7xx_hal_dma_ex.c ****   */
  63:../../Drivers/STM32F7xx_HAL_Driver/Src/stm32f7xx_hal_dma_ex.c **** 
  64:../../Drivers/STM32F7xx_HAL_Driver/Src/stm32f7xx_hal_dma_ex.c **** /** @defgroup DMAEx DMAEx
  65:../../Drivers/STM32F7xx_HAL_Driver/Src/stm32f7xx_hal_dma_ex.c ****   * @brief DMA Extended HAL module driver
  66:../../Drivers/STM32F7xx_HAL_Driver/Src/stm32f7xx_hal_dma_ex.c ****   * @{
  67:../../Drivers/STM32F7xx_HAL_Driver/Src/stm32f7xx_hal_dma_ex.c ****   */
  68:../../Drivers/STM32F7xx_HAL_Driver/Src/stm32f7xx_hal_dma_ex.c **** 
  69:../../Drivers/STM32F7xx_HAL_Driver/Src/stm32f7xx_hal_dma_ex.c **** #ifdef HAL_DMA_MODULE_ENABLED
  70:../../Drivers/STM32F7xx_HAL_Driver/Src/stm32f7xx_hal_dma_ex.c **** 
  71:../../Drivers/STM32F7xx_HAL_Driver/Src/stm32f7xx_hal_dma_ex.c **** /* Private types -------------------------------------------------------------*/
  72:../../Drivers/STM32F7xx_HAL_Driver/Src/stm32f7xx_hal_dma_ex.c **** /* Private variables ---------------------------------------------------------*/
  73:../../Drivers/STM32F7xx_HAL_Driver/Src/stm32f7xx_hal_dma_ex.c **** /* Private Constants ---------------------------------------------------------*/
  74:../../Drivers/STM32F7xx_HAL_Driver/Src/stm32f7xx_hal_dma_ex.c **** /* Private macros ------------------------------------------------------------*/
  75:../../Drivers/STM32F7xx_HAL_Driver/Src/stm32f7xx_hal_dma_ex.c **** /* Private functions ---------------------------------------------------------*/
  76:../../Drivers/STM32F7xx_HAL_Driver/Src/stm32f7xx_hal_dma_ex.c **** /** @addtogroup DMAEx_Private_Functions
  77:../../Drivers/STM32F7xx_HAL_Driver/Src/stm32f7xx_hal_dma_ex.c ****   * @{
  78:../../Drivers/STM32F7xx_HAL_Driver/Src/stm32f7xx_hal_dma_ex.c ****   */
  79:../../Drivers/STM32F7xx_HAL_Driver/Src/stm32f7xx_hal_dma_ex.c **** 
  80:../../Drivers/STM32F7xx_HAL_Driver/Src/stm32f7xx_hal_dma_ex.c **** static void DMA_MultiBufferSetConfig(DMA_HandleTypeDef *hdma, uint32_t SrcAddress, uint32_t DstAddr
  81:../../Drivers/STM32F7xx_HAL_Driver/Src/stm32f7xx_hal_dma_ex.c **** 
  82:../../Drivers/STM32F7xx_HAL_Driver/Src/stm32f7xx_hal_dma_ex.c **** /**
  83:../../Drivers/STM32F7xx_HAL_Driver/Src/stm32f7xx_hal_dma_ex.c ****   * @}
  84:../../Drivers/STM32F7xx_HAL_Driver/Src/stm32f7xx_hal_dma_ex.c ****   */
  85:../../Drivers/STM32F7xx_HAL_Driver/Src/stm32f7xx_hal_dma_ex.c **** 
  86:../../Drivers/STM32F7xx_HAL_Driver/Src/stm32f7xx_hal_dma_ex.c **** /* Exported functions ---------------------------------------------------------*/
  87:../../Drivers/STM32F7xx_HAL_Driver/Src/stm32f7xx_hal_dma_ex.c **** 
ARM GAS  /tmp/ccn0LRTe.s 			page 3


  88:../../Drivers/STM32F7xx_HAL_Driver/Src/stm32f7xx_hal_dma_ex.c **** /** @addtogroup DMAEx_Exported_Functions
  89:../../Drivers/STM32F7xx_HAL_Driver/Src/stm32f7xx_hal_dma_ex.c ****   * @{
  90:../../Drivers/STM32F7xx_HAL_Driver/Src/stm32f7xx_hal_dma_ex.c ****   */
  91:../../Drivers/STM32F7xx_HAL_Driver/Src/stm32f7xx_hal_dma_ex.c **** 
  92:../../Drivers/STM32F7xx_HAL_Driver/Src/stm32f7xx_hal_dma_ex.c **** 
  93:../../Drivers/STM32F7xx_HAL_Driver/Src/stm32f7xx_hal_dma_ex.c **** /** @addtogroup DMAEx_Exported_Functions_Group1
  94:../../Drivers/STM32F7xx_HAL_Driver/Src/stm32f7xx_hal_dma_ex.c ****   *
  95:../../Drivers/STM32F7xx_HAL_Driver/Src/stm32f7xx_hal_dma_ex.c **** @verbatim
  96:../../Drivers/STM32F7xx_HAL_Driver/Src/stm32f7xx_hal_dma_ex.c ****  ===============================================================================
  97:../../Drivers/STM32F7xx_HAL_Driver/Src/stm32f7xx_hal_dma_ex.c ****                 #####  Extended features functions  #####
  98:../../Drivers/STM32F7xx_HAL_Driver/Src/stm32f7xx_hal_dma_ex.c ****  ===============================================================================  
  99:../../Drivers/STM32F7xx_HAL_Driver/Src/stm32f7xx_hal_dma_ex.c ****     [..]  This section provides functions allowing to:
 100:../../Drivers/STM32F7xx_HAL_Driver/Src/stm32f7xx_hal_dma_ex.c ****       (+) Configure the source, destination address and data length and 
 101:../../Drivers/STM32F7xx_HAL_Driver/Src/stm32f7xx_hal_dma_ex.c ****           Start MultiBuffer DMA transfer
 102:../../Drivers/STM32F7xx_HAL_Driver/Src/stm32f7xx_hal_dma_ex.c ****       (+) Configure the source, destination address and data length and 
 103:../../Drivers/STM32F7xx_HAL_Driver/Src/stm32f7xx_hal_dma_ex.c ****           Start MultiBuffer DMA transfer with interrupt
 104:../../Drivers/STM32F7xx_HAL_Driver/Src/stm32f7xx_hal_dma_ex.c ****       (+) Change on the fly the memory0 or memory1 address.
 105:../../Drivers/STM32F7xx_HAL_Driver/Src/stm32f7xx_hal_dma_ex.c ****       
 106:../../Drivers/STM32F7xx_HAL_Driver/Src/stm32f7xx_hal_dma_ex.c **** @endverbatim
 107:../../Drivers/STM32F7xx_HAL_Driver/Src/stm32f7xx_hal_dma_ex.c ****   * @{
 108:../../Drivers/STM32F7xx_HAL_Driver/Src/stm32f7xx_hal_dma_ex.c ****   */
 109:../../Drivers/STM32F7xx_HAL_Driver/Src/stm32f7xx_hal_dma_ex.c **** 
 110:../../Drivers/STM32F7xx_HAL_Driver/Src/stm32f7xx_hal_dma_ex.c **** 
 111:../../Drivers/STM32F7xx_HAL_Driver/Src/stm32f7xx_hal_dma_ex.c **** /**
 112:../../Drivers/STM32F7xx_HAL_Driver/Src/stm32f7xx_hal_dma_ex.c ****   * @brief  Starts the multi_buffer DMA Transfer.
 113:../../Drivers/STM32F7xx_HAL_Driver/Src/stm32f7xx_hal_dma_ex.c ****   * @param  hdma      : pointer to a DMA_HandleTypeDef structure that contains
 114:../../Drivers/STM32F7xx_HAL_Driver/Src/stm32f7xx_hal_dma_ex.c ****   *                     the configuration information for the specified DMA Stream.  
 115:../../Drivers/STM32F7xx_HAL_Driver/Src/stm32f7xx_hal_dma_ex.c ****   * @param  SrcAddress: The source memory Buffer address
 116:../../Drivers/STM32F7xx_HAL_Driver/Src/stm32f7xx_hal_dma_ex.c ****   * @param  DstAddress: The destination memory Buffer address
 117:../../Drivers/STM32F7xx_HAL_Driver/Src/stm32f7xx_hal_dma_ex.c ****   * @param  SecondMemAddress: The second memory Buffer address in case of multi buffer Transfer  
 118:../../Drivers/STM32F7xx_HAL_Driver/Src/stm32f7xx_hal_dma_ex.c ****   * @param  DataLength: The length of data to be transferred from source to destination
 119:../../Drivers/STM32F7xx_HAL_Driver/Src/stm32f7xx_hal_dma_ex.c ****   * @retval HAL status
 120:../../Drivers/STM32F7xx_HAL_Driver/Src/stm32f7xx_hal_dma_ex.c ****   */
 121:../../Drivers/STM32F7xx_HAL_Driver/Src/stm32f7xx_hal_dma_ex.c **** HAL_StatusTypeDef HAL_DMAEx_MultiBufferStart(DMA_HandleTypeDef *hdma, uint32_t SrcAddress, uint32_t
 122:../../Drivers/STM32F7xx_HAL_Driver/Src/stm32f7xx_hal_dma_ex.c **** {
  29              		.loc 1 122 0
  30              		.cfi_startproc
  31              		@ args = 4, pretend = 0, frame = 24
  32              		@ frame_needed = 1, uses_anonymous_args = 0
  33 0000 80B5     		push	{r7, lr}
  34              	.LCFI0:
  35              		.cfi_def_cfa_offset 8
  36              		.cfi_offset 7, -8
  37              		.cfi_offset 14, -4
  38 0002 86B0     		sub	sp, sp, #24
  39              	.LCFI1:
  40              		.cfi_def_cfa_offset 32
  41 0004 00AF     		add	r7, sp, #0
  42              	.LCFI2:
  43              		.cfi_def_cfa_register 7
  44 0006 F860     		str	r0, [r7, #12]
  45 0008 B960     		str	r1, [r7, #8]
  46 000a 7A60     		str	r2, [r7, #4]
  47 000c 3B60     		str	r3, [r7]
 123:../../Drivers/STM32F7xx_HAL_Driver/Src/stm32f7xx_hal_dma_ex.c ****   HAL_StatusTypeDef status = HAL_OK;
  48              		.loc 1 123 0
  49 000e 0023     		movs	r3, #0
ARM GAS  /tmp/ccn0LRTe.s 			page 4


  50 0010 FB75     		strb	r3, [r7, #23]
 124:../../Drivers/STM32F7xx_HAL_Driver/Src/stm32f7xx_hal_dma_ex.c ****   
 125:../../Drivers/STM32F7xx_HAL_Driver/Src/stm32f7xx_hal_dma_ex.c ****   /* Check the parameters */
 126:../../Drivers/STM32F7xx_HAL_Driver/Src/stm32f7xx_hal_dma_ex.c ****   assert_param(IS_DMA_BUFFER_SIZE(DataLength));
 127:../../Drivers/STM32F7xx_HAL_Driver/Src/stm32f7xx_hal_dma_ex.c ****   
 128:../../Drivers/STM32F7xx_HAL_Driver/Src/stm32f7xx_hal_dma_ex.c ****   /* Memory-to-memory transfer not supported in double buffering mode */
 129:../../Drivers/STM32F7xx_HAL_Driver/Src/stm32f7xx_hal_dma_ex.c ****   if (hdma->Init.Direction == DMA_MEMORY_TO_MEMORY)
  51              		.loc 1 129 0
  52 0012 FB68     		ldr	r3, [r7, #12]
  53 0014 9B68     		ldr	r3, [r3, #8]
  54 0016 802B     		cmp	r3, #128
  55 0018 06D1     		bne	.L2
 130:../../Drivers/STM32F7xx_HAL_Driver/Src/stm32f7xx_hal_dma_ex.c ****   {
 131:../../Drivers/STM32F7xx_HAL_Driver/Src/stm32f7xx_hal_dma_ex.c ****     hdma->ErrorCode = HAL_DMA_ERROR_NOT_SUPPORTED;
  56              		.loc 1 131 0
  57 001a FB68     		ldr	r3, [r7, #12]
  58 001c 4FF48072 		mov	r2, #256
  59 0020 5A65     		str	r2, [r3, #84]
 132:../../Drivers/STM32F7xx_HAL_Driver/Src/stm32f7xx_hal_dma_ex.c ****     status = HAL_ERROR;
  60              		.loc 1 132 0
  61 0022 0123     		movs	r3, #1
  62 0024 FB75     		strb	r3, [r7, #23]
  63 0026 31E0     		b	.L3
  64              	.L2:
 133:../../Drivers/STM32F7xx_HAL_Driver/Src/stm32f7xx_hal_dma_ex.c ****   }
 134:../../Drivers/STM32F7xx_HAL_Driver/Src/stm32f7xx_hal_dma_ex.c ****   else
 135:../../Drivers/STM32F7xx_HAL_Driver/Src/stm32f7xx_hal_dma_ex.c ****   {
 136:../../Drivers/STM32F7xx_HAL_Driver/Src/stm32f7xx_hal_dma_ex.c ****     /* Process Locked */
 137:../../Drivers/STM32F7xx_HAL_Driver/Src/stm32f7xx_hal_dma_ex.c ****     __HAL_LOCK(hdma);
  65              		.loc 1 137 0
  66 0028 FB68     		ldr	r3, [r7, #12]
  67 002a 93F83430 		ldrb	r3, [r3, #52]	@ zero_extendqisi2
  68 002e 012B     		cmp	r3, #1
  69 0030 01D1     		bne	.L4
  70              		.loc 1 137 0 is_stmt 0 discriminator 1
  71 0032 0223     		movs	r3, #2
  72 0034 2BE0     		b	.L5
  73              	.L4:
  74              		.loc 1 137 0 discriminator 2
  75 0036 FB68     		ldr	r3, [r7, #12]
  76 0038 0122     		movs	r2, #1
  77 003a 83F83420 		strb	r2, [r3, #52]
 138:../../Drivers/STM32F7xx_HAL_Driver/Src/stm32f7xx_hal_dma_ex.c ****     
 139:../../Drivers/STM32F7xx_HAL_Driver/Src/stm32f7xx_hal_dma_ex.c ****     if(HAL_DMA_STATE_READY == hdma->State)
  78              		.loc 1 139 0 is_stmt 1 discriminator 2
  79 003e FB68     		ldr	r3, [r7, #12]
  80 0040 93F83530 		ldrb	r3, [r3, #53]
  81 0044 DBB2     		uxtb	r3, r3
  82 0046 012B     		cmp	r3, #1
  83 0048 1ED1     		bne	.L6
 140:../../Drivers/STM32F7xx_HAL_Driver/Src/stm32f7xx_hal_dma_ex.c ****     {
 141:../../Drivers/STM32F7xx_HAL_Driver/Src/stm32f7xx_hal_dma_ex.c ****       /* Change DMA peripheral state */
 142:../../Drivers/STM32F7xx_HAL_Driver/Src/stm32f7xx_hal_dma_ex.c ****       hdma->State = HAL_DMA_STATE_BUSY; 
  84              		.loc 1 142 0
  85 004a FB68     		ldr	r3, [r7, #12]
  86 004c 0222     		movs	r2, #2
  87 004e 83F83520 		strb	r2, [r3, #53]
ARM GAS  /tmp/ccn0LRTe.s 			page 5


 143:../../Drivers/STM32F7xx_HAL_Driver/Src/stm32f7xx_hal_dma_ex.c ****       
 144:../../Drivers/STM32F7xx_HAL_Driver/Src/stm32f7xx_hal_dma_ex.c ****       /* Enable the double buffer mode */
 145:../../Drivers/STM32F7xx_HAL_Driver/Src/stm32f7xx_hal_dma_ex.c ****       hdma->Instance->CR |= (uint32_t)DMA_SxCR_DBM;
  88              		.loc 1 145 0
  89 0052 FB68     		ldr	r3, [r7, #12]
  90 0054 1B68     		ldr	r3, [r3]
  91 0056 FA68     		ldr	r2, [r7, #12]
  92 0058 1268     		ldr	r2, [r2]
  93 005a 1268     		ldr	r2, [r2]
  94 005c 42F48022 		orr	r2, r2, #262144
  95 0060 1A60     		str	r2, [r3]
 146:../../Drivers/STM32F7xx_HAL_Driver/Src/stm32f7xx_hal_dma_ex.c ****       
 147:../../Drivers/STM32F7xx_HAL_Driver/Src/stm32f7xx_hal_dma_ex.c ****       /* Configure DMA Stream destination address */
 148:../../Drivers/STM32F7xx_HAL_Driver/Src/stm32f7xx_hal_dma_ex.c ****       hdma->Instance->M1AR = SecondMemAddress;
  96              		.loc 1 148 0
  97 0062 FB68     		ldr	r3, [r7, #12]
  98 0064 1B68     		ldr	r3, [r3]
  99 0066 3A68     		ldr	r2, [r7]
 100 0068 1A61     		str	r2, [r3, #16]
 149:../../Drivers/STM32F7xx_HAL_Driver/Src/stm32f7xx_hal_dma_ex.c ****       
 150:../../Drivers/STM32F7xx_HAL_Driver/Src/stm32f7xx_hal_dma_ex.c ****       /* Configure the source, destination address and the data length */
 151:../../Drivers/STM32F7xx_HAL_Driver/Src/stm32f7xx_hal_dma_ex.c ****       DMA_MultiBufferSetConfig(hdma, SrcAddress, DstAddress, DataLength);
 101              		.loc 1 151 0
 102 006a F868     		ldr	r0, [r7, #12]
 103 006c B968     		ldr	r1, [r7, #8]
 104 006e 7A68     		ldr	r2, [r7, #4]
 105 0070 3B6A     		ldr	r3, [r7, #32]
 106 0072 FFF7FEFF 		bl	DMA_MultiBufferSetConfig
 152:../../Drivers/STM32F7xx_HAL_Driver/Src/stm32f7xx_hal_dma_ex.c ****       
 153:../../Drivers/STM32F7xx_HAL_Driver/Src/stm32f7xx_hal_dma_ex.c ****       /* Enable the peripheral */
 154:../../Drivers/STM32F7xx_HAL_Driver/Src/stm32f7xx_hal_dma_ex.c ****       __HAL_DMA_ENABLE(hdma);
 107              		.loc 1 154 0
 108 0076 FB68     		ldr	r3, [r7, #12]
 109 0078 1B68     		ldr	r3, [r3]
 110 007a FA68     		ldr	r2, [r7, #12]
 111 007c 1268     		ldr	r2, [r2]
 112 007e 1268     		ldr	r2, [r2]
 113 0080 42F00102 		orr	r2, r2, #1
 114 0084 1A60     		str	r2, [r3]
 115 0086 01E0     		b	.L3
 116              	.L6:
 155:../../Drivers/STM32F7xx_HAL_Driver/Src/stm32f7xx_hal_dma_ex.c ****     }
 156:../../Drivers/STM32F7xx_HAL_Driver/Src/stm32f7xx_hal_dma_ex.c ****     else
 157:../../Drivers/STM32F7xx_HAL_Driver/Src/stm32f7xx_hal_dma_ex.c ****     {
 158:../../Drivers/STM32F7xx_HAL_Driver/Src/stm32f7xx_hal_dma_ex.c ****       /* Return error status */
 159:../../Drivers/STM32F7xx_HAL_Driver/Src/stm32f7xx_hal_dma_ex.c ****       status = HAL_BUSY;
 117              		.loc 1 159 0
 118 0088 0223     		movs	r3, #2
 119 008a FB75     		strb	r3, [r7, #23]
 120              	.L3:
 160:../../Drivers/STM32F7xx_HAL_Driver/Src/stm32f7xx_hal_dma_ex.c ****     }
 161:../../Drivers/STM32F7xx_HAL_Driver/Src/stm32f7xx_hal_dma_ex.c ****   }
 162:../../Drivers/STM32F7xx_HAL_Driver/Src/stm32f7xx_hal_dma_ex.c ****   return status;
 121              		.loc 1 162 0
 122 008c FB7D     		ldrb	r3, [r7, #23]	@ zero_extendqisi2
 123              	.L5:
 163:../../Drivers/STM32F7xx_HAL_Driver/Src/stm32f7xx_hal_dma_ex.c **** }
ARM GAS  /tmp/ccn0LRTe.s 			page 6


 124              		.loc 1 163 0
 125 008e 1846     		mov	r0, r3
 126 0090 1837     		adds	r7, r7, #24
 127              	.LCFI3:
 128              		.cfi_def_cfa_offset 8
 129 0092 BD46     		mov	sp, r7
 130              	.LCFI4:
 131              		.cfi_def_cfa_register 13
 132              		@ sp needed
 133 0094 80BD     		pop	{r7, pc}
 134              		.cfi_endproc
 135              	.LFE135:
 137 0096 00BF     		.section	.text.HAL_DMAEx_MultiBufferStart_IT,"ax",%progbits
 138              		.align	2
 139              		.global	HAL_DMAEx_MultiBufferStart_IT
 140              		.thumb
 141              		.thumb_func
 143              	HAL_DMAEx_MultiBufferStart_IT:
 144              	.LFB136:
 164:../../Drivers/STM32F7xx_HAL_Driver/Src/stm32f7xx_hal_dma_ex.c **** 
 165:../../Drivers/STM32F7xx_HAL_Driver/Src/stm32f7xx_hal_dma_ex.c **** /**
 166:../../Drivers/STM32F7xx_HAL_Driver/Src/stm32f7xx_hal_dma_ex.c ****   * @brief  Starts the multi_buffer DMA Transfer with interrupt enabled.
 167:../../Drivers/STM32F7xx_HAL_Driver/Src/stm32f7xx_hal_dma_ex.c ****   * @param  hdma:       pointer to a DMA_HandleTypeDef structure that contains
 168:../../Drivers/STM32F7xx_HAL_Driver/Src/stm32f7xx_hal_dma_ex.c ****   *                     the configuration information for the specified DMA Stream.  
 169:../../Drivers/STM32F7xx_HAL_Driver/Src/stm32f7xx_hal_dma_ex.c ****   * @param  SrcAddress: The source memory Buffer address
 170:../../Drivers/STM32F7xx_HAL_Driver/Src/stm32f7xx_hal_dma_ex.c ****   * @param  DstAddress: The destination memory Buffer address
 171:../../Drivers/STM32F7xx_HAL_Driver/Src/stm32f7xx_hal_dma_ex.c ****   * @param  SecondMemAddress: The second memory Buffer address in case of multi buffer Transfer  
 172:../../Drivers/STM32F7xx_HAL_Driver/Src/stm32f7xx_hal_dma_ex.c ****   * @param  DataLength: The length of data to be transferred from source to destination
 173:../../Drivers/STM32F7xx_HAL_Driver/Src/stm32f7xx_hal_dma_ex.c ****   * @retval HAL status
 174:../../Drivers/STM32F7xx_HAL_Driver/Src/stm32f7xx_hal_dma_ex.c ****   */
 175:../../Drivers/STM32F7xx_HAL_Driver/Src/stm32f7xx_hal_dma_ex.c **** HAL_StatusTypeDef HAL_DMAEx_MultiBufferStart_IT(DMA_HandleTypeDef *hdma, uint32_t SrcAddress, uint3
 176:../../Drivers/STM32F7xx_HAL_Driver/Src/stm32f7xx_hal_dma_ex.c **** {
 145              		.loc 1 176 0
 146              		.cfi_startproc
 147              		@ args = 4, pretend = 0, frame = 24
 148              		@ frame_needed = 1, uses_anonymous_args = 0
 149 0000 80B5     		push	{r7, lr}
 150              	.LCFI5:
 151              		.cfi_def_cfa_offset 8
 152              		.cfi_offset 7, -8
 153              		.cfi_offset 14, -4
 154 0002 86B0     		sub	sp, sp, #24
 155              	.LCFI6:
 156              		.cfi_def_cfa_offset 32
 157 0004 00AF     		add	r7, sp, #0
 158              	.LCFI7:
 159              		.cfi_def_cfa_register 7
 160 0006 F860     		str	r0, [r7, #12]
 161 0008 B960     		str	r1, [r7, #8]
 162 000a 7A60     		str	r2, [r7, #4]
 163 000c 3B60     		str	r3, [r7]
 177:../../Drivers/STM32F7xx_HAL_Driver/Src/stm32f7xx_hal_dma_ex.c ****   HAL_StatusTypeDef status = HAL_OK;
 164              		.loc 1 177 0
 165 000e 0023     		movs	r3, #0
 166 0010 FB75     		strb	r3, [r7, #23]
 178:../../Drivers/STM32F7xx_HAL_Driver/Src/stm32f7xx_hal_dma_ex.c ****   
 179:../../Drivers/STM32F7xx_HAL_Driver/Src/stm32f7xx_hal_dma_ex.c ****   /* Check the parameters */
ARM GAS  /tmp/ccn0LRTe.s 			page 7


 180:../../Drivers/STM32F7xx_HAL_Driver/Src/stm32f7xx_hal_dma_ex.c ****   assert_param(IS_DMA_BUFFER_SIZE(DataLength));
 181:../../Drivers/STM32F7xx_HAL_Driver/Src/stm32f7xx_hal_dma_ex.c ****   
 182:../../Drivers/STM32F7xx_HAL_Driver/Src/stm32f7xx_hal_dma_ex.c ****   /* Memory-to-memory transfer not supported in double buffering mode */
 183:../../Drivers/STM32F7xx_HAL_Driver/Src/stm32f7xx_hal_dma_ex.c ****   if (hdma->Init.Direction == DMA_MEMORY_TO_MEMORY)
 167              		.loc 1 183 0
 168 0012 FB68     		ldr	r3, [r7, #12]
 169 0014 9B68     		ldr	r3, [r3, #8]
 170 0016 802B     		cmp	r3, #128
 171 0018 06D1     		bne	.L8
 184:../../Drivers/STM32F7xx_HAL_Driver/Src/stm32f7xx_hal_dma_ex.c ****   {
 185:../../Drivers/STM32F7xx_HAL_Driver/Src/stm32f7xx_hal_dma_ex.c ****     hdma->ErrorCode = HAL_DMA_ERROR_NOT_SUPPORTED;
 172              		.loc 1 185 0
 173 001a FB68     		ldr	r3, [r7, #12]
 174 001c 4FF48072 		mov	r2, #256
 175 0020 5A65     		str	r2, [r3, #84]
 186:../../Drivers/STM32F7xx_HAL_Driver/Src/stm32f7xx_hal_dma_ex.c ****     return HAL_ERROR;
 176              		.loc 1 186 0
 177 0022 0123     		movs	r3, #1
 178 0024 01F01EBA 		b	.L9
 179              	.L8:
 187:../../Drivers/STM32F7xx_HAL_Driver/Src/stm32f7xx_hal_dma_ex.c ****   }
 188:../../Drivers/STM32F7xx_HAL_Driver/Src/stm32f7xx_hal_dma_ex.c ****   
 189:../../Drivers/STM32F7xx_HAL_Driver/Src/stm32f7xx_hal_dma_ex.c ****   /* Process locked */
 190:../../Drivers/STM32F7xx_HAL_Driver/Src/stm32f7xx_hal_dma_ex.c ****   __HAL_LOCK(hdma);
 180              		.loc 1 190 0
 181 0028 FB68     		ldr	r3, [r7, #12]
 182 002a 93F83430 		ldrb	r3, [r3, #52]	@ zero_extendqisi2
 183 002e 012B     		cmp	r3, #1
 184 0030 02D1     		bne	.L10
 185              		.loc 1 190 0 is_stmt 0 discriminator 1
 186 0032 0223     		movs	r3, #2
 187 0034 01F016BA 		b	.L9
 188              	.L10:
 189              		.loc 1 190 0 discriminator 2
 190 0038 FB68     		ldr	r3, [r7, #12]
 191 003a 0122     		movs	r2, #1
 192 003c 83F83420 		strb	r2, [r3, #52]
 191:../../Drivers/STM32F7xx_HAL_Driver/Src/stm32f7xx_hal_dma_ex.c ****   
 192:../../Drivers/STM32F7xx_HAL_Driver/Src/stm32f7xx_hal_dma_ex.c ****   if(HAL_DMA_STATE_READY == hdma->State)
 193              		.loc 1 192 0 is_stmt 1 discriminator 2
 194 0040 FB68     		ldr	r3, [r7, #12]
 195 0042 93F83530 		ldrb	r3, [r3, #53]
 196 0046 DBB2     		uxtb	r3, r3
 197 0048 012B     		cmp	r3, #1
 198 004a 41F00482 		bne	.L11
 193:../../Drivers/STM32F7xx_HAL_Driver/Src/stm32f7xx_hal_dma_ex.c ****   {
 194:../../Drivers/STM32F7xx_HAL_Driver/Src/stm32f7xx_hal_dma_ex.c ****     /* Change DMA peripheral state */
 195:../../Drivers/STM32F7xx_HAL_Driver/Src/stm32f7xx_hal_dma_ex.c ****     hdma->State = HAL_DMA_STATE_BUSY;
 199              		.loc 1 195 0
 200 004e FB68     		ldr	r3, [r7, #12]
 201 0050 0222     		movs	r2, #2
 202 0052 83F83520 		strb	r2, [r3, #53]
 196:../../Drivers/STM32F7xx_HAL_Driver/Src/stm32f7xx_hal_dma_ex.c ****     
 197:../../Drivers/STM32F7xx_HAL_Driver/Src/stm32f7xx_hal_dma_ex.c ****     /* Initialize the error code */
 198:../../Drivers/STM32F7xx_HAL_Driver/Src/stm32f7xx_hal_dma_ex.c ****     hdma->ErrorCode = HAL_DMA_ERROR_NONE;
 203              		.loc 1 198 0
 204 0056 FB68     		ldr	r3, [r7, #12]
ARM GAS  /tmp/ccn0LRTe.s 			page 8


 205 0058 0022     		movs	r2, #0
 206 005a 5A65     		str	r2, [r3, #84]
 199:../../Drivers/STM32F7xx_HAL_Driver/Src/stm32f7xx_hal_dma_ex.c ****     
 200:../../Drivers/STM32F7xx_HAL_Driver/Src/stm32f7xx_hal_dma_ex.c ****     /* Enable the Double buffer mode */
 201:../../Drivers/STM32F7xx_HAL_Driver/Src/stm32f7xx_hal_dma_ex.c ****     hdma->Instance->CR |= (uint32_t)DMA_SxCR_DBM;
 207              		.loc 1 201 0
 208 005c FB68     		ldr	r3, [r7, #12]
 209 005e 1B68     		ldr	r3, [r3]
 210 0060 FA68     		ldr	r2, [r7, #12]
 211 0062 1268     		ldr	r2, [r2]
 212 0064 1268     		ldr	r2, [r2]
 213 0066 42F48022 		orr	r2, r2, #262144
 214 006a 1A60     		str	r2, [r3]
 202:../../Drivers/STM32F7xx_HAL_Driver/Src/stm32f7xx_hal_dma_ex.c ****     
 203:../../Drivers/STM32F7xx_HAL_Driver/Src/stm32f7xx_hal_dma_ex.c ****     /* Configure DMA Stream destination address */
 204:../../Drivers/STM32F7xx_HAL_Driver/Src/stm32f7xx_hal_dma_ex.c ****     hdma->Instance->M1AR = SecondMemAddress;
 215              		.loc 1 204 0
 216 006c FB68     		ldr	r3, [r7, #12]
 217 006e 1B68     		ldr	r3, [r3]
 218 0070 3A68     		ldr	r2, [r7]
 219 0072 1A61     		str	r2, [r3, #16]
 205:../../Drivers/STM32F7xx_HAL_Driver/Src/stm32f7xx_hal_dma_ex.c ****     
 206:../../Drivers/STM32F7xx_HAL_Driver/Src/stm32f7xx_hal_dma_ex.c ****     /* Configure the source, destination address and the data length */
 207:../../Drivers/STM32F7xx_HAL_Driver/Src/stm32f7xx_hal_dma_ex.c ****     DMA_MultiBufferSetConfig(hdma, SrcAddress, DstAddress, DataLength); 
 220              		.loc 1 207 0
 221 0074 F868     		ldr	r0, [r7, #12]
 222 0076 B968     		ldr	r1, [r7, #8]
 223 0078 7A68     		ldr	r2, [r7, #4]
 224 007a 3B6A     		ldr	r3, [r7, #32]
 225 007c FFF7FEFF 		bl	DMA_MultiBufferSetConfig
 208:../../Drivers/STM32F7xx_HAL_Driver/Src/stm32f7xx_hal_dma_ex.c ****     
 209:../../Drivers/STM32F7xx_HAL_Driver/Src/stm32f7xx_hal_dma_ex.c ****     /* Clear all flags */
 210:../../Drivers/STM32F7xx_HAL_Driver/Src/stm32f7xx_hal_dma_ex.c ****     __HAL_DMA_CLEAR_FLAG (hdma, __HAL_DMA_GET_TC_FLAG_INDEX(hdma));
 226              		.loc 1 210 0
 227 0080 FB68     		ldr	r3, [r7, #12]
 228 0082 1B68     		ldr	r3, [r3]
 229 0084 1A46     		mov	r2, r3
 230 0086 A04B     		ldr	r3, .L525
 231 0088 9A42     		cmp	r2, r3
 232 008a 6CD9     		bls	.L12
 233              		.loc 1 210 0 is_stmt 0 discriminator 1
 234 008c 9F4A     		ldr	r2, .L525+4
 235 008e FB68     		ldr	r3, [r7, #12]
 236 0090 1B68     		ldr	r3, [r3]
 237 0092 1946     		mov	r1, r3
 238 0094 9E4B     		ldr	r3, .L525+8
 239 0096 9942     		cmp	r1, r3
 240 0098 62D0     		beq	.L13
 241              		.loc 1 210 0 discriminator 3
 242 009a FB68     		ldr	r3, [r7, #12]
 243 009c 1B68     		ldr	r3, [r3]
 244 009e 1946     		mov	r1, r3
 245 00a0 9C4B     		ldr	r3, .L525+12
 246 00a2 9942     		cmp	r1, r3
 247 00a4 5AD0     		beq	.L14
 248              		.loc 1 210 0 discriminator 5
 249 00a6 FB68     		ldr	r3, [r7, #12]
ARM GAS  /tmp/ccn0LRTe.s 			page 9


 250 00a8 1B68     		ldr	r3, [r3]
 251 00aa 1946     		mov	r1, r3
 252 00ac 9A4B     		ldr	r3, .L525+16
 253 00ae 9942     		cmp	r1, r3
 254 00b0 52D0     		beq	.L15
 255              		.loc 1 210 0 discriminator 7
 256 00b2 FB68     		ldr	r3, [r7, #12]
 257 00b4 1B68     		ldr	r3, [r3]
 258 00b6 1946     		mov	r1, r3
 259 00b8 984B     		ldr	r3, .L525+20
 260 00ba 9942     		cmp	r1, r3
 261 00bc 4AD0     		beq	.L16
 262              		.loc 1 210 0 discriminator 9
 263 00be FB68     		ldr	r3, [r7, #12]
 264 00c0 1B68     		ldr	r3, [r3]
 265 00c2 1946     		mov	r1, r3
 266 00c4 964B     		ldr	r3, .L525+24
 267 00c6 9942     		cmp	r1, r3
 268 00c8 41D0     		beq	.L17
 269              		.loc 1 210 0 discriminator 11
 270 00ca FB68     		ldr	r3, [r7, #12]
 271 00cc 1B68     		ldr	r3, [r3]
 272 00ce 1946     		mov	r1, r3
 273 00d0 944B     		ldr	r3, .L525+28
 274 00d2 9942     		cmp	r1, r3
 275 00d4 38D0     		beq	.L18
 276              		.loc 1 210 0 discriminator 13
 277 00d6 FB68     		ldr	r3, [r7, #12]
 278 00d8 1B68     		ldr	r3, [r3]
 279 00da 1946     		mov	r1, r3
 280 00dc 924B     		ldr	r3, .L525+32
 281 00de 9942     		cmp	r1, r3
 282 00e0 2FD0     		beq	.L19
 283              		.loc 1 210 0 discriminator 15
 284 00e2 FB68     		ldr	r3, [r7, #12]
 285 00e4 1B68     		ldr	r3, [r3]
 286 00e6 1946     		mov	r1, r3
 287 00e8 904B     		ldr	r3, .L525+36
 288 00ea 9942     		cmp	r1, r3
 289 00ec 26D0     		beq	.L20
 290              		.loc 1 210 0 discriminator 17
 291 00ee FB68     		ldr	r3, [r7, #12]
 292 00f0 1B68     		ldr	r3, [r3]
 293 00f2 1946     		mov	r1, r3
 294 00f4 8E4B     		ldr	r3, .L525+40
 295 00f6 9942     		cmp	r1, r3
 296 00f8 1DD0     		beq	.L21
 297              		.loc 1 210 0 discriminator 19
 298 00fa FB68     		ldr	r3, [r7, #12]
 299 00fc 1B68     		ldr	r3, [r3]
 300 00fe 1946     		mov	r1, r3
 301 0100 8C4B     		ldr	r3, .L525+44
 302 0102 9942     		cmp	r1, r3
 303 0104 14D0     		beq	.L22
 304              		.loc 1 210 0 discriminator 21
 305 0106 FB68     		ldr	r3, [r7, #12]
 306 0108 1B68     		ldr	r3, [r3]
ARM GAS  /tmp/ccn0LRTe.s 			page 10


 307 010a 1946     		mov	r1, r3
 308 010c 8A4B     		ldr	r3, .L525+48
 309 010e 9942     		cmp	r1, r3
 310 0110 0BD0     		beq	.L23
 311              		.loc 1 210 0 discriminator 23
 312 0112 FB68     		ldr	r3, [r7, #12]
 313 0114 1B68     		ldr	r3, [r3]
 314 0116 1946     		mov	r1, r3
 315 0118 884B     		ldr	r3, .L525+52
 316 011a 9942     		cmp	r1, r3
 317 011c 02D1     		bne	.L24
 318              		.loc 1 210 0 discriminator 25
 319 011e 4FF40013 		mov	r3, #2097152
 320 0122 1EE0     		b	.L36
 321              	.L24:
 322              		.loc 1 210 0 discriminator 26
 323 0124 4FF00063 		mov	r3, #134217728
 324 0128 1BE0     		b	.L36
 325              	.L23:
 326              		.loc 1 210 0 discriminator 24
 327 012a 4FF40013 		mov	r3, #2097152
 328 012e 18E0     		b	.L36
 329              	.L22:
 330              		.loc 1 210 0 discriminator 22
 331 0130 4FF40013 		mov	r3, #2097152
 332 0134 15E0     		b	.L36
 333              	.L21:
 334              		.loc 1 210 0 discriminator 20
 335 0136 4FF40013 		mov	r3, #2097152
 336 013a 12E0     		b	.L36
 337              	.L20:
 338              		.loc 1 210 0 discriminator 18
 339 013c 4FF40063 		mov	r3, #2048
 340 0140 0FE0     		b	.L36
 341              	.L19:
 342              		.loc 1 210 0 discriminator 16
 343 0142 4FF40063 		mov	r3, #2048
 344 0146 0CE0     		b	.L36
 345              	.L18:
 346              		.loc 1 210 0 discriminator 14
 347 0148 4FF40063 		mov	r3, #2048
 348 014c 09E0     		b	.L36
 349              	.L17:
 350              		.loc 1 210 0 discriminator 12
 351 014e 4FF40063 		mov	r3, #2048
 352 0152 06E0     		b	.L36
 353              	.L16:
 354              		.loc 1 210 0 discriminator 10
 355 0154 2023     		movs	r3, #32
 356 0156 04E0     		b	.L36
 357              	.L15:
 358              		.loc 1 210 0 discriminator 8
 359 0158 2023     		movs	r3, #32
 360 015a 02E0     		b	.L36
 361              	.L14:
 362              		.loc 1 210 0 discriminator 6
 363 015c 2023     		movs	r3, #32
ARM GAS  /tmp/ccn0LRTe.s 			page 11


 364 015e 00E0     		b	.L36
 365              	.L13:
 366              		.loc 1 210 0 discriminator 4
 367 0160 2023     		movs	r3, #32
 368              	.L36:
 369              		.loc 1 210 0 discriminator 50
 370 0162 D360     		str	r3, [r2, #12]
 371 0164 76E1     		b	.L37
 372              	.L12:
 373              		.loc 1 210 0 discriminator 2
 374 0166 FB68     		ldr	r3, [r7, #12]
 375 0168 1B68     		ldr	r3, [r3]
 376 016a 1A46     		mov	r2, r3
 377 016c 744B     		ldr	r3, .L525+56
 378 016e 9A42     		cmp	r2, r3
 379 0170 6CD9     		bls	.L38
 380              		.loc 1 210 0 discriminator 51
 381 0172 664A     		ldr	r2, .L525+4
 382 0174 FB68     		ldr	r3, [r7, #12]
 383 0176 1B68     		ldr	r3, [r3]
 384 0178 1946     		mov	r1, r3
 385 017a 654B     		ldr	r3, .L525+8
 386 017c 9942     		cmp	r1, r3
 387 017e 62D0     		beq	.L39
 388              		.loc 1 210 0 discriminator 53
 389 0180 FB68     		ldr	r3, [r7, #12]
 390 0182 1B68     		ldr	r3, [r3]
 391 0184 1946     		mov	r1, r3
 392 0186 634B     		ldr	r3, .L525+12
 393 0188 9942     		cmp	r1, r3
 394 018a 5AD0     		beq	.L40
 395              		.loc 1 210 0 discriminator 55
 396 018c FB68     		ldr	r3, [r7, #12]
 397 018e 1B68     		ldr	r3, [r3]
 398 0190 1946     		mov	r1, r3
 399 0192 614B     		ldr	r3, .L525+16
 400 0194 9942     		cmp	r1, r3
 401 0196 52D0     		beq	.L41
 402              		.loc 1 210 0 discriminator 57
 403 0198 FB68     		ldr	r3, [r7, #12]
 404 019a 1B68     		ldr	r3, [r3]
 405 019c 1946     		mov	r1, r3
 406 019e 5F4B     		ldr	r3, .L525+20
 407 01a0 9942     		cmp	r1, r3
 408 01a2 4AD0     		beq	.L42
 409              		.loc 1 210 0 discriminator 59
 410 01a4 FB68     		ldr	r3, [r7, #12]
 411 01a6 1B68     		ldr	r3, [r3]
 412 01a8 1946     		mov	r1, r3
 413 01aa 5D4B     		ldr	r3, .L525+24
 414 01ac 9942     		cmp	r1, r3
 415 01ae 41D0     		beq	.L43
 416              		.loc 1 210 0 discriminator 61
 417 01b0 FB68     		ldr	r3, [r7, #12]
 418 01b2 1B68     		ldr	r3, [r3]
 419 01b4 1946     		mov	r1, r3
 420 01b6 5B4B     		ldr	r3, .L525+28
ARM GAS  /tmp/ccn0LRTe.s 			page 12


 421 01b8 9942     		cmp	r1, r3
 422 01ba 38D0     		beq	.L44
 423              		.loc 1 210 0 discriminator 63
 424 01bc FB68     		ldr	r3, [r7, #12]
 425 01be 1B68     		ldr	r3, [r3]
 426 01c0 1946     		mov	r1, r3
 427 01c2 594B     		ldr	r3, .L525+32
 428 01c4 9942     		cmp	r1, r3
 429 01c6 2FD0     		beq	.L45
 430              		.loc 1 210 0 discriminator 65
 431 01c8 FB68     		ldr	r3, [r7, #12]
 432 01ca 1B68     		ldr	r3, [r3]
 433 01cc 1946     		mov	r1, r3
 434 01ce 574B     		ldr	r3, .L525+36
 435 01d0 9942     		cmp	r1, r3
 436 01d2 26D0     		beq	.L46
 437              		.loc 1 210 0 discriminator 67
 438 01d4 FB68     		ldr	r3, [r7, #12]
 439 01d6 1B68     		ldr	r3, [r3]
 440 01d8 1946     		mov	r1, r3
 441 01da 554B     		ldr	r3, .L525+40
 442 01dc 9942     		cmp	r1, r3
 443 01de 1DD0     		beq	.L47
 444              		.loc 1 210 0 discriminator 69
 445 01e0 FB68     		ldr	r3, [r7, #12]
 446 01e2 1B68     		ldr	r3, [r3]
 447 01e4 1946     		mov	r1, r3
 448 01e6 534B     		ldr	r3, .L525+44
 449 01e8 9942     		cmp	r1, r3
 450 01ea 14D0     		beq	.L48
 451              		.loc 1 210 0 discriminator 71
 452 01ec FB68     		ldr	r3, [r7, #12]
 453 01ee 1B68     		ldr	r3, [r3]
 454 01f0 1946     		mov	r1, r3
 455 01f2 514B     		ldr	r3, .L525+48
 456 01f4 9942     		cmp	r1, r3
 457 01f6 0BD0     		beq	.L49
 458              		.loc 1 210 0 discriminator 73
 459 01f8 FB68     		ldr	r3, [r7, #12]
 460 01fa 1B68     		ldr	r3, [r3]
 461 01fc 1946     		mov	r1, r3
 462 01fe 4F4B     		ldr	r3, .L525+52
 463 0200 9942     		cmp	r1, r3
 464 0202 02D1     		bne	.L50
 465              		.loc 1 210 0 discriminator 75
 466 0204 4FF40013 		mov	r3, #2097152
 467 0208 1EE0     		b	.L62
 468              	.L50:
 469              		.loc 1 210 0 discriminator 76
 470 020a 4FF00063 		mov	r3, #134217728
 471 020e 1BE0     		b	.L62
 472              	.L49:
 473              		.loc 1 210 0 discriminator 74
 474 0210 4FF40013 		mov	r3, #2097152
 475 0214 18E0     		b	.L62
 476              	.L48:
 477              		.loc 1 210 0 discriminator 72
ARM GAS  /tmp/ccn0LRTe.s 			page 13


 478 0216 4FF40013 		mov	r3, #2097152
 479 021a 15E0     		b	.L62
 480              	.L47:
 481              		.loc 1 210 0 discriminator 70
 482 021c 4FF40013 		mov	r3, #2097152
 483 0220 12E0     		b	.L62
 484              	.L46:
 485              		.loc 1 210 0 discriminator 68
 486 0222 4FF40063 		mov	r3, #2048
 487 0226 0FE0     		b	.L62
 488              	.L45:
 489              		.loc 1 210 0 discriminator 66
 490 0228 4FF40063 		mov	r3, #2048
 491 022c 0CE0     		b	.L62
 492              	.L44:
 493              		.loc 1 210 0 discriminator 64
 494 022e 4FF40063 		mov	r3, #2048
 495 0232 09E0     		b	.L62
 496              	.L43:
 497              		.loc 1 210 0 discriminator 62
 498 0234 4FF40063 		mov	r3, #2048
 499 0238 06E0     		b	.L62
 500              	.L42:
 501              		.loc 1 210 0 discriminator 60
 502 023a 2023     		movs	r3, #32
 503 023c 04E0     		b	.L62
 504              	.L41:
 505              		.loc 1 210 0 discriminator 58
 506 023e 2023     		movs	r3, #32
 507 0240 02E0     		b	.L62
 508              	.L40:
 509              		.loc 1 210 0 discriminator 56
 510 0242 2023     		movs	r3, #32
 511 0244 00E0     		b	.L62
 512              	.L39:
 513              		.loc 1 210 0 discriminator 54
 514 0246 2023     		movs	r3, #32
 515              	.L62:
 516              		.loc 1 210 0 discriminator 100
 517 0248 9360     		str	r3, [r2, #8]
 518 024a 03E1     		b	.L37
 519              	.L38:
 520              		.loc 1 210 0 discriminator 52
 521 024c FB68     		ldr	r3, [r7, #12]
 522 024e 1B68     		ldr	r3, [r3]
 523 0250 1A46     		mov	r2, r3
 524 0252 3C4B     		ldr	r3, .L525+60
 525 0254 9A42     		cmp	r2, r3
 526 0256 40F29180 		bls	.L64
 527              		.loc 1 210 0 discriminator 102
 528 025a 3B4A     		ldr	r2, .L525+64
 529 025c FB68     		ldr	r3, [r7, #12]
 530 025e 1B68     		ldr	r3, [r3]
 531 0260 1946     		mov	r1, r3
 532 0262 2B4B     		ldr	r3, .L525+8
 533 0264 9942     		cmp	r1, r3
 534 0266 00F08680 		beq	.L65
ARM GAS  /tmp/ccn0LRTe.s 			page 14


 535              		.loc 1 210 0 discriminator 104
 536 026a FB68     		ldr	r3, [r7, #12]
 537 026c 1B68     		ldr	r3, [r3]
 538 026e 1946     		mov	r1, r3
 539 0270 284B     		ldr	r3, .L525+12
 540 0272 9942     		cmp	r1, r3
 541 0274 7DD0     		beq	.L66
 542              		.loc 1 210 0 discriminator 106
 543 0276 FB68     		ldr	r3, [r7, #12]
 544 0278 1B68     		ldr	r3, [r3]
 545 027a 1946     		mov	r1, r3
 546 027c 264B     		ldr	r3, .L525+16
 547 027e 9942     		cmp	r1, r3
 548 0280 75D0     		beq	.L67
 549              		.loc 1 210 0 discriminator 108
 550 0282 FB68     		ldr	r3, [r7, #12]
 551 0284 1B68     		ldr	r3, [r3]
 552 0286 1946     		mov	r1, r3
 553 0288 244B     		ldr	r3, .L525+20
 554 028a 9942     		cmp	r1, r3
 555 028c 6DD0     		beq	.L68
 556              		.loc 1 210 0 discriminator 110
 557 028e FB68     		ldr	r3, [r7, #12]
 558 0290 1B68     		ldr	r3, [r3]
 559 0292 1946     		mov	r1, r3
 560 0294 224B     		ldr	r3, .L525+24
 561 0296 9942     		cmp	r1, r3
 562 0298 64D0     		beq	.L69
 563              		.loc 1 210 0 discriminator 112
 564 029a FB68     		ldr	r3, [r7, #12]
 565 029c 1B68     		ldr	r3, [r3]
 566 029e 1946     		mov	r1, r3
 567 02a0 204B     		ldr	r3, .L525+28
 568 02a2 9942     		cmp	r1, r3
 569 02a4 5BD0     		beq	.L70
 570              		.loc 1 210 0 discriminator 114
 571 02a6 FB68     		ldr	r3, [r7, #12]
 572 02a8 1B68     		ldr	r3, [r3]
 573 02aa 1946     		mov	r1, r3
 574 02ac 1E4B     		ldr	r3, .L525+32
 575 02ae 9942     		cmp	r1, r3
 576 02b0 52D0     		beq	.L71
 577              		.loc 1 210 0 discriminator 116
 578 02b2 FB68     		ldr	r3, [r7, #12]
 579 02b4 1B68     		ldr	r3, [r3]
 580 02b6 1946     		mov	r1, r3
 581 02b8 1C4B     		ldr	r3, .L525+36
 582 02ba 9942     		cmp	r1, r3
 583 02bc 49D0     		beq	.L72
 584              		.loc 1 210 0 discriminator 118
 585 02be FB68     		ldr	r3, [r7, #12]
 586 02c0 1B68     		ldr	r3, [r3]
 587 02c2 1946     		mov	r1, r3
 588 02c4 1A4B     		ldr	r3, .L525+40
 589 02c6 9942     		cmp	r1, r3
 590 02c8 40D0     		beq	.L73
 591              		.loc 1 210 0 discriminator 120
ARM GAS  /tmp/ccn0LRTe.s 			page 15


 592 02ca FB68     		ldr	r3, [r7, #12]
 593 02cc 1B68     		ldr	r3, [r3]
 594 02ce 1946     		mov	r1, r3
 595 02d0 184B     		ldr	r3, .L525+44
 596 02d2 9942     		cmp	r1, r3
 597 02d4 14D0     		beq	.L74
 598              		.loc 1 210 0 discriminator 122
 599 02d6 FB68     		ldr	r3, [r7, #12]
 600 02d8 1B68     		ldr	r3, [r3]
 601 02da 1946     		mov	r1, r3
 602 02dc 164B     		ldr	r3, .L525+48
 603 02de 9942     		cmp	r1, r3
 604 02e0 0BD0     		beq	.L75
 605              		.loc 1 210 0 discriminator 124
 606 02e2 FB68     		ldr	r3, [r7, #12]
 607 02e4 1B68     		ldr	r3, [r3]
 608 02e6 1946     		mov	r1, r3
 609 02e8 144B     		ldr	r3, .L525+52
 610 02ea 9942     		cmp	r1, r3
 611 02ec 02D1     		bne	.L76
 612              		.loc 1 210 0 discriminator 126
 613 02ee 4FF40013 		mov	r3, #2097152
 614 02f2 41E0     		b	.L88
 615              	.L76:
 616              		.loc 1 210 0 discriminator 127
 617 02f4 4FF00063 		mov	r3, #134217728
 618 02f8 3EE0     		b	.L88
 619              	.L75:
 620              		.loc 1 210 0 discriminator 125
 621 02fa 4FF40013 		mov	r3, #2097152
 622 02fe 3BE0     		b	.L88
 623              	.L74:
 624              		.loc 1 210 0 discriminator 123
 625 0300 4FF40013 		mov	r3, #2097152
 626 0304 38E0     		b	.L88
 627              	.L526:
 628 0306 00BF     		.align	2
 629              	.L525:
 630 0308 58640240 		.word	1073898584
 631 030c 00640240 		.word	1073898496
 632 0310 10600240 		.word	1073897488
 633 0314 10640240 		.word	1073898512
 634 0318 70600240 		.word	1073897584
 635 031c 70640240 		.word	1073898608
 636 0320 28600240 		.word	1073897512
 637 0324 28640240 		.word	1073898536
 638 0328 88600240 		.word	1073897608
 639 032c 88640240 		.word	1073898632
 640 0330 40600240 		.word	1073897536
 641 0334 40640240 		.word	1073898560
 642 0338 A0600240 		.word	1073897632
 643 033c A0640240 		.word	1073898656
 644 0340 B8600240 		.word	1073897656
 645 0344 58600240 		.word	1073897560
 646 0348 00600240 		.word	1073897472
 647              	.L73:
 648              		.loc 1 210 0 discriminator 121
ARM GAS  /tmp/ccn0LRTe.s 			page 16


 649 034c 4FF40013 		mov	r3, #2097152
 650 0350 12E0     		b	.L88
 651              	.L72:
 652              		.loc 1 210 0 discriminator 119
 653 0352 4FF40063 		mov	r3, #2048
 654 0356 0FE0     		b	.L88
 655              	.L71:
 656              		.loc 1 210 0 discriminator 117
 657 0358 4FF40063 		mov	r3, #2048
 658 035c 0CE0     		b	.L88
 659              	.L70:
 660              		.loc 1 210 0 discriminator 115
 661 035e 4FF40063 		mov	r3, #2048
 662 0362 09E0     		b	.L88
 663              	.L69:
 664              		.loc 1 210 0 discriminator 113
 665 0364 4FF40063 		mov	r3, #2048
 666 0368 06E0     		b	.L88
 667              	.L68:
 668              		.loc 1 210 0 discriminator 111
 669 036a 2023     		movs	r3, #32
 670 036c 04E0     		b	.L88
 671              	.L67:
 672              		.loc 1 210 0 discriminator 109
 673 036e 2023     		movs	r3, #32
 674 0370 02E0     		b	.L88
 675              	.L66:
 676              		.loc 1 210 0 discriminator 107
 677 0372 2023     		movs	r3, #32
 678 0374 00E0     		b	.L88
 679              	.L65:
 680              		.loc 1 210 0 discriminator 105
 681 0376 2023     		movs	r3, #32
 682              	.L88:
 683              		.loc 1 210 0 discriminator 151
 684 0378 D360     		str	r3, [r2, #12]
 685 037a 6BE0     		b	.L37
 686              	.L64:
 687              		.loc 1 210 0 discriminator 103
 688 037c A04A     		ldr	r2, .L527
 689 037e FB68     		ldr	r3, [r7, #12]
 690 0380 1B68     		ldr	r3, [r3]
 691 0382 1946     		mov	r1, r3
 692 0384 9F4B     		ldr	r3, .L527+4
 693 0386 9942     		cmp	r1, r3
 694 0388 62D0     		beq	.L90
 695              		.loc 1 210 0 discriminator 153
 696 038a FB68     		ldr	r3, [r7, #12]
 697 038c 1B68     		ldr	r3, [r3]
 698 038e 1946     		mov	r1, r3
 699 0390 9D4B     		ldr	r3, .L527+8
 700 0392 9942     		cmp	r1, r3
 701 0394 5AD0     		beq	.L91
 702              		.loc 1 210 0 discriminator 155
 703 0396 FB68     		ldr	r3, [r7, #12]
 704 0398 1B68     		ldr	r3, [r3]
 705 039a 1946     		mov	r1, r3
ARM GAS  /tmp/ccn0LRTe.s 			page 17


 706 039c 9B4B     		ldr	r3, .L527+12
 707 039e 9942     		cmp	r1, r3
 708 03a0 52D0     		beq	.L92
 709              		.loc 1 210 0 discriminator 157
 710 03a2 FB68     		ldr	r3, [r7, #12]
 711 03a4 1B68     		ldr	r3, [r3]
 712 03a6 1946     		mov	r1, r3
 713 03a8 994B     		ldr	r3, .L527+16
 714 03aa 9942     		cmp	r1, r3
 715 03ac 4AD0     		beq	.L93
 716              		.loc 1 210 0 discriminator 159
 717 03ae FB68     		ldr	r3, [r7, #12]
 718 03b0 1B68     		ldr	r3, [r3]
 719 03b2 1946     		mov	r1, r3
 720 03b4 974B     		ldr	r3, .L527+20
 721 03b6 9942     		cmp	r1, r3
 722 03b8 41D0     		beq	.L94
 723              		.loc 1 210 0 discriminator 161
 724 03ba FB68     		ldr	r3, [r7, #12]
 725 03bc 1B68     		ldr	r3, [r3]
 726 03be 1946     		mov	r1, r3
 727 03c0 954B     		ldr	r3, .L527+24
 728 03c2 9942     		cmp	r1, r3
 729 03c4 38D0     		beq	.L95
 730              		.loc 1 210 0 discriminator 163
 731 03c6 FB68     		ldr	r3, [r7, #12]
 732 03c8 1B68     		ldr	r3, [r3]
 733 03ca 1946     		mov	r1, r3
 734 03cc 934B     		ldr	r3, .L527+28
 735 03ce 9942     		cmp	r1, r3
 736 03d0 2FD0     		beq	.L96
 737              		.loc 1 210 0 discriminator 165
 738 03d2 FB68     		ldr	r3, [r7, #12]
 739 03d4 1B68     		ldr	r3, [r3]
 740 03d6 1946     		mov	r1, r3
 741 03d8 914B     		ldr	r3, .L527+32
 742 03da 9942     		cmp	r1, r3
 743 03dc 26D0     		beq	.L97
 744              		.loc 1 210 0 discriminator 167
 745 03de FB68     		ldr	r3, [r7, #12]
 746 03e0 1B68     		ldr	r3, [r3]
 747 03e2 1946     		mov	r1, r3
 748 03e4 8F4B     		ldr	r3, .L527+36
 749 03e6 9942     		cmp	r1, r3
 750 03e8 1DD0     		beq	.L98
 751              		.loc 1 210 0 discriminator 169
 752 03ea FB68     		ldr	r3, [r7, #12]
 753 03ec 1B68     		ldr	r3, [r3]
 754 03ee 1946     		mov	r1, r3
 755 03f0 8D4B     		ldr	r3, .L527+40
 756 03f2 9942     		cmp	r1, r3
 757 03f4 14D0     		beq	.L99
 758              		.loc 1 210 0 discriminator 171
 759 03f6 FB68     		ldr	r3, [r7, #12]
 760 03f8 1B68     		ldr	r3, [r3]
 761 03fa 1946     		mov	r1, r3
 762 03fc 8B4B     		ldr	r3, .L527+44
ARM GAS  /tmp/ccn0LRTe.s 			page 18


 763 03fe 9942     		cmp	r1, r3
 764 0400 0BD0     		beq	.L100
 765              		.loc 1 210 0 discriminator 173
 766 0402 FB68     		ldr	r3, [r7, #12]
 767 0404 1B68     		ldr	r3, [r3]
 768 0406 1946     		mov	r1, r3
 769 0408 894B     		ldr	r3, .L527+48
 770 040a 9942     		cmp	r1, r3
 771 040c 02D1     		bne	.L101
 772              		.loc 1 210 0 discriminator 175
 773 040e 4FF40013 		mov	r3, #2097152
 774 0412 1EE0     		b	.L113
 775              	.L101:
 776              		.loc 1 210 0 discriminator 176
 777 0414 4FF00063 		mov	r3, #134217728
 778 0418 1BE0     		b	.L113
 779              	.L100:
 780              		.loc 1 210 0 discriminator 174
 781 041a 4FF40013 		mov	r3, #2097152
 782 041e 18E0     		b	.L113
 783              	.L99:
 784              		.loc 1 210 0 discriminator 172
 785 0420 4FF40013 		mov	r3, #2097152
 786 0424 15E0     		b	.L113
 787              	.L98:
 788              		.loc 1 210 0 discriminator 170
 789 0426 4FF40013 		mov	r3, #2097152
 790 042a 12E0     		b	.L113
 791              	.L97:
 792              		.loc 1 210 0 discriminator 168
 793 042c 4FF40063 		mov	r3, #2048
 794 0430 0FE0     		b	.L113
 795              	.L96:
 796              		.loc 1 210 0 discriminator 166
 797 0432 4FF40063 		mov	r3, #2048
 798 0436 0CE0     		b	.L113
 799              	.L95:
 800              		.loc 1 210 0 discriminator 164
 801 0438 4FF40063 		mov	r3, #2048
 802 043c 09E0     		b	.L113
 803              	.L94:
 804              		.loc 1 210 0 discriminator 162
 805 043e 4FF40063 		mov	r3, #2048
 806 0442 06E0     		b	.L113
 807              	.L93:
 808              		.loc 1 210 0 discriminator 160
 809 0444 2023     		movs	r3, #32
 810 0446 04E0     		b	.L113
 811              	.L92:
 812              		.loc 1 210 0 discriminator 158
 813 0448 2023     		movs	r3, #32
 814 044a 02E0     		b	.L113
 815              	.L91:
 816              		.loc 1 210 0 discriminator 156
 817 044c 2023     		movs	r3, #32
 818 044e 00E0     		b	.L113
 819              	.L90:
ARM GAS  /tmp/ccn0LRTe.s 			page 19


 820              		.loc 1 210 0 discriminator 154
 821 0450 2023     		movs	r3, #32
 822              	.L113:
 823              		.loc 1 210 0 discriminator 200
 824 0452 9360     		str	r3, [r2, #8]
 825              	.L37:
 211:../../Drivers/STM32F7xx_HAL_Driver/Src/stm32f7xx_hal_dma_ex.c ****     __HAL_DMA_CLEAR_FLAG (hdma, __HAL_DMA_GET_HT_FLAG_INDEX(hdma));
 826              		.loc 1 211 0 is_stmt 1
 827 0454 FB68     		ldr	r3, [r7, #12]
 828 0456 1B68     		ldr	r3, [r3]
 829 0458 1A46     		mov	r2, r3
 830 045a 764B     		ldr	r3, .L527+52
 831 045c 9A42     		cmp	r2, r3
 832 045e 6CD9     		bls	.L114
 833              		.loc 1 211 0 is_stmt 0 discriminator 1
 834 0460 754A     		ldr	r2, .L527+56
 835 0462 FB68     		ldr	r3, [r7, #12]
 836 0464 1B68     		ldr	r3, [r3]
 837 0466 1946     		mov	r1, r3
 838 0468 664B     		ldr	r3, .L527+4
 839 046a 9942     		cmp	r1, r3
 840 046c 62D0     		beq	.L115
 841              		.loc 1 211 0 discriminator 3
 842 046e FB68     		ldr	r3, [r7, #12]
 843 0470 1B68     		ldr	r3, [r3]
 844 0472 1946     		mov	r1, r3
 845 0474 644B     		ldr	r3, .L527+8
 846 0476 9942     		cmp	r1, r3
 847 0478 5AD0     		beq	.L116
 848              		.loc 1 211 0 discriminator 5
 849 047a FB68     		ldr	r3, [r7, #12]
 850 047c 1B68     		ldr	r3, [r3]
 851 047e 1946     		mov	r1, r3
 852 0480 624B     		ldr	r3, .L527+12
 853 0482 9942     		cmp	r1, r3
 854 0484 52D0     		beq	.L117
 855              		.loc 1 211 0 discriminator 7
 856 0486 FB68     		ldr	r3, [r7, #12]
 857 0488 1B68     		ldr	r3, [r3]
 858 048a 1946     		mov	r1, r3
 859 048c 604B     		ldr	r3, .L527+16
 860 048e 9942     		cmp	r1, r3
 861 0490 4AD0     		beq	.L118
 862              		.loc 1 211 0 discriminator 9
 863 0492 FB68     		ldr	r3, [r7, #12]
 864 0494 1B68     		ldr	r3, [r3]
 865 0496 1946     		mov	r1, r3
 866 0498 5E4B     		ldr	r3, .L527+20
 867 049a 9942     		cmp	r1, r3
 868 049c 41D0     		beq	.L119
 869              		.loc 1 211 0 discriminator 11
 870 049e FB68     		ldr	r3, [r7, #12]
 871 04a0 1B68     		ldr	r3, [r3]
 872 04a2 1946     		mov	r1, r3
 873 04a4 5C4B     		ldr	r3, .L527+24
 874 04a6 9942     		cmp	r1, r3
 875 04a8 38D0     		beq	.L120
ARM GAS  /tmp/ccn0LRTe.s 			page 20


 876              		.loc 1 211 0 discriminator 13
 877 04aa FB68     		ldr	r3, [r7, #12]
 878 04ac 1B68     		ldr	r3, [r3]
 879 04ae 1946     		mov	r1, r3
 880 04b0 5A4B     		ldr	r3, .L527+28
 881 04b2 9942     		cmp	r1, r3
 882 04b4 2FD0     		beq	.L121
 883              		.loc 1 211 0 discriminator 15
 884 04b6 FB68     		ldr	r3, [r7, #12]
 885 04b8 1B68     		ldr	r3, [r3]
 886 04ba 1946     		mov	r1, r3
 887 04bc 584B     		ldr	r3, .L527+32
 888 04be 9942     		cmp	r1, r3
 889 04c0 26D0     		beq	.L122
 890              		.loc 1 211 0 discriminator 17
 891 04c2 FB68     		ldr	r3, [r7, #12]
 892 04c4 1B68     		ldr	r3, [r3]
 893 04c6 1946     		mov	r1, r3
 894 04c8 564B     		ldr	r3, .L527+36
 895 04ca 9942     		cmp	r1, r3
 896 04cc 1DD0     		beq	.L123
 897              		.loc 1 211 0 discriminator 19
 898 04ce FB68     		ldr	r3, [r7, #12]
 899 04d0 1B68     		ldr	r3, [r3]
 900 04d2 1946     		mov	r1, r3
 901 04d4 544B     		ldr	r3, .L527+40
 902 04d6 9942     		cmp	r1, r3
 903 04d8 14D0     		beq	.L124
 904              		.loc 1 211 0 discriminator 21
 905 04da FB68     		ldr	r3, [r7, #12]
 906 04dc 1B68     		ldr	r3, [r3]
 907 04de 1946     		mov	r1, r3
 908 04e0 524B     		ldr	r3, .L527+44
 909 04e2 9942     		cmp	r1, r3
 910 04e4 0BD0     		beq	.L125
 911              		.loc 1 211 0 discriminator 23
 912 04e6 FB68     		ldr	r3, [r7, #12]
 913 04e8 1B68     		ldr	r3, [r3]
 914 04ea 1946     		mov	r1, r3
 915 04ec 504B     		ldr	r3, .L527+48
 916 04ee 9942     		cmp	r1, r3
 917 04f0 02D1     		bne	.L126
 918              		.loc 1 211 0 discriminator 25
 919 04f2 4FF48013 		mov	r3, #1048576
 920 04f6 1EE0     		b	.L138
 921              	.L126:
 922              		.loc 1 211 0 discriminator 26
 923 04f8 4FF08063 		mov	r3, #67108864
 924 04fc 1BE0     		b	.L138
 925              	.L125:
 926              		.loc 1 211 0 discriminator 24
 927 04fe 4FF48013 		mov	r3, #1048576
 928 0502 18E0     		b	.L138
 929              	.L124:
 930              		.loc 1 211 0 discriminator 22
 931 0504 4FF48013 		mov	r3, #1048576
 932 0508 15E0     		b	.L138
ARM GAS  /tmp/ccn0LRTe.s 			page 21


 933              	.L123:
 934              		.loc 1 211 0 discriminator 20
 935 050a 4FF48013 		mov	r3, #1048576
 936 050e 12E0     		b	.L138
 937              	.L122:
 938              		.loc 1 211 0 discriminator 18
 939 0510 4FF48063 		mov	r3, #1024
 940 0514 0FE0     		b	.L138
 941              	.L121:
 942              		.loc 1 211 0 discriminator 16
 943 0516 4FF48063 		mov	r3, #1024
 944 051a 0CE0     		b	.L138
 945              	.L120:
 946              		.loc 1 211 0 discriminator 14
 947 051c 4FF48063 		mov	r3, #1024
 948 0520 09E0     		b	.L138
 949              	.L119:
 950              		.loc 1 211 0 discriminator 12
 951 0522 4FF48063 		mov	r3, #1024
 952 0526 06E0     		b	.L138
 953              	.L118:
 954              		.loc 1 211 0 discriminator 10
 955 0528 1023     		movs	r3, #16
 956 052a 04E0     		b	.L138
 957              	.L117:
 958              		.loc 1 211 0 discriminator 8
 959 052c 1023     		movs	r3, #16
 960 052e 02E0     		b	.L138
 961              	.L116:
 962              		.loc 1 211 0 discriminator 6
 963 0530 1023     		movs	r3, #16
 964 0532 00E0     		b	.L138
 965              	.L115:
 966              		.loc 1 211 0 discriminator 4
 967 0534 1023     		movs	r3, #16
 968              	.L138:
 969              		.loc 1 211 0 discriminator 50
 970 0536 D360     		str	r3, [r2, #12]
 971 0538 73E1     		b	.L139
 972              	.L114:
 973              		.loc 1 211 0 discriminator 2
 974 053a FB68     		ldr	r3, [r7, #12]
 975 053c 1B68     		ldr	r3, [r3]
 976 053e 1A46     		mov	r2, r3
 977 0540 3E4B     		ldr	r3, .L527+60
 978 0542 9A42     		cmp	r2, r3
 979 0544 40F28E80 		bls	.L140
 980              		.loc 1 211 0 discriminator 51
 981 0548 3B4A     		ldr	r2, .L527+56
 982 054a FB68     		ldr	r3, [r7, #12]
 983 054c 1B68     		ldr	r3, [r3]
 984 054e 1946     		mov	r1, r3
 985 0550 2C4B     		ldr	r3, .L527+4
 986 0552 9942     		cmp	r1, r3
 987 0554 00F08380 		beq	.L141
 988              		.loc 1 211 0 discriminator 53
 989 0558 FB68     		ldr	r3, [r7, #12]
ARM GAS  /tmp/ccn0LRTe.s 			page 22


 990 055a 1B68     		ldr	r3, [r3]
 991 055c 1946     		mov	r1, r3
 992 055e 2A4B     		ldr	r3, .L527+8
 993 0560 9942     		cmp	r1, r3
 994 0562 7AD0     		beq	.L142
 995              		.loc 1 211 0 discriminator 55
 996 0564 FB68     		ldr	r3, [r7, #12]
 997 0566 1B68     		ldr	r3, [r3]
 998 0568 1946     		mov	r1, r3
 999 056a 284B     		ldr	r3, .L527+12
 1000 056c 9942     		cmp	r1, r3
 1001 056e 72D0     		beq	.L143
 1002              		.loc 1 211 0 discriminator 57
 1003 0570 FB68     		ldr	r3, [r7, #12]
 1004 0572 1B68     		ldr	r3, [r3]
 1005 0574 1946     		mov	r1, r3
 1006 0576 264B     		ldr	r3, .L527+16
 1007 0578 9942     		cmp	r1, r3
 1008 057a 6AD0     		beq	.L144
 1009              		.loc 1 211 0 discriminator 59
 1010 057c FB68     		ldr	r3, [r7, #12]
 1011 057e 1B68     		ldr	r3, [r3]
 1012 0580 1946     		mov	r1, r3
 1013 0582 244B     		ldr	r3, .L527+20
 1014 0584 9942     		cmp	r1, r3
 1015 0586 61D0     		beq	.L145
 1016              		.loc 1 211 0 discriminator 61
 1017 0588 FB68     		ldr	r3, [r7, #12]
 1018 058a 1B68     		ldr	r3, [r3]
 1019 058c 1946     		mov	r1, r3
 1020 058e 224B     		ldr	r3, .L527+24
 1021 0590 9942     		cmp	r1, r3
 1022 0592 58D0     		beq	.L146
 1023              		.loc 1 211 0 discriminator 63
 1024 0594 FB68     		ldr	r3, [r7, #12]
 1025 0596 1B68     		ldr	r3, [r3]
 1026 0598 1946     		mov	r1, r3
 1027 059a 204B     		ldr	r3, .L527+28
 1028 059c 9942     		cmp	r1, r3
 1029 059e 4FD0     		beq	.L147
 1030              		.loc 1 211 0 discriminator 65
 1031 05a0 FB68     		ldr	r3, [r7, #12]
 1032 05a2 1B68     		ldr	r3, [r3]
 1033 05a4 1946     		mov	r1, r3
 1034 05a6 1E4B     		ldr	r3, .L527+32
 1035 05a8 9942     		cmp	r1, r3
 1036 05aa 26D0     		beq	.L148
 1037              		.loc 1 211 0 discriminator 67
 1038 05ac FB68     		ldr	r3, [r7, #12]
 1039 05ae 1B68     		ldr	r3, [r3]
 1040 05b0 1946     		mov	r1, r3
 1041 05b2 1C4B     		ldr	r3, .L527+36
 1042 05b4 9942     		cmp	r1, r3
 1043 05b6 1DD0     		beq	.L149
 1044              		.loc 1 211 0 discriminator 69
 1045 05b8 FB68     		ldr	r3, [r7, #12]
 1046 05ba 1B68     		ldr	r3, [r3]
ARM GAS  /tmp/ccn0LRTe.s 			page 23


 1047 05bc 1946     		mov	r1, r3
 1048 05be 1A4B     		ldr	r3, .L527+40
 1049 05c0 9942     		cmp	r1, r3
 1050 05c2 14D0     		beq	.L150
 1051              		.loc 1 211 0 discriminator 71
 1052 05c4 FB68     		ldr	r3, [r7, #12]
 1053 05c6 1B68     		ldr	r3, [r3]
 1054 05c8 1946     		mov	r1, r3
 1055 05ca 184B     		ldr	r3, .L527+44
 1056 05cc 9942     		cmp	r1, r3
 1057 05ce 0BD0     		beq	.L151
 1058              		.loc 1 211 0 discriminator 73
 1059 05d0 FB68     		ldr	r3, [r7, #12]
 1060 05d2 1B68     		ldr	r3, [r3]
 1061 05d4 1946     		mov	r1, r3
 1062 05d6 164B     		ldr	r3, .L527+48
 1063 05d8 9942     		cmp	r1, r3
 1064 05da 02D1     		bne	.L152
 1065              		.loc 1 211 0 discriminator 75
 1066 05dc 4FF48013 		mov	r3, #1048576
 1067 05e0 3EE0     		b	.L164
 1068              	.L152:
 1069              		.loc 1 211 0 discriminator 76
 1070 05e2 4FF08063 		mov	r3, #67108864
 1071 05e6 3BE0     		b	.L164
 1072              	.L151:
 1073              		.loc 1 211 0 discriminator 74
 1074 05e8 4FF48013 		mov	r3, #1048576
 1075 05ec 38E0     		b	.L164
 1076              	.L150:
 1077              		.loc 1 211 0 discriminator 72
 1078 05ee 4FF48013 		mov	r3, #1048576
 1079 05f2 35E0     		b	.L164
 1080              	.L149:
 1081              		.loc 1 211 0 discriminator 70
 1082 05f4 4FF48013 		mov	r3, #1048576
 1083 05f8 32E0     		b	.L164
 1084              	.L148:
 1085              		.loc 1 211 0 discriminator 68
 1086 05fa 4FF48063 		mov	r3, #1024
 1087 05fe 2FE0     		b	.L164
 1088              	.L528:
 1089              		.align	2
 1090              	.L527:
 1091 0600 00600240 		.word	1073897472
 1092 0604 10600240 		.word	1073897488
 1093 0608 10640240 		.word	1073898512
 1094 060c 70600240 		.word	1073897584
 1095 0610 70640240 		.word	1073898608
 1096 0614 28600240 		.word	1073897512
 1097 0618 28640240 		.word	1073898536
 1098 061c 88600240 		.word	1073897608
 1099 0620 88640240 		.word	1073898632
 1100 0624 40600240 		.word	1073897536
 1101 0628 40640240 		.word	1073898560
 1102 062c A0600240 		.word	1073897632
 1103 0630 A0640240 		.word	1073898656
ARM GAS  /tmp/ccn0LRTe.s 			page 24


 1104 0634 58640240 		.word	1073898584
 1105 0638 00640240 		.word	1073898496
 1106 063c B8600240 		.word	1073897656
 1107              	.L147:
 1108              		.loc 1 211 0 discriminator 66
 1109 0640 4FF48063 		mov	r3, #1024
 1110 0644 0CE0     		b	.L164
 1111              	.L146:
 1112              		.loc 1 211 0 discriminator 64
 1113 0646 4FF48063 		mov	r3, #1024
 1114 064a 09E0     		b	.L164
 1115              	.L145:
 1116              		.loc 1 211 0 discriminator 62
 1117 064c 4FF48063 		mov	r3, #1024
 1118 0650 06E0     		b	.L164
 1119              	.L144:
 1120              		.loc 1 211 0 discriminator 60
 1121 0652 1023     		movs	r3, #16
 1122 0654 04E0     		b	.L164
 1123              	.L143:
 1124              		.loc 1 211 0 discriminator 58
 1125 0656 1023     		movs	r3, #16
 1126 0658 02E0     		b	.L164
 1127              	.L142:
 1128              		.loc 1 211 0 discriminator 56
 1129 065a 1023     		movs	r3, #16
 1130 065c 00E0     		b	.L164
 1131              	.L141:
 1132              		.loc 1 211 0 discriminator 54
 1133 065e 1023     		movs	r3, #16
 1134              	.L164:
 1135              		.loc 1 211 0 discriminator 100
 1136 0660 9360     		str	r3, [r2, #8]
 1137 0662 DEE0     		b	.L139
 1138              	.L140:
 1139              		.loc 1 211 0 discriminator 52
 1140 0664 FB68     		ldr	r3, [r7, #12]
 1141 0666 1B68     		ldr	r3, [r3]
 1142 0668 1A46     		mov	r2, r3
 1143 066a A14B     		ldr	r3, .L529
 1144 066c 9A42     		cmp	r2, r3
 1145 066e 6CD9     		bls	.L166
 1146              		.loc 1 211 0 discriminator 102
 1147 0670 A04A     		ldr	r2, .L529+4
 1148 0672 FB68     		ldr	r3, [r7, #12]
 1149 0674 1B68     		ldr	r3, [r3]
 1150 0676 1946     		mov	r1, r3
 1151 0678 9F4B     		ldr	r3, .L529+8
 1152 067a 9942     		cmp	r1, r3
 1153 067c 62D0     		beq	.L167
 1154              		.loc 1 211 0 discriminator 104
 1155 067e FB68     		ldr	r3, [r7, #12]
 1156 0680 1B68     		ldr	r3, [r3]
 1157 0682 1946     		mov	r1, r3
 1158 0684 9D4B     		ldr	r3, .L529+12
 1159 0686 9942     		cmp	r1, r3
 1160 0688 5AD0     		beq	.L168
ARM GAS  /tmp/ccn0LRTe.s 			page 25


 1161              		.loc 1 211 0 discriminator 106
 1162 068a FB68     		ldr	r3, [r7, #12]
 1163 068c 1B68     		ldr	r3, [r3]
 1164 068e 1946     		mov	r1, r3
 1165 0690 9B4B     		ldr	r3, .L529+16
 1166 0692 9942     		cmp	r1, r3
 1167 0694 52D0     		beq	.L169
 1168              		.loc 1 211 0 discriminator 108
 1169 0696 FB68     		ldr	r3, [r7, #12]
 1170 0698 1B68     		ldr	r3, [r3]
 1171 069a 1946     		mov	r1, r3
 1172 069c 994B     		ldr	r3, .L529+20
 1173 069e 9942     		cmp	r1, r3
 1174 06a0 4AD0     		beq	.L170
 1175              		.loc 1 211 0 discriminator 110
 1176 06a2 FB68     		ldr	r3, [r7, #12]
 1177 06a4 1B68     		ldr	r3, [r3]
 1178 06a6 1946     		mov	r1, r3
 1179 06a8 974B     		ldr	r3, .L529+24
 1180 06aa 9942     		cmp	r1, r3
 1181 06ac 41D0     		beq	.L171
 1182              		.loc 1 211 0 discriminator 112
 1183 06ae FB68     		ldr	r3, [r7, #12]
 1184 06b0 1B68     		ldr	r3, [r3]
 1185 06b2 1946     		mov	r1, r3
 1186 06b4 954B     		ldr	r3, .L529+28
 1187 06b6 9942     		cmp	r1, r3
 1188 06b8 38D0     		beq	.L172
 1189              		.loc 1 211 0 discriminator 114
 1190 06ba FB68     		ldr	r3, [r7, #12]
 1191 06bc 1B68     		ldr	r3, [r3]
 1192 06be 1946     		mov	r1, r3
 1193 06c0 934B     		ldr	r3, .L529+32
 1194 06c2 9942     		cmp	r1, r3
 1195 06c4 2FD0     		beq	.L173
 1196              		.loc 1 211 0 discriminator 116
 1197 06c6 FB68     		ldr	r3, [r7, #12]
 1198 06c8 1B68     		ldr	r3, [r3]
 1199 06ca 1946     		mov	r1, r3
 1200 06cc 914B     		ldr	r3, .L529+36
 1201 06ce 9942     		cmp	r1, r3
 1202 06d0 26D0     		beq	.L174
 1203              		.loc 1 211 0 discriminator 118
 1204 06d2 FB68     		ldr	r3, [r7, #12]
 1205 06d4 1B68     		ldr	r3, [r3]
 1206 06d6 1946     		mov	r1, r3
 1207 06d8 8F4B     		ldr	r3, .L529+40
 1208 06da 9942     		cmp	r1, r3
 1209 06dc 1DD0     		beq	.L175
 1210              		.loc 1 211 0 discriminator 120
 1211 06de FB68     		ldr	r3, [r7, #12]
 1212 06e0 1B68     		ldr	r3, [r3]
 1213 06e2 1946     		mov	r1, r3
 1214 06e4 8D4B     		ldr	r3, .L529+44
 1215 06e6 9942     		cmp	r1, r3
 1216 06e8 14D0     		beq	.L176
 1217              		.loc 1 211 0 discriminator 122
ARM GAS  /tmp/ccn0LRTe.s 			page 26


 1218 06ea FB68     		ldr	r3, [r7, #12]
 1219 06ec 1B68     		ldr	r3, [r3]
 1220 06ee 1946     		mov	r1, r3
 1221 06f0 8B4B     		ldr	r3, .L529+48
 1222 06f2 9942     		cmp	r1, r3
 1223 06f4 0BD0     		beq	.L177
 1224              		.loc 1 211 0 discriminator 124
 1225 06f6 FB68     		ldr	r3, [r7, #12]
 1226 06f8 1B68     		ldr	r3, [r3]
 1227 06fa 1946     		mov	r1, r3
 1228 06fc 894B     		ldr	r3, .L529+52
 1229 06fe 9942     		cmp	r1, r3
 1230 0700 02D1     		bne	.L178
 1231              		.loc 1 211 0 discriminator 126
 1232 0702 4FF48013 		mov	r3, #1048576
 1233 0706 1EE0     		b	.L190
 1234              	.L178:
 1235              		.loc 1 211 0 discriminator 127
 1236 0708 4FF08063 		mov	r3, #67108864
 1237 070c 1BE0     		b	.L190
 1238              	.L177:
 1239              		.loc 1 211 0 discriminator 125
 1240 070e 4FF48013 		mov	r3, #1048576
 1241 0712 18E0     		b	.L190
 1242              	.L176:
 1243              		.loc 1 211 0 discriminator 123
 1244 0714 4FF48013 		mov	r3, #1048576
 1245 0718 15E0     		b	.L190
 1246              	.L175:
 1247              		.loc 1 211 0 discriminator 121
 1248 071a 4FF48013 		mov	r3, #1048576
 1249 071e 12E0     		b	.L190
 1250              	.L174:
 1251              		.loc 1 211 0 discriminator 119
 1252 0720 4FF48063 		mov	r3, #1024
 1253 0724 0FE0     		b	.L190
 1254              	.L173:
 1255              		.loc 1 211 0 discriminator 117
 1256 0726 4FF48063 		mov	r3, #1024
 1257 072a 0CE0     		b	.L190
 1258              	.L172:
 1259              		.loc 1 211 0 discriminator 115
 1260 072c 4FF48063 		mov	r3, #1024
 1261 0730 09E0     		b	.L190
 1262              	.L171:
 1263              		.loc 1 211 0 discriminator 113
 1264 0732 4FF48063 		mov	r3, #1024
 1265 0736 06E0     		b	.L190
 1266              	.L170:
 1267              		.loc 1 211 0 discriminator 111
 1268 0738 1023     		movs	r3, #16
 1269 073a 04E0     		b	.L190
 1270              	.L169:
 1271              		.loc 1 211 0 discriminator 109
 1272 073c 1023     		movs	r3, #16
 1273 073e 02E0     		b	.L190
 1274              	.L168:
ARM GAS  /tmp/ccn0LRTe.s 			page 27


 1275              		.loc 1 211 0 discriminator 107
 1276 0740 1023     		movs	r3, #16
 1277 0742 00E0     		b	.L190
 1278              	.L167:
 1279              		.loc 1 211 0 discriminator 105
 1280 0744 1023     		movs	r3, #16
 1281              	.L190:
 1282              		.loc 1 211 0 discriminator 151
 1283 0746 D360     		str	r3, [r2, #12]
 1284 0748 6BE0     		b	.L139
 1285              	.L166:
 1286              		.loc 1 211 0 discriminator 103
 1287 074a 6A4A     		ldr	r2, .L529+4
 1288 074c FB68     		ldr	r3, [r7, #12]
 1289 074e 1B68     		ldr	r3, [r3]
 1290 0750 1946     		mov	r1, r3
 1291 0752 694B     		ldr	r3, .L529+8
 1292 0754 9942     		cmp	r1, r3
 1293 0756 62D0     		beq	.L192
 1294              		.loc 1 211 0 discriminator 153
 1295 0758 FB68     		ldr	r3, [r7, #12]
 1296 075a 1B68     		ldr	r3, [r3]
 1297 075c 1946     		mov	r1, r3
 1298 075e 674B     		ldr	r3, .L529+12
 1299 0760 9942     		cmp	r1, r3
 1300 0762 5AD0     		beq	.L193
 1301              		.loc 1 211 0 discriminator 155
 1302 0764 FB68     		ldr	r3, [r7, #12]
 1303 0766 1B68     		ldr	r3, [r3]
 1304 0768 1946     		mov	r1, r3
 1305 076a 654B     		ldr	r3, .L529+16
 1306 076c 9942     		cmp	r1, r3
 1307 076e 52D0     		beq	.L194
 1308              		.loc 1 211 0 discriminator 157
 1309 0770 FB68     		ldr	r3, [r7, #12]
 1310 0772 1B68     		ldr	r3, [r3]
 1311 0774 1946     		mov	r1, r3
 1312 0776 634B     		ldr	r3, .L529+20
 1313 0778 9942     		cmp	r1, r3
 1314 077a 4AD0     		beq	.L195
 1315              		.loc 1 211 0 discriminator 159
 1316 077c FB68     		ldr	r3, [r7, #12]
 1317 077e 1B68     		ldr	r3, [r3]
 1318 0780 1946     		mov	r1, r3
 1319 0782 614B     		ldr	r3, .L529+24
 1320 0784 9942     		cmp	r1, r3
 1321 0786 41D0     		beq	.L196
 1322              		.loc 1 211 0 discriminator 161
 1323 0788 FB68     		ldr	r3, [r7, #12]
 1324 078a 1B68     		ldr	r3, [r3]
 1325 078c 1946     		mov	r1, r3
 1326 078e 5F4B     		ldr	r3, .L529+28
 1327 0790 9942     		cmp	r1, r3
 1328 0792 38D0     		beq	.L197
 1329              		.loc 1 211 0 discriminator 163
 1330 0794 FB68     		ldr	r3, [r7, #12]
 1331 0796 1B68     		ldr	r3, [r3]
ARM GAS  /tmp/ccn0LRTe.s 			page 28


 1332 0798 1946     		mov	r1, r3
 1333 079a 5D4B     		ldr	r3, .L529+32
 1334 079c 9942     		cmp	r1, r3
 1335 079e 2FD0     		beq	.L198
 1336              		.loc 1 211 0 discriminator 165
 1337 07a0 FB68     		ldr	r3, [r7, #12]
 1338 07a2 1B68     		ldr	r3, [r3]
 1339 07a4 1946     		mov	r1, r3
 1340 07a6 5B4B     		ldr	r3, .L529+36
 1341 07a8 9942     		cmp	r1, r3
 1342 07aa 26D0     		beq	.L199
 1343              		.loc 1 211 0 discriminator 167
 1344 07ac FB68     		ldr	r3, [r7, #12]
 1345 07ae 1B68     		ldr	r3, [r3]
 1346 07b0 1946     		mov	r1, r3
 1347 07b2 594B     		ldr	r3, .L529+40
 1348 07b4 9942     		cmp	r1, r3
 1349 07b6 1DD0     		beq	.L200
 1350              		.loc 1 211 0 discriminator 169
 1351 07b8 FB68     		ldr	r3, [r7, #12]
 1352 07ba 1B68     		ldr	r3, [r3]
 1353 07bc 1946     		mov	r1, r3
 1354 07be 574B     		ldr	r3, .L529+44
 1355 07c0 9942     		cmp	r1, r3
 1356 07c2 14D0     		beq	.L201
 1357              		.loc 1 211 0 discriminator 171
 1358 07c4 FB68     		ldr	r3, [r7, #12]
 1359 07c6 1B68     		ldr	r3, [r3]
 1360 07c8 1946     		mov	r1, r3
 1361 07ca 554B     		ldr	r3, .L529+48
 1362 07cc 9942     		cmp	r1, r3
 1363 07ce 0BD0     		beq	.L202
 1364              		.loc 1 211 0 discriminator 173
 1365 07d0 FB68     		ldr	r3, [r7, #12]
 1366 07d2 1B68     		ldr	r3, [r3]
 1367 07d4 1946     		mov	r1, r3
 1368 07d6 534B     		ldr	r3, .L529+52
 1369 07d8 9942     		cmp	r1, r3
 1370 07da 02D1     		bne	.L203
 1371              		.loc 1 211 0 discriminator 175
 1372 07dc 4FF48013 		mov	r3, #1048576
 1373 07e0 1EE0     		b	.L215
 1374              	.L203:
 1375              		.loc 1 211 0 discriminator 176
 1376 07e2 4FF08063 		mov	r3, #67108864
 1377 07e6 1BE0     		b	.L215
 1378              	.L202:
 1379              		.loc 1 211 0 discriminator 174
 1380 07e8 4FF48013 		mov	r3, #1048576
 1381 07ec 18E0     		b	.L215
 1382              	.L201:
 1383              		.loc 1 211 0 discriminator 172
 1384 07ee 4FF48013 		mov	r3, #1048576
 1385 07f2 15E0     		b	.L215
 1386              	.L200:
 1387              		.loc 1 211 0 discriminator 170
 1388 07f4 4FF48013 		mov	r3, #1048576
ARM GAS  /tmp/ccn0LRTe.s 			page 29


 1389 07f8 12E0     		b	.L215
 1390              	.L199:
 1391              		.loc 1 211 0 discriminator 168
 1392 07fa 4FF48063 		mov	r3, #1024
 1393 07fe 0FE0     		b	.L215
 1394              	.L198:
 1395              		.loc 1 211 0 discriminator 166
 1396 0800 4FF48063 		mov	r3, #1024
 1397 0804 0CE0     		b	.L215
 1398              	.L197:
 1399              		.loc 1 211 0 discriminator 164
 1400 0806 4FF48063 		mov	r3, #1024
 1401 080a 09E0     		b	.L215
 1402              	.L196:
 1403              		.loc 1 211 0 discriminator 162
 1404 080c 4FF48063 		mov	r3, #1024
 1405 0810 06E0     		b	.L215
 1406              	.L195:
 1407              		.loc 1 211 0 discriminator 160
 1408 0812 1023     		movs	r3, #16
 1409 0814 04E0     		b	.L215
 1410              	.L194:
 1411              		.loc 1 211 0 discriminator 158
 1412 0816 1023     		movs	r3, #16
 1413 0818 02E0     		b	.L215
 1414              	.L193:
 1415              		.loc 1 211 0 discriminator 156
 1416 081a 1023     		movs	r3, #16
 1417 081c 00E0     		b	.L215
 1418              	.L192:
 1419              		.loc 1 211 0 discriminator 154
 1420 081e 1023     		movs	r3, #16
 1421              	.L215:
 1422              		.loc 1 211 0 discriminator 200
 1423 0820 9360     		str	r3, [r2, #8]
 1424              	.L139:
 212:../../Drivers/STM32F7xx_HAL_Driver/Src/stm32f7xx_hal_dma_ex.c ****     __HAL_DMA_CLEAR_FLAG (hdma, __HAL_DMA_GET_TE_FLAG_INDEX(hdma));
 1425              		.loc 1 212 0 is_stmt 1
 1426 0822 FB68     		ldr	r3, [r7, #12]
 1427 0824 1B68     		ldr	r3, [r3]
 1428 0826 1A46     		mov	r2, r3
 1429 0828 3F4B     		ldr	r3, .L529+56
 1430 082a 9A42     		cmp	r2, r3
 1431 082c 40F28F80 		bls	.L216
 1432              		.loc 1 212 0 is_stmt 0 discriminator 1
 1433 0830 3E4A     		ldr	r2, .L529+60
 1434 0832 FB68     		ldr	r3, [r7, #12]
 1435 0834 1B68     		ldr	r3, [r3]
 1436 0836 1946     		mov	r1, r3
 1437 0838 2F4B     		ldr	r3, .L529+8
 1438 083a 9942     		cmp	r1, r3
 1439 083c 00F08480 		beq	.L217
 1440              		.loc 1 212 0 discriminator 3
 1441 0840 FB68     		ldr	r3, [r7, #12]
 1442 0842 1B68     		ldr	r3, [r3]
 1443 0844 1946     		mov	r1, r3
 1444 0846 2D4B     		ldr	r3, .L529+12
ARM GAS  /tmp/ccn0LRTe.s 			page 30


 1445 0848 9942     		cmp	r1, r3
 1446 084a 7BD0     		beq	.L218
 1447              		.loc 1 212 0 discriminator 5
 1448 084c FB68     		ldr	r3, [r7, #12]
 1449 084e 1B68     		ldr	r3, [r3]
 1450 0850 1946     		mov	r1, r3
 1451 0852 2B4B     		ldr	r3, .L529+16
 1452 0854 9942     		cmp	r1, r3
 1453 0856 73D0     		beq	.L219
 1454              		.loc 1 212 0 discriminator 7
 1455 0858 FB68     		ldr	r3, [r7, #12]
 1456 085a 1B68     		ldr	r3, [r3]
 1457 085c 1946     		mov	r1, r3
 1458 085e 294B     		ldr	r3, .L529+20
 1459 0860 9942     		cmp	r1, r3
 1460 0862 6BD0     		beq	.L220
 1461              		.loc 1 212 0 discriminator 9
 1462 0864 FB68     		ldr	r3, [r7, #12]
 1463 0866 1B68     		ldr	r3, [r3]
 1464 0868 1946     		mov	r1, r3
 1465 086a 274B     		ldr	r3, .L529+24
 1466 086c 9942     		cmp	r1, r3
 1467 086e 62D0     		beq	.L221
 1468              		.loc 1 212 0 discriminator 11
 1469 0870 FB68     		ldr	r3, [r7, #12]
 1470 0872 1B68     		ldr	r3, [r3]
 1471 0874 1946     		mov	r1, r3
 1472 0876 254B     		ldr	r3, .L529+28
 1473 0878 9942     		cmp	r1, r3
 1474 087a 59D0     		beq	.L222
 1475              		.loc 1 212 0 discriminator 13
 1476 087c FB68     		ldr	r3, [r7, #12]
 1477 087e 1B68     		ldr	r3, [r3]
 1478 0880 1946     		mov	r1, r3
 1479 0882 234B     		ldr	r3, .L529+32
 1480 0884 9942     		cmp	r1, r3
 1481 0886 2FD0     		beq	.L223
 1482              		.loc 1 212 0 discriminator 15
 1483 0888 FB68     		ldr	r3, [r7, #12]
 1484 088a 1B68     		ldr	r3, [r3]
 1485 088c 1946     		mov	r1, r3
 1486 088e 214B     		ldr	r3, .L529+36
 1487 0890 9942     		cmp	r1, r3
 1488 0892 26D0     		beq	.L224
 1489              		.loc 1 212 0 discriminator 17
 1490 0894 FB68     		ldr	r3, [r7, #12]
 1491 0896 1B68     		ldr	r3, [r3]
 1492 0898 1946     		mov	r1, r3
 1493 089a 1F4B     		ldr	r3, .L529+40
 1494 089c 9942     		cmp	r1, r3
 1495 089e 1DD0     		beq	.L225
 1496              		.loc 1 212 0 discriminator 19
 1497 08a0 FB68     		ldr	r3, [r7, #12]
 1498 08a2 1B68     		ldr	r3, [r3]
 1499 08a4 1946     		mov	r1, r3
 1500 08a6 1D4B     		ldr	r3, .L529+44
 1501 08a8 9942     		cmp	r1, r3
ARM GAS  /tmp/ccn0LRTe.s 			page 31


 1502 08aa 14D0     		beq	.L226
 1503              		.loc 1 212 0 discriminator 21
 1504 08ac FB68     		ldr	r3, [r7, #12]
 1505 08ae 1B68     		ldr	r3, [r3]
 1506 08b0 1946     		mov	r1, r3
 1507 08b2 1B4B     		ldr	r3, .L529+48
 1508 08b4 9942     		cmp	r1, r3
 1509 08b6 0BD0     		beq	.L227
 1510              		.loc 1 212 0 discriminator 23
 1511 08b8 FB68     		ldr	r3, [r7, #12]
 1512 08ba 1B68     		ldr	r3, [r3]
 1513 08bc 1946     		mov	r1, r3
 1514 08be 194B     		ldr	r3, .L529+52
 1515 08c0 9942     		cmp	r1, r3
 1516 08c2 02D1     		bne	.L228
 1517              		.loc 1 212 0 discriminator 25
 1518 08c4 4FF40023 		mov	r3, #524288
 1519 08c8 3FE0     		b	.L240
 1520              	.L228:
 1521              		.loc 1 212 0 discriminator 26
 1522 08ca 4FF00073 		mov	r3, #33554432
 1523 08ce 3CE0     		b	.L240
 1524              	.L227:
 1525              		.loc 1 212 0 discriminator 24
 1526 08d0 4FF40023 		mov	r3, #524288
 1527 08d4 39E0     		b	.L240
 1528              	.L226:
 1529              		.loc 1 212 0 discriminator 22
 1530 08d6 4FF40023 		mov	r3, #524288
 1531 08da 36E0     		b	.L240
 1532              	.L225:
 1533              		.loc 1 212 0 discriminator 20
 1534 08dc 4FF40023 		mov	r3, #524288
 1535 08e0 33E0     		b	.L240
 1536              	.L224:
 1537              		.loc 1 212 0 discriminator 18
 1538 08e2 4FF40073 		mov	r3, #512
 1539 08e6 30E0     		b	.L240
 1540              	.L223:
 1541              		.loc 1 212 0 discriminator 16
 1542 08e8 4FF40073 		mov	r3, #512
 1543 08ec 2DE0     		b	.L240
 1544              	.L530:
 1545 08ee 00BF     		.align	2
 1546              	.L529:
 1547 08f0 58600240 		.word	1073897560
 1548 08f4 00600240 		.word	1073897472
 1549 08f8 10600240 		.word	1073897488
 1550 08fc 10640240 		.word	1073898512
 1551 0900 70600240 		.word	1073897584
 1552 0904 70640240 		.word	1073898608
 1553 0908 28600240 		.word	1073897512
 1554 090c 28640240 		.word	1073898536
 1555 0910 88600240 		.word	1073897608
 1556 0914 88640240 		.word	1073898632
 1557 0918 40600240 		.word	1073897536
 1558 091c 40640240 		.word	1073898560
ARM GAS  /tmp/ccn0LRTe.s 			page 32


 1559 0920 A0600240 		.word	1073897632
 1560 0924 A0640240 		.word	1073898656
 1561 0928 58640240 		.word	1073898584
 1562 092c 00640240 		.word	1073898496
 1563              	.L222:
 1564              		.loc 1 212 0 discriminator 14
 1565 0930 4FF40073 		mov	r3, #512
 1566 0934 09E0     		b	.L240
 1567              	.L221:
 1568              		.loc 1 212 0 discriminator 12
 1569 0936 4FF40073 		mov	r3, #512
 1570 093a 06E0     		b	.L240
 1571              	.L220:
 1572              		.loc 1 212 0 discriminator 10
 1573 093c 0823     		movs	r3, #8
 1574 093e 04E0     		b	.L240
 1575              	.L219:
 1576              		.loc 1 212 0 discriminator 8
 1577 0940 0823     		movs	r3, #8
 1578 0942 02E0     		b	.L240
 1579              	.L218:
 1580              		.loc 1 212 0 discriminator 6
 1581 0944 0823     		movs	r3, #8
 1582 0946 00E0     		b	.L240
 1583              	.L217:
 1584              		.loc 1 212 0 discriminator 4
 1585 0948 0823     		movs	r3, #8
 1586              	.L240:
 1587              		.loc 1 212 0 discriminator 50
 1588 094a D360     		str	r3, [r2, #12]
 1589 094c 73E1     		b	.L241
 1590              	.L216:
 1591              		.loc 1 212 0 discriminator 2
 1592 094e FB68     		ldr	r3, [r7, #12]
 1593 0950 1B68     		ldr	r3, [r3]
 1594 0952 1A46     		mov	r2, r3
 1595 0954 9F4B     		ldr	r3, .L531
 1596 0956 9A42     		cmp	r2, r3
 1597 0958 6CD9     		bls	.L242
 1598              		.loc 1 212 0 discriminator 51
 1599 095a 9F4A     		ldr	r2, .L531+4
 1600 095c FB68     		ldr	r3, [r7, #12]
 1601 095e 1B68     		ldr	r3, [r3]
 1602 0960 1946     		mov	r1, r3
 1603 0962 9E4B     		ldr	r3, .L531+8
 1604 0964 9942     		cmp	r1, r3
 1605 0966 62D0     		beq	.L243
 1606              		.loc 1 212 0 discriminator 53
 1607 0968 FB68     		ldr	r3, [r7, #12]
 1608 096a 1B68     		ldr	r3, [r3]
 1609 096c 1946     		mov	r1, r3
 1610 096e 9C4B     		ldr	r3, .L531+12
 1611 0970 9942     		cmp	r1, r3
 1612 0972 5AD0     		beq	.L244
 1613              		.loc 1 212 0 discriminator 55
 1614 0974 FB68     		ldr	r3, [r7, #12]
 1615 0976 1B68     		ldr	r3, [r3]
ARM GAS  /tmp/ccn0LRTe.s 			page 33


 1616 0978 1946     		mov	r1, r3
 1617 097a 9A4B     		ldr	r3, .L531+16
 1618 097c 9942     		cmp	r1, r3
 1619 097e 52D0     		beq	.L245
 1620              		.loc 1 212 0 discriminator 57
 1621 0980 FB68     		ldr	r3, [r7, #12]
 1622 0982 1B68     		ldr	r3, [r3]
 1623 0984 1946     		mov	r1, r3
 1624 0986 984B     		ldr	r3, .L531+20
 1625 0988 9942     		cmp	r1, r3
 1626 098a 4AD0     		beq	.L246
 1627              		.loc 1 212 0 discriminator 59
 1628 098c FB68     		ldr	r3, [r7, #12]
 1629 098e 1B68     		ldr	r3, [r3]
 1630 0990 1946     		mov	r1, r3
 1631 0992 964B     		ldr	r3, .L531+24
 1632 0994 9942     		cmp	r1, r3
 1633 0996 41D0     		beq	.L247
 1634              		.loc 1 212 0 discriminator 61
 1635 0998 FB68     		ldr	r3, [r7, #12]
 1636 099a 1B68     		ldr	r3, [r3]
 1637 099c 1946     		mov	r1, r3
 1638 099e 944B     		ldr	r3, .L531+28
 1639 09a0 9942     		cmp	r1, r3
 1640 09a2 38D0     		beq	.L248
 1641              		.loc 1 212 0 discriminator 63
 1642 09a4 FB68     		ldr	r3, [r7, #12]
 1643 09a6 1B68     		ldr	r3, [r3]
 1644 09a8 1946     		mov	r1, r3
 1645 09aa 924B     		ldr	r3, .L531+32
 1646 09ac 9942     		cmp	r1, r3
 1647 09ae 2FD0     		beq	.L249
 1648              		.loc 1 212 0 discriminator 65
 1649 09b0 FB68     		ldr	r3, [r7, #12]
 1650 09b2 1B68     		ldr	r3, [r3]
 1651 09b4 1946     		mov	r1, r3
 1652 09b6 904B     		ldr	r3, .L531+36
 1653 09b8 9942     		cmp	r1, r3
 1654 09ba 26D0     		beq	.L250
 1655              		.loc 1 212 0 discriminator 67
 1656 09bc FB68     		ldr	r3, [r7, #12]
 1657 09be 1B68     		ldr	r3, [r3]
 1658 09c0 1946     		mov	r1, r3
 1659 09c2 8E4B     		ldr	r3, .L531+40
 1660 09c4 9942     		cmp	r1, r3
 1661 09c6 1DD0     		beq	.L251
 1662              		.loc 1 212 0 discriminator 69
 1663 09c8 FB68     		ldr	r3, [r7, #12]
 1664 09ca 1B68     		ldr	r3, [r3]
 1665 09cc 1946     		mov	r1, r3
 1666 09ce 8C4B     		ldr	r3, .L531+44
 1667 09d0 9942     		cmp	r1, r3
 1668 09d2 14D0     		beq	.L252
 1669              		.loc 1 212 0 discriminator 71
 1670 09d4 FB68     		ldr	r3, [r7, #12]
 1671 09d6 1B68     		ldr	r3, [r3]
 1672 09d8 1946     		mov	r1, r3
ARM GAS  /tmp/ccn0LRTe.s 			page 34


 1673 09da 8A4B     		ldr	r3, .L531+48
 1674 09dc 9942     		cmp	r1, r3
 1675 09de 0BD0     		beq	.L253
 1676              		.loc 1 212 0 discriminator 73
 1677 09e0 FB68     		ldr	r3, [r7, #12]
 1678 09e2 1B68     		ldr	r3, [r3]
 1679 09e4 1946     		mov	r1, r3
 1680 09e6 884B     		ldr	r3, .L531+52
 1681 09e8 9942     		cmp	r1, r3
 1682 09ea 02D1     		bne	.L254
 1683              		.loc 1 212 0 discriminator 75
 1684 09ec 4FF40023 		mov	r3, #524288
 1685 09f0 1EE0     		b	.L266
 1686              	.L254:
 1687              		.loc 1 212 0 discriminator 76
 1688 09f2 4FF00073 		mov	r3, #33554432
 1689 09f6 1BE0     		b	.L266
 1690              	.L253:
 1691              		.loc 1 212 0 discriminator 74
 1692 09f8 4FF40023 		mov	r3, #524288
 1693 09fc 18E0     		b	.L266
 1694              	.L252:
 1695              		.loc 1 212 0 discriminator 72
 1696 09fe 4FF40023 		mov	r3, #524288
 1697 0a02 15E0     		b	.L266
 1698              	.L251:
 1699              		.loc 1 212 0 discriminator 70
 1700 0a04 4FF40023 		mov	r3, #524288
 1701 0a08 12E0     		b	.L266
 1702              	.L250:
 1703              		.loc 1 212 0 discriminator 68
 1704 0a0a 4FF40073 		mov	r3, #512
 1705 0a0e 0FE0     		b	.L266
 1706              	.L249:
 1707              		.loc 1 212 0 discriminator 66
 1708 0a10 4FF40073 		mov	r3, #512
 1709 0a14 0CE0     		b	.L266
 1710              	.L248:
 1711              		.loc 1 212 0 discriminator 64
 1712 0a16 4FF40073 		mov	r3, #512
 1713 0a1a 09E0     		b	.L266
 1714              	.L247:
 1715              		.loc 1 212 0 discriminator 62
 1716 0a1c 4FF40073 		mov	r3, #512
 1717 0a20 06E0     		b	.L266
 1718              	.L246:
 1719              		.loc 1 212 0 discriminator 60
 1720 0a22 0823     		movs	r3, #8
 1721 0a24 04E0     		b	.L266
 1722              	.L245:
 1723              		.loc 1 212 0 discriminator 58
 1724 0a26 0823     		movs	r3, #8
 1725 0a28 02E0     		b	.L266
 1726              	.L244:
 1727              		.loc 1 212 0 discriminator 56
 1728 0a2a 0823     		movs	r3, #8
 1729 0a2c 00E0     		b	.L266
ARM GAS  /tmp/ccn0LRTe.s 			page 35


 1730              	.L243:
 1731              		.loc 1 212 0 discriminator 54
 1732 0a2e 0823     		movs	r3, #8
 1733              	.L266:
 1734              		.loc 1 212 0 discriminator 100
 1735 0a30 9360     		str	r3, [r2, #8]
 1736 0a32 00E1     		b	.L241
 1737              	.L242:
 1738              		.loc 1 212 0 discriminator 52
 1739 0a34 FB68     		ldr	r3, [r7, #12]
 1740 0a36 1B68     		ldr	r3, [r3]
 1741 0a38 1A46     		mov	r2, r3
 1742 0a3a 744B     		ldr	r3, .L531+56
 1743 0a3c 9A42     		cmp	r2, r3
 1744 0a3e 6CD9     		bls	.L268
 1745              		.loc 1 212 0 discriminator 102
 1746 0a40 734A     		ldr	r2, .L531+60
 1747 0a42 FB68     		ldr	r3, [r7, #12]
 1748 0a44 1B68     		ldr	r3, [r3]
 1749 0a46 1946     		mov	r1, r3
 1750 0a48 644B     		ldr	r3, .L531+8
 1751 0a4a 9942     		cmp	r1, r3
 1752 0a4c 62D0     		beq	.L269
 1753              		.loc 1 212 0 discriminator 104
 1754 0a4e FB68     		ldr	r3, [r7, #12]
 1755 0a50 1B68     		ldr	r3, [r3]
 1756 0a52 1946     		mov	r1, r3
 1757 0a54 624B     		ldr	r3, .L531+12
 1758 0a56 9942     		cmp	r1, r3
 1759 0a58 5AD0     		beq	.L270
 1760              		.loc 1 212 0 discriminator 106
 1761 0a5a FB68     		ldr	r3, [r7, #12]
 1762 0a5c 1B68     		ldr	r3, [r3]
 1763 0a5e 1946     		mov	r1, r3
 1764 0a60 604B     		ldr	r3, .L531+16
 1765 0a62 9942     		cmp	r1, r3
 1766 0a64 52D0     		beq	.L271
 1767              		.loc 1 212 0 discriminator 108
 1768 0a66 FB68     		ldr	r3, [r7, #12]
 1769 0a68 1B68     		ldr	r3, [r3]
 1770 0a6a 1946     		mov	r1, r3
 1771 0a6c 5E4B     		ldr	r3, .L531+20
 1772 0a6e 9942     		cmp	r1, r3
 1773 0a70 4AD0     		beq	.L272
 1774              		.loc 1 212 0 discriminator 110
 1775 0a72 FB68     		ldr	r3, [r7, #12]
 1776 0a74 1B68     		ldr	r3, [r3]
 1777 0a76 1946     		mov	r1, r3
 1778 0a78 5C4B     		ldr	r3, .L531+24
 1779 0a7a 9942     		cmp	r1, r3
 1780 0a7c 41D0     		beq	.L273
 1781              		.loc 1 212 0 discriminator 112
 1782 0a7e FB68     		ldr	r3, [r7, #12]
 1783 0a80 1B68     		ldr	r3, [r3]
 1784 0a82 1946     		mov	r1, r3
 1785 0a84 5A4B     		ldr	r3, .L531+28
 1786 0a86 9942     		cmp	r1, r3
ARM GAS  /tmp/ccn0LRTe.s 			page 36


 1787 0a88 38D0     		beq	.L274
 1788              		.loc 1 212 0 discriminator 114
 1789 0a8a FB68     		ldr	r3, [r7, #12]
 1790 0a8c 1B68     		ldr	r3, [r3]
 1791 0a8e 1946     		mov	r1, r3
 1792 0a90 584B     		ldr	r3, .L531+32
 1793 0a92 9942     		cmp	r1, r3
 1794 0a94 2FD0     		beq	.L275
 1795              		.loc 1 212 0 discriminator 116
 1796 0a96 FB68     		ldr	r3, [r7, #12]
 1797 0a98 1B68     		ldr	r3, [r3]
 1798 0a9a 1946     		mov	r1, r3
 1799 0a9c 564B     		ldr	r3, .L531+36
 1800 0a9e 9942     		cmp	r1, r3
 1801 0aa0 26D0     		beq	.L276
 1802              		.loc 1 212 0 discriminator 118
 1803 0aa2 FB68     		ldr	r3, [r7, #12]
 1804 0aa4 1B68     		ldr	r3, [r3]
 1805 0aa6 1946     		mov	r1, r3
 1806 0aa8 544B     		ldr	r3, .L531+40
 1807 0aaa 9942     		cmp	r1, r3
 1808 0aac 1DD0     		beq	.L277
 1809              		.loc 1 212 0 discriminator 120
 1810 0aae FB68     		ldr	r3, [r7, #12]
 1811 0ab0 1B68     		ldr	r3, [r3]
 1812 0ab2 1946     		mov	r1, r3
 1813 0ab4 524B     		ldr	r3, .L531+44
 1814 0ab6 9942     		cmp	r1, r3
 1815 0ab8 14D0     		beq	.L278
 1816              		.loc 1 212 0 discriminator 122
 1817 0aba FB68     		ldr	r3, [r7, #12]
 1818 0abc 1B68     		ldr	r3, [r3]
 1819 0abe 1946     		mov	r1, r3
 1820 0ac0 504B     		ldr	r3, .L531+48
 1821 0ac2 9942     		cmp	r1, r3
 1822 0ac4 0BD0     		beq	.L279
 1823              		.loc 1 212 0 discriminator 124
 1824 0ac6 FB68     		ldr	r3, [r7, #12]
 1825 0ac8 1B68     		ldr	r3, [r3]
 1826 0aca 1946     		mov	r1, r3
 1827 0acc 4E4B     		ldr	r3, .L531+52
 1828 0ace 9942     		cmp	r1, r3
 1829 0ad0 02D1     		bne	.L280
 1830              		.loc 1 212 0 discriminator 126
 1831 0ad2 4FF40023 		mov	r3, #524288
 1832 0ad6 1EE0     		b	.L292
 1833              	.L280:
 1834              		.loc 1 212 0 discriminator 127
 1835 0ad8 4FF00073 		mov	r3, #33554432
 1836 0adc 1BE0     		b	.L292
 1837              	.L279:
 1838              		.loc 1 212 0 discriminator 125
 1839 0ade 4FF40023 		mov	r3, #524288
 1840 0ae2 18E0     		b	.L292
 1841              	.L278:
 1842              		.loc 1 212 0 discriminator 123
 1843 0ae4 4FF40023 		mov	r3, #524288
ARM GAS  /tmp/ccn0LRTe.s 			page 37


 1844 0ae8 15E0     		b	.L292
 1845              	.L277:
 1846              		.loc 1 212 0 discriminator 121
 1847 0aea 4FF40023 		mov	r3, #524288
 1848 0aee 12E0     		b	.L292
 1849              	.L276:
 1850              		.loc 1 212 0 discriminator 119
 1851 0af0 4FF40073 		mov	r3, #512
 1852 0af4 0FE0     		b	.L292
 1853              	.L275:
 1854              		.loc 1 212 0 discriminator 117
 1855 0af6 4FF40073 		mov	r3, #512
 1856 0afa 0CE0     		b	.L292
 1857              	.L274:
 1858              		.loc 1 212 0 discriminator 115
 1859 0afc 4FF40073 		mov	r3, #512
 1860 0b00 09E0     		b	.L292
 1861              	.L273:
 1862              		.loc 1 212 0 discriminator 113
 1863 0b02 4FF40073 		mov	r3, #512
 1864 0b06 06E0     		b	.L292
 1865              	.L272:
 1866              		.loc 1 212 0 discriminator 111
 1867 0b08 0823     		movs	r3, #8
 1868 0b0a 04E0     		b	.L292
 1869              	.L271:
 1870              		.loc 1 212 0 discriminator 109
 1871 0b0c 0823     		movs	r3, #8
 1872 0b0e 02E0     		b	.L292
 1873              	.L270:
 1874              		.loc 1 212 0 discriminator 107
 1875 0b10 0823     		movs	r3, #8
 1876 0b12 00E0     		b	.L292
 1877              	.L269:
 1878              		.loc 1 212 0 discriminator 105
 1879 0b14 0823     		movs	r3, #8
 1880              	.L292:
 1881              		.loc 1 212 0 discriminator 151
 1882 0b16 D360     		str	r3, [r2, #12]
 1883 0b18 8DE0     		b	.L241
 1884              	.L268:
 1885              		.loc 1 212 0 discriminator 103
 1886 0b1a 3D4A     		ldr	r2, .L531+60
 1887 0b1c FB68     		ldr	r3, [r7, #12]
 1888 0b1e 1B68     		ldr	r3, [r3]
 1889 0b20 1946     		mov	r1, r3
 1890 0b22 2E4B     		ldr	r3, .L531+8
 1891 0b24 9942     		cmp	r1, r3
 1892 0b26 00F08480 		beq	.L294
 1893              		.loc 1 212 0 discriminator 153
 1894 0b2a FB68     		ldr	r3, [r7, #12]
 1895 0b2c 1B68     		ldr	r3, [r3]
 1896 0b2e 1946     		mov	r1, r3
 1897 0b30 2B4B     		ldr	r3, .L531+12
 1898 0b32 9942     		cmp	r1, r3
 1899 0b34 7BD0     		beq	.L295
 1900              		.loc 1 212 0 discriminator 155
ARM GAS  /tmp/ccn0LRTe.s 			page 38


 1901 0b36 FB68     		ldr	r3, [r7, #12]
 1902 0b38 1B68     		ldr	r3, [r3]
 1903 0b3a 1946     		mov	r1, r3
 1904 0b3c 294B     		ldr	r3, .L531+16
 1905 0b3e 9942     		cmp	r1, r3
 1906 0b40 73D0     		beq	.L296
 1907              		.loc 1 212 0 discriminator 157
 1908 0b42 FB68     		ldr	r3, [r7, #12]
 1909 0b44 1B68     		ldr	r3, [r3]
 1910 0b46 1946     		mov	r1, r3
 1911 0b48 274B     		ldr	r3, .L531+20
 1912 0b4a 9942     		cmp	r1, r3
 1913 0b4c 6BD0     		beq	.L297
 1914              		.loc 1 212 0 discriminator 159
 1915 0b4e FB68     		ldr	r3, [r7, #12]
 1916 0b50 1B68     		ldr	r3, [r3]
 1917 0b52 1946     		mov	r1, r3
 1918 0b54 254B     		ldr	r3, .L531+24
 1919 0b56 9942     		cmp	r1, r3
 1920 0b58 62D0     		beq	.L298
 1921              		.loc 1 212 0 discriminator 161
 1922 0b5a FB68     		ldr	r3, [r7, #12]
 1923 0b5c 1B68     		ldr	r3, [r3]
 1924 0b5e 1946     		mov	r1, r3
 1925 0b60 234B     		ldr	r3, .L531+28
 1926 0b62 9942     		cmp	r1, r3
 1927 0b64 59D0     		beq	.L299
 1928              		.loc 1 212 0 discriminator 163
 1929 0b66 FB68     		ldr	r3, [r7, #12]
 1930 0b68 1B68     		ldr	r3, [r3]
 1931 0b6a 1946     		mov	r1, r3
 1932 0b6c 214B     		ldr	r3, .L531+32
 1933 0b6e 9942     		cmp	r1, r3
 1934 0b70 50D0     		beq	.L300
 1935              		.loc 1 212 0 discriminator 165
 1936 0b72 FB68     		ldr	r3, [r7, #12]
 1937 0b74 1B68     		ldr	r3, [r3]
 1938 0b76 1946     		mov	r1, r3
 1939 0b78 1F4B     		ldr	r3, .L531+36
 1940 0b7a 9942     		cmp	r1, r3
 1941 0b7c 26D0     		beq	.L301
 1942              		.loc 1 212 0 discriminator 167
 1943 0b7e FB68     		ldr	r3, [r7, #12]
 1944 0b80 1B68     		ldr	r3, [r3]
 1945 0b82 1946     		mov	r1, r3
 1946 0b84 1D4B     		ldr	r3, .L531+40
 1947 0b86 9942     		cmp	r1, r3
 1948 0b88 1DD0     		beq	.L302
 1949              		.loc 1 212 0 discriminator 169
 1950 0b8a FB68     		ldr	r3, [r7, #12]
 1951 0b8c 1B68     		ldr	r3, [r3]
 1952 0b8e 1946     		mov	r1, r3
 1953 0b90 1B4B     		ldr	r3, .L531+44
 1954 0b92 9942     		cmp	r1, r3
 1955 0b94 14D0     		beq	.L303
 1956              		.loc 1 212 0 discriminator 171
 1957 0b96 FB68     		ldr	r3, [r7, #12]
ARM GAS  /tmp/ccn0LRTe.s 			page 39


 1958 0b98 1B68     		ldr	r3, [r3]
 1959 0b9a 1946     		mov	r1, r3
 1960 0b9c 194B     		ldr	r3, .L531+48
 1961 0b9e 9942     		cmp	r1, r3
 1962 0ba0 0BD0     		beq	.L304
 1963              		.loc 1 212 0 discriminator 173
 1964 0ba2 FB68     		ldr	r3, [r7, #12]
 1965 0ba4 1B68     		ldr	r3, [r3]
 1966 0ba6 1946     		mov	r1, r3
 1967 0ba8 174B     		ldr	r3, .L531+52
 1968 0baa 9942     		cmp	r1, r3
 1969 0bac 02D1     		bne	.L305
 1970              		.loc 1 212 0 discriminator 175
 1971 0bae 4FF40023 		mov	r3, #524288
 1972 0bb2 3FE0     		b	.L317
 1973              	.L305:
 1974              		.loc 1 212 0 discriminator 176
 1975 0bb4 4FF00073 		mov	r3, #33554432
 1976 0bb8 3CE0     		b	.L317
 1977              	.L304:
 1978              		.loc 1 212 0 discriminator 174
 1979 0bba 4FF40023 		mov	r3, #524288
 1980 0bbe 39E0     		b	.L317
 1981              	.L303:
 1982              		.loc 1 212 0 discriminator 172
 1983 0bc0 4FF40023 		mov	r3, #524288
 1984 0bc4 36E0     		b	.L317
 1985              	.L302:
 1986              		.loc 1 212 0 discriminator 170
 1987 0bc6 4FF40023 		mov	r3, #524288
 1988 0bca 33E0     		b	.L317
 1989              	.L301:
 1990              		.loc 1 212 0 discriminator 168
 1991 0bcc 4FF40073 		mov	r3, #512
 1992 0bd0 30E0     		b	.L317
 1993              	.L532:
 1994 0bd2 00BF     		.align	2
 1995              	.L531:
 1996 0bd4 B8600240 		.word	1073897656
 1997 0bd8 00640240 		.word	1073898496
 1998 0bdc 10600240 		.word	1073897488
 1999 0be0 10640240 		.word	1073898512
 2000 0be4 70600240 		.word	1073897584
 2001 0be8 70640240 		.word	1073898608
 2002 0bec 28600240 		.word	1073897512
 2003 0bf0 28640240 		.word	1073898536
 2004 0bf4 88600240 		.word	1073897608
 2005 0bf8 88640240 		.word	1073898632
 2006 0bfc 40600240 		.word	1073897536
 2007 0c00 40640240 		.word	1073898560
 2008 0c04 A0600240 		.word	1073897632
 2009 0c08 A0640240 		.word	1073898656
 2010 0c0c 58600240 		.word	1073897560
 2011 0c10 00600240 		.word	1073897472
 2012              	.L300:
 2013              		.loc 1 212 0 discriminator 166
 2014 0c14 4FF40073 		mov	r3, #512
ARM GAS  /tmp/ccn0LRTe.s 			page 40


 2015 0c18 0CE0     		b	.L317
 2016              	.L299:
 2017              		.loc 1 212 0 discriminator 164
 2018 0c1a 4FF40073 		mov	r3, #512
 2019 0c1e 09E0     		b	.L317
 2020              	.L298:
 2021              		.loc 1 212 0 discriminator 162
 2022 0c20 4FF40073 		mov	r3, #512
 2023 0c24 06E0     		b	.L317
 2024              	.L297:
 2025              		.loc 1 212 0 discriminator 160
 2026 0c26 0823     		movs	r3, #8
 2027 0c28 04E0     		b	.L317
 2028              	.L296:
 2029              		.loc 1 212 0 discriminator 158
 2030 0c2a 0823     		movs	r3, #8
 2031 0c2c 02E0     		b	.L317
 2032              	.L295:
 2033              		.loc 1 212 0 discriminator 156
 2034 0c2e 0823     		movs	r3, #8
 2035 0c30 00E0     		b	.L317
 2036              	.L294:
 2037              		.loc 1 212 0 discriminator 154
 2038 0c32 0823     		movs	r3, #8
 2039              	.L317:
 2040              		.loc 1 212 0 discriminator 200
 2041 0c34 9360     		str	r3, [r2, #8]
 2042              	.L241:
 213:../../Drivers/STM32F7xx_HAL_Driver/Src/stm32f7xx_hal_dma_ex.c ****     __HAL_DMA_CLEAR_FLAG (hdma, __HAL_DMA_GET_DME_FLAG_INDEX(hdma));
 2043              		.loc 1 213 0 is_stmt 1
 2044 0c36 FB68     		ldr	r3, [r7, #12]
 2045 0c38 1B68     		ldr	r3, [r3]
 2046 0c3a 1A46     		mov	r2, r3
 2047 0c3c 9C4B     		ldr	r3, .L533
 2048 0c3e 9A42     		cmp	r2, r3
 2049 0c40 6CD9     		bls	.L318
 2050              		.loc 1 213 0 is_stmt 0 discriminator 1
 2051 0c42 9C4A     		ldr	r2, .L533+4
 2052 0c44 FB68     		ldr	r3, [r7, #12]
 2053 0c46 1B68     		ldr	r3, [r3]
 2054 0c48 1946     		mov	r1, r3
 2055 0c4a 9B4B     		ldr	r3, .L533+8
 2056 0c4c 9942     		cmp	r1, r3
 2057 0c4e 62D0     		beq	.L319
 2058              		.loc 1 213 0 discriminator 3
 2059 0c50 FB68     		ldr	r3, [r7, #12]
 2060 0c52 1B68     		ldr	r3, [r3]
 2061 0c54 1946     		mov	r1, r3
 2062 0c56 994B     		ldr	r3, .L533+12
 2063 0c58 9942     		cmp	r1, r3
 2064 0c5a 5AD0     		beq	.L320
 2065              		.loc 1 213 0 discriminator 5
 2066 0c5c FB68     		ldr	r3, [r7, #12]
 2067 0c5e 1B68     		ldr	r3, [r3]
 2068 0c60 1946     		mov	r1, r3
 2069 0c62 974B     		ldr	r3, .L533+16
 2070 0c64 9942     		cmp	r1, r3
ARM GAS  /tmp/ccn0LRTe.s 			page 41


 2071 0c66 52D0     		beq	.L321
 2072              		.loc 1 213 0 discriminator 7
 2073 0c68 FB68     		ldr	r3, [r7, #12]
 2074 0c6a 1B68     		ldr	r3, [r3]
 2075 0c6c 1946     		mov	r1, r3
 2076 0c6e 954B     		ldr	r3, .L533+20
 2077 0c70 9942     		cmp	r1, r3
 2078 0c72 4AD0     		beq	.L322
 2079              		.loc 1 213 0 discriminator 9
 2080 0c74 FB68     		ldr	r3, [r7, #12]
 2081 0c76 1B68     		ldr	r3, [r3]
 2082 0c78 1946     		mov	r1, r3
 2083 0c7a 934B     		ldr	r3, .L533+24
 2084 0c7c 9942     		cmp	r1, r3
 2085 0c7e 41D0     		beq	.L323
 2086              		.loc 1 213 0 discriminator 11
 2087 0c80 FB68     		ldr	r3, [r7, #12]
 2088 0c82 1B68     		ldr	r3, [r3]
 2089 0c84 1946     		mov	r1, r3
 2090 0c86 914B     		ldr	r3, .L533+28
 2091 0c88 9942     		cmp	r1, r3
 2092 0c8a 38D0     		beq	.L324
 2093              		.loc 1 213 0 discriminator 13
 2094 0c8c FB68     		ldr	r3, [r7, #12]
 2095 0c8e 1B68     		ldr	r3, [r3]
 2096 0c90 1946     		mov	r1, r3
 2097 0c92 8F4B     		ldr	r3, .L533+32
 2098 0c94 9942     		cmp	r1, r3
 2099 0c96 2FD0     		beq	.L325
 2100              		.loc 1 213 0 discriminator 15
 2101 0c98 FB68     		ldr	r3, [r7, #12]
 2102 0c9a 1B68     		ldr	r3, [r3]
 2103 0c9c 1946     		mov	r1, r3
 2104 0c9e 8D4B     		ldr	r3, .L533+36
 2105 0ca0 9942     		cmp	r1, r3
 2106 0ca2 26D0     		beq	.L326
 2107              		.loc 1 213 0 discriminator 17
 2108 0ca4 FB68     		ldr	r3, [r7, #12]
 2109 0ca6 1B68     		ldr	r3, [r3]
 2110 0ca8 1946     		mov	r1, r3
 2111 0caa 8B4B     		ldr	r3, .L533+40
 2112 0cac 9942     		cmp	r1, r3
 2113 0cae 1DD0     		beq	.L327
 2114              		.loc 1 213 0 discriminator 19
 2115 0cb0 FB68     		ldr	r3, [r7, #12]
 2116 0cb2 1B68     		ldr	r3, [r3]
 2117 0cb4 1946     		mov	r1, r3
 2118 0cb6 894B     		ldr	r3, .L533+44
 2119 0cb8 9942     		cmp	r1, r3
 2120 0cba 14D0     		beq	.L328
 2121              		.loc 1 213 0 discriminator 21
 2122 0cbc FB68     		ldr	r3, [r7, #12]
 2123 0cbe 1B68     		ldr	r3, [r3]
 2124 0cc0 1946     		mov	r1, r3
 2125 0cc2 874B     		ldr	r3, .L533+48
 2126 0cc4 9942     		cmp	r1, r3
 2127 0cc6 0BD0     		beq	.L329
ARM GAS  /tmp/ccn0LRTe.s 			page 42


 2128              		.loc 1 213 0 discriminator 23
 2129 0cc8 FB68     		ldr	r3, [r7, #12]
 2130 0cca 1B68     		ldr	r3, [r3]
 2131 0ccc 1946     		mov	r1, r3
 2132 0cce 854B     		ldr	r3, .L533+52
 2133 0cd0 9942     		cmp	r1, r3
 2134 0cd2 02D1     		bne	.L330
 2135              		.loc 1 213 0 discriminator 25
 2136 0cd4 4FF48023 		mov	r3, #262144
 2137 0cd8 1EE0     		b	.L342
 2138              	.L330:
 2139              		.loc 1 213 0 discriminator 26
 2140 0cda 4FF08073 		mov	r3, #16777216
 2141 0cde 1BE0     		b	.L342
 2142              	.L329:
 2143              		.loc 1 213 0 discriminator 24
 2144 0ce0 4FF48023 		mov	r3, #262144
 2145 0ce4 18E0     		b	.L342
 2146              	.L328:
 2147              		.loc 1 213 0 discriminator 22
 2148 0ce6 4FF48023 		mov	r3, #262144
 2149 0cea 15E0     		b	.L342
 2150              	.L327:
 2151              		.loc 1 213 0 discriminator 20
 2152 0cec 4FF48023 		mov	r3, #262144
 2153 0cf0 12E0     		b	.L342
 2154              	.L326:
 2155              		.loc 1 213 0 discriminator 18
 2156 0cf2 4FF48073 		mov	r3, #256
 2157 0cf6 0FE0     		b	.L342
 2158              	.L325:
 2159              		.loc 1 213 0 discriminator 16
 2160 0cf8 4FF48073 		mov	r3, #256
 2161 0cfc 0CE0     		b	.L342
 2162              	.L324:
 2163              		.loc 1 213 0 discriminator 14
 2164 0cfe 4FF48073 		mov	r3, #256
 2165 0d02 09E0     		b	.L342
 2166              	.L323:
 2167              		.loc 1 213 0 discriminator 12
 2168 0d04 4FF48073 		mov	r3, #256
 2169 0d08 06E0     		b	.L342
 2170              	.L322:
 2171              		.loc 1 213 0 discriminator 10
 2172 0d0a 774B     		ldr	r3, .L533+56
 2173 0d0c 04E0     		b	.L342
 2174              	.L321:
 2175              		.loc 1 213 0 discriminator 8
 2176 0d0e 764B     		ldr	r3, .L533+56
 2177 0d10 02E0     		b	.L342
 2178              	.L320:
 2179              		.loc 1 213 0 discriminator 6
 2180 0d12 754B     		ldr	r3, .L533+56
 2181 0d14 00E0     		b	.L342
 2182              	.L319:
 2183              		.loc 1 213 0 discriminator 4
 2184 0d16 744B     		ldr	r3, .L533+56
ARM GAS  /tmp/ccn0LRTe.s 			page 43


 2185              	.L342:
 2186              		.loc 1 213 0 discriminator 50
 2187 0d18 D360     		str	r3, [r2, #12]
 2188 0d1a 77E1     		b	.L343
 2189              	.L318:
 2190              		.loc 1 213 0 discriminator 2
 2191 0d1c FB68     		ldr	r3, [r7, #12]
 2192 0d1e 1B68     		ldr	r3, [r3]
 2193 0d20 1A46     		mov	r2, r3
 2194 0d22 724B     		ldr	r3, .L533+60
 2195 0d24 9A42     		cmp	r2, r3
 2196 0d26 6CD9     		bls	.L344
 2197              		.loc 1 213 0 discriminator 51
 2198 0d28 624A     		ldr	r2, .L533+4
 2199 0d2a FB68     		ldr	r3, [r7, #12]
 2200 0d2c 1B68     		ldr	r3, [r3]
 2201 0d2e 1946     		mov	r1, r3
 2202 0d30 614B     		ldr	r3, .L533+8
 2203 0d32 9942     		cmp	r1, r3
 2204 0d34 62D0     		beq	.L345
 2205              		.loc 1 213 0 discriminator 53
 2206 0d36 FB68     		ldr	r3, [r7, #12]
 2207 0d38 1B68     		ldr	r3, [r3]
 2208 0d3a 1946     		mov	r1, r3
 2209 0d3c 5F4B     		ldr	r3, .L533+12
 2210 0d3e 9942     		cmp	r1, r3
 2211 0d40 5AD0     		beq	.L346
 2212              		.loc 1 213 0 discriminator 55
 2213 0d42 FB68     		ldr	r3, [r7, #12]
 2214 0d44 1B68     		ldr	r3, [r3]
 2215 0d46 1946     		mov	r1, r3
 2216 0d48 5D4B     		ldr	r3, .L533+16
 2217 0d4a 9942     		cmp	r1, r3
 2218 0d4c 52D0     		beq	.L347
 2219              		.loc 1 213 0 discriminator 57
 2220 0d4e FB68     		ldr	r3, [r7, #12]
 2221 0d50 1B68     		ldr	r3, [r3]
 2222 0d52 1946     		mov	r1, r3
 2223 0d54 5B4B     		ldr	r3, .L533+20
 2224 0d56 9942     		cmp	r1, r3
 2225 0d58 4AD0     		beq	.L348
 2226              		.loc 1 213 0 discriminator 59
 2227 0d5a FB68     		ldr	r3, [r7, #12]
 2228 0d5c 1B68     		ldr	r3, [r3]
 2229 0d5e 1946     		mov	r1, r3
 2230 0d60 594B     		ldr	r3, .L533+24
 2231 0d62 9942     		cmp	r1, r3
 2232 0d64 41D0     		beq	.L349
 2233              		.loc 1 213 0 discriminator 61
 2234 0d66 FB68     		ldr	r3, [r7, #12]
 2235 0d68 1B68     		ldr	r3, [r3]
 2236 0d6a 1946     		mov	r1, r3
 2237 0d6c 574B     		ldr	r3, .L533+28
 2238 0d6e 9942     		cmp	r1, r3
 2239 0d70 38D0     		beq	.L350
 2240              		.loc 1 213 0 discriminator 63
 2241 0d72 FB68     		ldr	r3, [r7, #12]
ARM GAS  /tmp/ccn0LRTe.s 			page 44


 2242 0d74 1B68     		ldr	r3, [r3]
 2243 0d76 1946     		mov	r1, r3
 2244 0d78 554B     		ldr	r3, .L533+32
 2245 0d7a 9942     		cmp	r1, r3
 2246 0d7c 2FD0     		beq	.L351
 2247              		.loc 1 213 0 discriminator 65
 2248 0d7e FB68     		ldr	r3, [r7, #12]
 2249 0d80 1B68     		ldr	r3, [r3]
 2250 0d82 1946     		mov	r1, r3
 2251 0d84 534B     		ldr	r3, .L533+36
 2252 0d86 9942     		cmp	r1, r3
 2253 0d88 26D0     		beq	.L352
 2254              		.loc 1 213 0 discriminator 67
 2255 0d8a FB68     		ldr	r3, [r7, #12]
 2256 0d8c 1B68     		ldr	r3, [r3]
 2257 0d8e 1946     		mov	r1, r3
 2258 0d90 514B     		ldr	r3, .L533+40
 2259 0d92 9942     		cmp	r1, r3
 2260 0d94 1DD0     		beq	.L353
 2261              		.loc 1 213 0 discriminator 69
 2262 0d96 FB68     		ldr	r3, [r7, #12]
 2263 0d98 1B68     		ldr	r3, [r3]
 2264 0d9a 1946     		mov	r1, r3
 2265 0d9c 4F4B     		ldr	r3, .L533+44
 2266 0d9e 9942     		cmp	r1, r3
 2267 0da0 14D0     		beq	.L354
 2268              		.loc 1 213 0 discriminator 71
 2269 0da2 FB68     		ldr	r3, [r7, #12]
 2270 0da4 1B68     		ldr	r3, [r3]
 2271 0da6 1946     		mov	r1, r3
 2272 0da8 4D4B     		ldr	r3, .L533+48
 2273 0daa 9942     		cmp	r1, r3
 2274 0dac 0BD0     		beq	.L355
 2275              		.loc 1 213 0 discriminator 73
 2276 0dae FB68     		ldr	r3, [r7, #12]
 2277 0db0 1B68     		ldr	r3, [r3]
 2278 0db2 1946     		mov	r1, r3
 2279 0db4 4B4B     		ldr	r3, .L533+52
 2280 0db6 9942     		cmp	r1, r3
 2281 0db8 02D1     		bne	.L356
 2282              		.loc 1 213 0 discriminator 75
 2283 0dba 4FF48023 		mov	r3, #262144
 2284 0dbe 1EE0     		b	.L368
 2285              	.L356:
 2286              		.loc 1 213 0 discriminator 76
 2287 0dc0 4FF08073 		mov	r3, #16777216
 2288 0dc4 1BE0     		b	.L368
 2289              	.L355:
 2290              		.loc 1 213 0 discriminator 74
 2291 0dc6 4FF48023 		mov	r3, #262144
 2292 0dca 18E0     		b	.L368
 2293              	.L354:
 2294              		.loc 1 213 0 discriminator 72
 2295 0dcc 4FF48023 		mov	r3, #262144
 2296 0dd0 15E0     		b	.L368
 2297              	.L353:
 2298              		.loc 1 213 0 discriminator 70
ARM GAS  /tmp/ccn0LRTe.s 			page 45


 2299 0dd2 4FF48023 		mov	r3, #262144
 2300 0dd6 12E0     		b	.L368
 2301              	.L352:
 2302              		.loc 1 213 0 discriminator 68
 2303 0dd8 4FF48073 		mov	r3, #256
 2304 0ddc 0FE0     		b	.L368
 2305              	.L351:
 2306              		.loc 1 213 0 discriminator 66
 2307 0dde 4FF48073 		mov	r3, #256
 2308 0de2 0CE0     		b	.L368
 2309              	.L350:
 2310              		.loc 1 213 0 discriminator 64
 2311 0de4 4FF48073 		mov	r3, #256
 2312 0de8 09E0     		b	.L368
 2313              	.L349:
 2314              		.loc 1 213 0 discriminator 62
 2315 0dea 4FF48073 		mov	r3, #256
 2316 0dee 06E0     		b	.L368
 2317              	.L348:
 2318              		.loc 1 213 0 discriminator 60
 2319 0df0 3D4B     		ldr	r3, .L533+56
 2320 0df2 04E0     		b	.L368
 2321              	.L347:
 2322              		.loc 1 213 0 discriminator 58
 2323 0df4 3C4B     		ldr	r3, .L533+56
 2324 0df6 02E0     		b	.L368
 2325              	.L346:
 2326              		.loc 1 213 0 discriminator 56
 2327 0df8 3B4B     		ldr	r3, .L533+56
 2328 0dfa 00E0     		b	.L368
 2329              	.L345:
 2330              		.loc 1 213 0 discriminator 54
 2331 0dfc 3A4B     		ldr	r3, .L533+56
 2332              	.L368:
 2333              		.loc 1 213 0 discriminator 100
 2334 0dfe 9360     		str	r3, [r2, #8]
 2335 0e00 04E1     		b	.L343
 2336              	.L344:
 2337              		.loc 1 213 0 discriminator 52
 2338 0e02 FB68     		ldr	r3, [r7, #12]
 2339 0e04 1B68     		ldr	r3, [r3]
 2340 0e06 1A46     		mov	r2, r3
 2341 0e08 394B     		ldr	r3, .L533+64
 2342 0e0a 9A42     		cmp	r2, r3
 2343 0e0c 40F29280 		bls	.L370
 2344              		.loc 1 213 0 discriminator 102
 2345 0e10 384A     		ldr	r2, .L533+68
 2346 0e12 FB68     		ldr	r3, [r7, #12]
 2347 0e14 1B68     		ldr	r3, [r3]
 2348 0e16 1946     		mov	r1, r3
 2349 0e18 274B     		ldr	r3, .L533+8
 2350 0e1a 9942     		cmp	r1, r3
 2351 0e1c 00F08780 		beq	.L371
 2352              		.loc 1 213 0 discriminator 104
 2353 0e20 FB68     		ldr	r3, [r7, #12]
 2354 0e22 1B68     		ldr	r3, [r3]
 2355 0e24 1946     		mov	r1, r3
ARM GAS  /tmp/ccn0LRTe.s 			page 46


 2356 0e26 254B     		ldr	r3, .L533+12
 2357 0e28 9942     		cmp	r1, r3
 2358 0e2a 7ED0     		beq	.L372
 2359              		.loc 1 213 0 discriminator 106
 2360 0e2c FB68     		ldr	r3, [r7, #12]
 2361 0e2e 1B68     		ldr	r3, [r3]
 2362 0e30 1946     		mov	r1, r3
 2363 0e32 234B     		ldr	r3, .L533+16
 2364 0e34 9942     		cmp	r1, r3
 2365 0e36 76D0     		beq	.L373
 2366              		.loc 1 213 0 discriminator 108
 2367 0e38 FB68     		ldr	r3, [r7, #12]
 2368 0e3a 1B68     		ldr	r3, [r3]
 2369 0e3c 1946     		mov	r1, r3
 2370 0e3e 214B     		ldr	r3, .L533+20
 2371 0e40 9942     		cmp	r1, r3
 2372 0e42 6ED0     		beq	.L374
 2373              		.loc 1 213 0 discriminator 110
 2374 0e44 FB68     		ldr	r3, [r7, #12]
 2375 0e46 1B68     		ldr	r3, [r3]
 2376 0e48 1946     		mov	r1, r3
 2377 0e4a 1F4B     		ldr	r3, .L533+24
 2378 0e4c 9942     		cmp	r1, r3
 2379 0e4e 65D0     		beq	.L375
 2380              		.loc 1 213 0 discriminator 112
 2381 0e50 FB68     		ldr	r3, [r7, #12]
 2382 0e52 1B68     		ldr	r3, [r3]
 2383 0e54 1946     		mov	r1, r3
 2384 0e56 1D4B     		ldr	r3, .L533+28
 2385 0e58 9942     		cmp	r1, r3
 2386 0e5a 5CD0     		beq	.L376
 2387              		.loc 1 213 0 discriminator 114
 2388 0e5c FB68     		ldr	r3, [r7, #12]
 2389 0e5e 1B68     		ldr	r3, [r3]
 2390 0e60 1946     		mov	r1, r3
 2391 0e62 1B4B     		ldr	r3, .L533+32
 2392 0e64 9942     		cmp	r1, r3
 2393 0e66 53D0     		beq	.L377
 2394              		.loc 1 213 0 discriminator 116
 2395 0e68 FB68     		ldr	r3, [r7, #12]
 2396 0e6a 1B68     		ldr	r3, [r3]
 2397 0e6c 1946     		mov	r1, r3
 2398 0e6e 194B     		ldr	r3, .L533+36
 2399 0e70 9942     		cmp	r1, r3
 2400 0e72 4AD0     		beq	.L378
 2401              		.loc 1 213 0 discriminator 118
 2402 0e74 FB68     		ldr	r3, [r7, #12]
 2403 0e76 1B68     		ldr	r3, [r3]
 2404 0e78 1946     		mov	r1, r3
 2405 0e7a 174B     		ldr	r3, .L533+40
 2406 0e7c 9942     		cmp	r1, r3
 2407 0e7e 41D0     		beq	.L379
 2408              		.loc 1 213 0 discriminator 120
 2409 0e80 FB68     		ldr	r3, [r7, #12]
 2410 0e82 1B68     		ldr	r3, [r3]
 2411 0e84 1946     		mov	r1, r3
 2412 0e86 154B     		ldr	r3, .L533+44
ARM GAS  /tmp/ccn0LRTe.s 			page 47


 2413 0e88 9942     		cmp	r1, r3
 2414 0e8a 38D0     		beq	.L380
 2415              		.loc 1 213 0 discriminator 122
 2416 0e8c FB68     		ldr	r3, [r7, #12]
 2417 0e8e 1B68     		ldr	r3, [r3]
 2418 0e90 1946     		mov	r1, r3
 2419 0e92 134B     		ldr	r3, .L533+48
 2420 0e94 9942     		cmp	r1, r3
 2421 0e96 2FD0     		beq	.L381
 2422              		.loc 1 213 0 discriminator 124
 2423 0e98 FB68     		ldr	r3, [r7, #12]
 2424 0e9a 1B68     		ldr	r3, [r3]
 2425 0e9c 1946     		mov	r1, r3
 2426 0e9e 114B     		ldr	r3, .L533+52
 2427 0ea0 9942     		cmp	r1, r3
 2428 0ea2 02D1     		bne	.L382
 2429              		.loc 1 213 0 discriminator 126
 2430 0ea4 4FF48023 		mov	r3, #262144
 2431 0ea8 42E0     		b	.L394
 2432              	.L382:
 2433              		.loc 1 213 0 discriminator 127
 2434 0eaa 4FF08073 		mov	r3, #16777216
 2435 0eae 3FE0     		b	.L394
 2436              	.L534:
 2437              		.align	2
 2438              	.L533:
 2439 0eb0 58640240 		.word	1073898584
 2440 0eb4 00640240 		.word	1073898496
 2441 0eb8 10600240 		.word	1073897488
 2442 0ebc 10640240 		.word	1073898512
 2443 0ec0 70600240 		.word	1073897584
 2444 0ec4 70640240 		.word	1073898608
 2445 0ec8 28600240 		.word	1073897512
 2446 0ecc 28640240 		.word	1073898536
 2447 0ed0 88600240 		.word	1073897608
 2448 0ed4 88640240 		.word	1073898632
 2449 0ed8 40600240 		.word	1073897536
 2450 0edc 40640240 		.word	1073898560
 2451 0ee0 A0600240 		.word	1073897632
 2452 0ee4 A0640240 		.word	1073898656
 2453 0ee8 04008000 		.word	8388612
 2454 0eec B8600240 		.word	1073897656
 2455 0ef0 58600240 		.word	1073897560
 2456 0ef4 00600240 		.word	1073897472
 2457              	.L381:
 2458              		.loc 1 213 0 discriminator 125
 2459 0ef8 4FF48023 		mov	r3, #262144
 2460 0efc 18E0     		b	.L394
 2461              	.L380:
 2462              		.loc 1 213 0 discriminator 123
 2463 0efe 4FF48023 		mov	r3, #262144
 2464 0f02 15E0     		b	.L394
 2465              	.L379:
 2466              		.loc 1 213 0 discriminator 121
 2467 0f04 4FF48023 		mov	r3, #262144
 2468 0f08 12E0     		b	.L394
 2469              	.L378:
ARM GAS  /tmp/ccn0LRTe.s 			page 48


 2470              		.loc 1 213 0 discriminator 119
 2471 0f0a 4FF48073 		mov	r3, #256
 2472 0f0e 0FE0     		b	.L394
 2473              	.L377:
 2474              		.loc 1 213 0 discriminator 117
 2475 0f10 4FF48073 		mov	r3, #256
 2476 0f14 0CE0     		b	.L394
 2477              	.L376:
 2478              		.loc 1 213 0 discriminator 115
 2479 0f16 4FF48073 		mov	r3, #256
 2480 0f1a 09E0     		b	.L394
 2481              	.L375:
 2482              		.loc 1 213 0 discriminator 113
 2483 0f1c 4FF48073 		mov	r3, #256
 2484 0f20 06E0     		b	.L394
 2485              	.L374:
 2486              		.loc 1 213 0 discriminator 111
 2487 0f22 724B     		ldr	r3, .L535
 2488 0f24 04E0     		b	.L394
 2489              	.L373:
 2490              		.loc 1 213 0 discriminator 109
 2491 0f26 714B     		ldr	r3, .L535
 2492 0f28 02E0     		b	.L394
 2493              	.L372:
 2494              		.loc 1 213 0 discriminator 107
 2495 0f2a 704B     		ldr	r3, .L535
 2496 0f2c 00E0     		b	.L394
 2497              	.L371:
 2498              		.loc 1 213 0 discriminator 105
 2499 0f2e 6F4B     		ldr	r3, .L535
 2500              	.L394:
 2501              		.loc 1 213 0 discriminator 151
 2502 0f30 D360     		str	r3, [r2, #12]
 2503 0f32 6BE0     		b	.L343
 2504              	.L370:
 2505              		.loc 1 213 0 discriminator 103
 2506 0f34 6E4A     		ldr	r2, .L535+4
 2507 0f36 FB68     		ldr	r3, [r7, #12]
 2508 0f38 1B68     		ldr	r3, [r3]
 2509 0f3a 1946     		mov	r1, r3
 2510 0f3c 6D4B     		ldr	r3, .L535+8
 2511 0f3e 9942     		cmp	r1, r3
 2512 0f40 62D0     		beq	.L396
 2513              		.loc 1 213 0 discriminator 153
 2514 0f42 FB68     		ldr	r3, [r7, #12]
 2515 0f44 1B68     		ldr	r3, [r3]
 2516 0f46 1946     		mov	r1, r3
 2517 0f48 6B4B     		ldr	r3, .L535+12
 2518 0f4a 9942     		cmp	r1, r3
 2519 0f4c 5AD0     		beq	.L397
 2520              		.loc 1 213 0 discriminator 155
 2521 0f4e FB68     		ldr	r3, [r7, #12]
 2522 0f50 1B68     		ldr	r3, [r3]
 2523 0f52 1946     		mov	r1, r3
 2524 0f54 694B     		ldr	r3, .L535+16
 2525 0f56 9942     		cmp	r1, r3
 2526 0f58 52D0     		beq	.L398
ARM GAS  /tmp/ccn0LRTe.s 			page 49


 2527              		.loc 1 213 0 discriminator 157
 2528 0f5a FB68     		ldr	r3, [r7, #12]
 2529 0f5c 1B68     		ldr	r3, [r3]
 2530 0f5e 1946     		mov	r1, r3
 2531 0f60 674B     		ldr	r3, .L535+20
 2532 0f62 9942     		cmp	r1, r3
 2533 0f64 4AD0     		beq	.L399
 2534              		.loc 1 213 0 discriminator 159
 2535 0f66 FB68     		ldr	r3, [r7, #12]
 2536 0f68 1B68     		ldr	r3, [r3]
 2537 0f6a 1946     		mov	r1, r3
 2538 0f6c 654B     		ldr	r3, .L535+24
 2539 0f6e 9942     		cmp	r1, r3
 2540 0f70 41D0     		beq	.L400
 2541              		.loc 1 213 0 discriminator 161
 2542 0f72 FB68     		ldr	r3, [r7, #12]
 2543 0f74 1B68     		ldr	r3, [r3]
 2544 0f76 1946     		mov	r1, r3
 2545 0f78 634B     		ldr	r3, .L535+28
 2546 0f7a 9942     		cmp	r1, r3
 2547 0f7c 38D0     		beq	.L401
 2548              		.loc 1 213 0 discriminator 163
 2549 0f7e FB68     		ldr	r3, [r7, #12]
 2550 0f80 1B68     		ldr	r3, [r3]
 2551 0f82 1946     		mov	r1, r3
 2552 0f84 614B     		ldr	r3, .L535+32
 2553 0f86 9942     		cmp	r1, r3
 2554 0f88 2FD0     		beq	.L402
 2555              		.loc 1 213 0 discriminator 165
 2556 0f8a FB68     		ldr	r3, [r7, #12]
 2557 0f8c 1B68     		ldr	r3, [r3]
 2558 0f8e 1946     		mov	r1, r3
 2559 0f90 5F4B     		ldr	r3, .L535+36
 2560 0f92 9942     		cmp	r1, r3
 2561 0f94 26D0     		beq	.L403
 2562              		.loc 1 213 0 discriminator 167
 2563 0f96 FB68     		ldr	r3, [r7, #12]
 2564 0f98 1B68     		ldr	r3, [r3]
 2565 0f9a 1946     		mov	r1, r3
 2566 0f9c 5D4B     		ldr	r3, .L535+40
 2567 0f9e 9942     		cmp	r1, r3
 2568 0fa0 1DD0     		beq	.L404
 2569              		.loc 1 213 0 discriminator 169
 2570 0fa2 FB68     		ldr	r3, [r7, #12]
 2571 0fa4 1B68     		ldr	r3, [r3]
 2572 0fa6 1946     		mov	r1, r3
 2573 0fa8 5B4B     		ldr	r3, .L535+44
 2574 0faa 9942     		cmp	r1, r3
 2575 0fac 14D0     		beq	.L405
 2576              		.loc 1 213 0 discriminator 171
 2577 0fae FB68     		ldr	r3, [r7, #12]
 2578 0fb0 1B68     		ldr	r3, [r3]
 2579 0fb2 1946     		mov	r1, r3
 2580 0fb4 594B     		ldr	r3, .L535+48
 2581 0fb6 9942     		cmp	r1, r3
 2582 0fb8 0BD0     		beq	.L406
 2583              		.loc 1 213 0 discriminator 173
ARM GAS  /tmp/ccn0LRTe.s 			page 50


 2584 0fba FB68     		ldr	r3, [r7, #12]
 2585 0fbc 1B68     		ldr	r3, [r3]
 2586 0fbe 1946     		mov	r1, r3
 2587 0fc0 574B     		ldr	r3, .L535+52
 2588 0fc2 9942     		cmp	r1, r3
 2589 0fc4 02D1     		bne	.L407
 2590              		.loc 1 213 0 discriminator 175
 2591 0fc6 4FF48023 		mov	r3, #262144
 2592 0fca 1EE0     		b	.L419
 2593              	.L407:
 2594              		.loc 1 213 0 discriminator 176
 2595 0fcc 4FF08073 		mov	r3, #16777216
 2596 0fd0 1BE0     		b	.L419
 2597              	.L406:
 2598              		.loc 1 213 0 discriminator 174
 2599 0fd2 4FF48023 		mov	r3, #262144
 2600 0fd6 18E0     		b	.L419
 2601              	.L405:
 2602              		.loc 1 213 0 discriminator 172
 2603 0fd8 4FF48023 		mov	r3, #262144
 2604 0fdc 15E0     		b	.L419
 2605              	.L404:
 2606              		.loc 1 213 0 discriminator 170
 2607 0fde 4FF48023 		mov	r3, #262144
 2608 0fe2 12E0     		b	.L419
 2609              	.L403:
 2610              		.loc 1 213 0 discriminator 168
 2611 0fe4 4FF48073 		mov	r3, #256
 2612 0fe8 0FE0     		b	.L419
 2613              	.L402:
 2614              		.loc 1 213 0 discriminator 166
 2615 0fea 4FF48073 		mov	r3, #256
 2616 0fee 0CE0     		b	.L419
 2617              	.L401:
 2618              		.loc 1 213 0 discriminator 164
 2619 0ff0 4FF48073 		mov	r3, #256
 2620 0ff4 09E0     		b	.L419
 2621              	.L400:
 2622              		.loc 1 213 0 discriminator 162
 2623 0ff6 4FF48073 		mov	r3, #256
 2624 0ffa 06E0     		b	.L419
 2625              	.L399:
 2626              		.loc 1 213 0 discriminator 160
 2627 0ffc 3B4B     		ldr	r3, .L535
 2628 0ffe 04E0     		b	.L419
 2629              	.L398:
 2630              		.loc 1 213 0 discriminator 158
 2631 1000 3A4B     		ldr	r3, .L535
 2632 1002 02E0     		b	.L419
 2633              	.L397:
 2634              		.loc 1 213 0 discriminator 156
 2635 1004 394B     		ldr	r3, .L535
 2636 1006 00E0     		b	.L419
 2637              	.L396:
 2638              		.loc 1 213 0 discriminator 154
 2639 1008 384B     		ldr	r3, .L535
 2640              	.L419:
ARM GAS  /tmp/ccn0LRTe.s 			page 51


 2641              		.loc 1 213 0 discriminator 200
 2642 100a 9360     		str	r3, [r2, #8]
 2643              	.L343:
 214:../../Drivers/STM32F7xx_HAL_Driver/Src/stm32f7xx_hal_dma_ex.c ****     __HAL_DMA_CLEAR_FLAG (hdma, __HAL_DMA_GET_FE_FLAG_INDEX(hdma));
 2644              		.loc 1 214 0 is_stmt 1
 2645 100c FB68     		ldr	r3, [r7, #12]
 2646 100e 1B68     		ldr	r3, [r3]
 2647 1010 1A46     		mov	r2, r3
 2648 1012 444B     		ldr	r3, .L535+56
 2649 1014 9A42     		cmp	r2, r3
 2650 1016 40F28B80 		bls	.L420
 2651              		.loc 1 214 0 is_stmt 0 discriminator 1
 2652 101a 434A     		ldr	r2, .L535+60
 2653 101c FB68     		ldr	r3, [r7, #12]
 2654 101e 1B68     		ldr	r3, [r3]
 2655 1020 1946     		mov	r1, r3
 2656 1022 344B     		ldr	r3, .L535+8
 2657 1024 9942     		cmp	r1, r3
 2658 1026 5ED0     		beq	.L421
 2659              		.loc 1 214 0 discriminator 3
 2660 1028 FB68     		ldr	r3, [r7, #12]
 2661 102a 1B68     		ldr	r3, [r3]
 2662 102c 1946     		mov	r1, r3
 2663 102e 324B     		ldr	r3, .L535+12
 2664 1030 9942     		cmp	r1, r3
 2665 1032 56D0     		beq	.L422
 2666              		.loc 1 214 0 discriminator 5
 2667 1034 FB68     		ldr	r3, [r7, #12]
 2668 1036 1B68     		ldr	r3, [r3]
 2669 1038 1946     		mov	r1, r3
 2670 103a 304B     		ldr	r3, .L535+16
 2671 103c 9942     		cmp	r1, r3
 2672 103e 4ED0     		beq	.L423
 2673              		.loc 1 214 0 discriminator 7
 2674 1040 FB68     		ldr	r3, [r7, #12]
 2675 1042 1B68     		ldr	r3, [r3]
 2676 1044 1946     		mov	r1, r3
 2677 1046 2E4B     		ldr	r3, .L535+20
 2678 1048 9942     		cmp	r1, r3
 2679 104a 46D0     		beq	.L424
 2680              		.loc 1 214 0 discriminator 9
 2681 104c FB68     		ldr	r3, [r7, #12]
 2682 104e 1B68     		ldr	r3, [r3]
 2683 1050 1946     		mov	r1, r3
 2684 1052 2C4B     		ldr	r3, .L535+24
 2685 1054 9942     		cmp	r1, r3
 2686 1056 3ED0     		beq	.L425
 2687              		.loc 1 214 0 discriminator 11
 2688 1058 FB68     		ldr	r3, [r7, #12]
 2689 105a 1B68     		ldr	r3, [r3]
 2690 105c 1946     		mov	r1, r3
 2691 105e 2A4B     		ldr	r3, .L535+28
 2692 1060 9942     		cmp	r1, r3
 2693 1062 36D0     		beq	.L426
 2694              		.loc 1 214 0 discriminator 13
 2695 1064 FB68     		ldr	r3, [r7, #12]
 2696 1066 1B68     		ldr	r3, [r3]
ARM GAS  /tmp/ccn0LRTe.s 			page 52


 2697 1068 1946     		mov	r1, r3
 2698 106a 284B     		ldr	r3, .L535+32
 2699 106c 9942     		cmp	r1, r3
 2700 106e 2ED0     		beq	.L427
 2701              		.loc 1 214 0 discriminator 15
 2702 1070 FB68     		ldr	r3, [r7, #12]
 2703 1072 1B68     		ldr	r3, [r3]
 2704 1074 1946     		mov	r1, r3
 2705 1076 264B     		ldr	r3, .L535+36
 2706 1078 9942     		cmp	r1, r3
 2707 107a 26D0     		beq	.L428
 2708              		.loc 1 214 0 discriminator 17
 2709 107c FB68     		ldr	r3, [r7, #12]
 2710 107e 1B68     		ldr	r3, [r3]
 2711 1080 1946     		mov	r1, r3
 2712 1082 244B     		ldr	r3, .L535+40
 2713 1084 9942     		cmp	r1, r3
 2714 1086 1DD0     		beq	.L429
 2715              		.loc 1 214 0 discriminator 19
 2716 1088 FB68     		ldr	r3, [r7, #12]
 2717 108a 1B68     		ldr	r3, [r3]
 2718 108c 1946     		mov	r1, r3
 2719 108e 224B     		ldr	r3, .L535+44
 2720 1090 9942     		cmp	r1, r3
 2721 1092 14D0     		beq	.L430
 2722              		.loc 1 214 0 discriminator 21
 2723 1094 FB68     		ldr	r3, [r7, #12]
 2724 1096 1B68     		ldr	r3, [r3]
 2725 1098 1946     		mov	r1, r3
 2726 109a 204B     		ldr	r3, .L535+48
 2727 109c 9942     		cmp	r1, r3
 2728 109e 0BD0     		beq	.L431
 2729              		.loc 1 214 0 discriminator 23
 2730 10a0 FB68     		ldr	r3, [r7, #12]
 2731 10a2 1B68     		ldr	r3, [r3]
 2732 10a4 1946     		mov	r1, r3
 2733 10a6 1E4B     		ldr	r3, .L535+52
 2734 10a8 9942     		cmp	r1, r3
 2735 10aa 02D1     		bne	.L432
 2736              		.loc 1 214 0 discriminator 25
 2737 10ac 4FF48033 		mov	r3, #65536
 2738 10b0 1AE0     		b	.L444
 2739              	.L432:
 2740              		.loc 1 214 0 discriminator 26
 2741 10b2 4FF48003 		mov	r3, #4194304
 2742 10b6 17E0     		b	.L444
 2743              	.L431:
 2744              		.loc 1 214 0 discriminator 24
 2745 10b8 4FF48033 		mov	r3, #65536
 2746 10bc 14E0     		b	.L444
 2747              	.L430:
 2748              		.loc 1 214 0 discriminator 22
 2749 10be 4FF48033 		mov	r3, #65536
 2750 10c2 11E0     		b	.L444
 2751              	.L429:
 2752              		.loc 1 214 0 discriminator 20
 2753 10c4 4FF48033 		mov	r3, #65536
ARM GAS  /tmp/ccn0LRTe.s 			page 53


 2754 10c8 0EE0     		b	.L444
 2755              	.L428:
 2756              		.loc 1 214 0 discriminator 18
 2757 10ca 4023     		movs	r3, #64
 2758 10cc 0CE0     		b	.L444
 2759              	.L427:
 2760              		.loc 1 214 0 discriminator 16
 2761 10ce 4023     		movs	r3, #64
 2762 10d0 0AE0     		b	.L444
 2763              	.L426:
 2764              		.loc 1 214 0 discriminator 14
 2765 10d2 4023     		movs	r3, #64
 2766 10d4 08E0     		b	.L444
 2767              	.L425:
 2768              		.loc 1 214 0 discriminator 12
 2769 10d6 4023     		movs	r3, #64
 2770 10d8 06E0     		b	.L444
 2771              	.L424:
 2772              		.loc 1 214 0 discriminator 10
 2773 10da 144B     		ldr	r3, .L535+64
 2774 10dc 04E0     		b	.L444
 2775              	.L423:
 2776              		.loc 1 214 0 discriminator 8
 2777 10de 134B     		ldr	r3, .L535+64
 2778 10e0 02E0     		b	.L444
 2779              	.L422:
 2780              		.loc 1 214 0 discriminator 6
 2781 10e2 124B     		ldr	r3, .L535+64
 2782 10e4 00E0     		b	.L444
 2783              	.L421:
 2784              		.loc 1 214 0 discriminator 4
 2785 10e6 114B     		ldr	r3, .L535+64
 2786              	.L444:
 2787              		.loc 1 214 0 discriminator 50
 2788 10e8 D360     		str	r3, [r2, #12]
 2789 10ea 8BE1     		b	.L445
 2790              	.L536:
 2791              		.align	2
 2792              	.L535:
 2793 10ec 04008000 		.word	8388612
 2794 10f0 00600240 		.word	1073897472
 2795 10f4 10600240 		.word	1073897488
 2796 10f8 10640240 		.word	1073898512
 2797 10fc 70600240 		.word	1073897584
 2798 1100 70640240 		.word	1073898608
 2799 1104 28600240 		.word	1073897512
 2800 1108 28640240 		.word	1073898536
 2801 110c 88600240 		.word	1073897608
 2802 1110 88640240 		.word	1073898632
 2803 1114 40600240 		.word	1073897536
 2804 1118 40640240 		.word	1073898560
 2805 111c A0600240 		.word	1073897632
 2806 1120 A0640240 		.word	1073898656
 2807 1124 58640240 		.word	1073898584
 2808 1128 00640240 		.word	1073898496
 2809 112c 01008000 		.word	8388609
 2810              	.L420:
ARM GAS  /tmp/ccn0LRTe.s 			page 54


 2811              		.loc 1 214 0 discriminator 2
 2812 1130 FB68     		ldr	r3, [r7, #12]
 2813 1132 1B68     		ldr	r3, [r3]
 2814 1134 1A46     		mov	r2, r3
 2815 1136 9C4B     		ldr	r3, .L537
 2816 1138 9A42     		cmp	r2, r3
 2817 113a 68D9     		bls	.L446
 2818              		.loc 1 214 0 discriminator 51
 2819 113c 9B4A     		ldr	r2, .L537+4
 2820 113e FB68     		ldr	r3, [r7, #12]
 2821 1140 1B68     		ldr	r3, [r3]
 2822 1142 1946     		mov	r1, r3
 2823 1144 9A4B     		ldr	r3, .L537+8
 2824 1146 9942     		cmp	r1, r3
 2825 1148 5ED0     		beq	.L447
 2826              		.loc 1 214 0 discriminator 53
 2827 114a FB68     		ldr	r3, [r7, #12]
 2828 114c 1B68     		ldr	r3, [r3]
 2829 114e 1946     		mov	r1, r3
 2830 1150 984B     		ldr	r3, .L537+12
 2831 1152 9942     		cmp	r1, r3
 2832 1154 56D0     		beq	.L448
 2833              		.loc 1 214 0 discriminator 55
 2834 1156 FB68     		ldr	r3, [r7, #12]
 2835 1158 1B68     		ldr	r3, [r3]
 2836 115a 1946     		mov	r1, r3
 2837 115c 964B     		ldr	r3, .L537+16
 2838 115e 9942     		cmp	r1, r3
 2839 1160 4ED0     		beq	.L449
 2840              		.loc 1 214 0 discriminator 57
 2841 1162 FB68     		ldr	r3, [r7, #12]
 2842 1164 1B68     		ldr	r3, [r3]
 2843 1166 1946     		mov	r1, r3
 2844 1168 944B     		ldr	r3, .L537+20
 2845 116a 9942     		cmp	r1, r3
 2846 116c 46D0     		beq	.L450
 2847              		.loc 1 214 0 discriminator 59
 2848 116e FB68     		ldr	r3, [r7, #12]
 2849 1170 1B68     		ldr	r3, [r3]
 2850 1172 1946     		mov	r1, r3
 2851 1174 924B     		ldr	r3, .L537+24
 2852 1176 9942     		cmp	r1, r3
 2853 1178 3ED0     		beq	.L451
 2854              		.loc 1 214 0 discriminator 61
 2855 117a FB68     		ldr	r3, [r7, #12]
 2856 117c 1B68     		ldr	r3, [r3]
 2857 117e 1946     		mov	r1, r3
 2858 1180 904B     		ldr	r3, .L537+28
 2859 1182 9942     		cmp	r1, r3
 2860 1184 36D0     		beq	.L452
 2861              		.loc 1 214 0 discriminator 63
 2862 1186 FB68     		ldr	r3, [r7, #12]
 2863 1188 1B68     		ldr	r3, [r3]
 2864 118a 1946     		mov	r1, r3
 2865 118c 8E4B     		ldr	r3, .L537+32
 2866 118e 9942     		cmp	r1, r3
 2867 1190 2ED0     		beq	.L453
ARM GAS  /tmp/ccn0LRTe.s 			page 55


 2868              		.loc 1 214 0 discriminator 65
 2869 1192 FB68     		ldr	r3, [r7, #12]
 2870 1194 1B68     		ldr	r3, [r3]
 2871 1196 1946     		mov	r1, r3
 2872 1198 8C4B     		ldr	r3, .L537+36
 2873 119a 9942     		cmp	r1, r3
 2874 119c 26D0     		beq	.L454
 2875              		.loc 1 214 0 discriminator 67
 2876 119e FB68     		ldr	r3, [r7, #12]
 2877 11a0 1B68     		ldr	r3, [r3]
 2878 11a2 1946     		mov	r1, r3
 2879 11a4 8A4B     		ldr	r3, .L537+40
 2880 11a6 9942     		cmp	r1, r3
 2881 11a8 1DD0     		beq	.L455
 2882              		.loc 1 214 0 discriminator 69
 2883 11aa FB68     		ldr	r3, [r7, #12]
 2884 11ac 1B68     		ldr	r3, [r3]
 2885 11ae 1946     		mov	r1, r3
 2886 11b0 884B     		ldr	r3, .L537+44
 2887 11b2 9942     		cmp	r1, r3
 2888 11b4 14D0     		beq	.L456
 2889              		.loc 1 214 0 discriminator 71
 2890 11b6 FB68     		ldr	r3, [r7, #12]
 2891 11b8 1B68     		ldr	r3, [r3]
 2892 11ba 1946     		mov	r1, r3
 2893 11bc 864B     		ldr	r3, .L537+48
 2894 11be 9942     		cmp	r1, r3
 2895 11c0 0BD0     		beq	.L457
 2896              		.loc 1 214 0 discriminator 73
 2897 11c2 FB68     		ldr	r3, [r7, #12]
 2898 11c4 1B68     		ldr	r3, [r3]
 2899 11c6 1946     		mov	r1, r3
 2900 11c8 844B     		ldr	r3, .L537+52
 2901 11ca 9942     		cmp	r1, r3
 2902 11cc 02D1     		bne	.L458
 2903              		.loc 1 214 0 discriminator 75
 2904 11ce 4FF48033 		mov	r3, #65536
 2905 11d2 1AE0     		b	.L470
 2906              	.L458:
 2907              		.loc 1 214 0 discriminator 76
 2908 11d4 4FF48003 		mov	r3, #4194304
 2909 11d8 17E0     		b	.L470
 2910              	.L457:
 2911              		.loc 1 214 0 discriminator 74
 2912 11da 4FF48033 		mov	r3, #65536
 2913 11de 14E0     		b	.L470
 2914              	.L456:
 2915              		.loc 1 214 0 discriminator 72
 2916 11e0 4FF48033 		mov	r3, #65536
 2917 11e4 11E0     		b	.L470
 2918              	.L455:
 2919              		.loc 1 214 0 discriminator 70
 2920 11e6 4FF48033 		mov	r3, #65536
 2921 11ea 0EE0     		b	.L470
 2922              	.L454:
 2923              		.loc 1 214 0 discriminator 68
 2924 11ec 4023     		movs	r3, #64
ARM GAS  /tmp/ccn0LRTe.s 			page 56


 2925 11ee 0CE0     		b	.L470
 2926              	.L453:
 2927              		.loc 1 214 0 discriminator 66
 2928 11f0 4023     		movs	r3, #64
 2929 11f2 0AE0     		b	.L470
 2930              	.L452:
 2931              		.loc 1 214 0 discriminator 64
 2932 11f4 4023     		movs	r3, #64
 2933 11f6 08E0     		b	.L470
 2934              	.L451:
 2935              		.loc 1 214 0 discriminator 62
 2936 11f8 4023     		movs	r3, #64
 2937 11fa 06E0     		b	.L470
 2938              	.L450:
 2939              		.loc 1 214 0 discriminator 60
 2940 11fc 784B     		ldr	r3, .L537+56
 2941 11fe 04E0     		b	.L470
 2942              	.L449:
 2943              		.loc 1 214 0 discriminator 58
 2944 1200 774B     		ldr	r3, .L537+56
 2945 1202 02E0     		b	.L470
 2946              	.L448:
 2947              		.loc 1 214 0 discriminator 56
 2948 1204 764B     		ldr	r3, .L537+56
 2949 1206 00E0     		b	.L470
 2950              	.L447:
 2951              		.loc 1 214 0 discriminator 54
 2952 1208 754B     		ldr	r3, .L537+56
 2953              	.L470:
 2954              		.loc 1 214 0 discriminator 100
 2955 120a 9360     		str	r3, [r2, #8]
 2956 120c FAE0     		b	.L445
 2957              	.L446:
 2958              		.loc 1 214 0 discriminator 52
 2959 120e FB68     		ldr	r3, [r7, #12]
 2960 1210 1B68     		ldr	r3, [r3]
 2961 1212 1A46     		mov	r2, r3
 2962 1214 734B     		ldr	r3, .L537+60
 2963 1216 9A42     		cmp	r2, r3
 2964 1218 68D9     		bls	.L472
 2965              		.loc 1 214 0 discriminator 102
 2966 121a 734A     		ldr	r2, .L537+64
 2967 121c FB68     		ldr	r3, [r7, #12]
 2968 121e 1B68     		ldr	r3, [r3]
 2969 1220 1946     		mov	r1, r3
 2970 1222 634B     		ldr	r3, .L537+8
 2971 1224 9942     		cmp	r1, r3
 2972 1226 5ED0     		beq	.L473
 2973              		.loc 1 214 0 discriminator 104
 2974 1228 FB68     		ldr	r3, [r7, #12]
 2975 122a 1B68     		ldr	r3, [r3]
 2976 122c 1946     		mov	r1, r3
 2977 122e 614B     		ldr	r3, .L537+12
 2978 1230 9942     		cmp	r1, r3
 2979 1232 56D0     		beq	.L474
 2980              		.loc 1 214 0 discriminator 106
 2981 1234 FB68     		ldr	r3, [r7, #12]
ARM GAS  /tmp/ccn0LRTe.s 			page 57


 2982 1236 1B68     		ldr	r3, [r3]
 2983 1238 1946     		mov	r1, r3
 2984 123a 5F4B     		ldr	r3, .L537+16
 2985 123c 9942     		cmp	r1, r3
 2986 123e 4ED0     		beq	.L475
 2987              		.loc 1 214 0 discriminator 108
 2988 1240 FB68     		ldr	r3, [r7, #12]
 2989 1242 1B68     		ldr	r3, [r3]
 2990 1244 1946     		mov	r1, r3
 2991 1246 5D4B     		ldr	r3, .L537+20
 2992 1248 9942     		cmp	r1, r3
 2993 124a 46D0     		beq	.L476
 2994              		.loc 1 214 0 discriminator 110
 2995 124c FB68     		ldr	r3, [r7, #12]
 2996 124e 1B68     		ldr	r3, [r3]
 2997 1250 1946     		mov	r1, r3
 2998 1252 5B4B     		ldr	r3, .L537+24
 2999 1254 9942     		cmp	r1, r3
 3000 1256 3ED0     		beq	.L477
 3001              		.loc 1 214 0 discriminator 112
 3002 1258 FB68     		ldr	r3, [r7, #12]
 3003 125a 1B68     		ldr	r3, [r3]
 3004 125c 1946     		mov	r1, r3
 3005 125e 594B     		ldr	r3, .L537+28
 3006 1260 9942     		cmp	r1, r3
 3007 1262 36D0     		beq	.L478
 3008              		.loc 1 214 0 discriminator 114
 3009 1264 FB68     		ldr	r3, [r7, #12]
 3010 1266 1B68     		ldr	r3, [r3]
 3011 1268 1946     		mov	r1, r3
 3012 126a 574B     		ldr	r3, .L537+32
 3013 126c 9942     		cmp	r1, r3
 3014 126e 2ED0     		beq	.L479
 3015              		.loc 1 214 0 discriminator 116
 3016 1270 FB68     		ldr	r3, [r7, #12]
 3017 1272 1B68     		ldr	r3, [r3]
 3018 1274 1946     		mov	r1, r3
 3019 1276 554B     		ldr	r3, .L537+36
 3020 1278 9942     		cmp	r1, r3
 3021 127a 26D0     		beq	.L480
 3022              		.loc 1 214 0 discriminator 118
 3023 127c FB68     		ldr	r3, [r7, #12]
 3024 127e 1B68     		ldr	r3, [r3]
 3025 1280 1946     		mov	r1, r3
 3026 1282 534B     		ldr	r3, .L537+40
 3027 1284 9942     		cmp	r1, r3
 3028 1286 1DD0     		beq	.L481
 3029              		.loc 1 214 0 discriminator 120
 3030 1288 FB68     		ldr	r3, [r7, #12]
 3031 128a 1B68     		ldr	r3, [r3]
 3032 128c 1946     		mov	r1, r3
 3033 128e 514B     		ldr	r3, .L537+44
 3034 1290 9942     		cmp	r1, r3
 3035 1292 14D0     		beq	.L482
 3036              		.loc 1 214 0 discriminator 122
 3037 1294 FB68     		ldr	r3, [r7, #12]
 3038 1296 1B68     		ldr	r3, [r3]
ARM GAS  /tmp/ccn0LRTe.s 			page 58


 3039 1298 1946     		mov	r1, r3
 3040 129a 4F4B     		ldr	r3, .L537+48
 3041 129c 9942     		cmp	r1, r3
 3042 129e 0BD0     		beq	.L483
 3043              		.loc 1 214 0 discriminator 124
 3044 12a0 FB68     		ldr	r3, [r7, #12]
 3045 12a2 1B68     		ldr	r3, [r3]
 3046 12a4 1946     		mov	r1, r3
 3047 12a6 4D4B     		ldr	r3, .L537+52
 3048 12a8 9942     		cmp	r1, r3
 3049 12aa 02D1     		bne	.L484
 3050              		.loc 1 214 0 discriminator 126
 3051 12ac 4FF48033 		mov	r3, #65536
 3052 12b0 1AE0     		b	.L496
 3053              	.L484:
 3054              		.loc 1 214 0 discriminator 127
 3055 12b2 4FF48003 		mov	r3, #4194304
 3056 12b6 17E0     		b	.L496
 3057              	.L483:
 3058              		.loc 1 214 0 discriminator 125
 3059 12b8 4FF48033 		mov	r3, #65536
 3060 12bc 14E0     		b	.L496
 3061              	.L482:
 3062              		.loc 1 214 0 discriminator 123
 3063 12be 4FF48033 		mov	r3, #65536
 3064 12c2 11E0     		b	.L496
 3065              	.L481:
 3066              		.loc 1 214 0 discriminator 121
 3067 12c4 4FF48033 		mov	r3, #65536
 3068 12c8 0EE0     		b	.L496
 3069              	.L480:
 3070              		.loc 1 214 0 discriminator 119
 3071 12ca 4023     		movs	r3, #64
 3072 12cc 0CE0     		b	.L496
 3073              	.L479:
 3074              		.loc 1 214 0 discriminator 117
 3075 12ce 4023     		movs	r3, #64
 3076 12d0 0AE0     		b	.L496
 3077              	.L478:
 3078              		.loc 1 214 0 discriminator 115
 3079 12d2 4023     		movs	r3, #64
 3080 12d4 08E0     		b	.L496
 3081              	.L477:
 3082              		.loc 1 214 0 discriminator 113
 3083 12d6 4023     		movs	r3, #64
 3084 12d8 06E0     		b	.L496
 3085              	.L476:
 3086              		.loc 1 214 0 discriminator 111
 3087 12da 414B     		ldr	r3, .L537+56
 3088 12dc 04E0     		b	.L496
 3089              	.L475:
 3090              		.loc 1 214 0 discriminator 109
 3091 12de 404B     		ldr	r3, .L537+56
 3092 12e0 02E0     		b	.L496
 3093              	.L474:
 3094              		.loc 1 214 0 discriminator 107
 3095 12e2 3F4B     		ldr	r3, .L537+56
ARM GAS  /tmp/ccn0LRTe.s 			page 59


 3096 12e4 00E0     		b	.L496
 3097              	.L473:
 3098              		.loc 1 214 0 discriminator 105
 3099 12e6 3E4B     		ldr	r3, .L537+56
 3100              	.L496:
 3101              		.loc 1 214 0 discriminator 151
 3102 12e8 D360     		str	r3, [r2, #12]
 3103 12ea 8BE0     		b	.L445
 3104              	.L472:
 3105              		.loc 1 214 0 discriminator 103
 3106 12ec 3E4A     		ldr	r2, .L537+64
 3107 12ee FB68     		ldr	r3, [r7, #12]
 3108 12f0 1B68     		ldr	r3, [r3]
 3109 12f2 1946     		mov	r1, r3
 3110 12f4 2E4B     		ldr	r3, .L537+8
 3111 12f6 9942     		cmp	r1, r3
 3112 12f8 00F08280 		beq	.L498
 3113              		.loc 1 214 0 discriminator 153
 3114 12fc FB68     		ldr	r3, [r7, #12]
 3115 12fe 1B68     		ldr	r3, [r3]
 3116 1300 1946     		mov	r1, r3
 3117 1302 2C4B     		ldr	r3, .L537+12
 3118 1304 9942     		cmp	r1, r3
 3119 1306 79D0     		beq	.L499
 3120              		.loc 1 214 0 discriminator 155
 3121 1308 FB68     		ldr	r3, [r7, #12]
 3122 130a 1B68     		ldr	r3, [r3]
 3123 130c 1946     		mov	r1, r3
 3124 130e 2A4B     		ldr	r3, .L537+16
 3125 1310 9942     		cmp	r1, r3
 3126 1312 71D0     		beq	.L500
 3127              		.loc 1 214 0 discriminator 157
 3128 1314 FB68     		ldr	r3, [r7, #12]
 3129 1316 1B68     		ldr	r3, [r3]
 3130 1318 1946     		mov	r1, r3
 3131 131a 284B     		ldr	r3, .L537+20
 3132 131c 9942     		cmp	r1, r3
 3133 131e 69D0     		beq	.L501
 3134              		.loc 1 214 0 discriminator 159
 3135 1320 FB68     		ldr	r3, [r7, #12]
 3136 1322 1B68     		ldr	r3, [r3]
 3137 1324 1946     		mov	r1, r3
 3138 1326 264B     		ldr	r3, .L537+24
 3139 1328 9942     		cmp	r1, r3
 3140 132a 61D0     		beq	.L502
 3141              		.loc 1 214 0 discriminator 161
 3142 132c FB68     		ldr	r3, [r7, #12]
 3143 132e 1B68     		ldr	r3, [r3]
 3144 1330 1946     		mov	r1, r3
 3145 1332 244B     		ldr	r3, .L537+28
 3146 1334 9942     		cmp	r1, r3
 3147 1336 59D0     		beq	.L503
 3148              		.loc 1 214 0 discriminator 163
 3149 1338 FB68     		ldr	r3, [r7, #12]
 3150 133a 1B68     		ldr	r3, [r3]
 3151 133c 1946     		mov	r1, r3
 3152 133e 224B     		ldr	r3, .L537+32
ARM GAS  /tmp/ccn0LRTe.s 			page 60


 3153 1340 9942     		cmp	r1, r3
 3154 1342 2ED0     		beq	.L504
 3155              		.loc 1 214 0 discriminator 165
 3156 1344 FB68     		ldr	r3, [r7, #12]
 3157 1346 1B68     		ldr	r3, [r3]
 3158 1348 1946     		mov	r1, r3
 3159 134a 204B     		ldr	r3, .L537+36
 3160 134c 9942     		cmp	r1, r3
 3161 134e 26D0     		beq	.L505
 3162              		.loc 1 214 0 discriminator 167
 3163 1350 FB68     		ldr	r3, [r7, #12]
 3164 1352 1B68     		ldr	r3, [r3]
 3165 1354 1946     		mov	r1, r3
 3166 1356 1E4B     		ldr	r3, .L537+40
 3167 1358 9942     		cmp	r1, r3
 3168 135a 1DD0     		beq	.L506
 3169              		.loc 1 214 0 discriminator 169
 3170 135c FB68     		ldr	r3, [r7, #12]
 3171 135e 1B68     		ldr	r3, [r3]
 3172 1360 1946     		mov	r1, r3
 3173 1362 1C4B     		ldr	r3, .L537+44
 3174 1364 9942     		cmp	r1, r3
 3175 1366 14D0     		beq	.L507
 3176              		.loc 1 214 0 discriminator 171
 3177 1368 FB68     		ldr	r3, [r7, #12]
 3178 136a 1B68     		ldr	r3, [r3]
 3179 136c 1946     		mov	r1, r3
 3180 136e 1A4B     		ldr	r3, .L537+48
 3181 1370 9942     		cmp	r1, r3
 3182 1372 0BD0     		beq	.L508
 3183              		.loc 1 214 0 discriminator 173
 3184 1374 FB68     		ldr	r3, [r7, #12]
 3185 1376 1B68     		ldr	r3, [r3]
 3186 1378 1946     		mov	r1, r3
 3187 137a 184B     		ldr	r3, .L537+52
 3188 137c 9942     		cmp	r1, r3
 3189 137e 02D1     		bne	.L509
 3190              		.loc 1 214 0 discriminator 175
 3191 1380 4FF48033 		mov	r3, #65536
 3192 1384 3DE0     		b	.L521
 3193              	.L509:
 3194              		.loc 1 214 0 discriminator 176
 3195 1386 4FF48003 		mov	r3, #4194304
 3196 138a 3AE0     		b	.L521
 3197              	.L508:
 3198              		.loc 1 214 0 discriminator 174
 3199 138c 4FF48033 		mov	r3, #65536
 3200 1390 37E0     		b	.L521
 3201              	.L507:
 3202              		.loc 1 214 0 discriminator 172
 3203 1392 4FF48033 		mov	r3, #65536
 3204 1396 34E0     		b	.L521
 3205              	.L506:
 3206              		.loc 1 214 0 discriminator 170
 3207 1398 4FF48033 		mov	r3, #65536
 3208 139c 31E0     		b	.L521
 3209              	.L505:
ARM GAS  /tmp/ccn0LRTe.s 			page 61


 3210              		.loc 1 214 0 discriminator 168
 3211 139e 4023     		movs	r3, #64
 3212 13a0 2FE0     		b	.L521
 3213              	.L504:
 3214              		.loc 1 214 0 discriminator 166
 3215 13a2 4023     		movs	r3, #64
 3216 13a4 2DE0     		b	.L521
 3217              	.L538:
 3218 13a6 00BF     		.align	2
 3219              	.L537:
 3220 13a8 B8600240 		.word	1073897656
 3221 13ac 00640240 		.word	1073898496
 3222 13b0 10600240 		.word	1073897488
 3223 13b4 10640240 		.word	1073898512
 3224 13b8 70600240 		.word	1073897584
 3225 13bc 70640240 		.word	1073898608
 3226 13c0 28600240 		.word	1073897512
 3227 13c4 28640240 		.word	1073898536
 3228 13c8 88600240 		.word	1073897608
 3229 13cc 88640240 		.word	1073898632
 3230 13d0 40600240 		.word	1073897536
 3231 13d4 40640240 		.word	1073898560
 3232 13d8 A0600240 		.word	1073897632
 3233 13dc A0640240 		.word	1073898656
 3234 13e0 01008000 		.word	8388609
 3235 13e4 58600240 		.word	1073897560
 3236 13e8 00600240 		.word	1073897472
 3237              	.L503:
 3238              		.loc 1 214 0 discriminator 164
 3239 13ec 4023     		movs	r3, #64
 3240 13ee 08E0     		b	.L521
 3241              	.L502:
 3242              		.loc 1 214 0 discriminator 162
 3243 13f0 4023     		movs	r3, #64
 3244 13f2 06E0     		b	.L521
 3245              	.L501:
 3246              		.loc 1 214 0 discriminator 160
 3247 13f4 1D4B     		ldr	r3, .L539
 3248 13f6 04E0     		b	.L521
 3249              	.L500:
 3250              		.loc 1 214 0 discriminator 158
 3251 13f8 1C4B     		ldr	r3, .L539
 3252 13fa 02E0     		b	.L521
 3253              	.L499:
 3254              		.loc 1 214 0 discriminator 156
 3255 13fc 1B4B     		ldr	r3, .L539
 3256 13fe 00E0     		b	.L521
 3257              	.L498:
 3258              		.loc 1 214 0 discriminator 154
 3259 1400 1A4B     		ldr	r3, .L539
 3260              	.L521:
 3261              		.loc 1 214 0 discriminator 200
 3262 1402 9360     		str	r3, [r2, #8]
 3263              	.L445:
 215:../../Drivers/STM32F7xx_HAL_Driver/Src/stm32f7xx_hal_dma_ex.c ****     
 216:../../Drivers/STM32F7xx_HAL_Driver/Src/stm32f7xx_hal_dma_ex.c ****     /* Enable Common interrupts*/
 217:../../Drivers/STM32F7xx_HAL_Driver/Src/stm32f7xx_hal_dma_ex.c ****     hdma->Instance->CR  |= DMA_IT_TC | DMA_IT_TE | DMA_IT_DME;
ARM GAS  /tmp/ccn0LRTe.s 			page 62


 3264              		.loc 1 217 0 is_stmt 1
 3265 1404 FB68     		ldr	r3, [r7, #12]
 3266 1406 1B68     		ldr	r3, [r3]
 3267 1408 FA68     		ldr	r2, [r7, #12]
 3268 140a 1268     		ldr	r2, [r2]
 3269 140c 1268     		ldr	r2, [r2]
 3270 140e 42F01602 		orr	r2, r2, #22
 3271 1412 1A60     		str	r2, [r3]
 218:../../Drivers/STM32F7xx_HAL_Driver/Src/stm32f7xx_hal_dma_ex.c ****     hdma->Instance->FCR |= DMA_IT_FE;
 3272              		.loc 1 218 0
 3273 1414 FB68     		ldr	r3, [r7, #12]
 3274 1416 1B68     		ldr	r3, [r3]
 3275 1418 FA68     		ldr	r2, [r7, #12]
 3276 141a 1268     		ldr	r2, [r2]
 3277 141c 5269     		ldr	r2, [r2, #20]
 3278 141e 42F08002 		orr	r2, r2, #128
 3279 1422 5A61     		str	r2, [r3, #20]
 219:../../Drivers/STM32F7xx_HAL_Driver/Src/stm32f7xx_hal_dma_ex.c ****     
 220:../../Drivers/STM32F7xx_HAL_Driver/Src/stm32f7xx_hal_dma_ex.c ****     if((hdma->XferHalfCpltCallback != NULL) || (hdma->XferM1HalfCpltCallback != NULL))
 3280              		.loc 1 220 0
 3281 1424 FB68     		ldr	r3, [r7, #12]
 3282 1426 1B6C     		ldr	r3, [r3, #64]
 3283 1428 002B     		cmp	r3, #0
 3284 142a 03D1     		bne	.L522
 3285              		.loc 1 220 0 is_stmt 0 discriminator 1
 3286 142c FB68     		ldr	r3, [r7, #12]
 3287 142e 9B6C     		ldr	r3, [r3, #72]
 3288 1430 002B     		cmp	r3, #0
 3289 1432 07D0     		beq	.L523
 3290              	.L522:
 221:../../Drivers/STM32F7xx_HAL_Driver/Src/stm32f7xx_hal_dma_ex.c ****     {
 222:../../Drivers/STM32F7xx_HAL_Driver/Src/stm32f7xx_hal_dma_ex.c ****       hdma->Instance->CR  |= DMA_IT_HT;
 3291              		.loc 1 222 0 is_stmt 1
 3292 1434 FB68     		ldr	r3, [r7, #12]
 3293 1436 1B68     		ldr	r3, [r3]
 3294 1438 FA68     		ldr	r2, [r7, #12]
 3295 143a 1268     		ldr	r2, [r2]
 3296 143c 1268     		ldr	r2, [r2]
 3297 143e 42F00802 		orr	r2, r2, #8
 3298 1442 1A60     		str	r2, [r3]
 3299              	.L523:
 223:../../Drivers/STM32F7xx_HAL_Driver/Src/stm32f7xx_hal_dma_ex.c ****     }
 224:../../Drivers/STM32F7xx_HAL_Driver/Src/stm32f7xx_hal_dma_ex.c ****     
 225:../../Drivers/STM32F7xx_HAL_Driver/Src/stm32f7xx_hal_dma_ex.c ****     /* Enable the peripheral */
 226:../../Drivers/STM32F7xx_HAL_Driver/Src/stm32f7xx_hal_dma_ex.c ****     __HAL_DMA_ENABLE(hdma); 
 3300              		.loc 1 226 0
 3301 1444 FB68     		ldr	r3, [r7, #12]
 3302 1446 1B68     		ldr	r3, [r3]
 3303 1448 FA68     		ldr	r2, [r7, #12]
 3304 144a 1268     		ldr	r2, [r2]
 3305 144c 1268     		ldr	r2, [r2]
 3306 144e 42F00102 		orr	r2, r2, #1
 3307 1452 1A60     		str	r2, [r3]
 3308 1454 05E0     		b	.L524
 3309              	.L11:
 227:../../Drivers/STM32F7xx_HAL_Driver/Src/stm32f7xx_hal_dma_ex.c ****   }
 228:../../Drivers/STM32F7xx_HAL_Driver/Src/stm32f7xx_hal_dma_ex.c ****   else
ARM GAS  /tmp/ccn0LRTe.s 			page 63


 229:../../Drivers/STM32F7xx_HAL_Driver/Src/stm32f7xx_hal_dma_ex.c ****   {     
 230:../../Drivers/STM32F7xx_HAL_Driver/Src/stm32f7xx_hal_dma_ex.c ****     /* Process unlocked */
 231:../../Drivers/STM32F7xx_HAL_Driver/Src/stm32f7xx_hal_dma_ex.c ****     __HAL_UNLOCK(hdma);	  
 3310              		.loc 1 231 0
 3311 1456 FB68     		ldr	r3, [r7, #12]
 3312 1458 0022     		movs	r2, #0
 3313 145a 83F83420 		strb	r2, [r3, #52]
 232:../../Drivers/STM32F7xx_HAL_Driver/Src/stm32f7xx_hal_dma_ex.c ****     
 233:../../Drivers/STM32F7xx_HAL_Driver/Src/stm32f7xx_hal_dma_ex.c ****     /* Return error status */
 234:../../Drivers/STM32F7xx_HAL_Driver/Src/stm32f7xx_hal_dma_ex.c ****     status = HAL_BUSY;
 3314              		.loc 1 234 0
 3315 145e 0223     		movs	r3, #2
 3316 1460 FB75     		strb	r3, [r7, #23]
 3317              	.L524:
 235:../../Drivers/STM32F7xx_HAL_Driver/Src/stm32f7xx_hal_dma_ex.c ****   }  
 236:../../Drivers/STM32F7xx_HAL_Driver/Src/stm32f7xx_hal_dma_ex.c ****   return status; 
 3318              		.loc 1 236 0
 3319 1462 FB7D     		ldrb	r3, [r7, #23]	@ zero_extendqisi2
 3320              	.L9:
 237:../../Drivers/STM32F7xx_HAL_Driver/Src/stm32f7xx_hal_dma_ex.c **** }
 3321              		.loc 1 237 0
 3322 1464 1846     		mov	r0, r3
 3323 1466 1837     		adds	r7, r7, #24
 3324              	.LCFI8:
 3325              		.cfi_def_cfa_offset 8
 3326 1468 BD46     		mov	sp, r7
 3327              	.LCFI9:
 3328              		.cfi_def_cfa_register 13
 3329              		@ sp needed
 3330 146a 80BD     		pop	{r7, pc}
 3331              	.L540:
 3332              		.align	2
 3333              	.L539:
 3334 146c 01008000 		.word	8388609
 3335              		.cfi_endproc
 3336              	.LFE136:
 3338              		.section	.text.HAL_DMAEx_ChangeMemory,"ax",%progbits
 3339              		.align	2
 3340              		.global	HAL_DMAEx_ChangeMemory
 3341              		.thumb
 3342              		.thumb_func
 3344              	HAL_DMAEx_ChangeMemory:
 3345              	.LFB137:
 238:../../Drivers/STM32F7xx_HAL_Driver/Src/stm32f7xx_hal_dma_ex.c **** 
 239:../../Drivers/STM32F7xx_HAL_Driver/Src/stm32f7xx_hal_dma_ex.c **** /**
 240:../../Drivers/STM32F7xx_HAL_Driver/Src/stm32f7xx_hal_dma_ex.c ****   * @brief  Change the memory0 or memory1 address on the fly.
 241:../../Drivers/STM32F7xx_HAL_Driver/Src/stm32f7xx_hal_dma_ex.c ****   * @param  hdma:       pointer to a DMA_HandleTypeDef structure that contains
 242:../../Drivers/STM32F7xx_HAL_Driver/Src/stm32f7xx_hal_dma_ex.c ****   *                     the configuration information for the specified DMA Stream.  
 243:../../Drivers/STM32F7xx_HAL_Driver/Src/stm32f7xx_hal_dma_ex.c ****   * @param  Address:    The new address
 244:../../Drivers/STM32F7xx_HAL_Driver/Src/stm32f7xx_hal_dma_ex.c ****   * @param  memory:     the memory to be changed, This parameter can be one of 
 245:../../Drivers/STM32F7xx_HAL_Driver/Src/stm32f7xx_hal_dma_ex.c ****   *                     the following values:
 246:../../Drivers/STM32F7xx_HAL_Driver/Src/stm32f7xx_hal_dma_ex.c ****   *                      MEMORY0 /
 247:../../Drivers/STM32F7xx_HAL_Driver/Src/stm32f7xx_hal_dma_ex.c ****   *                      MEMORY1
 248:../../Drivers/STM32F7xx_HAL_Driver/Src/stm32f7xx_hal_dma_ex.c ****   * @note   The MEMORY0 address can be changed only when the current transfer use
 249:../../Drivers/STM32F7xx_HAL_Driver/Src/stm32f7xx_hal_dma_ex.c ****   *         MEMORY1 and the MEMORY1 address can be changed only when the current 
 250:../../Drivers/STM32F7xx_HAL_Driver/Src/stm32f7xx_hal_dma_ex.c ****   *         transfer use MEMORY0.
 251:../../Drivers/STM32F7xx_HAL_Driver/Src/stm32f7xx_hal_dma_ex.c ****   * @retval HAL status
ARM GAS  /tmp/ccn0LRTe.s 			page 64


 252:../../Drivers/STM32F7xx_HAL_Driver/Src/stm32f7xx_hal_dma_ex.c ****   */
 253:../../Drivers/STM32F7xx_HAL_Driver/Src/stm32f7xx_hal_dma_ex.c **** HAL_StatusTypeDef HAL_DMAEx_ChangeMemory(DMA_HandleTypeDef *hdma, uint32_t Address, HAL_DMA_MemoryT
 254:../../Drivers/STM32F7xx_HAL_Driver/Src/stm32f7xx_hal_dma_ex.c **** {
 3346              		.loc 1 254 0
 3347              		.cfi_startproc
 3348              		@ args = 0, pretend = 0, frame = 16
 3349              		@ frame_needed = 1, uses_anonymous_args = 0
 3350              		@ link register save eliminated.
 3351 0000 80B4     		push	{r7}
 3352              	.LCFI10:
 3353              		.cfi_def_cfa_offset 4
 3354              		.cfi_offset 7, -4
 3355 0002 85B0     		sub	sp, sp, #20
 3356              	.LCFI11:
 3357              		.cfi_def_cfa_offset 24
 3358 0004 00AF     		add	r7, sp, #0
 3359              	.LCFI12:
 3360              		.cfi_def_cfa_register 7
 3361 0006 F860     		str	r0, [r7, #12]
 3362 0008 B960     		str	r1, [r7, #8]
 3363 000a 1346     		mov	r3, r2
 3364 000c FB71     		strb	r3, [r7, #7]
 255:../../Drivers/STM32F7xx_HAL_Driver/Src/stm32f7xx_hal_dma_ex.c ****   if(memory == MEMORY0)
 3365              		.loc 1 255 0
 3366 000e FB79     		ldrb	r3, [r7, #7]	@ zero_extendqisi2
 3367 0010 002B     		cmp	r3, #0
 3368 0012 04D1     		bne	.L542
 256:../../Drivers/STM32F7xx_HAL_Driver/Src/stm32f7xx_hal_dma_ex.c ****   {
 257:../../Drivers/STM32F7xx_HAL_Driver/Src/stm32f7xx_hal_dma_ex.c ****     /* change the memory0 address */
 258:../../Drivers/STM32F7xx_HAL_Driver/Src/stm32f7xx_hal_dma_ex.c ****     hdma->Instance->M0AR = Address;
 3369              		.loc 1 258 0
 3370 0014 FB68     		ldr	r3, [r7, #12]
 3371 0016 1B68     		ldr	r3, [r3]
 3372 0018 BA68     		ldr	r2, [r7, #8]
 3373 001a DA60     		str	r2, [r3, #12]
 3374 001c 03E0     		b	.L543
 3375              	.L542:
 259:../../Drivers/STM32F7xx_HAL_Driver/Src/stm32f7xx_hal_dma_ex.c ****   }
 260:../../Drivers/STM32F7xx_HAL_Driver/Src/stm32f7xx_hal_dma_ex.c ****   else
 261:../../Drivers/STM32F7xx_HAL_Driver/Src/stm32f7xx_hal_dma_ex.c ****   {
 262:../../Drivers/STM32F7xx_HAL_Driver/Src/stm32f7xx_hal_dma_ex.c ****     /* change the memory1 address */
 263:../../Drivers/STM32F7xx_HAL_Driver/Src/stm32f7xx_hal_dma_ex.c ****     hdma->Instance->M1AR = Address;
 3376              		.loc 1 263 0
 3377 001e FB68     		ldr	r3, [r7, #12]
 3378 0020 1B68     		ldr	r3, [r3]
 3379 0022 BA68     		ldr	r2, [r7, #8]
 3380 0024 1A61     		str	r2, [r3, #16]
 3381              	.L543:
 264:../../Drivers/STM32F7xx_HAL_Driver/Src/stm32f7xx_hal_dma_ex.c ****   }
 265:../../Drivers/STM32F7xx_HAL_Driver/Src/stm32f7xx_hal_dma_ex.c ****   
 266:../../Drivers/STM32F7xx_HAL_Driver/Src/stm32f7xx_hal_dma_ex.c ****   return HAL_OK;
 3382              		.loc 1 266 0
 3383 0026 0023     		movs	r3, #0
 267:../../Drivers/STM32F7xx_HAL_Driver/Src/stm32f7xx_hal_dma_ex.c **** }
 3384              		.loc 1 267 0
 3385 0028 1846     		mov	r0, r3
 3386 002a 1437     		adds	r7, r7, #20
ARM GAS  /tmp/ccn0LRTe.s 			page 65


 3387              	.LCFI13:
 3388              		.cfi_def_cfa_offset 4
 3389 002c BD46     		mov	sp, r7
 3390              	.LCFI14:
 3391              		.cfi_def_cfa_register 13
 3392              		@ sp needed
 3393 002e 5DF8047B 		ldr	r7, [sp], #4
 3394              	.LCFI15:
 3395              		.cfi_restore 7
 3396              		.cfi_def_cfa_offset 0
 3397 0032 7047     		bx	lr
 3398              		.cfi_endproc
 3399              	.LFE137:
 3401              		.section	.text.DMA_MultiBufferSetConfig,"ax",%progbits
 3402              		.align	2
 3403              		.thumb
 3404              		.thumb_func
 3406              	DMA_MultiBufferSetConfig:
 3407              	.LFB138:
 268:../../Drivers/STM32F7xx_HAL_Driver/Src/stm32f7xx_hal_dma_ex.c **** 
 269:../../Drivers/STM32F7xx_HAL_Driver/Src/stm32f7xx_hal_dma_ex.c **** /**
 270:../../Drivers/STM32F7xx_HAL_Driver/Src/stm32f7xx_hal_dma_ex.c ****   * @}
 271:../../Drivers/STM32F7xx_HAL_Driver/Src/stm32f7xx_hal_dma_ex.c ****   */
 272:../../Drivers/STM32F7xx_HAL_Driver/Src/stm32f7xx_hal_dma_ex.c **** 
 273:../../Drivers/STM32F7xx_HAL_Driver/Src/stm32f7xx_hal_dma_ex.c **** /**
 274:../../Drivers/STM32F7xx_HAL_Driver/Src/stm32f7xx_hal_dma_ex.c ****   * @}
 275:../../Drivers/STM32F7xx_HAL_Driver/Src/stm32f7xx_hal_dma_ex.c ****   */
 276:../../Drivers/STM32F7xx_HAL_Driver/Src/stm32f7xx_hal_dma_ex.c **** 
 277:../../Drivers/STM32F7xx_HAL_Driver/Src/stm32f7xx_hal_dma_ex.c **** /** @addtogroup DMAEx_Private_Functions
 278:../../Drivers/STM32F7xx_HAL_Driver/Src/stm32f7xx_hal_dma_ex.c ****   * @{
 279:../../Drivers/STM32F7xx_HAL_Driver/Src/stm32f7xx_hal_dma_ex.c ****   */
 280:../../Drivers/STM32F7xx_HAL_Driver/Src/stm32f7xx_hal_dma_ex.c **** 
 281:../../Drivers/STM32F7xx_HAL_Driver/Src/stm32f7xx_hal_dma_ex.c **** /**
 282:../../Drivers/STM32F7xx_HAL_Driver/Src/stm32f7xx_hal_dma_ex.c ****   * @brief  Set the DMA Transfer parameter.
 283:../../Drivers/STM32F7xx_HAL_Driver/Src/stm32f7xx_hal_dma_ex.c ****   * @param  hdma:       pointer to a DMA_HandleTypeDef structure that contains
 284:../../Drivers/STM32F7xx_HAL_Driver/Src/stm32f7xx_hal_dma_ex.c ****   *                     the configuration information for the specified DMA Stream.  
 285:../../Drivers/STM32F7xx_HAL_Driver/Src/stm32f7xx_hal_dma_ex.c ****   * @param  SrcAddress: The source memory Buffer address
 286:../../Drivers/STM32F7xx_HAL_Driver/Src/stm32f7xx_hal_dma_ex.c ****   * @param  DstAddress: The destination memory Buffer address
 287:../../Drivers/STM32F7xx_HAL_Driver/Src/stm32f7xx_hal_dma_ex.c ****   * @param  DataLength: The length of data to be transferred from source to destination
 288:../../Drivers/STM32F7xx_HAL_Driver/Src/stm32f7xx_hal_dma_ex.c ****   * @retval HAL status
 289:../../Drivers/STM32F7xx_HAL_Driver/Src/stm32f7xx_hal_dma_ex.c ****   */
 290:../../Drivers/STM32F7xx_HAL_Driver/Src/stm32f7xx_hal_dma_ex.c **** static void DMA_MultiBufferSetConfig(DMA_HandleTypeDef *hdma, uint32_t SrcAddress, uint32_t DstAddr
 291:../../Drivers/STM32F7xx_HAL_Driver/Src/stm32f7xx_hal_dma_ex.c **** {
 3408              		.loc 1 291 0
 3409              		.cfi_startproc
 3410              		@ args = 0, pretend = 0, frame = 16
 3411              		@ frame_needed = 1, uses_anonymous_args = 0
 3412              		@ link register save eliminated.
 3413 0000 80B4     		push	{r7}
 3414              	.LCFI16:
 3415              		.cfi_def_cfa_offset 4
 3416              		.cfi_offset 7, -4
 3417 0002 85B0     		sub	sp, sp, #20
 3418              	.LCFI17:
 3419              		.cfi_def_cfa_offset 24
 3420 0004 00AF     		add	r7, sp, #0
 3421              	.LCFI18:
ARM GAS  /tmp/ccn0LRTe.s 			page 66


 3422              		.cfi_def_cfa_register 7
 3423 0006 F860     		str	r0, [r7, #12]
 3424 0008 B960     		str	r1, [r7, #8]
 3425 000a 7A60     		str	r2, [r7, #4]
 3426 000c 3B60     		str	r3, [r7]
 292:../../Drivers/STM32F7xx_HAL_Driver/Src/stm32f7xx_hal_dma_ex.c ****   /* Configure DMA Stream data length */
 293:../../Drivers/STM32F7xx_HAL_Driver/Src/stm32f7xx_hal_dma_ex.c ****   hdma->Instance->NDTR = DataLength;
 3427              		.loc 1 293 0
 3428 000e FB68     		ldr	r3, [r7, #12]
 3429 0010 1B68     		ldr	r3, [r3]
 3430 0012 3A68     		ldr	r2, [r7]
 3431 0014 5A60     		str	r2, [r3, #4]
 294:../../Drivers/STM32F7xx_HAL_Driver/Src/stm32f7xx_hal_dma_ex.c ****   
 295:../../Drivers/STM32F7xx_HAL_Driver/Src/stm32f7xx_hal_dma_ex.c ****   /* Peripheral to Memory */
 296:../../Drivers/STM32F7xx_HAL_Driver/Src/stm32f7xx_hal_dma_ex.c ****   if((hdma->Init.Direction) == DMA_MEMORY_TO_PERIPH)
 3432              		.loc 1 296 0
 3433 0016 FB68     		ldr	r3, [r7, #12]
 3434 0018 9B68     		ldr	r3, [r3, #8]
 3435 001a 402B     		cmp	r3, #64
 3436 001c 08D1     		bne	.L546
 297:../../Drivers/STM32F7xx_HAL_Driver/Src/stm32f7xx_hal_dma_ex.c ****   {
 298:../../Drivers/STM32F7xx_HAL_Driver/Src/stm32f7xx_hal_dma_ex.c ****     /* Configure DMA Stream destination address */
 299:../../Drivers/STM32F7xx_HAL_Driver/Src/stm32f7xx_hal_dma_ex.c ****     hdma->Instance->PAR = DstAddress;
 3437              		.loc 1 299 0
 3438 001e FB68     		ldr	r3, [r7, #12]
 3439 0020 1B68     		ldr	r3, [r3]
 3440 0022 7A68     		ldr	r2, [r7, #4]
 3441 0024 9A60     		str	r2, [r3, #8]
 300:../../Drivers/STM32F7xx_HAL_Driver/Src/stm32f7xx_hal_dma_ex.c ****     
 301:../../Drivers/STM32F7xx_HAL_Driver/Src/stm32f7xx_hal_dma_ex.c ****     /* Configure DMA Stream source address */
 302:../../Drivers/STM32F7xx_HAL_Driver/Src/stm32f7xx_hal_dma_ex.c ****     hdma->Instance->M0AR = SrcAddress;
 3442              		.loc 1 302 0
 3443 0026 FB68     		ldr	r3, [r7, #12]
 3444 0028 1B68     		ldr	r3, [r3]
 3445 002a BA68     		ldr	r2, [r7, #8]
 3446 002c DA60     		str	r2, [r3, #12]
 3447 002e 07E0     		b	.L545
 3448              	.L546:
 303:../../Drivers/STM32F7xx_HAL_Driver/Src/stm32f7xx_hal_dma_ex.c ****   }
 304:../../Drivers/STM32F7xx_HAL_Driver/Src/stm32f7xx_hal_dma_ex.c ****   /* Memory to Peripheral */
 305:../../Drivers/STM32F7xx_HAL_Driver/Src/stm32f7xx_hal_dma_ex.c ****   else
 306:../../Drivers/STM32F7xx_HAL_Driver/Src/stm32f7xx_hal_dma_ex.c ****   {
 307:../../Drivers/STM32F7xx_HAL_Driver/Src/stm32f7xx_hal_dma_ex.c ****     /* Configure DMA Stream source address */
 308:../../Drivers/STM32F7xx_HAL_Driver/Src/stm32f7xx_hal_dma_ex.c ****     hdma->Instance->PAR = SrcAddress;
 3449              		.loc 1 308 0
 3450 0030 FB68     		ldr	r3, [r7, #12]
 3451 0032 1B68     		ldr	r3, [r3]
 3452 0034 BA68     		ldr	r2, [r7, #8]
 3453 0036 9A60     		str	r2, [r3, #8]
 309:../../Drivers/STM32F7xx_HAL_Driver/Src/stm32f7xx_hal_dma_ex.c ****     
 310:../../Drivers/STM32F7xx_HAL_Driver/Src/stm32f7xx_hal_dma_ex.c ****     /* Configure DMA Stream destination address */
 311:../../Drivers/STM32F7xx_HAL_Driver/Src/stm32f7xx_hal_dma_ex.c ****     hdma->Instance->M0AR = DstAddress;
 3454              		.loc 1 311 0
 3455 0038 FB68     		ldr	r3, [r7, #12]
 3456 003a 1B68     		ldr	r3, [r3]
 3457 003c 7A68     		ldr	r2, [r7, #4]
 3458 003e DA60     		str	r2, [r3, #12]
ARM GAS  /tmp/ccn0LRTe.s 			page 67


 3459              	.L545:
 312:../../Drivers/STM32F7xx_HAL_Driver/Src/stm32f7xx_hal_dma_ex.c ****   }
 313:../../Drivers/STM32F7xx_HAL_Driver/Src/stm32f7xx_hal_dma_ex.c **** }
 3460              		.loc 1 313 0
 3461 0040 1437     		adds	r7, r7, #20
 3462              	.LCFI19:
 3463              		.cfi_def_cfa_offset 4
 3464 0042 BD46     		mov	sp, r7
 3465              	.LCFI20:
 3466              		.cfi_def_cfa_register 13
 3467              		@ sp needed
 3468 0044 5DF8047B 		ldr	r7, [sp], #4
 3469              	.LCFI21:
 3470              		.cfi_restore 7
 3471              		.cfi_def_cfa_offset 0
 3472 0048 7047     		bx	lr
 3473              		.cfi_endproc
 3474              	.LFE138:
 3476 004a 00BF     		.text
 3477              	.Letext0:
 3478              		.file 2 "/usr/arm-none-eabi/include/machine/_default_types.h"
 3479              		.file 3 "/usr/arm-none-eabi/include/sys/_stdint.h"
 3480              		.file 4 "../../Drivers/CMSIS/Device/ST/STM32F7xx/Include/stm32f769xx.h"
 3481              		.file 5 "../../Drivers/STM32F7xx_HAL_Driver/Inc/stm32f7xx_hal_def.h"
 3482              		.file 6 "../../Drivers/STM32F7xx_HAL_Driver/Inc/stm32f7xx_hal_dma.h"
 3483              		.file 7 "../../Drivers/STM32F7xx_HAL_Driver/Inc/stm32f7xx_hal_dma_ex.h"
 3484              		.file 8 "../../Drivers/CMSIS/Include/core_cm7.h"
ARM GAS  /tmp/ccn0LRTe.s 			page 68

