ARM GAS  /tmp/cc04EBs1.s 			page 1


   1              		.syntax unified
   2              		.cpu cortex-m7
   3              		.eabi_attribute 27, 1
   4              		.eabi_attribute 28, 1
   5              		.fpu fpv5-sp-d16
   6              		.eabi_attribute 20, 1
   7              		.eabi_attribute 21, 1
   8              		.eabi_attribute 23, 3
   9              		.eabi_attribute 24, 1
  10              		.eabi_attribute 25, 1
  11              		.eabi_attribute 26, 1
  12              		.eabi_attribute 30, 6
  13              		.eabi_attribute 34, 1
  14              		.eabi_attribute 18, 4
  15              		.thumb
  16              		.file	"stm32f7xx_hal_tim.c"
  17              		.text
  18              	.Ltext0:
  19              		.cfi_sections	.debug_frame
  20              		.section	.text.HAL_TIM_Base_Init,"ax",%progbits
  21              		.align	2
  22              		.global	HAL_TIM_Base_Init
  23              		.thumb
  24              		.thumb_func
  26              	HAL_TIM_Base_Init:
  27              	.LFB135:
  28              		.file 1 "../../Drivers/STM32F7xx_HAL_Driver/Src/stm32f7xx_hal_tim.c"
   1:../../Drivers/STM32F7xx_HAL_Driver/Src/stm32f7xx_hal_tim.c **** /**
   2:../../Drivers/STM32F7xx_HAL_Driver/Src/stm32f7xx_hal_tim.c ****   ******************************************************************************
   3:../../Drivers/STM32F7xx_HAL_Driver/Src/stm32f7xx_hal_tim.c ****   * @file    stm32f7xx_hal_tim.c
   4:../../Drivers/STM32F7xx_HAL_Driver/Src/stm32f7xx_hal_tim.c ****   * @author  MCD Application Team
   5:../../Drivers/STM32F7xx_HAL_Driver/Src/stm32f7xx_hal_tim.c ****   * @version V1.2.2
   6:../../Drivers/STM32F7xx_HAL_Driver/Src/stm32f7xx_hal_tim.c ****   * @date    14-April-2017
   7:../../Drivers/STM32F7xx_HAL_Driver/Src/stm32f7xx_hal_tim.c ****   * @brief   TIM HAL module driver.
   8:../../Drivers/STM32F7xx_HAL_Driver/Src/stm32f7xx_hal_tim.c ****   *          This file provides firmware functions to manage the following 
   9:../../Drivers/STM32F7xx_HAL_Driver/Src/stm32f7xx_hal_tim.c ****   *          functionalities of the Timer (TIM) peripheral:
  10:../../Drivers/STM32F7xx_HAL_Driver/Src/stm32f7xx_hal_tim.c ****   *           + Time Base Initialization
  11:../../Drivers/STM32F7xx_HAL_Driver/Src/stm32f7xx_hal_tim.c ****   *           + Time Base Start
  12:../../Drivers/STM32F7xx_HAL_Driver/Src/stm32f7xx_hal_tim.c ****   *           + Time Base Start Interruption
  13:../../Drivers/STM32F7xx_HAL_Driver/Src/stm32f7xx_hal_tim.c ****   *           + Time Base Start DMA
  14:../../Drivers/STM32F7xx_HAL_Driver/Src/stm32f7xx_hal_tim.c ****   *           + Time Output Compare/PWM Initialization
  15:../../Drivers/STM32F7xx_HAL_Driver/Src/stm32f7xx_hal_tim.c ****   *           + Time Output Compare/PWM Channel Configuration
  16:../../Drivers/STM32F7xx_HAL_Driver/Src/stm32f7xx_hal_tim.c ****   *           + Time Output Compare/PWM  Start
  17:../../Drivers/STM32F7xx_HAL_Driver/Src/stm32f7xx_hal_tim.c ****   *           + Time Output Compare/PWM  Start Interruption
  18:../../Drivers/STM32F7xx_HAL_Driver/Src/stm32f7xx_hal_tim.c ****   *           + Time Output Compare/PWM Start DMA
  19:../../Drivers/STM32F7xx_HAL_Driver/Src/stm32f7xx_hal_tim.c ****   *           + Time Input Capture Initialization
  20:../../Drivers/STM32F7xx_HAL_Driver/Src/stm32f7xx_hal_tim.c ****   *           + Time Input Capture Channel Configuration
  21:../../Drivers/STM32F7xx_HAL_Driver/Src/stm32f7xx_hal_tim.c ****   *           + Time Input Capture Start
  22:../../Drivers/STM32F7xx_HAL_Driver/Src/stm32f7xx_hal_tim.c ****   *           + Time Input Capture Start Interruption 
  23:../../Drivers/STM32F7xx_HAL_Driver/Src/stm32f7xx_hal_tim.c ****   *           + Time Input Capture Start DMA
  24:../../Drivers/STM32F7xx_HAL_Driver/Src/stm32f7xx_hal_tim.c ****   *           + Time One Pulse Initialization
  25:../../Drivers/STM32F7xx_HAL_Driver/Src/stm32f7xx_hal_tim.c ****   *           + Time One Pulse Channel Configuration
  26:../../Drivers/STM32F7xx_HAL_Driver/Src/stm32f7xx_hal_tim.c ****   *           + Time One Pulse Start 
  27:../../Drivers/STM32F7xx_HAL_Driver/Src/stm32f7xx_hal_tim.c ****   *           + Time Encoder Interface Initialization
  28:../../Drivers/STM32F7xx_HAL_Driver/Src/stm32f7xx_hal_tim.c ****   *           + Time Encoder Interface Start
  29:../../Drivers/STM32F7xx_HAL_Driver/Src/stm32f7xx_hal_tim.c ****   *           + Time Encoder Interface Start Interruption
  30:../../Drivers/STM32F7xx_HAL_Driver/Src/stm32f7xx_hal_tim.c ****   *           + Time Encoder Interface Start DMA
ARM GAS  /tmp/cc04EBs1.s 			page 2


  31:../../Drivers/STM32F7xx_HAL_Driver/Src/stm32f7xx_hal_tim.c ****   *           + Commutation Event configuration with Interruption and DMA
  32:../../Drivers/STM32F7xx_HAL_Driver/Src/stm32f7xx_hal_tim.c ****   *           + Time OCRef clear configuration
  33:../../Drivers/STM32F7xx_HAL_Driver/Src/stm32f7xx_hal_tim.c ****   *           + Time External Clock configuration
  34:../../Drivers/STM32F7xx_HAL_Driver/Src/stm32f7xx_hal_tim.c ****   @verbatim 
  35:../../Drivers/STM32F7xx_HAL_Driver/Src/stm32f7xx_hal_tim.c ****   ==============================================================================
  36:../../Drivers/STM32F7xx_HAL_Driver/Src/stm32f7xx_hal_tim.c ****                       ##### TIMER Generic features #####
  37:../../Drivers/STM32F7xx_HAL_Driver/Src/stm32f7xx_hal_tim.c ****   ==============================================================================
  38:../../Drivers/STM32F7xx_HAL_Driver/Src/stm32f7xx_hal_tim.c ****   [..] The Timer features include: 
  39:../../Drivers/STM32F7xx_HAL_Driver/Src/stm32f7xx_hal_tim.c ****        (#) 16-bit up, down, up/down auto-reload counter.
  40:../../Drivers/STM32F7xx_HAL_Driver/Src/stm32f7xx_hal_tim.c ****        (#) 16-bit programmable prescaler allowing dividing (also on the fly) the 
  41:../../Drivers/STM32F7xx_HAL_Driver/Src/stm32f7xx_hal_tim.c ****            counter clock frequency either by any factor between 1 and 65536.
  42:../../Drivers/STM32F7xx_HAL_Driver/Src/stm32f7xx_hal_tim.c ****        (#) Up to 4 independent channels for:
  43:../../Drivers/STM32F7xx_HAL_Driver/Src/stm32f7xx_hal_tim.c ****            (++) Input Capture
  44:../../Drivers/STM32F7xx_HAL_Driver/Src/stm32f7xx_hal_tim.c ****            (++) Output Compare
  45:../../Drivers/STM32F7xx_HAL_Driver/Src/stm32f7xx_hal_tim.c ****            (++) PWM generation (Edge and Center-aligned Mode)
  46:../../Drivers/STM32F7xx_HAL_Driver/Src/stm32f7xx_hal_tim.c ****            (++) One-pulse mode output               
  47:../../Drivers/STM32F7xx_HAL_Driver/Src/stm32f7xx_hal_tim.c ****    
  48:../../Drivers/STM32F7xx_HAL_Driver/Src/stm32f7xx_hal_tim.c ****                         ##### How to use this driver #####
  49:../../Drivers/STM32F7xx_HAL_Driver/Src/stm32f7xx_hal_tim.c ****   ==============================================================================
  50:../../Drivers/STM32F7xx_HAL_Driver/Src/stm32f7xx_hal_tim.c ****     [..]
  51:../../Drivers/STM32F7xx_HAL_Driver/Src/stm32f7xx_hal_tim.c ****      (#) Initialize the TIM low level resources by implementing the following functions 
  52:../../Drivers/STM32F7xx_HAL_Driver/Src/stm32f7xx_hal_tim.c ****          depending from feature used :
  53:../../Drivers/STM32F7xx_HAL_Driver/Src/stm32f7xx_hal_tim.c ****            (++) Time Base : HAL_TIM_Base_MspInit() 
  54:../../Drivers/STM32F7xx_HAL_Driver/Src/stm32f7xx_hal_tim.c ****            (++) Input Capture : HAL_TIM_IC_MspInit()
  55:../../Drivers/STM32F7xx_HAL_Driver/Src/stm32f7xx_hal_tim.c ****            (++) Output Compare : HAL_TIM_OC_MspInit()
  56:../../Drivers/STM32F7xx_HAL_Driver/Src/stm32f7xx_hal_tim.c ****            (++) PWM generation : HAL_TIM_PWM_MspInit()
  57:../../Drivers/STM32F7xx_HAL_Driver/Src/stm32f7xx_hal_tim.c ****            (++) One-pulse mode output : HAL_TIM_OnePulse_MspInit()
  58:../../Drivers/STM32F7xx_HAL_Driver/Src/stm32f7xx_hal_tim.c ****            (++) Encoder mode output : HAL_TIM_Encoder_MspInit()
  59:../../Drivers/STM32F7xx_HAL_Driver/Src/stm32f7xx_hal_tim.c ****            
  60:../../Drivers/STM32F7xx_HAL_Driver/Src/stm32f7xx_hal_tim.c ****      (#) Initialize the TIM low level resources :
  61:../../Drivers/STM32F7xx_HAL_Driver/Src/stm32f7xx_hal_tim.c ****         (##) Enable the TIM interface clock using __HAL_RCC_TIMx_CLK_ENABLE(); 
  62:../../Drivers/STM32F7xx_HAL_Driver/Src/stm32f7xx_hal_tim.c ****         (##) TIM pins configuration
  63:../../Drivers/STM32F7xx_HAL_Driver/Src/stm32f7xx_hal_tim.c ****             (+++) Enable the clock for the TIM GPIOs using the following function:
  64:../../Drivers/STM32F7xx_HAL_Driver/Src/stm32f7xx_hal_tim.c ****                  __HAL_RCC_GPIOx_CLK_ENABLE();   
  65:../../Drivers/STM32F7xx_HAL_Driver/Src/stm32f7xx_hal_tim.c ****             (+++) Configure these TIM pins in Alternate function mode using HAL_GPIO_Init();  
  66:../../Drivers/STM32F7xx_HAL_Driver/Src/stm32f7xx_hal_tim.c **** 
  67:../../Drivers/STM32F7xx_HAL_Driver/Src/stm32f7xx_hal_tim.c ****      (#) The external Clock can be configured, if needed (the default clock is the 
  68:../../Drivers/STM32F7xx_HAL_Driver/Src/stm32f7xx_hal_tim.c ****          internal clock from the APBx), using the following function:
  69:../../Drivers/STM32F7xx_HAL_Driver/Src/stm32f7xx_hal_tim.c ****          HAL_TIM_ConfigClockSource, the clock configuration should be done before 
  70:../../Drivers/STM32F7xx_HAL_Driver/Src/stm32f7xx_hal_tim.c ****          any start function.
  71:../../Drivers/STM32F7xx_HAL_Driver/Src/stm32f7xx_hal_tim.c ****   
  72:../../Drivers/STM32F7xx_HAL_Driver/Src/stm32f7xx_hal_tim.c ****      (#) Configure the TIM in the desired functioning mode using one of the 
  73:../../Drivers/STM32F7xx_HAL_Driver/Src/stm32f7xx_hal_tim.c ****          initialization function of this driver:
  74:../../Drivers/STM32F7xx_HAL_Driver/Src/stm32f7xx_hal_tim.c ****          (++) HAL_TIM_Base_Init: to use the Timer to generate a simple time base
  75:../../Drivers/STM32F7xx_HAL_Driver/Src/stm32f7xx_hal_tim.c ****          (++) HAL_TIM_OC_Init and HAL_TIM_OC_ConfigChannel: to use the Timer to generate an 
  76:../../Drivers/STM32F7xx_HAL_Driver/Src/stm32f7xx_hal_tim.c ****               Output Compare signal.
  77:../../Drivers/STM32F7xx_HAL_Driver/Src/stm32f7xx_hal_tim.c ****          (++) HAL_TIM_PWM_Init and HAL_TIM_PWM_ConfigChannel: to use the Timer to generate a 
  78:../../Drivers/STM32F7xx_HAL_Driver/Src/stm32f7xx_hal_tim.c ****               PWM signal.
  79:../../Drivers/STM32F7xx_HAL_Driver/Src/stm32f7xx_hal_tim.c ****          (++) HAL_TIM_IC_Init and HAL_TIM_IC_ConfigChannel: to use the Timer to measure an 
  80:../../Drivers/STM32F7xx_HAL_Driver/Src/stm32f7xx_hal_tim.c ****               external signal.
  81:../../Drivers/STM32F7xx_HAL_Driver/Src/stm32f7xx_hal_tim.c ****          (++) HAL_TIM_OnePulse_Init and HAL_TIM_OnePulse_ConfigChannel: to use the Timer 
  82:../../Drivers/STM32F7xx_HAL_Driver/Src/stm32f7xx_hal_tim.c ****               in One Pulse Mode.
  83:../../Drivers/STM32F7xx_HAL_Driver/Src/stm32f7xx_hal_tim.c ****          (++) HAL_TIM_Encoder_Init: to use the Timer Encoder Interface.
  84:../../Drivers/STM32F7xx_HAL_Driver/Src/stm32f7xx_hal_tim.c ****          
  85:../../Drivers/STM32F7xx_HAL_Driver/Src/stm32f7xx_hal_tim.c ****      (#) Activate the TIM peripheral using one of the start functions depending from the feature us
  86:../../Drivers/STM32F7xx_HAL_Driver/Src/stm32f7xx_hal_tim.c ****            (++) Time Base : HAL_TIM_Base_Start(), HAL_TIM_Base_Start_DMA(), HAL_TIM_Base_Start_IT()
  87:../../Drivers/STM32F7xx_HAL_Driver/Src/stm32f7xx_hal_tim.c ****            (++) Input Capture :  HAL_TIM_IC_Start(), HAL_TIM_IC_Start_DMA(), HAL_TIM_IC_Start_IT()
ARM GAS  /tmp/cc04EBs1.s 			page 3


  88:../../Drivers/STM32F7xx_HAL_Driver/Src/stm32f7xx_hal_tim.c ****            (++) Output Compare : HAL_TIM_OC_Start(), HAL_TIM_OC_Start_DMA(), HAL_TIM_OC_Start_IT()
  89:../../Drivers/STM32F7xx_HAL_Driver/Src/stm32f7xx_hal_tim.c ****            (++) PWM generation : HAL_TIM_PWM_Start(), HAL_TIM_PWM_Start_DMA(), HAL_TIM_PWM_Start_IT
  90:../../Drivers/STM32F7xx_HAL_Driver/Src/stm32f7xx_hal_tim.c ****            (++) One-pulse mode output : HAL_TIM_OnePulse_Start(), HAL_TIM_OnePulse_Start_IT()
  91:../../Drivers/STM32F7xx_HAL_Driver/Src/stm32f7xx_hal_tim.c ****            (++) Encoder mode output : HAL_TIM_Encoder_Start(), HAL_TIM_Encoder_Start_DMA(), HAL_TIM
  92:../../Drivers/STM32F7xx_HAL_Driver/Src/stm32f7xx_hal_tim.c **** 
  93:../../Drivers/STM32F7xx_HAL_Driver/Src/stm32f7xx_hal_tim.c ****      (#) The DMA Burst is managed with the two following functions:
  94:../../Drivers/STM32F7xx_HAL_Driver/Src/stm32f7xx_hal_tim.c ****          HAL_TIM_DMABurst_WriteStart()
  95:../../Drivers/STM32F7xx_HAL_Driver/Src/stm32f7xx_hal_tim.c ****          HAL_TIM_DMABurst_ReadStart()
  96:../../Drivers/STM32F7xx_HAL_Driver/Src/stm32f7xx_hal_tim.c ****   
  97:../../Drivers/STM32F7xx_HAL_Driver/Src/stm32f7xx_hal_tim.c ****   @endverbatim
  98:../../Drivers/STM32F7xx_HAL_Driver/Src/stm32f7xx_hal_tim.c ****   ******************************************************************************
  99:../../Drivers/STM32F7xx_HAL_Driver/Src/stm32f7xx_hal_tim.c ****   * @attention
 100:../../Drivers/STM32F7xx_HAL_Driver/Src/stm32f7xx_hal_tim.c ****   *
 101:../../Drivers/STM32F7xx_HAL_Driver/Src/stm32f7xx_hal_tim.c ****   * <h2><center>&copy; COPYRIGHT(c) 2017 STMicroelectronics</center></h2>
 102:../../Drivers/STM32F7xx_HAL_Driver/Src/stm32f7xx_hal_tim.c ****   *
 103:../../Drivers/STM32F7xx_HAL_Driver/Src/stm32f7xx_hal_tim.c ****   * Redistribution and use in source and binary forms, with or without modification,
 104:../../Drivers/STM32F7xx_HAL_Driver/Src/stm32f7xx_hal_tim.c ****   * are permitted provided that the following conditions are met:
 105:../../Drivers/STM32F7xx_HAL_Driver/Src/stm32f7xx_hal_tim.c ****   *   1. Redistributions of source code must retain the above copyright notice,
 106:../../Drivers/STM32F7xx_HAL_Driver/Src/stm32f7xx_hal_tim.c ****   *      this list of conditions and the following disclaimer.
 107:../../Drivers/STM32F7xx_HAL_Driver/Src/stm32f7xx_hal_tim.c ****   *   2. Redistributions in binary form must reproduce the above copyright notice,
 108:../../Drivers/STM32F7xx_HAL_Driver/Src/stm32f7xx_hal_tim.c ****   *      this list of conditions and the following disclaimer in the documentation
 109:../../Drivers/STM32F7xx_HAL_Driver/Src/stm32f7xx_hal_tim.c ****   *      and/or other materials provided with the distribution.
 110:../../Drivers/STM32F7xx_HAL_Driver/Src/stm32f7xx_hal_tim.c ****   *   3. Neither the name of STMicroelectronics nor the names of its contributors
 111:../../Drivers/STM32F7xx_HAL_Driver/Src/stm32f7xx_hal_tim.c ****   *      may be used to endorse or promote products derived from this software
 112:../../Drivers/STM32F7xx_HAL_Driver/Src/stm32f7xx_hal_tim.c ****   *      without specific prior written permission.
 113:../../Drivers/STM32F7xx_HAL_Driver/Src/stm32f7xx_hal_tim.c ****   *
 114:../../Drivers/STM32F7xx_HAL_Driver/Src/stm32f7xx_hal_tim.c ****   * THIS SOFTWARE IS PROVIDED BY THE COPYRIGHT HOLDERS AND CONTRIBUTORS "AS IS"
 115:../../Drivers/STM32F7xx_HAL_Driver/Src/stm32f7xx_hal_tim.c ****   * AND ANY EXPRESS OR IMPLIED WARRANTIES, INCLUDING, BUT NOT LIMITED TO, THE
 116:../../Drivers/STM32F7xx_HAL_Driver/Src/stm32f7xx_hal_tim.c ****   * IMPLIED WARRANTIES OF MERCHANTABILITY AND FITNESS FOR A PARTICULAR PURPOSE ARE
 117:../../Drivers/STM32F7xx_HAL_Driver/Src/stm32f7xx_hal_tim.c ****   * DISCLAIMED. IN NO EVENT SHALL THE COPYRIGHT HOLDER OR CONTRIBUTORS BE LIABLE
 118:../../Drivers/STM32F7xx_HAL_Driver/Src/stm32f7xx_hal_tim.c ****   * FOR ANY DIRECT, INDIRECT, INCIDENTAL, SPECIAL, EXEMPLARY, OR CONSEQUENTIAL
 119:../../Drivers/STM32F7xx_HAL_Driver/Src/stm32f7xx_hal_tim.c ****   * DAMAGES (INCLUDING, BUT NOT LIMITED TO, PROCUREMENT OF SUBSTITUTE GOODS OR
 120:../../Drivers/STM32F7xx_HAL_Driver/Src/stm32f7xx_hal_tim.c ****   * SERVICES; LOSS OF USE, DATA, OR PROFITS; OR BUSINESS INTERRUPTION) HOWEVER
 121:../../Drivers/STM32F7xx_HAL_Driver/Src/stm32f7xx_hal_tim.c ****   * CAUSED AND ON ANY THEORY OF LIABILITY, WHETHER IN CONTRACT, STRICT LIABILITY,
 122:../../Drivers/STM32F7xx_HAL_Driver/Src/stm32f7xx_hal_tim.c ****   * OR TORT (INCLUDING NEGLIGENCE OR OTHERWISE) ARISING IN ANY WAY OUT OF THE USE
 123:../../Drivers/STM32F7xx_HAL_Driver/Src/stm32f7xx_hal_tim.c ****   * OF THIS SOFTWARE, EVEN IF ADVISED OF THE POSSIBILITY OF SUCH DAMAGE.
 124:../../Drivers/STM32F7xx_HAL_Driver/Src/stm32f7xx_hal_tim.c ****   *
 125:../../Drivers/STM32F7xx_HAL_Driver/Src/stm32f7xx_hal_tim.c ****   ******************************************************************************
 126:../../Drivers/STM32F7xx_HAL_Driver/Src/stm32f7xx_hal_tim.c ****   */ 
 127:../../Drivers/STM32F7xx_HAL_Driver/Src/stm32f7xx_hal_tim.c **** 
 128:../../Drivers/STM32F7xx_HAL_Driver/Src/stm32f7xx_hal_tim.c **** /* Includes ------------------------------------------------------------------*/
 129:../../Drivers/STM32F7xx_HAL_Driver/Src/stm32f7xx_hal_tim.c **** #include "stm32f7xx_hal.h"
 130:../../Drivers/STM32F7xx_HAL_Driver/Src/stm32f7xx_hal_tim.c **** 
 131:../../Drivers/STM32F7xx_HAL_Driver/Src/stm32f7xx_hal_tim.c **** /** @addtogroup STM32F7xx_HAL_Driver
 132:../../Drivers/STM32F7xx_HAL_Driver/Src/stm32f7xx_hal_tim.c ****   * @{
 133:../../Drivers/STM32F7xx_HAL_Driver/Src/stm32f7xx_hal_tim.c ****   */
 134:../../Drivers/STM32F7xx_HAL_Driver/Src/stm32f7xx_hal_tim.c **** 
 135:../../Drivers/STM32F7xx_HAL_Driver/Src/stm32f7xx_hal_tim.c **** /** @defgroup TIM TIM
 136:../../Drivers/STM32F7xx_HAL_Driver/Src/stm32f7xx_hal_tim.c ****   * @brief TIM HAL module driver
 137:../../Drivers/STM32F7xx_HAL_Driver/Src/stm32f7xx_hal_tim.c ****   * @{
 138:../../Drivers/STM32F7xx_HAL_Driver/Src/stm32f7xx_hal_tim.c ****   */
 139:../../Drivers/STM32F7xx_HAL_Driver/Src/stm32f7xx_hal_tim.c **** 
 140:../../Drivers/STM32F7xx_HAL_Driver/Src/stm32f7xx_hal_tim.c **** #ifdef HAL_TIM_MODULE_ENABLED
 141:../../Drivers/STM32F7xx_HAL_Driver/Src/stm32f7xx_hal_tim.c **** 
 142:../../Drivers/STM32F7xx_HAL_Driver/Src/stm32f7xx_hal_tim.c **** /* Private typedef -----------------------------------------------------------*/
 143:../../Drivers/STM32F7xx_HAL_Driver/Src/stm32f7xx_hal_tim.c **** /* Private define ------------------------------------------------------------*/
 144:../../Drivers/STM32F7xx_HAL_Driver/Src/stm32f7xx_hal_tim.c **** /* Private macro -------------------------------------------------------------*/
ARM GAS  /tmp/cc04EBs1.s 			page 4


 145:../../Drivers/STM32F7xx_HAL_Driver/Src/stm32f7xx_hal_tim.c **** /* Private variables ---------------------------------------------------------*/
 146:../../Drivers/STM32F7xx_HAL_Driver/Src/stm32f7xx_hal_tim.c **** /** @addtogroup TIM_Private_Functions
 147:../../Drivers/STM32F7xx_HAL_Driver/Src/stm32f7xx_hal_tim.c ****   * @{
 148:../../Drivers/STM32F7xx_HAL_Driver/Src/stm32f7xx_hal_tim.c ****   */
 149:../../Drivers/STM32F7xx_HAL_Driver/Src/stm32f7xx_hal_tim.c **** /* Private function prototypes -----------------------------------------------*/
 150:../../Drivers/STM32F7xx_HAL_Driver/Src/stm32f7xx_hal_tim.c **** static void TIM_TI1_ConfigInputStage(TIM_TypeDef *TIMx, uint32_t TIM_ICPolarity, uint32_t TIM_ICFil
 151:../../Drivers/STM32F7xx_HAL_Driver/Src/stm32f7xx_hal_tim.c **** static void TIM_TI2_SetConfig(TIM_TypeDef *TIMx, uint32_t TIM_ICPolarity, uint32_t TIM_ICSelection,
 152:../../Drivers/STM32F7xx_HAL_Driver/Src/stm32f7xx_hal_tim.c ****                        uint32_t TIM_ICFilter);
 153:../../Drivers/STM32F7xx_HAL_Driver/Src/stm32f7xx_hal_tim.c **** static void TIM_TI2_ConfigInputStage(TIM_TypeDef *TIMx, uint32_t TIM_ICPolarity, uint32_t TIM_ICFil
 154:../../Drivers/STM32F7xx_HAL_Driver/Src/stm32f7xx_hal_tim.c **** static void TIM_TI3_SetConfig(TIM_TypeDef *TIMx, uint32_t TIM_ICPolarity, uint32_t TIM_ICSelection,
 155:../../Drivers/STM32F7xx_HAL_Driver/Src/stm32f7xx_hal_tim.c ****                        uint32_t TIM_ICFilter);
 156:../../Drivers/STM32F7xx_HAL_Driver/Src/stm32f7xx_hal_tim.c **** static void TIM_TI4_SetConfig(TIM_TypeDef *TIMx, uint32_t TIM_ICPolarity, uint32_t TIM_ICSelection,
 157:../../Drivers/STM32F7xx_HAL_Driver/Src/stm32f7xx_hal_tim.c ****                        uint32_t TIM_ICFilter);
 158:../../Drivers/STM32F7xx_HAL_Driver/Src/stm32f7xx_hal_tim.c **** 
 159:../../Drivers/STM32F7xx_HAL_Driver/Src/stm32f7xx_hal_tim.c **** static void TIM_ITRx_SetConfig(TIM_TypeDef* TIMx, uint16_t TIM_ITRx);
 160:../../Drivers/STM32F7xx_HAL_Driver/Src/stm32f7xx_hal_tim.c **** static void TIM_DMAPeriodElapsedCplt(DMA_HandleTypeDef *hdma);
 161:../../Drivers/STM32F7xx_HAL_Driver/Src/stm32f7xx_hal_tim.c **** static void TIM_DMATriggerCplt(DMA_HandleTypeDef *hdma);
 162:../../Drivers/STM32F7xx_HAL_Driver/Src/stm32f7xx_hal_tim.c **** static void TIM_SlaveTimer_SetConfig(TIM_HandleTypeDef *htim,
 163:../../Drivers/STM32F7xx_HAL_Driver/Src/stm32f7xx_hal_tim.c ****                                      TIM_SlaveConfigTypeDef * sSlaveConfig);
 164:../../Drivers/STM32F7xx_HAL_Driver/Src/stm32f7xx_hal_tim.c **** /**
 165:../../Drivers/STM32F7xx_HAL_Driver/Src/stm32f7xx_hal_tim.c ****   * @}
 166:../../Drivers/STM32F7xx_HAL_Driver/Src/stm32f7xx_hal_tim.c ****   */
 167:../../Drivers/STM32F7xx_HAL_Driver/Src/stm32f7xx_hal_tim.c ****   
 168:../../Drivers/STM32F7xx_HAL_Driver/Src/stm32f7xx_hal_tim.c **** /* Exported functions --------------------------------------------------------*/
 169:../../Drivers/STM32F7xx_HAL_Driver/Src/stm32f7xx_hal_tim.c **** /** @defgroup TIM_Exported_Functions TIM Exported Functions
 170:../../Drivers/STM32F7xx_HAL_Driver/Src/stm32f7xx_hal_tim.c ****   * @{
 171:../../Drivers/STM32F7xx_HAL_Driver/Src/stm32f7xx_hal_tim.c ****   */
 172:../../Drivers/STM32F7xx_HAL_Driver/Src/stm32f7xx_hal_tim.c **** 
 173:../../Drivers/STM32F7xx_HAL_Driver/Src/stm32f7xx_hal_tim.c **** /** @defgroup TIM_Exported_Functions_Group1 Time Base functions 
 174:../../Drivers/STM32F7xx_HAL_Driver/Src/stm32f7xx_hal_tim.c ****  *  @brief    Time Base functions 
 175:../../Drivers/STM32F7xx_HAL_Driver/Src/stm32f7xx_hal_tim.c ****  *
 176:../../Drivers/STM32F7xx_HAL_Driver/Src/stm32f7xx_hal_tim.c **** @verbatim    
 177:../../Drivers/STM32F7xx_HAL_Driver/Src/stm32f7xx_hal_tim.c ****   ==============================================================================
 178:../../Drivers/STM32F7xx_HAL_Driver/Src/stm32f7xx_hal_tim.c ****               ##### Time Base functions #####
 179:../../Drivers/STM32F7xx_HAL_Driver/Src/stm32f7xx_hal_tim.c ****   ==============================================================================
 180:../../Drivers/STM32F7xx_HAL_Driver/Src/stm32f7xx_hal_tim.c ****   [..]  
 181:../../Drivers/STM32F7xx_HAL_Driver/Src/stm32f7xx_hal_tim.c ****     This section provides functions allowing to:
 182:../../Drivers/STM32F7xx_HAL_Driver/Src/stm32f7xx_hal_tim.c ****     (+) Initialize and configure the TIM base. 
 183:../../Drivers/STM32F7xx_HAL_Driver/Src/stm32f7xx_hal_tim.c ****     (+) De-initialize the TIM base.
 184:../../Drivers/STM32F7xx_HAL_Driver/Src/stm32f7xx_hal_tim.c ****     (+) Start the Time Base.
 185:../../Drivers/STM32F7xx_HAL_Driver/Src/stm32f7xx_hal_tim.c ****     (+) Stop the Time Base.
 186:../../Drivers/STM32F7xx_HAL_Driver/Src/stm32f7xx_hal_tim.c ****     (+) Start the Time Base and enable interrupt.
 187:../../Drivers/STM32F7xx_HAL_Driver/Src/stm32f7xx_hal_tim.c ****     (+) Stop the Time Base and disable interrupt.
 188:../../Drivers/STM32F7xx_HAL_Driver/Src/stm32f7xx_hal_tim.c ****     (+) Start the Time Base and enable DMA transfer.
 189:../../Drivers/STM32F7xx_HAL_Driver/Src/stm32f7xx_hal_tim.c ****     (+) Stop the Time Base and disable DMA transfer.
 190:../../Drivers/STM32F7xx_HAL_Driver/Src/stm32f7xx_hal_tim.c ****  
 191:../../Drivers/STM32F7xx_HAL_Driver/Src/stm32f7xx_hal_tim.c **** @endverbatim
 192:../../Drivers/STM32F7xx_HAL_Driver/Src/stm32f7xx_hal_tim.c ****   * @{
 193:../../Drivers/STM32F7xx_HAL_Driver/Src/stm32f7xx_hal_tim.c ****   */
 194:../../Drivers/STM32F7xx_HAL_Driver/Src/stm32f7xx_hal_tim.c **** /**
 195:../../Drivers/STM32F7xx_HAL_Driver/Src/stm32f7xx_hal_tim.c ****   * @brief  Initializes the TIM Time base Unit according to the specified
 196:../../Drivers/STM32F7xx_HAL_Driver/Src/stm32f7xx_hal_tim.c ****   *         parameters in the TIM_HandleTypeDef and create the associated handle.
 197:../../Drivers/STM32F7xx_HAL_Driver/Src/stm32f7xx_hal_tim.c ****   * @param  htim: pointer to a TIM_HandleTypeDef structure that contains
 198:../../Drivers/STM32F7xx_HAL_Driver/Src/stm32f7xx_hal_tim.c ****   *                the configuration information for TIM module.
 199:../../Drivers/STM32F7xx_HAL_Driver/Src/stm32f7xx_hal_tim.c ****   * @retval HAL status
 200:../../Drivers/STM32F7xx_HAL_Driver/Src/stm32f7xx_hal_tim.c ****   */
 201:../../Drivers/STM32F7xx_HAL_Driver/Src/stm32f7xx_hal_tim.c **** HAL_StatusTypeDef HAL_TIM_Base_Init(TIM_HandleTypeDef *htim)
ARM GAS  /tmp/cc04EBs1.s 			page 5


 202:../../Drivers/STM32F7xx_HAL_Driver/Src/stm32f7xx_hal_tim.c **** { 
  29              		.loc 1 202 0
  30              		.cfi_startproc
  31              		@ args = 0, pretend = 0, frame = 8
  32              		@ frame_needed = 1, uses_anonymous_args = 0
  33 0000 80B5     		push	{r7, lr}
  34              	.LCFI0:
  35              		.cfi_def_cfa_offset 8
  36              		.cfi_offset 7, -8
  37              		.cfi_offset 14, -4
  38 0002 82B0     		sub	sp, sp, #8
  39              	.LCFI1:
  40              		.cfi_def_cfa_offset 16
  41 0004 00AF     		add	r7, sp, #0
  42              	.LCFI2:
  43              		.cfi_def_cfa_register 7
  44 0006 7860     		str	r0, [r7, #4]
 203:../../Drivers/STM32F7xx_HAL_Driver/Src/stm32f7xx_hal_tim.c ****   /* Check the TIM handle allocation */
 204:../../Drivers/STM32F7xx_HAL_Driver/Src/stm32f7xx_hal_tim.c ****   if(htim == NULL)
  45              		.loc 1 204 0
  46 0008 7B68     		ldr	r3, [r7, #4]
  47 000a 002B     		cmp	r3, #0
  48 000c 01D1     		bne	.L2
 205:../../Drivers/STM32F7xx_HAL_Driver/Src/stm32f7xx_hal_tim.c ****   {
 206:../../Drivers/STM32F7xx_HAL_Driver/Src/stm32f7xx_hal_tim.c ****     return HAL_ERROR;
  49              		.loc 1 206 0
  50 000e 0123     		movs	r3, #1
  51 0010 1DE0     		b	.L3
  52              	.L2:
 207:../../Drivers/STM32F7xx_HAL_Driver/Src/stm32f7xx_hal_tim.c ****   }
 208:../../Drivers/STM32F7xx_HAL_Driver/Src/stm32f7xx_hal_tim.c ****   
 209:../../Drivers/STM32F7xx_HAL_Driver/Src/stm32f7xx_hal_tim.c ****   /* Check the parameters */
 210:../../Drivers/STM32F7xx_HAL_Driver/Src/stm32f7xx_hal_tim.c ****   assert_param(IS_TIM_INSTANCE(htim->Instance)); 
 211:../../Drivers/STM32F7xx_HAL_Driver/Src/stm32f7xx_hal_tim.c ****   assert_param(IS_TIM_COUNTER_MODE(htim->Init.CounterMode));
 212:../../Drivers/STM32F7xx_HAL_Driver/Src/stm32f7xx_hal_tim.c ****   assert_param(IS_TIM_CLOCKDIVISION_DIV(htim->Init.ClockDivision));
 213:../../Drivers/STM32F7xx_HAL_Driver/Src/stm32f7xx_hal_tim.c ****   assert_param(IS_TIM_AUTORELOAD_PRELOAD(htim->Init.AutoReloadPreload));
 214:../../Drivers/STM32F7xx_HAL_Driver/Src/stm32f7xx_hal_tim.c ****   
 215:../../Drivers/STM32F7xx_HAL_Driver/Src/stm32f7xx_hal_tim.c ****   if(htim->State == HAL_TIM_STATE_RESET)
  53              		.loc 1 215 0
  54 0012 7B68     		ldr	r3, [r7, #4]
  55 0014 93F83D30 		ldrb	r3, [r3, #61]
  56 0018 DBB2     		uxtb	r3, r3
  57 001a 002B     		cmp	r3, #0
  58 001c 06D1     		bne	.L4
 216:../../Drivers/STM32F7xx_HAL_Driver/Src/stm32f7xx_hal_tim.c ****   {  
 217:../../Drivers/STM32F7xx_HAL_Driver/Src/stm32f7xx_hal_tim.c ****     /* Allocate lock resource and initialize it */
 218:../../Drivers/STM32F7xx_HAL_Driver/Src/stm32f7xx_hal_tim.c ****     htim->Lock = HAL_UNLOCKED;
  59              		.loc 1 218 0
  60 001e 7B68     		ldr	r3, [r7, #4]
  61 0020 0022     		movs	r2, #0
  62 0022 83F83C20 		strb	r2, [r3, #60]
 219:../../Drivers/STM32F7xx_HAL_Driver/Src/stm32f7xx_hal_tim.c ****     /* Init the low level hardware : GPIO, CLOCK, NVIC */
 220:../../Drivers/STM32F7xx_HAL_Driver/Src/stm32f7xx_hal_tim.c ****     HAL_TIM_Base_MspInit(htim);
  63              		.loc 1 220 0
  64 0026 7868     		ldr	r0, [r7, #4]
  65 0028 FFF7FEFF 		bl	HAL_TIM_Base_MspInit
  66              	.L4:
ARM GAS  /tmp/cc04EBs1.s 			page 6


 221:../../Drivers/STM32F7xx_HAL_Driver/Src/stm32f7xx_hal_tim.c ****   }
 222:../../Drivers/STM32F7xx_HAL_Driver/Src/stm32f7xx_hal_tim.c ****   
 223:../../Drivers/STM32F7xx_HAL_Driver/Src/stm32f7xx_hal_tim.c ****   /* Set the TIM state */
 224:../../Drivers/STM32F7xx_HAL_Driver/Src/stm32f7xx_hal_tim.c ****   htim->State= HAL_TIM_STATE_BUSY;
  67              		.loc 1 224 0
  68 002c 7B68     		ldr	r3, [r7, #4]
  69 002e 0222     		movs	r2, #2
  70 0030 83F83D20 		strb	r2, [r3, #61]
 225:../../Drivers/STM32F7xx_HAL_Driver/Src/stm32f7xx_hal_tim.c ****   
 226:../../Drivers/STM32F7xx_HAL_Driver/Src/stm32f7xx_hal_tim.c ****   /* Set the Time Base configuration */
 227:../../Drivers/STM32F7xx_HAL_Driver/Src/stm32f7xx_hal_tim.c ****   TIM_Base_SetConfig(htim->Instance, &htim->Init); 
  71              		.loc 1 227 0
  72 0034 7B68     		ldr	r3, [r7, #4]
  73 0036 1A68     		ldr	r2, [r3]
  74 0038 7B68     		ldr	r3, [r7, #4]
  75 003a 0433     		adds	r3, r3, #4
  76 003c 1046     		mov	r0, r2
  77 003e 1946     		mov	r1, r3
  78 0040 FFF7FEFF 		bl	TIM_Base_SetConfig
 228:../../Drivers/STM32F7xx_HAL_Driver/Src/stm32f7xx_hal_tim.c ****   
 229:../../Drivers/STM32F7xx_HAL_Driver/Src/stm32f7xx_hal_tim.c ****   /* Initialize the TIM state*/
 230:../../Drivers/STM32F7xx_HAL_Driver/Src/stm32f7xx_hal_tim.c ****   htim->State= HAL_TIM_STATE_READY;
  79              		.loc 1 230 0
  80 0044 7B68     		ldr	r3, [r7, #4]
  81 0046 0122     		movs	r2, #1
  82 0048 83F83D20 		strb	r2, [r3, #61]
 231:../../Drivers/STM32F7xx_HAL_Driver/Src/stm32f7xx_hal_tim.c ****   
 232:../../Drivers/STM32F7xx_HAL_Driver/Src/stm32f7xx_hal_tim.c ****   return HAL_OK;
  83              		.loc 1 232 0
  84 004c 0023     		movs	r3, #0
  85              	.L3:
 233:../../Drivers/STM32F7xx_HAL_Driver/Src/stm32f7xx_hal_tim.c **** }
  86              		.loc 1 233 0
  87 004e 1846     		mov	r0, r3
  88 0050 0837     		adds	r7, r7, #8
  89              	.LCFI3:
  90              		.cfi_def_cfa_offset 8
  91 0052 BD46     		mov	sp, r7
  92              	.LCFI4:
  93              		.cfi_def_cfa_register 13
  94              		@ sp needed
  95 0054 80BD     		pop	{r7, pc}
  96              		.cfi_endproc
  97              	.LFE135:
  99 0056 00BF     		.section	.text.HAL_TIM_Base_DeInit,"ax",%progbits
 100              		.align	2
 101              		.global	HAL_TIM_Base_DeInit
 102              		.thumb
 103              		.thumb_func
 105              	HAL_TIM_Base_DeInit:
 106              	.LFB136:
 234:../../Drivers/STM32F7xx_HAL_Driver/Src/stm32f7xx_hal_tim.c **** 
 235:../../Drivers/STM32F7xx_HAL_Driver/Src/stm32f7xx_hal_tim.c **** /**
 236:../../Drivers/STM32F7xx_HAL_Driver/Src/stm32f7xx_hal_tim.c ****   * @brief  DeInitializes the TIM Base peripheral 
 237:../../Drivers/STM32F7xx_HAL_Driver/Src/stm32f7xx_hal_tim.c ****   * @param  htim: pointer to a TIM_HandleTypeDef structure that contains
 238:../../Drivers/STM32F7xx_HAL_Driver/Src/stm32f7xx_hal_tim.c ****   *                the configuration information for TIM module.
 239:../../Drivers/STM32F7xx_HAL_Driver/Src/stm32f7xx_hal_tim.c ****   * @retval HAL status
ARM GAS  /tmp/cc04EBs1.s 			page 7


 240:../../Drivers/STM32F7xx_HAL_Driver/Src/stm32f7xx_hal_tim.c ****   */
 241:../../Drivers/STM32F7xx_HAL_Driver/Src/stm32f7xx_hal_tim.c **** HAL_StatusTypeDef HAL_TIM_Base_DeInit(TIM_HandleTypeDef *htim)
 242:../../Drivers/STM32F7xx_HAL_Driver/Src/stm32f7xx_hal_tim.c **** {  
 107              		.loc 1 242 0
 108              		.cfi_startproc
 109              		@ args = 0, pretend = 0, frame = 8
 110              		@ frame_needed = 1, uses_anonymous_args = 0
 111 0000 80B5     		push	{r7, lr}
 112              	.LCFI5:
 113              		.cfi_def_cfa_offset 8
 114              		.cfi_offset 7, -8
 115              		.cfi_offset 14, -4
 116 0002 82B0     		sub	sp, sp, #8
 117              	.LCFI6:
 118              		.cfi_def_cfa_offset 16
 119 0004 00AF     		add	r7, sp, #0
 120              	.LCFI7:
 121              		.cfi_def_cfa_register 7
 122 0006 7860     		str	r0, [r7, #4]
 243:../../Drivers/STM32F7xx_HAL_Driver/Src/stm32f7xx_hal_tim.c ****   /* Check the parameters */
 244:../../Drivers/STM32F7xx_HAL_Driver/Src/stm32f7xx_hal_tim.c ****   assert_param(IS_TIM_INSTANCE(htim->Instance));
 245:../../Drivers/STM32F7xx_HAL_Driver/Src/stm32f7xx_hal_tim.c **** 
 246:../../Drivers/STM32F7xx_HAL_Driver/Src/stm32f7xx_hal_tim.c ****   htim->State = HAL_TIM_STATE_BUSY;
 123              		.loc 1 246 0
 124 0008 7B68     		ldr	r3, [r7, #4]
 125 000a 0222     		movs	r2, #2
 126 000c 83F83D20 		strb	r2, [r3, #61]
 247:../../Drivers/STM32F7xx_HAL_Driver/Src/stm32f7xx_hal_tim.c ****    
 248:../../Drivers/STM32F7xx_HAL_Driver/Src/stm32f7xx_hal_tim.c ****   /* Disable the TIM Peripheral Clock */
 249:../../Drivers/STM32F7xx_HAL_Driver/Src/stm32f7xx_hal_tim.c ****   __HAL_TIM_DISABLE(htim);
 127              		.loc 1 249 0
 128 0010 7B68     		ldr	r3, [r7, #4]
 129 0012 1B68     		ldr	r3, [r3]
 130 0014 1A6A     		ldr	r2, [r3, #32]
 131 0016 41F21113 		movw	r3, #4369
 132 001a 1340     		ands	r3, r3, r2
 133 001c 002B     		cmp	r3, #0
 134 001e 0FD1     		bne	.L6
 135              		.loc 1 249 0 is_stmt 0 discriminator 1
 136 0020 7B68     		ldr	r3, [r7, #4]
 137 0022 1B68     		ldr	r3, [r3]
 138 0024 1A6A     		ldr	r2, [r3, #32]
 139 0026 40F24443 		movw	r3, #1092
 140 002a 1340     		ands	r3, r3, r2
 141 002c 002B     		cmp	r3, #0
 142 002e 07D1     		bne	.L6
 143              		.loc 1 249 0 discriminator 2
 144 0030 7B68     		ldr	r3, [r7, #4]
 145 0032 1B68     		ldr	r3, [r3]
 146 0034 7A68     		ldr	r2, [r7, #4]
 147 0036 1268     		ldr	r2, [r2]
 148 0038 1268     		ldr	r2, [r2]
 149 003a 22F00102 		bic	r2, r2, #1
 150 003e 1A60     		str	r2, [r3]
 151              	.L6:
 250:../../Drivers/STM32F7xx_HAL_Driver/Src/stm32f7xx_hal_tim.c ****     
 251:../../Drivers/STM32F7xx_HAL_Driver/Src/stm32f7xx_hal_tim.c ****   /* DeInit the low level hardware: GPIO, CLOCK, NVIC */
ARM GAS  /tmp/cc04EBs1.s 			page 8


 252:../../Drivers/STM32F7xx_HAL_Driver/Src/stm32f7xx_hal_tim.c ****   HAL_TIM_Base_MspDeInit(htim);
 152              		.loc 1 252 0 is_stmt 1
 153 0040 7868     		ldr	r0, [r7, #4]
 154 0042 FFF7FEFF 		bl	HAL_TIM_Base_MspDeInit
 253:../../Drivers/STM32F7xx_HAL_Driver/Src/stm32f7xx_hal_tim.c ****   
 254:../../Drivers/STM32F7xx_HAL_Driver/Src/stm32f7xx_hal_tim.c ****   /* Change TIM state */  
 255:../../Drivers/STM32F7xx_HAL_Driver/Src/stm32f7xx_hal_tim.c ****   htim->State = HAL_TIM_STATE_RESET; 
 155              		.loc 1 255 0
 156 0046 7B68     		ldr	r3, [r7, #4]
 157 0048 0022     		movs	r2, #0
 158 004a 83F83D20 		strb	r2, [r3, #61]
 256:../../Drivers/STM32F7xx_HAL_Driver/Src/stm32f7xx_hal_tim.c ****   
 257:../../Drivers/STM32F7xx_HAL_Driver/Src/stm32f7xx_hal_tim.c ****   /* Release Lock */
 258:../../Drivers/STM32F7xx_HAL_Driver/Src/stm32f7xx_hal_tim.c ****   __HAL_UNLOCK(htim);
 159              		.loc 1 258 0
 160 004e 7B68     		ldr	r3, [r7, #4]
 161 0050 0022     		movs	r2, #0
 162 0052 83F83C20 		strb	r2, [r3, #60]
 259:../../Drivers/STM32F7xx_HAL_Driver/Src/stm32f7xx_hal_tim.c **** 
 260:../../Drivers/STM32F7xx_HAL_Driver/Src/stm32f7xx_hal_tim.c ****   return HAL_OK;
 163              		.loc 1 260 0
 164 0056 0023     		movs	r3, #0
 261:../../Drivers/STM32F7xx_HAL_Driver/Src/stm32f7xx_hal_tim.c **** }
 165              		.loc 1 261 0
 166 0058 1846     		mov	r0, r3
 167 005a 0837     		adds	r7, r7, #8
 168              	.LCFI8:
 169              		.cfi_def_cfa_offset 8
 170 005c BD46     		mov	sp, r7
 171              	.LCFI9:
 172              		.cfi_def_cfa_register 13
 173              		@ sp needed
 174 005e 80BD     		pop	{r7, pc}
 175              		.cfi_endproc
 176              	.LFE136:
 178              		.section	.text.HAL_TIM_Base_MspInit,"ax",%progbits
 179              		.align	2
 180              		.weak	HAL_TIM_Base_MspInit
 181              		.thumb
 182              		.thumb_func
 184              	HAL_TIM_Base_MspInit:
 185              	.LFB137:
 262:../../Drivers/STM32F7xx_HAL_Driver/Src/stm32f7xx_hal_tim.c **** 
 263:../../Drivers/STM32F7xx_HAL_Driver/Src/stm32f7xx_hal_tim.c **** /**
 264:../../Drivers/STM32F7xx_HAL_Driver/Src/stm32f7xx_hal_tim.c ****   * @brief  Initializes the TIM Base MSP.
 265:../../Drivers/STM32F7xx_HAL_Driver/Src/stm32f7xx_hal_tim.c ****   * @param  htim: pointer to a TIM_HandleTypeDef structure that contains
 266:../../Drivers/STM32F7xx_HAL_Driver/Src/stm32f7xx_hal_tim.c ****   *                the configuration information for TIM module.
 267:../../Drivers/STM32F7xx_HAL_Driver/Src/stm32f7xx_hal_tim.c ****   * @retval None
 268:../../Drivers/STM32F7xx_HAL_Driver/Src/stm32f7xx_hal_tim.c ****   */
 269:../../Drivers/STM32F7xx_HAL_Driver/Src/stm32f7xx_hal_tim.c **** __weak void HAL_TIM_Base_MspInit(TIM_HandleTypeDef *htim)
 270:../../Drivers/STM32F7xx_HAL_Driver/Src/stm32f7xx_hal_tim.c **** {
 186              		.loc 1 270 0
 187              		.cfi_startproc
 188              		@ args = 0, pretend = 0, frame = 8
 189              		@ frame_needed = 1, uses_anonymous_args = 0
 190              		@ link register save eliminated.
 191 0000 80B4     		push	{r7}
ARM GAS  /tmp/cc04EBs1.s 			page 9


 192              	.LCFI10:
 193              		.cfi_def_cfa_offset 4
 194              		.cfi_offset 7, -4
 195 0002 83B0     		sub	sp, sp, #12
 196              	.LCFI11:
 197              		.cfi_def_cfa_offset 16
 198 0004 00AF     		add	r7, sp, #0
 199              	.LCFI12:
 200              		.cfi_def_cfa_register 7
 201 0006 7860     		str	r0, [r7, #4]
 271:../../Drivers/STM32F7xx_HAL_Driver/Src/stm32f7xx_hal_tim.c ****   /* Prevent unused argument(s) compilation warning */
 272:../../Drivers/STM32F7xx_HAL_Driver/Src/stm32f7xx_hal_tim.c ****   UNUSED(htim);
 273:../../Drivers/STM32F7xx_HAL_Driver/Src/stm32f7xx_hal_tim.c ****  
 274:../../Drivers/STM32F7xx_HAL_Driver/Src/stm32f7xx_hal_tim.c ****   /* NOTE : This function Should not be modified, when the callback is needed,
 275:../../Drivers/STM32F7xx_HAL_Driver/Src/stm32f7xx_hal_tim.c ****             the HAL_TIM_Base_MspInit could be implemented in the user file
 276:../../Drivers/STM32F7xx_HAL_Driver/Src/stm32f7xx_hal_tim.c ****    */
 277:../../Drivers/STM32F7xx_HAL_Driver/Src/stm32f7xx_hal_tim.c **** }
 202              		.loc 1 277 0
 203 0008 0C37     		adds	r7, r7, #12
 204              	.LCFI13:
 205              		.cfi_def_cfa_offset 4
 206 000a BD46     		mov	sp, r7
 207              	.LCFI14:
 208              		.cfi_def_cfa_register 13
 209              		@ sp needed
 210 000c 5DF8047B 		ldr	r7, [sp], #4
 211              	.LCFI15:
 212              		.cfi_restore 7
 213              		.cfi_def_cfa_offset 0
 214 0010 7047     		bx	lr
 215              		.cfi_endproc
 216              	.LFE137:
 218 0012 00BF     		.section	.text.HAL_TIM_Base_MspDeInit,"ax",%progbits
 219              		.align	2
 220              		.weak	HAL_TIM_Base_MspDeInit
 221              		.thumb
 222              		.thumb_func
 224              	HAL_TIM_Base_MspDeInit:
 225              	.LFB138:
 278:../../Drivers/STM32F7xx_HAL_Driver/Src/stm32f7xx_hal_tim.c **** 
 279:../../Drivers/STM32F7xx_HAL_Driver/Src/stm32f7xx_hal_tim.c **** /**
 280:../../Drivers/STM32F7xx_HAL_Driver/Src/stm32f7xx_hal_tim.c ****   * @brief  DeInitializes TIM Base MSP.
 281:../../Drivers/STM32F7xx_HAL_Driver/Src/stm32f7xx_hal_tim.c ****   * @param  htim: pointer to a TIM_HandleTypeDef structure that contains
 282:../../Drivers/STM32F7xx_HAL_Driver/Src/stm32f7xx_hal_tim.c ****   *                the configuration information for TIM module.
 283:../../Drivers/STM32F7xx_HAL_Driver/Src/stm32f7xx_hal_tim.c ****   * @retval None
 284:../../Drivers/STM32F7xx_HAL_Driver/Src/stm32f7xx_hal_tim.c ****   */
 285:../../Drivers/STM32F7xx_HAL_Driver/Src/stm32f7xx_hal_tim.c **** __weak void HAL_TIM_Base_MspDeInit(TIM_HandleTypeDef *htim)
 286:../../Drivers/STM32F7xx_HAL_Driver/Src/stm32f7xx_hal_tim.c **** {
 226              		.loc 1 286 0
 227              		.cfi_startproc
 228              		@ args = 0, pretend = 0, frame = 8
 229              		@ frame_needed = 1, uses_anonymous_args = 0
 230              		@ link register save eliminated.
 231 0000 80B4     		push	{r7}
 232              	.LCFI16:
 233              		.cfi_def_cfa_offset 4
 234              		.cfi_offset 7, -4
ARM GAS  /tmp/cc04EBs1.s 			page 10


 235 0002 83B0     		sub	sp, sp, #12
 236              	.LCFI17:
 237              		.cfi_def_cfa_offset 16
 238 0004 00AF     		add	r7, sp, #0
 239              	.LCFI18:
 240              		.cfi_def_cfa_register 7
 241 0006 7860     		str	r0, [r7, #4]
 287:../../Drivers/STM32F7xx_HAL_Driver/Src/stm32f7xx_hal_tim.c ****   /* Prevent unused argument(s) compilation warning */
 288:../../Drivers/STM32F7xx_HAL_Driver/Src/stm32f7xx_hal_tim.c ****   UNUSED(htim);
 289:../../Drivers/STM32F7xx_HAL_Driver/Src/stm32f7xx_hal_tim.c ****  
 290:../../Drivers/STM32F7xx_HAL_Driver/Src/stm32f7xx_hal_tim.c ****   /* NOTE : This function Should not be modified, when the callback is needed,
 291:../../Drivers/STM32F7xx_HAL_Driver/Src/stm32f7xx_hal_tim.c ****             the HAL_TIM_Base_MspDeInit could be implemented in the user file
 292:../../Drivers/STM32F7xx_HAL_Driver/Src/stm32f7xx_hal_tim.c ****    */
 293:../../Drivers/STM32F7xx_HAL_Driver/Src/stm32f7xx_hal_tim.c **** }
 242              		.loc 1 293 0
 243 0008 0C37     		adds	r7, r7, #12
 244              	.LCFI19:
 245              		.cfi_def_cfa_offset 4
 246 000a BD46     		mov	sp, r7
 247              	.LCFI20:
 248              		.cfi_def_cfa_register 13
 249              		@ sp needed
 250 000c 5DF8047B 		ldr	r7, [sp], #4
 251              	.LCFI21:
 252              		.cfi_restore 7
 253              		.cfi_def_cfa_offset 0
 254 0010 7047     		bx	lr
 255              		.cfi_endproc
 256              	.LFE138:
 258 0012 00BF     		.section	.text.HAL_TIM_Base_Start,"ax",%progbits
 259              		.align	2
 260              		.global	HAL_TIM_Base_Start
 261              		.thumb
 262              		.thumb_func
 264              	HAL_TIM_Base_Start:
 265              	.LFB139:
 294:../../Drivers/STM32F7xx_HAL_Driver/Src/stm32f7xx_hal_tim.c **** 
 295:../../Drivers/STM32F7xx_HAL_Driver/Src/stm32f7xx_hal_tim.c **** /**
 296:../../Drivers/STM32F7xx_HAL_Driver/Src/stm32f7xx_hal_tim.c ****   * @brief  Starts the TIM Base generation.
 297:../../Drivers/STM32F7xx_HAL_Driver/Src/stm32f7xx_hal_tim.c ****   * @param  htim: pointer to a TIM_HandleTypeDef structure that contains
 298:../../Drivers/STM32F7xx_HAL_Driver/Src/stm32f7xx_hal_tim.c ****   *                the configuration information for TIM module.
 299:../../Drivers/STM32F7xx_HAL_Driver/Src/stm32f7xx_hal_tim.c ****   * @retval HAL status
 300:../../Drivers/STM32F7xx_HAL_Driver/Src/stm32f7xx_hal_tim.c ****   */
 301:../../Drivers/STM32F7xx_HAL_Driver/Src/stm32f7xx_hal_tim.c **** HAL_StatusTypeDef HAL_TIM_Base_Start(TIM_HandleTypeDef *htim)
 302:../../Drivers/STM32F7xx_HAL_Driver/Src/stm32f7xx_hal_tim.c **** {
 266              		.loc 1 302 0
 267              		.cfi_startproc
 268              		@ args = 0, pretend = 0, frame = 8
 269              		@ frame_needed = 1, uses_anonymous_args = 0
 270              		@ link register save eliminated.
 271 0000 80B4     		push	{r7}
 272              	.LCFI22:
 273              		.cfi_def_cfa_offset 4
 274              		.cfi_offset 7, -4
 275 0002 83B0     		sub	sp, sp, #12
 276              	.LCFI23:
 277              		.cfi_def_cfa_offset 16
ARM GAS  /tmp/cc04EBs1.s 			page 11


 278 0004 00AF     		add	r7, sp, #0
 279              	.LCFI24:
 280              		.cfi_def_cfa_register 7
 281 0006 7860     		str	r0, [r7, #4]
 303:../../Drivers/STM32F7xx_HAL_Driver/Src/stm32f7xx_hal_tim.c ****   /* Check the parameters */
 304:../../Drivers/STM32F7xx_HAL_Driver/Src/stm32f7xx_hal_tim.c ****   assert_param(IS_TIM_INSTANCE(htim->Instance));
 305:../../Drivers/STM32F7xx_HAL_Driver/Src/stm32f7xx_hal_tim.c ****   
 306:../../Drivers/STM32F7xx_HAL_Driver/Src/stm32f7xx_hal_tim.c ****   /* Set the TIM state */
 307:../../Drivers/STM32F7xx_HAL_Driver/Src/stm32f7xx_hal_tim.c ****   htim->State= HAL_TIM_STATE_BUSY;
 282              		.loc 1 307 0
 283 0008 7B68     		ldr	r3, [r7, #4]
 284 000a 0222     		movs	r2, #2
 285 000c 83F83D20 		strb	r2, [r3, #61]
 308:../../Drivers/STM32F7xx_HAL_Driver/Src/stm32f7xx_hal_tim.c ****   
 309:../../Drivers/STM32F7xx_HAL_Driver/Src/stm32f7xx_hal_tim.c ****   /* Enable the Peripheral */
 310:../../Drivers/STM32F7xx_HAL_Driver/Src/stm32f7xx_hal_tim.c ****   __HAL_TIM_ENABLE(htim);
 286              		.loc 1 310 0
 287 0010 7B68     		ldr	r3, [r7, #4]
 288 0012 1B68     		ldr	r3, [r3]
 289 0014 7A68     		ldr	r2, [r7, #4]
 290 0016 1268     		ldr	r2, [r2]
 291 0018 1268     		ldr	r2, [r2]
 292 001a 42F00102 		orr	r2, r2, #1
 293 001e 1A60     		str	r2, [r3]
 311:../../Drivers/STM32F7xx_HAL_Driver/Src/stm32f7xx_hal_tim.c ****   
 312:../../Drivers/STM32F7xx_HAL_Driver/Src/stm32f7xx_hal_tim.c ****   /* Change the TIM state*/
 313:../../Drivers/STM32F7xx_HAL_Driver/Src/stm32f7xx_hal_tim.c ****   htim->State= HAL_TIM_STATE_READY;
 294              		.loc 1 313 0
 295 0020 7B68     		ldr	r3, [r7, #4]
 296 0022 0122     		movs	r2, #1
 297 0024 83F83D20 		strb	r2, [r3, #61]
 314:../../Drivers/STM32F7xx_HAL_Driver/Src/stm32f7xx_hal_tim.c ****   
 315:../../Drivers/STM32F7xx_HAL_Driver/Src/stm32f7xx_hal_tim.c ****   /* Return function status */
 316:../../Drivers/STM32F7xx_HAL_Driver/Src/stm32f7xx_hal_tim.c ****   return HAL_OK;
 298              		.loc 1 316 0
 299 0028 0023     		movs	r3, #0
 317:../../Drivers/STM32F7xx_HAL_Driver/Src/stm32f7xx_hal_tim.c **** }
 300              		.loc 1 317 0
 301 002a 1846     		mov	r0, r3
 302 002c 0C37     		adds	r7, r7, #12
 303              	.LCFI25:
 304              		.cfi_def_cfa_offset 4
 305 002e BD46     		mov	sp, r7
 306              	.LCFI26:
 307              		.cfi_def_cfa_register 13
 308              		@ sp needed
 309 0030 5DF8047B 		ldr	r7, [sp], #4
 310              	.LCFI27:
 311              		.cfi_restore 7
 312              		.cfi_def_cfa_offset 0
 313 0034 7047     		bx	lr
 314              		.cfi_endproc
 315              	.LFE139:
 317 0036 00BF     		.section	.text.HAL_TIM_Base_Stop,"ax",%progbits
 318              		.align	2
 319              		.global	HAL_TIM_Base_Stop
 320              		.thumb
ARM GAS  /tmp/cc04EBs1.s 			page 12


 321              		.thumb_func
 323              	HAL_TIM_Base_Stop:
 324              	.LFB140:
 318:../../Drivers/STM32F7xx_HAL_Driver/Src/stm32f7xx_hal_tim.c **** 
 319:../../Drivers/STM32F7xx_HAL_Driver/Src/stm32f7xx_hal_tim.c **** /**
 320:../../Drivers/STM32F7xx_HAL_Driver/Src/stm32f7xx_hal_tim.c ****   * @brief  Stops the TIM Base generation.
 321:../../Drivers/STM32F7xx_HAL_Driver/Src/stm32f7xx_hal_tim.c ****   * @param  htim: pointer to a TIM_HandleTypeDef structure that contains
 322:../../Drivers/STM32F7xx_HAL_Driver/Src/stm32f7xx_hal_tim.c ****   *                the configuration information for TIM module.
 323:../../Drivers/STM32F7xx_HAL_Driver/Src/stm32f7xx_hal_tim.c ****   * @retval HAL status
 324:../../Drivers/STM32F7xx_HAL_Driver/Src/stm32f7xx_hal_tim.c ****   */
 325:../../Drivers/STM32F7xx_HAL_Driver/Src/stm32f7xx_hal_tim.c **** HAL_StatusTypeDef HAL_TIM_Base_Stop(TIM_HandleTypeDef *htim)
 326:../../Drivers/STM32F7xx_HAL_Driver/Src/stm32f7xx_hal_tim.c **** {
 325              		.loc 1 326 0
 326              		.cfi_startproc
 327              		@ args = 0, pretend = 0, frame = 8
 328              		@ frame_needed = 1, uses_anonymous_args = 0
 329              		@ link register save eliminated.
 330 0000 80B4     		push	{r7}
 331              	.LCFI28:
 332              		.cfi_def_cfa_offset 4
 333              		.cfi_offset 7, -4
 334 0002 83B0     		sub	sp, sp, #12
 335              	.LCFI29:
 336              		.cfi_def_cfa_offset 16
 337 0004 00AF     		add	r7, sp, #0
 338              	.LCFI30:
 339              		.cfi_def_cfa_register 7
 340 0006 7860     		str	r0, [r7, #4]
 327:../../Drivers/STM32F7xx_HAL_Driver/Src/stm32f7xx_hal_tim.c ****   /* Check the parameters */
 328:../../Drivers/STM32F7xx_HAL_Driver/Src/stm32f7xx_hal_tim.c ****   assert_param(IS_TIM_INSTANCE(htim->Instance));
 329:../../Drivers/STM32F7xx_HAL_Driver/Src/stm32f7xx_hal_tim.c ****   
 330:../../Drivers/STM32F7xx_HAL_Driver/Src/stm32f7xx_hal_tim.c ****   /* Set the TIM state */
 331:../../Drivers/STM32F7xx_HAL_Driver/Src/stm32f7xx_hal_tim.c ****   htim->State= HAL_TIM_STATE_BUSY;
 341              		.loc 1 331 0
 342 0008 7B68     		ldr	r3, [r7, #4]
 343 000a 0222     		movs	r2, #2
 344 000c 83F83D20 		strb	r2, [r3, #61]
 332:../../Drivers/STM32F7xx_HAL_Driver/Src/stm32f7xx_hal_tim.c ****   
 333:../../Drivers/STM32F7xx_HAL_Driver/Src/stm32f7xx_hal_tim.c ****   /* Disable the Peripheral */
 334:../../Drivers/STM32F7xx_HAL_Driver/Src/stm32f7xx_hal_tim.c ****   __HAL_TIM_DISABLE(htim);
 345              		.loc 1 334 0
 346 0010 7B68     		ldr	r3, [r7, #4]
 347 0012 1B68     		ldr	r3, [r3]
 348 0014 1A6A     		ldr	r2, [r3, #32]
 349 0016 41F21113 		movw	r3, #4369
 350 001a 1340     		ands	r3, r3, r2
 351 001c 002B     		cmp	r3, #0
 352 001e 0FD1     		bne	.L13
 353              		.loc 1 334 0 is_stmt 0 discriminator 1
 354 0020 7B68     		ldr	r3, [r7, #4]
 355 0022 1B68     		ldr	r3, [r3]
 356 0024 1A6A     		ldr	r2, [r3, #32]
 357 0026 40F24443 		movw	r3, #1092
 358 002a 1340     		ands	r3, r3, r2
 359 002c 002B     		cmp	r3, #0
 360 002e 07D1     		bne	.L13
 361              		.loc 1 334 0 discriminator 2
ARM GAS  /tmp/cc04EBs1.s 			page 13


 362 0030 7B68     		ldr	r3, [r7, #4]
 363 0032 1B68     		ldr	r3, [r3]
 364 0034 7A68     		ldr	r2, [r7, #4]
 365 0036 1268     		ldr	r2, [r2]
 366 0038 1268     		ldr	r2, [r2]
 367 003a 22F00102 		bic	r2, r2, #1
 368 003e 1A60     		str	r2, [r3]
 369              	.L13:
 335:../../Drivers/STM32F7xx_HAL_Driver/Src/stm32f7xx_hal_tim.c ****   
 336:../../Drivers/STM32F7xx_HAL_Driver/Src/stm32f7xx_hal_tim.c ****   /* Change the TIM state*/
 337:../../Drivers/STM32F7xx_HAL_Driver/Src/stm32f7xx_hal_tim.c ****   htim->State= HAL_TIM_STATE_READY;
 370              		.loc 1 337 0 is_stmt 1
 371 0040 7B68     		ldr	r3, [r7, #4]
 372 0042 0122     		movs	r2, #1
 373 0044 83F83D20 		strb	r2, [r3, #61]
 338:../../Drivers/STM32F7xx_HAL_Driver/Src/stm32f7xx_hal_tim.c ****   
 339:../../Drivers/STM32F7xx_HAL_Driver/Src/stm32f7xx_hal_tim.c ****   /* Return function status */
 340:../../Drivers/STM32F7xx_HAL_Driver/Src/stm32f7xx_hal_tim.c ****   return HAL_OK;
 374              		.loc 1 340 0
 375 0048 0023     		movs	r3, #0
 341:../../Drivers/STM32F7xx_HAL_Driver/Src/stm32f7xx_hal_tim.c **** }
 376              		.loc 1 341 0
 377 004a 1846     		mov	r0, r3
 378 004c 0C37     		adds	r7, r7, #12
 379              	.LCFI31:
 380              		.cfi_def_cfa_offset 4
 381 004e BD46     		mov	sp, r7
 382              	.LCFI32:
 383              		.cfi_def_cfa_register 13
 384              		@ sp needed
 385 0050 5DF8047B 		ldr	r7, [sp], #4
 386              	.LCFI33:
 387              		.cfi_restore 7
 388              		.cfi_def_cfa_offset 0
 389 0054 7047     		bx	lr
 390              		.cfi_endproc
 391              	.LFE140:
 393 0056 00BF     		.section	.text.HAL_TIM_Base_Start_IT,"ax",%progbits
 394              		.align	2
 395              		.global	HAL_TIM_Base_Start_IT
 396              		.thumb
 397              		.thumb_func
 399              	HAL_TIM_Base_Start_IT:
 400              	.LFB141:
 342:../../Drivers/STM32F7xx_HAL_Driver/Src/stm32f7xx_hal_tim.c **** 
 343:../../Drivers/STM32F7xx_HAL_Driver/Src/stm32f7xx_hal_tim.c **** /**
 344:../../Drivers/STM32F7xx_HAL_Driver/Src/stm32f7xx_hal_tim.c ****   * @brief  Starts the TIM Base generation in interrupt mode.
 345:../../Drivers/STM32F7xx_HAL_Driver/Src/stm32f7xx_hal_tim.c ****   * @param  htim: pointer to a TIM_HandleTypeDef structure that contains
 346:../../Drivers/STM32F7xx_HAL_Driver/Src/stm32f7xx_hal_tim.c ****   *                the configuration information for TIM module.
 347:../../Drivers/STM32F7xx_HAL_Driver/Src/stm32f7xx_hal_tim.c ****   * @retval HAL status
 348:../../Drivers/STM32F7xx_HAL_Driver/Src/stm32f7xx_hal_tim.c ****   */
 349:../../Drivers/STM32F7xx_HAL_Driver/Src/stm32f7xx_hal_tim.c **** HAL_StatusTypeDef HAL_TIM_Base_Start_IT(TIM_HandleTypeDef *htim)
 350:../../Drivers/STM32F7xx_HAL_Driver/Src/stm32f7xx_hal_tim.c **** {
 401              		.loc 1 350 0
 402              		.cfi_startproc
 403              		@ args = 0, pretend = 0, frame = 8
 404              		@ frame_needed = 1, uses_anonymous_args = 0
ARM GAS  /tmp/cc04EBs1.s 			page 14


 405              		@ link register save eliminated.
 406 0000 80B4     		push	{r7}
 407              	.LCFI34:
 408              		.cfi_def_cfa_offset 4
 409              		.cfi_offset 7, -4
 410 0002 83B0     		sub	sp, sp, #12
 411              	.LCFI35:
 412              		.cfi_def_cfa_offset 16
 413 0004 00AF     		add	r7, sp, #0
 414              	.LCFI36:
 415              		.cfi_def_cfa_register 7
 416 0006 7860     		str	r0, [r7, #4]
 351:../../Drivers/STM32F7xx_HAL_Driver/Src/stm32f7xx_hal_tim.c ****   /* Check the parameters */
 352:../../Drivers/STM32F7xx_HAL_Driver/Src/stm32f7xx_hal_tim.c ****   assert_param(IS_TIM_INSTANCE(htim->Instance));
 353:../../Drivers/STM32F7xx_HAL_Driver/Src/stm32f7xx_hal_tim.c ****   
 354:../../Drivers/STM32F7xx_HAL_Driver/Src/stm32f7xx_hal_tim.c ****   /* Enable the TIM Update interrupt */
 355:../../Drivers/STM32F7xx_HAL_Driver/Src/stm32f7xx_hal_tim.c ****   __HAL_TIM_ENABLE_IT(htim, TIM_IT_UPDATE);
 417              		.loc 1 355 0
 418 0008 7B68     		ldr	r3, [r7, #4]
 419 000a 1B68     		ldr	r3, [r3]
 420 000c 7A68     		ldr	r2, [r7, #4]
 421 000e 1268     		ldr	r2, [r2]
 422 0010 D268     		ldr	r2, [r2, #12]
 423 0012 42F00102 		orr	r2, r2, #1
 424 0016 DA60     		str	r2, [r3, #12]
 356:../../Drivers/STM32F7xx_HAL_Driver/Src/stm32f7xx_hal_tim.c ****       
 357:../../Drivers/STM32F7xx_HAL_Driver/Src/stm32f7xx_hal_tim.c ****   /* Enable the Peripheral */
 358:../../Drivers/STM32F7xx_HAL_Driver/Src/stm32f7xx_hal_tim.c ****   __HAL_TIM_ENABLE(htim);
 425              		.loc 1 358 0
 426 0018 7B68     		ldr	r3, [r7, #4]
 427 001a 1B68     		ldr	r3, [r3]
 428 001c 7A68     		ldr	r2, [r7, #4]
 429 001e 1268     		ldr	r2, [r2]
 430 0020 1268     		ldr	r2, [r2]
 431 0022 42F00102 		orr	r2, r2, #1
 432 0026 1A60     		str	r2, [r3]
 359:../../Drivers/STM32F7xx_HAL_Driver/Src/stm32f7xx_hal_tim.c ****       
 360:../../Drivers/STM32F7xx_HAL_Driver/Src/stm32f7xx_hal_tim.c ****   /* Return function status */
 361:../../Drivers/STM32F7xx_HAL_Driver/Src/stm32f7xx_hal_tim.c ****   return HAL_OK;
 433              		.loc 1 361 0
 434 0028 0023     		movs	r3, #0
 362:../../Drivers/STM32F7xx_HAL_Driver/Src/stm32f7xx_hal_tim.c **** }
 435              		.loc 1 362 0
 436 002a 1846     		mov	r0, r3
 437 002c 0C37     		adds	r7, r7, #12
 438              	.LCFI37:
 439              		.cfi_def_cfa_offset 4
 440 002e BD46     		mov	sp, r7
 441              	.LCFI38:
 442              		.cfi_def_cfa_register 13
 443              		@ sp needed
 444 0030 5DF8047B 		ldr	r7, [sp], #4
 445              	.LCFI39:
 446              		.cfi_restore 7
 447              		.cfi_def_cfa_offset 0
 448 0034 7047     		bx	lr
 449              		.cfi_endproc
ARM GAS  /tmp/cc04EBs1.s 			page 15


 450              	.LFE141:
 452 0036 00BF     		.section	.text.HAL_TIM_Base_Stop_IT,"ax",%progbits
 453              		.align	2
 454              		.global	HAL_TIM_Base_Stop_IT
 455              		.thumb
 456              		.thumb_func
 458              	HAL_TIM_Base_Stop_IT:
 459              	.LFB142:
 363:../../Drivers/STM32F7xx_HAL_Driver/Src/stm32f7xx_hal_tim.c **** 
 364:../../Drivers/STM32F7xx_HAL_Driver/Src/stm32f7xx_hal_tim.c **** /**
 365:../../Drivers/STM32F7xx_HAL_Driver/Src/stm32f7xx_hal_tim.c ****   * @brief  Stops the TIM Base generation in interrupt mode.
 366:../../Drivers/STM32F7xx_HAL_Driver/Src/stm32f7xx_hal_tim.c ****   * @param  htim: pointer to a TIM_HandleTypeDef structure that contains
 367:../../Drivers/STM32F7xx_HAL_Driver/Src/stm32f7xx_hal_tim.c ****   *                the configuration information for TIM module.
 368:../../Drivers/STM32F7xx_HAL_Driver/Src/stm32f7xx_hal_tim.c ****   * @retval HAL status
 369:../../Drivers/STM32F7xx_HAL_Driver/Src/stm32f7xx_hal_tim.c ****   */
 370:../../Drivers/STM32F7xx_HAL_Driver/Src/stm32f7xx_hal_tim.c **** HAL_StatusTypeDef HAL_TIM_Base_Stop_IT(TIM_HandleTypeDef *htim)
 371:../../Drivers/STM32F7xx_HAL_Driver/Src/stm32f7xx_hal_tim.c **** {
 460              		.loc 1 371 0
 461              		.cfi_startproc
 462              		@ args = 0, pretend = 0, frame = 8
 463              		@ frame_needed = 1, uses_anonymous_args = 0
 464              		@ link register save eliminated.
 465 0000 80B4     		push	{r7}
 466              	.LCFI40:
 467              		.cfi_def_cfa_offset 4
 468              		.cfi_offset 7, -4
 469 0002 83B0     		sub	sp, sp, #12
 470              	.LCFI41:
 471              		.cfi_def_cfa_offset 16
 472 0004 00AF     		add	r7, sp, #0
 473              	.LCFI42:
 474              		.cfi_def_cfa_register 7
 475 0006 7860     		str	r0, [r7, #4]
 372:../../Drivers/STM32F7xx_HAL_Driver/Src/stm32f7xx_hal_tim.c ****   /* Check the parameters */
 373:../../Drivers/STM32F7xx_HAL_Driver/Src/stm32f7xx_hal_tim.c ****   assert_param(IS_TIM_INSTANCE(htim->Instance));
 374:../../Drivers/STM32F7xx_HAL_Driver/Src/stm32f7xx_hal_tim.c ****   /* Disable the TIM Update interrupt */
 375:../../Drivers/STM32F7xx_HAL_Driver/Src/stm32f7xx_hal_tim.c ****   __HAL_TIM_DISABLE_IT(htim, TIM_IT_UPDATE);
 476              		.loc 1 375 0
 477 0008 7B68     		ldr	r3, [r7, #4]
 478 000a 1B68     		ldr	r3, [r3]
 479 000c 7A68     		ldr	r2, [r7, #4]
 480 000e 1268     		ldr	r2, [r2]
 481 0010 D268     		ldr	r2, [r2, #12]
 482 0012 22F00102 		bic	r2, r2, #1
 483 0016 DA60     		str	r2, [r3, #12]
 376:../../Drivers/STM32F7xx_HAL_Driver/Src/stm32f7xx_hal_tim.c ****       
 377:../../Drivers/STM32F7xx_HAL_Driver/Src/stm32f7xx_hal_tim.c ****   /* Disable the Peripheral */
 378:../../Drivers/STM32F7xx_HAL_Driver/Src/stm32f7xx_hal_tim.c ****   __HAL_TIM_DISABLE(htim);
 484              		.loc 1 378 0
 485 0018 7B68     		ldr	r3, [r7, #4]
 486 001a 1B68     		ldr	r3, [r3]
 487 001c 1A6A     		ldr	r2, [r3, #32]
 488 001e 41F21113 		movw	r3, #4369
 489 0022 1340     		ands	r3, r3, r2
 490 0024 002B     		cmp	r3, #0
 491 0026 0FD1     		bne	.L18
 492              		.loc 1 378 0 is_stmt 0 discriminator 1
ARM GAS  /tmp/cc04EBs1.s 			page 16


 493 0028 7B68     		ldr	r3, [r7, #4]
 494 002a 1B68     		ldr	r3, [r3]
 495 002c 1A6A     		ldr	r2, [r3, #32]
 496 002e 40F24443 		movw	r3, #1092
 497 0032 1340     		ands	r3, r3, r2
 498 0034 002B     		cmp	r3, #0
 499 0036 07D1     		bne	.L18
 500              		.loc 1 378 0 discriminator 2
 501 0038 7B68     		ldr	r3, [r7, #4]
 502 003a 1B68     		ldr	r3, [r3]
 503 003c 7A68     		ldr	r2, [r7, #4]
 504 003e 1268     		ldr	r2, [r2]
 505 0040 1268     		ldr	r2, [r2]
 506 0042 22F00102 		bic	r2, r2, #1
 507 0046 1A60     		str	r2, [r3]
 508              	.L18:
 379:../../Drivers/STM32F7xx_HAL_Driver/Src/stm32f7xx_hal_tim.c ****     
 380:../../Drivers/STM32F7xx_HAL_Driver/Src/stm32f7xx_hal_tim.c ****   /* Return function status */
 381:../../Drivers/STM32F7xx_HAL_Driver/Src/stm32f7xx_hal_tim.c ****   return HAL_OK;
 509              		.loc 1 381 0 is_stmt 1
 510 0048 0023     		movs	r3, #0
 382:../../Drivers/STM32F7xx_HAL_Driver/Src/stm32f7xx_hal_tim.c **** }
 511              		.loc 1 382 0
 512 004a 1846     		mov	r0, r3
 513 004c 0C37     		adds	r7, r7, #12
 514              	.LCFI43:
 515              		.cfi_def_cfa_offset 4
 516 004e BD46     		mov	sp, r7
 517              	.LCFI44:
 518              		.cfi_def_cfa_register 13
 519              		@ sp needed
 520 0050 5DF8047B 		ldr	r7, [sp], #4
 521              	.LCFI45:
 522              		.cfi_restore 7
 523              		.cfi_def_cfa_offset 0
 524 0054 7047     		bx	lr
 525              		.cfi_endproc
 526              	.LFE142:
 528 0056 00BF     		.section	.text.HAL_TIM_Base_Start_DMA,"ax",%progbits
 529              		.align	2
 530              		.global	HAL_TIM_Base_Start_DMA
 531              		.thumb
 532              		.thumb_func
 534              	HAL_TIM_Base_Start_DMA:
 535              	.LFB143:
 383:../../Drivers/STM32F7xx_HAL_Driver/Src/stm32f7xx_hal_tim.c **** 
 384:../../Drivers/STM32F7xx_HAL_Driver/Src/stm32f7xx_hal_tim.c **** /**
 385:../../Drivers/STM32F7xx_HAL_Driver/Src/stm32f7xx_hal_tim.c ****   * @brief  Starts the TIM Base generation in DMA mode.
 386:../../Drivers/STM32F7xx_HAL_Driver/Src/stm32f7xx_hal_tim.c ****   * @param  htim: pointer to a TIM_HandleTypeDef structure that contains
 387:../../Drivers/STM32F7xx_HAL_Driver/Src/stm32f7xx_hal_tim.c ****   *                the configuration information for TIM module.
 388:../../Drivers/STM32F7xx_HAL_Driver/Src/stm32f7xx_hal_tim.c ****   * @param  pData: The source Buffer address.
 389:../../Drivers/STM32F7xx_HAL_Driver/Src/stm32f7xx_hal_tim.c ****   * @param  Length: The length of data to be transferred from memory to peripheral.
 390:../../Drivers/STM32F7xx_HAL_Driver/Src/stm32f7xx_hal_tim.c ****   * @retval HAL status
 391:../../Drivers/STM32F7xx_HAL_Driver/Src/stm32f7xx_hal_tim.c ****   */
 392:../../Drivers/STM32F7xx_HAL_Driver/Src/stm32f7xx_hal_tim.c **** HAL_StatusTypeDef HAL_TIM_Base_Start_DMA(TIM_HandleTypeDef *htim, uint32_t *pData, uint16_t Length)
 393:../../Drivers/STM32F7xx_HAL_Driver/Src/stm32f7xx_hal_tim.c **** {
 536              		.loc 1 393 0
ARM GAS  /tmp/cc04EBs1.s 			page 17


 537              		.cfi_startproc
 538              		@ args = 0, pretend = 0, frame = 16
 539              		@ frame_needed = 1, uses_anonymous_args = 0
 540 0000 90B5     		push	{r4, r7, lr}
 541              	.LCFI46:
 542              		.cfi_def_cfa_offset 12
 543              		.cfi_offset 4, -12
 544              		.cfi_offset 7, -8
 545              		.cfi_offset 14, -4
 546 0002 85B0     		sub	sp, sp, #20
 547              	.LCFI47:
 548              		.cfi_def_cfa_offset 32
 549 0004 00AF     		add	r7, sp, #0
 550              	.LCFI48:
 551              		.cfi_def_cfa_register 7
 552 0006 F860     		str	r0, [r7, #12]
 553 0008 B960     		str	r1, [r7, #8]
 554 000a 1346     		mov	r3, r2
 555 000c FB80     		strh	r3, [r7, #6]	@ movhi
 394:../../Drivers/STM32F7xx_HAL_Driver/Src/stm32f7xx_hal_tim.c ****   /* Check the parameters */
 395:../../Drivers/STM32F7xx_HAL_Driver/Src/stm32f7xx_hal_tim.c ****   assert_param(IS_TIM_DMA_INSTANCE(htim->Instance)); 
 396:../../Drivers/STM32F7xx_HAL_Driver/Src/stm32f7xx_hal_tim.c ****   
 397:../../Drivers/STM32F7xx_HAL_Driver/Src/stm32f7xx_hal_tim.c ****   if((htim->State == HAL_TIM_STATE_BUSY))
 556              		.loc 1 397 0
 557 000e FB68     		ldr	r3, [r7, #12]
 558 0010 93F83D30 		ldrb	r3, [r3, #61]
 559 0014 DBB2     		uxtb	r3, r3
 560 0016 022B     		cmp	r3, #2
 561 0018 01D1     		bne	.L21
 398:../../Drivers/STM32F7xx_HAL_Driver/Src/stm32f7xx_hal_tim.c ****   {
 399:../../Drivers/STM32F7xx_HAL_Driver/Src/stm32f7xx_hal_tim.c ****      return HAL_BUSY;
 562              		.loc 1 399 0
 563 001a 0223     		movs	r3, #2
 564 001c 37E0     		b	.L22
 565              	.L21:
 400:../../Drivers/STM32F7xx_HAL_Driver/Src/stm32f7xx_hal_tim.c ****   }
 401:../../Drivers/STM32F7xx_HAL_Driver/Src/stm32f7xx_hal_tim.c ****   else if((htim->State == HAL_TIM_STATE_READY))
 566              		.loc 1 401 0
 567 001e FB68     		ldr	r3, [r7, #12]
 568 0020 93F83D30 		ldrb	r3, [r3, #61]
 569 0024 DBB2     		uxtb	r3, r3
 570 0026 012B     		cmp	r3, #1
 571 0028 0BD1     		bne	.L23
 402:../../Drivers/STM32F7xx_HAL_Driver/Src/stm32f7xx_hal_tim.c ****   {
 403:../../Drivers/STM32F7xx_HAL_Driver/Src/stm32f7xx_hal_tim.c ****     if((pData == 0 ) && (Length > 0)) 
 572              		.loc 1 403 0
 573 002a BB68     		ldr	r3, [r7, #8]
 574 002c 002B     		cmp	r3, #0
 575 002e 04D1     		bne	.L24
 576              		.loc 1 403 0 is_stmt 0 discriminator 1
 577 0030 FB88     		ldrh	r3, [r7, #6]
 578 0032 002B     		cmp	r3, #0
 579 0034 01D0     		beq	.L24
 404:../../Drivers/STM32F7xx_HAL_Driver/Src/stm32f7xx_hal_tim.c ****     {
 405:../../Drivers/STM32F7xx_HAL_Driver/Src/stm32f7xx_hal_tim.c ****       return HAL_ERROR;                                    
 580              		.loc 1 405 0 is_stmt 1
 581 0036 0123     		movs	r3, #1
ARM GAS  /tmp/cc04EBs1.s 			page 18


 582 0038 29E0     		b	.L22
 583              	.L24:
 406:../../Drivers/STM32F7xx_HAL_Driver/Src/stm32f7xx_hal_tim.c ****     }
 407:../../Drivers/STM32F7xx_HAL_Driver/Src/stm32f7xx_hal_tim.c ****     else
 408:../../Drivers/STM32F7xx_HAL_Driver/Src/stm32f7xx_hal_tim.c ****     {
 409:../../Drivers/STM32F7xx_HAL_Driver/Src/stm32f7xx_hal_tim.c ****       htim->State = HAL_TIM_STATE_BUSY;
 584              		.loc 1 409 0
 585 003a FB68     		ldr	r3, [r7, #12]
 586 003c 0222     		movs	r2, #2
 587 003e 83F83D20 		strb	r2, [r3, #61]
 588              	.L23:
 410:../../Drivers/STM32F7xx_HAL_Driver/Src/stm32f7xx_hal_tim.c ****     }
 411:../../Drivers/STM32F7xx_HAL_Driver/Src/stm32f7xx_hal_tim.c ****   }  
 412:../../Drivers/STM32F7xx_HAL_Driver/Src/stm32f7xx_hal_tim.c ****   /* Set the DMA Period elapsed callback */
 413:../../Drivers/STM32F7xx_HAL_Driver/Src/stm32f7xx_hal_tim.c ****   htim->hdma[TIM_DMA_ID_UPDATE]->XferCpltCallback = TIM_DMAPeriodElapsedCplt;
 589              		.loc 1 413 0
 590 0042 FB68     		ldr	r3, [r7, #12]
 591 0044 1B6A     		ldr	r3, [r3, #32]
 592 0046 144A     		ldr	r2, .L25
 593 0048 DA63     		str	r2, [r3, #60]
 414:../../Drivers/STM32F7xx_HAL_Driver/Src/stm32f7xx_hal_tim.c ****      
 415:../../Drivers/STM32F7xx_HAL_Driver/Src/stm32f7xx_hal_tim.c ****   /* Set the DMA error callback */
 416:../../Drivers/STM32F7xx_HAL_Driver/Src/stm32f7xx_hal_tim.c ****   htim->hdma[TIM_DMA_ID_UPDATE]->XferErrorCallback = HAL_TIM_DMAError ;
 594              		.loc 1 416 0
 595 004a FB68     		ldr	r3, [r7, #12]
 596 004c 1B6A     		ldr	r3, [r3, #32]
 597 004e 134A     		ldr	r2, .L25+4
 598 0050 DA64     		str	r2, [r3, #76]
 417:../../Drivers/STM32F7xx_HAL_Driver/Src/stm32f7xx_hal_tim.c ****   
 418:../../Drivers/STM32F7xx_HAL_Driver/Src/stm32f7xx_hal_tim.c ****   /* Enable the DMA Stream */
 419:../../Drivers/STM32F7xx_HAL_Driver/Src/stm32f7xx_hal_tim.c ****   HAL_DMA_Start_IT(htim->hdma[TIM_DMA_ID_UPDATE], (uint32_t)pData, (uint32_t)&htim->Instance->ARR, 
 599              		.loc 1 419 0
 600 0052 FB68     		ldr	r3, [r7, #12]
 601 0054 196A     		ldr	r1, [r3, #32]
 602 0056 BA68     		ldr	r2, [r7, #8]
 603 0058 FB68     		ldr	r3, [r7, #12]
 604 005a 1B68     		ldr	r3, [r3]
 605 005c 2C33     		adds	r3, r3, #44
 606 005e 1C46     		mov	r4, r3
 607 0060 FB88     		ldrh	r3, [r7, #6]
 608 0062 0846     		mov	r0, r1
 609 0064 1146     		mov	r1, r2
 610 0066 2246     		mov	r2, r4
 611 0068 FFF7FEFF 		bl	HAL_DMA_Start_IT
 420:../../Drivers/STM32F7xx_HAL_Driver/Src/stm32f7xx_hal_tim.c ****   
 421:../../Drivers/STM32F7xx_HAL_Driver/Src/stm32f7xx_hal_tim.c ****   /* Enable the TIM Update DMA request */
 422:../../Drivers/STM32F7xx_HAL_Driver/Src/stm32f7xx_hal_tim.c ****   __HAL_TIM_ENABLE_DMA(htim, TIM_DMA_UPDATE);
 612              		.loc 1 422 0
 613 006c FB68     		ldr	r3, [r7, #12]
 614 006e 1B68     		ldr	r3, [r3]
 615 0070 FA68     		ldr	r2, [r7, #12]
 616 0072 1268     		ldr	r2, [r2]
 617 0074 D268     		ldr	r2, [r2, #12]
 618 0076 42F48072 		orr	r2, r2, #256
 619 007a DA60     		str	r2, [r3, #12]
 423:../../Drivers/STM32F7xx_HAL_Driver/Src/stm32f7xx_hal_tim.c **** 
 424:../../Drivers/STM32F7xx_HAL_Driver/Src/stm32f7xx_hal_tim.c ****   /* Enable the Peripheral */
ARM GAS  /tmp/cc04EBs1.s 			page 19


 425:../../Drivers/STM32F7xx_HAL_Driver/Src/stm32f7xx_hal_tim.c ****   __HAL_TIM_ENABLE(htim);  
 620              		.loc 1 425 0
 621 007c FB68     		ldr	r3, [r7, #12]
 622 007e 1B68     		ldr	r3, [r3]
 623 0080 FA68     		ldr	r2, [r7, #12]
 624 0082 1268     		ldr	r2, [r2]
 625 0084 1268     		ldr	r2, [r2]
 626 0086 42F00102 		orr	r2, r2, #1
 627 008a 1A60     		str	r2, [r3]
 426:../../Drivers/STM32F7xx_HAL_Driver/Src/stm32f7xx_hal_tim.c ****   
 427:../../Drivers/STM32F7xx_HAL_Driver/Src/stm32f7xx_hal_tim.c ****   /* Return function status */
 428:../../Drivers/STM32F7xx_HAL_Driver/Src/stm32f7xx_hal_tim.c ****   return HAL_OK;
 628              		.loc 1 428 0
 629 008c 0023     		movs	r3, #0
 630              	.L22:
 429:../../Drivers/STM32F7xx_HAL_Driver/Src/stm32f7xx_hal_tim.c **** }
 631              		.loc 1 429 0
 632 008e 1846     		mov	r0, r3
 633 0090 1437     		adds	r7, r7, #20
 634              	.LCFI49:
 635              		.cfi_def_cfa_offset 12
 636 0092 BD46     		mov	sp, r7
 637              	.LCFI50:
 638              		.cfi_def_cfa_register 13
 639              		@ sp needed
 640 0094 90BD     		pop	{r4, r7, pc}
 641              	.L26:
 642 0096 00BF     		.align	2
 643              	.L25:
 644 0098 00000000 		.word	TIM_DMAPeriodElapsedCplt
 645 009c 00000000 		.word	TIM_DMAError
 646              		.cfi_endproc
 647              	.LFE143:
 649              		.section	.text.HAL_TIM_Base_Stop_DMA,"ax",%progbits
 650              		.align	2
 651              		.global	HAL_TIM_Base_Stop_DMA
 652              		.thumb
 653              		.thumb_func
 655              	HAL_TIM_Base_Stop_DMA:
 656              	.LFB144:
 430:../../Drivers/STM32F7xx_HAL_Driver/Src/stm32f7xx_hal_tim.c **** 
 431:../../Drivers/STM32F7xx_HAL_Driver/Src/stm32f7xx_hal_tim.c **** /**
 432:../../Drivers/STM32F7xx_HAL_Driver/Src/stm32f7xx_hal_tim.c ****   * @brief  Stops the TIM Base generation in DMA mode.
 433:../../Drivers/STM32F7xx_HAL_Driver/Src/stm32f7xx_hal_tim.c ****   * @param  htim: pointer to a TIM_HandleTypeDef structure that contains
 434:../../Drivers/STM32F7xx_HAL_Driver/Src/stm32f7xx_hal_tim.c ****   *                the configuration information for TIM module.
 435:../../Drivers/STM32F7xx_HAL_Driver/Src/stm32f7xx_hal_tim.c ****   * @retval HAL status
 436:../../Drivers/STM32F7xx_HAL_Driver/Src/stm32f7xx_hal_tim.c ****   */
 437:../../Drivers/STM32F7xx_HAL_Driver/Src/stm32f7xx_hal_tim.c **** HAL_StatusTypeDef HAL_TIM_Base_Stop_DMA(TIM_HandleTypeDef *htim)
 438:../../Drivers/STM32F7xx_HAL_Driver/Src/stm32f7xx_hal_tim.c **** {
 657              		.loc 1 438 0
 658              		.cfi_startproc
 659              		@ args = 0, pretend = 0, frame = 8
 660              		@ frame_needed = 1, uses_anonymous_args = 0
 661              		@ link register save eliminated.
 662 0000 80B4     		push	{r7}
 663              	.LCFI51:
 664              		.cfi_def_cfa_offset 4
ARM GAS  /tmp/cc04EBs1.s 			page 20


 665              		.cfi_offset 7, -4
 666 0002 83B0     		sub	sp, sp, #12
 667              	.LCFI52:
 668              		.cfi_def_cfa_offset 16
 669 0004 00AF     		add	r7, sp, #0
 670              	.LCFI53:
 671              		.cfi_def_cfa_register 7
 672 0006 7860     		str	r0, [r7, #4]
 439:../../Drivers/STM32F7xx_HAL_Driver/Src/stm32f7xx_hal_tim.c ****   /* Check the parameters */
 440:../../Drivers/STM32F7xx_HAL_Driver/Src/stm32f7xx_hal_tim.c ****   assert_param(IS_TIM_DMA_INSTANCE(htim->Instance));
 441:../../Drivers/STM32F7xx_HAL_Driver/Src/stm32f7xx_hal_tim.c ****   
 442:../../Drivers/STM32F7xx_HAL_Driver/Src/stm32f7xx_hal_tim.c ****   /* Disable the TIM Update DMA request */
 443:../../Drivers/STM32F7xx_HAL_Driver/Src/stm32f7xx_hal_tim.c ****   __HAL_TIM_DISABLE_DMA(htim, TIM_DMA_UPDATE);
 673              		.loc 1 443 0
 674 0008 7B68     		ldr	r3, [r7, #4]
 675 000a 1B68     		ldr	r3, [r3]
 676 000c 7A68     		ldr	r2, [r7, #4]
 677 000e 1268     		ldr	r2, [r2]
 678 0010 D268     		ldr	r2, [r2, #12]
 679 0012 22F48072 		bic	r2, r2, #256
 680 0016 DA60     		str	r2, [r3, #12]
 444:../../Drivers/STM32F7xx_HAL_Driver/Src/stm32f7xx_hal_tim.c ****       
 445:../../Drivers/STM32F7xx_HAL_Driver/Src/stm32f7xx_hal_tim.c ****   /* Disable the Peripheral */
 446:../../Drivers/STM32F7xx_HAL_Driver/Src/stm32f7xx_hal_tim.c ****   __HAL_TIM_DISABLE(htim);
 681              		.loc 1 446 0
 682 0018 7B68     		ldr	r3, [r7, #4]
 683 001a 1B68     		ldr	r3, [r3]
 684 001c 1A6A     		ldr	r2, [r3, #32]
 685 001e 41F21113 		movw	r3, #4369
 686 0022 1340     		ands	r3, r3, r2
 687 0024 002B     		cmp	r3, #0
 688 0026 0FD1     		bne	.L28
 689              		.loc 1 446 0 is_stmt 0 discriminator 1
 690 0028 7B68     		ldr	r3, [r7, #4]
 691 002a 1B68     		ldr	r3, [r3]
 692 002c 1A6A     		ldr	r2, [r3, #32]
 693 002e 40F24443 		movw	r3, #1092
 694 0032 1340     		ands	r3, r3, r2
 695 0034 002B     		cmp	r3, #0
 696 0036 07D1     		bne	.L28
 697              		.loc 1 446 0 discriminator 2
 698 0038 7B68     		ldr	r3, [r7, #4]
 699 003a 1B68     		ldr	r3, [r3]
 700 003c 7A68     		ldr	r2, [r7, #4]
 701 003e 1268     		ldr	r2, [r2]
 702 0040 1268     		ldr	r2, [r2]
 703 0042 22F00102 		bic	r2, r2, #1
 704 0046 1A60     		str	r2, [r3]
 705              	.L28:
 447:../../Drivers/STM32F7xx_HAL_Driver/Src/stm32f7xx_hal_tim.c ****     
 448:../../Drivers/STM32F7xx_HAL_Driver/Src/stm32f7xx_hal_tim.c ****   /* Change the htim state */
 449:../../Drivers/STM32F7xx_HAL_Driver/Src/stm32f7xx_hal_tim.c ****   htim->State = HAL_TIM_STATE_READY;
 706              		.loc 1 449 0 is_stmt 1
 707 0048 7B68     		ldr	r3, [r7, #4]
 708 004a 0122     		movs	r2, #1
 709 004c 83F83D20 		strb	r2, [r3, #61]
 450:../../Drivers/STM32F7xx_HAL_Driver/Src/stm32f7xx_hal_tim.c ****       
ARM GAS  /tmp/cc04EBs1.s 			page 21


 451:../../Drivers/STM32F7xx_HAL_Driver/Src/stm32f7xx_hal_tim.c ****   /* Return function status */
 452:../../Drivers/STM32F7xx_HAL_Driver/Src/stm32f7xx_hal_tim.c ****   return HAL_OK;
 710              		.loc 1 452 0
 711 0050 0023     		movs	r3, #0
 453:../../Drivers/STM32F7xx_HAL_Driver/Src/stm32f7xx_hal_tim.c **** }
 712              		.loc 1 453 0
 713 0052 1846     		mov	r0, r3
 714 0054 0C37     		adds	r7, r7, #12
 715              	.LCFI54:
 716              		.cfi_def_cfa_offset 4
 717 0056 BD46     		mov	sp, r7
 718              	.LCFI55:
 719              		.cfi_def_cfa_register 13
 720              		@ sp needed
 721 0058 5DF8047B 		ldr	r7, [sp], #4
 722              	.LCFI56:
 723              		.cfi_restore 7
 724              		.cfi_def_cfa_offset 0
 725 005c 7047     		bx	lr
 726              		.cfi_endproc
 727              	.LFE144:
 729 005e 00BF     		.section	.text.HAL_TIM_OC_Init,"ax",%progbits
 730              		.align	2
 731              		.global	HAL_TIM_OC_Init
 732              		.thumb
 733              		.thumb_func
 735              	HAL_TIM_OC_Init:
 736              	.LFB145:
 454:../../Drivers/STM32F7xx_HAL_Driver/Src/stm32f7xx_hal_tim.c **** 
 455:../../Drivers/STM32F7xx_HAL_Driver/Src/stm32f7xx_hal_tim.c **** /**
 456:../../Drivers/STM32F7xx_HAL_Driver/Src/stm32f7xx_hal_tim.c ****   * @}
 457:../../Drivers/STM32F7xx_HAL_Driver/Src/stm32f7xx_hal_tim.c ****   */
 458:../../Drivers/STM32F7xx_HAL_Driver/Src/stm32f7xx_hal_tim.c ****   
 459:../../Drivers/STM32F7xx_HAL_Driver/Src/stm32f7xx_hal_tim.c **** /** @defgroup TIM_Exported_Functions_Group2 Time Output Compare functions 
 460:../../Drivers/STM32F7xx_HAL_Driver/Src/stm32f7xx_hal_tim.c ****  *  @brief    Time Output Compare functions 
 461:../../Drivers/STM32F7xx_HAL_Driver/Src/stm32f7xx_hal_tim.c ****  *
 462:../../Drivers/STM32F7xx_HAL_Driver/Src/stm32f7xx_hal_tim.c **** @verbatim    
 463:../../Drivers/STM32F7xx_HAL_Driver/Src/stm32f7xx_hal_tim.c ****   ==============================================================================
 464:../../Drivers/STM32F7xx_HAL_Driver/Src/stm32f7xx_hal_tim.c ****                   ##### Time Output Compare functions #####
 465:../../Drivers/STM32F7xx_HAL_Driver/Src/stm32f7xx_hal_tim.c ****   ==============================================================================
 466:../../Drivers/STM32F7xx_HAL_Driver/Src/stm32f7xx_hal_tim.c ****   [..]
 467:../../Drivers/STM32F7xx_HAL_Driver/Src/stm32f7xx_hal_tim.c ****     This section provides functions allowing to:
 468:../../Drivers/STM32F7xx_HAL_Driver/Src/stm32f7xx_hal_tim.c ****     (+) Initialize and configure the TIM Output Compare. 
 469:../../Drivers/STM32F7xx_HAL_Driver/Src/stm32f7xx_hal_tim.c ****     (+) De-initialize the TIM Output Compare.
 470:../../Drivers/STM32F7xx_HAL_Driver/Src/stm32f7xx_hal_tim.c ****     (+) Start the Time Output Compare.
 471:../../Drivers/STM32F7xx_HAL_Driver/Src/stm32f7xx_hal_tim.c ****     (+) Stop the Time Output Compare.
 472:../../Drivers/STM32F7xx_HAL_Driver/Src/stm32f7xx_hal_tim.c ****     (+) Start the Time Output Compare and enable interrupt.
 473:../../Drivers/STM32F7xx_HAL_Driver/Src/stm32f7xx_hal_tim.c ****     (+) Stop the Time Output Compare and disable interrupt.
 474:../../Drivers/STM32F7xx_HAL_Driver/Src/stm32f7xx_hal_tim.c ****     (+) Start the Time Output Compare and enable DMA transfer.
 475:../../Drivers/STM32F7xx_HAL_Driver/Src/stm32f7xx_hal_tim.c ****     (+) Stop the Time Output Compare and disable DMA transfer.
 476:../../Drivers/STM32F7xx_HAL_Driver/Src/stm32f7xx_hal_tim.c ****  
 477:../../Drivers/STM32F7xx_HAL_Driver/Src/stm32f7xx_hal_tim.c **** @endverbatim
 478:../../Drivers/STM32F7xx_HAL_Driver/Src/stm32f7xx_hal_tim.c ****   * @{
 479:../../Drivers/STM32F7xx_HAL_Driver/Src/stm32f7xx_hal_tim.c ****   */
 480:../../Drivers/STM32F7xx_HAL_Driver/Src/stm32f7xx_hal_tim.c **** /**
 481:../../Drivers/STM32F7xx_HAL_Driver/Src/stm32f7xx_hal_tim.c ****   * @brief  Initializes the TIM Output Compare according to the specified
 482:../../Drivers/STM32F7xx_HAL_Driver/Src/stm32f7xx_hal_tim.c ****   *         parameters in the TIM_HandleTypeDef and create the associated handle.
ARM GAS  /tmp/cc04EBs1.s 			page 22


 483:../../Drivers/STM32F7xx_HAL_Driver/Src/stm32f7xx_hal_tim.c ****   * @param  htim: pointer to a TIM_HandleTypeDef structure that contains
 484:../../Drivers/STM32F7xx_HAL_Driver/Src/stm32f7xx_hal_tim.c ****   *                the configuration information for TIM module.
 485:../../Drivers/STM32F7xx_HAL_Driver/Src/stm32f7xx_hal_tim.c ****   * @retval HAL status
 486:../../Drivers/STM32F7xx_HAL_Driver/Src/stm32f7xx_hal_tim.c ****   */
 487:../../Drivers/STM32F7xx_HAL_Driver/Src/stm32f7xx_hal_tim.c **** HAL_StatusTypeDef HAL_TIM_OC_Init(TIM_HandleTypeDef* htim)
 488:../../Drivers/STM32F7xx_HAL_Driver/Src/stm32f7xx_hal_tim.c **** {
 737              		.loc 1 488 0
 738              		.cfi_startproc
 739              		@ args = 0, pretend = 0, frame = 8
 740              		@ frame_needed = 1, uses_anonymous_args = 0
 741 0000 80B5     		push	{r7, lr}
 742              	.LCFI57:
 743              		.cfi_def_cfa_offset 8
 744              		.cfi_offset 7, -8
 745              		.cfi_offset 14, -4
 746 0002 82B0     		sub	sp, sp, #8
 747              	.LCFI58:
 748              		.cfi_def_cfa_offset 16
 749 0004 00AF     		add	r7, sp, #0
 750              	.LCFI59:
 751              		.cfi_def_cfa_register 7
 752 0006 7860     		str	r0, [r7, #4]
 489:../../Drivers/STM32F7xx_HAL_Driver/Src/stm32f7xx_hal_tim.c ****   /* Check the TIM handle allocation */
 490:../../Drivers/STM32F7xx_HAL_Driver/Src/stm32f7xx_hal_tim.c ****   if(htim == NULL)
 753              		.loc 1 490 0
 754 0008 7B68     		ldr	r3, [r7, #4]
 755 000a 002B     		cmp	r3, #0
 756 000c 01D1     		bne	.L31
 491:../../Drivers/STM32F7xx_HAL_Driver/Src/stm32f7xx_hal_tim.c ****   {
 492:../../Drivers/STM32F7xx_HAL_Driver/Src/stm32f7xx_hal_tim.c ****     return HAL_ERROR;
 757              		.loc 1 492 0
 758 000e 0123     		movs	r3, #1
 759 0010 1DE0     		b	.L32
 760              	.L31:
 493:../../Drivers/STM32F7xx_HAL_Driver/Src/stm32f7xx_hal_tim.c ****   }
 494:../../Drivers/STM32F7xx_HAL_Driver/Src/stm32f7xx_hal_tim.c **** 
 495:../../Drivers/STM32F7xx_HAL_Driver/Src/stm32f7xx_hal_tim.c ****   /* Check the parameters */
 496:../../Drivers/STM32F7xx_HAL_Driver/Src/stm32f7xx_hal_tim.c ****   assert_param(IS_TIM_INSTANCE(htim->Instance));
 497:../../Drivers/STM32F7xx_HAL_Driver/Src/stm32f7xx_hal_tim.c ****   assert_param(IS_TIM_COUNTER_MODE(htim->Init.CounterMode));
 498:../../Drivers/STM32F7xx_HAL_Driver/Src/stm32f7xx_hal_tim.c ****   assert_param(IS_TIM_CLOCKDIVISION_DIV(htim->Init.ClockDivision));
 499:../../Drivers/STM32F7xx_HAL_Driver/Src/stm32f7xx_hal_tim.c ****   assert_param(IS_TIM_AUTORELOAD_PRELOAD(htim->Init.AutoReloadPreload));
 500:../../Drivers/STM32F7xx_HAL_Driver/Src/stm32f7xx_hal_tim.c **** 
 501:../../Drivers/STM32F7xx_HAL_Driver/Src/stm32f7xx_hal_tim.c ****   if(htim->State == HAL_TIM_STATE_RESET)
 761              		.loc 1 501 0
 762 0012 7B68     		ldr	r3, [r7, #4]
 763 0014 93F83D30 		ldrb	r3, [r3, #61]
 764 0018 DBB2     		uxtb	r3, r3
 765 001a 002B     		cmp	r3, #0
 766 001c 06D1     		bne	.L33
 502:../../Drivers/STM32F7xx_HAL_Driver/Src/stm32f7xx_hal_tim.c ****   { 
 503:../../Drivers/STM32F7xx_HAL_Driver/Src/stm32f7xx_hal_tim.c ****     /* Allocate lock resource and initialize it */
 504:../../Drivers/STM32F7xx_HAL_Driver/Src/stm32f7xx_hal_tim.c ****     htim->Lock = HAL_UNLOCKED;  
 767              		.loc 1 504 0
 768 001e 7B68     		ldr	r3, [r7, #4]
 769 0020 0022     		movs	r2, #0
 770 0022 83F83C20 		strb	r2, [r3, #60]
 505:../../Drivers/STM32F7xx_HAL_Driver/Src/stm32f7xx_hal_tim.c ****     /* Init the low level hardware : GPIO, CLOCK, NVIC and DMA */
ARM GAS  /tmp/cc04EBs1.s 			page 23


 506:../../Drivers/STM32F7xx_HAL_Driver/Src/stm32f7xx_hal_tim.c ****     HAL_TIM_OC_MspInit(htim);
 771              		.loc 1 506 0
 772 0026 7868     		ldr	r0, [r7, #4]
 773 0028 FFF7FEFF 		bl	HAL_TIM_OC_MspInit
 774              	.L33:
 507:../../Drivers/STM32F7xx_HAL_Driver/Src/stm32f7xx_hal_tim.c ****   }
 508:../../Drivers/STM32F7xx_HAL_Driver/Src/stm32f7xx_hal_tim.c ****   
 509:../../Drivers/STM32F7xx_HAL_Driver/Src/stm32f7xx_hal_tim.c ****   /* Set the TIM state */
 510:../../Drivers/STM32F7xx_HAL_Driver/Src/stm32f7xx_hal_tim.c ****   htim->State= HAL_TIM_STATE_BUSY;
 775              		.loc 1 510 0
 776 002c 7B68     		ldr	r3, [r7, #4]
 777 002e 0222     		movs	r2, #2
 778 0030 83F83D20 		strb	r2, [r3, #61]
 511:../../Drivers/STM32F7xx_HAL_Driver/Src/stm32f7xx_hal_tim.c ****   
 512:../../Drivers/STM32F7xx_HAL_Driver/Src/stm32f7xx_hal_tim.c ****   /* Init the base time for the Output Compare */  
 513:../../Drivers/STM32F7xx_HAL_Driver/Src/stm32f7xx_hal_tim.c ****   TIM_Base_SetConfig(htim->Instance,  &htim->Init); 
 779              		.loc 1 513 0
 780 0034 7B68     		ldr	r3, [r7, #4]
 781 0036 1A68     		ldr	r2, [r3]
 782 0038 7B68     		ldr	r3, [r7, #4]
 783 003a 0433     		adds	r3, r3, #4
 784 003c 1046     		mov	r0, r2
 785 003e 1946     		mov	r1, r3
 786 0040 FFF7FEFF 		bl	TIM_Base_SetConfig
 514:../../Drivers/STM32F7xx_HAL_Driver/Src/stm32f7xx_hal_tim.c ****   
 515:../../Drivers/STM32F7xx_HAL_Driver/Src/stm32f7xx_hal_tim.c ****   /* Initialize the TIM state*/
 516:../../Drivers/STM32F7xx_HAL_Driver/Src/stm32f7xx_hal_tim.c ****   htim->State= HAL_TIM_STATE_READY;
 787              		.loc 1 516 0
 788 0044 7B68     		ldr	r3, [r7, #4]
 789 0046 0122     		movs	r2, #1
 790 0048 83F83D20 		strb	r2, [r3, #61]
 517:../../Drivers/STM32F7xx_HAL_Driver/Src/stm32f7xx_hal_tim.c ****   
 518:../../Drivers/STM32F7xx_HAL_Driver/Src/stm32f7xx_hal_tim.c ****   return HAL_OK;
 791              		.loc 1 518 0
 792 004c 0023     		movs	r3, #0
 793              	.L32:
 519:../../Drivers/STM32F7xx_HAL_Driver/Src/stm32f7xx_hal_tim.c **** }
 794              		.loc 1 519 0
 795 004e 1846     		mov	r0, r3
 796 0050 0837     		adds	r7, r7, #8
 797              	.LCFI60:
 798              		.cfi_def_cfa_offset 8
 799 0052 BD46     		mov	sp, r7
 800              	.LCFI61:
 801              		.cfi_def_cfa_register 13
 802              		@ sp needed
 803 0054 80BD     		pop	{r7, pc}
 804              		.cfi_endproc
 805              	.LFE145:
 807 0056 00BF     		.section	.text.HAL_TIM_OC_DeInit,"ax",%progbits
 808              		.align	2
 809              		.global	HAL_TIM_OC_DeInit
 810              		.thumb
 811              		.thumb_func
 813              	HAL_TIM_OC_DeInit:
 814              	.LFB146:
 520:../../Drivers/STM32F7xx_HAL_Driver/Src/stm32f7xx_hal_tim.c **** 
ARM GAS  /tmp/cc04EBs1.s 			page 24


 521:../../Drivers/STM32F7xx_HAL_Driver/Src/stm32f7xx_hal_tim.c **** /**
 522:../../Drivers/STM32F7xx_HAL_Driver/Src/stm32f7xx_hal_tim.c ****   * @brief  DeInitializes the TIM peripheral 
 523:../../Drivers/STM32F7xx_HAL_Driver/Src/stm32f7xx_hal_tim.c ****   * @param  htim: pointer to a TIM_HandleTypeDef structure that contains
 524:../../Drivers/STM32F7xx_HAL_Driver/Src/stm32f7xx_hal_tim.c ****   *                the configuration information for TIM module.
 525:../../Drivers/STM32F7xx_HAL_Driver/Src/stm32f7xx_hal_tim.c ****   * @retval HAL status
 526:../../Drivers/STM32F7xx_HAL_Driver/Src/stm32f7xx_hal_tim.c ****   */
 527:../../Drivers/STM32F7xx_HAL_Driver/Src/stm32f7xx_hal_tim.c **** HAL_StatusTypeDef HAL_TIM_OC_DeInit(TIM_HandleTypeDef *htim)
 528:../../Drivers/STM32F7xx_HAL_Driver/Src/stm32f7xx_hal_tim.c **** {
 815              		.loc 1 528 0
 816              		.cfi_startproc
 817              		@ args = 0, pretend = 0, frame = 8
 818              		@ frame_needed = 1, uses_anonymous_args = 0
 819 0000 80B5     		push	{r7, lr}
 820              	.LCFI62:
 821              		.cfi_def_cfa_offset 8
 822              		.cfi_offset 7, -8
 823              		.cfi_offset 14, -4
 824 0002 82B0     		sub	sp, sp, #8
 825              	.LCFI63:
 826              		.cfi_def_cfa_offset 16
 827 0004 00AF     		add	r7, sp, #0
 828              	.LCFI64:
 829              		.cfi_def_cfa_register 7
 830 0006 7860     		str	r0, [r7, #4]
 529:../../Drivers/STM32F7xx_HAL_Driver/Src/stm32f7xx_hal_tim.c ****   /* Check the parameters */
 530:../../Drivers/STM32F7xx_HAL_Driver/Src/stm32f7xx_hal_tim.c ****   assert_param(IS_TIM_INSTANCE(htim->Instance));
 531:../../Drivers/STM32F7xx_HAL_Driver/Src/stm32f7xx_hal_tim.c ****   
 532:../../Drivers/STM32F7xx_HAL_Driver/Src/stm32f7xx_hal_tim.c ****    htim->State = HAL_TIM_STATE_BUSY;
 831              		.loc 1 532 0
 832 0008 7B68     		ldr	r3, [r7, #4]
 833 000a 0222     		movs	r2, #2
 834 000c 83F83D20 		strb	r2, [r3, #61]
 533:../../Drivers/STM32F7xx_HAL_Driver/Src/stm32f7xx_hal_tim.c ****    
 534:../../Drivers/STM32F7xx_HAL_Driver/Src/stm32f7xx_hal_tim.c ****   /* Disable the TIM Peripheral Clock */
 535:../../Drivers/STM32F7xx_HAL_Driver/Src/stm32f7xx_hal_tim.c ****   __HAL_TIM_DISABLE(htim);
 835              		.loc 1 535 0
 836 0010 7B68     		ldr	r3, [r7, #4]
 837 0012 1B68     		ldr	r3, [r3]
 838 0014 1A6A     		ldr	r2, [r3, #32]
 839 0016 41F21113 		movw	r3, #4369
 840 001a 1340     		ands	r3, r3, r2
 841 001c 002B     		cmp	r3, #0
 842 001e 0FD1     		bne	.L35
 843              		.loc 1 535 0 is_stmt 0 discriminator 1
 844 0020 7B68     		ldr	r3, [r7, #4]
 845 0022 1B68     		ldr	r3, [r3]
 846 0024 1A6A     		ldr	r2, [r3, #32]
 847 0026 40F24443 		movw	r3, #1092
 848 002a 1340     		ands	r3, r3, r2
 849 002c 002B     		cmp	r3, #0
 850 002e 07D1     		bne	.L35
 851              		.loc 1 535 0 discriminator 2
 852 0030 7B68     		ldr	r3, [r7, #4]
 853 0032 1B68     		ldr	r3, [r3]
 854 0034 7A68     		ldr	r2, [r7, #4]
 855 0036 1268     		ldr	r2, [r2]
 856 0038 1268     		ldr	r2, [r2]
ARM GAS  /tmp/cc04EBs1.s 			page 25


 857 003a 22F00102 		bic	r2, r2, #1
 858 003e 1A60     		str	r2, [r3]
 859              	.L35:
 536:../../Drivers/STM32F7xx_HAL_Driver/Src/stm32f7xx_hal_tim.c ****   
 537:../../Drivers/STM32F7xx_HAL_Driver/Src/stm32f7xx_hal_tim.c ****   /* DeInit the low level hardware: GPIO, CLOCK, NVIC and DMA */
 538:../../Drivers/STM32F7xx_HAL_Driver/Src/stm32f7xx_hal_tim.c ****   HAL_TIM_OC_MspDeInit(htim);
 860              		.loc 1 538 0 is_stmt 1
 861 0040 7868     		ldr	r0, [r7, #4]
 862 0042 FFF7FEFF 		bl	HAL_TIM_OC_MspDeInit
 539:../../Drivers/STM32F7xx_HAL_Driver/Src/stm32f7xx_hal_tim.c ****     
 540:../../Drivers/STM32F7xx_HAL_Driver/Src/stm32f7xx_hal_tim.c ****   /* Change TIM state */  
 541:../../Drivers/STM32F7xx_HAL_Driver/Src/stm32f7xx_hal_tim.c ****   htim->State = HAL_TIM_STATE_RESET; 
 863              		.loc 1 541 0
 864 0046 7B68     		ldr	r3, [r7, #4]
 865 0048 0022     		movs	r2, #0
 866 004a 83F83D20 		strb	r2, [r3, #61]
 542:../../Drivers/STM32F7xx_HAL_Driver/Src/stm32f7xx_hal_tim.c **** 
 543:../../Drivers/STM32F7xx_HAL_Driver/Src/stm32f7xx_hal_tim.c ****   /* Release Lock */
 544:../../Drivers/STM32F7xx_HAL_Driver/Src/stm32f7xx_hal_tim.c ****   __HAL_UNLOCK(htim);
 867              		.loc 1 544 0
 868 004e 7B68     		ldr	r3, [r7, #4]
 869 0050 0022     		movs	r2, #0
 870 0052 83F83C20 		strb	r2, [r3, #60]
 545:../../Drivers/STM32F7xx_HAL_Driver/Src/stm32f7xx_hal_tim.c **** 
 546:../../Drivers/STM32F7xx_HAL_Driver/Src/stm32f7xx_hal_tim.c ****   return HAL_OK;
 871              		.loc 1 546 0
 872 0056 0023     		movs	r3, #0
 547:../../Drivers/STM32F7xx_HAL_Driver/Src/stm32f7xx_hal_tim.c **** }
 873              		.loc 1 547 0
 874 0058 1846     		mov	r0, r3
 875 005a 0837     		adds	r7, r7, #8
 876              	.LCFI65:
 877              		.cfi_def_cfa_offset 8
 878 005c BD46     		mov	sp, r7
 879              	.LCFI66:
 880              		.cfi_def_cfa_register 13
 881              		@ sp needed
 882 005e 80BD     		pop	{r7, pc}
 883              		.cfi_endproc
 884              	.LFE146:
 886              		.section	.text.HAL_TIM_OC_MspInit,"ax",%progbits
 887              		.align	2
 888              		.weak	HAL_TIM_OC_MspInit
 889              		.thumb
 890              		.thumb_func
 892              	HAL_TIM_OC_MspInit:
 893              	.LFB147:
 548:../../Drivers/STM32F7xx_HAL_Driver/Src/stm32f7xx_hal_tim.c **** 
 549:../../Drivers/STM32F7xx_HAL_Driver/Src/stm32f7xx_hal_tim.c **** /**
 550:../../Drivers/STM32F7xx_HAL_Driver/Src/stm32f7xx_hal_tim.c ****   * @brief  Initializes the TIM Output Compare MSP.
 551:../../Drivers/STM32F7xx_HAL_Driver/Src/stm32f7xx_hal_tim.c ****   * @param  htim: pointer to a TIM_HandleTypeDef structure that contains
 552:../../Drivers/STM32F7xx_HAL_Driver/Src/stm32f7xx_hal_tim.c ****   *                the configuration information for TIM module.
 553:../../Drivers/STM32F7xx_HAL_Driver/Src/stm32f7xx_hal_tim.c ****   * @retval None
 554:../../Drivers/STM32F7xx_HAL_Driver/Src/stm32f7xx_hal_tim.c ****   */
 555:../../Drivers/STM32F7xx_HAL_Driver/Src/stm32f7xx_hal_tim.c **** __weak void HAL_TIM_OC_MspInit(TIM_HandleTypeDef *htim)
 556:../../Drivers/STM32F7xx_HAL_Driver/Src/stm32f7xx_hal_tim.c **** {
 894              		.loc 1 556 0
ARM GAS  /tmp/cc04EBs1.s 			page 26


 895              		.cfi_startproc
 896              		@ args = 0, pretend = 0, frame = 8
 897              		@ frame_needed = 1, uses_anonymous_args = 0
 898              		@ link register save eliminated.
 899 0000 80B4     		push	{r7}
 900              	.LCFI67:
 901              		.cfi_def_cfa_offset 4
 902              		.cfi_offset 7, -4
 903 0002 83B0     		sub	sp, sp, #12
 904              	.LCFI68:
 905              		.cfi_def_cfa_offset 16
 906 0004 00AF     		add	r7, sp, #0
 907              	.LCFI69:
 908              		.cfi_def_cfa_register 7
 909 0006 7860     		str	r0, [r7, #4]
 557:../../Drivers/STM32F7xx_HAL_Driver/Src/stm32f7xx_hal_tim.c ****   /* Prevent unused argument(s) compilation warning */
 558:../../Drivers/STM32F7xx_HAL_Driver/Src/stm32f7xx_hal_tim.c ****   UNUSED(htim);
 559:../../Drivers/STM32F7xx_HAL_Driver/Src/stm32f7xx_hal_tim.c ****  
 560:../../Drivers/STM32F7xx_HAL_Driver/Src/stm32f7xx_hal_tim.c ****   /* NOTE : This function Should not be modified, when the callback is needed,
 561:../../Drivers/STM32F7xx_HAL_Driver/Src/stm32f7xx_hal_tim.c ****             the HAL_TIM_OC_MspInit could be implemented in the user file
 562:../../Drivers/STM32F7xx_HAL_Driver/Src/stm32f7xx_hal_tim.c ****    */
 563:../../Drivers/STM32F7xx_HAL_Driver/Src/stm32f7xx_hal_tim.c **** }
 910              		.loc 1 563 0
 911 0008 0C37     		adds	r7, r7, #12
 912              	.LCFI70:
 913              		.cfi_def_cfa_offset 4
 914 000a BD46     		mov	sp, r7
 915              	.LCFI71:
 916              		.cfi_def_cfa_register 13
 917              		@ sp needed
 918 000c 5DF8047B 		ldr	r7, [sp], #4
 919              	.LCFI72:
 920              		.cfi_restore 7
 921              		.cfi_def_cfa_offset 0
 922 0010 7047     		bx	lr
 923              		.cfi_endproc
 924              	.LFE147:
 926 0012 00BF     		.section	.text.HAL_TIM_OC_MspDeInit,"ax",%progbits
 927              		.align	2
 928              		.weak	HAL_TIM_OC_MspDeInit
 929              		.thumb
 930              		.thumb_func
 932              	HAL_TIM_OC_MspDeInit:
 933              	.LFB148:
 564:../../Drivers/STM32F7xx_HAL_Driver/Src/stm32f7xx_hal_tim.c **** 
 565:../../Drivers/STM32F7xx_HAL_Driver/Src/stm32f7xx_hal_tim.c **** /**
 566:../../Drivers/STM32F7xx_HAL_Driver/Src/stm32f7xx_hal_tim.c ****   * @brief  DeInitializes TIM Output Compare MSP.
 567:../../Drivers/STM32F7xx_HAL_Driver/Src/stm32f7xx_hal_tim.c ****   * @param  htim: pointer to a TIM_HandleTypeDef structure that contains
 568:../../Drivers/STM32F7xx_HAL_Driver/Src/stm32f7xx_hal_tim.c ****   *                the configuration information for TIM module.
 569:../../Drivers/STM32F7xx_HAL_Driver/Src/stm32f7xx_hal_tim.c ****   * @retval None
 570:../../Drivers/STM32F7xx_HAL_Driver/Src/stm32f7xx_hal_tim.c ****   */
 571:../../Drivers/STM32F7xx_HAL_Driver/Src/stm32f7xx_hal_tim.c **** __weak void HAL_TIM_OC_MspDeInit(TIM_HandleTypeDef *htim)
 572:../../Drivers/STM32F7xx_HAL_Driver/Src/stm32f7xx_hal_tim.c **** {
 934              		.loc 1 572 0
 935              		.cfi_startproc
 936              		@ args = 0, pretend = 0, frame = 8
 937              		@ frame_needed = 1, uses_anonymous_args = 0
ARM GAS  /tmp/cc04EBs1.s 			page 27


 938              		@ link register save eliminated.
 939 0000 80B4     		push	{r7}
 940              	.LCFI73:
 941              		.cfi_def_cfa_offset 4
 942              		.cfi_offset 7, -4
 943 0002 83B0     		sub	sp, sp, #12
 944              	.LCFI74:
 945              		.cfi_def_cfa_offset 16
 946 0004 00AF     		add	r7, sp, #0
 947              	.LCFI75:
 948              		.cfi_def_cfa_register 7
 949 0006 7860     		str	r0, [r7, #4]
 573:../../Drivers/STM32F7xx_HAL_Driver/Src/stm32f7xx_hal_tim.c ****   /* Prevent unused argument(s) compilation warning */
 574:../../Drivers/STM32F7xx_HAL_Driver/Src/stm32f7xx_hal_tim.c ****   UNUSED(htim);
 575:../../Drivers/STM32F7xx_HAL_Driver/Src/stm32f7xx_hal_tim.c ****  
 576:../../Drivers/STM32F7xx_HAL_Driver/Src/stm32f7xx_hal_tim.c ****   /* NOTE : This function Should not be modified, when the callback is needed,
 577:../../Drivers/STM32F7xx_HAL_Driver/Src/stm32f7xx_hal_tim.c ****             the HAL_TIM_OC_MspDeInit could be implemented in the user file
 578:../../Drivers/STM32F7xx_HAL_Driver/Src/stm32f7xx_hal_tim.c ****    */
 579:../../Drivers/STM32F7xx_HAL_Driver/Src/stm32f7xx_hal_tim.c **** }
 950              		.loc 1 579 0
 951 0008 0C37     		adds	r7, r7, #12
 952              	.LCFI76:
 953              		.cfi_def_cfa_offset 4
 954 000a BD46     		mov	sp, r7
 955              	.LCFI77:
 956              		.cfi_def_cfa_register 13
 957              		@ sp needed
 958 000c 5DF8047B 		ldr	r7, [sp], #4
 959              	.LCFI78:
 960              		.cfi_restore 7
 961              		.cfi_def_cfa_offset 0
 962 0010 7047     		bx	lr
 963              		.cfi_endproc
 964              	.LFE148:
 966 0012 00BF     		.section	.text.HAL_TIM_OC_Start,"ax",%progbits
 967              		.align	2
 968              		.global	HAL_TIM_OC_Start
 969              		.thumb
 970              		.thumb_func
 972              	HAL_TIM_OC_Start:
 973              	.LFB149:
 580:../../Drivers/STM32F7xx_HAL_Driver/Src/stm32f7xx_hal_tim.c **** 
 581:../../Drivers/STM32F7xx_HAL_Driver/Src/stm32f7xx_hal_tim.c **** /**
 582:../../Drivers/STM32F7xx_HAL_Driver/Src/stm32f7xx_hal_tim.c ****   * @brief  Starts the TIM Output Compare signal generation.
 583:../../Drivers/STM32F7xx_HAL_Driver/Src/stm32f7xx_hal_tim.c ****   * @param  htim: pointer to a TIM_HandleTypeDef structure that contains
 584:../../Drivers/STM32F7xx_HAL_Driver/Src/stm32f7xx_hal_tim.c ****   *                the configuration information for TIM module.  
 585:../../Drivers/STM32F7xx_HAL_Driver/Src/stm32f7xx_hal_tim.c ****   * @param  Channel: TIM Channel to be enabled.
 586:../../Drivers/STM32F7xx_HAL_Driver/Src/stm32f7xx_hal_tim.c ****   *          This parameter can be one of the following values:
 587:../../Drivers/STM32F7xx_HAL_Driver/Src/stm32f7xx_hal_tim.c ****   *            @arg TIM_CHANNEL_1: TIM Channel 1 selected
 588:../../Drivers/STM32F7xx_HAL_Driver/Src/stm32f7xx_hal_tim.c ****   *            @arg TIM_CHANNEL_2: TIM Channel 2 selected
 589:../../Drivers/STM32F7xx_HAL_Driver/Src/stm32f7xx_hal_tim.c ****   *            @arg TIM_CHANNEL_3: TIM Channel 3 selected
 590:../../Drivers/STM32F7xx_HAL_Driver/Src/stm32f7xx_hal_tim.c ****   *            @arg TIM_CHANNEL_4: TIM Channel 4 selected   
 591:../../Drivers/STM32F7xx_HAL_Driver/Src/stm32f7xx_hal_tim.c ****   * @retval HAL status
 592:../../Drivers/STM32F7xx_HAL_Driver/Src/stm32f7xx_hal_tim.c ****   */
 593:../../Drivers/STM32F7xx_HAL_Driver/Src/stm32f7xx_hal_tim.c **** HAL_StatusTypeDef HAL_TIM_OC_Start(TIM_HandleTypeDef *htim, uint32_t Channel)
 594:../../Drivers/STM32F7xx_HAL_Driver/Src/stm32f7xx_hal_tim.c **** {
 974              		.loc 1 594 0
ARM GAS  /tmp/cc04EBs1.s 			page 28


 975              		.cfi_startproc
 976              		@ args = 0, pretend = 0, frame = 8
 977              		@ frame_needed = 1, uses_anonymous_args = 0
 978 0000 80B5     		push	{r7, lr}
 979              	.LCFI79:
 980              		.cfi_def_cfa_offset 8
 981              		.cfi_offset 7, -8
 982              		.cfi_offset 14, -4
 983 0002 82B0     		sub	sp, sp, #8
 984              	.LCFI80:
 985              		.cfi_def_cfa_offset 16
 986 0004 00AF     		add	r7, sp, #0
 987              	.LCFI81:
 988              		.cfi_def_cfa_register 7
 989 0006 7860     		str	r0, [r7, #4]
 990 0008 3960     		str	r1, [r7]
 595:../../Drivers/STM32F7xx_HAL_Driver/Src/stm32f7xx_hal_tim.c ****   /* Check the parameters */
 596:../../Drivers/STM32F7xx_HAL_Driver/Src/stm32f7xx_hal_tim.c ****   assert_param(IS_TIM_CCX_INSTANCE(htim->Instance, Channel));
 597:../../Drivers/STM32F7xx_HAL_Driver/Src/stm32f7xx_hal_tim.c ****   
 598:../../Drivers/STM32F7xx_HAL_Driver/Src/stm32f7xx_hal_tim.c ****   /* Enable the Output compare channel */
 599:../../Drivers/STM32F7xx_HAL_Driver/Src/stm32f7xx_hal_tim.c ****   TIM_CCxChannelCmd(htim->Instance, Channel, TIM_CCx_ENABLE);
 991              		.loc 1 599 0
 992 000a 7B68     		ldr	r3, [r7, #4]
 993 000c 1B68     		ldr	r3, [r3]
 994 000e 1846     		mov	r0, r3
 995 0010 3968     		ldr	r1, [r7]
 996 0012 0122     		movs	r2, #1
 997 0014 FFF7FEFF 		bl	TIM_CCxChannelCmd
 600:../../Drivers/STM32F7xx_HAL_Driver/Src/stm32f7xx_hal_tim.c ****   
 601:../../Drivers/STM32F7xx_HAL_Driver/Src/stm32f7xx_hal_tim.c ****   if(IS_TIM_ADVANCED_INSTANCE(htim->Instance) != RESET)  
 998              		.loc 1 601 0
 999 0018 7B68     		ldr	r3, [r7, #4]
 1000 001a 1B68     		ldr	r3, [r3]
 1001 001c 104A     		ldr	r2, .L45
 1002 001e 9342     		cmp	r3, r2
 1003 0020 04D0     		beq	.L40
 1004              		.loc 1 601 0 is_stmt 0 discriminator 2
 1005 0022 7B68     		ldr	r3, [r7, #4]
 1006 0024 1B68     		ldr	r3, [r3]
 1007 0026 0F4A     		ldr	r2, .L45+4
 1008 0028 9342     		cmp	r3, r2
 1009 002a 01D1     		bne	.L41
 1010              	.L40:
 1011              		.loc 1 601 0 discriminator 3
 1012 002c 0123     		movs	r3, #1
 1013 002e 00E0     		b	.L42
 1014              	.L41:
 1015              		.loc 1 601 0 discriminator 4
 1016 0030 0023     		movs	r3, #0
 1017              	.L42:
 1018              		.loc 1 601 0 discriminator 6
 1019 0032 002B     		cmp	r3, #0
 1020 0034 07D0     		beq	.L43
 602:../../Drivers/STM32F7xx_HAL_Driver/Src/stm32f7xx_hal_tim.c ****   {
 603:../../Drivers/STM32F7xx_HAL_Driver/Src/stm32f7xx_hal_tim.c ****     /* Enable the main output */
 604:../../Drivers/STM32F7xx_HAL_Driver/Src/stm32f7xx_hal_tim.c ****     __HAL_TIM_MOE_ENABLE(htim);
 1021              		.loc 1 604 0 is_stmt 1
ARM GAS  /tmp/cc04EBs1.s 			page 29


 1022 0036 7B68     		ldr	r3, [r7, #4]
 1023 0038 1B68     		ldr	r3, [r3]
 1024 003a 7A68     		ldr	r2, [r7, #4]
 1025 003c 1268     		ldr	r2, [r2]
 1026 003e 526C     		ldr	r2, [r2, #68]
 1027 0040 42F40042 		orr	r2, r2, #32768
 1028 0044 5A64     		str	r2, [r3, #68]
 1029              	.L43:
 605:../../Drivers/STM32F7xx_HAL_Driver/Src/stm32f7xx_hal_tim.c ****   }
 606:../../Drivers/STM32F7xx_HAL_Driver/Src/stm32f7xx_hal_tim.c ****   
 607:../../Drivers/STM32F7xx_HAL_Driver/Src/stm32f7xx_hal_tim.c ****   /* Enable the Peripheral */
 608:../../Drivers/STM32F7xx_HAL_Driver/Src/stm32f7xx_hal_tim.c ****   __HAL_TIM_ENABLE(htim); 
 1030              		.loc 1 608 0
 1031 0046 7B68     		ldr	r3, [r7, #4]
 1032 0048 1B68     		ldr	r3, [r3]
 1033 004a 7A68     		ldr	r2, [r7, #4]
 1034 004c 1268     		ldr	r2, [r2]
 1035 004e 1268     		ldr	r2, [r2]
 1036 0050 42F00102 		orr	r2, r2, #1
 1037 0054 1A60     		str	r2, [r3]
 609:../../Drivers/STM32F7xx_HAL_Driver/Src/stm32f7xx_hal_tim.c ****   
 610:../../Drivers/STM32F7xx_HAL_Driver/Src/stm32f7xx_hal_tim.c ****   /* Return function status */
 611:../../Drivers/STM32F7xx_HAL_Driver/Src/stm32f7xx_hal_tim.c ****   return HAL_OK;
 1038              		.loc 1 611 0
 1039 0056 0023     		movs	r3, #0
 612:../../Drivers/STM32F7xx_HAL_Driver/Src/stm32f7xx_hal_tim.c **** }
 1040              		.loc 1 612 0
 1041 0058 1846     		mov	r0, r3
 1042 005a 0837     		adds	r7, r7, #8
 1043              	.LCFI82:
 1044              		.cfi_def_cfa_offset 8
 1045 005c BD46     		mov	sp, r7
 1046              	.LCFI83:
 1047              		.cfi_def_cfa_register 13
 1048              		@ sp needed
 1049 005e 80BD     		pop	{r7, pc}
 1050              	.L46:
 1051              		.align	2
 1052              	.L45:
 1053 0060 00000140 		.word	1073807360
 1054 0064 00040140 		.word	1073808384
 1055              		.cfi_endproc
 1056              	.LFE149:
 1058              		.section	.text.HAL_TIM_OC_Stop,"ax",%progbits
 1059              		.align	2
 1060              		.global	HAL_TIM_OC_Stop
 1061              		.thumb
 1062              		.thumb_func
 1064              	HAL_TIM_OC_Stop:
 1065              	.LFB150:
 613:../../Drivers/STM32F7xx_HAL_Driver/Src/stm32f7xx_hal_tim.c **** 
 614:../../Drivers/STM32F7xx_HAL_Driver/Src/stm32f7xx_hal_tim.c **** /**
 615:../../Drivers/STM32F7xx_HAL_Driver/Src/stm32f7xx_hal_tim.c ****   * @brief  Stops the TIM Output Compare signal generation.
 616:../../Drivers/STM32F7xx_HAL_Driver/Src/stm32f7xx_hal_tim.c ****   * @param  htim: pointer to a TIM_HandleTypeDef structure that contains
 617:../../Drivers/STM32F7xx_HAL_Driver/Src/stm32f7xx_hal_tim.c ****   *                the configuration information for TIM module.
 618:../../Drivers/STM32F7xx_HAL_Driver/Src/stm32f7xx_hal_tim.c ****   * @param  Channel: TIM Channel to be disabled.
 619:../../Drivers/STM32F7xx_HAL_Driver/Src/stm32f7xx_hal_tim.c ****   *          This parameter can be one of the following values:
ARM GAS  /tmp/cc04EBs1.s 			page 30


 620:../../Drivers/STM32F7xx_HAL_Driver/Src/stm32f7xx_hal_tim.c ****   *            @arg TIM_CHANNEL_1: TIM Channel 1 selected
 621:../../Drivers/STM32F7xx_HAL_Driver/Src/stm32f7xx_hal_tim.c ****   *            @arg TIM_CHANNEL_2: TIM Channel 2 selected
 622:../../Drivers/STM32F7xx_HAL_Driver/Src/stm32f7xx_hal_tim.c ****   *            @arg TIM_CHANNEL_3: TIM Channel 3 selected
 623:../../Drivers/STM32F7xx_HAL_Driver/Src/stm32f7xx_hal_tim.c ****   *            @arg TIM_CHANNEL_4: TIM Channel 4 selected
 624:../../Drivers/STM32F7xx_HAL_Driver/Src/stm32f7xx_hal_tim.c ****   * @retval HAL status
 625:../../Drivers/STM32F7xx_HAL_Driver/Src/stm32f7xx_hal_tim.c ****   */
 626:../../Drivers/STM32F7xx_HAL_Driver/Src/stm32f7xx_hal_tim.c **** HAL_StatusTypeDef HAL_TIM_OC_Stop(TIM_HandleTypeDef *htim, uint32_t Channel)
 627:../../Drivers/STM32F7xx_HAL_Driver/Src/stm32f7xx_hal_tim.c **** {
 1066              		.loc 1 627 0
 1067              		.cfi_startproc
 1068              		@ args = 0, pretend = 0, frame = 8
 1069              		@ frame_needed = 1, uses_anonymous_args = 0
 1070 0000 80B5     		push	{r7, lr}
 1071              	.LCFI84:
 1072              		.cfi_def_cfa_offset 8
 1073              		.cfi_offset 7, -8
 1074              		.cfi_offset 14, -4
 1075 0002 82B0     		sub	sp, sp, #8
 1076              	.LCFI85:
 1077              		.cfi_def_cfa_offset 16
 1078 0004 00AF     		add	r7, sp, #0
 1079              	.LCFI86:
 1080              		.cfi_def_cfa_register 7
 1081 0006 7860     		str	r0, [r7, #4]
 1082 0008 3960     		str	r1, [r7]
 628:../../Drivers/STM32F7xx_HAL_Driver/Src/stm32f7xx_hal_tim.c ****   /* Check the parameters */
 629:../../Drivers/STM32F7xx_HAL_Driver/Src/stm32f7xx_hal_tim.c ****   assert_param(IS_TIM_CCX_INSTANCE(htim->Instance, Channel));
 630:../../Drivers/STM32F7xx_HAL_Driver/Src/stm32f7xx_hal_tim.c ****   
 631:../../Drivers/STM32F7xx_HAL_Driver/Src/stm32f7xx_hal_tim.c ****   /* Disable the Output compare channel */
 632:../../Drivers/STM32F7xx_HAL_Driver/Src/stm32f7xx_hal_tim.c ****   TIM_CCxChannelCmd(htim->Instance, Channel, TIM_CCx_DISABLE);
 1083              		.loc 1 632 0
 1084 000a 7B68     		ldr	r3, [r7, #4]
 1085 000c 1B68     		ldr	r3, [r3]
 1086 000e 1846     		mov	r0, r3
 1087 0010 3968     		ldr	r1, [r7]
 1088 0012 0022     		movs	r2, #0
 1089 0014 FFF7FEFF 		bl	TIM_CCxChannelCmd
 633:../../Drivers/STM32F7xx_HAL_Driver/Src/stm32f7xx_hal_tim.c ****   
 634:../../Drivers/STM32F7xx_HAL_Driver/Src/stm32f7xx_hal_tim.c ****   if(IS_TIM_ADVANCED_INSTANCE(htim->Instance) != RESET)  
 1090              		.loc 1 634 0
 1091 0018 7B68     		ldr	r3, [r7, #4]
 1092 001a 1B68     		ldr	r3, [r3]
 1093 001c 204A     		ldr	r2, .L54
 1094 001e 9342     		cmp	r3, r2
 1095 0020 04D0     		beq	.L48
 1096              		.loc 1 634 0 is_stmt 0 discriminator 2
 1097 0022 7B68     		ldr	r3, [r7, #4]
 1098 0024 1B68     		ldr	r3, [r3]
 1099 0026 1F4A     		ldr	r2, .L54+4
 1100 0028 9342     		cmp	r3, r2
 1101 002a 01D1     		bne	.L49
 1102              	.L48:
 1103              		.loc 1 634 0 discriminator 3
 1104 002c 0123     		movs	r3, #1
 1105 002e 00E0     		b	.L50
 1106              	.L49:
 1107              		.loc 1 634 0 discriminator 4
ARM GAS  /tmp/cc04EBs1.s 			page 31


 1108 0030 0023     		movs	r3, #0
 1109              	.L50:
 1110              		.loc 1 634 0 discriminator 6
 1111 0032 002B     		cmp	r3, #0
 1112 0034 17D0     		beq	.L51
 635:../../Drivers/STM32F7xx_HAL_Driver/Src/stm32f7xx_hal_tim.c ****   {
 636:../../Drivers/STM32F7xx_HAL_Driver/Src/stm32f7xx_hal_tim.c ****     /* Disable the Main Output */
 637:../../Drivers/STM32F7xx_HAL_Driver/Src/stm32f7xx_hal_tim.c ****     __HAL_TIM_MOE_DISABLE(htim);
 1113              		.loc 1 637 0 is_stmt 1
 1114 0036 7B68     		ldr	r3, [r7, #4]
 1115 0038 1B68     		ldr	r3, [r3]
 1116 003a 1A6A     		ldr	r2, [r3, #32]
 1117 003c 41F21113 		movw	r3, #4369
 1118 0040 1340     		ands	r3, r3, r2
 1119 0042 002B     		cmp	r3, #0
 1120 0044 0FD1     		bne	.L51
 1121              		.loc 1 637 0 is_stmt 0 discriminator 1
 1122 0046 7B68     		ldr	r3, [r7, #4]
 1123 0048 1B68     		ldr	r3, [r3]
 1124 004a 1A6A     		ldr	r2, [r3, #32]
 1125 004c 40F24443 		movw	r3, #1092
 1126 0050 1340     		ands	r3, r3, r2
 1127 0052 002B     		cmp	r3, #0
 1128 0054 07D1     		bne	.L51
 1129              		.loc 1 637 0 discriminator 2
 1130 0056 7B68     		ldr	r3, [r7, #4]
 1131 0058 1B68     		ldr	r3, [r3]
 1132 005a 7A68     		ldr	r2, [r7, #4]
 1133 005c 1268     		ldr	r2, [r2]
 1134 005e 526C     		ldr	r2, [r2, #68]
 1135 0060 22F40042 		bic	r2, r2, #32768
 1136 0064 5A64     		str	r2, [r3, #68]
 1137              	.L51:
 638:../../Drivers/STM32F7xx_HAL_Driver/Src/stm32f7xx_hal_tim.c ****   }  
 639:../../Drivers/STM32F7xx_HAL_Driver/Src/stm32f7xx_hal_tim.c ****   
 640:../../Drivers/STM32F7xx_HAL_Driver/Src/stm32f7xx_hal_tim.c ****   /* Disable the Peripheral */
 641:../../Drivers/STM32F7xx_HAL_Driver/Src/stm32f7xx_hal_tim.c ****   __HAL_TIM_DISABLE(htim);  
 1138              		.loc 1 641 0 is_stmt 1
 1139 0066 7B68     		ldr	r3, [r7, #4]
 1140 0068 1B68     		ldr	r3, [r3]
 1141 006a 1A6A     		ldr	r2, [r3, #32]
 1142 006c 41F21113 		movw	r3, #4369
 1143 0070 1340     		ands	r3, r3, r2
 1144 0072 002B     		cmp	r3, #0
 1145 0074 0FD1     		bne	.L52
 1146              		.loc 1 641 0 is_stmt 0 discriminator 1
 1147 0076 7B68     		ldr	r3, [r7, #4]
 1148 0078 1B68     		ldr	r3, [r3]
 1149 007a 1A6A     		ldr	r2, [r3, #32]
 1150 007c 40F24443 		movw	r3, #1092
 1151 0080 1340     		ands	r3, r3, r2
 1152 0082 002B     		cmp	r3, #0
 1153 0084 07D1     		bne	.L52
 1154              		.loc 1 641 0 discriminator 2
 1155 0086 7B68     		ldr	r3, [r7, #4]
 1156 0088 1B68     		ldr	r3, [r3]
 1157 008a 7A68     		ldr	r2, [r7, #4]
ARM GAS  /tmp/cc04EBs1.s 			page 32


 1158 008c 1268     		ldr	r2, [r2]
 1159 008e 1268     		ldr	r2, [r2]
 1160 0090 22F00102 		bic	r2, r2, #1
 1161 0094 1A60     		str	r2, [r3]
 1162              	.L52:
 642:../../Drivers/STM32F7xx_HAL_Driver/Src/stm32f7xx_hal_tim.c ****   
 643:../../Drivers/STM32F7xx_HAL_Driver/Src/stm32f7xx_hal_tim.c ****   /* Return function status */
 644:../../Drivers/STM32F7xx_HAL_Driver/Src/stm32f7xx_hal_tim.c ****   return HAL_OK;
 1163              		.loc 1 644 0 is_stmt 1
 1164 0096 0023     		movs	r3, #0
 645:../../Drivers/STM32F7xx_HAL_Driver/Src/stm32f7xx_hal_tim.c **** }  
 1165              		.loc 1 645 0
 1166 0098 1846     		mov	r0, r3
 1167 009a 0837     		adds	r7, r7, #8
 1168              	.LCFI87:
 1169              		.cfi_def_cfa_offset 8
 1170 009c BD46     		mov	sp, r7
 1171              	.LCFI88:
 1172              		.cfi_def_cfa_register 13
 1173              		@ sp needed
 1174 009e 80BD     		pop	{r7, pc}
 1175              	.L55:
 1176              		.align	2
 1177              	.L54:
 1178 00a0 00000140 		.word	1073807360
 1179 00a4 00040140 		.word	1073808384
 1180              		.cfi_endproc
 1181              	.LFE150:
 1183              		.section	.text.HAL_TIM_OC_Start_IT,"ax",%progbits
 1184              		.align	2
 1185              		.global	HAL_TIM_OC_Start_IT
 1186              		.thumb
 1187              		.thumb_func
 1189              	HAL_TIM_OC_Start_IT:
 1190              	.LFB151:
 646:../../Drivers/STM32F7xx_HAL_Driver/Src/stm32f7xx_hal_tim.c **** 
 647:../../Drivers/STM32F7xx_HAL_Driver/Src/stm32f7xx_hal_tim.c **** /**
 648:../../Drivers/STM32F7xx_HAL_Driver/Src/stm32f7xx_hal_tim.c ****   * @brief  Starts the TIM Output Compare signal generation in interrupt mode.
 649:../../Drivers/STM32F7xx_HAL_Driver/Src/stm32f7xx_hal_tim.c ****   * @param  htim: pointer to a TIM_HandleTypeDef structure that contains
 650:../../Drivers/STM32F7xx_HAL_Driver/Src/stm32f7xx_hal_tim.c ****   *                the configuration information for TIM module.
 651:../../Drivers/STM32F7xx_HAL_Driver/Src/stm32f7xx_hal_tim.c ****   * @param  Channel: TIM Channel to be enabled.
 652:../../Drivers/STM32F7xx_HAL_Driver/Src/stm32f7xx_hal_tim.c ****   *          This parameter can be one of the following values:
 653:../../Drivers/STM32F7xx_HAL_Driver/Src/stm32f7xx_hal_tim.c ****   *            @arg TIM_CHANNEL_1: TIM Channel 1 selected
 654:../../Drivers/STM32F7xx_HAL_Driver/Src/stm32f7xx_hal_tim.c ****   *            @arg TIM_CHANNEL_2: TIM Channel 2 selected
 655:../../Drivers/STM32F7xx_HAL_Driver/Src/stm32f7xx_hal_tim.c ****   *            @arg TIM_CHANNEL_3: TIM Channel 3 selected
 656:../../Drivers/STM32F7xx_HAL_Driver/Src/stm32f7xx_hal_tim.c ****   *            @arg TIM_CHANNEL_4: TIM Channel 4 selected
 657:../../Drivers/STM32F7xx_HAL_Driver/Src/stm32f7xx_hal_tim.c ****   * @retval HAL status
 658:../../Drivers/STM32F7xx_HAL_Driver/Src/stm32f7xx_hal_tim.c ****   */
 659:../../Drivers/STM32F7xx_HAL_Driver/Src/stm32f7xx_hal_tim.c **** HAL_StatusTypeDef HAL_TIM_OC_Start_IT(TIM_HandleTypeDef *htim, uint32_t Channel)
 660:../../Drivers/STM32F7xx_HAL_Driver/Src/stm32f7xx_hal_tim.c **** {
 1191              		.loc 1 660 0
 1192              		.cfi_startproc
 1193              		@ args = 0, pretend = 0, frame = 8
 1194              		@ frame_needed = 1, uses_anonymous_args = 0
 1195 0000 80B5     		push	{r7, lr}
 1196              	.LCFI89:
 1197              		.cfi_def_cfa_offset 8
ARM GAS  /tmp/cc04EBs1.s 			page 33


 1198              		.cfi_offset 7, -8
 1199              		.cfi_offset 14, -4
 1200 0002 82B0     		sub	sp, sp, #8
 1201              	.LCFI90:
 1202              		.cfi_def_cfa_offset 16
 1203 0004 00AF     		add	r7, sp, #0
 1204              	.LCFI91:
 1205              		.cfi_def_cfa_register 7
 1206 0006 7860     		str	r0, [r7, #4]
 1207 0008 3960     		str	r1, [r7]
 661:../../Drivers/STM32F7xx_HAL_Driver/Src/stm32f7xx_hal_tim.c ****   /* Check the parameters */
 662:../../Drivers/STM32F7xx_HAL_Driver/Src/stm32f7xx_hal_tim.c ****   assert_param(IS_TIM_CCX_INSTANCE(htim->Instance, Channel));
 663:../../Drivers/STM32F7xx_HAL_Driver/Src/stm32f7xx_hal_tim.c ****   
 664:../../Drivers/STM32F7xx_HAL_Driver/Src/stm32f7xx_hal_tim.c ****   switch (Channel)
 1208              		.loc 1 664 0
 1209 000a 3B68     		ldr	r3, [r7]
 1210 000c 0C2B     		cmp	r3, #12
 1211 000e 41D8     		bhi	.L69
 1212 0010 01A2     		adr	r2, .L59
 1213 0012 52F823F0 		ldr	pc, [r2, r3, lsl #2]
 1214 0016 00BF     		.p2align 2
 1215              	.L59:
 1216 0018 4D000000 		.word	.L58+1
 1217 001c 95000000 		.word	.L69+1
 1218 0020 95000000 		.word	.L69+1
 1219 0024 95000000 		.word	.L69+1
 1220 0028 5F000000 		.word	.L60+1
 1221 002c 95000000 		.word	.L69+1
 1222 0030 95000000 		.word	.L69+1
 1223 0034 95000000 		.word	.L69+1
 1224 0038 71000000 		.word	.L61+1
 1225 003c 95000000 		.word	.L69+1
 1226 0040 95000000 		.word	.L69+1
 1227 0044 95000000 		.word	.L69+1
 1228 0048 83000000 		.word	.L62+1
 1229              		.p2align 1
 1230              	.L58:
 665:../../Drivers/STM32F7xx_HAL_Driver/Src/stm32f7xx_hal_tim.c ****   {
 666:../../Drivers/STM32F7xx_HAL_Driver/Src/stm32f7xx_hal_tim.c ****     case TIM_CHANNEL_1:
 667:../../Drivers/STM32F7xx_HAL_Driver/Src/stm32f7xx_hal_tim.c ****     {       
 668:../../Drivers/STM32F7xx_HAL_Driver/Src/stm32f7xx_hal_tim.c ****       /* Enable the TIM Capture/Compare 1 interrupt */
 669:../../Drivers/STM32F7xx_HAL_Driver/Src/stm32f7xx_hal_tim.c ****       __HAL_TIM_ENABLE_IT(htim, TIM_IT_CC1);
 1231              		.loc 1 669 0
 1232 004c 7B68     		ldr	r3, [r7, #4]
 1233 004e 1B68     		ldr	r3, [r3]
 1234 0050 7A68     		ldr	r2, [r7, #4]
 1235 0052 1268     		ldr	r2, [r2]
 1236 0054 D268     		ldr	r2, [r2, #12]
 1237 0056 42F00202 		orr	r2, r2, #2
 1238 005a DA60     		str	r2, [r3, #12]
 670:../../Drivers/STM32F7xx_HAL_Driver/Src/stm32f7xx_hal_tim.c ****     }
 671:../../Drivers/STM32F7xx_HAL_Driver/Src/stm32f7xx_hal_tim.c ****     break;
 1239              		.loc 1 671 0
 1240 005c 1BE0     		b	.L63
 1241              	.L60:
 672:../../Drivers/STM32F7xx_HAL_Driver/Src/stm32f7xx_hal_tim.c ****     
 673:../../Drivers/STM32F7xx_HAL_Driver/Src/stm32f7xx_hal_tim.c ****     case TIM_CHANNEL_2:
ARM GAS  /tmp/cc04EBs1.s 			page 34


 674:../../Drivers/STM32F7xx_HAL_Driver/Src/stm32f7xx_hal_tim.c ****     {
 675:../../Drivers/STM32F7xx_HAL_Driver/Src/stm32f7xx_hal_tim.c ****       /* Enable the TIM Capture/Compare 2 interrupt */
 676:../../Drivers/STM32F7xx_HAL_Driver/Src/stm32f7xx_hal_tim.c ****       __HAL_TIM_ENABLE_IT(htim, TIM_IT_CC2);
 1242              		.loc 1 676 0
 1243 005e 7B68     		ldr	r3, [r7, #4]
 1244 0060 1B68     		ldr	r3, [r3]
 1245 0062 7A68     		ldr	r2, [r7, #4]
 1246 0064 1268     		ldr	r2, [r2]
 1247 0066 D268     		ldr	r2, [r2, #12]
 1248 0068 42F00402 		orr	r2, r2, #4
 1249 006c DA60     		str	r2, [r3, #12]
 677:../../Drivers/STM32F7xx_HAL_Driver/Src/stm32f7xx_hal_tim.c ****     }
 678:../../Drivers/STM32F7xx_HAL_Driver/Src/stm32f7xx_hal_tim.c ****     break;
 1250              		.loc 1 678 0
 1251 006e 12E0     		b	.L63
 1252              	.L61:
 679:../../Drivers/STM32F7xx_HAL_Driver/Src/stm32f7xx_hal_tim.c ****     
 680:../../Drivers/STM32F7xx_HAL_Driver/Src/stm32f7xx_hal_tim.c ****     case TIM_CHANNEL_3:
 681:../../Drivers/STM32F7xx_HAL_Driver/Src/stm32f7xx_hal_tim.c ****     {
 682:../../Drivers/STM32F7xx_HAL_Driver/Src/stm32f7xx_hal_tim.c ****       /* Enable the TIM Capture/Compare 3 interrupt */
 683:../../Drivers/STM32F7xx_HAL_Driver/Src/stm32f7xx_hal_tim.c ****       __HAL_TIM_ENABLE_IT(htim, TIM_IT_CC3);
 1253              		.loc 1 683 0
 1254 0070 7B68     		ldr	r3, [r7, #4]
 1255 0072 1B68     		ldr	r3, [r3]
 1256 0074 7A68     		ldr	r2, [r7, #4]
 1257 0076 1268     		ldr	r2, [r2]
 1258 0078 D268     		ldr	r2, [r2, #12]
 1259 007a 42F00802 		orr	r2, r2, #8
 1260 007e DA60     		str	r2, [r3, #12]
 684:../../Drivers/STM32F7xx_HAL_Driver/Src/stm32f7xx_hal_tim.c ****     }
 685:../../Drivers/STM32F7xx_HAL_Driver/Src/stm32f7xx_hal_tim.c ****     break;
 1261              		.loc 1 685 0
 1262 0080 09E0     		b	.L63
 1263              	.L62:
 686:../../Drivers/STM32F7xx_HAL_Driver/Src/stm32f7xx_hal_tim.c ****     
 687:../../Drivers/STM32F7xx_HAL_Driver/Src/stm32f7xx_hal_tim.c ****     case TIM_CHANNEL_4:
 688:../../Drivers/STM32F7xx_HAL_Driver/Src/stm32f7xx_hal_tim.c ****     {
 689:../../Drivers/STM32F7xx_HAL_Driver/Src/stm32f7xx_hal_tim.c ****       /* Enable the TIM Capture/Compare 4 interrupt */
 690:../../Drivers/STM32F7xx_HAL_Driver/Src/stm32f7xx_hal_tim.c ****       __HAL_TIM_ENABLE_IT(htim, TIM_IT_CC4);
 1264              		.loc 1 690 0
 1265 0082 7B68     		ldr	r3, [r7, #4]
 1266 0084 1B68     		ldr	r3, [r3]
 1267 0086 7A68     		ldr	r2, [r7, #4]
 1268 0088 1268     		ldr	r2, [r2]
 1269 008a D268     		ldr	r2, [r2, #12]
 1270 008c 42F01002 		orr	r2, r2, #16
 1271 0090 DA60     		str	r2, [r3, #12]
 691:../../Drivers/STM32F7xx_HAL_Driver/Src/stm32f7xx_hal_tim.c ****     }
 692:../../Drivers/STM32F7xx_HAL_Driver/Src/stm32f7xx_hal_tim.c ****     break;
 1272              		.loc 1 692 0
 1273 0092 00E0     		b	.L63
 1274              	.L69:
 693:../../Drivers/STM32F7xx_HAL_Driver/Src/stm32f7xx_hal_tim.c ****     
 694:../../Drivers/STM32F7xx_HAL_Driver/Src/stm32f7xx_hal_tim.c ****     default:
 695:../../Drivers/STM32F7xx_HAL_Driver/Src/stm32f7xx_hal_tim.c ****     break;
 1275              		.loc 1 695 0
 1276 0094 00BF     		nop
ARM GAS  /tmp/cc04EBs1.s 			page 35


 1277              	.L63:
 696:../../Drivers/STM32F7xx_HAL_Driver/Src/stm32f7xx_hal_tim.c ****   } 
 697:../../Drivers/STM32F7xx_HAL_Driver/Src/stm32f7xx_hal_tim.c **** 
 698:../../Drivers/STM32F7xx_HAL_Driver/Src/stm32f7xx_hal_tim.c ****   /* Enable the Output compare channel */
 699:../../Drivers/STM32F7xx_HAL_Driver/Src/stm32f7xx_hal_tim.c ****   TIM_CCxChannelCmd(htim->Instance, Channel, TIM_CCx_ENABLE);
 1278              		.loc 1 699 0
 1279 0096 7B68     		ldr	r3, [r7, #4]
 1280 0098 1B68     		ldr	r3, [r3]
 1281 009a 1846     		mov	r0, r3
 1282 009c 3968     		ldr	r1, [r7]
 1283 009e 0122     		movs	r2, #1
 1284 00a0 FFF7FEFF 		bl	TIM_CCxChannelCmd
 700:../../Drivers/STM32F7xx_HAL_Driver/Src/stm32f7xx_hal_tim.c ****   
 701:../../Drivers/STM32F7xx_HAL_Driver/Src/stm32f7xx_hal_tim.c ****   if(IS_TIM_ADVANCED_INSTANCE(htim->Instance) != RESET)  
 1285              		.loc 1 701 0
 1286 00a4 7B68     		ldr	r3, [r7, #4]
 1287 00a6 1B68     		ldr	r3, [r3]
 1288 00a8 104A     		ldr	r2, .L70
 1289 00aa 9342     		cmp	r3, r2
 1290 00ac 04D0     		beq	.L64
 1291              		.loc 1 701 0 is_stmt 0 discriminator 2
 1292 00ae 7B68     		ldr	r3, [r7, #4]
 1293 00b0 1B68     		ldr	r3, [r3]
 1294 00b2 0F4A     		ldr	r2, .L70+4
 1295 00b4 9342     		cmp	r3, r2
 1296 00b6 01D1     		bne	.L65
 1297              	.L64:
 1298              		.loc 1 701 0 discriminator 3
 1299 00b8 0123     		movs	r3, #1
 1300 00ba 00E0     		b	.L66
 1301              	.L65:
 1302              		.loc 1 701 0 discriminator 4
 1303 00bc 0023     		movs	r3, #0
 1304              	.L66:
 1305              		.loc 1 701 0 discriminator 6
 1306 00be 002B     		cmp	r3, #0
 1307 00c0 07D0     		beq	.L67
 702:../../Drivers/STM32F7xx_HAL_Driver/Src/stm32f7xx_hal_tim.c ****   {
 703:../../Drivers/STM32F7xx_HAL_Driver/Src/stm32f7xx_hal_tim.c ****     /* Enable the main output */
 704:../../Drivers/STM32F7xx_HAL_Driver/Src/stm32f7xx_hal_tim.c ****     __HAL_TIM_MOE_ENABLE(htim);
 1308              		.loc 1 704 0 is_stmt 1
 1309 00c2 7B68     		ldr	r3, [r7, #4]
 1310 00c4 1B68     		ldr	r3, [r3]
 1311 00c6 7A68     		ldr	r2, [r7, #4]
 1312 00c8 1268     		ldr	r2, [r2]
 1313 00ca 526C     		ldr	r2, [r2, #68]
 1314 00cc 42F40042 		orr	r2, r2, #32768
 1315 00d0 5A64     		str	r2, [r3, #68]
 1316              	.L67:
 705:../../Drivers/STM32F7xx_HAL_Driver/Src/stm32f7xx_hal_tim.c ****   }
 706:../../Drivers/STM32F7xx_HAL_Driver/Src/stm32f7xx_hal_tim.c **** 
 707:../../Drivers/STM32F7xx_HAL_Driver/Src/stm32f7xx_hal_tim.c ****   /* Enable the Peripheral */
 708:../../Drivers/STM32F7xx_HAL_Driver/Src/stm32f7xx_hal_tim.c ****   __HAL_TIM_ENABLE(htim);
 1317              		.loc 1 708 0
 1318 00d2 7B68     		ldr	r3, [r7, #4]
 1319 00d4 1B68     		ldr	r3, [r3]
 1320 00d6 7A68     		ldr	r2, [r7, #4]
ARM GAS  /tmp/cc04EBs1.s 			page 36


 1321 00d8 1268     		ldr	r2, [r2]
 1322 00da 1268     		ldr	r2, [r2]
 1323 00dc 42F00102 		orr	r2, r2, #1
 1324 00e0 1A60     		str	r2, [r3]
 709:../../Drivers/STM32F7xx_HAL_Driver/Src/stm32f7xx_hal_tim.c ****   
 710:../../Drivers/STM32F7xx_HAL_Driver/Src/stm32f7xx_hal_tim.c ****   /* Return function status */
 711:../../Drivers/STM32F7xx_HAL_Driver/Src/stm32f7xx_hal_tim.c ****   return HAL_OK;
 1325              		.loc 1 711 0
 1326 00e2 0023     		movs	r3, #0
 712:../../Drivers/STM32F7xx_HAL_Driver/Src/stm32f7xx_hal_tim.c **** }
 1327              		.loc 1 712 0
 1328 00e4 1846     		mov	r0, r3
 1329 00e6 0837     		adds	r7, r7, #8
 1330              	.LCFI92:
 1331              		.cfi_def_cfa_offset 8
 1332 00e8 BD46     		mov	sp, r7
 1333              	.LCFI93:
 1334              		.cfi_def_cfa_register 13
 1335              		@ sp needed
 1336 00ea 80BD     		pop	{r7, pc}
 1337              	.L71:
 1338              		.align	2
 1339              	.L70:
 1340 00ec 00000140 		.word	1073807360
 1341 00f0 00040140 		.word	1073808384
 1342              		.cfi_endproc
 1343              	.LFE151:
 1345              		.section	.text.HAL_TIM_OC_Stop_IT,"ax",%progbits
 1346              		.align	2
 1347              		.global	HAL_TIM_OC_Stop_IT
 1348              		.thumb
 1349              		.thumb_func
 1351              	HAL_TIM_OC_Stop_IT:
 1352              	.LFB152:
 713:../../Drivers/STM32F7xx_HAL_Driver/Src/stm32f7xx_hal_tim.c **** 
 714:../../Drivers/STM32F7xx_HAL_Driver/Src/stm32f7xx_hal_tim.c **** /**
 715:../../Drivers/STM32F7xx_HAL_Driver/Src/stm32f7xx_hal_tim.c ****   * @brief  Stops the TIM Output Compare signal generation in interrupt mode.
 716:../../Drivers/STM32F7xx_HAL_Driver/Src/stm32f7xx_hal_tim.c ****   * @param  htim: pointer to a TIM_HandleTypeDef structure that contains
 717:../../Drivers/STM32F7xx_HAL_Driver/Src/stm32f7xx_hal_tim.c ****   *                the configuration information for TIM module.
 718:../../Drivers/STM32F7xx_HAL_Driver/Src/stm32f7xx_hal_tim.c ****   * @param  Channel: TIM Channel to be disabled.
 719:../../Drivers/STM32F7xx_HAL_Driver/Src/stm32f7xx_hal_tim.c ****   *          This parameter can be one of the following values:
 720:../../Drivers/STM32F7xx_HAL_Driver/Src/stm32f7xx_hal_tim.c ****   *            @arg TIM_CHANNEL_1: TIM Channel 1 selected
 721:../../Drivers/STM32F7xx_HAL_Driver/Src/stm32f7xx_hal_tim.c ****   *            @arg TIM_CHANNEL_2: TIM Channel 2 selected
 722:../../Drivers/STM32F7xx_HAL_Driver/Src/stm32f7xx_hal_tim.c ****   *            @arg TIM_CHANNEL_3: TIM Channel 3 selected
 723:../../Drivers/STM32F7xx_HAL_Driver/Src/stm32f7xx_hal_tim.c ****   *            @arg TIM_CHANNEL_4: TIM Channel 4 selected
 724:../../Drivers/STM32F7xx_HAL_Driver/Src/stm32f7xx_hal_tim.c ****   * @retval HAL status
 725:../../Drivers/STM32F7xx_HAL_Driver/Src/stm32f7xx_hal_tim.c ****   */
 726:../../Drivers/STM32F7xx_HAL_Driver/Src/stm32f7xx_hal_tim.c **** HAL_StatusTypeDef HAL_TIM_OC_Stop_IT(TIM_HandleTypeDef *htim, uint32_t Channel)
 727:../../Drivers/STM32F7xx_HAL_Driver/Src/stm32f7xx_hal_tim.c **** {
 1353              		.loc 1 727 0
 1354              		.cfi_startproc
 1355              		@ args = 0, pretend = 0, frame = 8
 1356              		@ frame_needed = 1, uses_anonymous_args = 0
 1357 0000 80B5     		push	{r7, lr}
 1358              	.LCFI94:
 1359              		.cfi_def_cfa_offset 8
 1360              		.cfi_offset 7, -8
ARM GAS  /tmp/cc04EBs1.s 			page 37


 1361              		.cfi_offset 14, -4
 1362 0002 82B0     		sub	sp, sp, #8
 1363              	.LCFI95:
 1364              		.cfi_def_cfa_offset 16
 1365 0004 00AF     		add	r7, sp, #0
 1366              	.LCFI96:
 1367              		.cfi_def_cfa_register 7
 1368 0006 7860     		str	r0, [r7, #4]
 1369 0008 3960     		str	r1, [r7]
 728:../../Drivers/STM32F7xx_HAL_Driver/Src/stm32f7xx_hal_tim.c ****   /* Check the parameters */
 729:../../Drivers/STM32F7xx_HAL_Driver/Src/stm32f7xx_hal_tim.c ****   assert_param(IS_TIM_CCX_INSTANCE(htim->Instance, Channel));
 730:../../Drivers/STM32F7xx_HAL_Driver/Src/stm32f7xx_hal_tim.c ****   
 731:../../Drivers/STM32F7xx_HAL_Driver/Src/stm32f7xx_hal_tim.c ****   switch (Channel)
 1370              		.loc 1 731 0
 1371 000a 3B68     		ldr	r3, [r7]
 1372 000c 0C2B     		cmp	r3, #12
 1373 000e 41D8     		bhi	.L86
 1374 0010 01A2     		adr	r2, .L75
 1375 0012 52F823F0 		ldr	pc, [r2, r3, lsl #2]
 1376 0016 00BF     		.p2align 2
 1377              	.L75:
 1378 0018 4D000000 		.word	.L74+1
 1379 001c 95000000 		.word	.L86+1
 1380 0020 95000000 		.word	.L86+1
 1381 0024 95000000 		.word	.L86+1
 1382 0028 5F000000 		.word	.L76+1
 1383 002c 95000000 		.word	.L86+1
 1384 0030 95000000 		.word	.L86+1
 1385 0034 95000000 		.word	.L86+1
 1386 0038 71000000 		.word	.L77+1
 1387 003c 95000000 		.word	.L86+1
 1388 0040 95000000 		.word	.L86+1
 1389 0044 95000000 		.word	.L86+1
 1390 0048 83000000 		.word	.L78+1
 1391              		.p2align 1
 1392              	.L74:
 732:../../Drivers/STM32F7xx_HAL_Driver/Src/stm32f7xx_hal_tim.c ****   {
 733:../../Drivers/STM32F7xx_HAL_Driver/Src/stm32f7xx_hal_tim.c ****     case TIM_CHANNEL_1:
 734:../../Drivers/STM32F7xx_HAL_Driver/Src/stm32f7xx_hal_tim.c ****     {       
 735:../../Drivers/STM32F7xx_HAL_Driver/Src/stm32f7xx_hal_tim.c ****       /* Disable the TIM Capture/Compare 1 interrupt */
 736:../../Drivers/STM32F7xx_HAL_Driver/Src/stm32f7xx_hal_tim.c ****       __HAL_TIM_DISABLE_IT(htim, TIM_IT_CC1);
 1393              		.loc 1 736 0
 1394 004c 7B68     		ldr	r3, [r7, #4]
 1395 004e 1B68     		ldr	r3, [r3]
 1396 0050 7A68     		ldr	r2, [r7, #4]
 1397 0052 1268     		ldr	r2, [r2]
 1398 0054 D268     		ldr	r2, [r2, #12]
 1399 0056 22F00202 		bic	r2, r2, #2
 1400 005a DA60     		str	r2, [r3, #12]
 737:../../Drivers/STM32F7xx_HAL_Driver/Src/stm32f7xx_hal_tim.c ****     }
 738:../../Drivers/STM32F7xx_HAL_Driver/Src/stm32f7xx_hal_tim.c ****     break;
 1401              		.loc 1 738 0
 1402 005c 1BE0     		b	.L79
 1403              	.L76:
 739:../../Drivers/STM32F7xx_HAL_Driver/Src/stm32f7xx_hal_tim.c ****     
 740:../../Drivers/STM32F7xx_HAL_Driver/Src/stm32f7xx_hal_tim.c ****     case TIM_CHANNEL_2:
 741:../../Drivers/STM32F7xx_HAL_Driver/Src/stm32f7xx_hal_tim.c ****     {
ARM GAS  /tmp/cc04EBs1.s 			page 38


 742:../../Drivers/STM32F7xx_HAL_Driver/Src/stm32f7xx_hal_tim.c ****       /* Disable the TIM Capture/Compare 2 interrupt */
 743:../../Drivers/STM32F7xx_HAL_Driver/Src/stm32f7xx_hal_tim.c ****       __HAL_TIM_DISABLE_IT(htim, TIM_IT_CC2);
 1404              		.loc 1 743 0
 1405 005e 7B68     		ldr	r3, [r7, #4]
 1406 0060 1B68     		ldr	r3, [r3]
 1407 0062 7A68     		ldr	r2, [r7, #4]
 1408 0064 1268     		ldr	r2, [r2]
 1409 0066 D268     		ldr	r2, [r2, #12]
 1410 0068 22F00402 		bic	r2, r2, #4
 1411 006c DA60     		str	r2, [r3, #12]
 744:../../Drivers/STM32F7xx_HAL_Driver/Src/stm32f7xx_hal_tim.c ****     }
 745:../../Drivers/STM32F7xx_HAL_Driver/Src/stm32f7xx_hal_tim.c ****     break;
 1412              		.loc 1 745 0
 1413 006e 12E0     		b	.L79
 1414              	.L77:
 746:../../Drivers/STM32F7xx_HAL_Driver/Src/stm32f7xx_hal_tim.c ****     
 747:../../Drivers/STM32F7xx_HAL_Driver/Src/stm32f7xx_hal_tim.c ****     case TIM_CHANNEL_3:
 748:../../Drivers/STM32F7xx_HAL_Driver/Src/stm32f7xx_hal_tim.c ****     {
 749:../../Drivers/STM32F7xx_HAL_Driver/Src/stm32f7xx_hal_tim.c ****       /* Disable the TIM Capture/Compare 3 interrupt */
 750:../../Drivers/STM32F7xx_HAL_Driver/Src/stm32f7xx_hal_tim.c ****       __HAL_TIM_DISABLE_IT(htim, TIM_IT_CC3);
 1415              		.loc 1 750 0
 1416 0070 7B68     		ldr	r3, [r7, #4]
 1417 0072 1B68     		ldr	r3, [r3]
 1418 0074 7A68     		ldr	r2, [r7, #4]
 1419 0076 1268     		ldr	r2, [r2]
 1420 0078 D268     		ldr	r2, [r2, #12]
 1421 007a 22F00802 		bic	r2, r2, #8
 1422 007e DA60     		str	r2, [r3, #12]
 751:../../Drivers/STM32F7xx_HAL_Driver/Src/stm32f7xx_hal_tim.c ****     }
 752:../../Drivers/STM32F7xx_HAL_Driver/Src/stm32f7xx_hal_tim.c ****     break;
 1423              		.loc 1 752 0
 1424 0080 09E0     		b	.L79
 1425              	.L78:
 753:../../Drivers/STM32F7xx_HAL_Driver/Src/stm32f7xx_hal_tim.c ****     
 754:../../Drivers/STM32F7xx_HAL_Driver/Src/stm32f7xx_hal_tim.c ****     case TIM_CHANNEL_4:
 755:../../Drivers/STM32F7xx_HAL_Driver/Src/stm32f7xx_hal_tim.c ****     {
 756:../../Drivers/STM32F7xx_HAL_Driver/Src/stm32f7xx_hal_tim.c ****       /* Disable the TIM Capture/Compare 4 interrupt */
 757:../../Drivers/STM32F7xx_HAL_Driver/Src/stm32f7xx_hal_tim.c ****       __HAL_TIM_DISABLE_IT(htim, TIM_IT_CC4);
 1426              		.loc 1 757 0
 1427 0082 7B68     		ldr	r3, [r7, #4]
 1428 0084 1B68     		ldr	r3, [r3]
 1429 0086 7A68     		ldr	r2, [r7, #4]
 1430 0088 1268     		ldr	r2, [r2]
 1431 008a D268     		ldr	r2, [r2, #12]
 1432 008c 22F01002 		bic	r2, r2, #16
 1433 0090 DA60     		str	r2, [r3, #12]
 758:../../Drivers/STM32F7xx_HAL_Driver/Src/stm32f7xx_hal_tim.c ****     }
 759:../../Drivers/STM32F7xx_HAL_Driver/Src/stm32f7xx_hal_tim.c ****     break;
 1434              		.loc 1 759 0
 1435 0092 00E0     		b	.L79
 1436              	.L86:
 760:../../Drivers/STM32F7xx_HAL_Driver/Src/stm32f7xx_hal_tim.c ****     
 761:../../Drivers/STM32F7xx_HAL_Driver/Src/stm32f7xx_hal_tim.c ****     default:
 762:../../Drivers/STM32F7xx_HAL_Driver/Src/stm32f7xx_hal_tim.c ****     break; 
 1437              		.loc 1 762 0
 1438 0094 00BF     		nop
 1439              	.L79:
ARM GAS  /tmp/cc04EBs1.s 			page 39


 763:../../Drivers/STM32F7xx_HAL_Driver/Src/stm32f7xx_hal_tim.c ****   } 
 764:../../Drivers/STM32F7xx_HAL_Driver/Src/stm32f7xx_hal_tim.c ****   
 765:../../Drivers/STM32F7xx_HAL_Driver/Src/stm32f7xx_hal_tim.c ****   /* Disable the Output compare channel */
 766:../../Drivers/STM32F7xx_HAL_Driver/Src/stm32f7xx_hal_tim.c ****   TIM_CCxChannelCmd(htim->Instance, Channel, TIM_CCx_DISABLE); 
 1440              		.loc 1 766 0
 1441 0096 7B68     		ldr	r3, [r7, #4]
 1442 0098 1B68     		ldr	r3, [r3]
 1443 009a 1846     		mov	r0, r3
 1444 009c 3968     		ldr	r1, [r7]
 1445 009e 0022     		movs	r2, #0
 1446 00a0 FFF7FEFF 		bl	TIM_CCxChannelCmd
 767:../../Drivers/STM32F7xx_HAL_Driver/Src/stm32f7xx_hal_tim.c ****   
 768:../../Drivers/STM32F7xx_HAL_Driver/Src/stm32f7xx_hal_tim.c ****   if(IS_TIM_ADVANCED_INSTANCE(htim->Instance) != RESET)  
 1447              		.loc 1 768 0
 1448 00a4 7B68     		ldr	r3, [r7, #4]
 1449 00a6 1B68     		ldr	r3, [r3]
 1450 00a8 204A     		ldr	r2, .L87
 1451 00aa 9342     		cmp	r3, r2
 1452 00ac 04D0     		beq	.L80
 1453              		.loc 1 768 0 is_stmt 0 discriminator 2
 1454 00ae 7B68     		ldr	r3, [r7, #4]
 1455 00b0 1B68     		ldr	r3, [r3]
 1456 00b2 1F4A     		ldr	r2, .L87+4
 1457 00b4 9342     		cmp	r3, r2
 1458 00b6 01D1     		bne	.L81
 1459              	.L80:
 1460              		.loc 1 768 0 discriminator 3
 1461 00b8 0123     		movs	r3, #1
 1462 00ba 00E0     		b	.L82
 1463              	.L81:
 1464              		.loc 1 768 0 discriminator 4
 1465 00bc 0023     		movs	r3, #0
 1466              	.L82:
 1467              		.loc 1 768 0 discriminator 6
 1468 00be 002B     		cmp	r3, #0
 1469 00c0 17D0     		beq	.L83
 769:../../Drivers/STM32F7xx_HAL_Driver/Src/stm32f7xx_hal_tim.c ****   {
 770:../../Drivers/STM32F7xx_HAL_Driver/Src/stm32f7xx_hal_tim.c ****     /* Disable the Main Output */
 771:../../Drivers/STM32F7xx_HAL_Driver/Src/stm32f7xx_hal_tim.c ****     __HAL_TIM_MOE_DISABLE(htim);
 1470              		.loc 1 771 0 is_stmt 1
 1471 00c2 7B68     		ldr	r3, [r7, #4]
 1472 00c4 1B68     		ldr	r3, [r3]
 1473 00c6 1A6A     		ldr	r2, [r3, #32]
 1474 00c8 41F21113 		movw	r3, #4369
 1475 00cc 1340     		ands	r3, r3, r2
 1476 00ce 002B     		cmp	r3, #0
 1477 00d0 0FD1     		bne	.L83
 1478              		.loc 1 771 0 is_stmt 0 discriminator 1
 1479 00d2 7B68     		ldr	r3, [r7, #4]
 1480 00d4 1B68     		ldr	r3, [r3]
 1481 00d6 1A6A     		ldr	r2, [r3, #32]
 1482 00d8 40F24443 		movw	r3, #1092
 1483 00dc 1340     		ands	r3, r3, r2
 1484 00de 002B     		cmp	r3, #0
 1485 00e0 07D1     		bne	.L83
 1486              		.loc 1 771 0 discriminator 2
 1487 00e2 7B68     		ldr	r3, [r7, #4]
ARM GAS  /tmp/cc04EBs1.s 			page 40


 1488 00e4 1B68     		ldr	r3, [r3]
 1489 00e6 7A68     		ldr	r2, [r7, #4]
 1490 00e8 1268     		ldr	r2, [r2]
 1491 00ea 526C     		ldr	r2, [r2, #68]
 1492 00ec 22F40042 		bic	r2, r2, #32768
 1493 00f0 5A64     		str	r2, [r3, #68]
 1494              	.L83:
 772:../../Drivers/STM32F7xx_HAL_Driver/Src/stm32f7xx_hal_tim.c ****   }
 773:../../Drivers/STM32F7xx_HAL_Driver/Src/stm32f7xx_hal_tim.c ****   
 774:../../Drivers/STM32F7xx_HAL_Driver/Src/stm32f7xx_hal_tim.c ****   /* Disable the Peripheral */
 775:../../Drivers/STM32F7xx_HAL_Driver/Src/stm32f7xx_hal_tim.c ****   __HAL_TIM_DISABLE(htim);  
 1495              		.loc 1 775 0 is_stmt 1
 1496 00f2 7B68     		ldr	r3, [r7, #4]
 1497 00f4 1B68     		ldr	r3, [r3]
 1498 00f6 1A6A     		ldr	r2, [r3, #32]
 1499 00f8 41F21113 		movw	r3, #4369
 1500 00fc 1340     		ands	r3, r3, r2
 1501 00fe 002B     		cmp	r3, #0
 1502 0100 0FD1     		bne	.L84
 1503              		.loc 1 775 0 is_stmt 0 discriminator 1
 1504 0102 7B68     		ldr	r3, [r7, #4]
 1505 0104 1B68     		ldr	r3, [r3]
 1506 0106 1A6A     		ldr	r2, [r3, #32]
 1507 0108 40F24443 		movw	r3, #1092
 1508 010c 1340     		ands	r3, r3, r2
 1509 010e 002B     		cmp	r3, #0
 1510 0110 07D1     		bne	.L84
 1511              		.loc 1 775 0 discriminator 2
 1512 0112 7B68     		ldr	r3, [r7, #4]
 1513 0114 1B68     		ldr	r3, [r3]
 1514 0116 7A68     		ldr	r2, [r7, #4]
 1515 0118 1268     		ldr	r2, [r2]
 1516 011a 1268     		ldr	r2, [r2]
 1517 011c 22F00102 		bic	r2, r2, #1
 1518 0120 1A60     		str	r2, [r3]
 1519              	.L84:
 776:../../Drivers/STM32F7xx_HAL_Driver/Src/stm32f7xx_hal_tim.c ****   
 777:../../Drivers/STM32F7xx_HAL_Driver/Src/stm32f7xx_hal_tim.c ****   /* Return function status */
 778:../../Drivers/STM32F7xx_HAL_Driver/Src/stm32f7xx_hal_tim.c ****   return HAL_OK;
 1520              		.loc 1 778 0 is_stmt 1
 1521 0122 0023     		movs	r3, #0
 779:../../Drivers/STM32F7xx_HAL_Driver/Src/stm32f7xx_hal_tim.c **** }
 1522              		.loc 1 779 0
 1523 0124 1846     		mov	r0, r3
 1524 0126 0837     		adds	r7, r7, #8
 1525              	.LCFI97:
 1526              		.cfi_def_cfa_offset 8
 1527 0128 BD46     		mov	sp, r7
 1528              	.LCFI98:
 1529              		.cfi_def_cfa_register 13
 1530              		@ sp needed
 1531 012a 80BD     		pop	{r7, pc}
 1532              	.L88:
 1533              		.align	2
 1534              	.L87:
 1535 012c 00000140 		.word	1073807360
 1536 0130 00040140 		.word	1073808384
ARM GAS  /tmp/cc04EBs1.s 			page 41


 1537              		.cfi_endproc
 1538              	.LFE152:
 1540              		.section	.text.HAL_TIM_OC_Start_DMA,"ax",%progbits
 1541              		.align	2
 1542              		.global	HAL_TIM_OC_Start_DMA
 1543              		.thumb
 1544              		.thumb_func
 1546              	HAL_TIM_OC_Start_DMA:
 1547              	.LFB153:
 780:../../Drivers/STM32F7xx_HAL_Driver/Src/stm32f7xx_hal_tim.c **** 
 781:../../Drivers/STM32F7xx_HAL_Driver/Src/stm32f7xx_hal_tim.c **** /**
 782:../../Drivers/STM32F7xx_HAL_Driver/Src/stm32f7xx_hal_tim.c ****   * @brief  Starts the TIM Output Compare signal generation in DMA mode.
 783:../../Drivers/STM32F7xx_HAL_Driver/Src/stm32f7xx_hal_tim.c ****   * @param  htim: pointer to a TIM_HandleTypeDef structure that contains
 784:../../Drivers/STM32F7xx_HAL_Driver/Src/stm32f7xx_hal_tim.c ****   *                the configuration information for TIM module.
 785:../../Drivers/STM32F7xx_HAL_Driver/Src/stm32f7xx_hal_tim.c ****   * @param  Channel: TIM Channel to be enabled.
 786:../../Drivers/STM32F7xx_HAL_Driver/Src/stm32f7xx_hal_tim.c ****   *          This parameter can be one of the following values:
 787:../../Drivers/STM32F7xx_HAL_Driver/Src/stm32f7xx_hal_tim.c ****   *            @arg TIM_CHANNEL_1: TIM Channel 1 selected
 788:../../Drivers/STM32F7xx_HAL_Driver/Src/stm32f7xx_hal_tim.c ****   *            @arg TIM_CHANNEL_2: TIM Channel 2 selected
 789:../../Drivers/STM32F7xx_HAL_Driver/Src/stm32f7xx_hal_tim.c ****   *            @arg TIM_CHANNEL_3: TIM Channel 3 selected
 790:../../Drivers/STM32F7xx_HAL_Driver/Src/stm32f7xx_hal_tim.c ****   *            @arg TIM_CHANNEL_4: TIM Channel 4 selected
 791:../../Drivers/STM32F7xx_HAL_Driver/Src/stm32f7xx_hal_tim.c ****   * @param  pData: The source Buffer address.
 792:../../Drivers/STM32F7xx_HAL_Driver/Src/stm32f7xx_hal_tim.c ****   * @param  Length: The length of data to be transferred from memory to TIM peripheral
 793:../../Drivers/STM32F7xx_HAL_Driver/Src/stm32f7xx_hal_tim.c ****   * @retval HAL status
 794:../../Drivers/STM32F7xx_HAL_Driver/Src/stm32f7xx_hal_tim.c ****   */
 795:../../Drivers/STM32F7xx_HAL_Driver/Src/stm32f7xx_hal_tim.c **** HAL_StatusTypeDef HAL_TIM_OC_Start_DMA(TIM_HandleTypeDef *htim, uint32_t Channel, uint32_t *pData, 
 796:../../Drivers/STM32F7xx_HAL_Driver/Src/stm32f7xx_hal_tim.c **** {
 1548              		.loc 1 796 0
 1549              		.cfi_startproc
 1550              		@ args = 0, pretend = 0, frame = 16
 1551              		@ frame_needed = 1, uses_anonymous_args = 0
 1552 0000 90B5     		push	{r4, r7, lr}
 1553              	.LCFI99:
 1554              		.cfi_def_cfa_offset 12
 1555              		.cfi_offset 4, -12
 1556              		.cfi_offset 7, -8
 1557              		.cfi_offset 14, -4
 1558 0002 85B0     		sub	sp, sp, #20
 1559              	.LCFI100:
 1560              		.cfi_def_cfa_offset 32
 1561 0004 00AF     		add	r7, sp, #0
 1562              	.LCFI101:
 1563              		.cfi_def_cfa_register 7
 1564 0006 F860     		str	r0, [r7, #12]
 1565 0008 B960     		str	r1, [r7, #8]
 1566 000a 7A60     		str	r2, [r7, #4]
 1567 000c 7B80     		strh	r3, [r7, #2]	@ movhi
 797:../../Drivers/STM32F7xx_HAL_Driver/Src/stm32f7xx_hal_tim.c ****   /* Check the parameters */
 798:../../Drivers/STM32F7xx_HAL_Driver/Src/stm32f7xx_hal_tim.c ****   assert_param(IS_TIM_CCX_INSTANCE(htim->Instance, Channel));
 799:../../Drivers/STM32F7xx_HAL_Driver/Src/stm32f7xx_hal_tim.c ****   
 800:../../Drivers/STM32F7xx_HAL_Driver/Src/stm32f7xx_hal_tim.c ****   if((htim->State == HAL_TIM_STATE_BUSY))
 1568              		.loc 1 800 0
 1569 000e FB68     		ldr	r3, [r7, #12]
 1570 0010 93F83D30 		ldrb	r3, [r3, #61]
 1571 0014 DBB2     		uxtb	r3, r3
 1572 0016 022B     		cmp	r3, #2
 1573 0018 01D1     		bne	.L90
 801:../../Drivers/STM32F7xx_HAL_Driver/Src/stm32f7xx_hal_tim.c ****   {
ARM GAS  /tmp/cc04EBs1.s 			page 42


 802:../../Drivers/STM32F7xx_HAL_Driver/Src/stm32f7xx_hal_tim.c ****      return HAL_BUSY;
 1574              		.loc 1 802 0
 1575 001a 0223     		movs	r3, #2
 1576 001c D2E0     		b	.L91
 1577              	.L90:
 803:../../Drivers/STM32F7xx_HAL_Driver/Src/stm32f7xx_hal_tim.c ****   }
 804:../../Drivers/STM32F7xx_HAL_Driver/Src/stm32f7xx_hal_tim.c ****   else if((htim->State == HAL_TIM_STATE_READY))
 1578              		.loc 1 804 0
 1579 001e FB68     		ldr	r3, [r7, #12]
 1580 0020 93F83D30 		ldrb	r3, [r3, #61]
 1581 0024 DBB2     		uxtb	r3, r3
 1582 0026 012B     		cmp	r3, #1
 1583 0028 0BD1     		bne	.L92
 805:../../Drivers/STM32F7xx_HAL_Driver/Src/stm32f7xx_hal_tim.c ****   {
 806:../../Drivers/STM32F7xx_HAL_Driver/Src/stm32f7xx_hal_tim.c ****     if(((uint32_t)pData == 0 ) && (Length > 0)) 
 1584              		.loc 1 806 0
 1585 002a 7B68     		ldr	r3, [r7, #4]
 1586 002c 002B     		cmp	r3, #0
 1587 002e 04D1     		bne	.L93
 1588              		.loc 1 806 0 is_stmt 0 discriminator 1
 1589 0030 7B88     		ldrh	r3, [r7, #2]
 1590 0032 002B     		cmp	r3, #0
 1591 0034 01D0     		beq	.L93
 807:../../Drivers/STM32F7xx_HAL_Driver/Src/stm32f7xx_hal_tim.c ****     {
 808:../../Drivers/STM32F7xx_HAL_Driver/Src/stm32f7xx_hal_tim.c ****       return HAL_ERROR;                                    
 1592              		.loc 1 808 0 is_stmt 1
 1593 0036 0123     		movs	r3, #1
 1594 0038 C4E0     		b	.L91
 1595              	.L93:
 809:../../Drivers/STM32F7xx_HAL_Driver/Src/stm32f7xx_hal_tim.c ****     }
 810:../../Drivers/STM32F7xx_HAL_Driver/Src/stm32f7xx_hal_tim.c ****     else
 811:../../Drivers/STM32F7xx_HAL_Driver/Src/stm32f7xx_hal_tim.c ****     {
 812:../../Drivers/STM32F7xx_HAL_Driver/Src/stm32f7xx_hal_tim.c ****       htim->State = HAL_TIM_STATE_BUSY;
 1596              		.loc 1 812 0
 1597 003a FB68     		ldr	r3, [r7, #12]
 1598 003c 0222     		movs	r2, #2
 1599 003e 83F83D20 		strb	r2, [r3, #61]
 1600              	.L92:
 813:../../Drivers/STM32F7xx_HAL_Driver/Src/stm32f7xx_hal_tim.c ****     }
 814:../../Drivers/STM32F7xx_HAL_Driver/Src/stm32f7xx_hal_tim.c ****   }    
 815:../../Drivers/STM32F7xx_HAL_Driver/Src/stm32f7xx_hal_tim.c ****   switch (Channel)
 1601              		.loc 1 815 0
 1602 0042 BB68     		ldr	r3, [r7, #8]
 1603 0044 0C2B     		cmp	r3, #12
 1604 0046 00F29580 		bhi	.L105
 1605 004a 01A2     		adr	r2, .L96
 1606 004c 52F823F0 		ldr	pc, [r2, r3, lsl #2]
 1607              		.p2align 2
 1608              	.L96:
 1609 0050 85000000 		.word	.L95+1
 1610 0054 75010000 		.word	.L105+1
 1611 0058 75010000 		.word	.L105+1
 1612 005c 75010000 		.word	.L105+1
 1613 0060 C1000000 		.word	.L97+1
 1614 0064 75010000 		.word	.L105+1
 1615 0068 75010000 		.word	.L105+1
 1616 006c 75010000 		.word	.L105+1
ARM GAS  /tmp/cc04EBs1.s 			page 43


 1617 0070 FD000000 		.word	.L98+1
 1618 0074 75010000 		.word	.L105+1
 1619 0078 75010000 		.word	.L105+1
 1620 007c 75010000 		.word	.L105+1
 1621 0080 39010000 		.word	.L99+1
 1622              		.p2align 1
 1623              	.L95:
 816:../../Drivers/STM32F7xx_HAL_Driver/Src/stm32f7xx_hal_tim.c ****   {
 817:../../Drivers/STM32F7xx_HAL_Driver/Src/stm32f7xx_hal_tim.c ****     case TIM_CHANNEL_1:
 818:../../Drivers/STM32F7xx_HAL_Driver/Src/stm32f7xx_hal_tim.c ****     {      
 819:../../Drivers/STM32F7xx_HAL_Driver/Src/stm32f7xx_hal_tim.c ****       /* Set the DMA Period elapsed callback */
 820:../../Drivers/STM32F7xx_HAL_Driver/Src/stm32f7xx_hal_tim.c ****       htim->hdma[TIM_DMA_ID_CC1]->XferCpltCallback = HAL_TIM_DMADelayPulseCplt;
 1624              		.loc 1 820 0
 1625 0084 FB68     		ldr	r3, [r7, #12]
 1626 0086 5B6A     		ldr	r3, [r3, #36]
 1627 0088 504A     		ldr	r2, .L106
 1628 008a DA63     		str	r2, [r3, #60]
 821:../../Drivers/STM32F7xx_HAL_Driver/Src/stm32f7xx_hal_tim.c ****      
 822:../../Drivers/STM32F7xx_HAL_Driver/Src/stm32f7xx_hal_tim.c ****       /* Set the DMA error callback */
 823:../../Drivers/STM32F7xx_HAL_Driver/Src/stm32f7xx_hal_tim.c ****       htim->hdma[TIM_DMA_ID_CC1]->XferErrorCallback = HAL_TIM_DMAError ;
 1629              		.loc 1 823 0
 1630 008c FB68     		ldr	r3, [r7, #12]
 1631 008e 5B6A     		ldr	r3, [r3, #36]
 1632 0090 4F4A     		ldr	r2, .L106+4
 1633 0092 DA64     		str	r2, [r3, #76]
 824:../../Drivers/STM32F7xx_HAL_Driver/Src/stm32f7xx_hal_tim.c ****       
 825:../../Drivers/STM32F7xx_HAL_Driver/Src/stm32f7xx_hal_tim.c ****       /* Enable the DMA Stream */
 826:../../Drivers/STM32F7xx_HAL_Driver/Src/stm32f7xx_hal_tim.c ****       HAL_DMA_Start_IT(htim->hdma[TIM_DMA_ID_CC1], (uint32_t)pData, (uint32_t)&htim->Instance->CCR1
 1634              		.loc 1 826 0
 1635 0094 FB68     		ldr	r3, [r7, #12]
 1636 0096 596A     		ldr	r1, [r3, #36]
 1637 0098 7A68     		ldr	r2, [r7, #4]
 1638 009a FB68     		ldr	r3, [r7, #12]
 1639 009c 1B68     		ldr	r3, [r3]
 1640 009e 3433     		adds	r3, r3, #52
 1641 00a0 1C46     		mov	r4, r3
 1642 00a2 7B88     		ldrh	r3, [r7, #2]
 1643 00a4 0846     		mov	r0, r1
 1644 00a6 1146     		mov	r1, r2
 1645 00a8 2246     		mov	r2, r4
 1646 00aa FFF7FEFF 		bl	HAL_DMA_Start_IT
 827:../../Drivers/STM32F7xx_HAL_Driver/Src/stm32f7xx_hal_tim.c ****       
 828:../../Drivers/STM32F7xx_HAL_Driver/Src/stm32f7xx_hal_tim.c ****       /* Enable the TIM Capture/Compare 1 DMA request */
 829:../../Drivers/STM32F7xx_HAL_Driver/Src/stm32f7xx_hal_tim.c ****       __HAL_TIM_ENABLE_DMA(htim, TIM_DMA_CC1);
 1647              		.loc 1 829 0
 1648 00ae FB68     		ldr	r3, [r7, #12]
 1649 00b0 1B68     		ldr	r3, [r3]
 1650 00b2 FA68     		ldr	r2, [r7, #12]
 1651 00b4 1268     		ldr	r2, [r2]
 1652 00b6 D268     		ldr	r2, [r2, #12]
 1653 00b8 42F40072 		orr	r2, r2, #512
 1654 00bc DA60     		str	r2, [r3, #12]
 830:../../Drivers/STM32F7xx_HAL_Driver/Src/stm32f7xx_hal_tim.c ****     }
 831:../../Drivers/STM32F7xx_HAL_Driver/Src/stm32f7xx_hal_tim.c ****     break;
 1655              		.loc 1 831 0
 1656 00be 5AE0     		b	.L100
 1657              	.L97:
ARM GAS  /tmp/cc04EBs1.s 			page 44


 832:../../Drivers/STM32F7xx_HAL_Driver/Src/stm32f7xx_hal_tim.c ****     
 833:../../Drivers/STM32F7xx_HAL_Driver/Src/stm32f7xx_hal_tim.c ****     case TIM_CHANNEL_2:
 834:../../Drivers/STM32F7xx_HAL_Driver/Src/stm32f7xx_hal_tim.c ****     {
 835:../../Drivers/STM32F7xx_HAL_Driver/Src/stm32f7xx_hal_tim.c ****       /* Set the DMA Period elapsed callback */
 836:../../Drivers/STM32F7xx_HAL_Driver/Src/stm32f7xx_hal_tim.c ****       htim->hdma[TIM_DMA_ID_CC2]->XferCpltCallback = HAL_TIM_DMADelayPulseCplt;
 1658              		.loc 1 836 0
 1659 00c0 FB68     		ldr	r3, [r7, #12]
 1660 00c2 9B6A     		ldr	r3, [r3, #40]
 1661 00c4 414A     		ldr	r2, .L106
 1662 00c6 DA63     		str	r2, [r3, #60]
 837:../../Drivers/STM32F7xx_HAL_Driver/Src/stm32f7xx_hal_tim.c ****      
 838:../../Drivers/STM32F7xx_HAL_Driver/Src/stm32f7xx_hal_tim.c ****       /* Set the DMA error callback */
 839:../../Drivers/STM32F7xx_HAL_Driver/Src/stm32f7xx_hal_tim.c ****       htim->hdma[TIM_DMA_ID_CC2]->XferErrorCallback = HAL_TIM_DMAError ;
 1663              		.loc 1 839 0
 1664 00c8 FB68     		ldr	r3, [r7, #12]
 1665 00ca 9B6A     		ldr	r3, [r3, #40]
 1666 00cc 404A     		ldr	r2, .L106+4
 1667 00ce DA64     		str	r2, [r3, #76]
 840:../../Drivers/STM32F7xx_HAL_Driver/Src/stm32f7xx_hal_tim.c ****       
 841:../../Drivers/STM32F7xx_HAL_Driver/Src/stm32f7xx_hal_tim.c ****       /* Enable the DMA Stream */
 842:../../Drivers/STM32F7xx_HAL_Driver/Src/stm32f7xx_hal_tim.c ****       HAL_DMA_Start_IT(htim->hdma[TIM_DMA_ID_CC2], (uint32_t)pData, (uint32_t)&htim->Instance->CCR2
 1668              		.loc 1 842 0
 1669 00d0 FB68     		ldr	r3, [r7, #12]
 1670 00d2 996A     		ldr	r1, [r3, #40]
 1671 00d4 7A68     		ldr	r2, [r7, #4]
 1672 00d6 FB68     		ldr	r3, [r7, #12]
 1673 00d8 1B68     		ldr	r3, [r3]
 1674 00da 3833     		adds	r3, r3, #56
 1675 00dc 1C46     		mov	r4, r3
 1676 00de 7B88     		ldrh	r3, [r7, #2]
 1677 00e0 0846     		mov	r0, r1
 1678 00e2 1146     		mov	r1, r2
 1679 00e4 2246     		mov	r2, r4
 1680 00e6 FFF7FEFF 		bl	HAL_DMA_Start_IT
 843:../../Drivers/STM32F7xx_HAL_Driver/Src/stm32f7xx_hal_tim.c ****       
 844:../../Drivers/STM32F7xx_HAL_Driver/Src/stm32f7xx_hal_tim.c ****       /* Enable the TIM Capture/Compare 2 DMA request */
 845:../../Drivers/STM32F7xx_HAL_Driver/Src/stm32f7xx_hal_tim.c ****       __HAL_TIM_ENABLE_DMA(htim, TIM_DMA_CC2);
 1681              		.loc 1 845 0
 1682 00ea FB68     		ldr	r3, [r7, #12]
 1683 00ec 1B68     		ldr	r3, [r3]
 1684 00ee FA68     		ldr	r2, [r7, #12]
 1685 00f0 1268     		ldr	r2, [r2]
 1686 00f2 D268     		ldr	r2, [r2, #12]
 1687 00f4 42F48062 		orr	r2, r2, #1024
 1688 00f8 DA60     		str	r2, [r3, #12]
 846:../../Drivers/STM32F7xx_HAL_Driver/Src/stm32f7xx_hal_tim.c ****     }
 847:../../Drivers/STM32F7xx_HAL_Driver/Src/stm32f7xx_hal_tim.c ****     break;
 1689              		.loc 1 847 0
 1690 00fa 3CE0     		b	.L100
 1691              	.L98:
 848:../../Drivers/STM32F7xx_HAL_Driver/Src/stm32f7xx_hal_tim.c ****     
 849:../../Drivers/STM32F7xx_HAL_Driver/Src/stm32f7xx_hal_tim.c ****     case TIM_CHANNEL_3:
 850:../../Drivers/STM32F7xx_HAL_Driver/Src/stm32f7xx_hal_tim.c ****     {
 851:../../Drivers/STM32F7xx_HAL_Driver/Src/stm32f7xx_hal_tim.c ****       /* Set the DMA Period elapsed callback */
 852:../../Drivers/STM32F7xx_HAL_Driver/Src/stm32f7xx_hal_tim.c ****       htim->hdma[TIM_DMA_ID_CC3]->XferCpltCallback = HAL_TIM_DMADelayPulseCplt;
 1692              		.loc 1 852 0
 1693 00fc FB68     		ldr	r3, [r7, #12]
ARM GAS  /tmp/cc04EBs1.s 			page 45


 1694 00fe DB6A     		ldr	r3, [r3, #44]
 1695 0100 324A     		ldr	r2, .L106
 1696 0102 DA63     		str	r2, [r3, #60]
 853:../../Drivers/STM32F7xx_HAL_Driver/Src/stm32f7xx_hal_tim.c ****      
 854:../../Drivers/STM32F7xx_HAL_Driver/Src/stm32f7xx_hal_tim.c ****       /* Set the DMA error callback */
 855:../../Drivers/STM32F7xx_HAL_Driver/Src/stm32f7xx_hal_tim.c ****       htim->hdma[TIM_DMA_ID_CC3]->XferErrorCallback = HAL_TIM_DMAError ;
 1697              		.loc 1 855 0
 1698 0104 FB68     		ldr	r3, [r7, #12]
 1699 0106 DB6A     		ldr	r3, [r3, #44]
 1700 0108 314A     		ldr	r2, .L106+4
 1701 010a DA64     		str	r2, [r3, #76]
 856:../../Drivers/STM32F7xx_HAL_Driver/Src/stm32f7xx_hal_tim.c ****       
 857:../../Drivers/STM32F7xx_HAL_Driver/Src/stm32f7xx_hal_tim.c ****       /* Enable the DMA Stream */
 858:../../Drivers/STM32F7xx_HAL_Driver/Src/stm32f7xx_hal_tim.c ****       HAL_DMA_Start_IT(htim->hdma[TIM_DMA_ID_CC3], (uint32_t)pData, (uint32_t)&htim->Instance->CCR3
 1702              		.loc 1 858 0
 1703 010c FB68     		ldr	r3, [r7, #12]
 1704 010e D96A     		ldr	r1, [r3, #44]
 1705 0110 7A68     		ldr	r2, [r7, #4]
 1706 0112 FB68     		ldr	r3, [r7, #12]
 1707 0114 1B68     		ldr	r3, [r3]
 1708 0116 3C33     		adds	r3, r3, #60
 1709 0118 1C46     		mov	r4, r3
 1710 011a 7B88     		ldrh	r3, [r7, #2]
 1711 011c 0846     		mov	r0, r1
 1712 011e 1146     		mov	r1, r2
 1713 0120 2246     		mov	r2, r4
 1714 0122 FFF7FEFF 		bl	HAL_DMA_Start_IT
 859:../../Drivers/STM32F7xx_HAL_Driver/Src/stm32f7xx_hal_tim.c ****       
 860:../../Drivers/STM32F7xx_HAL_Driver/Src/stm32f7xx_hal_tim.c ****       /* Enable the TIM Capture/Compare 3 DMA request */
 861:../../Drivers/STM32F7xx_HAL_Driver/Src/stm32f7xx_hal_tim.c ****       __HAL_TIM_ENABLE_DMA(htim, TIM_DMA_CC3);
 1715              		.loc 1 861 0
 1716 0126 FB68     		ldr	r3, [r7, #12]
 1717 0128 1B68     		ldr	r3, [r3]
 1718 012a FA68     		ldr	r2, [r7, #12]
 1719 012c 1268     		ldr	r2, [r2]
 1720 012e D268     		ldr	r2, [r2, #12]
 1721 0130 42F40062 		orr	r2, r2, #2048
 1722 0134 DA60     		str	r2, [r3, #12]
 862:../../Drivers/STM32F7xx_HAL_Driver/Src/stm32f7xx_hal_tim.c ****     }
 863:../../Drivers/STM32F7xx_HAL_Driver/Src/stm32f7xx_hal_tim.c ****     break;
 1723              		.loc 1 863 0
 1724 0136 1EE0     		b	.L100
 1725              	.L99:
 864:../../Drivers/STM32F7xx_HAL_Driver/Src/stm32f7xx_hal_tim.c ****     
 865:../../Drivers/STM32F7xx_HAL_Driver/Src/stm32f7xx_hal_tim.c ****     case TIM_CHANNEL_4:
 866:../../Drivers/STM32F7xx_HAL_Driver/Src/stm32f7xx_hal_tim.c ****     {
 867:../../Drivers/STM32F7xx_HAL_Driver/Src/stm32f7xx_hal_tim.c ****      /* Set the DMA Period elapsed callback */
 868:../../Drivers/STM32F7xx_HAL_Driver/Src/stm32f7xx_hal_tim.c ****       htim->hdma[TIM_DMA_ID_CC4]->XferCpltCallback = HAL_TIM_DMADelayPulseCplt;
 1726              		.loc 1 868 0
 1727 0138 FB68     		ldr	r3, [r7, #12]
 1728 013a 1B6B     		ldr	r3, [r3, #48]
 1729 013c 234A     		ldr	r2, .L106
 1730 013e DA63     		str	r2, [r3, #60]
 869:../../Drivers/STM32F7xx_HAL_Driver/Src/stm32f7xx_hal_tim.c ****      
 870:../../Drivers/STM32F7xx_HAL_Driver/Src/stm32f7xx_hal_tim.c ****       /* Set the DMA error callback */
 871:../../Drivers/STM32F7xx_HAL_Driver/Src/stm32f7xx_hal_tim.c ****       htim->hdma[TIM_DMA_ID_CC4]->XferErrorCallback = HAL_TIM_DMAError ;
 1731              		.loc 1 871 0
ARM GAS  /tmp/cc04EBs1.s 			page 46


 1732 0140 FB68     		ldr	r3, [r7, #12]
 1733 0142 1B6B     		ldr	r3, [r3, #48]
 1734 0144 224A     		ldr	r2, .L106+4
 1735 0146 DA64     		str	r2, [r3, #76]
 872:../../Drivers/STM32F7xx_HAL_Driver/Src/stm32f7xx_hal_tim.c ****       
 873:../../Drivers/STM32F7xx_HAL_Driver/Src/stm32f7xx_hal_tim.c ****       /* Enable the DMA Stream */
 874:../../Drivers/STM32F7xx_HAL_Driver/Src/stm32f7xx_hal_tim.c ****       HAL_DMA_Start_IT(htim->hdma[TIM_DMA_ID_CC4], (uint32_t)pData, (uint32_t)&htim->Instance->CCR4
 1736              		.loc 1 874 0
 1737 0148 FB68     		ldr	r3, [r7, #12]
 1738 014a 196B     		ldr	r1, [r3, #48]
 1739 014c 7A68     		ldr	r2, [r7, #4]
 1740 014e FB68     		ldr	r3, [r7, #12]
 1741 0150 1B68     		ldr	r3, [r3]
 1742 0152 4033     		adds	r3, r3, #64
 1743 0154 1C46     		mov	r4, r3
 1744 0156 7B88     		ldrh	r3, [r7, #2]
 1745 0158 0846     		mov	r0, r1
 1746 015a 1146     		mov	r1, r2
 1747 015c 2246     		mov	r2, r4
 1748 015e FFF7FEFF 		bl	HAL_DMA_Start_IT
 875:../../Drivers/STM32F7xx_HAL_Driver/Src/stm32f7xx_hal_tim.c ****       
 876:../../Drivers/STM32F7xx_HAL_Driver/Src/stm32f7xx_hal_tim.c ****       /* Enable the TIM Capture/Compare 4 DMA request */
 877:../../Drivers/STM32F7xx_HAL_Driver/Src/stm32f7xx_hal_tim.c ****       __HAL_TIM_ENABLE_DMA(htim, TIM_DMA_CC4);
 1749              		.loc 1 877 0
 1750 0162 FB68     		ldr	r3, [r7, #12]
 1751 0164 1B68     		ldr	r3, [r3]
 1752 0166 FA68     		ldr	r2, [r7, #12]
 1753 0168 1268     		ldr	r2, [r2]
 1754 016a D268     		ldr	r2, [r2, #12]
 1755 016c 42F48052 		orr	r2, r2, #4096
 1756 0170 DA60     		str	r2, [r3, #12]
 878:../../Drivers/STM32F7xx_HAL_Driver/Src/stm32f7xx_hal_tim.c ****     }
 879:../../Drivers/STM32F7xx_HAL_Driver/Src/stm32f7xx_hal_tim.c ****     break;
 1757              		.loc 1 879 0
 1758 0172 00E0     		b	.L100
 1759              	.L105:
 880:../../Drivers/STM32F7xx_HAL_Driver/Src/stm32f7xx_hal_tim.c ****     
 881:../../Drivers/STM32F7xx_HAL_Driver/Src/stm32f7xx_hal_tim.c ****     default:
 882:../../Drivers/STM32F7xx_HAL_Driver/Src/stm32f7xx_hal_tim.c ****     break;
 1760              		.loc 1 882 0
 1761 0174 00BF     		nop
 1762              	.L100:
 883:../../Drivers/STM32F7xx_HAL_Driver/Src/stm32f7xx_hal_tim.c ****   }
 884:../../Drivers/STM32F7xx_HAL_Driver/Src/stm32f7xx_hal_tim.c **** 
 885:../../Drivers/STM32F7xx_HAL_Driver/Src/stm32f7xx_hal_tim.c ****   /* Enable the Output compare channel */
 886:../../Drivers/STM32F7xx_HAL_Driver/Src/stm32f7xx_hal_tim.c ****   TIM_CCxChannelCmd(htim->Instance, Channel, TIM_CCx_ENABLE);
 1763              		.loc 1 886 0
 1764 0176 FB68     		ldr	r3, [r7, #12]
 1765 0178 1B68     		ldr	r3, [r3]
 1766 017a 1846     		mov	r0, r3
 1767 017c B968     		ldr	r1, [r7, #8]
 1768 017e 0122     		movs	r2, #1
 1769 0180 FFF7FEFF 		bl	TIM_CCxChannelCmd
 887:../../Drivers/STM32F7xx_HAL_Driver/Src/stm32f7xx_hal_tim.c ****   
 888:../../Drivers/STM32F7xx_HAL_Driver/Src/stm32f7xx_hal_tim.c ****   if(IS_TIM_ADVANCED_INSTANCE(htim->Instance) != RESET)  
 1770              		.loc 1 888 0
 1771 0184 FB68     		ldr	r3, [r7, #12]
ARM GAS  /tmp/cc04EBs1.s 			page 47


 1772 0186 1B68     		ldr	r3, [r3]
 1773 0188 124A     		ldr	r2, .L106+8
 1774 018a 9342     		cmp	r3, r2
 1775 018c 04D0     		beq	.L101
 1776              		.loc 1 888 0 is_stmt 0 discriminator 2
 1777 018e FB68     		ldr	r3, [r7, #12]
 1778 0190 1B68     		ldr	r3, [r3]
 1779 0192 114A     		ldr	r2, .L106+12
 1780 0194 9342     		cmp	r3, r2
 1781 0196 01D1     		bne	.L102
 1782              	.L101:
 1783              		.loc 1 888 0 discriminator 3
 1784 0198 0123     		movs	r3, #1
 1785 019a 00E0     		b	.L103
 1786              	.L102:
 1787              		.loc 1 888 0 discriminator 4
 1788 019c 0023     		movs	r3, #0
 1789              	.L103:
 1790              		.loc 1 888 0 discriminator 6
 1791 019e 002B     		cmp	r3, #0
 1792 01a0 07D0     		beq	.L104
 889:../../Drivers/STM32F7xx_HAL_Driver/Src/stm32f7xx_hal_tim.c ****   {
 890:../../Drivers/STM32F7xx_HAL_Driver/Src/stm32f7xx_hal_tim.c ****     /* Enable the main output */
 891:../../Drivers/STM32F7xx_HAL_Driver/Src/stm32f7xx_hal_tim.c ****     __HAL_TIM_MOE_ENABLE(htim);
 1793              		.loc 1 891 0 is_stmt 1
 1794 01a2 FB68     		ldr	r3, [r7, #12]
 1795 01a4 1B68     		ldr	r3, [r3]
 1796 01a6 FA68     		ldr	r2, [r7, #12]
 1797 01a8 1268     		ldr	r2, [r2]
 1798 01aa 526C     		ldr	r2, [r2, #68]
 1799 01ac 42F40042 		orr	r2, r2, #32768
 1800 01b0 5A64     		str	r2, [r3, #68]
 1801              	.L104:
 892:../../Drivers/STM32F7xx_HAL_Driver/Src/stm32f7xx_hal_tim.c ****   }  
 893:../../Drivers/STM32F7xx_HAL_Driver/Src/stm32f7xx_hal_tim.c ****   
 894:../../Drivers/STM32F7xx_HAL_Driver/Src/stm32f7xx_hal_tim.c ****   /* Enable the Peripheral */
 895:../../Drivers/STM32F7xx_HAL_Driver/Src/stm32f7xx_hal_tim.c ****   __HAL_TIM_ENABLE(htim); 
 1802              		.loc 1 895 0
 1803 01b2 FB68     		ldr	r3, [r7, #12]
 1804 01b4 1B68     		ldr	r3, [r3]
 1805 01b6 FA68     		ldr	r2, [r7, #12]
 1806 01b8 1268     		ldr	r2, [r2]
 1807 01ba 1268     		ldr	r2, [r2]
 1808 01bc 42F00102 		orr	r2, r2, #1
 1809 01c0 1A60     		str	r2, [r3]
 896:../../Drivers/STM32F7xx_HAL_Driver/Src/stm32f7xx_hal_tim.c ****   
 897:../../Drivers/STM32F7xx_HAL_Driver/Src/stm32f7xx_hal_tim.c ****   /* Return function status */
 898:../../Drivers/STM32F7xx_HAL_Driver/Src/stm32f7xx_hal_tim.c ****   return HAL_OK;
 1810              		.loc 1 898 0
 1811 01c2 0023     		movs	r3, #0
 1812              	.L91:
 899:../../Drivers/STM32F7xx_HAL_Driver/Src/stm32f7xx_hal_tim.c **** }
 1813              		.loc 1 899 0
 1814 01c4 1846     		mov	r0, r3
 1815 01c6 1437     		adds	r7, r7, #20
 1816              	.LCFI102:
 1817              		.cfi_def_cfa_offset 12
ARM GAS  /tmp/cc04EBs1.s 			page 48


 1818 01c8 BD46     		mov	sp, r7
 1819              	.LCFI103:
 1820              		.cfi_def_cfa_register 13
 1821              		@ sp needed
 1822 01ca 90BD     		pop	{r4, r7, pc}
 1823              	.L107:
 1824              		.align	2
 1825              	.L106:
 1826 01cc 00000000 		.word	TIM_DMADelayPulseCplt
 1827 01d0 00000000 		.word	TIM_DMAError
 1828 01d4 00000140 		.word	1073807360
 1829 01d8 00040140 		.word	1073808384
 1830              		.cfi_endproc
 1831              	.LFE153:
 1833              		.section	.text.HAL_TIM_OC_Stop_DMA,"ax",%progbits
 1834              		.align	2
 1835              		.global	HAL_TIM_OC_Stop_DMA
 1836              		.thumb
 1837              		.thumb_func
 1839              	HAL_TIM_OC_Stop_DMA:
 1840              	.LFB154:
 900:../../Drivers/STM32F7xx_HAL_Driver/Src/stm32f7xx_hal_tim.c **** 
 901:../../Drivers/STM32F7xx_HAL_Driver/Src/stm32f7xx_hal_tim.c **** /**
 902:../../Drivers/STM32F7xx_HAL_Driver/Src/stm32f7xx_hal_tim.c ****   * @brief  Stops the TIM Output Compare signal generation in DMA mode.
 903:../../Drivers/STM32F7xx_HAL_Driver/Src/stm32f7xx_hal_tim.c ****   * @param  htim: pointer to a TIM_HandleTypeDef structure that contains
 904:../../Drivers/STM32F7xx_HAL_Driver/Src/stm32f7xx_hal_tim.c ****   *                the configuration information for TIM module.
 905:../../Drivers/STM32F7xx_HAL_Driver/Src/stm32f7xx_hal_tim.c ****   * @param  Channel: TIM Channel to be disabled.
 906:../../Drivers/STM32F7xx_HAL_Driver/Src/stm32f7xx_hal_tim.c ****   *          This parameter can be one of the following values:
 907:../../Drivers/STM32F7xx_HAL_Driver/Src/stm32f7xx_hal_tim.c ****   *            @arg TIM_CHANNEL_1: TIM Channel 1 selected
 908:../../Drivers/STM32F7xx_HAL_Driver/Src/stm32f7xx_hal_tim.c ****   *            @arg TIM_CHANNEL_2: TIM Channel 2 selected
 909:../../Drivers/STM32F7xx_HAL_Driver/Src/stm32f7xx_hal_tim.c ****   *            @arg TIM_CHANNEL_3: TIM Channel 3 selected
 910:../../Drivers/STM32F7xx_HAL_Driver/Src/stm32f7xx_hal_tim.c ****   *            @arg TIM_CHANNEL_4: TIM Channel 4 selected
 911:../../Drivers/STM32F7xx_HAL_Driver/Src/stm32f7xx_hal_tim.c ****   * @retval HAL status
 912:../../Drivers/STM32F7xx_HAL_Driver/Src/stm32f7xx_hal_tim.c ****   */
 913:../../Drivers/STM32F7xx_HAL_Driver/Src/stm32f7xx_hal_tim.c **** HAL_StatusTypeDef HAL_TIM_OC_Stop_DMA(TIM_HandleTypeDef *htim, uint32_t Channel)
 914:../../Drivers/STM32F7xx_HAL_Driver/Src/stm32f7xx_hal_tim.c **** {
 1841              		.loc 1 914 0
 1842              		.cfi_startproc
 1843              		@ args = 0, pretend = 0, frame = 8
 1844              		@ frame_needed = 1, uses_anonymous_args = 0
 1845 0000 80B5     		push	{r7, lr}
 1846              	.LCFI104:
 1847              		.cfi_def_cfa_offset 8
 1848              		.cfi_offset 7, -8
 1849              		.cfi_offset 14, -4
 1850 0002 82B0     		sub	sp, sp, #8
 1851              	.LCFI105:
 1852              		.cfi_def_cfa_offset 16
 1853 0004 00AF     		add	r7, sp, #0
 1854              	.LCFI106:
 1855              		.cfi_def_cfa_register 7
 1856 0006 7860     		str	r0, [r7, #4]
 1857 0008 3960     		str	r1, [r7]
 915:../../Drivers/STM32F7xx_HAL_Driver/Src/stm32f7xx_hal_tim.c ****   /* Check the parameters */
 916:../../Drivers/STM32F7xx_HAL_Driver/Src/stm32f7xx_hal_tim.c ****   assert_param(IS_TIM_CCX_INSTANCE(htim->Instance, Channel));
 917:../../Drivers/STM32F7xx_HAL_Driver/Src/stm32f7xx_hal_tim.c ****   
 918:../../Drivers/STM32F7xx_HAL_Driver/Src/stm32f7xx_hal_tim.c ****   switch (Channel)
ARM GAS  /tmp/cc04EBs1.s 			page 49


 1858              		.loc 1 918 0
 1859 000a 3B68     		ldr	r3, [r7]
 1860 000c 0C2B     		cmp	r3, #12
 1861 000e 41D8     		bhi	.L122
 1862 0010 01A2     		adr	r2, .L111
 1863 0012 52F823F0 		ldr	pc, [r2, r3, lsl #2]
 1864 0016 00BF     		.p2align 2
 1865              	.L111:
 1866 0018 4D000000 		.word	.L110+1
 1867 001c 95000000 		.word	.L122+1
 1868 0020 95000000 		.word	.L122+1
 1869 0024 95000000 		.word	.L122+1
 1870 0028 5F000000 		.word	.L112+1
 1871 002c 95000000 		.word	.L122+1
 1872 0030 95000000 		.word	.L122+1
 1873 0034 95000000 		.word	.L122+1
 1874 0038 71000000 		.word	.L113+1
 1875 003c 95000000 		.word	.L122+1
 1876 0040 95000000 		.word	.L122+1
 1877 0044 95000000 		.word	.L122+1
 1878 0048 83000000 		.word	.L114+1
 1879              		.p2align 1
 1880              	.L110:
 919:../../Drivers/STM32F7xx_HAL_Driver/Src/stm32f7xx_hal_tim.c ****   {
 920:../../Drivers/STM32F7xx_HAL_Driver/Src/stm32f7xx_hal_tim.c ****     case TIM_CHANNEL_1:
 921:../../Drivers/STM32F7xx_HAL_Driver/Src/stm32f7xx_hal_tim.c ****     {       
 922:../../Drivers/STM32F7xx_HAL_Driver/Src/stm32f7xx_hal_tim.c ****       /* Disable the TIM Capture/Compare 1 DMA request */
 923:../../Drivers/STM32F7xx_HAL_Driver/Src/stm32f7xx_hal_tim.c ****       __HAL_TIM_DISABLE_DMA(htim, TIM_DMA_CC1);
 1881              		.loc 1 923 0
 1882 004c 7B68     		ldr	r3, [r7, #4]
 1883 004e 1B68     		ldr	r3, [r3]
 1884 0050 7A68     		ldr	r2, [r7, #4]
 1885 0052 1268     		ldr	r2, [r2]
 1886 0054 D268     		ldr	r2, [r2, #12]
 1887 0056 22F40072 		bic	r2, r2, #512
 1888 005a DA60     		str	r2, [r3, #12]
 924:../../Drivers/STM32F7xx_HAL_Driver/Src/stm32f7xx_hal_tim.c ****     }
 925:../../Drivers/STM32F7xx_HAL_Driver/Src/stm32f7xx_hal_tim.c ****     break;
 1889              		.loc 1 925 0
 1890 005c 1BE0     		b	.L115
 1891              	.L112:
 926:../../Drivers/STM32F7xx_HAL_Driver/Src/stm32f7xx_hal_tim.c ****     
 927:../../Drivers/STM32F7xx_HAL_Driver/Src/stm32f7xx_hal_tim.c ****     case TIM_CHANNEL_2:
 928:../../Drivers/STM32F7xx_HAL_Driver/Src/stm32f7xx_hal_tim.c ****     {
 929:../../Drivers/STM32F7xx_HAL_Driver/Src/stm32f7xx_hal_tim.c ****       /* Disable the TIM Capture/Compare 2 DMA request */
 930:../../Drivers/STM32F7xx_HAL_Driver/Src/stm32f7xx_hal_tim.c ****       __HAL_TIM_DISABLE_DMA(htim, TIM_DMA_CC2);
 1892              		.loc 1 930 0
 1893 005e 7B68     		ldr	r3, [r7, #4]
 1894 0060 1B68     		ldr	r3, [r3]
 1895 0062 7A68     		ldr	r2, [r7, #4]
 1896 0064 1268     		ldr	r2, [r2]
 1897 0066 D268     		ldr	r2, [r2, #12]
 1898 0068 22F48062 		bic	r2, r2, #1024
 1899 006c DA60     		str	r2, [r3, #12]
 931:../../Drivers/STM32F7xx_HAL_Driver/Src/stm32f7xx_hal_tim.c ****     }
 932:../../Drivers/STM32F7xx_HAL_Driver/Src/stm32f7xx_hal_tim.c ****     break;
 1900              		.loc 1 932 0
ARM GAS  /tmp/cc04EBs1.s 			page 50


 1901 006e 12E0     		b	.L115
 1902              	.L113:
 933:../../Drivers/STM32F7xx_HAL_Driver/Src/stm32f7xx_hal_tim.c ****     
 934:../../Drivers/STM32F7xx_HAL_Driver/Src/stm32f7xx_hal_tim.c ****     case TIM_CHANNEL_3:
 935:../../Drivers/STM32F7xx_HAL_Driver/Src/stm32f7xx_hal_tim.c ****     {
 936:../../Drivers/STM32F7xx_HAL_Driver/Src/stm32f7xx_hal_tim.c ****       /* Disable the TIM Capture/Compare 3 DMA request */
 937:../../Drivers/STM32F7xx_HAL_Driver/Src/stm32f7xx_hal_tim.c ****       __HAL_TIM_DISABLE_DMA(htim, TIM_DMA_CC3);
 1903              		.loc 1 937 0
 1904 0070 7B68     		ldr	r3, [r7, #4]
 1905 0072 1B68     		ldr	r3, [r3]
 1906 0074 7A68     		ldr	r2, [r7, #4]
 1907 0076 1268     		ldr	r2, [r2]
 1908 0078 D268     		ldr	r2, [r2, #12]
 1909 007a 22F40062 		bic	r2, r2, #2048
 1910 007e DA60     		str	r2, [r3, #12]
 938:../../Drivers/STM32F7xx_HAL_Driver/Src/stm32f7xx_hal_tim.c ****     }
 939:../../Drivers/STM32F7xx_HAL_Driver/Src/stm32f7xx_hal_tim.c ****     break;
 1911              		.loc 1 939 0
 1912 0080 09E0     		b	.L115
 1913              	.L114:
 940:../../Drivers/STM32F7xx_HAL_Driver/Src/stm32f7xx_hal_tim.c ****     
 941:../../Drivers/STM32F7xx_HAL_Driver/Src/stm32f7xx_hal_tim.c ****     case TIM_CHANNEL_4:
 942:../../Drivers/STM32F7xx_HAL_Driver/Src/stm32f7xx_hal_tim.c ****     {
 943:../../Drivers/STM32F7xx_HAL_Driver/Src/stm32f7xx_hal_tim.c ****       /* Disable the TIM Capture/Compare 4 interrupt */
 944:../../Drivers/STM32F7xx_HAL_Driver/Src/stm32f7xx_hal_tim.c ****       __HAL_TIM_DISABLE_DMA(htim, TIM_DMA_CC4);
 1914              		.loc 1 944 0
 1915 0082 7B68     		ldr	r3, [r7, #4]
 1916 0084 1B68     		ldr	r3, [r3]
 1917 0086 7A68     		ldr	r2, [r7, #4]
 1918 0088 1268     		ldr	r2, [r2]
 1919 008a D268     		ldr	r2, [r2, #12]
 1920 008c 22F48052 		bic	r2, r2, #4096
 1921 0090 DA60     		str	r2, [r3, #12]
 945:../../Drivers/STM32F7xx_HAL_Driver/Src/stm32f7xx_hal_tim.c ****     }
 946:../../Drivers/STM32F7xx_HAL_Driver/Src/stm32f7xx_hal_tim.c ****     break;
 1922              		.loc 1 946 0
 1923 0092 00E0     		b	.L115
 1924              	.L122:
 947:../../Drivers/STM32F7xx_HAL_Driver/Src/stm32f7xx_hal_tim.c ****     
 948:../../Drivers/STM32F7xx_HAL_Driver/Src/stm32f7xx_hal_tim.c ****     default:
 949:../../Drivers/STM32F7xx_HAL_Driver/Src/stm32f7xx_hal_tim.c ****     break;
 1925              		.loc 1 949 0
 1926 0094 00BF     		nop
 1927              	.L115:
 950:../../Drivers/STM32F7xx_HAL_Driver/Src/stm32f7xx_hal_tim.c ****   } 
 951:../../Drivers/STM32F7xx_HAL_Driver/Src/stm32f7xx_hal_tim.c ****   
 952:../../Drivers/STM32F7xx_HAL_Driver/Src/stm32f7xx_hal_tim.c ****   /* Disable the Output compare channel */
 953:../../Drivers/STM32F7xx_HAL_Driver/Src/stm32f7xx_hal_tim.c ****   TIM_CCxChannelCmd(htim->Instance, Channel, TIM_CCx_DISABLE);
 1928              		.loc 1 953 0
 1929 0096 7B68     		ldr	r3, [r7, #4]
 1930 0098 1B68     		ldr	r3, [r3]
 1931 009a 1846     		mov	r0, r3
 1932 009c 3968     		ldr	r1, [r7]
 1933 009e 0022     		movs	r2, #0
 1934 00a0 FFF7FEFF 		bl	TIM_CCxChannelCmd
 954:../../Drivers/STM32F7xx_HAL_Driver/Src/stm32f7xx_hal_tim.c ****   
 955:../../Drivers/STM32F7xx_HAL_Driver/Src/stm32f7xx_hal_tim.c ****   if(IS_TIM_ADVANCED_INSTANCE(htim->Instance) != RESET)  
ARM GAS  /tmp/cc04EBs1.s 			page 51


 1935              		.loc 1 955 0
 1936 00a4 7B68     		ldr	r3, [r7, #4]
 1937 00a6 1B68     		ldr	r3, [r3]
 1938 00a8 224A     		ldr	r2, .L123
 1939 00aa 9342     		cmp	r3, r2
 1940 00ac 04D0     		beq	.L116
 1941              		.loc 1 955 0 is_stmt 0 discriminator 2
 1942 00ae 7B68     		ldr	r3, [r7, #4]
 1943 00b0 1B68     		ldr	r3, [r3]
 1944 00b2 214A     		ldr	r2, .L123+4
 1945 00b4 9342     		cmp	r3, r2
 1946 00b6 01D1     		bne	.L117
 1947              	.L116:
 1948              		.loc 1 955 0 discriminator 3
 1949 00b8 0123     		movs	r3, #1
 1950 00ba 00E0     		b	.L118
 1951              	.L117:
 1952              		.loc 1 955 0 discriminator 4
 1953 00bc 0023     		movs	r3, #0
 1954              	.L118:
 1955              		.loc 1 955 0 discriminator 6
 1956 00be 002B     		cmp	r3, #0
 1957 00c0 17D0     		beq	.L119
 956:../../Drivers/STM32F7xx_HAL_Driver/Src/stm32f7xx_hal_tim.c ****   {
 957:../../Drivers/STM32F7xx_HAL_Driver/Src/stm32f7xx_hal_tim.c ****     /* Disable the Main Output */
 958:../../Drivers/STM32F7xx_HAL_Driver/Src/stm32f7xx_hal_tim.c ****     __HAL_TIM_MOE_DISABLE(htim);
 1958              		.loc 1 958 0 is_stmt 1
 1959 00c2 7B68     		ldr	r3, [r7, #4]
 1960 00c4 1B68     		ldr	r3, [r3]
 1961 00c6 1A6A     		ldr	r2, [r3, #32]
 1962 00c8 41F21113 		movw	r3, #4369
 1963 00cc 1340     		ands	r3, r3, r2
 1964 00ce 002B     		cmp	r3, #0
 1965 00d0 0FD1     		bne	.L119
 1966              		.loc 1 958 0 is_stmt 0 discriminator 1
 1967 00d2 7B68     		ldr	r3, [r7, #4]
 1968 00d4 1B68     		ldr	r3, [r3]
 1969 00d6 1A6A     		ldr	r2, [r3, #32]
 1970 00d8 40F24443 		movw	r3, #1092
 1971 00dc 1340     		ands	r3, r3, r2
 1972 00de 002B     		cmp	r3, #0
 1973 00e0 07D1     		bne	.L119
 1974              		.loc 1 958 0 discriminator 2
 1975 00e2 7B68     		ldr	r3, [r7, #4]
 1976 00e4 1B68     		ldr	r3, [r3]
 1977 00e6 7A68     		ldr	r2, [r7, #4]
 1978 00e8 1268     		ldr	r2, [r2]
 1979 00ea 526C     		ldr	r2, [r2, #68]
 1980 00ec 22F40042 		bic	r2, r2, #32768
 1981 00f0 5A64     		str	r2, [r3, #68]
 1982              	.L119:
 959:../../Drivers/STM32F7xx_HAL_Driver/Src/stm32f7xx_hal_tim.c ****   }
 960:../../Drivers/STM32F7xx_HAL_Driver/Src/stm32f7xx_hal_tim.c ****   
 961:../../Drivers/STM32F7xx_HAL_Driver/Src/stm32f7xx_hal_tim.c ****   /* Disable the Peripheral */
 962:../../Drivers/STM32F7xx_HAL_Driver/Src/stm32f7xx_hal_tim.c ****   __HAL_TIM_DISABLE(htim);
 1983              		.loc 1 962 0 is_stmt 1
 1984 00f2 7B68     		ldr	r3, [r7, #4]
ARM GAS  /tmp/cc04EBs1.s 			page 52


 1985 00f4 1B68     		ldr	r3, [r3]
 1986 00f6 1A6A     		ldr	r2, [r3, #32]
 1987 00f8 41F21113 		movw	r3, #4369
 1988 00fc 1340     		ands	r3, r3, r2
 1989 00fe 002B     		cmp	r3, #0
 1990 0100 0FD1     		bne	.L120
 1991              		.loc 1 962 0 is_stmt 0 discriminator 1
 1992 0102 7B68     		ldr	r3, [r7, #4]
 1993 0104 1B68     		ldr	r3, [r3]
 1994 0106 1A6A     		ldr	r2, [r3, #32]
 1995 0108 40F24443 		movw	r3, #1092
 1996 010c 1340     		ands	r3, r3, r2
 1997 010e 002B     		cmp	r3, #0
 1998 0110 07D1     		bne	.L120
 1999              		.loc 1 962 0 discriminator 2
 2000 0112 7B68     		ldr	r3, [r7, #4]
 2001 0114 1B68     		ldr	r3, [r3]
 2002 0116 7A68     		ldr	r2, [r7, #4]
 2003 0118 1268     		ldr	r2, [r2]
 2004 011a 1268     		ldr	r2, [r2]
 2005 011c 22F00102 		bic	r2, r2, #1
 2006 0120 1A60     		str	r2, [r3]
 2007              	.L120:
 963:../../Drivers/STM32F7xx_HAL_Driver/Src/stm32f7xx_hal_tim.c ****   
 964:../../Drivers/STM32F7xx_HAL_Driver/Src/stm32f7xx_hal_tim.c ****   /* Change the htim state */
 965:../../Drivers/STM32F7xx_HAL_Driver/Src/stm32f7xx_hal_tim.c ****   htim->State = HAL_TIM_STATE_READY;
 2008              		.loc 1 965 0 is_stmt 1
 2009 0122 7B68     		ldr	r3, [r7, #4]
 2010 0124 0122     		movs	r2, #1
 2011 0126 83F83D20 		strb	r2, [r3, #61]
 966:../../Drivers/STM32F7xx_HAL_Driver/Src/stm32f7xx_hal_tim.c ****   
 967:../../Drivers/STM32F7xx_HAL_Driver/Src/stm32f7xx_hal_tim.c ****   /* Return function status */
 968:../../Drivers/STM32F7xx_HAL_Driver/Src/stm32f7xx_hal_tim.c ****   return HAL_OK;
 2012              		.loc 1 968 0
 2013 012a 0023     		movs	r3, #0
 969:../../Drivers/STM32F7xx_HAL_Driver/Src/stm32f7xx_hal_tim.c **** }
 2014              		.loc 1 969 0
 2015 012c 1846     		mov	r0, r3
 2016 012e 0837     		adds	r7, r7, #8
 2017              	.LCFI107:
 2018              		.cfi_def_cfa_offset 8
 2019 0130 BD46     		mov	sp, r7
 2020              	.LCFI108:
 2021              		.cfi_def_cfa_register 13
 2022              		@ sp needed
 2023 0132 80BD     		pop	{r7, pc}
 2024              	.L124:
 2025              		.align	2
 2026              	.L123:
 2027 0134 00000140 		.word	1073807360
 2028 0138 00040140 		.word	1073808384
 2029              		.cfi_endproc
 2030              	.LFE154:
 2032              		.section	.text.HAL_TIM_PWM_Init,"ax",%progbits
 2033              		.align	2
 2034              		.global	HAL_TIM_PWM_Init
 2035              		.thumb
ARM GAS  /tmp/cc04EBs1.s 			page 53


 2036              		.thumb_func
 2038              	HAL_TIM_PWM_Init:
 2039              	.LFB155:
 970:../../Drivers/STM32F7xx_HAL_Driver/Src/stm32f7xx_hal_tim.c **** 
 971:../../Drivers/STM32F7xx_HAL_Driver/Src/stm32f7xx_hal_tim.c **** /**
 972:../../Drivers/STM32F7xx_HAL_Driver/Src/stm32f7xx_hal_tim.c ****   * @}
 973:../../Drivers/STM32F7xx_HAL_Driver/Src/stm32f7xx_hal_tim.c ****   */
 974:../../Drivers/STM32F7xx_HAL_Driver/Src/stm32f7xx_hal_tim.c **** 
 975:../../Drivers/STM32F7xx_HAL_Driver/Src/stm32f7xx_hal_tim.c **** /** @defgroup TIM_Exported_Functions_Group3 Time PWM functions 
 976:../../Drivers/STM32F7xx_HAL_Driver/Src/stm32f7xx_hal_tim.c ****  *  @brief    Time PWM functions 
 977:../../Drivers/STM32F7xx_HAL_Driver/Src/stm32f7xx_hal_tim.c ****  *
 978:../../Drivers/STM32F7xx_HAL_Driver/Src/stm32f7xx_hal_tim.c **** @verbatim    
 979:../../Drivers/STM32F7xx_HAL_Driver/Src/stm32f7xx_hal_tim.c ****   ==============================================================================
 980:../../Drivers/STM32F7xx_HAL_Driver/Src/stm32f7xx_hal_tim.c ****                           ##### Time PWM functions #####
 981:../../Drivers/STM32F7xx_HAL_Driver/Src/stm32f7xx_hal_tim.c ****   ==============================================================================
 982:../../Drivers/STM32F7xx_HAL_Driver/Src/stm32f7xx_hal_tim.c ****   [..]  
 983:../../Drivers/STM32F7xx_HAL_Driver/Src/stm32f7xx_hal_tim.c ****     This section provides functions allowing to:
 984:../../Drivers/STM32F7xx_HAL_Driver/Src/stm32f7xx_hal_tim.c ****     (+) Initialize and configure the TIM OPWM. 
 985:../../Drivers/STM32F7xx_HAL_Driver/Src/stm32f7xx_hal_tim.c ****     (+) De-initialize the TIM PWM.
 986:../../Drivers/STM32F7xx_HAL_Driver/Src/stm32f7xx_hal_tim.c ****     (+) Start the Time PWM.
 987:../../Drivers/STM32F7xx_HAL_Driver/Src/stm32f7xx_hal_tim.c ****     (+) Stop the Time PWM.
 988:../../Drivers/STM32F7xx_HAL_Driver/Src/stm32f7xx_hal_tim.c ****     (+) Start the Time PWM and enable interrupt.
 989:../../Drivers/STM32F7xx_HAL_Driver/Src/stm32f7xx_hal_tim.c ****     (+) Stop the Time PWM and disable interrupt.
 990:../../Drivers/STM32F7xx_HAL_Driver/Src/stm32f7xx_hal_tim.c ****     (+) Start the Time PWM and enable DMA transfer.
 991:../../Drivers/STM32F7xx_HAL_Driver/Src/stm32f7xx_hal_tim.c ****     (+) Stop the Time PWM and disable DMA transfer.
 992:../../Drivers/STM32F7xx_HAL_Driver/Src/stm32f7xx_hal_tim.c ****  
 993:../../Drivers/STM32F7xx_HAL_Driver/Src/stm32f7xx_hal_tim.c **** @endverbatim
 994:../../Drivers/STM32F7xx_HAL_Driver/Src/stm32f7xx_hal_tim.c ****   * @{
 995:../../Drivers/STM32F7xx_HAL_Driver/Src/stm32f7xx_hal_tim.c ****   */
 996:../../Drivers/STM32F7xx_HAL_Driver/Src/stm32f7xx_hal_tim.c **** /**
 997:../../Drivers/STM32F7xx_HAL_Driver/Src/stm32f7xx_hal_tim.c ****   * @brief  Initializes the TIM PWM Time Base according to the specified
 998:../../Drivers/STM32F7xx_HAL_Driver/Src/stm32f7xx_hal_tim.c ****   *         parameters in the TIM_HandleTypeDef and create the associated handle.
 999:../../Drivers/STM32F7xx_HAL_Driver/Src/stm32f7xx_hal_tim.c ****   * @param  htim: pointer to a TIM_HandleTypeDef structure that contains
1000:../../Drivers/STM32F7xx_HAL_Driver/Src/stm32f7xx_hal_tim.c ****   *                the configuration information for TIM module.
1001:../../Drivers/STM32F7xx_HAL_Driver/Src/stm32f7xx_hal_tim.c ****   * @retval HAL status
1002:../../Drivers/STM32F7xx_HAL_Driver/Src/stm32f7xx_hal_tim.c ****   */
1003:../../Drivers/STM32F7xx_HAL_Driver/Src/stm32f7xx_hal_tim.c **** HAL_StatusTypeDef HAL_TIM_PWM_Init(TIM_HandleTypeDef *htim)
1004:../../Drivers/STM32F7xx_HAL_Driver/Src/stm32f7xx_hal_tim.c **** {
 2040              		.loc 1 1004 0
 2041              		.cfi_startproc
 2042              		@ args = 0, pretend = 0, frame = 8
 2043              		@ frame_needed = 1, uses_anonymous_args = 0
 2044 0000 80B5     		push	{r7, lr}
 2045              	.LCFI109:
 2046              		.cfi_def_cfa_offset 8
 2047              		.cfi_offset 7, -8
 2048              		.cfi_offset 14, -4
 2049 0002 82B0     		sub	sp, sp, #8
 2050              	.LCFI110:
 2051              		.cfi_def_cfa_offset 16
 2052 0004 00AF     		add	r7, sp, #0
 2053              	.LCFI111:
 2054              		.cfi_def_cfa_register 7
 2055 0006 7860     		str	r0, [r7, #4]
1005:../../Drivers/STM32F7xx_HAL_Driver/Src/stm32f7xx_hal_tim.c ****   /* Check the TIM handle allocation */
1006:../../Drivers/STM32F7xx_HAL_Driver/Src/stm32f7xx_hal_tim.c ****   if(htim == NULL)
 2056              		.loc 1 1006 0
ARM GAS  /tmp/cc04EBs1.s 			page 54


 2057 0008 7B68     		ldr	r3, [r7, #4]
 2058 000a 002B     		cmp	r3, #0
 2059 000c 01D1     		bne	.L126
1007:../../Drivers/STM32F7xx_HAL_Driver/Src/stm32f7xx_hal_tim.c ****   {
1008:../../Drivers/STM32F7xx_HAL_Driver/Src/stm32f7xx_hal_tim.c ****     return HAL_ERROR;
 2060              		.loc 1 1008 0
 2061 000e 0123     		movs	r3, #1
 2062 0010 1DE0     		b	.L127
 2063              	.L126:
1009:../../Drivers/STM32F7xx_HAL_Driver/Src/stm32f7xx_hal_tim.c ****   }
1010:../../Drivers/STM32F7xx_HAL_Driver/Src/stm32f7xx_hal_tim.c **** 
1011:../../Drivers/STM32F7xx_HAL_Driver/Src/stm32f7xx_hal_tim.c ****   /* Check the parameters */
1012:../../Drivers/STM32F7xx_HAL_Driver/Src/stm32f7xx_hal_tim.c ****   assert_param(IS_TIM_INSTANCE(htim->Instance));
1013:../../Drivers/STM32F7xx_HAL_Driver/Src/stm32f7xx_hal_tim.c ****   assert_param(IS_TIM_COUNTER_MODE(htim->Init.CounterMode));
1014:../../Drivers/STM32F7xx_HAL_Driver/Src/stm32f7xx_hal_tim.c ****   assert_param(IS_TIM_CLOCKDIVISION_DIV(htim->Init.ClockDivision));
1015:../../Drivers/STM32F7xx_HAL_Driver/Src/stm32f7xx_hal_tim.c ****   assert_param(IS_TIM_AUTORELOAD_PRELOAD(htim->Init.AutoReloadPreload));
1016:../../Drivers/STM32F7xx_HAL_Driver/Src/stm32f7xx_hal_tim.c **** 
1017:../../Drivers/STM32F7xx_HAL_Driver/Src/stm32f7xx_hal_tim.c ****   if(htim->State == HAL_TIM_STATE_RESET)
 2064              		.loc 1 1017 0
 2065 0012 7B68     		ldr	r3, [r7, #4]
 2066 0014 93F83D30 		ldrb	r3, [r3, #61]
 2067 0018 DBB2     		uxtb	r3, r3
 2068 001a 002B     		cmp	r3, #0
 2069 001c 06D1     		bne	.L128
1018:../../Drivers/STM32F7xx_HAL_Driver/Src/stm32f7xx_hal_tim.c ****   {
1019:../../Drivers/STM32F7xx_HAL_Driver/Src/stm32f7xx_hal_tim.c ****     /* Allocate lock resource and initialize it */
1020:../../Drivers/STM32F7xx_HAL_Driver/Src/stm32f7xx_hal_tim.c ****     htim->Lock = HAL_UNLOCKED;  
 2070              		.loc 1 1020 0
 2071 001e 7B68     		ldr	r3, [r7, #4]
 2072 0020 0022     		movs	r2, #0
 2073 0022 83F83C20 		strb	r2, [r3, #60]
1021:../../Drivers/STM32F7xx_HAL_Driver/Src/stm32f7xx_hal_tim.c ****     /* Init the low level hardware : GPIO, CLOCK, NVIC and DMA */
1022:../../Drivers/STM32F7xx_HAL_Driver/Src/stm32f7xx_hal_tim.c ****     HAL_TIM_PWM_MspInit(htim);
 2074              		.loc 1 1022 0
 2075 0026 7868     		ldr	r0, [r7, #4]
 2076 0028 FFF7FEFF 		bl	HAL_TIM_PWM_MspInit
 2077              	.L128:
1023:../../Drivers/STM32F7xx_HAL_Driver/Src/stm32f7xx_hal_tim.c ****   }
1024:../../Drivers/STM32F7xx_HAL_Driver/Src/stm32f7xx_hal_tim.c **** 
1025:../../Drivers/STM32F7xx_HAL_Driver/Src/stm32f7xx_hal_tim.c ****   /* Set the TIM state */
1026:../../Drivers/STM32F7xx_HAL_Driver/Src/stm32f7xx_hal_tim.c ****   htim->State= HAL_TIM_STATE_BUSY;  
 2078              		.loc 1 1026 0
 2079 002c 7B68     		ldr	r3, [r7, #4]
 2080 002e 0222     		movs	r2, #2
 2081 0030 83F83D20 		strb	r2, [r3, #61]
1027:../../Drivers/STM32F7xx_HAL_Driver/Src/stm32f7xx_hal_tim.c ****   
1028:../../Drivers/STM32F7xx_HAL_Driver/Src/stm32f7xx_hal_tim.c ****   /* Init the base time for the PWM */  
1029:../../Drivers/STM32F7xx_HAL_Driver/Src/stm32f7xx_hal_tim.c ****   TIM_Base_SetConfig(htim->Instance, &htim->Init); 
 2082              		.loc 1 1029 0
 2083 0034 7B68     		ldr	r3, [r7, #4]
 2084 0036 1A68     		ldr	r2, [r3]
 2085 0038 7B68     		ldr	r3, [r7, #4]
 2086 003a 0433     		adds	r3, r3, #4
 2087 003c 1046     		mov	r0, r2
 2088 003e 1946     		mov	r1, r3
 2089 0040 FFF7FEFF 		bl	TIM_Base_SetConfig
1030:../../Drivers/STM32F7xx_HAL_Driver/Src/stm32f7xx_hal_tim.c ****    
ARM GAS  /tmp/cc04EBs1.s 			page 55


1031:../../Drivers/STM32F7xx_HAL_Driver/Src/stm32f7xx_hal_tim.c ****   /* Initialize the TIM state*/
1032:../../Drivers/STM32F7xx_HAL_Driver/Src/stm32f7xx_hal_tim.c ****   htim->State= HAL_TIM_STATE_READY;
 2090              		.loc 1 1032 0
 2091 0044 7B68     		ldr	r3, [r7, #4]
 2092 0046 0122     		movs	r2, #1
 2093 0048 83F83D20 		strb	r2, [r3, #61]
1033:../../Drivers/STM32F7xx_HAL_Driver/Src/stm32f7xx_hal_tim.c ****   
1034:../../Drivers/STM32F7xx_HAL_Driver/Src/stm32f7xx_hal_tim.c ****   return HAL_OK;
 2094              		.loc 1 1034 0
 2095 004c 0023     		movs	r3, #0
 2096              	.L127:
1035:../../Drivers/STM32F7xx_HAL_Driver/Src/stm32f7xx_hal_tim.c **** }  
 2097              		.loc 1 1035 0
 2098 004e 1846     		mov	r0, r3
 2099 0050 0837     		adds	r7, r7, #8
 2100              	.LCFI112:
 2101              		.cfi_def_cfa_offset 8
 2102 0052 BD46     		mov	sp, r7
 2103              	.LCFI113:
 2104              		.cfi_def_cfa_register 13
 2105              		@ sp needed
 2106 0054 80BD     		pop	{r7, pc}
 2107              		.cfi_endproc
 2108              	.LFE155:
 2110 0056 00BF     		.section	.text.HAL_TIM_PWM_DeInit,"ax",%progbits
 2111              		.align	2
 2112              		.global	HAL_TIM_PWM_DeInit
 2113              		.thumb
 2114              		.thumb_func
 2116              	HAL_TIM_PWM_DeInit:
 2117              	.LFB156:
1036:../../Drivers/STM32F7xx_HAL_Driver/Src/stm32f7xx_hal_tim.c **** 
1037:../../Drivers/STM32F7xx_HAL_Driver/Src/stm32f7xx_hal_tim.c **** /**
1038:../../Drivers/STM32F7xx_HAL_Driver/Src/stm32f7xx_hal_tim.c ****   * @brief  DeInitializes the TIM peripheral 
1039:../../Drivers/STM32F7xx_HAL_Driver/Src/stm32f7xx_hal_tim.c ****   * @param  htim: pointer to a TIM_HandleTypeDef structure that contains
1040:../../Drivers/STM32F7xx_HAL_Driver/Src/stm32f7xx_hal_tim.c ****   *                the configuration information for TIM module.
1041:../../Drivers/STM32F7xx_HAL_Driver/Src/stm32f7xx_hal_tim.c ****   * @retval HAL status
1042:../../Drivers/STM32F7xx_HAL_Driver/Src/stm32f7xx_hal_tim.c ****   */
1043:../../Drivers/STM32F7xx_HAL_Driver/Src/stm32f7xx_hal_tim.c **** HAL_StatusTypeDef HAL_TIM_PWM_DeInit(TIM_HandleTypeDef *htim)
1044:../../Drivers/STM32F7xx_HAL_Driver/Src/stm32f7xx_hal_tim.c **** {
 2118              		.loc 1 1044 0
 2119              		.cfi_startproc
 2120              		@ args = 0, pretend = 0, frame = 8
 2121              		@ frame_needed = 1, uses_anonymous_args = 0
 2122 0000 80B5     		push	{r7, lr}
 2123              	.LCFI114:
 2124              		.cfi_def_cfa_offset 8
 2125              		.cfi_offset 7, -8
 2126              		.cfi_offset 14, -4
 2127 0002 82B0     		sub	sp, sp, #8
 2128              	.LCFI115:
 2129              		.cfi_def_cfa_offset 16
 2130 0004 00AF     		add	r7, sp, #0
 2131              	.LCFI116:
 2132              		.cfi_def_cfa_register 7
 2133 0006 7860     		str	r0, [r7, #4]
1045:../../Drivers/STM32F7xx_HAL_Driver/Src/stm32f7xx_hal_tim.c ****   /* Check the parameters */
ARM GAS  /tmp/cc04EBs1.s 			page 56


1046:../../Drivers/STM32F7xx_HAL_Driver/Src/stm32f7xx_hal_tim.c ****   assert_param(IS_TIM_INSTANCE(htim->Instance));
1047:../../Drivers/STM32F7xx_HAL_Driver/Src/stm32f7xx_hal_tim.c ****   
1048:../../Drivers/STM32F7xx_HAL_Driver/Src/stm32f7xx_hal_tim.c ****   htim->State = HAL_TIM_STATE_BUSY;
 2134              		.loc 1 1048 0
 2135 0008 7B68     		ldr	r3, [r7, #4]
 2136 000a 0222     		movs	r2, #2
 2137 000c 83F83D20 		strb	r2, [r3, #61]
1049:../../Drivers/STM32F7xx_HAL_Driver/Src/stm32f7xx_hal_tim.c ****   
1050:../../Drivers/STM32F7xx_HAL_Driver/Src/stm32f7xx_hal_tim.c ****   /* Disable the TIM Peripheral Clock */
1051:../../Drivers/STM32F7xx_HAL_Driver/Src/stm32f7xx_hal_tim.c ****   __HAL_TIM_DISABLE(htim);
 2138              		.loc 1 1051 0
 2139 0010 7B68     		ldr	r3, [r7, #4]
 2140 0012 1B68     		ldr	r3, [r3]
 2141 0014 1A6A     		ldr	r2, [r3, #32]
 2142 0016 41F21113 		movw	r3, #4369
 2143 001a 1340     		ands	r3, r3, r2
 2144 001c 002B     		cmp	r3, #0
 2145 001e 0FD1     		bne	.L130
 2146              		.loc 1 1051 0 is_stmt 0 discriminator 1
 2147 0020 7B68     		ldr	r3, [r7, #4]
 2148 0022 1B68     		ldr	r3, [r3]
 2149 0024 1A6A     		ldr	r2, [r3, #32]
 2150 0026 40F24443 		movw	r3, #1092
 2151 002a 1340     		ands	r3, r3, r2
 2152 002c 002B     		cmp	r3, #0
 2153 002e 07D1     		bne	.L130
 2154              		.loc 1 1051 0 discriminator 2
 2155 0030 7B68     		ldr	r3, [r7, #4]
 2156 0032 1B68     		ldr	r3, [r3]
 2157 0034 7A68     		ldr	r2, [r7, #4]
 2158 0036 1268     		ldr	r2, [r2]
 2159 0038 1268     		ldr	r2, [r2]
 2160 003a 22F00102 		bic	r2, r2, #1
 2161 003e 1A60     		str	r2, [r3]
 2162              	.L130:
1052:../../Drivers/STM32F7xx_HAL_Driver/Src/stm32f7xx_hal_tim.c ****     
1053:../../Drivers/STM32F7xx_HAL_Driver/Src/stm32f7xx_hal_tim.c ****   /* DeInit the low level hardware: GPIO, CLOCK, NVIC and DMA */
1054:../../Drivers/STM32F7xx_HAL_Driver/Src/stm32f7xx_hal_tim.c ****   HAL_TIM_PWM_MspDeInit(htim);
 2163              		.loc 1 1054 0 is_stmt 1
 2164 0040 7868     		ldr	r0, [r7, #4]
 2165 0042 FFF7FEFF 		bl	HAL_TIM_PWM_MspDeInit
1055:../../Drivers/STM32F7xx_HAL_Driver/Src/stm32f7xx_hal_tim.c ****     
1056:../../Drivers/STM32F7xx_HAL_Driver/Src/stm32f7xx_hal_tim.c ****   /* Change TIM state */  
1057:../../Drivers/STM32F7xx_HAL_Driver/Src/stm32f7xx_hal_tim.c ****   htim->State = HAL_TIM_STATE_RESET; 
 2166              		.loc 1 1057 0
 2167 0046 7B68     		ldr	r3, [r7, #4]
 2168 0048 0022     		movs	r2, #0
 2169 004a 83F83D20 		strb	r2, [r3, #61]
1058:../../Drivers/STM32F7xx_HAL_Driver/Src/stm32f7xx_hal_tim.c **** 
1059:../../Drivers/STM32F7xx_HAL_Driver/Src/stm32f7xx_hal_tim.c ****   /* Release Lock */
1060:../../Drivers/STM32F7xx_HAL_Driver/Src/stm32f7xx_hal_tim.c ****   __HAL_UNLOCK(htim);
 2170              		.loc 1 1060 0
 2171 004e 7B68     		ldr	r3, [r7, #4]
 2172 0050 0022     		movs	r2, #0
 2173 0052 83F83C20 		strb	r2, [r3, #60]
1061:../../Drivers/STM32F7xx_HAL_Driver/Src/stm32f7xx_hal_tim.c **** 
1062:../../Drivers/STM32F7xx_HAL_Driver/Src/stm32f7xx_hal_tim.c ****   return HAL_OK;
ARM GAS  /tmp/cc04EBs1.s 			page 57


 2174              		.loc 1 1062 0
 2175 0056 0023     		movs	r3, #0
1063:../../Drivers/STM32F7xx_HAL_Driver/Src/stm32f7xx_hal_tim.c **** }
 2176              		.loc 1 1063 0
 2177 0058 1846     		mov	r0, r3
 2178 005a 0837     		adds	r7, r7, #8
 2179              	.LCFI117:
 2180              		.cfi_def_cfa_offset 8
 2181 005c BD46     		mov	sp, r7
 2182              	.LCFI118:
 2183              		.cfi_def_cfa_register 13
 2184              		@ sp needed
 2185 005e 80BD     		pop	{r7, pc}
 2186              		.cfi_endproc
 2187              	.LFE156:
 2189              		.section	.text.HAL_TIM_PWM_MspInit,"ax",%progbits
 2190              		.align	2
 2191              		.weak	HAL_TIM_PWM_MspInit
 2192              		.thumb
 2193              		.thumb_func
 2195              	HAL_TIM_PWM_MspInit:
 2196              	.LFB157:
1064:../../Drivers/STM32F7xx_HAL_Driver/Src/stm32f7xx_hal_tim.c **** 
1065:../../Drivers/STM32F7xx_HAL_Driver/Src/stm32f7xx_hal_tim.c **** /**
1066:../../Drivers/STM32F7xx_HAL_Driver/Src/stm32f7xx_hal_tim.c ****   * @brief  Initializes the TIM PWM MSP.
1067:../../Drivers/STM32F7xx_HAL_Driver/Src/stm32f7xx_hal_tim.c ****   * @param  htim: pointer to a TIM_HandleTypeDef structure that contains
1068:../../Drivers/STM32F7xx_HAL_Driver/Src/stm32f7xx_hal_tim.c ****   *                the configuration information for TIM module.
1069:../../Drivers/STM32F7xx_HAL_Driver/Src/stm32f7xx_hal_tim.c ****   * @retval None
1070:../../Drivers/STM32F7xx_HAL_Driver/Src/stm32f7xx_hal_tim.c ****   */
1071:../../Drivers/STM32F7xx_HAL_Driver/Src/stm32f7xx_hal_tim.c **** __weak void HAL_TIM_PWM_MspInit(TIM_HandleTypeDef *htim)
1072:../../Drivers/STM32F7xx_HAL_Driver/Src/stm32f7xx_hal_tim.c **** {
 2197              		.loc 1 1072 0
 2198              		.cfi_startproc
 2199              		@ args = 0, pretend = 0, frame = 8
 2200              		@ frame_needed = 1, uses_anonymous_args = 0
 2201              		@ link register save eliminated.
 2202 0000 80B4     		push	{r7}
 2203              	.LCFI119:
 2204              		.cfi_def_cfa_offset 4
 2205              		.cfi_offset 7, -4
 2206 0002 83B0     		sub	sp, sp, #12
 2207              	.LCFI120:
 2208              		.cfi_def_cfa_offset 16
 2209 0004 00AF     		add	r7, sp, #0
 2210              	.LCFI121:
 2211              		.cfi_def_cfa_register 7
 2212 0006 7860     		str	r0, [r7, #4]
1073:../../Drivers/STM32F7xx_HAL_Driver/Src/stm32f7xx_hal_tim.c ****   /* Prevent unused argument(s) compilation warning */
1074:../../Drivers/STM32F7xx_HAL_Driver/Src/stm32f7xx_hal_tim.c ****   UNUSED(htim);
1075:../../Drivers/STM32F7xx_HAL_Driver/Src/stm32f7xx_hal_tim.c ****  
1076:../../Drivers/STM32F7xx_HAL_Driver/Src/stm32f7xx_hal_tim.c ****   /* NOTE : This function Should not be modified, when the callback is needed,
1077:../../Drivers/STM32F7xx_HAL_Driver/Src/stm32f7xx_hal_tim.c ****             the HAL_TIM_PWM_MspInit could be implemented in the user file
1078:../../Drivers/STM32F7xx_HAL_Driver/Src/stm32f7xx_hal_tim.c ****    */
1079:../../Drivers/STM32F7xx_HAL_Driver/Src/stm32f7xx_hal_tim.c **** }
 2213              		.loc 1 1079 0
 2214 0008 0C37     		adds	r7, r7, #12
 2215              	.LCFI122:
ARM GAS  /tmp/cc04EBs1.s 			page 58


 2216              		.cfi_def_cfa_offset 4
 2217 000a BD46     		mov	sp, r7
 2218              	.LCFI123:
 2219              		.cfi_def_cfa_register 13
 2220              		@ sp needed
 2221 000c 5DF8047B 		ldr	r7, [sp], #4
 2222              	.LCFI124:
 2223              		.cfi_restore 7
 2224              		.cfi_def_cfa_offset 0
 2225 0010 7047     		bx	lr
 2226              		.cfi_endproc
 2227              	.LFE157:
 2229 0012 00BF     		.section	.text.HAL_TIM_PWM_MspDeInit,"ax",%progbits
 2230              		.align	2
 2231              		.weak	HAL_TIM_PWM_MspDeInit
 2232              		.thumb
 2233              		.thumb_func
 2235              	HAL_TIM_PWM_MspDeInit:
 2236              	.LFB158:
1080:../../Drivers/STM32F7xx_HAL_Driver/Src/stm32f7xx_hal_tim.c **** 
1081:../../Drivers/STM32F7xx_HAL_Driver/Src/stm32f7xx_hal_tim.c **** /**
1082:../../Drivers/STM32F7xx_HAL_Driver/Src/stm32f7xx_hal_tim.c ****   * @brief  DeInitializes TIM PWM MSP.
1083:../../Drivers/STM32F7xx_HAL_Driver/Src/stm32f7xx_hal_tim.c ****   * @param  htim: pointer to a TIM_HandleTypeDef structure that contains
1084:../../Drivers/STM32F7xx_HAL_Driver/Src/stm32f7xx_hal_tim.c ****   *                the configuration information for TIM module.
1085:../../Drivers/STM32F7xx_HAL_Driver/Src/stm32f7xx_hal_tim.c ****   * @retval None
1086:../../Drivers/STM32F7xx_HAL_Driver/Src/stm32f7xx_hal_tim.c ****   */
1087:../../Drivers/STM32F7xx_HAL_Driver/Src/stm32f7xx_hal_tim.c **** __weak void HAL_TIM_PWM_MspDeInit(TIM_HandleTypeDef *htim)
1088:../../Drivers/STM32F7xx_HAL_Driver/Src/stm32f7xx_hal_tim.c **** {
 2237              		.loc 1 1088 0
 2238              		.cfi_startproc
 2239              		@ args = 0, pretend = 0, frame = 8
 2240              		@ frame_needed = 1, uses_anonymous_args = 0
 2241              		@ link register save eliminated.
 2242 0000 80B4     		push	{r7}
 2243              	.LCFI125:
 2244              		.cfi_def_cfa_offset 4
 2245              		.cfi_offset 7, -4
 2246 0002 83B0     		sub	sp, sp, #12
 2247              	.LCFI126:
 2248              		.cfi_def_cfa_offset 16
 2249 0004 00AF     		add	r7, sp, #0
 2250              	.LCFI127:
 2251              		.cfi_def_cfa_register 7
 2252 0006 7860     		str	r0, [r7, #4]
1089:../../Drivers/STM32F7xx_HAL_Driver/Src/stm32f7xx_hal_tim.c ****   /* Prevent unused argument(s) compilation warning */
1090:../../Drivers/STM32F7xx_HAL_Driver/Src/stm32f7xx_hal_tim.c ****   UNUSED(htim);
1091:../../Drivers/STM32F7xx_HAL_Driver/Src/stm32f7xx_hal_tim.c ****  
1092:../../Drivers/STM32F7xx_HAL_Driver/Src/stm32f7xx_hal_tim.c ****   /* NOTE : This function Should not be modified, when the callback is needed,
1093:../../Drivers/STM32F7xx_HAL_Driver/Src/stm32f7xx_hal_tim.c ****             the HAL_TIM_PWM_MspDeInit could be implemented in the user file
1094:../../Drivers/STM32F7xx_HAL_Driver/Src/stm32f7xx_hal_tim.c ****    */
1095:../../Drivers/STM32F7xx_HAL_Driver/Src/stm32f7xx_hal_tim.c **** }
 2253              		.loc 1 1095 0
 2254 0008 0C37     		adds	r7, r7, #12
 2255              	.LCFI128:
 2256              		.cfi_def_cfa_offset 4
 2257 000a BD46     		mov	sp, r7
 2258              	.LCFI129:
ARM GAS  /tmp/cc04EBs1.s 			page 59


 2259              		.cfi_def_cfa_register 13
 2260              		@ sp needed
 2261 000c 5DF8047B 		ldr	r7, [sp], #4
 2262              	.LCFI130:
 2263              		.cfi_restore 7
 2264              		.cfi_def_cfa_offset 0
 2265 0010 7047     		bx	lr
 2266              		.cfi_endproc
 2267              	.LFE158:
 2269 0012 00BF     		.section	.text.HAL_TIM_PWM_Start,"ax",%progbits
 2270              		.align	2
 2271              		.global	HAL_TIM_PWM_Start
 2272              		.thumb
 2273              		.thumb_func
 2275              	HAL_TIM_PWM_Start:
 2276              	.LFB159:
1096:../../Drivers/STM32F7xx_HAL_Driver/Src/stm32f7xx_hal_tim.c **** 
1097:../../Drivers/STM32F7xx_HAL_Driver/Src/stm32f7xx_hal_tim.c **** /**
1098:../../Drivers/STM32F7xx_HAL_Driver/Src/stm32f7xx_hal_tim.c ****   * @brief  Starts the PWM signal generation.
1099:../../Drivers/STM32F7xx_HAL_Driver/Src/stm32f7xx_hal_tim.c ****   * @param  htim: pointer to a TIM_HandleTypeDef structure that contains
1100:../../Drivers/STM32F7xx_HAL_Driver/Src/stm32f7xx_hal_tim.c ****   *                the configuration information for TIM module.
1101:../../Drivers/STM32F7xx_HAL_Driver/Src/stm32f7xx_hal_tim.c ****   * @param  Channel: TIM Channels to be enabled.
1102:../../Drivers/STM32F7xx_HAL_Driver/Src/stm32f7xx_hal_tim.c ****   *          This parameter can be one of the following values:
1103:../../Drivers/STM32F7xx_HAL_Driver/Src/stm32f7xx_hal_tim.c ****   *            @arg TIM_CHANNEL_1: TIM Channel 1 selected
1104:../../Drivers/STM32F7xx_HAL_Driver/Src/stm32f7xx_hal_tim.c ****   *            @arg TIM_CHANNEL_2: TIM Channel 2 selected
1105:../../Drivers/STM32F7xx_HAL_Driver/Src/stm32f7xx_hal_tim.c ****   *            @arg TIM_CHANNEL_3: TIM Channel 3 selected
1106:../../Drivers/STM32F7xx_HAL_Driver/Src/stm32f7xx_hal_tim.c ****   *            @arg TIM_CHANNEL_4: TIM Channel 4 selected
1107:../../Drivers/STM32F7xx_HAL_Driver/Src/stm32f7xx_hal_tim.c ****   * @retval HAL status
1108:../../Drivers/STM32F7xx_HAL_Driver/Src/stm32f7xx_hal_tim.c ****   */
1109:../../Drivers/STM32F7xx_HAL_Driver/Src/stm32f7xx_hal_tim.c **** HAL_StatusTypeDef HAL_TIM_PWM_Start(TIM_HandleTypeDef *htim, uint32_t Channel)
1110:../../Drivers/STM32F7xx_HAL_Driver/Src/stm32f7xx_hal_tim.c **** {
 2277              		.loc 1 1110 0
 2278              		.cfi_startproc
 2279              		@ args = 0, pretend = 0, frame = 8
 2280              		@ frame_needed = 1, uses_anonymous_args = 0
 2281 0000 80B5     		push	{r7, lr}
 2282              	.LCFI131:
 2283              		.cfi_def_cfa_offset 8
 2284              		.cfi_offset 7, -8
 2285              		.cfi_offset 14, -4
 2286 0002 82B0     		sub	sp, sp, #8
 2287              	.LCFI132:
 2288              		.cfi_def_cfa_offset 16
 2289 0004 00AF     		add	r7, sp, #0
 2290              	.LCFI133:
 2291              		.cfi_def_cfa_register 7
 2292 0006 7860     		str	r0, [r7, #4]
 2293 0008 3960     		str	r1, [r7]
1111:../../Drivers/STM32F7xx_HAL_Driver/Src/stm32f7xx_hal_tim.c ****   /* Check the parameters */
1112:../../Drivers/STM32F7xx_HAL_Driver/Src/stm32f7xx_hal_tim.c ****   assert_param(IS_TIM_CCX_INSTANCE(htim->Instance, Channel));
1113:../../Drivers/STM32F7xx_HAL_Driver/Src/stm32f7xx_hal_tim.c **** 
1114:../../Drivers/STM32F7xx_HAL_Driver/Src/stm32f7xx_hal_tim.c ****   /* Enable the Capture compare channel */
1115:../../Drivers/STM32F7xx_HAL_Driver/Src/stm32f7xx_hal_tim.c ****   TIM_CCxChannelCmd(htim->Instance, Channel, TIM_CCx_ENABLE);
 2294              		.loc 1 1115 0
 2295 000a 7B68     		ldr	r3, [r7, #4]
 2296 000c 1B68     		ldr	r3, [r3]
 2297 000e 1846     		mov	r0, r3
ARM GAS  /tmp/cc04EBs1.s 			page 60


 2298 0010 3968     		ldr	r1, [r7]
 2299 0012 0122     		movs	r2, #1
 2300 0014 FFF7FEFF 		bl	TIM_CCxChannelCmd
1116:../../Drivers/STM32F7xx_HAL_Driver/Src/stm32f7xx_hal_tim.c ****   
1117:../../Drivers/STM32F7xx_HAL_Driver/Src/stm32f7xx_hal_tim.c ****   if(IS_TIM_ADVANCED_INSTANCE(htim->Instance) != RESET)  
 2301              		.loc 1 1117 0
 2302 0018 7B68     		ldr	r3, [r7, #4]
 2303 001a 1B68     		ldr	r3, [r3]
 2304 001c 104A     		ldr	r2, .L140
 2305 001e 9342     		cmp	r3, r2
 2306 0020 04D0     		beq	.L135
 2307              		.loc 1 1117 0 is_stmt 0 discriminator 2
 2308 0022 7B68     		ldr	r3, [r7, #4]
 2309 0024 1B68     		ldr	r3, [r3]
 2310 0026 0F4A     		ldr	r2, .L140+4
 2311 0028 9342     		cmp	r3, r2
 2312 002a 01D1     		bne	.L136
 2313              	.L135:
 2314              		.loc 1 1117 0 discriminator 3
 2315 002c 0123     		movs	r3, #1
 2316 002e 00E0     		b	.L137
 2317              	.L136:
 2318              		.loc 1 1117 0 discriminator 4
 2319 0030 0023     		movs	r3, #0
 2320              	.L137:
 2321              		.loc 1 1117 0 discriminator 6
 2322 0032 002B     		cmp	r3, #0
 2323 0034 07D0     		beq	.L138
1118:../../Drivers/STM32F7xx_HAL_Driver/Src/stm32f7xx_hal_tim.c ****   {
1119:../../Drivers/STM32F7xx_HAL_Driver/Src/stm32f7xx_hal_tim.c ****     /* Enable the main output */
1120:../../Drivers/STM32F7xx_HAL_Driver/Src/stm32f7xx_hal_tim.c ****     __HAL_TIM_MOE_ENABLE(htim);
 2324              		.loc 1 1120 0 is_stmt 1
 2325 0036 7B68     		ldr	r3, [r7, #4]
 2326 0038 1B68     		ldr	r3, [r3]
 2327 003a 7A68     		ldr	r2, [r7, #4]
 2328 003c 1268     		ldr	r2, [r2]
 2329 003e 526C     		ldr	r2, [r2, #68]
 2330 0040 42F40042 		orr	r2, r2, #32768
 2331 0044 5A64     		str	r2, [r3, #68]
 2332              	.L138:
1121:../../Drivers/STM32F7xx_HAL_Driver/Src/stm32f7xx_hal_tim.c ****   }
1122:../../Drivers/STM32F7xx_HAL_Driver/Src/stm32f7xx_hal_tim.c ****     
1123:../../Drivers/STM32F7xx_HAL_Driver/Src/stm32f7xx_hal_tim.c ****   /* Enable the Peripheral */
1124:../../Drivers/STM32F7xx_HAL_Driver/Src/stm32f7xx_hal_tim.c ****   __HAL_TIM_ENABLE(htim);
 2333              		.loc 1 1124 0
 2334 0046 7B68     		ldr	r3, [r7, #4]
 2335 0048 1B68     		ldr	r3, [r3]
 2336 004a 7A68     		ldr	r2, [r7, #4]
 2337 004c 1268     		ldr	r2, [r2]
 2338 004e 1268     		ldr	r2, [r2]
 2339 0050 42F00102 		orr	r2, r2, #1
 2340 0054 1A60     		str	r2, [r3]
1125:../../Drivers/STM32F7xx_HAL_Driver/Src/stm32f7xx_hal_tim.c ****   
1126:../../Drivers/STM32F7xx_HAL_Driver/Src/stm32f7xx_hal_tim.c ****   /* Return function status */
1127:../../Drivers/STM32F7xx_HAL_Driver/Src/stm32f7xx_hal_tim.c ****   return HAL_OK;
 2341              		.loc 1 1127 0
 2342 0056 0023     		movs	r3, #0
ARM GAS  /tmp/cc04EBs1.s 			page 61


1128:../../Drivers/STM32F7xx_HAL_Driver/Src/stm32f7xx_hal_tim.c **** } 
 2343              		.loc 1 1128 0
 2344 0058 1846     		mov	r0, r3
 2345 005a 0837     		adds	r7, r7, #8
 2346              	.LCFI134:
 2347              		.cfi_def_cfa_offset 8
 2348 005c BD46     		mov	sp, r7
 2349              	.LCFI135:
 2350              		.cfi_def_cfa_register 13
 2351              		@ sp needed
 2352 005e 80BD     		pop	{r7, pc}
 2353              	.L141:
 2354              		.align	2
 2355              	.L140:
 2356 0060 00000140 		.word	1073807360
 2357 0064 00040140 		.word	1073808384
 2358              		.cfi_endproc
 2359              	.LFE159:
 2361              		.section	.text.HAL_TIM_PWM_Stop,"ax",%progbits
 2362              		.align	2
 2363              		.global	HAL_TIM_PWM_Stop
 2364              		.thumb
 2365              		.thumb_func
 2367              	HAL_TIM_PWM_Stop:
 2368              	.LFB160:
1129:../../Drivers/STM32F7xx_HAL_Driver/Src/stm32f7xx_hal_tim.c **** 
1130:../../Drivers/STM32F7xx_HAL_Driver/Src/stm32f7xx_hal_tim.c **** /**
1131:../../Drivers/STM32F7xx_HAL_Driver/Src/stm32f7xx_hal_tim.c ****   * @brief  Stops the PWM signal generation.
1132:../../Drivers/STM32F7xx_HAL_Driver/Src/stm32f7xx_hal_tim.c ****   * @param  htim: pointer to a TIM_HandleTypeDef structure that contains
1133:../../Drivers/STM32F7xx_HAL_Driver/Src/stm32f7xx_hal_tim.c ****   *                the configuration information for TIM module.
1134:../../Drivers/STM32F7xx_HAL_Driver/Src/stm32f7xx_hal_tim.c ****   * @param  Channel: TIM Channels to be disabled.
1135:../../Drivers/STM32F7xx_HAL_Driver/Src/stm32f7xx_hal_tim.c ****   *          This parameter can be one of the following values:
1136:../../Drivers/STM32F7xx_HAL_Driver/Src/stm32f7xx_hal_tim.c ****   *            @arg TIM_CHANNEL_1: TIM Channel 1 selected
1137:../../Drivers/STM32F7xx_HAL_Driver/Src/stm32f7xx_hal_tim.c ****   *            @arg TIM_CHANNEL_2: TIM Channel 2 selected
1138:../../Drivers/STM32F7xx_HAL_Driver/Src/stm32f7xx_hal_tim.c ****   *            @arg TIM_CHANNEL_3: TIM Channel 3 selected
1139:../../Drivers/STM32F7xx_HAL_Driver/Src/stm32f7xx_hal_tim.c ****   *            @arg TIM_CHANNEL_4: TIM Channel 4 selected
1140:../../Drivers/STM32F7xx_HAL_Driver/Src/stm32f7xx_hal_tim.c ****   * @retval HAL status
1141:../../Drivers/STM32F7xx_HAL_Driver/Src/stm32f7xx_hal_tim.c ****   */
1142:../../Drivers/STM32F7xx_HAL_Driver/Src/stm32f7xx_hal_tim.c **** HAL_StatusTypeDef HAL_TIM_PWM_Stop(TIM_HandleTypeDef *htim, uint32_t Channel)
1143:../../Drivers/STM32F7xx_HAL_Driver/Src/stm32f7xx_hal_tim.c **** { 
 2369              		.loc 1 1143 0
 2370              		.cfi_startproc
 2371              		@ args = 0, pretend = 0, frame = 8
 2372              		@ frame_needed = 1, uses_anonymous_args = 0
 2373 0000 80B5     		push	{r7, lr}
 2374              	.LCFI136:
 2375              		.cfi_def_cfa_offset 8
 2376              		.cfi_offset 7, -8
 2377              		.cfi_offset 14, -4
 2378 0002 82B0     		sub	sp, sp, #8
 2379              	.LCFI137:
 2380              		.cfi_def_cfa_offset 16
 2381 0004 00AF     		add	r7, sp, #0
 2382              	.LCFI138:
 2383              		.cfi_def_cfa_register 7
 2384 0006 7860     		str	r0, [r7, #4]
 2385 0008 3960     		str	r1, [r7]
ARM GAS  /tmp/cc04EBs1.s 			page 62


1144:../../Drivers/STM32F7xx_HAL_Driver/Src/stm32f7xx_hal_tim.c ****   /* Check the parameters */
1145:../../Drivers/STM32F7xx_HAL_Driver/Src/stm32f7xx_hal_tim.c ****   assert_param(IS_TIM_CCX_INSTANCE(htim->Instance, Channel));
1146:../../Drivers/STM32F7xx_HAL_Driver/Src/stm32f7xx_hal_tim.c ****     
1147:../../Drivers/STM32F7xx_HAL_Driver/Src/stm32f7xx_hal_tim.c ****   /* Disable the Capture compare channel */
1148:../../Drivers/STM32F7xx_HAL_Driver/Src/stm32f7xx_hal_tim.c ****   TIM_CCxChannelCmd(htim->Instance, Channel, TIM_CCx_DISABLE);
 2386              		.loc 1 1148 0
 2387 000a 7B68     		ldr	r3, [r7, #4]
 2388 000c 1B68     		ldr	r3, [r3]
 2389 000e 1846     		mov	r0, r3
 2390 0010 3968     		ldr	r1, [r7]
 2391 0012 0022     		movs	r2, #0
 2392 0014 FFF7FEFF 		bl	TIM_CCxChannelCmd
1149:../../Drivers/STM32F7xx_HAL_Driver/Src/stm32f7xx_hal_tim.c ****   
1150:../../Drivers/STM32F7xx_HAL_Driver/Src/stm32f7xx_hal_tim.c ****   if(IS_TIM_ADVANCED_INSTANCE(htim->Instance) != RESET)  
 2393              		.loc 1 1150 0
 2394 0018 7B68     		ldr	r3, [r7, #4]
 2395 001a 1B68     		ldr	r3, [r3]
 2396 001c 224A     		ldr	r2, .L149
 2397 001e 9342     		cmp	r3, r2
 2398 0020 04D0     		beq	.L143
 2399              		.loc 1 1150 0 is_stmt 0 discriminator 2
 2400 0022 7B68     		ldr	r3, [r7, #4]
 2401 0024 1B68     		ldr	r3, [r3]
 2402 0026 214A     		ldr	r2, .L149+4
 2403 0028 9342     		cmp	r3, r2
 2404 002a 01D1     		bne	.L144
 2405              	.L143:
 2406              		.loc 1 1150 0 discriminator 3
 2407 002c 0123     		movs	r3, #1
 2408 002e 00E0     		b	.L145
 2409              	.L144:
 2410              		.loc 1 1150 0 discriminator 4
 2411 0030 0023     		movs	r3, #0
 2412              	.L145:
 2413              		.loc 1 1150 0 discriminator 6
 2414 0032 002B     		cmp	r3, #0
 2415 0034 17D0     		beq	.L146
1151:../../Drivers/STM32F7xx_HAL_Driver/Src/stm32f7xx_hal_tim.c ****   {
1152:../../Drivers/STM32F7xx_HAL_Driver/Src/stm32f7xx_hal_tim.c ****     /* Disable the Main Output */
1153:../../Drivers/STM32F7xx_HAL_Driver/Src/stm32f7xx_hal_tim.c ****     __HAL_TIM_MOE_DISABLE(htim);
 2416              		.loc 1 1153 0 is_stmt 1
 2417 0036 7B68     		ldr	r3, [r7, #4]
 2418 0038 1B68     		ldr	r3, [r3]
 2419 003a 1A6A     		ldr	r2, [r3, #32]
 2420 003c 41F21113 		movw	r3, #4369
 2421 0040 1340     		ands	r3, r3, r2
 2422 0042 002B     		cmp	r3, #0
 2423 0044 0FD1     		bne	.L146
 2424              		.loc 1 1153 0 is_stmt 0 discriminator 1
 2425 0046 7B68     		ldr	r3, [r7, #4]
 2426 0048 1B68     		ldr	r3, [r3]
 2427 004a 1A6A     		ldr	r2, [r3, #32]
 2428 004c 40F24443 		movw	r3, #1092
 2429 0050 1340     		ands	r3, r3, r2
 2430 0052 002B     		cmp	r3, #0
 2431 0054 07D1     		bne	.L146
 2432              		.loc 1 1153 0 discriminator 2
ARM GAS  /tmp/cc04EBs1.s 			page 63


 2433 0056 7B68     		ldr	r3, [r7, #4]
 2434 0058 1B68     		ldr	r3, [r3]
 2435 005a 7A68     		ldr	r2, [r7, #4]
 2436 005c 1268     		ldr	r2, [r2]
 2437 005e 526C     		ldr	r2, [r2, #68]
 2438 0060 22F40042 		bic	r2, r2, #32768
 2439 0064 5A64     		str	r2, [r3, #68]
 2440              	.L146:
1154:../../Drivers/STM32F7xx_HAL_Driver/Src/stm32f7xx_hal_tim.c ****   }
1155:../../Drivers/STM32F7xx_HAL_Driver/Src/stm32f7xx_hal_tim.c ****   
1156:../../Drivers/STM32F7xx_HAL_Driver/Src/stm32f7xx_hal_tim.c ****   /* Disable the Peripheral */
1157:../../Drivers/STM32F7xx_HAL_Driver/Src/stm32f7xx_hal_tim.c ****   __HAL_TIM_DISABLE(htim);
 2441              		.loc 1 1157 0 is_stmt 1
 2442 0066 7B68     		ldr	r3, [r7, #4]
 2443 0068 1B68     		ldr	r3, [r3]
 2444 006a 1A6A     		ldr	r2, [r3, #32]
 2445 006c 41F21113 		movw	r3, #4369
 2446 0070 1340     		ands	r3, r3, r2
 2447 0072 002B     		cmp	r3, #0
 2448 0074 0FD1     		bne	.L147
 2449              		.loc 1 1157 0 is_stmt 0 discriminator 1
 2450 0076 7B68     		ldr	r3, [r7, #4]
 2451 0078 1B68     		ldr	r3, [r3]
 2452 007a 1A6A     		ldr	r2, [r3, #32]
 2453 007c 40F24443 		movw	r3, #1092
 2454 0080 1340     		ands	r3, r3, r2
 2455 0082 002B     		cmp	r3, #0
 2456 0084 07D1     		bne	.L147
 2457              		.loc 1 1157 0 discriminator 2
 2458 0086 7B68     		ldr	r3, [r7, #4]
 2459 0088 1B68     		ldr	r3, [r3]
 2460 008a 7A68     		ldr	r2, [r7, #4]
 2461 008c 1268     		ldr	r2, [r2]
 2462 008e 1268     		ldr	r2, [r2]
 2463 0090 22F00102 		bic	r2, r2, #1
 2464 0094 1A60     		str	r2, [r3]
 2465              	.L147:
1158:../../Drivers/STM32F7xx_HAL_Driver/Src/stm32f7xx_hal_tim.c ****   
1159:../../Drivers/STM32F7xx_HAL_Driver/Src/stm32f7xx_hal_tim.c ****   /* Change the htim state */
1160:../../Drivers/STM32F7xx_HAL_Driver/Src/stm32f7xx_hal_tim.c ****   htim->State = HAL_TIM_STATE_READY;
 2466              		.loc 1 1160 0 is_stmt 1
 2467 0096 7B68     		ldr	r3, [r7, #4]
 2468 0098 0122     		movs	r2, #1
 2469 009a 83F83D20 		strb	r2, [r3, #61]
1161:../../Drivers/STM32F7xx_HAL_Driver/Src/stm32f7xx_hal_tim.c ****   
1162:../../Drivers/STM32F7xx_HAL_Driver/Src/stm32f7xx_hal_tim.c ****   /* Return function status */
1163:../../Drivers/STM32F7xx_HAL_Driver/Src/stm32f7xx_hal_tim.c ****   return HAL_OK;
 2470              		.loc 1 1163 0
 2471 009e 0023     		movs	r3, #0
1164:../../Drivers/STM32F7xx_HAL_Driver/Src/stm32f7xx_hal_tim.c **** } 
 2472              		.loc 1 1164 0
 2473 00a0 1846     		mov	r0, r3
 2474 00a2 0837     		adds	r7, r7, #8
 2475              	.LCFI139:
 2476              		.cfi_def_cfa_offset 8
 2477 00a4 BD46     		mov	sp, r7
 2478              	.LCFI140:
ARM GAS  /tmp/cc04EBs1.s 			page 64


 2479              		.cfi_def_cfa_register 13
 2480              		@ sp needed
 2481 00a6 80BD     		pop	{r7, pc}
 2482              	.L150:
 2483              		.align	2
 2484              	.L149:
 2485 00a8 00000140 		.word	1073807360
 2486 00ac 00040140 		.word	1073808384
 2487              		.cfi_endproc
 2488              	.LFE160:
 2490              		.section	.text.HAL_TIM_PWM_Start_IT,"ax",%progbits
 2491              		.align	2
 2492              		.global	HAL_TIM_PWM_Start_IT
 2493              		.thumb
 2494              		.thumb_func
 2496              	HAL_TIM_PWM_Start_IT:
 2497              	.LFB161:
1165:../../Drivers/STM32F7xx_HAL_Driver/Src/stm32f7xx_hal_tim.c **** 
1166:../../Drivers/STM32F7xx_HAL_Driver/Src/stm32f7xx_hal_tim.c **** /**
1167:../../Drivers/STM32F7xx_HAL_Driver/Src/stm32f7xx_hal_tim.c ****   * @brief  Starts the PWM signal generation in interrupt mode.
1168:../../Drivers/STM32F7xx_HAL_Driver/Src/stm32f7xx_hal_tim.c ****   * @param  htim: pointer to a TIM_HandleTypeDef structure that contains
1169:../../Drivers/STM32F7xx_HAL_Driver/Src/stm32f7xx_hal_tim.c ****   *                the configuration information for TIM module.
1170:../../Drivers/STM32F7xx_HAL_Driver/Src/stm32f7xx_hal_tim.c ****   * @param  Channel: TIM Channel to be enabled.
1171:../../Drivers/STM32F7xx_HAL_Driver/Src/stm32f7xx_hal_tim.c ****   *          This parameter can be one of the following values:
1172:../../Drivers/STM32F7xx_HAL_Driver/Src/stm32f7xx_hal_tim.c ****   *            @arg TIM_CHANNEL_1: TIM Channel 1 selected
1173:../../Drivers/STM32F7xx_HAL_Driver/Src/stm32f7xx_hal_tim.c ****   *            @arg TIM_CHANNEL_2: TIM Channel 2 selected
1174:../../Drivers/STM32F7xx_HAL_Driver/Src/stm32f7xx_hal_tim.c ****   *            @arg TIM_CHANNEL_3: TIM Channel 3 selected
1175:../../Drivers/STM32F7xx_HAL_Driver/Src/stm32f7xx_hal_tim.c ****   *            @arg TIM_CHANNEL_4: TIM Channel 4 selected
1176:../../Drivers/STM32F7xx_HAL_Driver/Src/stm32f7xx_hal_tim.c ****   * @retval HAL status
1177:../../Drivers/STM32F7xx_HAL_Driver/Src/stm32f7xx_hal_tim.c ****   */
1178:../../Drivers/STM32F7xx_HAL_Driver/Src/stm32f7xx_hal_tim.c **** HAL_StatusTypeDef HAL_TIM_PWM_Start_IT(TIM_HandleTypeDef *htim, uint32_t Channel)
1179:../../Drivers/STM32F7xx_HAL_Driver/Src/stm32f7xx_hal_tim.c **** {
 2498              		.loc 1 1179 0
 2499              		.cfi_startproc
 2500              		@ args = 0, pretend = 0, frame = 8
 2501              		@ frame_needed = 1, uses_anonymous_args = 0
 2502 0000 80B5     		push	{r7, lr}
 2503              	.LCFI141:
 2504              		.cfi_def_cfa_offset 8
 2505              		.cfi_offset 7, -8
 2506              		.cfi_offset 14, -4
 2507 0002 82B0     		sub	sp, sp, #8
 2508              	.LCFI142:
 2509              		.cfi_def_cfa_offset 16
 2510 0004 00AF     		add	r7, sp, #0
 2511              	.LCFI143:
 2512              		.cfi_def_cfa_register 7
 2513 0006 7860     		str	r0, [r7, #4]
 2514 0008 3960     		str	r1, [r7]
1180:../../Drivers/STM32F7xx_HAL_Driver/Src/stm32f7xx_hal_tim.c ****   /* Check the parameters */
1181:../../Drivers/STM32F7xx_HAL_Driver/Src/stm32f7xx_hal_tim.c ****   assert_param(IS_TIM_CCX_INSTANCE(htim->Instance, Channel));
1182:../../Drivers/STM32F7xx_HAL_Driver/Src/stm32f7xx_hal_tim.c ****   
1183:../../Drivers/STM32F7xx_HAL_Driver/Src/stm32f7xx_hal_tim.c ****   switch (Channel)
 2515              		.loc 1 1183 0
 2516 000a 3B68     		ldr	r3, [r7]
 2517 000c 0C2B     		cmp	r3, #12
 2518 000e 41D8     		bhi	.L164
ARM GAS  /tmp/cc04EBs1.s 			page 65


 2519 0010 01A2     		adr	r2, .L154
 2520 0012 52F823F0 		ldr	pc, [r2, r3, lsl #2]
 2521 0016 00BF     		.p2align 2
 2522              	.L154:
 2523 0018 4D000000 		.word	.L153+1
 2524 001c 95000000 		.word	.L164+1
 2525 0020 95000000 		.word	.L164+1
 2526 0024 95000000 		.word	.L164+1
 2527 0028 5F000000 		.word	.L155+1
 2528 002c 95000000 		.word	.L164+1
 2529 0030 95000000 		.word	.L164+1
 2530 0034 95000000 		.word	.L164+1
 2531 0038 71000000 		.word	.L156+1
 2532 003c 95000000 		.word	.L164+1
 2533 0040 95000000 		.word	.L164+1
 2534 0044 95000000 		.word	.L164+1
 2535 0048 83000000 		.word	.L157+1
 2536              		.p2align 1
 2537              	.L153:
1184:../../Drivers/STM32F7xx_HAL_Driver/Src/stm32f7xx_hal_tim.c ****   {
1185:../../Drivers/STM32F7xx_HAL_Driver/Src/stm32f7xx_hal_tim.c ****     case TIM_CHANNEL_1:
1186:../../Drivers/STM32F7xx_HAL_Driver/Src/stm32f7xx_hal_tim.c ****     {       
1187:../../Drivers/STM32F7xx_HAL_Driver/Src/stm32f7xx_hal_tim.c ****       /* Enable the TIM Capture/Compare 1 interrupt */
1188:../../Drivers/STM32F7xx_HAL_Driver/Src/stm32f7xx_hal_tim.c ****       __HAL_TIM_ENABLE_IT(htim, TIM_IT_CC1);
 2538              		.loc 1 1188 0
 2539 004c 7B68     		ldr	r3, [r7, #4]
 2540 004e 1B68     		ldr	r3, [r3]
 2541 0050 7A68     		ldr	r2, [r7, #4]
 2542 0052 1268     		ldr	r2, [r2]
 2543 0054 D268     		ldr	r2, [r2, #12]
 2544 0056 42F00202 		orr	r2, r2, #2
 2545 005a DA60     		str	r2, [r3, #12]
1189:../../Drivers/STM32F7xx_HAL_Driver/Src/stm32f7xx_hal_tim.c ****     }
1190:../../Drivers/STM32F7xx_HAL_Driver/Src/stm32f7xx_hal_tim.c ****     break;
 2546              		.loc 1 1190 0
 2547 005c 1BE0     		b	.L158
 2548              	.L155:
1191:../../Drivers/STM32F7xx_HAL_Driver/Src/stm32f7xx_hal_tim.c ****     
1192:../../Drivers/STM32F7xx_HAL_Driver/Src/stm32f7xx_hal_tim.c ****     case TIM_CHANNEL_2:
1193:../../Drivers/STM32F7xx_HAL_Driver/Src/stm32f7xx_hal_tim.c ****     {
1194:../../Drivers/STM32F7xx_HAL_Driver/Src/stm32f7xx_hal_tim.c ****       /* Enable the TIM Capture/Compare 2 interrupt */
1195:../../Drivers/STM32F7xx_HAL_Driver/Src/stm32f7xx_hal_tim.c ****       __HAL_TIM_ENABLE_IT(htim, TIM_IT_CC2);
 2549              		.loc 1 1195 0
 2550 005e 7B68     		ldr	r3, [r7, #4]
 2551 0060 1B68     		ldr	r3, [r3]
 2552 0062 7A68     		ldr	r2, [r7, #4]
 2553 0064 1268     		ldr	r2, [r2]
 2554 0066 D268     		ldr	r2, [r2, #12]
 2555 0068 42F00402 		orr	r2, r2, #4
 2556 006c DA60     		str	r2, [r3, #12]
1196:../../Drivers/STM32F7xx_HAL_Driver/Src/stm32f7xx_hal_tim.c ****     }
1197:../../Drivers/STM32F7xx_HAL_Driver/Src/stm32f7xx_hal_tim.c ****     break;
 2557              		.loc 1 1197 0
 2558 006e 12E0     		b	.L158
 2559              	.L156:
1198:../../Drivers/STM32F7xx_HAL_Driver/Src/stm32f7xx_hal_tim.c ****     
1199:../../Drivers/STM32F7xx_HAL_Driver/Src/stm32f7xx_hal_tim.c ****     case TIM_CHANNEL_3:
ARM GAS  /tmp/cc04EBs1.s 			page 66


1200:../../Drivers/STM32F7xx_HAL_Driver/Src/stm32f7xx_hal_tim.c ****     {
1201:../../Drivers/STM32F7xx_HAL_Driver/Src/stm32f7xx_hal_tim.c ****       /* Enable the TIM Capture/Compare 3 interrupt */
1202:../../Drivers/STM32F7xx_HAL_Driver/Src/stm32f7xx_hal_tim.c ****       __HAL_TIM_ENABLE_IT(htim, TIM_IT_CC3);
 2560              		.loc 1 1202 0
 2561 0070 7B68     		ldr	r3, [r7, #4]
 2562 0072 1B68     		ldr	r3, [r3]
 2563 0074 7A68     		ldr	r2, [r7, #4]
 2564 0076 1268     		ldr	r2, [r2]
 2565 0078 D268     		ldr	r2, [r2, #12]
 2566 007a 42F00802 		orr	r2, r2, #8
 2567 007e DA60     		str	r2, [r3, #12]
1203:../../Drivers/STM32F7xx_HAL_Driver/Src/stm32f7xx_hal_tim.c ****     }
1204:../../Drivers/STM32F7xx_HAL_Driver/Src/stm32f7xx_hal_tim.c ****     break;
 2568              		.loc 1 1204 0
 2569 0080 09E0     		b	.L158
 2570              	.L157:
1205:../../Drivers/STM32F7xx_HAL_Driver/Src/stm32f7xx_hal_tim.c ****     
1206:../../Drivers/STM32F7xx_HAL_Driver/Src/stm32f7xx_hal_tim.c ****     case TIM_CHANNEL_4:
1207:../../Drivers/STM32F7xx_HAL_Driver/Src/stm32f7xx_hal_tim.c ****     {
1208:../../Drivers/STM32F7xx_HAL_Driver/Src/stm32f7xx_hal_tim.c ****       /* Enable the TIM Capture/Compare 4 interrupt */
1209:../../Drivers/STM32F7xx_HAL_Driver/Src/stm32f7xx_hal_tim.c ****       __HAL_TIM_ENABLE_IT(htim, TIM_IT_CC4);
 2571              		.loc 1 1209 0
 2572 0082 7B68     		ldr	r3, [r7, #4]
 2573 0084 1B68     		ldr	r3, [r3]
 2574 0086 7A68     		ldr	r2, [r7, #4]
 2575 0088 1268     		ldr	r2, [r2]
 2576 008a D268     		ldr	r2, [r2, #12]
 2577 008c 42F01002 		orr	r2, r2, #16
 2578 0090 DA60     		str	r2, [r3, #12]
1210:../../Drivers/STM32F7xx_HAL_Driver/Src/stm32f7xx_hal_tim.c ****     }
1211:../../Drivers/STM32F7xx_HAL_Driver/Src/stm32f7xx_hal_tim.c ****     break;
 2579              		.loc 1 1211 0
 2580 0092 00E0     		b	.L158
 2581              	.L164:
1212:../../Drivers/STM32F7xx_HAL_Driver/Src/stm32f7xx_hal_tim.c ****     
1213:../../Drivers/STM32F7xx_HAL_Driver/Src/stm32f7xx_hal_tim.c ****     default:
1214:../../Drivers/STM32F7xx_HAL_Driver/Src/stm32f7xx_hal_tim.c ****     break;
 2582              		.loc 1 1214 0
 2583 0094 00BF     		nop
 2584              	.L158:
1215:../../Drivers/STM32F7xx_HAL_Driver/Src/stm32f7xx_hal_tim.c ****   } 
1216:../../Drivers/STM32F7xx_HAL_Driver/Src/stm32f7xx_hal_tim.c ****   
1217:../../Drivers/STM32F7xx_HAL_Driver/Src/stm32f7xx_hal_tim.c ****   /* Enable the Capture compare channel */
1218:../../Drivers/STM32F7xx_HAL_Driver/Src/stm32f7xx_hal_tim.c ****   TIM_CCxChannelCmd(htim->Instance, Channel, TIM_CCx_ENABLE);
 2585              		.loc 1 1218 0
 2586 0096 7B68     		ldr	r3, [r7, #4]
 2587 0098 1B68     		ldr	r3, [r3]
 2588 009a 1846     		mov	r0, r3
 2589 009c 3968     		ldr	r1, [r7]
 2590 009e 0122     		movs	r2, #1
 2591 00a0 FFF7FEFF 		bl	TIM_CCxChannelCmd
1219:../../Drivers/STM32F7xx_HAL_Driver/Src/stm32f7xx_hal_tim.c ****   
1220:../../Drivers/STM32F7xx_HAL_Driver/Src/stm32f7xx_hal_tim.c ****   if(IS_TIM_ADVANCED_INSTANCE(htim->Instance) != RESET)  
 2592              		.loc 1 1220 0
 2593 00a4 7B68     		ldr	r3, [r7, #4]
 2594 00a6 1B68     		ldr	r3, [r3]
 2595 00a8 104A     		ldr	r2, .L165
ARM GAS  /tmp/cc04EBs1.s 			page 67


 2596 00aa 9342     		cmp	r3, r2
 2597 00ac 04D0     		beq	.L159
 2598              		.loc 1 1220 0 is_stmt 0 discriminator 2
 2599 00ae 7B68     		ldr	r3, [r7, #4]
 2600 00b0 1B68     		ldr	r3, [r3]
 2601 00b2 0F4A     		ldr	r2, .L165+4
 2602 00b4 9342     		cmp	r3, r2
 2603 00b6 01D1     		bne	.L160
 2604              	.L159:
 2605              		.loc 1 1220 0 discriminator 3
 2606 00b8 0123     		movs	r3, #1
 2607 00ba 00E0     		b	.L161
 2608              	.L160:
 2609              		.loc 1 1220 0 discriminator 4
 2610 00bc 0023     		movs	r3, #0
 2611              	.L161:
 2612              		.loc 1 1220 0 discriminator 6
 2613 00be 002B     		cmp	r3, #0
 2614 00c0 07D0     		beq	.L162
1221:../../Drivers/STM32F7xx_HAL_Driver/Src/stm32f7xx_hal_tim.c ****   {
1222:../../Drivers/STM32F7xx_HAL_Driver/Src/stm32f7xx_hal_tim.c ****     /* Enable the main output */
1223:../../Drivers/STM32F7xx_HAL_Driver/Src/stm32f7xx_hal_tim.c ****     __HAL_TIM_MOE_ENABLE(htim);
 2615              		.loc 1 1223 0 is_stmt 1
 2616 00c2 7B68     		ldr	r3, [r7, #4]
 2617 00c4 1B68     		ldr	r3, [r3]
 2618 00c6 7A68     		ldr	r2, [r7, #4]
 2619 00c8 1268     		ldr	r2, [r2]
 2620 00ca 526C     		ldr	r2, [r2, #68]
 2621 00cc 42F40042 		orr	r2, r2, #32768
 2622 00d0 5A64     		str	r2, [r3, #68]
 2623              	.L162:
1224:../../Drivers/STM32F7xx_HAL_Driver/Src/stm32f7xx_hal_tim.c ****   }
1225:../../Drivers/STM32F7xx_HAL_Driver/Src/stm32f7xx_hal_tim.c **** 
1226:../../Drivers/STM32F7xx_HAL_Driver/Src/stm32f7xx_hal_tim.c ****   /* Enable the Peripheral */
1227:../../Drivers/STM32F7xx_HAL_Driver/Src/stm32f7xx_hal_tim.c ****   __HAL_TIM_ENABLE(htim);
 2624              		.loc 1 1227 0
 2625 00d2 7B68     		ldr	r3, [r7, #4]
 2626 00d4 1B68     		ldr	r3, [r3]
 2627 00d6 7A68     		ldr	r2, [r7, #4]
 2628 00d8 1268     		ldr	r2, [r2]
 2629 00da 1268     		ldr	r2, [r2]
 2630 00dc 42F00102 		orr	r2, r2, #1
 2631 00e0 1A60     		str	r2, [r3]
1228:../../Drivers/STM32F7xx_HAL_Driver/Src/stm32f7xx_hal_tim.c ****   
1229:../../Drivers/STM32F7xx_HAL_Driver/Src/stm32f7xx_hal_tim.c ****   /* Return function status */
1230:../../Drivers/STM32F7xx_HAL_Driver/Src/stm32f7xx_hal_tim.c ****   return HAL_OK;
 2632              		.loc 1 1230 0
 2633 00e2 0023     		movs	r3, #0
1231:../../Drivers/STM32F7xx_HAL_Driver/Src/stm32f7xx_hal_tim.c **** } 
 2634              		.loc 1 1231 0
 2635 00e4 1846     		mov	r0, r3
 2636 00e6 0837     		adds	r7, r7, #8
 2637              	.LCFI144:
 2638              		.cfi_def_cfa_offset 8
 2639 00e8 BD46     		mov	sp, r7
 2640              	.LCFI145:
 2641              		.cfi_def_cfa_register 13
ARM GAS  /tmp/cc04EBs1.s 			page 68


 2642              		@ sp needed
 2643 00ea 80BD     		pop	{r7, pc}
 2644              	.L166:
 2645              		.align	2
 2646              	.L165:
 2647 00ec 00000140 		.word	1073807360
 2648 00f0 00040140 		.word	1073808384
 2649              		.cfi_endproc
 2650              	.LFE161:
 2652              		.section	.text.HAL_TIM_PWM_Stop_IT,"ax",%progbits
 2653              		.align	2
 2654              		.global	HAL_TIM_PWM_Stop_IT
 2655              		.thumb
 2656              		.thumb_func
 2658              	HAL_TIM_PWM_Stop_IT:
 2659              	.LFB162:
1232:../../Drivers/STM32F7xx_HAL_Driver/Src/stm32f7xx_hal_tim.c **** 
1233:../../Drivers/STM32F7xx_HAL_Driver/Src/stm32f7xx_hal_tim.c **** /**
1234:../../Drivers/STM32F7xx_HAL_Driver/Src/stm32f7xx_hal_tim.c ****   * @brief  Stops the PWM signal generation in interrupt mode.
1235:../../Drivers/STM32F7xx_HAL_Driver/Src/stm32f7xx_hal_tim.c ****   * @param  htim: pointer to a TIM_HandleTypeDef structure that contains
1236:../../Drivers/STM32F7xx_HAL_Driver/Src/stm32f7xx_hal_tim.c ****   *                the configuration information for TIM module.
1237:../../Drivers/STM32F7xx_HAL_Driver/Src/stm32f7xx_hal_tim.c ****   * @param  Channel: TIM Channels to be disabled.
1238:../../Drivers/STM32F7xx_HAL_Driver/Src/stm32f7xx_hal_tim.c ****   *          This parameter can be one of the following values:
1239:../../Drivers/STM32F7xx_HAL_Driver/Src/stm32f7xx_hal_tim.c ****   *            @arg TIM_CHANNEL_1: TIM Channel 1 selected
1240:../../Drivers/STM32F7xx_HAL_Driver/Src/stm32f7xx_hal_tim.c ****   *            @arg TIM_CHANNEL_2: TIM Channel 2 selected
1241:../../Drivers/STM32F7xx_HAL_Driver/Src/stm32f7xx_hal_tim.c ****   *            @arg TIM_CHANNEL_3: TIM Channel 3 selected
1242:../../Drivers/STM32F7xx_HAL_Driver/Src/stm32f7xx_hal_tim.c ****   *            @arg TIM_CHANNEL_4: TIM Channel 4 selected
1243:../../Drivers/STM32F7xx_HAL_Driver/Src/stm32f7xx_hal_tim.c ****   * @retval HAL status
1244:../../Drivers/STM32F7xx_HAL_Driver/Src/stm32f7xx_hal_tim.c ****   */
1245:../../Drivers/STM32F7xx_HAL_Driver/Src/stm32f7xx_hal_tim.c **** HAL_StatusTypeDef HAL_TIM_PWM_Stop_IT (TIM_HandleTypeDef *htim, uint32_t Channel)
1246:../../Drivers/STM32F7xx_HAL_Driver/Src/stm32f7xx_hal_tim.c **** {
 2660              		.loc 1 1246 0
 2661              		.cfi_startproc
 2662              		@ args = 0, pretend = 0, frame = 8
 2663              		@ frame_needed = 1, uses_anonymous_args = 0
 2664 0000 80B5     		push	{r7, lr}
 2665              	.LCFI146:
 2666              		.cfi_def_cfa_offset 8
 2667              		.cfi_offset 7, -8
 2668              		.cfi_offset 14, -4
 2669 0002 82B0     		sub	sp, sp, #8
 2670              	.LCFI147:
 2671              		.cfi_def_cfa_offset 16
 2672 0004 00AF     		add	r7, sp, #0
 2673              	.LCFI148:
 2674              		.cfi_def_cfa_register 7
 2675 0006 7860     		str	r0, [r7, #4]
 2676 0008 3960     		str	r1, [r7]
1247:../../Drivers/STM32F7xx_HAL_Driver/Src/stm32f7xx_hal_tim.c ****   /* Check the parameters */
1248:../../Drivers/STM32F7xx_HAL_Driver/Src/stm32f7xx_hal_tim.c ****   assert_param(IS_TIM_CCX_INSTANCE(htim->Instance, Channel));
1249:../../Drivers/STM32F7xx_HAL_Driver/Src/stm32f7xx_hal_tim.c ****   
1250:../../Drivers/STM32F7xx_HAL_Driver/Src/stm32f7xx_hal_tim.c ****   switch (Channel)
 2677              		.loc 1 1250 0
 2678 000a 3B68     		ldr	r3, [r7]
 2679 000c 0C2B     		cmp	r3, #12
 2680 000e 41D8     		bhi	.L181
 2681 0010 01A2     		adr	r2, .L170
ARM GAS  /tmp/cc04EBs1.s 			page 69


 2682 0012 52F823F0 		ldr	pc, [r2, r3, lsl #2]
 2683 0016 00BF     		.p2align 2
 2684              	.L170:
 2685 0018 4D000000 		.word	.L169+1
 2686 001c 95000000 		.word	.L181+1
 2687 0020 95000000 		.word	.L181+1
 2688 0024 95000000 		.word	.L181+1
 2689 0028 5F000000 		.word	.L171+1
 2690 002c 95000000 		.word	.L181+1
 2691 0030 95000000 		.word	.L181+1
 2692 0034 95000000 		.word	.L181+1
 2693 0038 71000000 		.word	.L172+1
 2694 003c 95000000 		.word	.L181+1
 2695 0040 95000000 		.word	.L181+1
 2696 0044 95000000 		.word	.L181+1
 2697 0048 83000000 		.word	.L173+1
 2698              		.p2align 1
 2699              	.L169:
1251:../../Drivers/STM32F7xx_HAL_Driver/Src/stm32f7xx_hal_tim.c ****   {
1252:../../Drivers/STM32F7xx_HAL_Driver/Src/stm32f7xx_hal_tim.c ****     case TIM_CHANNEL_1:
1253:../../Drivers/STM32F7xx_HAL_Driver/Src/stm32f7xx_hal_tim.c ****     {       
1254:../../Drivers/STM32F7xx_HAL_Driver/Src/stm32f7xx_hal_tim.c ****       /* Disable the TIM Capture/Compare 1 interrupt */
1255:../../Drivers/STM32F7xx_HAL_Driver/Src/stm32f7xx_hal_tim.c ****       __HAL_TIM_DISABLE_IT(htim, TIM_IT_CC1);
 2700              		.loc 1 1255 0
 2701 004c 7B68     		ldr	r3, [r7, #4]
 2702 004e 1B68     		ldr	r3, [r3]
 2703 0050 7A68     		ldr	r2, [r7, #4]
 2704 0052 1268     		ldr	r2, [r2]
 2705 0054 D268     		ldr	r2, [r2, #12]
 2706 0056 22F00202 		bic	r2, r2, #2
 2707 005a DA60     		str	r2, [r3, #12]
1256:../../Drivers/STM32F7xx_HAL_Driver/Src/stm32f7xx_hal_tim.c ****     }
1257:../../Drivers/STM32F7xx_HAL_Driver/Src/stm32f7xx_hal_tim.c ****     break;
 2708              		.loc 1 1257 0
 2709 005c 1BE0     		b	.L174
 2710              	.L171:
1258:../../Drivers/STM32F7xx_HAL_Driver/Src/stm32f7xx_hal_tim.c ****     
1259:../../Drivers/STM32F7xx_HAL_Driver/Src/stm32f7xx_hal_tim.c ****     case TIM_CHANNEL_2:
1260:../../Drivers/STM32F7xx_HAL_Driver/Src/stm32f7xx_hal_tim.c ****     {
1261:../../Drivers/STM32F7xx_HAL_Driver/Src/stm32f7xx_hal_tim.c ****       /* Disable the TIM Capture/Compare 2 interrupt */
1262:../../Drivers/STM32F7xx_HAL_Driver/Src/stm32f7xx_hal_tim.c ****       __HAL_TIM_DISABLE_IT(htim, TIM_IT_CC2);
 2711              		.loc 1 1262 0
 2712 005e 7B68     		ldr	r3, [r7, #4]
 2713 0060 1B68     		ldr	r3, [r3]
 2714 0062 7A68     		ldr	r2, [r7, #4]
 2715 0064 1268     		ldr	r2, [r2]
 2716 0066 D268     		ldr	r2, [r2, #12]
 2717 0068 22F00402 		bic	r2, r2, #4
 2718 006c DA60     		str	r2, [r3, #12]
1263:../../Drivers/STM32F7xx_HAL_Driver/Src/stm32f7xx_hal_tim.c ****     }
1264:../../Drivers/STM32F7xx_HAL_Driver/Src/stm32f7xx_hal_tim.c ****     break;
 2719              		.loc 1 1264 0
 2720 006e 12E0     		b	.L174
 2721              	.L172:
1265:../../Drivers/STM32F7xx_HAL_Driver/Src/stm32f7xx_hal_tim.c ****     
1266:../../Drivers/STM32F7xx_HAL_Driver/Src/stm32f7xx_hal_tim.c ****     case TIM_CHANNEL_3:
1267:../../Drivers/STM32F7xx_HAL_Driver/Src/stm32f7xx_hal_tim.c ****     {
ARM GAS  /tmp/cc04EBs1.s 			page 70


1268:../../Drivers/STM32F7xx_HAL_Driver/Src/stm32f7xx_hal_tim.c ****       /* Disable the TIM Capture/Compare 3 interrupt */
1269:../../Drivers/STM32F7xx_HAL_Driver/Src/stm32f7xx_hal_tim.c ****       __HAL_TIM_DISABLE_IT(htim, TIM_IT_CC3);
 2722              		.loc 1 1269 0
 2723 0070 7B68     		ldr	r3, [r7, #4]
 2724 0072 1B68     		ldr	r3, [r3]
 2725 0074 7A68     		ldr	r2, [r7, #4]
 2726 0076 1268     		ldr	r2, [r2]
 2727 0078 D268     		ldr	r2, [r2, #12]
 2728 007a 22F00802 		bic	r2, r2, #8
 2729 007e DA60     		str	r2, [r3, #12]
1270:../../Drivers/STM32F7xx_HAL_Driver/Src/stm32f7xx_hal_tim.c ****     }
1271:../../Drivers/STM32F7xx_HAL_Driver/Src/stm32f7xx_hal_tim.c ****     break;
 2730              		.loc 1 1271 0
 2731 0080 09E0     		b	.L174
 2732              	.L173:
1272:../../Drivers/STM32F7xx_HAL_Driver/Src/stm32f7xx_hal_tim.c ****     
1273:../../Drivers/STM32F7xx_HAL_Driver/Src/stm32f7xx_hal_tim.c ****     case TIM_CHANNEL_4:
1274:../../Drivers/STM32F7xx_HAL_Driver/Src/stm32f7xx_hal_tim.c ****     {
1275:../../Drivers/STM32F7xx_HAL_Driver/Src/stm32f7xx_hal_tim.c ****       /* Disable the TIM Capture/Compare 4 interrupt */
1276:../../Drivers/STM32F7xx_HAL_Driver/Src/stm32f7xx_hal_tim.c ****       __HAL_TIM_DISABLE_IT(htim, TIM_IT_CC4);
 2733              		.loc 1 1276 0
 2734 0082 7B68     		ldr	r3, [r7, #4]
 2735 0084 1B68     		ldr	r3, [r3]
 2736 0086 7A68     		ldr	r2, [r7, #4]
 2737 0088 1268     		ldr	r2, [r2]
 2738 008a D268     		ldr	r2, [r2, #12]
 2739 008c 22F01002 		bic	r2, r2, #16
 2740 0090 DA60     		str	r2, [r3, #12]
1277:../../Drivers/STM32F7xx_HAL_Driver/Src/stm32f7xx_hal_tim.c ****     }
1278:../../Drivers/STM32F7xx_HAL_Driver/Src/stm32f7xx_hal_tim.c ****     break;
 2741              		.loc 1 1278 0
 2742 0092 00E0     		b	.L174
 2743              	.L181:
1279:../../Drivers/STM32F7xx_HAL_Driver/Src/stm32f7xx_hal_tim.c ****     
1280:../../Drivers/STM32F7xx_HAL_Driver/Src/stm32f7xx_hal_tim.c ****     default:
1281:../../Drivers/STM32F7xx_HAL_Driver/Src/stm32f7xx_hal_tim.c ****     break; 
 2744              		.loc 1 1281 0
 2745 0094 00BF     		nop
 2746              	.L174:
1282:../../Drivers/STM32F7xx_HAL_Driver/Src/stm32f7xx_hal_tim.c ****   }
1283:../../Drivers/STM32F7xx_HAL_Driver/Src/stm32f7xx_hal_tim.c ****   
1284:../../Drivers/STM32F7xx_HAL_Driver/Src/stm32f7xx_hal_tim.c ****   /* Disable the Capture compare channel */
1285:../../Drivers/STM32F7xx_HAL_Driver/Src/stm32f7xx_hal_tim.c ****   TIM_CCxChannelCmd(htim->Instance, Channel, TIM_CCx_DISABLE);
 2747              		.loc 1 1285 0
 2748 0096 7B68     		ldr	r3, [r7, #4]
 2749 0098 1B68     		ldr	r3, [r3]
 2750 009a 1846     		mov	r0, r3
 2751 009c 3968     		ldr	r1, [r7]
 2752 009e 0022     		movs	r2, #0
 2753 00a0 FFF7FEFF 		bl	TIM_CCxChannelCmd
1286:../../Drivers/STM32F7xx_HAL_Driver/Src/stm32f7xx_hal_tim.c ****   
1287:../../Drivers/STM32F7xx_HAL_Driver/Src/stm32f7xx_hal_tim.c ****   if(IS_TIM_ADVANCED_INSTANCE(htim->Instance) != RESET)  
 2754              		.loc 1 1287 0
 2755 00a4 7B68     		ldr	r3, [r7, #4]
 2756 00a6 1B68     		ldr	r3, [r3]
 2757 00a8 204A     		ldr	r2, .L182
 2758 00aa 9342     		cmp	r3, r2
ARM GAS  /tmp/cc04EBs1.s 			page 71


 2759 00ac 04D0     		beq	.L175
 2760              		.loc 1 1287 0 is_stmt 0 discriminator 2
 2761 00ae 7B68     		ldr	r3, [r7, #4]
 2762 00b0 1B68     		ldr	r3, [r3]
 2763 00b2 1F4A     		ldr	r2, .L182+4
 2764 00b4 9342     		cmp	r3, r2
 2765 00b6 01D1     		bne	.L176
 2766              	.L175:
 2767              		.loc 1 1287 0 discriminator 3
 2768 00b8 0123     		movs	r3, #1
 2769 00ba 00E0     		b	.L177
 2770              	.L176:
 2771              		.loc 1 1287 0 discriminator 4
 2772 00bc 0023     		movs	r3, #0
 2773              	.L177:
 2774              		.loc 1 1287 0 discriminator 6
 2775 00be 002B     		cmp	r3, #0
 2776 00c0 17D0     		beq	.L178
1288:../../Drivers/STM32F7xx_HAL_Driver/Src/stm32f7xx_hal_tim.c ****   {
1289:../../Drivers/STM32F7xx_HAL_Driver/Src/stm32f7xx_hal_tim.c ****     /* Disable the Main Output */
1290:../../Drivers/STM32F7xx_HAL_Driver/Src/stm32f7xx_hal_tim.c ****     __HAL_TIM_MOE_DISABLE(htim);
 2777              		.loc 1 1290 0 is_stmt 1
 2778 00c2 7B68     		ldr	r3, [r7, #4]
 2779 00c4 1B68     		ldr	r3, [r3]
 2780 00c6 1A6A     		ldr	r2, [r3, #32]
 2781 00c8 41F21113 		movw	r3, #4369
 2782 00cc 1340     		ands	r3, r3, r2
 2783 00ce 002B     		cmp	r3, #0
 2784 00d0 0FD1     		bne	.L178
 2785              		.loc 1 1290 0 is_stmt 0 discriminator 1
 2786 00d2 7B68     		ldr	r3, [r7, #4]
 2787 00d4 1B68     		ldr	r3, [r3]
 2788 00d6 1A6A     		ldr	r2, [r3, #32]
 2789 00d8 40F24443 		movw	r3, #1092
 2790 00dc 1340     		ands	r3, r3, r2
 2791 00de 002B     		cmp	r3, #0
 2792 00e0 07D1     		bne	.L178
 2793              		.loc 1 1290 0 discriminator 2
 2794 00e2 7B68     		ldr	r3, [r7, #4]
 2795 00e4 1B68     		ldr	r3, [r3]
 2796 00e6 7A68     		ldr	r2, [r7, #4]
 2797 00e8 1268     		ldr	r2, [r2]
 2798 00ea 526C     		ldr	r2, [r2, #68]
 2799 00ec 22F40042 		bic	r2, r2, #32768
 2800 00f0 5A64     		str	r2, [r3, #68]
 2801              	.L178:
1291:../../Drivers/STM32F7xx_HAL_Driver/Src/stm32f7xx_hal_tim.c ****   }
1292:../../Drivers/STM32F7xx_HAL_Driver/Src/stm32f7xx_hal_tim.c ****   
1293:../../Drivers/STM32F7xx_HAL_Driver/Src/stm32f7xx_hal_tim.c ****   /* Disable the Peripheral */
1294:../../Drivers/STM32F7xx_HAL_Driver/Src/stm32f7xx_hal_tim.c ****   __HAL_TIM_DISABLE(htim);
 2802              		.loc 1 1294 0 is_stmt 1
 2803 00f2 7B68     		ldr	r3, [r7, #4]
 2804 00f4 1B68     		ldr	r3, [r3]
 2805 00f6 1A6A     		ldr	r2, [r3, #32]
 2806 00f8 41F21113 		movw	r3, #4369
 2807 00fc 1340     		ands	r3, r3, r2
 2808 00fe 002B     		cmp	r3, #0
ARM GAS  /tmp/cc04EBs1.s 			page 72


 2809 0100 0FD1     		bne	.L179
 2810              		.loc 1 1294 0 is_stmt 0 discriminator 1
 2811 0102 7B68     		ldr	r3, [r7, #4]
 2812 0104 1B68     		ldr	r3, [r3]
 2813 0106 1A6A     		ldr	r2, [r3, #32]
 2814 0108 40F24443 		movw	r3, #1092
 2815 010c 1340     		ands	r3, r3, r2
 2816 010e 002B     		cmp	r3, #0
 2817 0110 07D1     		bne	.L179
 2818              		.loc 1 1294 0 discriminator 2
 2819 0112 7B68     		ldr	r3, [r7, #4]
 2820 0114 1B68     		ldr	r3, [r3]
 2821 0116 7A68     		ldr	r2, [r7, #4]
 2822 0118 1268     		ldr	r2, [r2]
 2823 011a 1268     		ldr	r2, [r2]
 2824 011c 22F00102 		bic	r2, r2, #1
 2825 0120 1A60     		str	r2, [r3]
 2826              	.L179:
1295:../../Drivers/STM32F7xx_HAL_Driver/Src/stm32f7xx_hal_tim.c ****   
1296:../../Drivers/STM32F7xx_HAL_Driver/Src/stm32f7xx_hal_tim.c ****   /* Return function status */
1297:../../Drivers/STM32F7xx_HAL_Driver/Src/stm32f7xx_hal_tim.c ****   return HAL_OK;
 2827              		.loc 1 1297 0 is_stmt 1
 2828 0122 0023     		movs	r3, #0
1298:../../Drivers/STM32F7xx_HAL_Driver/Src/stm32f7xx_hal_tim.c **** } 
 2829              		.loc 1 1298 0
 2830 0124 1846     		mov	r0, r3
 2831 0126 0837     		adds	r7, r7, #8
 2832              	.LCFI149:
 2833              		.cfi_def_cfa_offset 8
 2834 0128 BD46     		mov	sp, r7
 2835              	.LCFI150:
 2836              		.cfi_def_cfa_register 13
 2837              		@ sp needed
 2838 012a 80BD     		pop	{r7, pc}
 2839              	.L183:
 2840              		.align	2
 2841              	.L182:
 2842 012c 00000140 		.word	1073807360
 2843 0130 00040140 		.word	1073808384
 2844              		.cfi_endproc
 2845              	.LFE162:
 2847              		.section	.text.HAL_TIM_PWM_Start_DMA,"ax",%progbits
 2848              		.align	2
 2849              		.global	HAL_TIM_PWM_Start_DMA
 2850              		.thumb
 2851              		.thumb_func
 2853              	HAL_TIM_PWM_Start_DMA:
 2854              	.LFB163:
1299:../../Drivers/STM32F7xx_HAL_Driver/Src/stm32f7xx_hal_tim.c **** 
1300:../../Drivers/STM32F7xx_HAL_Driver/Src/stm32f7xx_hal_tim.c **** /**
1301:../../Drivers/STM32F7xx_HAL_Driver/Src/stm32f7xx_hal_tim.c ****   * @brief  Starts the TIM PWM signal generation in DMA mode.
1302:../../Drivers/STM32F7xx_HAL_Driver/Src/stm32f7xx_hal_tim.c ****   * @param  htim: pointer to a TIM_HandleTypeDef structure that contains
1303:../../Drivers/STM32F7xx_HAL_Driver/Src/stm32f7xx_hal_tim.c ****   *                the configuration information for TIM module.
1304:../../Drivers/STM32F7xx_HAL_Driver/Src/stm32f7xx_hal_tim.c ****   * @param  Channel: TIM Channels to be enabled.
1305:../../Drivers/STM32F7xx_HAL_Driver/Src/stm32f7xx_hal_tim.c ****   *          This parameter can be one of the following values:
1306:../../Drivers/STM32F7xx_HAL_Driver/Src/stm32f7xx_hal_tim.c ****   *            @arg TIM_CHANNEL_1: TIM Channel 1 selected
1307:../../Drivers/STM32F7xx_HAL_Driver/Src/stm32f7xx_hal_tim.c ****   *            @arg TIM_CHANNEL_2: TIM Channel 2 selected
ARM GAS  /tmp/cc04EBs1.s 			page 73


1308:../../Drivers/STM32F7xx_HAL_Driver/Src/stm32f7xx_hal_tim.c ****   *            @arg TIM_CHANNEL_3: TIM Channel 3 selected
1309:../../Drivers/STM32F7xx_HAL_Driver/Src/stm32f7xx_hal_tim.c ****   *            @arg TIM_CHANNEL_4: TIM Channel 4 selected
1310:../../Drivers/STM32F7xx_HAL_Driver/Src/stm32f7xx_hal_tim.c ****   * @param  pData: The source Buffer address.
1311:../../Drivers/STM32F7xx_HAL_Driver/Src/stm32f7xx_hal_tim.c ****   * @param  Length: The length of data to be transferred from memory to TIM peripheral
1312:../../Drivers/STM32F7xx_HAL_Driver/Src/stm32f7xx_hal_tim.c ****   * @retval HAL status
1313:../../Drivers/STM32F7xx_HAL_Driver/Src/stm32f7xx_hal_tim.c ****   */
1314:../../Drivers/STM32F7xx_HAL_Driver/Src/stm32f7xx_hal_tim.c **** HAL_StatusTypeDef HAL_TIM_PWM_Start_DMA(TIM_HandleTypeDef *htim, uint32_t Channel, uint32_t *pData,
1315:../../Drivers/STM32F7xx_HAL_Driver/Src/stm32f7xx_hal_tim.c **** {
 2855              		.loc 1 1315 0
 2856              		.cfi_startproc
 2857              		@ args = 0, pretend = 0, frame = 16
 2858              		@ frame_needed = 1, uses_anonymous_args = 0
 2859 0000 90B5     		push	{r4, r7, lr}
 2860              	.LCFI151:
 2861              		.cfi_def_cfa_offset 12
 2862              		.cfi_offset 4, -12
 2863              		.cfi_offset 7, -8
 2864              		.cfi_offset 14, -4
 2865 0002 85B0     		sub	sp, sp, #20
 2866              	.LCFI152:
 2867              		.cfi_def_cfa_offset 32
 2868 0004 00AF     		add	r7, sp, #0
 2869              	.LCFI153:
 2870              		.cfi_def_cfa_register 7
 2871 0006 F860     		str	r0, [r7, #12]
 2872 0008 B960     		str	r1, [r7, #8]
 2873 000a 7A60     		str	r2, [r7, #4]
 2874 000c 7B80     		strh	r3, [r7, #2]	@ movhi
1316:../../Drivers/STM32F7xx_HAL_Driver/Src/stm32f7xx_hal_tim.c ****   /* Check the parameters */
1317:../../Drivers/STM32F7xx_HAL_Driver/Src/stm32f7xx_hal_tim.c ****   assert_param(IS_TIM_CCX_INSTANCE(htim->Instance, Channel));
1318:../../Drivers/STM32F7xx_HAL_Driver/Src/stm32f7xx_hal_tim.c ****   
1319:../../Drivers/STM32F7xx_HAL_Driver/Src/stm32f7xx_hal_tim.c ****   if((htim->State == HAL_TIM_STATE_BUSY))
 2875              		.loc 1 1319 0
 2876 000e FB68     		ldr	r3, [r7, #12]
 2877 0010 93F83D30 		ldrb	r3, [r3, #61]
 2878 0014 DBB2     		uxtb	r3, r3
 2879 0016 022B     		cmp	r3, #2
 2880 0018 01D1     		bne	.L185
1320:../../Drivers/STM32F7xx_HAL_Driver/Src/stm32f7xx_hal_tim.c ****   {
1321:../../Drivers/STM32F7xx_HAL_Driver/Src/stm32f7xx_hal_tim.c ****      return HAL_BUSY;
 2881              		.loc 1 1321 0
 2882 001a 0223     		movs	r3, #2
 2883 001c D2E0     		b	.L186
 2884              	.L185:
1322:../../Drivers/STM32F7xx_HAL_Driver/Src/stm32f7xx_hal_tim.c ****   }
1323:../../Drivers/STM32F7xx_HAL_Driver/Src/stm32f7xx_hal_tim.c ****   else if((htim->State == HAL_TIM_STATE_READY))
 2885              		.loc 1 1323 0
 2886 001e FB68     		ldr	r3, [r7, #12]
 2887 0020 93F83D30 		ldrb	r3, [r3, #61]
 2888 0024 DBB2     		uxtb	r3, r3
 2889 0026 012B     		cmp	r3, #1
 2890 0028 0BD1     		bne	.L187
1324:../../Drivers/STM32F7xx_HAL_Driver/Src/stm32f7xx_hal_tim.c ****   {
1325:../../Drivers/STM32F7xx_HAL_Driver/Src/stm32f7xx_hal_tim.c ****     if(((uint32_t)pData == 0 ) && (Length > 0)) 
 2891              		.loc 1 1325 0
 2892 002a 7B68     		ldr	r3, [r7, #4]
 2893 002c 002B     		cmp	r3, #0
ARM GAS  /tmp/cc04EBs1.s 			page 74


 2894 002e 04D1     		bne	.L188
 2895              		.loc 1 1325 0 is_stmt 0 discriminator 1
 2896 0030 7B88     		ldrh	r3, [r7, #2]
 2897 0032 002B     		cmp	r3, #0
 2898 0034 01D0     		beq	.L188
1326:../../Drivers/STM32F7xx_HAL_Driver/Src/stm32f7xx_hal_tim.c ****     {
1327:../../Drivers/STM32F7xx_HAL_Driver/Src/stm32f7xx_hal_tim.c ****       return HAL_ERROR;                                    
 2899              		.loc 1 1327 0 is_stmt 1
 2900 0036 0123     		movs	r3, #1
 2901 0038 C4E0     		b	.L186
 2902              	.L188:
1328:../../Drivers/STM32F7xx_HAL_Driver/Src/stm32f7xx_hal_tim.c ****     }
1329:../../Drivers/STM32F7xx_HAL_Driver/Src/stm32f7xx_hal_tim.c ****     else
1330:../../Drivers/STM32F7xx_HAL_Driver/Src/stm32f7xx_hal_tim.c ****     {
1331:../../Drivers/STM32F7xx_HAL_Driver/Src/stm32f7xx_hal_tim.c ****       htim->State = HAL_TIM_STATE_BUSY;
 2903              		.loc 1 1331 0
 2904 003a FB68     		ldr	r3, [r7, #12]
 2905 003c 0222     		movs	r2, #2
 2906 003e 83F83D20 		strb	r2, [r3, #61]
 2907              	.L187:
1332:../../Drivers/STM32F7xx_HAL_Driver/Src/stm32f7xx_hal_tim.c ****     }
1333:../../Drivers/STM32F7xx_HAL_Driver/Src/stm32f7xx_hal_tim.c ****   }    
1334:../../Drivers/STM32F7xx_HAL_Driver/Src/stm32f7xx_hal_tim.c ****   switch (Channel)
 2908              		.loc 1 1334 0
 2909 0042 BB68     		ldr	r3, [r7, #8]
 2910 0044 0C2B     		cmp	r3, #12
 2911 0046 00F29580 		bhi	.L200
 2912 004a 01A2     		adr	r2, .L191
 2913 004c 52F823F0 		ldr	pc, [r2, r3, lsl #2]
 2914              		.p2align 2
 2915              	.L191:
 2916 0050 85000000 		.word	.L190+1
 2917 0054 75010000 		.word	.L200+1
 2918 0058 75010000 		.word	.L200+1
 2919 005c 75010000 		.word	.L200+1
 2920 0060 C1000000 		.word	.L192+1
 2921 0064 75010000 		.word	.L200+1
 2922 0068 75010000 		.word	.L200+1
 2923 006c 75010000 		.word	.L200+1
 2924 0070 FD000000 		.word	.L193+1
 2925 0074 75010000 		.word	.L200+1
 2926 0078 75010000 		.word	.L200+1
 2927 007c 75010000 		.word	.L200+1
 2928 0080 39010000 		.word	.L194+1
 2929              		.p2align 1
 2930              	.L190:
1335:../../Drivers/STM32F7xx_HAL_Driver/Src/stm32f7xx_hal_tim.c ****   {
1336:../../Drivers/STM32F7xx_HAL_Driver/Src/stm32f7xx_hal_tim.c ****     case TIM_CHANNEL_1:
1337:../../Drivers/STM32F7xx_HAL_Driver/Src/stm32f7xx_hal_tim.c ****     {      
1338:../../Drivers/STM32F7xx_HAL_Driver/Src/stm32f7xx_hal_tim.c ****       /* Set the DMA Period elapsed callback */
1339:../../Drivers/STM32F7xx_HAL_Driver/Src/stm32f7xx_hal_tim.c ****       htim->hdma[TIM_DMA_ID_CC1]->XferCpltCallback = HAL_TIM_DMADelayPulseCplt;
 2931              		.loc 1 1339 0
 2932 0084 FB68     		ldr	r3, [r7, #12]
 2933 0086 5B6A     		ldr	r3, [r3, #36]
 2934 0088 504A     		ldr	r2, .L201
 2935 008a DA63     		str	r2, [r3, #60]
1340:../../Drivers/STM32F7xx_HAL_Driver/Src/stm32f7xx_hal_tim.c ****      
ARM GAS  /tmp/cc04EBs1.s 			page 75


1341:../../Drivers/STM32F7xx_HAL_Driver/Src/stm32f7xx_hal_tim.c ****       /* Set the DMA error callback */
1342:../../Drivers/STM32F7xx_HAL_Driver/Src/stm32f7xx_hal_tim.c ****       htim->hdma[TIM_DMA_ID_CC1]->XferErrorCallback = HAL_TIM_DMAError ;
 2936              		.loc 1 1342 0
 2937 008c FB68     		ldr	r3, [r7, #12]
 2938 008e 5B6A     		ldr	r3, [r3, #36]
 2939 0090 4F4A     		ldr	r2, .L201+4
 2940 0092 DA64     		str	r2, [r3, #76]
1343:../../Drivers/STM32F7xx_HAL_Driver/Src/stm32f7xx_hal_tim.c ****       
1344:../../Drivers/STM32F7xx_HAL_Driver/Src/stm32f7xx_hal_tim.c ****       /* Enable the DMA Stream */
1345:../../Drivers/STM32F7xx_HAL_Driver/Src/stm32f7xx_hal_tim.c ****       HAL_DMA_Start_IT(htim->hdma[TIM_DMA_ID_CC1], (uint32_t)pData, (uint32_t)&htim->Instance->CCR1
 2941              		.loc 1 1345 0
 2942 0094 FB68     		ldr	r3, [r7, #12]
 2943 0096 596A     		ldr	r1, [r3, #36]
 2944 0098 7A68     		ldr	r2, [r7, #4]
 2945 009a FB68     		ldr	r3, [r7, #12]
 2946 009c 1B68     		ldr	r3, [r3]
 2947 009e 3433     		adds	r3, r3, #52
 2948 00a0 1C46     		mov	r4, r3
 2949 00a2 7B88     		ldrh	r3, [r7, #2]
 2950 00a4 0846     		mov	r0, r1
 2951 00a6 1146     		mov	r1, r2
 2952 00a8 2246     		mov	r2, r4
 2953 00aa FFF7FEFF 		bl	HAL_DMA_Start_IT
1346:../../Drivers/STM32F7xx_HAL_Driver/Src/stm32f7xx_hal_tim.c ****       
1347:../../Drivers/STM32F7xx_HAL_Driver/Src/stm32f7xx_hal_tim.c ****       /* Enable the TIM Capture/Compare 1 DMA request */
1348:../../Drivers/STM32F7xx_HAL_Driver/Src/stm32f7xx_hal_tim.c ****       __HAL_TIM_ENABLE_DMA(htim, TIM_DMA_CC1);
 2954              		.loc 1 1348 0
 2955 00ae FB68     		ldr	r3, [r7, #12]
 2956 00b0 1B68     		ldr	r3, [r3]
 2957 00b2 FA68     		ldr	r2, [r7, #12]
 2958 00b4 1268     		ldr	r2, [r2]
 2959 00b6 D268     		ldr	r2, [r2, #12]
 2960 00b8 42F40072 		orr	r2, r2, #512
 2961 00bc DA60     		str	r2, [r3, #12]
1349:../../Drivers/STM32F7xx_HAL_Driver/Src/stm32f7xx_hal_tim.c ****     }
1350:../../Drivers/STM32F7xx_HAL_Driver/Src/stm32f7xx_hal_tim.c ****     break;
 2962              		.loc 1 1350 0
 2963 00be 5AE0     		b	.L195
 2964              	.L192:
1351:../../Drivers/STM32F7xx_HAL_Driver/Src/stm32f7xx_hal_tim.c ****     
1352:../../Drivers/STM32F7xx_HAL_Driver/Src/stm32f7xx_hal_tim.c ****     case TIM_CHANNEL_2:
1353:../../Drivers/STM32F7xx_HAL_Driver/Src/stm32f7xx_hal_tim.c ****     {
1354:../../Drivers/STM32F7xx_HAL_Driver/Src/stm32f7xx_hal_tim.c ****       /* Set the DMA Period elapsed callback */
1355:../../Drivers/STM32F7xx_HAL_Driver/Src/stm32f7xx_hal_tim.c ****       htim->hdma[TIM_DMA_ID_CC2]->XferCpltCallback = HAL_TIM_DMADelayPulseCplt;
 2965              		.loc 1 1355 0
 2966 00c0 FB68     		ldr	r3, [r7, #12]
 2967 00c2 9B6A     		ldr	r3, [r3, #40]
 2968 00c4 414A     		ldr	r2, .L201
 2969 00c6 DA63     		str	r2, [r3, #60]
1356:../../Drivers/STM32F7xx_HAL_Driver/Src/stm32f7xx_hal_tim.c ****      
1357:../../Drivers/STM32F7xx_HAL_Driver/Src/stm32f7xx_hal_tim.c ****       /* Set the DMA error callback */
1358:../../Drivers/STM32F7xx_HAL_Driver/Src/stm32f7xx_hal_tim.c ****       htim->hdma[TIM_DMA_ID_CC2]->XferErrorCallback = HAL_TIM_DMAError ;
 2970              		.loc 1 1358 0
 2971 00c8 FB68     		ldr	r3, [r7, #12]
 2972 00ca 9B6A     		ldr	r3, [r3, #40]
 2973 00cc 404A     		ldr	r2, .L201+4
 2974 00ce DA64     		str	r2, [r3, #76]
ARM GAS  /tmp/cc04EBs1.s 			page 76


1359:../../Drivers/STM32F7xx_HAL_Driver/Src/stm32f7xx_hal_tim.c ****       
1360:../../Drivers/STM32F7xx_HAL_Driver/Src/stm32f7xx_hal_tim.c ****       /* Enable the DMA Stream */
1361:../../Drivers/STM32F7xx_HAL_Driver/Src/stm32f7xx_hal_tim.c ****       HAL_DMA_Start_IT(htim->hdma[TIM_DMA_ID_CC2], (uint32_t)pData, (uint32_t)&htim->Instance->CCR2
 2975              		.loc 1 1361 0
 2976 00d0 FB68     		ldr	r3, [r7, #12]
 2977 00d2 996A     		ldr	r1, [r3, #40]
 2978 00d4 7A68     		ldr	r2, [r7, #4]
 2979 00d6 FB68     		ldr	r3, [r7, #12]
 2980 00d8 1B68     		ldr	r3, [r3]
 2981 00da 3833     		adds	r3, r3, #56
 2982 00dc 1C46     		mov	r4, r3
 2983 00de 7B88     		ldrh	r3, [r7, #2]
 2984 00e0 0846     		mov	r0, r1
 2985 00e2 1146     		mov	r1, r2
 2986 00e4 2246     		mov	r2, r4
 2987 00e6 FFF7FEFF 		bl	HAL_DMA_Start_IT
1362:../../Drivers/STM32F7xx_HAL_Driver/Src/stm32f7xx_hal_tim.c ****       
1363:../../Drivers/STM32F7xx_HAL_Driver/Src/stm32f7xx_hal_tim.c ****       /* Enable the TIM Capture/Compare 2 DMA request */
1364:../../Drivers/STM32F7xx_HAL_Driver/Src/stm32f7xx_hal_tim.c ****       __HAL_TIM_ENABLE_DMA(htim, TIM_DMA_CC2);
 2988              		.loc 1 1364 0
 2989 00ea FB68     		ldr	r3, [r7, #12]
 2990 00ec 1B68     		ldr	r3, [r3]
 2991 00ee FA68     		ldr	r2, [r7, #12]
 2992 00f0 1268     		ldr	r2, [r2]
 2993 00f2 D268     		ldr	r2, [r2, #12]
 2994 00f4 42F48062 		orr	r2, r2, #1024
 2995 00f8 DA60     		str	r2, [r3, #12]
1365:../../Drivers/STM32F7xx_HAL_Driver/Src/stm32f7xx_hal_tim.c ****     }
1366:../../Drivers/STM32F7xx_HAL_Driver/Src/stm32f7xx_hal_tim.c ****     break;
 2996              		.loc 1 1366 0
 2997 00fa 3CE0     		b	.L195
 2998              	.L193:
1367:../../Drivers/STM32F7xx_HAL_Driver/Src/stm32f7xx_hal_tim.c ****     
1368:../../Drivers/STM32F7xx_HAL_Driver/Src/stm32f7xx_hal_tim.c ****     case TIM_CHANNEL_3:
1369:../../Drivers/STM32F7xx_HAL_Driver/Src/stm32f7xx_hal_tim.c ****     {
1370:../../Drivers/STM32F7xx_HAL_Driver/Src/stm32f7xx_hal_tim.c ****       /* Set the DMA Period elapsed callback */
