ARM GAS  /tmp/ccDIYG4f.s 			page 1


   1              		.syntax unified
   2              		.cpu cortex-m7
   3              		.eabi_attribute 27, 1
   4              		.eabi_attribute 28, 1
   5              		.fpu fpv5-sp-d16
   6              		.eabi_attribute 20, 1
   7              		.eabi_attribute 21, 1
   8              		.eabi_attribute 23, 3
   9              		.eabi_attribute 24, 1
  10              		.eabi_attribute 25, 1
  11              		.eabi_attribute 26, 1
  12              		.eabi_attribute 30, 6
  13              		.eabi_attribute 34, 1
  14              		.eabi_attribute 18, 4
  15              		.thumb
  16              		.file	"stm32f769i_discovery.c"
  17              		.text
  18              	.Ltext0:
  19              		.cfi_sections	.debug_frame
  20              		.global	GPIO_PIN
  21              		.section	.data.GPIO_PIN,"aw",%progbits
  22              		.align	2
  25              	GPIO_PIN:
  26 0000 00200000 		.word	8192
  27 0004 20000000 		.word	32
  28              		.global	GPIO_PORT
  29              		.section	.data.GPIO_PORT,"aw",%progbits
  30              		.align	2
  33              	GPIO_PORT:
  34 0000 00240240 		.word	1073882112
  35 0004 00240240 		.word	1073882112
  36              		.global	BUTTON_PORT
  37              		.section	.data.BUTTON_PORT,"aw",%progbits
  38              		.align	2
  41              	BUTTON_PORT:
  42 0000 00000240 		.word	1073872896
  43              		.global	BUTTON_PIN
  44              		.section	.rodata.BUTTON_PIN,"a",%progbits
  45              		.align	2
  48              	BUTTON_PIN:
  49 0000 0100     		.short	1
  50              		.global	BUTTON_IRQn
  51              		.section	.rodata.BUTTON_IRQn,"a",%progbits
  52              		.align	2
  55              	BUTTON_IRQn:
  56 0000 0600     		.short	6
  57              		.section	.bss.hI2cAudioHandler,"aw",%nobits
  58              		.align	2
  61              	hI2cAudioHandler:
  62 0000 00000000 		.space	76
  62      00000000 
  62      00000000 
  62      00000000 
  62      00000000 
  63              		.section	.bss.hI2cExtHandler,"aw",%nobits
  64              		.align	2
  67              	hI2cExtHandler:
ARM GAS  /tmp/ccDIYG4f.s 			page 2


  68 0000 00000000 		.space	76
  68      00000000 
  68      00000000 
  68      00000000 
  68      00000000 
  69              		.section	.text.BSP_GetVersion,"ax",%progbits
  70              		.align	2
  71              		.global	BSP_GetVersion
  72              		.thumb
  73              		.thumb_func
  75              	BSP_GetVersion:
  76              	.LFB135:
  77              		.file 1 "../../Drivers/BSP/STM32F769I-Discovery/stm32f769i_discovery.c"
   1:../../Drivers/BSP/STM32F769I-Discovery/stm32f769i_discovery.c **** /**
   2:../../Drivers/BSP/STM32F769I-Discovery/stm32f769i_discovery.c ****   ******************************************************************************
   3:../../Drivers/BSP/STM32F769I-Discovery/stm32f769i_discovery.c ****   * @file    stm32f769i_discovery.c
   4:../../Drivers/BSP/STM32F769I-Discovery/stm32f769i_discovery.c ****   * @author  MCD Application Team
   5:../../Drivers/BSP/STM32F769I-Discovery/stm32f769i_discovery.c ****   * @version V1.1.0
   6:../../Drivers/BSP/STM32F769I-Discovery/stm32f769i_discovery.c ****   * @date    29-August-2016
   7:../../Drivers/BSP/STM32F769I-Discovery/stm32f769i_discovery.c ****   * @brief   This file provides a set of firmware functions to manage LEDs,
   8:../../Drivers/BSP/STM32F769I-Discovery/stm32f769i_discovery.c ****   *          push-buttons, external SDRAM, external QSPI Flash, RF EEPROM,
   9:../../Drivers/BSP/STM32F769I-Discovery/stm32f769i_discovery.c ****   *          available on STM32F769I-Discovery board (MB1225) from 
  10:../../Drivers/BSP/STM32F769I-Discovery/stm32f769i_discovery.c ****   *          STMicroelectronics.
  11:../../Drivers/BSP/STM32F769I-Discovery/stm32f769i_discovery.c ****   ******************************************************************************
  12:../../Drivers/BSP/STM32F769I-Discovery/stm32f769i_discovery.c ****   * @attention
  13:../../Drivers/BSP/STM32F769I-Discovery/stm32f769i_discovery.c ****   *
  14:../../Drivers/BSP/STM32F769I-Discovery/stm32f769i_discovery.c ****   * <h2><center>&copy; COPYRIGHT(c) 2016 STMicroelectronics</center></h2>
  15:../../Drivers/BSP/STM32F769I-Discovery/stm32f769i_discovery.c ****   *
  16:../../Drivers/BSP/STM32F769I-Discovery/stm32f769i_discovery.c ****   * Redistribution and use in source and binary forms, with or without modification,
  17:../../Drivers/BSP/STM32F769I-Discovery/stm32f769i_discovery.c ****   * are permitted provided that the following conditions are met:
  18:../../Drivers/BSP/STM32F769I-Discovery/stm32f769i_discovery.c ****   *   1. Redistributions of source code must retain the above copyright notice,
  19:../../Drivers/BSP/STM32F769I-Discovery/stm32f769i_discovery.c ****   *      this list of conditions and the following disclaimer.
  20:../../Drivers/BSP/STM32F769I-Discovery/stm32f769i_discovery.c ****   *   2. Redistributions in binary form must reproduce the above copyright notice,
  21:../../Drivers/BSP/STM32F769I-Discovery/stm32f769i_discovery.c ****   *      this list of conditions and the following disclaimer in the documentation
  22:../../Drivers/BSP/STM32F769I-Discovery/stm32f769i_discovery.c ****   *      and/or other materials provided with the distribution.
  23:../../Drivers/BSP/STM32F769I-Discovery/stm32f769i_discovery.c ****   *   3. Neither the name of STMicroelectronics nor the names of its contributors
  24:../../Drivers/BSP/STM32F769I-Discovery/stm32f769i_discovery.c ****   *      may be used to endorse or promote products derived from this software
  25:../../Drivers/BSP/STM32F769I-Discovery/stm32f769i_discovery.c ****   *      without specific prior written permission.
  26:../../Drivers/BSP/STM32F769I-Discovery/stm32f769i_discovery.c ****   *
  27:../../Drivers/BSP/STM32F769I-Discovery/stm32f769i_discovery.c ****   * THIS SOFTWARE IS PROVIDED BY THE COPYRIGHT HOLDERS AND CONTRIBUTORS "AS IS"
  28:../../Drivers/BSP/STM32F769I-Discovery/stm32f769i_discovery.c ****   * AND ANY EXPRESS OR IMPLIED WARRANTIES, INCLUDING, BUT NOT LIMITED TO, THE
  29:../../Drivers/BSP/STM32F769I-Discovery/stm32f769i_discovery.c ****   * IMPLIED WARRANTIES OF MERCHANTABILITY AND FITNESS FOR A PARTICULAR PURPOSE ARE
  30:../../Drivers/BSP/STM32F769I-Discovery/stm32f769i_discovery.c ****   * DISCLAIMED. IN NO EVENT SHALL THE COPYRIGHT HOLDER OR CONTRIBUTORS BE LIABLE
  31:../../Drivers/BSP/STM32F769I-Discovery/stm32f769i_discovery.c ****   * FOR ANY DIRECT, INDIRECT, INCIDENTAL, SPECIAL, EXEMPLARY, OR CONSEQUENTIAL
  32:../../Drivers/BSP/STM32F769I-Discovery/stm32f769i_discovery.c ****   * DAMAGES (INCLUDING, BUT NOT LIMITED TO, PROCUREMENT OF SUBSTITUTE GOODS OR
  33:../../Drivers/BSP/STM32F769I-Discovery/stm32f769i_discovery.c ****   * SERVICES; LOSS OF USE, DATA, OR PROFITS; OR BUSINESS INTERRUPTION) HOWEVER
  34:../../Drivers/BSP/STM32F769I-Discovery/stm32f769i_discovery.c ****   * CAUSED AND ON ANY THEORY OF LIABILITY, WHETHER IN CONTRACT, STRICT LIABILITY,
  35:../../Drivers/BSP/STM32F769I-Discovery/stm32f769i_discovery.c ****   * OR TORT (INCLUDING NEGLIGENCE OR OTHERWISE) ARISING IN ANY WAY OUT OF THE USE
  36:../../Drivers/BSP/STM32F769I-Discovery/stm32f769i_discovery.c ****   * OF THIS SOFTWARE, EVEN IF ADVISED OF THE POSSIBILITY OF SUCH DAMAGE.
  37:../../Drivers/BSP/STM32F769I-Discovery/stm32f769i_discovery.c ****   *
  38:../../Drivers/BSP/STM32F769I-Discovery/stm32f769i_discovery.c ****   ******************************************************************************
  39:../../Drivers/BSP/STM32F769I-Discovery/stm32f769i_discovery.c ****   */
  40:../../Drivers/BSP/STM32F769I-Discovery/stm32f769i_discovery.c **** 
  41:../../Drivers/BSP/STM32F769I-Discovery/stm32f769i_discovery.c **** /* Includes ------------------------------------------------------------------*/
  42:../../Drivers/BSP/STM32F769I-Discovery/stm32f769i_discovery.c **** #include "stm32f769i_discovery.h"
  43:../../Drivers/BSP/STM32F769I-Discovery/stm32f769i_discovery.c **** 
  44:../../Drivers/BSP/STM32F769I-Discovery/stm32f769i_discovery.c **** /** @addtogroup BSP
ARM GAS  /tmp/ccDIYG4f.s 			page 3


  45:../../Drivers/BSP/STM32F769I-Discovery/stm32f769i_discovery.c ****   * @{
  46:../../Drivers/BSP/STM32F769I-Discovery/stm32f769i_discovery.c ****   */
  47:../../Drivers/BSP/STM32F769I-Discovery/stm32f769i_discovery.c **** 
  48:../../Drivers/BSP/STM32F769I-Discovery/stm32f769i_discovery.c **** /** @addtogroup STM32F769I_Discovery
  49:../../Drivers/BSP/STM32F769I-Discovery/stm32f769i_discovery.c ****   * @{
  50:../../Drivers/BSP/STM32F769I-Discovery/stm32f769i_discovery.c ****   */
  51:../../Drivers/BSP/STM32F769I-Discovery/stm32f769i_discovery.c **** 
  52:../../Drivers/BSP/STM32F769I-Discovery/stm32f769i_discovery.c **** /** @defgroup STM32F769I_Discovery_LOW_LEVEL STM32F769I-Discovery LOW LEVEL
  53:../../Drivers/BSP/STM32F769I-Discovery/stm32f769i_discovery.c ****   * @{
  54:../../Drivers/BSP/STM32F769I-Discovery/stm32f769i_discovery.c ****   */
  55:../../Drivers/BSP/STM32F769I-Discovery/stm32f769i_discovery.c **** 
  56:../../Drivers/BSP/STM32F769I-Discovery/stm32f769i_discovery.c **** /** @defgroup STM32F769I_Discovery_LOW_LEVEL_Private_TypesDefinitions STM32F769I Discovery Low Leve
  57:../../Drivers/BSP/STM32F769I-Discovery/stm32f769i_discovery.c ****   * @{
  58:../../Drivers/BSP/STM32F769I-Discovery/stm32f769i_discovery.c ****   */
  59:../../Drivers/BSP/STM32F769I-Discovery/stm32f769i_discovery.c **** /**
  60:../../Drivers/BSP/STM32F769I-Discovery/stm32f769i_discovery.c ****   * @}
  61:../../Drivers/BSP/STM32F769I-Discovery/stm32f769i_discovery.c ****   */
  62:../../Drivers/BSP/STM32F769I-Discovery/stm32f769i_discovery.c **** 
  63:../../Drivers/BSP/STM32F769I-Discovery/stm32f769i_discovery.c **** /** @defgroup STM32F769I_Discovery_LOW_LEVEL_Private_Defines LOW_LEVEL Private Defines
  64:../../Drivers/BSP/STM32F769I-Discovery/stm32f769i_discovery.c ****   * @{
  65:../../Drivers/BSP/STM32F769I-Discovery/stm32f769i_discovery.c ****   */
  66:../../Drivers/BSP/STM32F769I-Discovery/stm32f769i_discovery.c **** /**
  67:../../Drivers/BSP/STM32F769I-Discovery/stm32f769i_discovery.c ****  * @brief STM32F769I Discovery BSP Driver version number V1.1.0
  68:../../Drivers/BSP/STM32F769I-Discovery/stm32f769i_discovery.c ****    */
  69:../../Drivers/BSP/STM32F769I-Discovery/stm32f769i_discovery.c **** #define __STM32F769I_DISCOVERY_BSP_VERSION_MAIN   (0x01) /*!< [31:24] main version */
  70:../../Drivers/BSP/STM32F769I-Discovery/stm32f769i_discovery.c **** #define __STM32F769I_DISCOVERY_BSP_VERSION_SUB1   (0x01) /*!< [23:16] sub1 version */
  71:../../Drivers/BSP/STM32F769I-Discovery/stm32f769i_discovery.c **** #define __STM32F769I_DISCOVERY_BSP_VERSION_SUB2   (0x00) /*!< [15:8]  sub2 version */
  72:../../Drivers/BSP/STM32F769I-Discovery/stm32f769i_discovery.c **** #define __STM32F769I_DISCOVERY_BSP_VERSION_RC     (0x00) /*!< [7:0]  release candidate */
  73:../../Drivers/BSP/STM32F769I-Discovery/stm32f769i_discovery.c **** #define __STM32F769I_DISCOVERY_BSP_VERSION        ((__STM32F769I_DISCOVERY_BSP_VERSION_MAIN << 24)\
  74:../../Drivers/BSP/STM32F769I-Discovery/stm32f769i_discovery.c ****                                                  |(__STM32F769I_DISCOVERY_BSP_VERSION_SUB1 << 16)\
  75:../../Drivers/BSP/STM32F769I-Discovery/stm32f769i_discovery.c ****                                                  |(__STM32F769I_DISCOVERY_BSP_VERSION_SUB2 << 8 )\
  76:../../Drivers/BSP/STM32F769I-Discovery/stm32f769i_discovery.c ****                                                  |(__STM32F769I_DISCOVERY_BSP_VERSION_RC))
  77:../../Drivers/BSP/STM32F769I-Discovery/stm32f769i_discovery.c **** /**
  78:../../Drivers/BSP/STM32F769I-Discovery/stm32f769i_discovery.c ****   * @}
  79:../../Drivers/BSP/STM32F769I-Discovery/stm32f769i_discovery.c ****   */
  80:../../Drivers/BSP/STM32F769I-Discovery/stm32f769i_discovery.c **** 
  81:../../Drivers/BSP/STM32F769I-Discovery/stm32f769i_discovery.c **** /** @defgroup STM32F769I_Discovery_LOW_LEVEL_Private_Macros  LOW_LEVEL Private Macros
  82:../../Drivers/BSP/STM32F769I-Discovery/stm32f769i_discovery.c ****   * @{
  83:../../Drivers/BSP/STM32F769I-Discovery/stm32f769i_discovery.c ****   */
  84:../../Drivers/BSP/STM32F769I-Discovery/stm32f769i_discovery.c **** /**
  85:../../Drivers/BSP/STM32F769I-Discovery/stm32f769i_discovery.c ****   * @}
  86:../../Drivers/BSP/STM32F769I-Discovery/stm32f769i_discovery.c ****   */
  87:../../Drivers/BSP/STM32F769I-Discovery/stm32f769i_discovery.c **** 
  88:../../Drivers/BSP/STM32F769I-Discovery/stm32f769i_discovery.c **** /** @defgroup STM32F769I_Discovery_LOW_LEVEL_Private_Variables LOW_LEVEL Private Variables
  89:../../Drivers/BSP/STM32F769I-Discovery/stm32f769i_discovery.c ****   * @{
  90:../../Drivers/BSP/STM32F769I-Discovery/stm32f769i_discovery.c ****   */
  91:../../Drivers/BSP/STM32F769I-Discovery/stm32f769i_discovery.c **** uint32_t GPIO_PIN[LEDn] = {LED1_PIN,
  92:../../Drivers/BSP/STM32F769I-Discovery/stm32f769i_discovery.c ****                            LED2_PIN};
  93:../../Drivers/BSP/STM32F769I-Discovery/stm32f769i_discovery.c **** 
  94:../../Drivers/BSP/STM32F769I-Discovery/stm32f769i_discovery.c **** GPIO_TypeDef* GPIO_PORT[LEDn] = {LED1_GPIO_PORT,
  95:../../Drivers/BSP/STM32F769I-Discovery/stm32f769i_discovery.c ****                                  LED2_GPIO_PORT};
  96:../../Drivers/BSP/STM32F769I-Discovery/stm32f769i_discovery.c **** 
  97:../../Drivers/BSP/STM32F769I-Discovery/stm32f769i_discovery.c **** GPIO_TypeDef* BUTTON_PORT[BUTTONn] = {WAKEUP_BUTTON_GPIO_PORT };
  98:../../Drivers/BSP/STM32F769I-Discovery/stm32f769i_discovery.c **** 
  99:../../Drivers/BSP/STM32F769I-Discovery/stm32f769i_discovery.c **** const uint16_t BUTTON_PIN[BUTTONn] = {WAKEUP_BUTTON_PIN };
 100:../../Drivers/BSP/STM32F769I-Discovery/stm32f769i_discovery.c **** 
 101:../../Drivers/BSP/STM32F769I-Discovery/stm32f769i_discovery.c **** const uint16_t BUTTON_IRQn[BUTTONn] = {WAKEUP_BUTTON_EXTI_IRQn };
ARM GAS  /tmp/ccDIYG4f.s 			page 4


 102:../../Drivers/BSP/STM32F769I-Discovery/stm32f769i_discovery.c **** 
 103:../../Drivers/BSP/STM32F769I-Discovery/stm32f769i_discovery.c **** 
 104:../../Drivers/BSP/STM32F769I-Discovery/stm32f769i_discovery.c **** static I2C_HandleTypeDef hI2cAudioHandler = {0};
 105:../../Drivers/BSP/STM32F769I-Discovery/stm32f769i_discovery.c **** static I2C_HandleTypeDef hI2cExtHandler = {0};
 106:../../Drivers/BSP/STM32F769I-Discovery/stm32f769i_discovery.c **** 
 107:../../Drivers/BSP/STM32F769I-Discovery/stm32f769i_discovery.c **** /**
 108:../../Drivers/BSP/STM32F769I-Discovery/stm32f769i_discovery.c ****   * @}
 109:../../Drivers/BSP/STM32F769I-Discovery/stm32f769i_discovery.c ****   */
 110:../../Drivers/BSP/STM32F769I-Discovery/stm32f769i_discovery.c **** 
 111:../../Drivers/BSP/STM32F769I-Discovery/stm32f769i_discovery.c **** /** @defgroup STM32F769I_Discovery_LOW_LEVEL_Private_FunctionPrototypes LOW_LEVEL Private FunctionP
 112:../../Drivers/BSP/STM32F769I-Discovery/stm32f769i_discovery.c ****   * @{
 113:../../Drivers/BSP/STM32F769I-Discovery/stm32f769i_discovery.c ****   */
 114:../../Drivers/BSP/STM32F769I-Discovery/stm32f769i_discovery.c **** static void     I2Cx_MspInit(I2C_HandleTypeDef *i2c_handler);
 115:../../Drivers/BSP/STM32F769I-Discovery/stm32f769i_discovery.c **** static void     I2Cx_Init(I2C_HandleTypeDef *i2c_handler);
 116:../../Drivers/BSP/STM32F769I-Discovery/stm32f769i_discovery.c **** 
 117:../../Drivers/BSP/STM32F769I-Discovery/stm32f769i_discovery.c **** static HAL_StatusTypeDef I2Cx_ReadMultiple(I2C_HandleTypeDef *i2c_handler, uint8_t Addr, uint16_t R
 118:../../Drivers/BSP/STM32F769I-Discovery/stm32f769i_discovery.c **** static HAL_StatusTypeDef I2Cx_WriteMultiple(I2C_HandleTypeDef *i2c_handler, uint8_t Addr, uint16_t 
 119:../../Drivers/BSP/STM32F769I-Discovery/stm32f769i_discovery.c **** static HAL_StatusTypeDef I2Cx_IsDeviceReady(I2C_HandleTypeDef *i2c_handler, uint16_t DevAddress, ui
 120:../../Drivers/BSP/STM32F769I-Discovery/stm32f769i_discovery.c **** static void              I2Cx_Error(I2C_HandleTypeDef *i2c_handler, uint8_t Addr);
 121:../../Drivers/BSP/STM32F769I-Discovery/stm32f769i_discovery.c **** 
 122:../../Drivers/BSP/STM32F769I-Discovery/stm32f769i_discovery.c **** /* AUDIO IO functions */
 123:../../Drivers/BSP/STM32F769I-Discovery/stm32f769i_discovery.c **** void            AUDIO_IO_Init(void);
 124:../../Drivers/BSP/STM32F769I-Discovery/stm32f769i_discovery.c **** void            AUDIO_IO_DeInit(void);
 125:../../Drivers/BSP/STM32F769I-Discovery/stm32f769i_discovery.c **** void            AUDIO_IO_Write(uint8_t Addr, uint16_t Reg, uint16_t Value);
 126:../../Drivers/BSP/STM32F769I-Discovery/stm32f769i_discovery.c **** uint16_t        AUDIO_IO_Read(uint8_t Addr, uint16_t Reg);
 127:../../Drivers/BSP/STM32F769I-Discovery/stm32f769i_discovery.c **** void            AUDIO_IO_Delay(uint32_t Delay);
 128:../../Drivers/BSP/STM32F769I-Discovery/stm32f769i_discovery.c **** 
 129:../../Drivers/BSP/STM32F769I-Discovery/stm32f769i_discovery.c **** /* HDMI IO functions */
 130:../../Drivers/BSP/STM32F769I-Discovery/stm32f769i_discovery.c **** void            HDMI_IO_Init(void);
 131:../../Drivers/BSP/STM32F769I-Discovery/stm32f769i_discovery.c **** void            HDMI_IO_Delay(uint32_t Delay);
 132:../../Drivers/BSP/STM32F769I-Discovery/stm32f769i_discovery.c **** void            HDMI_IO_Write(uint8_t Addr, uint8_t Reg, uint8_t Value);
 133:../../Drivers/BSP/STM32F769I-Discovery/stm32f769i_discovery.c **** uint8_t         HDMI_IO_Read(uint8_t Addr, uint8_t Reg);
 134:../../Drivers/BSP/STM32F769I-Discovery/stm32f769i_discovery.c **** 
 135:../../Drivers/BSP/STM32F769I-Discovery/stm32f769i_discovery.c **** /* I2C EEPROM IO function */
 136:../../Drivers/BSP/STM32F769I-Discovery/stm32f769i_discovery.c **** void                EEPROM_IO_Init(void);
 137:../../Drivers/BSP/STM32F769I-Discovery/stm32f769i_discovery.c **** HAL_StatusTypeDef   EEPROM_IO_WriteData(uint16_t DevAddress, uint16_t MemAddress, uint8_t* pBuffer,
 138:../../Drivers/BSP/STM32F769I-Discovery/stm32f769i_discovery.c **** HAL_StatusTypeDef   EEPROM_IO_ReadData(uint16_t DevAddress, uint16_t MemAddress, uint8_t* pBuffer, 
 139:../../Drivers/BSP/STM32F769I-Discovery/stm32f769i_discovery.c **** HAL_StatusTypeDef   EEPROM_IO_IsDeviceReady(uint16_t DevAddress, uint32_t Trials);
 140:../../Drivers/BSP/STM32F769I-Discovery/stm32f769i_discovery.c **** 
 141:../../Drivers/BSP/STM32F769I-Discovery/stm32f769i_discovery.c **** /* TouchScreen (TS) IO functions */
 142:../../Drivers/BSP/STM32F769I-Discovery/stm32f769i_discovery.c **** void     TS_IO_Init(void);
 143:../../Drivers/BSP/STM32F769I-Discovery/stm32f769i_discovery.c **** void     TS_IO_Write(uint8_t Addr, uint8_t Reg, uint8_t Value);
 144:../../Drivers/BSP/STM32F769I-Discovery/stm32f769i_discovery.c **** uint8_t  TS_IO_Read(uint8_t Addr, uint8_t Reg);
 145:../../Drivers/BSP/STM32F769I-Discovery/stm32f769i_discovery.c **** uint16_t TS_IO_ReadMultiple(uint8_t Addr, uint8_t Reg, uint8_t *Buffer, uint16_t Length);
 146:../../Drivers/BSP/STM32F769I-Discovery/stm32f769i_discovery.c **** void     TS_IO_WriteMultiple(uint8_t Addr, uint8_t Reg, uint8_t *Buffer, uint16_t Length);
 147:../../Drivers/BSP/STM32F769I-Discovery/stm32f769i_discovery.c **** void     TS_IO_Delay(uint32_t Delay);
 148:../../Drivers/BSP/STM32F769I-Discovery/stm32f769i_discovery.c **** 
 149:../../Drivers/BSP/STM32F769I-Discovery/stm32f769i_discovery.c **** /* LCD Display IO functions */
 150:../../Drivers/BSP/STM32F769I-Discovery/stm32f769i_discovery.c **** void     OTM8009A_IO_Delay(uint32_t Delay);
 151:../../Drivers/BSP/STM32F769I-Discovery/stm32f769i_discovery.c **** /**
 152:../../Drivers/BSP/STM32F769I-Discovery/stm32f769i_discovery.c ****   * @}
 153:../../Drivers/BSP/STM32F769I-Discovery/stm32f769i_discovery.c ****   */
 154:../../Drivers/BSP/STM32F769I-Discovery/stm32f769i_discovery.c **** 
 155:../../Drivers/BSP/STM32F769I-Discovery/stm32f769i_discovery.c **** /** @defgroup STM32F769I_Discovery_BSP_Public_Functions BSP Public Functions
 156:../../Drivers/BSP/STM32F769I-Discovery/stm32f769i_discovery.c ****   * @{
 157:../../Drivers/BSP/STM32F769I-Discovery/stm32f769i_discovery.c ****   */
 158:../../Drivers/BSP/STM32F769I-Discovery/stm32f769i_discovery.c **** 
ARM GAS  /tmp/ccDIYG4f.s 			page 5


 159:../../Drivers/BSP/STM32F769I-Discovery/stm32f769i_discovery.c ****   /**
 160:../../Drivers/BSP/STM32F769I-Discovery/stm32f769i_discovery.c ****   * @brief  This method returns the STM32F769I Discovery BSP Driver revision
 161:../../Drivers/BSP/STM32F769I-Discovery/stm32f769i_discovery.c ****   * @retval version: 0xXYZR (8bits for each decimal, R for RC)
 162:../../Drivers/BSP/STM32F769I-Discovery/stm32f769i_discovery.c ****   */
 163:../../Drivers/BSP/STM32F769I-Discovery/stm32f769i_discovery.c **** uint32_t BSP_GetVersion(void)
 164:../../Drivers/BSP/STM32F769I-Discovery/stm32f769i_discovery.c **** {
  78              		.loc 1 164 0
  79              		.cfi_startproc
  80              		@ args = 0, pretend = 0, frame = 0
  81              		@ frame_needed = 1, uses_anonymous_args = 0
  82              		@ link register save eliminated.
  83 0000 80B4     		push	{r7}
  84              	.LCFI0:
  85              		.cfi_def_cfa_offset 4
  86              		.cfi_offset 7, -4
  87 0002 00AF     		add	r7, sp, #0
  88              	.LCFI1:
  89              		.cfi_def_cfa_register 7
 165:../../Drivers/BSP/STM32F769I-Discovery/stm32f769i_discovery.c ****   return __STM32F769I_DISCOVERY_BSP_VERSION;
  90              		.loc 1 165 0
  91 0004 024B     		ldr	r3, .L3
 166:../../Drivers/BSP/STM32F769I-Discovery/stm32f769i_discovery.c **** }
  92              		.loc 1 166 0
  93 0006 1846     		mov	r0, r3
  94 0008 BD46     		mov	sp, r7
  95              	.LCFI2:
  96              		.cfi_def_cfa_register 13
  97              		@ sp needed
  98 000a 5DF8047B 		ldr	r7, [sp], #4
  99              	.LCFI3:
 100              		.cfi_restore 7
 101              		.cfi_def_cfa_offset 0
 102 000e 7047     		bx	lr
 103              	.L4:
 104              		.align	2
 105              	.L3:
 106 0010 00000101 		.word	16842752
 107              		.cfi_endproc
 108              	.LFE135:
 110              		.section	.text.BSP_LED_Init,"ax",%progbits
 111              		.align	2
 112              		.global	BSP_LED_Init
 113              		.thumb
 114              		.thumb_func
 116              	BSP_LED_Init:
 117              	.LFB136:
 167:../../Drivers/BSP/STM32F769I-Discovery/stm32f769i_discovery.c **** 
 168:../../Drivers/BSP/STM32F769I-Discovery/stm32f769i_discovery.c **** /**
 169:../../Drivers/BSP/STM32F769I-Discovery/stm32f769i_discovery.c ****   * @brief  Configures LED GPIO.
 170:../../Drivers/BSP/STM32F769I-Discovery/stm32f769i_discovery.c ****   * @param  Led: LED to be configured.
 171:../../Drivers/BSP/STM32F769I-Discovery/stm32f769i_discovery.c ****   *          This parameter can be one of the following values:
 172:../../Drivers/BSP/STM32F769I-Discovery/stm32f769i_discovery.c ****   *            @arg  LED1
 173:../../Drivers/BSP/STM32F769I-Discovery/stm32f769i_discovery.c ****   *            @arg  LED2
 174:../../Drivers/BSP/STM32F769I-Discovery/stm32f769i_discovery.c ****   * @retval None
 175:../../Drivers/BSP/STM32F769I-Discovery/stm32f769i_discovery.c ****   */
 176:../../Drivers/BSP/STM32F769I-Discovery/stm32f769i_discovery.c **** void BSP_LED_Init(Led_TypeDef Led)
 177:../../Drivers/BSP/STM32F769I-Discovery/stm32f769i_discovery.c **** {
ARM GAS  /tmp/ccDIYG4f.s 			page 6


 118              		.loc 1 177 0
 119              		.cfi_startproc
 120              		@ args = 0, pretend = 0, frame = 32
 121              		@ frame_needed = 1, uses_anonymous_args = 0
 122 0000 80B5     		push	{r7, lr}
 123              	.LCFI4:
 124              		.cfi_def_cfa_offset 8
 125              		.cfi_offset 7, -8
 126              		.cfi_offset 14, -4
 127 0002 88B0     		sub	sp, sp, #32
 128              	.LCFI5:
 129              		.cfi_def_cfa_offset 40
 130 0004 00AF     		add	r7, sp, #0
 131              	.LCFI6:
 132              		.cfi_def_cfa_register 7
 133 0006 0346     		mov	r3, r0
 134 0008 FB71     		strb	r3, [r7, #7]
 135              	.LBB2:
 178:../../Drivers/BSP/STM32F769I-Discovery/stm32f769i_discovery.c ****   GPIO_InitTypeDef  gpio_init_structure;
 179:../../Drivers/BSP/STM32F769I-Discovery/stm32f769i_discovery.c ****   
 180:../../Drivers/BSP/STM32F769I-Discovery/stm32f769i_discovery.c ****   LEDx_GPIO_CLK_ENABLE();
 136              		.loc 1 180 0
 137 000a 124A     		ldr	r2, .L6
 138 000c 114B     		ldr	r3, .L6
 139 000e 1B6B     		ldr	r3, [r3, #48]
 140 0010 43F40073 		orr	r3, r3, #512
 141 0014 1363     		str	r3, [r2, #48]
 142 0016 0F4B     		ldr	r3, .L6
 143 0018 1B6B     		ldr	r3, [r3, #48]
 144 001a 03F40073 		and	r3, r3, #512
 145 001e BB60     		str	r3, [r7, #8]
 146 0020 BB68     		ldr	r3, [r7, #8]
 147              	.LBE2:
 181:../../Drivers/BSP/STM32F769I-Discovery/stm32f769i_discovery.c ****   /* Configure the GPIO_LED pin */
 182:../../Drivers/BSP/STM32F769I-Discovery/stm32f769i_discovery.c ****   gpio_init_structure.Pin   = GPIO_PIN[Led];
 148              		.loc 1 182 0
 149 0022 FB79     		ldrb	r3, [r7, #7]	@ zero_extendqisi2
 150 0024 0C4A     		ldr	r2, .L6+4
 151 0026 52F82330 		ldr	r3, [r2, r3, lsl #2]
 152 002a FB60     		str	r3, [r7, #12]
 183:../../Drivers/BSP/STM32F769I-Discovery/stm32f769i_discovery.c ****   gpio_init_structure.Mode  = GPIO_MODE_OUTPUT_PP;
 153              		.loc 1 183 0
 154 002c 0123     		movs	r3, #1
 155 002e 3B61     		str	r3, [r7, #16]
 184:../../Drivers/BSP/STM32F769I-Discovery/stm32f769i_discovery.c ****   gpio_init_structure.Pull  = GPIO_PULLUP;
 156              		.loc 1 184 0
 157 0030 0123     		movs	r3, #1
 158 0032 7B61     		str	r3, [r7, #20]
 185:../../Drivers/BSP/STM32F769I-Discovery/stm32f769i_discovery.c ****   gpio_init_structure.Speed = GPIO_SPEED_HIGH;
 159              		.loc 1 185 0
 160 0034 0323     		movs	r3, #3
 161 0036 BB61     		str	r3, [r7, #24]
 186:../../Drivers/BSP/STM32F769I-Discovery/stm32f769i_discovery.c ****   
 187:../../Drivers/BSP/STM32F769I-Discovery/stm32f769i_discovery.c ****   HAL_GPIO_Init(GPIO_PORT[Led], &gpio_init_structure);
 162              		.loc 1 187 0
 163 0038 FB79     		ldrb	r3, [r7, #7]	@ zero_extendqisi2
 164 003a 084A     		ldr	r2, .L6+8
ARM GAS  /tmp/ccDIYG4f.s 			page 7


 165 003c 52F82320 		ldr	r2, [r2, r3, lsl #2]
 166 0040 07F10C03 		add	r3, r7, #12
 167 0044 1046     		mov	r0, r2
 168 0046 1946     		mov	r1, r3
 169 0048 FFF7FEFF 		bl	HAL_GPIO_Init
 188:../../Drivers/BSP/STM32F769I-Discovery/stm32f769i_discovery.c **** 
 189:../../Drivers/BSP/STM32F769I-Discovery/stm32f769i_discovery.c **** }
 170              		.loc 1 189 0
 171 004c 2037     		adds	r7, r7, #32
 172              	.LCFI7:
 173              		.cfi_def_cfa_offset 8
 174 004e BD46     		mov	sp, r7
 175              	.LCFI8:
 176              		.cfi_def_cfa_register 13
 177              		@ sp needed
 178 0050 80BD     		pop	{r7, pc}
 179              	.L7:
 180 0052 00BF     		.align	2
 181              	.L6:
 182 0054 00380240 		.word	1073887232
 183 0058 00000000 		.word	GPIO_PIN
 184 005c 00000000 		.word	GPIO_PORT
 185              		.cfi_endproc
 186              	.LFE136:
 188              		.section	.text.BSP_LED_DeInit,"ax",%progbits
 189              		.align	2
 190              		.global	BSP_LED_DeInit
 191              		.thumb
 192              		.thumb_func
 194              	BSP_LED_DeInit:
 195              	.LFB137:
 190:../../Drivers/BSP/STM32F769I-Discovery/stm32f769i_discovery.c **** 
 191:../../Drivers/BSP/STM32F769I-Discovery/stm32f769i_discovery.c **** 
 192:../../Drivers/BSP/STM32F769I-Discovery/stm32f769i_discovery.c **** /**
 193:../../Drivers/BSP/STM32F769I-Discovery/stm32f769i_discovery.c ****   * @brief  DeInit LEDs.
 194:../../Drivers/BSP/STM32F769I-Discovery/stm32f769i_discovery.c ****   * @param  Led: LED to be configured.
 195:../../Drivers/BSP/STM32F769I-Discovery/stm32f769i_discovery.c ****   *          This parameter can be one of the following values:
 196:../../Drivers/BSP/STM32F769I-Discovery/stm32f769i_discovery.c ****   *            @arg  LED1
 197:../../Drivers/BSP/STM32F769I-Discovery/stm32f769i_discovery.c ****   *            @arg  LED2
 198:../../Drivers/BSP/STM32F769I-Discovery/stm32f769i_discovery.c ****   * @note Led DeInit does not disable the GPIO clock
 199:../../Drivers/BSP/STM32F769I-Discovery/stm32f769i_discovery.c ****   * @retval None
 200:../../Drivers/BSP/STM32F769I-Discovery/stm32f769i_discovery.c ****   */
 201:../../Drivers/BSP/STM32F769I-Discovery/stm32f769i_discovery.c **** void BSP_LED_DeInit(Led_TypeDef Led)
 202:../../Drivers/BSP/STM32F769I-Discovery/stm32f769i_discovery.c **** {
 196              		.loc 1 202 0
 197              		.cfi_startproc
 198              		@ args = 0, pretend = 0, frame = 32
 199              		@ frame_needed = 1, uses_anonymous_args = 0
 200 0000 80B5     		push	{r7, lr}
 201              	.LCFI9:
 202              		.cfi_def_cfa_offset 8
 203              		.cfi_offset 7, -8
 204              		.cfi_offset 14, -4
 205 0002 88B0     		sub	sp, sp, #32
 206              	.LCFI10:
 207              		.cfi_def_cfa_offset 40
 208 0004 00AF     		add	r7, sp, #0
ARM GAS  /tmp/ccDIYG4f.s 			page 8


 209              	.LCFI11:
 210              		.cfi_def_cfa_register 7
 211 0006 0346     		mov	r3, r0
 212 0008 FB71     		strb	r3, [r7, #7]
 203:../../Drivers/BSP/STM32F769I-Discovery/stm32f769i_discovery.c ****   GPIO_InitTypeDef  gpio_init_structure;
 204:../../Drivers/BSP/STM32F769I-Discovery/stm32f769i_discovery.c ****   
 205:../../Drivers/BSP/STM32F769I-Discovery/stm32f769i_discovery.c ****   /* DeInit the GPIO_LED pin */
 206:../../Drivers/BSP/STM32F769I-Discovery/stm32f769i_discovery.c ****   gpio_init_structure.Pin = GPIO_PIN[Led];
 213              		.loc 1 206 0
 214 000a FB79     		ldrb	r3, [r7, #7]	@ zero_extendqisi2
 215 000c 0E4A     		ldr	r2, .L9
 216 000e 52F82330 		ldr	r3, [r2, r3, lsl #2]
 217 0012 FB60     		str	r3, [r7, #12]
 207:../../Drivers/BSP/STM32F769I-Discovery/stm32f769i_discovery.c ****   
 208:../../Drivers/BSP/STM32F769I-Discovery/stm32f769i_discovery.c ****   /* Turn off LED */
 209:../../Drivers/BSP/STM32F769I-Discovery/stm32f769i_discovery.c ****   HAL_GPIO_WritePin(GPIO_PORT[Led], GPIO_PIN[Led], GPIO_PIN_RESET);
 218              		.loc 1 209 0
 219 0014 FB79     		ldrb	r3, [r7, #7]	@ zero_extendqisi2
 220 0016 0D4A     		ldr	r2, .L9+4
 221 0018 52F82310 		ldr	r1, [r2, r3, lsl #2]
 222 001c FB79     		ldrb	r3, [r7, #7]	@ zero_extendqisi2
 223 001e 0A4A     		ldr	r2, .L9
 224 0020 52F82330 		ldr	r3, [r2, r3, lsl #2]
 225 0024 9BB2     		uxth	r3, r3
 226 0026 0846     		mov	r0, r1
 227 0028 1946     		mov	r1, r3
 228 002a 0022     		movs	r2, #0
 229 002c FFF7FEFF 		bl	HAL_GPIO_WritePin
 210:../../Drivers/BSP/STM32F769I-Discovery/stm32f769i_discovery.c ****   HAL_GPIO_DeInit(GPIO_PORT[Led], gpio_init_structure.Pin);
 230              		.loc 1 210 0
 231 0030 FB79     		ldrb	r3, [r7, #7]	@ zero_extendqisi2
 232 0032 064A     		ldr	r2, .L9+4
 233 0034 52F82320 		ldr	r2, [r2, r3, lsl #2]
 234 0038 FB68     		ldr	r3, [r7, #12]
 235 003a 1046     		mov	r0, r2
 236 003c 1946     		mov	r1, r3
 237 003e FFF7FEFF 		bl	HAL_GPIO_DeInit
 211:../../Drivers/BSP/STM32F769I-Discovery/stm32f769i_discovery.c **** }
 238              		.loc 1 211 0
 239 0042 2037     		adds	r7, r7, #32
 240              	.LCFI12:
 241              		.cfi_def_cfa_offset 8
 242 0044 BD46     		mov	sp, r7
 243              	.LCFI13:
 244              		.cfi_def_cfa_register 13
 245              		@ sp needed
 246 0046 80BD     		pop	{r7, pc}
 247              	.L10:
 248              		.align	2
 249              	.L9:
 250 0048 00000000 		.word	GPIO_PIN
 251 004c 00000000 		.word	GPIO_PORT
 252              		.cfi_endproc
 253              	.LFE137:
 255              		.section	.text.BSP_LED_On,"ax",%progbits
 256              		.align	2
 257              		.global	BSP_LED_On
ARM GAS  /tmp/ccDIYG4f.s 			page 9


 258              		.thumb
 259              		.thumb_func
 261              	BSP_LED_On:
 262              	.LFB138:
 212:../../Drivers/BSP/STM32F769I-Discovery/stm32f769i_discovery.c **** 
 213:../../Drivers/BSP/STM32F769I-Discovery/stm32f769i_discovery.c **** /**
 214:../../Drivers/BSP/STM32F769I-Discovery/stm32f769i_discovery.c ****   * @brief  Turns selected LED On.
 215:../../Drivers/BSP/STM32F769I-Discovery/stm32f769i_discovery.c ****   * @param  Led: LED to be set on
 216:../../Drivers/BSP/STM32F769I-Discovery/stm32f769i_discovery.c ****   *          This parameter can be one of the following values:
 217:../../Drivers/BSP/STM32F769I-Discovery/stm32f769i_discovery.c ****   *            @arg  LED1
 218:../../Drivers/BSP/STM32F769I-Discovery/stm32f769i_discovery.c ****   *            @arg  LED2
 219:../../Drivers/BSP/STM32F769I-Discovery/stm32f769i_discovery.c ****   * @retval None
 220:../../Drivers/BSP/STM32F769I-Discovery/stm32f769i_discovery.c ****   */
 221:../../Drivers/BSP/STM32F769I-Discovery/stm32f769i_discovery.c **** void BSP_LED_On(Led_TypeDef Led)
 222:../../Drivers/BSP/STM32F769I-Discovery/stm32f769i_discovery.c **** {
 263              		.loc 1 222 0
 264              		.cfi_startproc
 265              		@ args = 0, pretend = 0, frame = 8
 266              		@ frame_needed = 1, uses_anonymous_args = 0
 267 0000 80B5     		push	{r7, lr}
 268              	.LCFI14:
 269              		.cfi_def_cfa_offset 8
 270              		.cfi_offset 7, -8
 271              		.cfi_offset 14, -4
 272 0002 82B0     		sub	sp, sp, #8
 273              	.LCFI15:
 274              		.cfi_def_cfa_offset 16
 275 0004 00AF     		add	r7, sp, #0
 276              	.LCFI16:
 277              		.cfi_def_cfa_register 7
 278 0006 0346     		mov	r3, r0
 279 0008 FB71     		strb	r3, [r7, #7]
 223:../../Drivers/BSP/STM32F769I-Discovery/stm32f769i_discovery.c ****   HAL_GPIO_WritePin(GPIO_PORT[Led], GPIO_PIN[Led], GPIO_PIN_SET);
 280              		.loc 1 223 0
 281 000a FB79     		ldrb	r3, [r7, #7]	@ zero_extendqisi2
 282 000c 074A     		ldr	r2, .L12
 283 000e 52F82310 		ldr	r1, [r2, r3, lsl #2]
 284 0012 FB79     		ldrb	r3, [r7, #7]	@ zero_extendqisi2
 285 0014 064A     		ldr	r2, .L12+4
 286 0016 52F82330 		ldr	r3, [r2, r3, lsl #2]
 287 001a 9BB2     		uxth	r3, r3
 288 001c 0846     		mov	r0, r1
 289 001e 1946     		mov	r1, r3
 290 0020 0122     		movs	r2, #1
 291 0022 FFF7FEFF 		bl	HAL_GPIO_WritePin
 224:../../Drivers/BSP/STM32F769I-Discovery/stm32f769i_discovery.c **** }
 292              		.loc 1 224 0
 293 0026 0837     		adds	r7, r7, #8
 294              	.LCFI17:
 295              		.cfi_def_cfa_offset 8
 296 0028 BD46     		mov	sp, r7
 297              	.LCFI18:
 298              		.cfi_def_cfa_register 13
 299              		@ sp needed
 300 002a 80BD     		pop	{r7, pc}
 301              	.L13:
 302              		.align	2
ARM GAS  /tmp/ccDIYG4f.s 			page 10


 303              	.L12:
 304 002c 00000000 		.word	GPIO_PORT
 305 0030 00000000 		.word	GPIO_PIN
 306              		.cfi_endproc
 307              	.LFE138:
 309              		.section	.text.BSP_LED_Off,"ax",%progbits
 310              		.align	2
 311              		.global	BSP_LED_Off
 312              		.thumb
 313              		.thumb_func
 315              	BSP_LED_Off:
 316              	.LFB139:
 225:../../Drivers/BSP/STM32F769I-Discovery/stm32f769i_discovery.c **** 
 226:../../Drivers/BSP/STM32F769I-Discovery/stm32f769i_discovery.c **** /**
 227:../../Drivers/BSP/STM32F769I-Discovery/stm32f769i_discovery.c ****   * @brief  Turns selected LED Off.
 228:../../Drivers/BSP/STM32F769I-Discovery/stm32f769i_discovery.c ****   * @param  Led: LED to be set off
 229:../../Drivers/BSP/STM32F769I-Discovery/stm32f769i_discovery.c ****   *          This parameter can be one of the following values:
 230:../../Drivers/BSP/STM32F769I-Discovery/stm32f769i_discovery.c ****   *            @arg  LED1
 231:../../Drivers/BSP/STM32F769I-Discovery/stm32f769i_discovery.c ****   *            @arg  LED2
 232:../../Drivers/BSP/STM32F769I-Discovery/stm32f769i_discovery.c ****   * @retval None
 233:../../Drivers/BSP/STM32F769I-Discovery/stm32f769i_discovery.c ****   */
 234:../../Drivers/BSP/STM32F769I-Discovery/stm32f769i_discovery.c **** void BSP_LED_Off(Led_TypeDef Led)
 235:../../Drivers/BSP/STM32F769I-Discovery/stm32f769i_discovery.c **** {
 317              		.loc 1 235 0
 318              		.cfi_startproc
 319              		@ args = 0, pretend = 0, frame = 8
 320              		@ frame_needed = 1, uses_anonymous_args = 0
 321 0000 80B5     		push	{r7, lr}
 322              	.LCFI19:
 323              		.cfi_def_cfa_offset 8
 324              		.cfi_offset 7, -8
 325              		.cfi_offset 14, -4
 326 0002 82B0     		sub	sp, sp, #8
 327              	.LCFI20:
 328              		.cfi_def_cfa_offset 16
 329 0004 00AF     		add	r7, sp, #0
 330              	.LCFI21:
 331              		.cfi_def_cfa_register 7
 332 0006 0346     		mov	r3, r0
 333 0008 FB71     		strb	r3, [r7, #7]
 236:../../Drivers/BSP/STM32F769I-Discovery/stm32f769i_discovery.c ****   HAL_GPIO_WritePin(GPIO_PORT[Led], GPIO_PIN[Led], GPIO_PIN_RESET);
 334              		.loc 1 236 0
 335 000a FB79     		ldrb	r3, [r7, #7]	@ zero_extendqisi2
 336 000c 074A     		ldr	r2, .L15
 337 000e 52F82310 		ldr	r1, [r2, r3, lsl #2]
 338 0012 FB79     		ldrb	r3, [r7, #7]	@ zero_extendqisi2
 339 0014 064A     		ldr	r2, .L15+4
 340 0016 52F82330 		ldr	r3, [r2, r3, lsl #2]
 341 001a 9BB2     		uxth	r3, r3
 342 001c 0846     		mov	r0, r1
 343 001e 1946     		mov	r1, r3
 344 0020 0022     		movs	r2, #0
 345 0022 FFF7FEFF 		bl	HAL_GPIO_WritePin
 237:../../Drivers/BSP/STM32F769I-Discovery/stm32f769i_discovery.c **** }
 346              		.loc 1 237 0
 347 0026 0837     		adds	r7, r7, #8
 348              	.LCFI22:
ARM GAS  /tmp/ccDIYG4f.s 			page 11


 349              		.cfi_def_cfa_offset 8
 350 0028 BD46     		mov	sp, r7
 351              	.LCFI23:
 352              		.cfi_def_cfa_register 13
 353              		@ sp needed
 354 002a 80BD     		pop	{r7, pc}
 355              	.L16:
 356              		.align	2
 357              	.L15:
 358 002c 00000000 		.word	GPIO_PORT
 359 0030 00000000 		.word	GPIO_PIN
 360              		.cfi_endproc
 361              	.LFE139:
 363              		.section	.text.BSP_LED_Toggle,"ax",%progbits
 364              		.align	2
 365              		.global	BSP_LED_Toggle
 366              		.thumb
 367              		.thumb_func
 369              	BSP_LED_Toggle:
 370              	.LFB140:
 238:../../Drivers/BSP/STM32F769I-Discovery/stm32f769i_discovery.c **** 
 239:../../Drivers/BSP/STM32F769I-Discovery/stm32f769i_discovery.c **** /**
 240:../../Drivers/BSP/STM32F769I-Discovery/stm32f769i_discovery.c ****   * @brief  Toggles the selected LED.
 241:../../Drivers/BSP/STM32F769I-Discovery/stm32f769i_discovery.c ****   * @param  Led: LED to be toggled
 242:../../Drivers/BSP/STM32F769I-Discovery/stm32f769i_discovery.c ****   *          This parameter can be one of the following values:
 243:../../Drivers/BSP/STM32F769I-Discovery/stm32f769i_discovery.c ****   *            @arg  LED1
 244:../../Drivers/BSP/STM32F769I-Discovery/stm32f769i_discovery.c ****   *            @arg  LED2
 245:../../Drivers/BSP/STM32F769I-Discovery/stm32f769i_discovery.c ****   * @retval None
 246:../../Drivers/BSP/STM32F769I-Discovery/stm32f769i_discovery.c ****   */
 247:../../Drivers/BSP/STM32F769I-Discovery/stm32f769i_discovery.c **** void BSP_LED_Toggle(Led_TypeDef Led)
 248:../../Drivers/BSP/STM32F769I-Discovery/stm32f769i_discovery.c **** {
 371              		.loc 1 248 0
 372              		.cfi_startproc
 373              		@ args = 0, pretend = 0, frame = 8
 374              		@ frame_needed = 1, uses_anonymous_args = 0
 375 0000 80B5     		push	{r7, lr}
 376              	.LCFI24:
 377              		.cfi_def_cfa_offset 8
 378              		.cfi_offset 7, -8
 379              		.cfi_offset 14, -4
 380 0002 82B0     		sub	sp, sp, #8
 381              	.LCFI25:
 382              		.cfi_def_cfa_offset 16
 383 0004 00AF     		add	r7, sp, #0
 384              	.LCFI26:
 385              		.cfi_def_cfa_register 7
 386 0006 0346     		mov	r3, r0
 387 0008 FB71     		strb	r3, [r7, #7]
 249:../../Drivers/BSP/STM32F769I-Discovery/stm32f769i_discovery.c ****   HAL_GPIO_TogglePin(GPIO_PORT[Led], GPIO_PIN[Led]);
 388              		.loc 1 249 0
 389 000a FB79     		ldrb	r3, [r7, #7]	@ zero_extendqisi2
 390 000c 074A     		ldr	r2, .L18
 391 000e 52F82310 		ldr	r1, [r2, r3, lsl #2]
 392 0012 FB79     		ldrb	r3, [r7, #7]	@ zero_extendqisi2
 393 0014 064A     		ldr	r2, .L18+4
 394 0016 52F82330 		ldr	r3, [r2, r3, lsl #2]
 395 001a 9BB2     		uxth	r3, r3
ARM GAS  /tmp/ccDIYG4f.s 			page 12


 396 001c 0846     		mov	r0, r1
 397 001e 1946     		mov	r1, r3
 398 0020 FFF7FEFF 		bl	HAL_GPIO_TogglePin
 250:../../Drivers/BSP/STM32F769I-Discovery/stm32f769i_discovery.c **** }
 399              		.loc 1 250 0
 400 0024 0837     		adds	r7, r7, #8
 401              	.LCFI27:
 402              		.cfi_def_cfa_offset 8
 403 0026 BD46     		mov	sp, r7
 404              	.LCFI28:
 405              		.cfi_def_cfa_register 13
 406              		@ sp needed
 407 0028 80BD     		pop	{r7, pc}
 408              	.L19:
 409 002a 00BF     		.align	2
 410              	.L18:
 411 002c 00000000 		.word	GPIO_PORT
 412 0030 00000000 		.word	GPIO_PIN
 413              		.cfi_endproc
 414              	.LFE140:
 416              		.section	.text.BSP_PB_Init,"ax",%progbits
 417              		.align	2
 418              		.global	BSP_PB_Init
 419              		.thumb
 420              		.thumb_func
 422              	BSP_PB_Init:
 423              	.LFB141:
 251:../../Drivers/BSP/STM32F769I-Discovery/stm32f769i_discovery.c **** 
 252:../../Drivers/BSP/STM32F769I-Discovery/stm32f769i_discovery.c **** /**
 253:../../Drivers/BSP/STM32F769I-Discovery/stm32f769i_discovery.c ****   * @brief  Configures button GPIO and EXTI Line.
 254:../../Drivers/BSP/STM32F769I-Discovery/stm32f769i_discovery.c ****   * @param  Button: Button to be configured
 255:../../Drivers/BSP/STM32F769I-Discovery/stm32f769i_discovery.c ****   *          This parameter can be one of the following values:
 256:../../Drivers/BSP/STM32F769I-Discovery/stm32f769i_discovery.c ****   *            @arg  BUTTON_WAKEUP: Wakeup Push Button
 257:../../Drivers/BSP/STM32F769I-Discovery/stm32f769i_discovery.c ****   *            @arg  BUTTON_USER: User Push Button
 258:../../Drivers/BSP/STM32F769I-Discovery/stm32f769i_discovery.c ****   * @param  Button_Mode: Button mode
 259:../../Drivers/BSP/STM32F769I-Discovery/stm32f769i_discovery.c ****   *          This parameter can be one of the following values:
 260:../../Drivers/BSP/STM32F769I-Discovery/stm32f769i_discovery.c ****   *            @arg  BUTTON_MODE_GPIO: Button will be used as simple IO
 261:../../Drivers/BSP/STM32F769I-Discovery/stm32f769i_discovery.c ****   *            @arg  BUTTON_MODE_EXTI: Button will be connected to EXTI line
 262:../../Drivers/BSP/STM32F769I-Discovery/stm32f769i_discovery.c ****   *                                    with interrupt generation capability
 263:../../Drivers/BSP/STM32F769I-Discovery/stm32f769i_discovery.c ****   * @retval None
 264:../../Drivers/BSP/STM32F769I-Discovery/stm32f769i_discovery.c ****   */
 265:../../Drivers/BSP/STM32F769I-Discovery/stm32f769i_discovery.c **** void BSP_PB_Init(Button_TypeDef Button, ButtonMode_TypeDef Button_Mode)
 266:../../Drivers/BSP/STM32F769I-Discovery/stm32f769i_discovery.c **** {
 424              		.loc 1 266 0
 425              		.cfi_startproc
 426              		@ args = 0, pretend = 0, frame = 32
 427              		@ frame_needed = 1, uses_anonymous_args = 0
 428 0000 80B5     		push	{r7, lr}
 429              	.LCFI29:
 430              		.cfi_def_cfa_offset 8
 431              		.cfi_offset 7, -8
 432              		.cfi_offset 14, -4
 433 0002 88B0     		sub	sp, sp, #32
 434              	.LCFI30:
 435              		.cfi_def_cfa_offset 40
 436 0004 00AF     		add	r7, sp, #0
 437              	.LCFI31:
ARM GAS  /tmp/ccDIYG4f.s 			page 13


 438              		.cfi_def_cfa_register 7
 439 0006 0346     		mov	r3, r0
 440 0008 0A46     		mov	r2, r1
 441 000a FB71     		strb	r3, [r7, #7]
 442 000c 1346     		mov	r3, r2
 443 000e BB71     		strb	r3, [r7, #6]
 444              	.LBB3:
 267:../../Drivers/BSP/STM32F769I-Discovery/stm32f769i_discovery.c ****   GPIO_InitTypeDef gpio_init_structure;
 268:../../Drivers/BSP/STM32F769I-Discovery/stm32f769i_discovery.c **** 
 269:../../Drivers/BSP/STM32F769I-Discovery/stm32f769i_discovery.c ****   /* Enable the BUTTON clock */
 270:../../Drivers/BSP/STM32F769I-Discovery/stm32f769i_discovery.c ****   BUTTON_GPIO_CLK_ENABLE();
 445              		.loc 1 270 0
 446 0010 234A     		ldr	r2, .L23
 447 0012 234B     		ldr	r3, .L23
 448 0014 1B6B     		ldr	r3, [r3, #48]
 449 0016 43F00103 		orr	r3, r3, #1
 450 001a 1363     		str	r3, [r2, #48]
 451 001c 204B     		ldr	r3, .L23
 452 001e 1B6B     		ldr	r3, [r3, #48]
 453 0020 03F00103 		and	r3, r3, #1
 454 0024 BB60     		str	r3, [r7, #8]
 455 0026 BB68     		ldr	r3, [r7, #8]
 456              	.LBE3:
 271:../../Drivers/BSP/STM32F769I-Discovery/stm32f769i_discovery.c **** 
 272:../../Drivers/BSP/STM32F769I-Discovery/stm32f769i_discovery.c ****   if(Button_Mode == BUTTON_MODE_GPIO)
 457              		.loc 1 272 0
 458 0028 BB79     		ldrb	r3, [r7, #6]	@ zero_extendqisi2
 459 002a 002B     		cmp	r3, #0
 460 002c 11D1     		bne	.L21
 273:../../Drivers/BSP/STM32F769I-Discovery/stm32f769i_discovery.c ****   {
 274:../../Drivers/BSP/STM32F769I-Discovery/stm32f769i_discovery.c ****     /* Configure Button pin as input */
 275:../../Drivers/BSP/STM32F769I-Discovery/stm32f769i_discovery.c ****     gpio_init_structure.Pin = BUTTON_PIN[Button];
 461              		.loc 1 275 0
 462 002e 0123     		movs	r3, #1
 463 0030 FB60     		str	r3, [r7, #12]
 276:../../Drivers/BSP/STM32F769I-Discovery/stm32f769i_discovery.c ****     gpio_init_structure.Mode = GPIO_MODE_INPUT;
 464              		.loc 1 276 0
 465 0032 0023     		movs	r3, #0
 466 0034 3B61     		str	r3, [r7, #16]
 277:../../Drivers/BSP/STM32F769I-Discovery/stm32f769i_discovery.c ****     gpio_init_structure.Pull = GPIO_NOPULL;
 467              		.loc 1 277 0
 468 0036 0023     		movs	r3, #0
 469 0038 7B61     		str	r3, [r7, #20]
 278:../../Drivers/BSP/STM32F769I-Discovery/stm32f769i_discovery.c ****     gpio_init_structure.Speed = GPIO_SPEED_FAST;
 470              		.loc 1 278 0
 471 003a 0223     		movs	r3, #2
 472 003c BB61     		str	r3, [r7, #24]
 279:../../Drivers/BSP/STM32F769I-Discovery/stm32f769i_discovery.c ****     HAL_GPIO_Init(BUTTON_PORT[Button], &gpio_init_structure);
 473              		.loc 1 279 0
 474 003e FB79     		ldrb	r3, [r7, #7]	@ zero_extendqisi2
 475 0040 184A     		ldr	r2, .L23+4
 476 0042 52F82320 		ldr	r2, [r2, r3, lsl #2]
 477 0046 07F10C03 		add	r3, r7, #12
 478 004a 1046     		mov	r0, r2
 479 004c 1946     		mov	r1, r3
 480 004e FFF7FEFF 		bl	HAL_GPIO_Init
 481              	.L21:
ARM GAS  /tmp/ccDIYG4f.s 			page 14


 280:../../Drivers/BSP/STM32F769I-Discovery/stm32f769i_discovery.c ****   }
 281:../../Drivers/BSP/STM32F769I-Discovery/stm32f769i_discovery.c **** 
 282:../../Drivers/BSP/STM32F769I-Discovery/stm32f769i_discovery.c ****   if(Button_Mode == BUTTON_MODE_EXTI)
 482              		.loc 1 282 0
 483 0052 BB79     		ldrb	r3, [r7, #6]	@ zero_extendqisi2
 484 0054 012B     		cmp	r3, #1
 485 0056 1FD1     		bne	.L20
 283:../../Drivers/BSP/STM32F769I-Discovery/stm32f769i_discovery.c ****   {
 284:../../Drivers/BSP/STM32F769I-Discovery/stm32f769i_discovery.c ****     /* Configure Button pin as input with External interrupt */
 285:../../Drivers/BSP/STM32F769I-Discovery/stm32f769i_discovery.c ****     gpio_init_structure.Pin = BUTTON_PIN[Button];
 486              		.loc 1 285 0
 487 0058 0123     		movs	r3, #1
 488 005a FB60     		str	r3, [r7, #12]
 286:../../Drivers/BSP/STM32F769I-Discovery/stm32f769i_discovery.c ****     gpio_init_structure.Pull = GPIO_NOPULL;
 489              		.loc 1 286 0
 490 005c 0023     		movs	r3, #0
 491 005e 7B61     		str	r3, [r7, #20]
 287:../../Drivers/BSP/STM32F769I-Discovery/stm32f769i_discovery.c ****     gpio_init_structure.Speed = GPIO_SPEED_FAST;
 492              		.loc 1 287 0
 493 0060 0223     		movs	r3, #2
 494 0062 BB61     		str	r3, [r7, #24]
 288:../../Drivers/BSP/STM32F769I-Discovery/stm32f769i_discovery.c **** 
 289:../../Drivers/BSP/STM32F769I-Discovery/stm32f769i_discovery.c ****     gpio_init_structure.Mode = GPIO_MODE_IT_RISING;
 495              		.loc 1 289 0
 496 0064 104B     		ldr	r3, .L23+8
 497 0066 3B61     		str	r3, [r7, #16]
 290:../../Drivers/BSP/STM32F769I-Discovery/stm32f769i_discovery.c **** 
 291:../../Drivers/BSP/STM32F769I-Discovery/stm32f769i_discovery.c ****     HAL_GPIO_Init(BUTTON_PORT[Button], &gpio_init_structure);
 498              		.loc 1 291 0
 499 0068 FB79     		ldrb	r3, [r7, #7]	@ zero_extendqisi2
 500 006a 0E4A     		ldr	r2, .L23+4
 501 006c 52F82320 		ldr	r2, [r2, r3, lsl #2]
 502 0070 07F10C03 		add	r3, r7, #12
 503 0074 1046     		mov	r0, r2
 504 0076 1946     		mov	r1, r3
 505 0078 FFF7FEFF 		bl	HAL_GPIO_Init
 292:../../Drivers/BSP/STM32F769I-Discovery/stm32f769i_discovery.c **** 
 293:../../Drivers/BSP/STM32F769I-Discovery/stm32f769i_discovery.c ****     /* Enable and set Button EXTI Interrupt to the lowest priority */
 294:../../Drivers/BSP/STM32F769I-Discovery/stm32f769i_discovery.c ****     HAL_NVIC_SetPriority((IRQn_Type)(BUTTON_IRQn[Button]), 0x0F, 0x00);
 506              		.loc 1 294 0
 507 007c 0623     		movs	r3, #6
 508 007e DBB2     		uxtb	r3, r3
 509 0080 5BB2     		sxtb	r3, r3
 510 0082 1846     		mov	r0, r3
 511 0084 0F21     		movs	r1, #15
 512 0086 0022     		movs	r2, #0
 513 0088 FFF7FEFF 		bl	HAL_NVIC_SetPriority
 295:../../Drivers/BSP/STM32F769I-Discovery/stm32f769i_discovery.c ****     HAL_NVIC_EnableIRQ((IRQn_Type)(BUTTON_IRQn[Button]));
 514              		.loc 1 295 0
 515 008c 0623     		movs	r3, #6
 516 008e DBB2     		uxtb	r3, r3
 517 0090 5BB2     		sxtb	r3, r3
 518 0092 1846     		mov	r0, r3
 519 0094 FFF7FEFF 		bl	HAL_NVIC_EnableIRQ
 520              	.L20:
 296:../../Drivers/BSP/STM32F769I-Discovery/stm32f769i_discovery.c ****   }
 297:../../Drivers/BSP/STM32F769I-Discovery/stm32f769i_discovery.c **** }
ARM GAS  /tmp/ccDIYG4f.s 			page 15


 521              		.loc 1 297 0
 522 0098 2037     		adds	r7, r7, #32
 523              	.LCFI32:
 524              		.cfi_def_cfa_offset 8
 525 009a BD46     		mov	sp, r7
 526              	.LCFI33:
 527              		.cfi_def_cfa_register 13
 528              		@ sp needed
 529 009c 80BD     		pop	{r7, pc}
 530              	.L24:
 531 009e 00BF     		.align	2
 532              	.L23:
 533 00a0 00380240 		.word	1073887232
 534 00a4 00000000 		.word	BUTTON_PORT
 535 00a8 00001110 		.word	269549568
 536              		.cfi_endproc
 537              	.LFE141:
 539              		.section	.text.BSP_PB_DeInit,"ax",%progbits
 540              		.align	2
 541              		.global	BSP_PB_DeInit
 542              		.thumb
 543              		.thumb_func
 545              	BSP_PB_DeInit:
 546              	.LFB142:
 298:../../Drivers/BSP/STM32F769I-Discovery/stm32f769i_discovery.c **** 
 299:../../Drivers/BSP/STM32F769I-Discovery/stm32f769i_discovery.c **** /**
 300:../../Drivers/BSP/STM32F769I-Discovery/stm32f769i_discovery.c ****   * @brief  Push Button DeInit.
 301:../../Drivers/BSP/STM32F769I-Discovery/stm32f769i_discovery.c ****   * @param  Button: Button to be configured
 302:../../Drivers/BSP/STM32F769I-Discovery/stm32f769i_discovery.c ****   *          This parameter can be one of the following values:
 303:../../Drivers/BSP/STM32F769I-Discovery/stm32f769i_discovery.c ****   *            @arg  BUTTON_WAKEUP: Wakeup Push Button
 304:../../Drivers/BSP/STM32F769I-Discovery/stm32f769i_discovery.c ****   *            @arg  BUTTON_USER: User Push Button
 305:../../Drivers/BSP/STM32F769I-Discovery/stm32f769i_discovery.c ****   * @note PB DeInit does not disable the GPIO clock
 306:../../Drivers/BSP/STM32F769I-Discovery/stm32f769i_discovery.c ****   * @retval None
 307:../../Drivers/BSP/STM32F769I-Discovery/stm32f769i_discovery.c ****   */
 308:../../Drivers/BSP/STM32F769I-Discovery/stm32f769i_discovery.c **** void BSP_PB_DeInit(Button_TypeDef Button)
 309:../../Drivers/BSP/STM32F769I-Discovery/stm32f769i_discovery.c **** {
 547              		.loc 1 309 0
 548              		.cfi_startproc
 549              		@ args = 0, pretend = 0, frame = 32
 550              		@ frame_needed = 1, uses_anonymous_args = 0
 551 0000 80B5     		push	{r7, lr}
 552              	.LCFI34:
 553              		.cfi_def_cfa_offset 8
 554              		.cfi_offset 7, -8
 555              		.cfi_offset 14, -4
 556 0002 88B0     		sub	sp, sp, #32
 557              	.LCFI35:
 558              		.cfi_def_cfa_offset 40
 559 0004 00AF     		add	r7, sp, #0
 560              	.LCFI36:
 561              		.cfi_def_cfa_register 7
 562 0006 0346     		mov	r3, r0
 563 0008 FB71     		strb	r3, [r7, #7]
 310:../../Drivers/BSP/STM32F769I-Discovery/stm32f769i_discovery.c ****     GPIO_InitTypeDef gpio_init_structure;
 311:../../Drivers/BSP/STM32F769I-Discovery/stm32f769i_discovery.c **** 
 312:../../Drivers/BSP/STM32F769I-Discovery/stm32f769i_discovery.c ****     gpio_init_structure.Pin = BUTTON_PIN[Button];
 564              		.loc 1 312 0
ARM GAS  /tmp/ccDIYG4f.s 			page 16


 565 000a 0123     		movs	r3, #1
 566 000c FB60     		str	r3, [r7, #12]
 313:../../Drivers/BSP/STM32F769I-Discovery/stm32f769i_discovery.c ****     HAL_NVIC_DisableIRQ((IRQn_Type)(BUTTON_IRQn[Button]));
 567              		.loc 1 313 0
 568 000e 0623     		movs	r3, #6
 569 0010 DBB2     		uxtb	r3, r3
 570 0012 5BB2     		sxtb	r3, r3
 571 0014 1846     		mov	r0, r3
 572 0016 FFF7FEFF 		bl	HAL_NVIC_DisableIRQ
 314:../../Drivers/BSP/STM32F769I-Discovery/stm32f769i_discovery.c ****     HAL_GPIO_DeInit(BUTTON_PORT[Button], gpio_init_structure.Pin);
 573              		.loc 1 314 0
 574 001a FB79     		ldrb	r3, [r7, #7]	@ zero_extendqisi2
 575 001c 054A     		ldr	r2, .L26
 576 001e 52F82320 		ldr	r2, [r2, r3, lsl #2]
 577 0022 FB68     		ldr	r3, [r7, #12]
 578 0024 1046     		mov	r0, r2
 579 0026 1946     		mov	r1, r3
 580 0028 FFF7FEFF 		bl	HAL_GPIO_DeInit
 315:../../Drivers/BSP/STM32F769I-Discovery/stm32f769i_discovery.c **** }
 581              		.loc 1 315 0
 582 002c 2037     		adds	r7, r7, #32
 583              	.LCFI37:
 584              		.cfi_def_cfa_offset 8
 585 002e BD46     		mov	sp, r7
 586              	.LCFI38:
 587              		.cfi_def_cfa_register 13
 588              		@ sp needed
 589 0030 80BD     		pop	{r7, pc}
 590              	.L27:
 591 0032 00BF     		.align	2
 592              	.L26:
 593 0034 00000000 		.word	BUTTON_PORT
 594              		.cfi_endproc
 595              	.LFE142:
 597              		.section	.text.BSP_PB_GetState,"ax",%progbits
 598              		.align	2
 599              		.global	BSP_PB_GetState
 600              		.thumb
 601              		.thumb_func
 603              	BSP_PB_GetState:
 604              	.LFB143:
 316:../../Drivers/BSP/STM32F769I-Discovery/stm32f769i_discovery.c **** 
 317:../../Drivers/BSP/STM32F769I-Discovery/stm32f769i_discovery.c **** 
 318:../../Drivers/BSP/STM32F769I-Discovery/stm32f769i_discovery.c **** /**
 319:../../Drivers/BSP/STM32F769I-Discovery/stm32f769i_discovery.c ****   * @brief  Returns the selected button state.
 320:../../Drivers/BSP/STM32F769I-Discovery/stm32f769i_discovery.c ****   * @param  Button: Button to be checked
 321:../../Drivers/BSP/STM32F769I-Discovery/stm32f769i_discovery.c ****   *          This parameter can be one of the following values:
 322:../../Drivers/BSP/STM32F769I-Discovery/stm32f769i_discovery.c ****   *            @arg  BUTTON_WAKEUP: Wakeup Push Button
 323:../../Drivers/BSP/STM32F769I-Discovery/stm32f769i_discovery.c ****   *            @arg  BUTTON_USER: User Push Button
 324:../../Drivers/BSP/STM32F769I-Discovery/stm32f769i_discovery.c ****   * @retval The Button GPIO pin value
 325:../../Drivers/BSP/STM32F769I-Discovery/stm32f769i_discovery.c ****   */
 326:../../Drivers/BSP/STM32F769I-Discovery/stm32f769i_discovery.c **** uint32_t BSP_PB_GetState(Button_TypeDef Button)
 327:../../Drivers/BSP/STM32F769I-Discovery/stm32f769i_discovery.c **** {
 605              		.loc 1 327 0
 606              		.cfi_startproc
 607              		@ args = 0, pretend = 0, frame = 8
 608              		@ frame_needed = 1, uses_anonymous_args = 0
ARM GAS  /tmp/ccDIYG4f.s 			page 17


 609 0000 80B5     		push	{r7, lr}
 610              	.LCFI39:
 611              		.cfi_def_cfa_offset 8
 612              		.cfi_offset 7, -8
 613              		.cfi_offset 14, -4
 614 0002 82B0     		sub	sp, sp, #8
 615              	.LCFI40:
 616              		.cfi_def_cfa_offset 16
 617 0004 00AF     		add	r7, sp, #0
 618              	.LCFI41:
 619              		.cfi_def_cfa_register 7
 620 0006 0346     		mov	r3, r0
 621 0008 FB71     		strb	r3, [r7, #7]
 328:../../Drivers/BSP/STM32F769I-Discovery/stm32f769i_discovery.c ****   return HAL_GPIO_ReadPin(BUTTON_PORT[Button], BUTTON_PIN[Button]);
 622              		.loc 1 328 0
 623 000a FB79     		ldrb	r3, [r7, #7]	@ zero_extendqisi2
 624 000c 064A     		ldr	r2, .L30
 625 000e 52F82330 		ldr	r3, [r2, r3, lsl #2]
 626 0012 0122     		movs	r2, #1
 627 0014 1846     		mov	r0, r3
 628 0016 1146     		mov	r1, r2
 629 0018 FFF7FEFF 		bl	HAL_GPIO_ReadPin
 630 001c 0346     		mov	r3, r0
 329:../../Drivers/BSP/STM32F769I-Discovery/stm32f769i_discovery.c **** }
 631              		.loc 1 329 0
 632 001e 1846     		mov	r0, r3
 633 0020 0837     		adds	r7, r7, #8
 634              	.LCFI42:
 635              		.cfi_def_cfa_offset 8
 636 0022 BD46     		mov	sp, r7
 637              	.LCFI43:
 638              		.cfi_def_cfa_register 13
 639              		@ sp needed
 640 0024 80BD     		pop	{r7, pc}
 641              	.L31:
 642 0026 00BF     		.align	2
 643              	.L30:
 644 0028 00000000 		.word	BUTTON_PORT
 645              		.cfi_endproc
 646              	.LFE143:
 648              		.section	.text.I2Cx_MspInit,"ax",%progbits
 649              		.align	2
 650              		.thumb
 651              		.thumb_func
 653              	I2Cx_MspInit:
 654              	.LFB144:
 330:../../Drivers/BSP/STM32F769I-Discovery/stm32f769i_discovery.c **** 
 331:../../Drivers/BSP/STM32F769I-Discovery/stm32f769i_discovery.c **** /**
 332:../../Drivers/BSP/STM32F769I-Discovery/stm32f769i_discovery.c ****   * @}
 333:../../Drivers/BSP/STM32F769I-Discovery/stm32f769i_discovery.c ****   */
 334:../../Drivers/BSP/STM32F769I-Discovery/stm32f769i_discovery.c **** 
 335:../../Drivers/BSP/STM32F769I-Discovery/stm32f769i_discovery.c **** /** @defgroup STM32F769I_Discovery_LOW_LEVEL_Private_Functions STM32F769I_Discovery_LOW_LEVEL Priva
 336:../../Drivers/BSP/STM32F769I-Discovery/stm32f769i_discovery.c ****   * @{
 337:../../Drivers/BSP/STM32F769I-Discovery/stm32f769i_discovery.c ****   */
 338:../../Drivers/BSP/STM32F769I-Discovery/stm32f769i_discovery.c **** 
 339:../../Drivers/BSP/STM32F769I-Discovery/stm32f769i_discovery.c **** 
 340:../../Drivers/BSP/STM32F769I-Discovery/stm32f769i_discovery.c **** /*******************************************************************************
ARM GAS  /tmp/ccDIYG4f.s 			page 18


 341:../../Drivers/BSP/STM32F769I-Discovery/stm32f769i_discovery.c ****                             BUS OPERATIONS
 342:../../Drivers/BSP/STM32F769I-Discovery/stm32f769i_discovery.c **** *******************************************************************************/
 343:../../Drivers/BSP/STM32F769I-Discovery/stm32f769i_discovery.c **** 
 344:../../Drivers/BSP/STM32F769I-Discovery/stm32f769i_discovery.c **** /******************************* I2C Routines *********************************/
 345:../../Drivers/BSP/STM32F769I-Discovery/stm32f769i_discovery.c **** /**
 346:../../Drivers/BSP/STM32F769I-Discovery/stm32f769i_discovery.c ****   * @brief  Initializes I2C MSP.
 347:../../Drivers/BSP/STM32F769I-Discovery/stm32f769i_discovery.c ****   * @param  i2c_handler : I2C handler
 348:../../Drivers/BSP/STM32F769I-Discovery/stm32f769i_discovery.c ****   * @retval None
 349:../../Drivers/BSP/STM32F769I-Discovery/stm32f769i_discovery.c ****   */
 350:../../Drivers/BSP/STM32F769I-Discovery/stm32f769i_discovery.c **** static void I2Cx_MspInit(I2C_HandleTypeDef *i2c_handler)
 351:../../Drivers/BSP/STM32F769I-Discovery/stm32f769i_discovery.c **** {
 655              		.loc 1 351 0
 656              		.cfi_startproc
 657              		@ args = 0, pretend = 0, frame = 48
 658              		@ frame_needed = 1, uses_anonymous_args = 0
 659 0000 80B5     		push	{r7, lr}
 660              	.LCFI44:
 661              		.cfi_def_cfa_offset 8
 662              		.cfi_offset 7, -8
 663              		.cfi_offset 14, -4
 664 0002 8CB0     		sub	sp, sp, #48
 665              	.LCFI45:
 666              		.cfi_def_cfa_offset 56
 667 0004 00AF     		add	r7, sp, #0
 668              	.LCFI46:
 669              		.cfi_def_cfa_register 7
 670 0006 7860     		str	r0, [r7, #4]
 352:../../Drivers/BSP/STM32F769I-Discovery/stm32f769i_discovery.c ****   GPIO_InitTypeDef  gpio_init_structure;
 353:../../Drivers/BSP/STM32F769I-Discovery/stm32f769i_discovery.c **** 
 354:../../Drivers/BSP/STM32F769I-Discovery/stm32f769i_discovery.c ****   if (i2c_handler == (I2C_HandleTypeDef*)(&hI2cAudioHandler))
 671              		.loc 1 354 0
 672 0008 7B68     		ldr	r3, [r7, #4]
 673 000a 584A     		ldr	r2, .L35
 674 000c 9342     		cmp	r3, r2
 675 000e 5BD1     		bne	.L33
 676              	.LBB4:
 355:../../Drivers/BSP/STM32F769I-Discovery/stm32f769i_discovery.c ****   {
 356:../../Drivers/BSP/STM32F769I-Discovery/stm32f769i_discovery.c ****   /*** Configure the GPIOs ***/
 357:../../Drivers/BSP/STM32F769I-Discovery/stm32f769i_discovery.c ****   /* Enable GPIO clock */
 358:../../Drivers/BSP/STM32F769I-Discovery/stm32f769i_discovery.c ****   DISCOVERY_AUDIO_I2Cx_SCL_GPIO_CLK_ENABLE();
 677              		.loc 1 358 0
 678 0010 574A     		ldr	r2, .L35+4
 679 0012 574B     		ldr	r3, .L35+4
 680 0014 1B6B     		ldr	r3, [r3, #48]
 681 0016 43F00803 		orr	r3, r3, #8
 682 001a 1363     		str	r3, [r2, #48]
 683 001c 544B     		ldr	r3, .L35+4
 684 001e 1B6B     		ldr	r3, [r3, #48]
 685 0020 03F00803 		and	r3, r3, #8
 686 0024 BB61     		str	r3, [r7, #24]
 687 0026 BB69     		ldr	r3, [r7, #24]
 688              	.LBE4:
 689              	.LBB5:
 359:../../Drivers/BSP/STM32F769I-Discovery/stm32f769i_discovery.c ****   DISCOVERY_AUDIO_I2Cx_SDA_GPIO_CLK_ENABLE();
 690              		.loc 1 359 0
 691 0028 514A     		ldr	r2, .L35+4
 692 002a 514B     		ldr	r3, .L35+4
ARM GAS  /tmp/ccDIYG4f.s 			page 19


 693 002c 1B6B     		ldr	r3, [r3, #48]
 694 002e 43F00203 		orr	r3, r3, #2
 695 0032 1363     		str	r3, [r2, #48]
 696 0034 4E4B     		ldr	r3, .L35+4
 697 0036 1B6B     		ldr	r3, [r3, #48]
 698 0038 03F00203 		and	r3, r3, #2
 699 003c 7B61     		str	r3, [r7, #20]
 700 003e 7B69     		ldr	r3, [r7, #20]
 701              	.LBE5:
 360:../../Drivers/BSP/STM32F769I-Discovery/stm32f769i_discovery.c ****   /* Configure I2C Tx as alternate function */
 361:../../Drivers/BSP/STM32F769I-Discovery/stm32f769i_discovery.c ****   gpio_init_structure.Pin = DISCOVERY_AUDIO_I2Cx_SCL_PIN;
 702              		.loc 1 361 0
 703 0040 4FF48053 		mov	r3, #4096
 704 0044 FB61     		str	r3, [r7, #28]
 362:../../Drivers/BSP/STM32F769I-Discovery/stm32f769i_discovery.c ****   gpio_init_structure.Mode = GPIO_MODE_AF_OD;
 705              		.loc 1 362 0
 706 0046 1223     		movs	r3, #18
 707 0048 3B62     		str	r3, [r7, #32]
 363:../../Drivers/BSP/STM32F769I-Discovery/stm32f769i_discovery.c ****   gpio_init_structure.Pull = GPIO_NOPULL;
 708              		.loc 1 363 0
 709 004a 0023     		movs	r3, #0
 710 004c 7B62     		str	r3, [r7, #36]
 364:../../Drivers/BSP/STM32F769I-Discovery/stm32f769i_discovery.c ****   gpio_init_structure.Speed = GPIO_SPEED_FAST;
 711              		.loc 1 364 0
 712 004e 0223     		movs	r3, #2
 713 0050 BB62     		str	r3, [r7, #40]
 365:../../Drivers/BSP/STM32F769I-Discovery/stm32f769i_discovery.c ****   gpio_init_structure.Alternate = DISCOVERY_AUDIO_I2Cx_SCL_AF;
 714              		.loc 1 365 0
 715 0052 0423     		movs	r3, #4
 716 0054 FB62     		str	r3, [r7, #44]
 366:../../Drivers/BSP/STM32F769I-Discovery/stm32f769i_discovery.c ****   HAL_GPIO_Init(DISCOVERY_AUDIO_I2Cx_SCL_GPIO_PORT, &gpio_init_structure);
 717              		.loc 1 366 0
 718 0056 07F11C03 		add	r3, r7, #28
 719 005a 4648     		ldr	r0, .L35+8
 720 005c 1946     		mov	r1, r3
 721 005e FFF7FEFF 		bl	HAL_GPIO_Init
 367:../../Drivers/BSP/STM32F769I-Discovery/stm32f769i_discovery.c **** 
 368:../../Drivers/BSP/STM32F769I-Discovery/stm32f769i_discovery.c ****   /* Configure I2C Rx as alternate function */
 369:../../Drivers/BSP/STM32F769I-Discovery/stm32f769i_discovery.c ****   gpio_init_structure.Pin = DISCOVERY_AUDIO_I2Cx_SDA_PIN;
 722              		.loc 1 369 0
 723 0062 8023     		movs	r3, #128
 724 0064 FB61     		str	r3, [r7, #28]
 370:../../Drivers/BSP/STM32F769I-Discovery/stm32f769i_discovery.c ****   gpio_init_structure.Alternate = DISCOVERY_AUDIO_I2Cx_SDA_AF;
 725              		.loc 1 370 0
 726 0066 0B23     		movs	r3, #11
 727 0068 FB62     		str	r3, [r7, #44]
 371:../../Drivers/BSP/STM32F769I-Discovery/stm32f769i_discovery.c ****   HAL_GPIO_Init(DISCOVERY_AUDIO_I2Cx_SDA_GPIO_PORT, &gpio_init_structure);
 728              		.loc 1 371 0
 729 006a 07F11C03 		add	r3, r7, #28
 730 006e 4248     		ldr	r0, .L35+12
 731 0070 1946     		mov	r1, r3
 732 0072 FFF7FEFF 		bl	HAL_GPIO_Init
 733              	.LBB6:
 372:../../Drivers/BSP/STM32F769I-Discovery/stm32f769i_discovery.c **** 
 373:../../Drivers/BSP/STM32F769I-Discovery/stm32f769i_discovery.c ****   /*** Configure the I2C peripheral ***/
 374:../../Drivers/BSP/STM32F769I-Discovery/stm32f769i_discovery.c ****   /* Enable I2C clock */
 375:../../Drivers/BSP/STM32F769I-Discovery/stm32f769i_discovery.c ****   DISCOVERY_AUDIO_I2Cx_CLK_ENABLE();
ARM GAS  /tmp/ccDIYG4f.s 			page 20


 734              		.loc 1 375 0
 735 0076 3E4A     		ldr	r2, .L35+4
 736 0078 3D4B     		ldr	r3, .L35+4
 737 007a 1B6C     		ldr	r3, [r3, #64]
 738 007c 43F08073 		orr	r3, r3, #16777216
 739 0080 1364     		str	r3, [r2, #64]
 740 0082 3B4B     		ldr	r3, .L35+4
 741 0084 1B6C     		ldr	r3, [r3, #64]
 742 0086 03F08073 		and	r3, r3, #16777216
 743 008a 3B61     		str	r3, [r7, #16]
 744 008c 3B69     		ldr	r3, [r7, #16]
 745              	.LBE6:
 376:../../Drivers/BSP/STM32F769I-Discovery/stm32f769i_discovery.c **** 
 377:../../Drivers/BSP/STM32F769I-Discovery/stm32f769i_discovery.c ****   /* Force the I2C peripheral clock reset */
 378:../../Drivers/BSP/STM32F769I-Discovery/stm32f769i_discovery.c ****   DISCOVERY_AUDIO_I2Cx_FORCE_RESET();
 746              		.loc 1 378 0
 747 008e 384A     		ldr	r2, .L35+4
 748 0090 374B     		ldr	r3, .L35+4
 749 0092 1B6A     		ldr	r3, [r3, #32]
 750 0094 43F08073 		orr	r3, r3, #16777216
 751 0098 1362     		str	r3, [r2, #32]
 379:../../Drivers/BSP/STM32F769I-Discovery/stm32f769i_discovery.c **** 
 380:../../Drivers/BSP/STM32F769I-Discovery/stm32f769i_discovery.c ****   /* Release the I2C peripheral clock reset */
 381:../../Drivers/BSP/STM32F769I-Discovery/stm32f769i_discovery.c ****   DISCOVERY_AUDIO_I2Cx_RELEASE_RESET();
 752              		.loc 1 381 0
 753 009a 354A     		ldr	r2, .L35+4
 754 009c 344B     		ldr	r3, .L35+4
 755 009e 1B6A     		ldr	r3, [r3, #32]
 756 00a0 23F08073 		bic	r3, r3, #16777216
 757 00a4 1362     		str	r3, [r2, #32]
 382:../../Drivers/BSP/STM32F769I-Discovery/stm32f769i_discovery.c **** 
 383:../../Drivers/BSP/STM32F769I-Discovery/stm32f769i_discovery.c ****   /* Enable and set I2C1 Interrupt to a lower priority */
 384:../../Drivers/BSP/STM32F769I-Discovery/stm32f769i_discovery.c ****   HAL_NVIC_SetPriority(DISCOVERY_AUDIO_I2Cx_EV_IRQn, 0x0F, 0);
 758              		.loc 1 384 0
 759 00a6 5F20     		movs	r0, #95
 760 00a8 0F21     		movs	r1, #15
 761 00aa 0022     		movs	r2, #0
 762 00ac FFF7FEFF 		bl	HAL_NVIC_SetPriority
 385:../../Drivers/BSP/STM32F769I-Discovery/stm32f769i_discovery.c ****   HAL_NVIC_EnableIRQ(DISCOVERY_AUDIO_I2Cx_EV_IRQn);
 763              		.loc 1 385 0
 764 00b0 5F20     		movs	r0, #95
 765 00b2 FFF7FEFF 		bl	HAL_NVIC_EnableIRQ
 386:../../Drivers/BSP/STM32F769I-Discovery/stm32f769i_discovery.c **** 
 387:../../Drivers/BSP/STM32F769I-Discovery/stm32f769i_discovery.c ****   /* Enable and set I2C1 Interrupt to a lower priority */
 388:../../Drivers/BSP/STM32F769I-Discovery/stm32f769i_discovery.c ****   HAL_NVIC_SetPriority(DISCOVERY_AUDIO_I2Cx_ER_IRQn, 0x0F, 0);
 766              		.loc 1 388 0
 767 00b6 6020     		movs	r0, #96
 768 00b8 0F21     		movs	r1, #15
 769 00ba 0022     		movs	r2, #0
 770 00bc FFF7FEFF 		bl	HAL_NVIC_SetPriority
 389:../../Drivers/BSP/STM32F769I-Discovery/stm32f769i_discovery.c ****   HAL_NVIC_EnableIRQ(DISCOVERY_AUDIO_I2Cx_ER_IRQn);    
 771              		.loc 1 389 0
 772 00c0 6020     		movs	r0, #96
 773 00c2 FFF7FEFF 		bl	HAL_NVIC_EnableIRQ
 774 00c6 4DE0     		b	.L32
 775              	.L33:
 776              	.LBB7:
ARM GAS  /tmp/ccDIYG4f.s 			page 21


 390:../../Drivers/BSP/STM32F769I-Discovery/stm32f769i_discovery.c ****     
 391:../../Drivers/BSP/STM32F769I-Discovery/stm32f769i_discovery.c ****   }
 392:../../Drivers/BSP/STM32F769I-Discovery/stm32f769i_discovery.c ****   else
 393:../../Drivers/BSP/STM32F769I-Discovery/stm32f769i_discovery.c ****   {
 394:../../Drivers/BSP/STM32F769I-Discovery/stm32f769i_discovery.c ****   /*** Configure the GPIOs ***/
 395:../../Drivers/BSP/STM32F769I-Discovery/stm32f769i_discovery.c ****   /* Enable GPIO clock */
 396:../../Drivers/BSP/STM32F769I-Discovery/stm32f769i_discovery.c ****   DISCOVERY_EXT_I2Cx_SCL_SDA_GPIO_CLK_ENABLE();
 777              		.loc 1 396 0
 778 00c8 294A     		ldr	r2, .L35+4
 779 00ca 294B     		ldr	r3, .L35+4
 780 00cc 1B6B     		ldr	r3, [r3, #48]
 781 00ce 43F00203 		orr	r3, r3, #2
 782 00d2 1363     		str	r3, [r2, #48]
 783 00d4 264B     		ldr	r3, .L35+4
 784 00d6 1B6B     		ldr	r3, [r3, #48]
 785 00d8 03F00203 		and	r3, r3, #2
 786 00dc FB60     		str	r3, [r7, #12]
 787 00de FB68     		ldr	r3, [r7, #12]
 788              	.LBE7:
 397:../../Drivers/BSP/STM32F769I-Discovery/stm32f769i_discovery.c **** 
 398:../../Drivers/BSP/STM32F769I-Discovery/stm32f769i_discovery.c ****   /* Configure I2C Tx as alternate function */
 399:../../Drivers/BSP/STM32F769I-Discovery/stm32f769i_discovery.c ****   gpio_init_structure.Pin = DISCOVERY_EXT_I2Cx_SCL_PIN;
 789              		.loc 1 399 0
 790 00e0 4FF48073 		mov	r3, #256
 791 00e4 FB61     		str	r3, [r7, #28]
 400:../../Drivers/BSP/STM32F769I-Discovery/stm32f769i_discovery.c ****   gpio_init_structure.Mode = GPIO_MODE_AF_OD;
 792              		.loc 1 400 0
 793 00e6 1223     		movs	r3, #18
 794 00e8 3B62     		str	r3, [r7, #32]
 401:../../Drivers/BSP/STM32F769I-Discovery/stm32f769i_discovery.c ****   gpio_init_structure.Pull = GPIO_NOPULL;
 795              		.loc 1 401 0
 796 00ea 0023     		movs	r3, #0
 797 00ec 7B62     		str	r3, [r7, #36]
 402:../../Drivers/BSP/STM32F769I-Discovery/stm32f769i_discovery.c ****   gpio_init_structure.Speed = GPIO_SPEED_FAST;
 798              		.loc 1 402 0
 799 00ee 0223     		movs	r3, #2
 800 00f0 BB62     		str	r3, [r7, #40]
 403:../../Drivers/BSP/STM32F769I-Discovery/stm32f769i_discovery.c ****   gpio_init_structure.Alternate = DISCOVERY_EXT_I2Cx_SCL_SDA_AF;
 801              		.loc 1 403 0
 802 00f2 0423     		movs	r3, #4
 803 00f4 FB62     		str	r3, [r7, #44]
 404:../../Drivers/BSP/STM32F769I-Discovery/stm32f769i_discovery.c ****   HAL_GPIO_Init(DISCOVERY_EXT_I2Cx_SCL_SDA_GPIO_PORT, &gpio_init_structure);
 804              		.loc 1 404 0
 805 00f6 07F11C03 		add	r3, r7, #28
 806 00fa 1F48     		ldr	r0, .L35+12
 807 00fc 1946     		mov	r1, r3
 808 00fe FFF7FEFF 		bl	HAL_GPIO_Init
 405:../../Drivers/BSP/STM32F769I-Discovery/stm32f769i_discovery.c **** 
 406:../../Drivers/BSP/STM32F769I-Discovery/stm32f769i_discovery.c ****   /* Configure I2C Rx as alternate function */
 407:../../Drivers/BSP/STM32F769I-Discovery/stm32f769i_discovery.c ****   gpio_init_structure.Pin = DISCOVERY_EXT_I2Cx_SDA_PIN;
 809              		.loc 1 407 0
 810 0102 4FF40073 		mov	r3, #512
 811 0106 FB61     		str	r3, [r7, #28]
 408:../../Drivers/BSP/STM32F769I-Discovery/stm32f769i_discovery.c ****   HAL_GPIO_Init(DISCOVERY_EXT_I2Cx_SCL_SDA_GPIO_PORT, &gpio_init_structure);
 812              		.loc 1 408 0
 813 0108 07F11C03 		add	r3, r7, #28
 814 010c 1A48     		ldr	r0, .L35+12
ARM GAS  /tmp/ccDIYG4f.s 			page 22


 815 010e 1946     		mov	r1, r3
 816 0110 FFF7FEFF 		bl	HAL_GPIO_Init
 817              	.LBB8:
 409:../../Drivers/BSP/STM32F769I-Discovery/stm32f769i_discovery.c **** 
 410:../../Drivers/BSP/STM32F769I-Discovery/stm32f769i_discovery.c ****   /*** Configure the I2C peripheral ***/
 411:../../Drivers/BSP/STM32F769I-Discovery/stm32f769i_discovery.c ****   /* Enable I2C clock */
 412:../../Drivers/BSP/STM32F769I-Discovery/stm32f769i_discovery.c ****   DISCOVERY_EXT_I2Cx_CLK_ENABLE();
 818              		.loc 1 412 0
 819 0114 164A     		ldr	r2, .L35+4
 820 0116 164B     		ldr	r3, .L35+4
 821 0118 1B6C     		ldr	r3, [r3, #64]
 822 011a 43F40013 		orr	r3, r3, #2097152
 823 011e 1364     		str	r3, [r2, #64]
 824 0120 134B     		ldr	r3, .L35+4
 825 0122 1B6C     		ldr	r3, [r3, #64]
 826 0124 03F40013 		and	r3, r3, #2097152
 827 0128 BB60     		str	r3, [r7, #8]
 828 012a BB68     		ldr	r3, [r7, #8]
 829              	.LBE8:
 413:../../Drivers/BSP/STM32F769I-Discovery/stm32f769i_discovery.c **** 
 414:../../Drivers/BSP/STM32F769I-Discovery/stm32f769i_discovery.c ****   /* Force the I2C peripheral clock reset */
 415:../../Drivers/BSP/STM32F769I-Discovery/stm32f769i_discovery.c ****   DISCOVERY_EXT_I2Cx_FORCE_RESET();
 830              		.loc 1 415 0
 831 012c 104A     		ldr	r2, .L35+4
 832 012e 104B     		ldr	r3, .L35+4
 833 0130 1B6A     		ldr	r3, [r3, #32]
 834 0132 43F40013 		orr	r3, r3, #2097152
 835 0136 1362     		str	r3, [r2, #32]
 416:../../Drivers/BSP/STM32F769I-Discovery/stm32f769i_discovery.c **** 
 417:../../Drivers/BSP/STM32F769I-Discovery/stm32f769i_discovery.c ****   /* Release the I2C peripheral clock reset */
 418:../../Drivers/BSP/STM32F769I-Discovery/stm32f769i_discovery.c ****   DISCOVERY_EXT_I2Cx_RELEASE_RESET();
 836              		.loc 1 418 0
 837 0138 0D4A     		ldr	r2, .L35+4
 838 013a 0D4B     		ldr	r3, .L35+4
 839 013c 1B6A     		ldr	r3, [r3, #32]
 840 013e 23F40013 		bic	r3, r3, #2097152
 841 0142 1362     		str	r3, [r2, #32]
 419:../../Drivers/BSP/STM32F769I-Discovery/stm32f769i_discovery.c **** 
 420:../../Drivers/BSP/STM32F769I-Discovery/stm32f769i_discovery.c ****   /* Enable and set I2C1 Interrupt to a lower priority */
 421:../../Drivers/BSP/STM32F769I-Discovery/stm32f769i_discovery.c ****   HAL_NVIC_SetPriority(DISCOVERY_EXT_I2Cx_EV_IRQn, 0x0F, 0);
 842              		.loc 1 421 0
 843 0144 1F20     		movs	r0, #31
 844 0146 0F21     		movs	r1, #15
 845 0148 0022     		movs	r2, #0
 846 014a FFF7FEFF 		bl	HAL_NVIC_SetPriority
 422:../../Drivers/BSP/STM32F769I-Discovery/stm32f769i_discovery.c ****   HAL_NVIC_EnableIRQ(DISCOVERY_EXT_I2Cx_EV_IRQn);
 847              		.loc 1 422 0
 848 014e 1F20     		movs	r0, #31
 849 0150 FFF7FEFF 		bl	HAL_NVIC_EnableIRQ
 423:../../Drivers/BSP/STM32F769I-Discovery/stm32f769i_discovery.c **** 
 424:../../Drivers/BSP/STM32F769I-Discovery/stm32f769i_discovery.c ****   /* Enable and set I2C1 Interrupt to a lower priority */
 425:../../Drivers/BSP/STM32F769I-Discovery/stm32f769i_discovery.c ****   HAL_NVIC_SetPriority(DISCOVERY_EXT_I2Cx_ER_IRQn, 0x0F, 0);
 850              		.loc 1 425 0
 851 0154 2020     		movs	r0, #32
 852 0156 0F21     		movs	r1, #15
 853 0158 0022     		movs	r2, #0
 854 015a FFF7FEFF 		bl	HAL_NVIC_SetPriority
ARM GAS  /tmp/ccDIYG4f.s 			page 23


 426:../../Drivers/BSP/STM32F769I-Discovery/stm32f769i_discovery.c ****   HAL_NVIC_EnableIRQ(DISCOVERY_EXT_I2Cx_ER_IRQn);
 855              		.loc 1 426 0
 856 015e 2020     		movs	r0, #32
 857 0160 FFF7FEFF 		bl	HAL_NVIC_EnableIRQ
 858              	.L32:
 427:../../Drivers/BSP/STM32F769I-Discovery/stm32f769i_discovery.c ****   }
 428:../../Drivers/BSP/STM32F769I-Discovery/stm32f769i_discovery.c **** }
 859              		.loc 1 428 0
 860 0164 3037     		adds	r7, r7, #48
 861              	.LCFI47:
 862              		.cfi_def_cfa_offset 8
 863 0166 BD46     		mov	sp, r7
 864              	.LCFI48:
 865              		.cfi_def_cfa_register 13
 866              		@ sp needed
 867 0168 80BD     		pop	{r7, pc}
 868              	.L36:
 869 016a 00BF     		.align	2
 870              	.L35:
 871 016c 00000000 		.word	hI2cAudioHandler
 872 0170 00380240 		.word	1073887232
 873 0174 000C0240 		.word	1073875968
 874 0178 00040240 		.word	1073873920
 875              		.cfi_endproc
 876              	.LFE144:
 878              		.section	.text.I2Cx_Init,"ax",%progbits
 879              		.align	2
 880              		.thumb
 881              		.thumb_func
 883              	I2Cx_Init:
 884              	.LFB145:
 429:../../Drivers/BSP/STM32F769I-Discovery/stm32f769i_discovery.c **** 
 430:../../Drivers/BSP/STM32F769I-Discovery/stm32f769i_discovery.c **** /**
 431:../../Drivers/BSP/STM32F769I-Discovery/stm32f769i_discovery.c ****   * @brief  Initializes I2C HAL.
 432:../../Drivers/BSP/STM32F769I-Discovery/stm32f769i_discovery.c ****   * @param  i2c_handler : I2C handler
 433:../../Drivers/BSP/STM32F769I-Discovery/stm32f769i_discovery.c ****   * @retval None
 434:../../Drivers/BSP/STM32F769I-Discovery/stm32f769i_discovery.c ****   */
 435:../../Drivers/BSP/STM32F769I-Discovery/stm32f769i_discovery.c **** static void I2Cx_Init(I2C_HandleTypeDef *i2c_handler)
 436:../../Drivers/BSP/STM32F769I-Discovery/stm32f769i_discovery.c **** {
 885              		.loc 1 436 0
 886              		.cfi_startproc
 887              		@ args = 0, pretend = 0, frame = 8
 888              		@ frame_needed = 1, uses_anonymous_args = 0
 889 0000 80B5     		push	{r7, lr}
 890              	.LCFI49:
 891              		.cfi_def_cfa_offset 8
 892              		.cfi_offset 7, -8
 893              		.cfi_offset 14, -4
 894 0002 82B0     		sub	sp, sp, #8
 895              	.LCFI50:
 896              		.cfi_def_cfa_offset 16
 897 0004 00AF     		add	r7, sp, #0
 898              	.LCFI51:
 899              		.cfi_def_cfa_register 7
 900 0006 7860     		str	r0, [r7, #4]
 437:../../Drivers/BSP/STM32F769I-Discovery/stm32f769i_discovery.c ****   if(HAL_I2C_GetState(i2c_handler) == HAL_I2C_STATE_RESET)
 901              		.loc 1 437 0
ARM GAS  /tmp/ccDIYG4f.s 			page 24


 902 0008 7868     		ldr	r0, [r7, #4]
 903 000a FFF7FEFF 		bl	HAL_I2C_GetState
 904 000e 0346     		mov	r3, r0
 905 0010 002B     		cmp	r3, #0
 906 0012 25D1     		bne	.L37
 438:../../Drivers/BSP/STM32F769I-Discovery/stm32f769i_discovery.c ****   {
 439:../../Drivers/BSP/STM32F769I-Discovery/stm32f769i_discovery.c ****     if (i2c_handler == (I2C_HandleTypeDef*)(&hI2cAudioHandler))
 907              		.loc 1 439 0
 908 0014 7B68     		ldr	r3, [r7, #4]
 909 0016 144A     		ldr	r2, .L41
 910 0018 9342     		cmp	r3, r2
 911 001a 03D1     		bne	.L39
 440:../../Drivers/BSP/STM32F769I-Discovery/stm32f769i_discovery.c ****     {
 441:../../Drivers/BSP/STM32F769I-Discovery/stm32f769i_discovery.c ****       /* Audio and LCD I2C configuration */
 442:../../Drivers/BSP/STM32F769I-Discovery/stm32f769i_discovery.c ****       i2c_handler->Instance = DISCOVERY_AUDIO_I2Cx;
 912              		.loc 1 442 0
 913 001c 7B68     		ldr	r3, [r7, #4]
 914 001e 134A     		ldr	r2, .L41+4
 915 0020 1A60     		str	r2, [r3]
 916 0022 02E0     		b	.L40
 917              	.L39:
 443:../../Drivers/BSP/STM32F769I-Discovery/stm32f769i_discovery.c ****     }
 444:../../Drivers/BSP/STM32F769I-Discovery/stm32f769i_discovery.c ****     else
 445:../../Drivers/BSP/STM32F769I-Discovery/stm32f769i_discovery.c ****     {
 446:../../Drivers/BSP/STM32F769I-Discovery/stm32f769i_discovery.c ****       /* External, camera and Arduino connector  I2C configuration */
 447:../../Drivers/BSP/STM32F769I-Discovery/stm32f769i_discovery.c ****       i2c_handler->Instance = DISCOVERY_EXT_I2Cx;
 918              		.loc 1 447 0
 919 0024 7B68     		ldr	r3, [r7, #4]
 920 0026 124A     		ldr	r2, .L41+8
 921 0028 1A60     		str	r2, [r3]
 922              	.L40:
 448:../../Drivers/BSP/STM32F769I-Discovery/stm32f769i_discovery.c ****     }
 449:../../Drivers/BSP/STM32F769I-Discovery/stm32f769i_discovery.c ****     i2c_handler->Init.Timing           = DISCOVERY_I2Cx_TIMING;
 923              		.loc 1 449 0
 924 002a 7B68     		ldr	r3, [r7, #4]
 925 002c 114A     		ldr	r2, .L41+12
 926 002e 5A60     		str	r2, [r3, #4]
 450:../../Drivers/BSP/STM32F769I-Discovery/stm32f769i_discovery.c ****     i2c_handler->Init.OwnAddress1      = 0;
 927              		.loc 1 450 0
 928 0030 7B68     		ldr	r3, [r7, #4]
 929 0032 0022     		movs	r2, #0
 930 0034 9A60     		str	r2, [r3, #8]
 451:../../Drivers/BSP/STM32F769I-Discovery/stm32f769i_discovery.c ****     i2c_handler->Init.AddressingMode   = I2C_ADDRESSINGMODE_7BIT;
 931              		.loc 1 451 0
 932 0036 7B68     		ldr	r3, [r7, #4]
 933 0038 0122     		movs	r2, #1
 934 003a DA60     		str	r2, [r3, #12]
 452:../../Drivers/BSP/STM32F769I-Discovery/stm32f769i_discovery.c ****     i2c_handler->Init.DualAddressMode  = I2C_DUALADDRESS_DISABLE;
 935              		.loc 1 452 0
 936 003c 7B68     		ldr	r3, [r7, #4]
 937 003e 0022     		movs	r2, #0
 938 0040 1A61     		str	r2, [r3, #16]
 453:../../Drivers/BSP/STM32F769I-Discovery/stm32f769i_discovery.c ****     i2c_handler->Init.OwnAddress2      = 0;
 939              		.loc 1 453 0
 940 0042 7B68     		ldr	r3, [r7, #4]
 941 0044 0022     		movs	r2, #0
 942 0046 5A61     		str	r2, [r3, #20]
ARM GAS  /tmp/ccDIYG4f.s 			page 25


 454:../../Drivers/BSP/STM32F769I-Discovery/stm32f769i_discovery.c ****     i2c_handler->Init.GeneralCallMode  = I2C_GENERALCALL_DISABLE;
 943              		.loc 1 454 0
 944 0048 7B68     		ldr	r3, [r7, #4]
 945 004a 0022     		movs	r2, #0
 946 004c DA61     		str	r2, [r3, #28]
 455:../../Drivers/BSP/STM32F769I-Discovery/stm32f769i_discovery.c ****     i2c_handler->Init.NoStretchMode    = I2C_NOSTRETCH_DISABLE;
 947              		.loc 1 455 0
 948 004e 7B68     		ldr	r3, [r7, #4]
 949 0050 0022     		movs	r2, #0
 950 0052 1A62     		str	r2, [r3, #32]
 456:../../Drivers/BSP/STM32F769I-Discovery/stm32f769i_discovery.c **** 
 457:../../Drivers/BSP/STM32F769I-Discovery/stm32f769i_discovery.c ****     /* Init the I2C */
 458:../../Drivers/BSP/STM32F769I-Discovery/stm32f769i_discovery.c ****     I2Cx_MspInit(i2c_handler);
 951              		.loc 1 458 0
 952 0054 7868     		ldr	r0, [r7, #4]
 953 0056 FFF7FEFF 		bl	I2Cx_MspInit
 459:../../Drivers/BSP/STM32F769I-Discovery/stm32f769i_discovery.c ****     HAL_I2C_Init(i2c_handler);
 954              		.loc 1 459 0
 955 005a 7868     		ldr	r0, [r7, #4]
 956 005c FFF7FEFF 		bl	HAL_I2C_Init
 957              	.L37:
 460:../../Drivers/BSP/STM32F769I-Discovery/stm32f769i_discovery.c ****   }
 461:../../Drivers/BSP/STM32F769I-Discovery/stm32f769i_discovery.c **** }
 958              		.loc 1 461 0
 959 0060 0837     		adds	r7, r7, #8
 960              	.LCFI52:
 961              		.cfi_def_cfa_offset 8
 962 0062 BD46     		mov	sp, r7
 963              	.LCFI53:
 964              		.cfi_def_cfa_register 13
 965              		@ sp needed
 966 0064 80BD     		pop	{r7, pc}
 967              	.L42:
 968 0066 00BF     		.align	2
 969              	.L41:
 970 0068 00000000 		.word	hI2cAudioHandler
 971 006c 00600040 		.word	1073766400
 972 0070 00540040 		.word	1073763328
 973 0074 32279140 		.word	1083254578
 974              		.cfi_endproc
 975              	.LFE145:
 977              		.section	.text.I2Cx_ReadMultiple,"ax",%progbits
 978              		.align	2
 979              		.thumb
 980              		.thumb_func
 982              	I2Cx_ReadMultiple:
 983              	.LFB146:
 462:../../Drivers/BSP/STM32F769I-Discovery/stm32f769i_discovery.c **** 
 463:../../Drivers/BSP/STM32F769I-Discovery/stm32f769i_discovery.c **** /**
 464:../../Drivers/BSP/STM32F769I-Discovery/stm32f769i_discovery.c ****   * @brief  Reads multiple data.
 465:../../Drivers/BSP/STM32F769I-Discovery/stm32f769i_discovery.c ****   * @param  i2c_handler : I2C handler
 466:../../Drivers/BSP/STM32F769I-Discovery/stm32f769i_discovery.c ****   * @param  Addr: I2C address
 467:../../Drivers/BSP/STM32F769I-Discovery/stm32f769i_discovery.c ****   * @param  Reg: Reg address
 468:../../Drivers/BSP/STM32F769I-Discovery/stm32f769i_discovery.c ****   * @param  MemAddress: memory address
 469:../../Drivers/BSP/STM32F769I-Discovery/stm32f769i_discovery.c ****   * @param  Buffer: Pointer to data buffer
 470:../../Drivers/BSP/STM32F769I-Discovery/stm32f769i_discovery.c ****   * @param  Length: Length of the data
 471:../../Drivers/BSP/STM32F769I-Discovery/stm32f769i_discovery.c ****   * @retval HAL status
ARM GAS  /tmp/ccDIYG4f.s 			page 26


 472:../../Drivers/BSP/STM32F769I-Discovery/stm32f769i_discovery.c ****   */
 473:../../Drivers/BSP/STM32F769I-Discovery/stm32f769i_discovery.c **** static HAL_StatusTypeDef I2Cx_ReadMultiple(I2C_HandleTypeDef *i2c_handler, uint8_t Addr, uint16_t R
 474:../../Drivers/BSP/STM32F769I-Discovery/stm32f769i_discovery.c **** {
 984              		.loc 1 474 0
 985              		.cfi_startproc
 986              		@ args = 8, pretend = 0, frame = 24
 987              		@ frame_needed = 1, uses_anonymous_args = 0
 988 0000 90B5     		push	{r4, r7, lr}
 989              	.LCFI54:
 990              		.cfi_def_cfa_offset 12
 991              		.cfi_offset 4, -12
 992              		.cfi_offset 7, -8
 993              		.cfi_offset 14, -4
 994 0002 8BB0     		sub	sp, sp, #44
 995              	.LCFI55:
 996              		.cfi_def_cfa_offset 56
 997 0004 04AF     		add	r7, sp, #16
 998              	.LCFI56:
 999              		.cfi_def_cfa 7, 40
 1000 0006 F860     		str	r0, [r7, #12]
 1001 0008 0846     		mov	r0, r1
 1002 000a 1146     		mov	r1, r2
 1003 000c 1A46     		mov	r2, r3
 1004 000e 0346     		mov	r3, r0
 1005 0010 FB72     		strb	r3, [r7, #11]
 1006 0012 0B46     		mov	r3, r1	@ movhi
 1007 0014 3B81     		strh	r3, [r7, #8]	@ movhi
 1008 0016 1346     		mov	r3, r2	@ movhi
 1009 0018 FB80     		strh	r3, [r7, #6]	@ movhi
 475:../../Drivers/BSP/STM32F769I-Discovery/stm32f769i_discovery.c ****   HAL_StatusTypeDef status = HAL_OK;
 1010              		.loc 1 475 0
 1011 001a 0023     		movs	r3, #0
 1012 001c FB75     		strb	r3, [r7, #23]
 476:../../Drivers/BSP/STM32F769I-Discovery/stm32f769i_discovery.c **** 
 477:../../Drivers/BSP/STM32F769I-Discovery/stm32f769i_discovery.c ****   status = HAL_I2C_Mem_Read(i2c_handler, Addr, (uint16_t)Reg, MemAddress, Buffer, Length, 1000);
 1013              		.loc 1 477 0
 1014 001e FB7A     		ldrb	r3, [r7, #11]	@ zero_extendqisi2
 1015 0020 99B2     		uxth	r1, r3
 1016 0022 3A89     		ldrh	r2, [r7, #8]
 1017 0024 FC88     		ldrh	r4, [r7, #6]
 1018 0026 BB6A     		ldr	r3, [r7, #40]
 1019 0028 0093     		str	r3, [sp]
 1020 002a BB8D     		ldrh	r3, [r7, #44]
 1021 002c 0193     		str	r3, [sp, #4]
 1022 002e 4FF47A73 		mov	r3, #1000
 1023 0032 0293     		str	r3, [sp, #8]
 1024 0034 F868     		ldr	r0, [r7, #12]
 1025 0036 2346     		mov	r3, r4
 1026 0038 FFF7FEFF 		bl	HAL_I2C_Mem_Read
 1027 003c 0346     		mov	r3, r0
 1028 003e FB75     		strb	r3, [r7, #23]
 478:../../Drivers/BSP/STM32F769I-Discovery/stm32f769i_discovery.c **** 
 479:../../Drivers/BSP/STM32F769I-Discovery/stm32f769i_discovery.c ****   /* Check the communication status */
 480:../../Drivers/BSP/STM32F769I-Discovery/stm32f769i_discovery.c ****   if(status != HAL_OK)
 1029              		.loc 1 480 0
 1030 0040 FB7D     		ldrb	r3, [r7, #23]	@ zero_extendqisi2
 1031 0042 002B     		cmp	r3, #0
ARM GAS  /tmp/ccDIYG4f.s 			page 27


 1032 0044 04D0     		beq	.L44
 481:../../Drivers/BSP/STM32F769I-Discovery/stm32f769i_discovery.c ****   {
 482:../../Drivers/BSP/STM32F769I-Discovery/stm32f769i_discovery.c ****     /* I2C error occured */
 483:../../Drivers/BSP/STM32F769I-Discovery/stm32f769i_discovery.c ****     I2Cx_Error(i2c_handler, Addr);
 1033              		.loc 1 483 0
 1034 0046 FB7A     		ldrb	r3, [r7, #11]	@ zero_extendqisi2
 1035 0048 F868     		ldr	r0, [r7, #12]
 1036 004a 1946     		mov	r1, r3
 1037 004c FFF7FEFF 		bl	I2Cx_Error
 1038              	.L44:
 484:../../Drivers/BSP/STM32F769I-Discovery/stm32f769i_discovery.c ****   }
 485:../../Drivers/BSP/STM32F769I-Discovery/stm32f769i_discovery.c ****   return status;
 1039              		.loc 1 485 0
 1040 0050 FB7D     		ldrb	r3, [r7, #23]	@ zero_extendqisi2
 486:../../Drivers/BSP/STM32F769I-Discovery/stm32f769i_discovery.c **** }
 1041              		.loc 1 486 0
 1042 0052 1846     		mov	r0, r3
 1043 0054 1C37     		adds	r7, r7, #28
 1044              	.LCFI57:
 1045              		.cfi_def_cfa_offset 12
 1046 0056 BD46     		mov	sp, r7
 1047              	.LCFI58:
 1048              		.cfi_def_cfa_register 13
 1049              		@ sp needed
 1050 0058 90BD     		pop	{r4, r7, pc}
 1051              		.cfi_endproc
 1052              	.LFE146:
 1054 005a 00BF     		.section	.text.I2Cx_WriteMultiple,"ax",%progbits
 1055              		.align	2
 1056              		.thumb
 1057              		.thumb_func
 1059              	I2Cx_WriteMultiple:
 1060              	.LFB147:
 487:../../Drivers/BSP/STM32F769I-Discovery/stm32f769i_discovery.c **** 
 488:../../Drivers/BSP/STM32F769I-Discovery/stm32f769i_discovery.c **** 
 489:../../Drivers/BSP/STM32F769I-Discovery/stm32f769i_discovery.c **** /**
 490:../../Drivers/BSP/STM32F769I-Discovery/stm32f769i_discovery.c ****   * @brief  Writes a value in a register of the device through BUS in using DMA mode.
 491:../../Drivers/BSP/STM32F769I-Discovery/stm32f769i_discovery.c ****   * @param  i2c_handler : I2C handler
 492:../../Drivers/BSP/STM32F769I-Discovery/stm32f769i_discovery.c ****   * @param  Addr: Device address on BUS Bus.
 493:../../Drivers/BSP/STM32F769I-Discovery/stm32f769i_discovery.c ****   * @param  Reg: The target register address to write
 494:../../Drivers/BSP/STM32F769I-Discovery/stm32f769i_discovery.c ****   * @param  MemAddress: memory address
 495:../../Drivers/BSP/STM32F769I-Discovery/stm32f769i_discovery.c ****   * @param  Buffer: The target register value to be written
 496:../../Drivers/BSP/STM32F769I-Discovery/stm32f769i_discovery.c ****   * @param  Length: buffer size to be written
 497:../../Drivers/BSP/STM32F769I-Discovery/stm32f769i_discovery.c ****   * @retval HAL status
 498:../../Drivers/BSP/STM32F769I-Discovery/stm32f769i_discovery.c ****   */
 499:../../Drivers/BSP/STM32F769I-Discovery/stm32f769i_discovery.c **** static HAL_StatusTypeDef I2Cx_WriteMultiple(I2C_HandleTypeDef *i2c_handler, uint8_t Addr, uint16_t 
 500:../../Drivers/BSP/STM32F769I-Discovery/stm32f769i_discovery.c **** {
 1061              		.loc 1 500 0
 1062              		.cfi_startproc
 1063              		@ args = 8, pretend = 0, frame = 24
 1064              		@ frame_needed = 1, uses_anonymous_args = 0
 1065 0000 90B5     		push	{r4, r7, lr}
 1066              	.LCFI59:
 1067              		.cfi_def_cfa_offset 12
 1068              		.cfi_offset 4, -12
 1069              		.cfi_offset 7, -8
 1070              		.cfi_offset 14, -4
ARM GAS  /tmp/ccDIYG4f.s 			page 28


 1071 0002 8BB0     		sub	sp, sp, #44
 1072              	.LCFI60:
 1073              		.cfi_def_cfa_offset 56
 1074 0004 04AF     		add	r7, sp, #16
 1075              	.LCFI61:
 1076              		.cfi_def_cfa 7, 40
 1077 0006 F860     		str	r0, [r7, #12]
 1078 0008 0846     		mov	r0, r1
 1079 000a 1146     		mov	r1, r2
 1080 000c 1A46     		mov	r2, r3
 1081 000e 0346     		mov	r3, r0
 1082 0010 FB72     		strb	r3, [r7, #11]
 1083 0012 0B46     		mov	r3, r1	@ movhi
 1084 0014 3B81     		strh	r3, [r7, #8]	@ movhi
 1085 0016 1346     		mov	r3, r2	@ movhi
 1086 0018 FB80     		strh	r3, [r7, #6]	@ movhi
 501:../../Drivers/BSP/STM32F769I-Discovery/stm32f769i_discovery.c ****   HAL_StatusTypeDef status = HAL_OK;
 1087              		.loc 1 501 0
 1088 001a 0023     		movs	r3, #0
 1089 001c FB75     		strb	r3, [r7, #23]
 502:../../Drivers/BSP/STM32F769I-Discovery/stm32f769i_discovery.c **** 
 503:../../Drivers/BSP/STM32F769I-Discovery/stm32f769i_discovery.c ****   status = HAL_I2C_Mem_Write(i2c_handler, Addr, (uint16_t)Reg, MemAddress, Buffer, Length, 1000);
 1090              		.loc 1 503 0
 1091 001e FB7A     		ldrb	r3, [r7, #11]	@ zero_extendqisi2
 1092 0020 99B2     		uxth	r1, r3
 1093 0022 3A89     		ldrh	r2, [r7, #8]
 1094 0024 FC88     		ldrh	r4, [r7, #6]
 1095 0026 BB6A     		ldr	r3, [r7, #40]
 1096 0028 0093     		str	r3, [sp]
 1097 002a BB8D     		ldrh	r3, [r7, #44]
 1098 002c 0193     		str	r3, [sp, #4]
 1099 002e 4FF47A73 		mov	r3, #1000
 1100 0032 0293     		str	r3, [sp, #8]
 1101 0034 F868     		ldr	r0, [r7, #12]
 1102 0036 2346     		mov	r3, r4
 1103 0038 FFF7FEFF 		bl	HAL_I2C_Mem_Write
 1104 003c 0346     		mov	r3, r0
 1105 003e FB75     		strb	r3, [r7, #23]
 504:../../Drivers/BSP/STM32F769I-Discovery/stm32f769i_discovery.c **** 
 505:../../Drivers/BSP/STM32F769I-Discovery/stm32f769i_discovery.c ****   /* Check the communication status */
 506:../../Drivers/BSP/STM32F769I-Discovery/stm32f769i_discovery.c ****   if(status != HAL_OK)
 1106              		.loc 1 506 0
 1107 0040 FB7D     		ldrb	r3, [r7, #23]	@ zero_extendqisi2
 1108 0042 002B     		cmp	r3, #0
 1109 0044 04D0     		beq	.L47
 507:../../Drivers/BSP/STM32F769I-Discovery/stm32f769i_discovery.c ****   {
 508:../../Drivers/BSP/STM32F769I-Discovery/stm32f769i_discovery.c ****     /* Re-Initiaize the I2C Bus */
 509:../../Drivers/BSP/STM32F769I-Discovery/stm32f769i_discovery.c ****     I2Cx_Error(i2c_handler, Addr);
 1110              		.loc 1 509 0
 1111 0046 FB7A     		ldrb	r3, [r7, #11]	@ zero_extendqisi2
 1112 0048 F868     		ldr	r0, [r7, #12]
 1113 004a 1946     		mov	r1, r3
 1114 004c FFF7FEFF 		bl	I2Cx_Error
 1115              	.L47:
 510:../../Drivers/BSP/STM32F769I-Discovery/stm32f769i_discovery.c ****   }
 511:../../Drivers/BSP/STM32F769I-Discovery/stm32f769i_discovery.c ****   return status;
 1116              		.loc 1 511 0
ARM GAS  /tmp/ccDIYG4f.s 			page 29


 1117 0050 FB7D     		ldrb	r3, [r7, #23]	@ zero_extendqisi2
 512:../../Drivers/BSP/STM32F769I-Discovery/stm32f769i_discovery.c **** }
 1118              		.loc 1 512 0
 1119 0052 1846     		mov	r0, r3
 1120 0054 1C37     		adds	r7, r7, #28
 1121              	.LCFI62:
 1122              		.cfi_def_cfa_offset 12
 1123 0056 BD46     		mov	sp, r7
 1124              	.LCFI63:
 1125              		.cfi_def_cfa_register 13
 1126              		@ sp needed
 1127 0058 90BD     		pop	{r4, r7, pc}
 1128              		.cfi_endproc
 1129              	.LFE147:
 1131 005a 00BF     		.section	.text.I2Cx_IsDeviceReady,"ax",%progbits
 1132              		.align	2
 1133              		.thumb
 1134              		.thumb_func
 1136              	I2Cx_IsDeviceReady:
 1137              	.LFB148:
 513:../../Drivers/BSP/STM32F769I-Discovery/stm32f769i_discovery.c **** 
 514:../../Drivers/BSP/STM32F769I-Discovery/stm32f769i_discovery.c **** /**
 515:../../Drivers/BSP/STM32F769I-Discovery/stm32f769i_discovery.c ****   * @brief  Checks if target device is ready for communication. 
 516:../../Drivers/BSP/STM32F769I-Discovery/stm32f769i_discovery.c ****   * @note   This function is used with Memory devices
 517:../../Drivers/BSP/STM32F769I-Discovery/stm32f769i_discovery.c ****   * @param  i2c_handler : I2C handler
 518:../../Drivers/BSP/STM32F769I-Discovery/stm32f769i_discovery.c ****   * @param  DevAddress: Target device address
 519:../../Drivers/BSP/STM32F769I-Discovery/stm32f769i_discovery.c ****   * @param  Trials: Number of trials
 520:../../Drivers/BSP/STM32F769I-Discovery/stm32f769i_discovery.c ****   * @retval HAL status
 521:../../Drivers/BSP/STM32F769I-Discovery/stm32f769i_discovery.c ****   */
 522:../../Drivers/BSP/STM32F769I-Discovery/stm32f769i_discovery.c **** static HAL_StatusTypeDef I2Cx_IsDeviceReady(I2C_HandleTypeDef *i2c_handler, uint16_t DevAddress, ui
 523:../../Drivers/BSP/STM32F769I-Discovery/stm32f769i_discovery.c **** { 
 1138              		.loc 1 523 0
 1139              		.cfi_startproc
 1140              		@ args = 0, pretend = 0, frame = 16
 1141              		@ frame_needed = 1, uses_anonymous_args = 0
 1142 0000 80B5     		push	{r7, lr}
 1143              	.LCFI64:
 1144              		.cfi_def_cfa_offset 8
 1145              		.cfi_offset 7, -8
 1146              		.cfi_offset 14, -4
 1147 0002 84B0     		sub	sp, sp, #16
 1148              	.LCFI65:
 1149              		.cfi_def_cfa_offset 24
 1150 0004 00AF     		add	r7, sp, #0
 1151              	.LCFI66:
 1152              		.cfi_def_cfa_register 7
 1153 0006 F860     		str	r0, [r7, #12]
 1154 0008 0B46     		mov	r3, r1
 1155 000a 7A60     		str	r2, [r7, #4]
 1156 000c 7B81     		strh	r3, [r7, #10]	@ movhi
 524:../../Drivers/BSP/STM32F769I-Discovery/stm32f769i_discovery.c ****   return (HAL_I2C_IsDeviceReady(i2c_handler, DevAddress, Trials, 1000));
 1157              		.loc 1 524 0
 1158 000e 7B89     		ldrh	r3, [r7, #10]
 1159 0010 F868     		ldr	r0, [r7, #12]
 1160 0012 1946     		mov	r1, r3
 1161 0014 7A68     		ldr	r2, [r7, #4]
 1162 0016 4FF47A73 		mov	r3, #1000
ARM GAS  /tmp/ccDIYG4f.s 			page 30


 1163 001a FFF7FEFF 		bl	HAL_I2C_IsDeviceReady
 1164 001e 0346     		mov	r3, r0
 525:../../Drivers/BSP/STM32F769I-Discovery/stm32f769i_discovery.c **** }
 1165              		.loc 1 525 0
 1166 0020 1846     		mov	r0, r3
 1167 0022 1037     		adds	r7, r7, #16
 1168              	.LCFI67:
 1169              		.cfi_def_cfa_offset 8
 1170 0024 BD46     		mov	sp, r7
 1171              	.LCFI68:
 1172              		.cfi_def_cfa_register 13
 1173              		@ sp needed
 1174 0026 80BD     		pop	{r7, pc}
 1175              		.cfi_endproc
 1176              	.LFE148:
 1178              		.section	.text.I2Cx_Error,"ax",%progbits
 1179              		.align	2
 1180              		.thumb
 1181              		.thumb_func
 1183              	I2Cx_Error:
 1184              	.LFB149:
 526:../../Drivers/BSP/STM32F769I-Discovery/stm32f769i_discovery.c **** 
 527:../../Drivers/BSP/STM32F769I-Discovery/stm32f769i_discovery.c **** /**
 528:../../Drivers/BSP/STM32F769I-Discovery/stm32f769i_discovery.c ****   * @brief  Manages error callback by re-initializing I2C.
 529:../../Drivers/BSP/STM32F769I-Discovery/stm32f769i_discovery.c ****   * @param  i2c_handler : I2C handler
 530:../../Drivers/BSP/STM32F769I-Discovery/stm32f769i_discovery.c ****   * @param  Addr: I2C Address
 531:../../Drivers/BSP/STM32F769I-Discovery/stm32f769i_discovery.c ****   * @retval None
 532:../../Drivers/BSP/STM32F769I-Discovery/stm32f769i_discovery.c ****   */
 533:../../Drivers/BSP/STM32F769I-Discovery/stm32f769i_discovery.c **** static void I2Cx_Error(I2C_HandleTypeDef *i2c_handler, uint8_t Addr)
 534:../../Drivers/BSP/STM32F769I-Discovery/stm32f769i_discovery.c **** {
 1185              		.loc 1 534 0
 1186              		.cfi_startproc
 1187              		@ args = 0, pretend = 0, frame = 8
 1188              		@ frame_needed = 1, uses_anonymous_args = 0
 1189 0000 80B5     		push	{r7, lr}
 1190              	.LCFI69:
 1191              		.cfi_def_cfa_offset 8
 1192              		.cfi_offset 7, -8
 1193              		.cfi_offset 14, -4
 1194 0002 82B0     		sub	sp, sp, #8
 1195              	.LCFI70:
 1196              		.cfi_def_cfa_offset 16
 1197 0004 00AF     		add	r7, sp, #0
 1198              	.LCFI71:
 1199              		.cfi_def_cfa_register 7
 1200 0006 7860     		str	r0, [r7, #4]
 1201 0008 0B46     		mov	r3, r1
 1202 000a FB70     		strb	r3, [r7, #3]
 535:../../Drivers/BSP/STM32F769I-Discovery/stm32f769i_discovery.c ****   /* De-initialize the I2C communication bus */
 536:../../Drivers/BSP/STM32F769I-Discovery/stm32f769i_discovery.c ****   HAL_I2C_DeInit(i2c_handler);
 1203              		.loc 1 536 0
 1204 000c 7868     		ldr	r0, [r7, #4]
 1205 000e FFF7FEFF 		bl	HAL_I2C_DeInit
 537:../../Drivers/BSP/STM32F769I-Discovery/stm32f769i_discovery.c ****   
 538:../../Drivers/BSP/STM32F769I-Discovery/stm32f769i_discovery.c ****   /* Re-Initialize the I2C communication bus */
 539:../../Drivers/BSP/STM32F769I-Discovery/stm32f769i_discovery.c ****   I2Cx_Init(i2c_handler);
 1206              		.loc 1 539 0
ARM GAS  /tmp/ccDIYG4f.s 			page 31


 1207 0012 7868     		ldr	r0, [r7, #4]
 1208 0014 FFF7FEFF 		bl	I2Cx_Init
 540:../../Drivers/BSP/STM32F769I-Discovery/stm32f769i_discovery.c **** }
 1209              		.loc 1 540 0
 1210 0018 0837     		adds	r7, r7, #8
 1211              	.LCFI72:
 1212              		.cfi_def_cfa_offset 8
 1213 001a BD46     		mov	sp, r7
 1214              	.LCFI73:
 1215              		.cfi_def_cfa_register 13
 1216              		@ sp needed
 1217 001c 80BD     		pop	{r7, pc}
 1218              		.cfi_endproc
 1219              	.LFE149:
 1221 001e 00BF     		.section	.text.AUDIO_IO_Init,"ax",%progbits
 1222              		.align	2
 1223              		.global	AUDIO_IO_Init
 1224              		.thumb
 1225              		.thumb_func
 1227              	AUDIO_IO_Init:
 1228              	.LFB150:
 541:../../Drivers/BSP/STM32F769I-Discovery/stm32f769i_discovery.c **** 
 542:../../Drivers/BSP/STM32F769I-Discovery/stm32f769i_discovery.c **** /**
 543:../../Drivers/BSP/STM32F769I-Discovery/stm32f769i_discovery.c ****   * @}
 544:../../Drivers/BSP/STM32F769I-Discovery/stm32f769i_discovery.c ****   */
 545:../../Drivers/BSP/STM32F769I-Discovery/stm32f769i_discovery.c **** 
 546:../../Drivers/BSP/STM32F769I-Discovery/stm32f769i_discovery.c **** /*******************************************************************************
 547:../../Drivers/BSP/STM32F769I-Discovery/stm32f769i_discovery.c ****                             LINK OPERATIONS
 548:../../Drivers/BSP/STM32F769I-Discovery/stm32f769i_discovery.c **** *******************************************************************************/
 549:../../Drivers/BSP/STM32F769I-Discovery/stm32f769i_discovery.c **** 
 550:../../Drivers/BSP/STM32F769I-Discovery/stm32f769i_discovery.c **** /********************************* LINK AUDIO *********************************/
 551:../../Drivers/BSP/STM32F769I-Discovery/stm32f769i_discovery.c **** 
 552:../../Drivers/BSP/STM32F769I-Discovery/stm32f769i_discovery.c **** /**
 553:../../Drivers/BSP/STM32F769I-Discovery/stm32f769i_discovery.c ****   * @brief  Initializes Audio low level.
 554:../../Drivers/BSP/STM32F769I-Discovery/stm32f769i_discovery.c ****   */
 555:../../Drivers/BSP/STM32F769I-Discovery/stm32f769i_discovery.c **** void AUDIO_IO_Init(void)
 556:../../Drivers/BSP/STM32F769I-Discovery/stm32f769i_discovery.c **** {
 1229              		.loc 1 556 0
 1230              		.cfi_startproc
 1231              		@ args = 0, pretend = 0, frame = 0
 1232              		@ frame_needed = 1, uses_anonymous_args = 0
 1233 0000 80B5     		push	{r7, lr}
 1234              	.LCFI74:
 1235              		.cfi_def_cfa_offset 8
 1236              		.cfi_offset 7, -8
 1237              		.cfi_offset 14, -4
 1238 0002 00AF     		add	r7, sp, #0
 1239              	.LCFI75:
 1240              		.cfi_def_cfa_register 7
 557:../../Drivers/BSP/STM32F769I-Discovery/stm32f769i_discovery.c ****   I2Cx_Init(&hI2cAudioHandler);
 1241              		.loc 1 557 0
 1242 0004 0148     		ldr	r0, .L53
 1243 0006 FFF7FEFF 		bl	I2Cx_Init
 558:../../Drivers/BSP/STM32F769I-Discovery/stm32f769i_discovery.c **** }
 1244              		.loc 1 558 0
 1245 000a 80BD     		pop	{r7, pc}
 1246              	.L54:
ARM GAS  /tmp/ccDIYG4f.s 			page 32


 1247              		.align	2
 1248              	.L53:
 1249 000c 00000000 		.word	hI2cAudioHandler
 1250              		.cfi_endproc
 1251              	.LFE150:
 1253              		.section	.text.AUDIO_IO_DeInit,"ax",%progbits
 1254              		.align	2
 1255              		.global	AUDIO_IO_DeInit
 1256              		.thumb
 1257              		.thumb_func
 1259              	AUDIO_IO_DeInit:
 1260              	.LFB151:
 559:../../Drivers/BSP/STM32F769I-Discovery/stm32f769i_discovery.c **** 
 560:../../Drivers/BSP/STM32F769I-Discovery/stm32f769i_discovery.c **** /**
 561:../../Drivers/BSP/STM32F769I-Discovery/stm32f769i_discovery.c ****   * @brief  DeInitializes Audio low level.
 562:../../Drivers/BSP/STM32F769I-Discovery/stm32f769i_discovery.c ****   */
 563:../../Drivers/BSP/STM32F769I-Discovery/stm32f769i_discovery.c **** void AUDIO_IO_DeInit(void)
 564:../../Drivers/BSP/STM32F769I-Discovery/stm32f769i_discovery.c **** {
 1261              		.loc 1 564 0
 1262              		.cfi_startproc
 1263              		@ args = 0, pretend = 0, frame = 0
 1264              		@ frame_needed = 1, uses_anonymous_args = 0
 1265              		@ link register save eliminated.
 1266 0000 80B4     		push	{r7}
 1267              	.LCFI76:
 1268              		.cfi_def_cfa_offset 4
 1269              		.cfi_offset 7, -4
 1270 0002 00AF     		add	r7, sp, #0
 1271              	.LCFI77:
 1272              		.cfi_def_cfa_register 7
 565:../../Drivers/BSP/STM32F769I-Discovery/stm32f769i_discovery.c **** 
 566:../../Drivers/BSP/STM32F769I-Discovery/stm32f769i_discovery.c **** }
 1273              		.loc 1 566 0
 1274 0004 BD46     		mov	sp, r7
 1275              	.LCFI78:
 1276              		.cfi_def_cfa_register 13
 1277              		@ sp needed
 1278 0006 5DF8047B 		ldr	r7, [sp], #4
 1279              	.LCFI79:
 1280              		.cfi_restore 7
 1281              		.cfi_def_cfa_offset 0
 1282 000a 7047     		bx	lr
 1283              		.cfi_endproc
 1284              	.LFE151:
 1286              		.section	.text.AUDIO_IO_Write,"ax",%progbits
 1287              		.align	2
 1288              		.global	AUDIO_IO_Write
 1289              		.thumb
 1290              		.thumb_func
 1292              	AUDIO_IO_Write:
 1293              	.LFB152:
 567:../../Drivers/BSP/STM32F769I-Discovery/stm32f769i_discovery.c **** 
 568:../../Drivers/BSP/STM32F769I-Discovery/stm32f769i_discovery.c **** /**
 569:../../Drivers/BSP/STM32F769I-Discovery/stm32f769i_discovery.c ****   * @brief  Writes a single data.
 570:../../Drivers/BSP/STM32F769I-Discovery/stm32f769i_discovery.c ****   * @param  Addr: I2C address
 571:../../Drivers/BSP/STM32F769I-Discovery/stm32f769i_discovery.c ****   * @param  Reg: Reg address 
 572:../../Drivers/BSP/STM32F769I-Discovery/stm32f769i_discovery.c ****   * @param  Value: Data to be written
ARM GAS  /tmp/ccDIYG4f.s 			page 33


 573:../../Drivers/BSP/STM32F769I-Discovery/stm32f769i_discovery.c ****   * @retval None
 574:../../Drivers/BSP/STM32F769I-Discovery/stm32f769i_discovery.c ****   */
 575:../../Drivers/BSP/STM32F769I-Discovery/stm32f769i_discovery.c **** void AUDIO_IO_Write(uint8_t Addr, uint16_t Reg, uint16_t Value)
 576:../../Drivers/BSP/STM32F769I-Discovery/stm32f769i_discovery.c **** {
 1294              		.loc 1 576 0
 1295              		.cfi_startproc
 1296              		@ args = 0, pretend = 0, frame = 16
 1297              		@ frame_needed = 1, uses_anonymous_args = 0
 1298 0000 80B5     		push	{r7, lr}
 1299              	.LCFI80:
 1300              		.cfi_def_cfa_offset 8
 1301              		.cfi_offset 7, -8
 1302              		.cfi_offset 14, -4
 1303 0002 86B0     		sub	sp, sp, #24
 1304              	.LCFI81:
 1305              		.cfi_def_cfa_offset 32
 1306 0004 02AF     		add	r7, sp, #8
 1307              	.LCFI82:
 1308              		.cfi_def_cfa 7, 24
 1309 0006 0346     		mov	r3, r0
 1310 0008 FB71     		strb	r3, [r7, #7]
 1311 000a 0B46     		mov	r3, r1	@ movhi
 1312 000c BB80     		strh	r3, [r7, #4]	@ movhi
 1313 000e 1346     		mov	r3, r2	@ movhi
 1314 0010 7B80     		strh	r3, [r7, #2]	@ movhi
 577:../../Drivers/BSP/STM32F769I-Discovery/stm32f769i_discovery.c ****   uint16_t tmp = Value;
 1315              		.loc 1 577 0
 1316 0012 7B88     		ldrh	r3, [r7, #2]	@ movhi
 1317 0014 FB81     		strh	r3, [r7, #14]	@ movhi
 578:../../Drivers/BSP/STM32F769I-Discovery/stm32f769i_discovery.c ****   
 579:../../Drivers/BSP/STM32F769I-Discovery/stm32f769i_discovery.c ****   Value = ((uint16_t)(tmp >> 8) & 0x00FF);
 1318              		.loc 1 579 0
 1319 0016 FB89     		ldrh	r3, [r7, #14]
 1320 0018 1B0A     		lsrs	r3, r3, #8
 1321 001a 9BB2     		uxth	r3, r3
 1322 001c 7B80     		strh	r3, [r7, #2]	@ movhi
 580:../../Drivers/BSP/STM32F769I-Discovery/stm32f769i_discovery.c ****   
 581:../../Drivers/BSP/STM32F769I-Discovery/stm32f769i_discovery.c ****   Value |= ((uint16_t)(tmp << 8)& 0xFF00);
 1323              		.loc 1 581 0
 1324 001e FB89     		ldrh	r3, [r7, #14]	@ movhi
 1325 0020 1B02     		lsls	r3, r3, #8
 1326 0022 9BB2     		uxth	r3, r3
 1327 0024 9AB2     		uxth	r2, r3
 1328 0026 7B88     		ldrh	r3, [r7, #2]
 1329 0028 9BB2     		uxth	r3, r3
 1330 002a 1343     		orrs	r3, r3, r2
 1331 002c 9BB2     		uxth	r3, r3
 1332 002e 9BB2     		uxth	r3, r3
 1333 0030 7B80     		strh	r3, [r7, #2]	@ movhi
 582:../../Drivers/BSP/STM32F769I-Discovery/stm32f769i_discovery.c ****   
 583:../../Drivers/BSP/STM32F769I-Discovery/stm32f769i_discovery.c ****   I2Cx_WriteMultiple(&hI2cAudioHandler, Addr, Reg, I2C_MEMADD_SIZE_16BIT,(uint8_t*)&Value, 2);
 1334              		.loc 1 583 0
 1335 0032 F979     		ldrb	r1, [r7, #7]	@ zero_extendqisi2
 1336 0034 BA88     		ldrh	r2, [r7, #4]
 1337 0036 BB1C     		adds	r3, r7, #2
 1338 0038 0093     		str	r3, [sp]
 1339 003a 0223     		movs	r3, #2
ARM GAS  /tmp/ccDIYG4f.s 			page 34


 1340 003c 0193     		str	r3, [sp, #4]
 1341 003e 0348     		ldr	r0, .L57
 1342 0040 0223     		movs	r3, #2
 1343 0042 FFF7FEFF 		bl	I2Cx_WriteMultiple
 584:../../Drivers/BSP/STM32F769I-Discovery/stm32f769i_discovery.c **** }
 1344              		.loc 1 584 0
 1345 0046 1037     		adds	r7, r7, #16
 1346              	.LCFI83:
 1347              		.cfi_def_cfa_offset 8
 1348 0048 BD46     		mov	sp, r7
 1349              	.LCFI84:
 1350              		.cfi_def_cfa_register 13
 1351              		@ sp needed
 1352 004a 80BD     		pop	{r7, pc}
 1353              	.L58:
 1354              		.align	2
 1355              	.L57:
 1356 004c 00000000 		.word	hI2cAudioHandler
 1357              		.cfi_endproc
 1358              	.LFE152:
 1360              		.section	.text.AUDIO_IO_Read,"ax",%progbits
 1361              		.align	2
 1362              		.global	AUDIO_IO_Read
 1363              		.thumb
 1364              		.thumb_func
 1366              	AUDIO_IO_Read:
 1367              	.LFB153:
 585:../../Drivers/BSP/STM32F769I-Discovery/stm32f769i_discovery.c **** 
 586:../../Drivers/BSP/STM32F769I-Discovery/stm32f769i_discovery.c **** /**
 587:../../Drivers/BSP/STM32F769I-Discovery/stm32f769i_discovery.c ****   * @brief  Reads a single data.
 588:../../Drivers/BSP/STM32F769I-Discovery/stm32f769i_discovery.c ****   * @param  Addr: I2C address
 589:../../Drivers/BSP/STM32F769I-Discovery/stm32f769i_discovery.c ****   * @param  Reg: Reg address 
 590:../../Drivers/BSP/STM32F769I-Discovery/stm32f769i_discovery.c ****   * @retval Data to be read
 591:../../Drivers/BSP/STM32F769I-Discovery/stm32f769i_discovery.c ****   */
 592:../../Drivers/BSP/STM32F769I-Discovery/stm32f769i_discovery.c **** uint16_t AUDIO_IO_Read(uint8_t Addr, uint16_t Reg)
 593:../../Drivers/BSP/STM32F769I-Discovery/stm32f769i_discovery.c **** {
 1368              		.loc 1 593 0
 1369              		.cfi_startproc
 1370              		@ args = 0, pretend = 0, frame = 16
 1371              		@ frame_needed = 1, uses_anonymous_args = 0
 1372 0000 80B5     		push	{r7, lr}
 1373              	.LCFI85:
 1374              		.cfi_def_cfa_offset 8
 1375              		.cfi_offset 7, -8
 1376              		.cfi_offset 14, -4
 1377 0002 86B0     		sub	sp, sp, #24
 1378              	.LCFI86:
 1379              		.cfi_def_cfa_offset 32
 1380 0004 02AF     		add	r7, sp, #8
 1381              	.LCFI87:
 1382              		.cfi_def_cfa 7, 24
 1383 0006 0346     		mov	r3, r0
 1384 0008 0A46     		mov	r2, r1
 1385 000a FB71     		strb	r3, [r7, #7]
 1386 000c 1346     		mov	r3, r2	@ movhi
 1387 000e BB80     		strh	r3, [r7, #4]	@ movhi
 594:../../Drivers/BSP/STM32F769I-Discovery/stm32f769i_discovery.c ****   uint16_t read_value = 0, tmp = 0;
ARM GAS  /tmp/ccDIYG4f.s 			page 35


 1388              		.loc 1 594 0
 1389 0010 0023     		movs	r3, #0
 1390 0012 BB81     		strh	r3, [r7, #12]	@ movhi
 1391 0014 0023     		movs	r3, #0
 1392 0016 FB81     		strh	r3, [r7, #14]	@ movhi
 595:../../Drivers/BSP/STM32F769I-Discovery/stm32f769i_discovery.c ****   
 596:../../Drivers/BSP/STM32F769I-Discovery/stm32f769i_discovery.c ****   I2Cx_ReadMultiple(&hI2cAudioHandler, Addr, Reg, I2C_MEMADD_SIZE_16BIT, (uint8_t*)&read_value, 2);
 1393              		.loc 1 596 0
 1394 0018 F979     		ldrb	r1, [r7, #7]	@ zero_extendqisi2
 1395 001a BA88     		ldrh	r2, [r7, #4]
 1396 001c 07F10C03 		add	r3, r7, #12
 1397 0020 0093     		str	r3, [sp]
 1398 0022 0223     		movs	r3, #2
 1399 0024 0193     		str	r3, [sp, #4]
 1400 0026 0B48     		ldr	r0, .L61
 1401 0028 0223     		movs	r3, #2
 1402 002a FFF7FEFF 		bl	I2Cx_ReadMultiple
 597:../../Drivers/BSP/STM32F769I-Discovery/stm32f769i_discovery.c ****   
 598:../../Drivers/BSP/STM32F769I-Discovery/stm32f769i_discovery.c ****   tmp = ((uint16_t)(read_value >> 8) & 0x00FF);
 1403              		.loc 1 598 0
 1404 002e BB89     		ldrh	r3, [r7, #12]
 1405 0030 1B0A     		lsrs	r3, r3, #8
 1406 0032 FB81     		strh	r3, [r7, #14]	@ movhi
 599:../../Drivers/BSP/STM32F769I-Discovery/stm32f769i_discovery.c ****   
 600:../../Drivers/BSP/STM32F769I-Discovery/stm32f769i_discovery.c ****   tmp |= ((uint16_t)(read_value << 8)& 0xFF00);
 1407              		.loc 1 600 0
 1408 0034 BB89     		ldrh	r3, [r7, #12]
 1409 0036 1B02     		lsls	r3, r3, #8
 1410 0038 9BB2     		uxth	r3, r3
 1411 003a 9AB2     		uxth	r2, r3
 1412 003c FB89     		ldrh	r3, [r7, #14]
 1413 003e 1343     		orrs	r3, r3, r2
 1414 0040 9BB2     		uxth	r3, r3
 1415 0042 FB81     		strh	r3, [r7, #14]	@ movhi
 601:../../Drivers/BSP/STM32F769I-Discovery/stm32f769i_discovery.c ****   
 602:../../Drivers/BSP/STM32F769I-Discovery/stm32f769i_discovery.c ****   read_value = tmp;
 1416              		.loc 1 602 0
 1417 0044 FB89     		ldrh	r3, [r7, #14]	@ movhi
 1418 0046 BB81     		strh	r3, [r7, #12]	@ movhi
 603:../../Drivers/BSP/STM32F769I-Discovery/stm32f769i_discovery.c ****   
 604:../../Drivers/BSP/STM32F769I-Discovery/stm32f769i_discovery.c ****   return read_value;
 1419              		.loc 1 604 0
 1420 0048 BB89     		ldrh	r3, [r7, #12]
 605:../../Drivers/BSP/STM32F769I-Discovery/stm32f769i_discovery.c **** }
 1421              		.loc 1 605 0
 1422 004a 1846     		mov	r0, r3
 1423 004c 1037     		adds	r7, r7, #16
 1424              	.LCFI88:
 1425              		.cfi_def_cfa_offset 8
 1426 004e BD46     		mov	sp, r7
 1427              	.LCFI89:
 1428              		.cfi_def_cfa_register 13
 1429              		@ sp needed
 1430 0050 80BD     		pop	{r7, pc}
 1431              	.L62:
 1432 0052 00BF     		.align	2
 1433              	.L61:
ARM GAS  /tmp/ccDIYG4f.s 			page 36


 1434 0054 00000000 		.word	hI2cAudioHandler
 1435              		.cfi_endproc
 1436              	.LFE153:
 1438              		.section	.text.AUDIO_IO_Delay,"ax",%progbits
 1439              		.align	2
 1440              		.global	AUDIO_IO_Delay
 1441              		.thumb
 1442              		.thumb_func
 1444              	AUDIO_IO_Delay:
 1445              	.LFB154:
 606:../../Drivers/BSP/STM32F769I-Discovery/stm32f769i_discovery.c **** 
 607:../../Drivers/BSP/STM32F769I-Discovery/stm32f769i_discovery.c **** /**
 608:../../Drivers/BSP/STM32F769I-Discovery/stm32f769i_discovery.c ****   * @brief  AUDIO Codec delay
 609:../../Drivers/BSP/STM32F769I-Discovery/stm32f769i_discovery.c ****   * @param  Delay: Delay in ms
 610:../../Drivers/BSP/STM32F769I-Discovery/stm32f769i_discovery.c ****   */
 611:../../Drivers/BSP/STM32F769I-Discovery/stm32f769i_discovery.c **** void AUDIO_IO_Delay(uint32_t Delay)
 612:../../Drivers/BSP/STM32F769I-Discovery/stm32f769i_discovery.c **** {
 1446              		.loc 1 612 0
 1447              		.cfi_startproc
 1448              		@ args = 0, pretend = 0, frame = 8
 1449              		@ frame_needed = 1, uses_anonymous_args = 0
 1450 0000 80B5     		push	{r7, lr}
 1451              	.LCFI90:
 1452              		.cfi_def_cfa_offset 8
 1453              		.cfi_offset 7, -8
 1454              		.cfi_offset 14, -4
 1455 0002 82B0     		sub	sp, sp, #8
 1456              	.LCFI91:
 1457              		.cfi_def_cfa_offset 16
 1458 0004 00AF     		add	r7, sp, #0
 1459              	.LCFI92:
 1460              		.cfi_def_cfa_register 7
 1461 0006 7860     		str	r0, [r7, #4]
 613:../../Drivers/BSP/STM32F769I-Discovery/stm32f769i_discovery.c ****   HAL_Delay(Delay);
 1462              		.loc 1 613 0
 1463 0008 7868     		ldr	r0, [r7, #4]
 1464 000a FFF7FEFF 		bl	HAL_Delay
 614:../../Drivers/BSP/STM32F769I-Discovery/stm32f769i_discovery.c **** }
 1465              		.loc 1 614 0
 1466 000e 0837     		adds	r7, r7, #8
 1467              	.LCFI93:
 1468              		.cfi_def_cfa_offset 8
 1469 0010 BD46     		mov	sp, r7
 1470              	.LCFI94:
 1471              		.cfi_def_cfa_register 13
 1472              		@ sp needed
 1473 0012 80BD     		pop	{r7, pc}
 1474              		.cfi_endproc
 1475              	.LFE154:
 1477              		.section	.text.EEPROM_IO_Init,"ax",%progbits
 1478              		.align	2
 1479              		.global	EEPROM_IO_Init
 1480              		.thumb
 1481              		.thumb_func
 1483              	EEPROM_IO_Init:
 1484              	.LFB155:
 615:../../Drivers/BSP/STM32F769I-Discovery/stm32f769i_discovery.c **** 
ARM GAS  /tmp/ccDIYG4f.s 			page 37


 616:../../Drivers/BSP/STM32F769I-Discovery/stm32f769i_discovery.c **** /******************************** LINK I2C EEPROM *****************************/
 617:../../Drivers/BSP/STM32F769I-Discovery/stm32f769i_discovery.c **** 
 618:../../Drivers/BSP/STM32F769I-Discovery/stm32f769i_discovery.c **** /**
 619:../../Drivers/BSP/STM32F769I-Discovery/stm32f769i_discovery.c ****   * @brief  Initializes peripherals used by the I2C EEPROM driver.
 620:../../Drivers/BSP/STM32F769I-Discovery/stm32f769i_discovery.c ****   */
 621:../../Drivers/BSP/STM32F769I-Discovery/stm32f769i_discovery.c **** void EEPROM_IO_Init(void)
 622:../../Drivers/BSP/STM32F769I-Discovery/stm32f769i_discovery.c **** {
 1485              		.loc 1 622 0
 1486              		.cfi_startproc
 1487              		@ args = 0, pretend = 0, frame = 0
 1488              		@ frame_needed = 1, uses_anonymous_args = 0
 1489 0000 80B5     		push	{r7, lr}
 1490              	.LCFI95:
 1491              		.cfi_def_cfa_offset 8
 1492              		.cfi_offset 7, -8
 1493              		.cfi_offset 14, -4
 1494 0002 00AF     		add	r7, sp, #0
 1495              	.LCFI96:
 1496              		.cfi_def_cfa_register 7
 623:../../Drivers/BSP/STM32F769I-Discovery/stm32f769i_discovery.c ****   I2Cx_Init(&hI2cExtHandler);
 1497              		.loc 1 623 0
 1498 0004 0148     		ldr	r0, .L65
 1499 0006 FFF7FEFF 		bl	I2Cx_Init
 624:../../Drivers/BSP/STM32F769I-Discovery/stm32f769i_discovery.c **** }
 1500              		.loc 1 624 0
 1501 000a 80BD     		pop	{r7, pc}
 1502              	.L66:
 1503              		.align	2
 1504              	.L65:
 1505 000c 00000000 		.word	hI2cExtHandler
 1506              		.cfi_endproc
 1507              	.LFE155:
 1509              		.section	.text.EEPROM_IO_WriteData,"ax",%progbits
 1510              		.align	2
 1511              		.global	EEPROM_IO_WriteData
 1512              		.thumb
 1513              		.thumb_func
 1515              	EEPROM_IO_WriteData:
 1516              	.LFB156:
 625:../../Drivers/BSP/STM32F769I-Discovery/stm32f769i_discovery.c **** 
 626:../../Drivers/BSP/STM32F769I-Discovery/stm32f769i_discovery.c **** /**
 627:../../Drivers/BSP/STM32F769I-Discovery/stm32f769i_discovery.c ****   * @brief  Write data to I2C EEPROM driver in using DMA channel.
 628:../../Drivers/BSP/STM32F769I-Discovery/stm32f769i_discovery.c ****   * @param  DevAddress: Target device address
 629:../../Drivers/BSP/STM32F769I-Discovery/stm32f769i_discovery.c ****   * @param  MemAddress: Internal memory address
 630:../../Drivers/BSP/STM32F769I-Discovery/stm32f769i_discovery.c ****   * @param  pBuffer: Pointer to data buffer
 631:../../Drivers/BSP/STM32F769I-Discovery/stm32f769i_discovery.c ****   * @param  BufferSize: Amount of data to be sent
 632:../../Drivers/BSP/STM32F769I-Discovery/stm32f769i_discovery.c ****   * @retval HAL status
 633:../../Drivers/BSP/STM32F769I-Discovery/stm32f769i_discovery.c ****   */
 634:../../Drivers/BSP/STM32F769I-Discovery/stm32f769i_discovery.c **** HAL_StatusTypeDef EEPROM_IO_WriteData(uint16_t DevAddress, uint16_t MemAddress, uint8_t* pBuffer, u
 635:../../Drivers/BSP/STM32F769I-Discovery/stm32f769i_discovery.c **** {
 1517              		.loc 1 635 0
 1518              		.cfi_startproc
 1519              		@ args = 0, pretend = 0, frame = 16
 1520              		@ frame_needed = 1, uses_anonymous_args = 0
 1521 0000 90B5     		push	{r4, r7, lr}
 1522              	.LCFI97:
 1523              		.cfi_def_cfa_offset 12
ARM GAS  /tmp/ccDIYG4f.s 			page 38


 1524              		.cfi_offset 4, -12
 1525              		.cfi_offset 7, -8
 1526              		.cfi_offset 14, -4
 1527 0002 87B0     		sub	sp, sp, #28
 1528              	.LCFI98:
 1529              		.cfi_def_cfa_offset 40
 1530 0004 02AF     		add	r7, sp, #8
 1531              	.LCFI99:
 1532              		.cfi_def_cfa 7, 32
 1533 0006 BA60     		str	r2, [r7, #8]
 1534 0008 7B60     		str	r3, [r7, #4]
 1535 000a 0346     		mov	r3, r0	@ movhi
 1536 000c FB81     		strh	r3, [r7, #14]	@ movhi
 1537 000e 0B46     		mov	r3, r1	@ movhi
 1538 0010 BB81     		strh	r3, [r7, #12]	@ movhi
 636:../../Drivers/BSP/STM32F769I-Discovery/stm32f769i_discovery.c ****   return (I2Cx_WriteMultiple(&hI2cExtHandler, DevAddress, MemAddress, I2C_MEMADD_SIZE_16BIT, pBuffe
 1539              		.loc 1 636 0
 1540 0012 FB89     		ldrh	r3, [r7, #14]	@ movhi
 1541 0014 D9B2     		uxtb	r1, r3
 1542 0016 7B68     		ldr	r3, [r7, #4]
 1543 0018 9BB2     		uxth	r3, r3
 1544 001a BC89     		ldrh	r4, [r7, #12]
 1545 001c BA68     		ldr	r2, [r7, #8]
 1546 001e 0092     		str	r2, [sp]
 1547 0020 0193     		str	r3, [sp, #4]
 1548 0022 0548     		ldr	r0, .L69
 1549 0024 2246     		mov	r2, r4
 1550 0026 0223     		movs	r3, #2
 1551 0028 FFF7FEFF 		bl	I2Cx_WriteMultiple
 1552 002c 0346     		mov	r3, r0
 637:../../Drivers/BSP/STM32F769I-Discovery/stm32f769i_discovery.c **** }
 1553              		.loc 1 637 0
 1554 002e 1846     		mov	r0, r3
 1555 0030 1437     		adds	r7, r7, #20
 1556              	.LCFI100:
 1557              		.cfi_def_cfa_offset 12
 1558 0032 BD46     		mov	sp, r7
 1559              	.LCFI101:
 1560              		.cfi_def_cfa_register 13
 1561              		@ sp needed
 1562 0034 90BD     		pop	{r4, r7, pc}
 1563              	.L70:
 1564 0036 00BF     		.align	2
 1565              	.L69:
 1566 0038 00000000 		.word	hI2cExtHandler
 1567              		.cfi_endproc
 1568              	.LFE156:
 1570              		.section	.text.EEPROM_IO_ReadData,"ax",%progbits
 1571              		.align	2
 1572              		.global	EEPROM_IO_ReadData
 1573              		.thumb
 1574              		.thumb_func
 1576              	EEPROM_IO_ReadData:
 1577              	.LFB157:
 638:../../Drivers/BSP/STM32F769I-Discovery/stm32f769i_discovery.c **** 
 639:../../Drivers/BSP/STM32F769I-Discovery/stm32f769i_discovery.c **** /**
 640:../../Drivers/BSP/STM32F769I-Discovery/stm32f769i_discovery.c ****   * @brief  Read data from I2C EEPROM driver in using DMA channel.
ARM GAS  /tmp/ccDIYG4f.s 			page 39


 641:../../Drivers/BSP/STM32F769I-Discovery/stm32f769i_discovery.c ****   * @param  DevAddress: Target device address
 642:../../Drivers/BSP/STM32F769I-Discovery/stm32f769i_discovery.c ****   * @param  MemAddress: Internal memory address
 643:../../Drivers/BSP/STM32F769I-Discovery/stm32f769i_discovery.c ****   * @param  pBuffer: Pointer to data buffer
 644:../../Drivers/BSP/STM32F769I-Discovery/stm32f769i_discovery.c ****   * @param  BufferSize: Amount of data to be read
 645:../../Drivers/BSP/STM32F769I-Discovery/stm32f769i_discovery.c ****   * @retval HAL status
 646:../../Drivers/BSP/STM32F769I-Discovery/stm32f769i_discovery.c ****   */
 647:../../Drivers/BSP/STM32F769I-Discovery/stm32f769i_discovery.c **** HAL_StatusTypeDef EEPROM_IO_ReadData(uint16_t DevAddress, uint16_t MemAddress, uint8_t* pBuffer, ui
 648:../../Drivers/BSP/STM32F769I-Discovery/stm32f769i_discovery.c **** {
 1578              		.loc 1 648 0
 1579              		.cfi_startproc
 1580              		@ args = 0, pretend = 0, frame = 16
 1581              		@ frame_needed = 1, uses_anonymous_args = 0
 1582 0000 90B5     		push	{r4, r7, lr}
 1583              	.LCFI102:
 1584              		.cfi_def_cfa_offset 12
 1585              		.cfi_offset 4, -12
 1586              		.cfi_offset 7, -8
 1587              		.cfi_offset 14, -4
 1588 0002 87B0     		sub	sp, sp, #28
 1589              	.LCFI103:
 1590              		.cfi_def_cfa_offset 40
 1591 0004 02AF     		add	r7, sp, #8
 1592              	.LCFI104:
 1593              		.cfi_def_cfa 7, 32
 1594 0006 BA60     		str	r2, [r7, #8]
 1595 0008 7B60     		str	r3, [r7, #4]
 1596 000a 0346     		mov	r3, r0	@ movhi
 1597 000c FB81     		strh	r3, [r7, #14]	@ movhi
 1598 000e 0B46     		mov	r3, r1	@ movhi
 1599 0010 BB81     		strh	r3, [r7, #12]	@ movhi
 649:../../Drivers/BSP/STM32F769I-Discovery/stm32f769i_discovery.c ****   return (I2Cx_ReadMultiple(&hI2cExtHandler, DevAddress, MemAddress, I2C_MEMADD_SIZE_16BIT, pBuffer
 1600              		.loc 1 649 0
 1601 0012 FB89     		ldrh	r3, [r7, #14]	@ movhi
 1602 0014 D9B2     		uxtb	r1, r3
 1603 0016 7B68     		ldr	r3, [r7, #4]
 1604 0018 9BB2     		uxth	r3, r3
 1605 001a BC89     		ldrh	r4, [r7, #12]
 1606 001c BA68     		ldr	r2, [r7, #8]
 1607 001e 0092     		str	r2, [sp]
 1608 0020 0193     		str	r3, [sp, #4]
 1609 0022 0548     		ldr	r0, .L73
 1610 0024 2246     		mov	r2, r4
 1611 0026 0223     		movs	r3, #2
 1612 0028 FFF7FEFF 		bl	I2Cx_ReadMultiple
 1613 002c 0346     		mov	r3, r0
 650:../../Drivers/BSP/STM32F769I-Discovery/stm32f769i_discovery.c **** }
 1614              		.loc 1 650 0
 1615 002e 1846     		mov	r0, r3
 1616 0030 1437     		adds	r7, r7, #20
 1617              	.LCFI105:
 1618              		.cfi_def_cfa_offset 12
 1619 0032 BD46     		mov	sp, r7
 1620              	.LCFI106:
 1621              		.cfi_def_cfa_register 13
 1622              		@ sp needed
 1623 0034 90BD     		pop	{r4, r7, pc}
 1624              	.L74:
ARM GAS  /tmp/ccDIYG4f.s 			page 40


 1625 0036 00BF     		.align	2
 1626              	.L73:
 1627 0038 00000000 		.word	hI2cExtHandler
 1628              		.cfi_endproc
 1629              	.LFE157:
 1631              		.section	.text.EEPROM_IO_IsDeviceReady,"ax",%progbits
 1632              		.align	2
 1633              		.global	EEPROM_IO_IsDeviceReady
 1634              		.thumb
 1635              		.thumb_func
 1637              	EEPROM_IO_IsDeviceReady:
 1638              	.LFB158:
 651:../../Drivers/BSP/STM32F769I-Discovery/stm32f769i_discovery.c **** 
 652:../../Drivers/BSP/STM32F769I-Discovery/stm32f769i_discovery.c **** /**
 653:../../Drivers/BSP/STM32F769I-Discovery/stm32f769i_discovery.c ****   * @brief  Checks if target device is ready for communication. 
 654:../../Drivers/BSP/STM32F769I-Discovery/stm32f769i_discovery.c ****   * @note   This function is used with Memory devices
 655:../../Drivers/BSP/STM32F769I-Discovery/stm32f769i_discovery.c ****   * @param  DevAddress: Target device address
 656:../../Drivers/BSP/STM32F769I-Discovery/stm32f769i_discovery.c ****   * @param  Trials: Number of trials
 657:../../Drivers/BSP/STM32F769I-Discovery/stm32f769i_discovery.c ****   * @retval HAL status
 658:../../Drivers/BSP/STM32F769I-Discovery/stm32f769i_discovery.c ****   */
 659:../../Drivers/BSP/STM32F769I-Discovery/stm32f769i_discovery.c **** HAL_StatusTypeDef EEPROM_IO_IsDeviceReady(uint16_t DevAddress, uint32_t Trials)
 660:../../Drivers/BSP/STM32F769I-Discovery/stm32f769i_discovery.c **** { 
 1639              		.loc 1 660 0
 1640              		.cfi_startproc
 1641              		@ args = 0, pretend = 0, frame = 8
 1642              		@ frame_needed = 1, uses_anonymous_args = 0
 1643 0000 80B5     		push	{r7, lr}
 1644              	.LCFI107:
 1645              		.cfi_def_cfa_offset 8
 1646              		.cfi_offset 7, -8
 1647              		.cfi_offset 14, -4
 1648 0002 82B0     		sub	sp, sp, #8
 1649              	.LCFI108:
 1650              		.cfi_def_cfa_offset 16
 1651 0004 00AF     		add	r7, sp, #0
 1652              	.LCFI109:
 1653              		.cfi_def_cfa_register 7
 1654 0006 0346     		mov	r3, r0
 1655 0008 3960     		str	r1, [r7]
 1656 000a FB80     		strh	r3, [r7, #6]	@ movhi
 661:../../Drivers/BSP/STM32F769I-Discovery/stm32f769i_discovery.c ****   return (I2Cx_IsDeviceReady(&hI2cExtHandler, DevAddress, Trials));
 1657              		.loc 1 661 0
 1658 000c FB88     		ldrh	r3, [r7, #6]
 1659 000e 0548     		ldr	r0, .L77
 1660 0010 1946     		mov	r1, r3
 1661 0012 3A68     		ldr	r2, [r7]
 1662 0014 FFF7FEFF 		bl	I2Cx_IsDeviceReady
 1663 0018 0346     		mov	r3, r0
 662:../../Drivers/BSP/STM32F769I-Discovery/stm32f769i_discovery.c **** }
 1664              		.loc 1 662 0
 1665 001a 1846     		mov	r0, r3
 1666 001c 0837     		adds	r7, r7, #8
 1667              	.LCFI110:
 1668              		.cfi_def_cfa_offset 8
 1669 001e BD46     		mov	sp, r7
 1670              	.LCFI111:
 1671              		.cfi_def_cfa_register 13
ARM GAS  /tmp/ccDIYG4f.s 			page 41


 1672              		@ sp needed
 1673 0020 80BD     		pop	{r7, pc}
 1674              	.L78:
 1675 0022 00BF     		.align	2
 1676              	.L77:
 1677 0024 00000000 		.word	hI2cExtHandler
 1678              		.cfi_endproc
 1679              	.LFE158:
 1681              		.section	.text.TS_IO_Init,"ax",%progbits
 1682              		.align	2
 1683              		.global	TS_IO_Init
 1684              		.thumb
 1685              		.thumb_func
 1687              	TS_IO_Init:
 1688              	.LFB159:
 663:../../Drivers/BSP/STM32F769I-Discovery/stm32f769i_discovery.c **** 
 664:../../Drivers/BSP/STM32F769I-Discovery/stm32f769i_discovery.c **** /******************************** LINK TS (TouchScreen) ***********************/
 665:../../Drivers/BSP/STM32F769I-Discovery/stm32f769i_discovery.c **** 
 666:../../Drivers/BSP/STM32F769I-Discovery/stm32f769i_discovery.c **** /**
 667:../../Drivers/BSP/STM32F769I-Discovery/stm32f769i_discovery.c ****   * @brief  Initializes Touchscreen low level.
 668:../../Drivers/BSP/STM32F769I-Discovery/stm32f769i_discovery.c ****   * @retval None
 669:../../Drivers/BSP/STM32F769I-Discovery/stm32f769i_discovery.c ****   */
 670:../../Drivers/BSP/STM32F769I-Discovery/stm32f769i_discovery.c **** void TS_IO_Init(void)
 671:../../Drivers/BSP/STM32F769I-Discovery/stm32f769i_discovery.c **** {
 1689              		.loc 1 671 0
 1690              		.cfi_startproc
 1691              		@ args = 0, pretend = 0, frame = 0
 1692              		@ frame_needed = 1, uses_anonymous_args = 0
 1693 0000 80B5     		push	{r7, lr}
 1694              	.LCFI112:
 1695              		.cfi_def_cfa_offset 8
 1696              		.cfi_offset 7, -8
 1697              		.cfi_offset 14, -4
 1698 0002 00AF     		add	r7, sp, #0
 1699              	.LCFI113:
 1700              		.cfi_def_cfa_register 7
 672:../../Drivers/BSP/STM32F769I-Discovery/stm32f769i_discovery.c ****   I2Cx_Init(&hI2cAudioHandler);
 1701              		.loc 1 672 0
 1702 0004 0148     		ldr	r0, .L80
 1703 0006 FFF7FEFF 		bl	I2Cx_Init
 673:../../Drivers/BSP/STM32F769I-Discovery/stm32f769i_discovery.c **** }
 1704              		.loc 1 673 0
 1705 000a 80BD     		pop	{r7, pc}
 1706              	.L81:
 1707              		.align	2
 1708              	.L80:
 1709 000c 00000000 		.word	hI2cAudioHandler
 1710              		.cfi_endproc
 1711              	.LFE159:
 1713              		.section	.text.TS_IO_Write,"ax",%progbits
 1714              		.align	2
 1715              		.global	TS_IO_Write
 1716              		.thumb
 1717              		.thumb_func
 1719              	TS_IO_Write:
 1720              	.LFB160:
 674:../../Drivers/BSP/STM32F769I-Discovery/stm32f769i_discovery.c **** 
ARM GAS  /tmp/ccDIYG4f.s 			page 42


 675:../../Drivers/BSP/STM32F769I-Discovery/stm32f769i_discovery.c **** /**
 676:../../Drivers/BSP/STM32F769I-Discovery/stm32f769i_discovery.c ****   * @brief  Writes a single data.
 677:../../Drivers/BSP/STM32F769I-Discovery/stm32f769i_discovery.c ****   * @param  Addr: I2C address
 678:../../Drivers/BSP/STM32F769I-Discovery/stm32f769i_discovery.c ****   * @param  Reg: Reg address
 679:../../Drivers/BSP/STM32F769I-Discovery/stm32f769i_discovery.c ****   * @param  Value: Data to be written
 680:../../Drivers/BSP/STM32F769I-Discovery/stm32f769i_discovery.c ****   * @retval None
 681:../../Drivers/BSP/STM32F769I-Discovery/stm32f769i_discovery.c ****   */
 682:../../Drivers/BSP/STM32F769I-Discovery/stm32f769i_discovery.c **** void TS_IO_Write(uint8_t Addr, uint8_t Reg, uint8_t Value)
 683:../../Drivers/BSP/STM32F769I-Discovery/stm32f769i_discovery.c **** {
 1721              		.loc 1 683 0
 1722              		.cfi_startproc
 1723              		@ args = 0, pretend = 0, frame = 8
 1724              		@ frame_needed = 1, uses_anonymous_args = 0
 1725 0000 80B5     		push	{r7, lr}
 1726              	.LCFI114:
 1727              		.cfi_def_cfa_offset 8
 1728              		.cfi_offset 7, -8
 1729              		.cfi_offset 14, -4
 1730 0002 84B0     		sub	sp, sp, #16
 1731              	.LCFI115:
 1732              		.cfi_def_cfa_offset 24
 1733 0004 02AF     		add	r7, sp, #8
 1734              	.LCFI116:
 1735              		.cfi_def_cfa 7, 16
 1736 0006 0346     		mov	r3, r0
 1737 0008 FB71     		strb	r3, [r7, #7]
 1738 000a 0B46     		mov	r3, r1
 1739 000c BB71     		strb	r3, [r7, #6]
 1740 000e 1346     		mov	r3, r2
 1741 0010 7B71     		strb	r3, [r7, #5]
 684:../../Drivers/BSP/STM32F769I-Discovery/stm32f769i_discovery.c ****   I2Cx_WriteMultiple(&hI2cAudioHandler, Addr, (uint16_t)Reg, I2C_MEMADD_SIZE_8BIT,(uint8_t*)&Value,
 1742              		.loc 1 684 0
 1743 0012 BB79     		ldrb	r3, [r7, #6]	@ zero_extendqisi2
 1744 0014 9AB2     		uxth	r2, r3
 1745 0016 F979     		ldrb	r1, [r7, #7]	@ zero_extendqisi2
 1746 0018 7B1D     		adds	r3, r7, #5
 1747 001a 0093     		str	r3, [sp]
 1748 001c 0123     		movs	r3, #1
 1749 001e 0193     		str	r3, [sp, #4]
 1750 0020 0348     		ldr	r0, .L83
 1751 0022 0123     		movs	r3, #1
 1752 0024 FFF7FEFF 		bl	I2Cx_WriteMultiple
 685:../../Drivers/BSP/STM32F769I-Discovery/stm32f769i_discovery.c **** }
 1753              		.loc 1 685 0
 1754 0028 0837     		adds	r7, r7, #8
 1755              	.LCFI117:
 1756              		.cfi_def_cfa_offset 8
 1757 002a BD46     		mov	sp, r7
 1758              	.LCFI118:
 1759              		.cfi_def_cfa_register 13
 1760              		@ sp needed
 1761 002c 80BD     		pop	{r7, pc}
 1762              	.L84:
 1763 002e 00BF     		.align	2
 1764              	.L83:
 1765 0030 00000000 		.word	hI2cAudioHandler
 1766              		.cfi_endproc
ARM GAS  /tmp/ccDIYG4f.s 			page 43


 1767              	.LFE160:
 1769              		.section	.text.TS_IO_Read,"ax",%progbits
 1770              		.align	2
 1771              		.global	TS_IO_Read
 1772              		.thumb
 1773              		.thumb_func
 1775              	TS_IO_Read:
 1776              	.LFB161:
 686:../../Drivers/BSP/STM32F769I-Discovery/stm32f769i_discovery.c **** 
 687:../../Drivers/BSP/STM32F769I-Discovery/stm32f769i_discovery.c **** /**
 688:../../Drivers/BSP/STM32F769I-Discovery/stm32f769i_discovery.c ****   * @brief  Reads a single data.
 689:../../Drivers/BSP/STM32F769I-Discovery/stm32f769i_discovery.c ****   * @param  Addr: I2C address
 690:../../Drivers/BSP/STM32F769I-Discovery/stm32f769i_discovery.c ****   * @param  Reg: Reg address
 691:../../Drivers/BSP/STM32F769I-Discovery/stm32f769i_discovery.c ****   * @retval Data to be read
 692:../../Drivers/BSP/STM32F769I-Discovery/stm32f769i_discovery.c ****   */
 693:../../Drivers/BSP/STM32F769I-Discovery/stm32f769i_discovery.c **** uint8_t TS_IO_Read(uint8_t Addr, uint8_t Reg)
 694:../../Drivers/BSP/STM32F769I-Discovery/stm32f769i_discovery.c **** {
 1777              		.loc 1 694 0
 1778              		.cfi_startproc
 1779              		@ args = 0, pretend = 0, frame = 16
 1780              		@ frame_needed = 1, uses_anonymous_args = 0
 1781 0000 80B5     		push	{r7, lr}
 1782              	.LCFI119:
 1783              		.cfi_def_cfa_offset 8
 1784              		.cfi_offset 7, -8
 1785              		.cfi_offset 14, -4
 1786 0002 86B0     		sub	sp, sp, #24
 1787              	.LCFI120:
 1788              		.cfi_def_cfa_offset 32
 1789 0004 02AF     		add	r7, sp, #8
 1790              	.LCFI121:
 1791              		.cfi_def_cfa 7, 24
 1792 0006 0346     		mov	r3, r0
 1793 0008 0A46     		mov	r2, r1
 1794 000a FB71     		strb	r3, [r7, #7]
 1795 000c 1346     		mov	r3, r2
 1796 000e BB71     		strb	r3, [r7, #6]
 695:../../Drivers/BSP/STM32F769I-Discovery/stm32f769i_discovery.c ****   uint8_t read_value = 0;
 1797              		.loc 1 695 0
 1798 0010 0023     		movs	r3, #0
 1799 0012 FB73     		strb	r3, [r7, #15]
 696:../../Drivers/BSP/STM32F769I-Discovery/stm32f769i_discovery.c **** 
 697:../../Drivers/BSP/STM32F769I-Discovery/stm32f769i_discovery.c ****   I2Cx_ReadMultiple(&hI2cAudioHandler, Addr, Reg, I2C_MEMADD_SIZE_8BIT, (uint8_t*)&read_value, 1);
 1800              		.loc 1 697 0
 1801 0014 BB79     		ldrb	r3, [r7, #6]	@ zero_extendqisi2
 1802 0016 9AB2     		uxth	r2, r3
 1803 0018 F979     		ldrb	r1, [r7, #7]	@ zero_extendqisi2
 1804 001a 07F10F03 		add	r3, r7, #15
 1805 001e 0093     		str	r3, [sp]
 1806 0020 0123     		movs	r3, #1
 1807 0022 0193     		str	r3, [sp, #4]
 1808 0024 0448     		ldr	r0, .L87
 1809 0026 0123     		movs	r3, #1
 1810 0028 FFF7FEFF 		bl	I2Cx_ReadMultiple
 698:../../Drivers/BSP/STM32F769I-Discovery/stm32f769i_discovery.c **** 
 699:../../Drivers/BSP/STM32F769I-Discovery/stm32f769i_discovery.c ****   return read_value;
 1811              		.loc 1 699 0
ARM GAS  /tmp/ccDIYG4f.s 			page 44


 1812 002c FB7B     		ldrb	r3, [r7, #15]	@ zero_extendqisi2
 700:../../Drivers/BSP/STM32F769I-Discovery/stm32f769i_discovery.c **** }
 1813              		.loc 1 700 0
 1814 002e 1846     		mov	r0, r3
 1815 0030 1037     		adds	r7, r7, #16
 1816              	.LCFI122:
 1817              		.cfi_def_cfa_offset 8
 1818 0032 BD46     		mov	sp, r7
 1819              	.LCFI123:
 1820              		.cfi_def_cfa_register 13
 1821              		@ sp needed
 1822 0034 80BD     		pop	{r7, pc}
 1823              	.L88:
 1824 0036 00BF     		.align	2
 1825              	.L87:
 1826 0038 00000000 		.word	hI2cAudioHandler
 1827              		.cfi_endproc
 1828              	.LFE161:
 1830              		.section	.text.TS_IO_ReadMultiple,"ax",%progbits
 1831              		.align	2
 1832              		.global	TS_IO_ReadMultiple
 1833              		.thumb
 1834              		.thumb_func
 1836              	TS_IO_ReadMultiple:
 1837              	.LFB162:
 701:../../Drivers/BSP/STM32F769I-Discovery/stm32f769i_discovery.c **** 
 702:../../Drivers/BSP/STM32F769I-Discovery/stm32f769i_discovery.c **** /**
 703:../../Drivers/BSP/STM32F769I-Discovery/stm32f769i_discovery.c ****   * @brief  Reads multiple data with I2C communication
 704:../../Drivers/BSP/STM32F769I-Discovery/stm32f769i_discovery.c ****   *         channel from TouchScreen.
 705:../../Drivers/BSP/STM32F769I-Discovery/stm32f769i_discovery.c ****   * @param  Addr: I2C address
 706:../../Drivers/BSP/STM32F769I-Discovery/stm32f769i_discovery.c ****   * @param  Reg: Register address
 707:../../Drivers/BSP/STM32F769I-Discovery/stm32f769i_discovery.c ****   * @param  Buffer: Pointer to data buffer
 708:../../Drivers/BSP/STM32F769I-Discovery/stm32f769i_discovery.c ****   * @param  Length: Length of the data
 709:../../Drivers/BSP/STM32F769I-Discovery/stm32f769i_discovery.c ****   * @retval Number of read data
 710:../../Drivers/BSP/STM32F769I-Discovery/stm32f769i_discovery.c ****   */
 711:../../Drivers/BSP/STM32F769I-Discovery/stm32f769i_discovery.c **** uint16_t TS_IO_ReadMultiple(uint8_t Addr, uint8_t Reg, uint8_t *Buffer, uint16_t Length)
 712:../../Drivers/BSP/STM32F769I-Discovery/stm32f769i_discovery.c **** {
 1838              		.loc 1 712 0
 1839              		.cfi_startproc
 1840              		@ args = 0, pretend = 0, frame = 8
 1841              		@ frame_needed = 1, uses_anonymous_args = 0
 1842 0000 80B5     		push	{r7, lr}
 1843              	.LCFI124:
 1844              		.cfi_def_cfa_offset 8
 1845              		.cfi_offset 7, -8
 1846              		.cfi_offset 14, -4
 1847 0002 84B0     		sub	sp, sp, #16
 1848              	.LCFI125:
 1849              		.cfi_def_cfa_offset 24
 1850 0004 02AF     		add	r7, sp, #8
 1851              	.LCFI126:
 1852              		.cfi_def_cfa 7, 16
 1853 0006 3A60     		str	r2, [r7]
 1854 0008 1A46     		mov	r2, r3
 1855 000a 0346     		mov	r3, r0
 1856 000c FB71     		strb	r3, [r7, #7]
 1857 000e 0B46     		mov	r3, r1
ARM GAS  /tmp/ccDIYG4f.s 			page 45


 1858 0010 BB71     		strb	r3, [r7, #6]
 1859 0012 1346     		mov	r3, r2	@ movhi
 1860 0014 BB80     		strh	r3, [r7, #4]	@ movhi
 713:../../Drivers/BSP/STM32F769I-Discovery/stm32f769i_discovery.c ****  return I2Cx_ReadMultiple(&hI2cAudioHandler, Addr, (uint16_t)Reg, I2C_MEMADD_SIZE_8BIT, Buffer, Len
 1861              		.loc 1 713 0
 1862 0016 BB79     		ldrb	r3, [r7, #6]	@ zero_extendqisi2
 1863 0018 9AB2     		uxth	r2, r3
 1864 001a F979     		ldrb	r1, [r7, #7]	@ zero_extendqisi2
 1865 001c 3B68     		ldr	r3, [r7]
 1866 001e 0093     		str	r3, [sp]
 1867 0020 BB88     		ldrh	r3, [r7, #4]
 1868 0022 0193     		str	r3, [sp, #4]
 1869 0024 0448     		ldr	r0, .L91
 1870 0026 0123     		movs	r3, #1
 1871 0028 FFF7FEFF 		bl	I2Cx_ReadMultiple
 1872 002c 0346     		mov	r3, r0
 1873 002e 9BB2     		uxth	r3, r3
 714:../../Drivers/BSP/STM32F769I-Discovery/stm32f769i_discovery.c **** }
 1874              		.loc 1 714 0
 1875 0030 1846     		mov	r0, r3
 1876 0032 0837     		adds	r7, r7, #8
 1877              	.LCFI127:
 1878              		.cfi_def_cfa_offset 8
 1879 0034 BD46     		mov	sp, r7
 1880              	.LCFI128:
 1881              		.cfi_def_cfa_register 13
 1882              		@ sp needed
 1883 0036 80BD     		pop	{r7, pc}
 1884              	.L92:
 1885              		.align	2
 1886              	.L91:
 1887 0038 00000000 		.word	hI2cAudioHandler
 1888              		.cfi_endproc
 1889              	.LFE162:
 1891              		.section	.text.TS_IO_WriteMultiple,"ax",%progbits
 1892              		.align	2
 1893              		.global	TS_IO_WriteMultiple
 1894              		.thumb
 1895              		.thumb_func
 1897              	TS_IO_WriteMultiple:
 1898              	.LFB163:
 715:../../Drivers/BSP/STM32F769I-Discovery/stm32f769i_discovery.c **** 
 716:../../Drivers/BSP/STM32F769I-Discovery/stm32f769i_discovery.c **** /**
 717:../../Drivers/BSP/STM32F769I-Discovery/stm32f769i_discovery.c ****   * @brief  Writes multiple data with I2C communication
 718:../../Drivers/BSP/STM32F769I-Discovery/stm32f769i_discovery.c ****   *         channel from MCU to TouchScreen.
 719:../../Drivers/BSP/STM32F769I-Discovery/stm32f769i_discovery.c ****   * @param  Addr: I2C address
 720:../../Drivers/BSP/STM32F769I-Discovery/stm32f769i_discovery.c ****   * @param  Reg: Register address
 721:../../Drivers/BSP/STM32F769I-Discovery/stm32f769i_discovery.c ****   * @param  Buffer: Pointer to data buffer
 722:../../Drivers/BSP/STM32F769I-Discovery/stm32f769i_discovery.c ****   * @param  Length: Length of the data
 723:../../Drivers/BSP/STM32F769I-Discovery/stm32f769i_discovery.c ****   * @retval None
 724:../../Drivers/BSP/STM32F769I-Discovery/stm32f769i_discovery.c ****   */
 725:../../Drivers/BSP/STM32F769I-Discovery/stm32f769i_discovery.c **** void TS_IO_WriteMultiple(uint8_t Addr, uint8_t Reg, uint8_t *Buffer, uint16_t Length)
 726:../../Drivers/BSP/STM32F769I-Discovery/stm32f769i_discovery.c **** {
 1899              		.loc 1 726 0
 1900              		.cfi_startproc
 1901              		@ args = 0, pretend = 0, frame = 8
 1902              		@ frame_needed = 1, uses_anonymous_args = 0
ARM GAS  /tmp/ccDIYG4f.s 			page 46


 1903 0000 80B5     		push	{r7, lr}
 1904              	.LCFI129:
 1905              		.cfi_def_cfa_offset 8
 1906              		.cfi_offset 7, -8
 1907              		.cfi_offset 14, -4
 1908 0002 84B0     		sub	sp, sp, #16
 1909              	.LCFI130:
 1910              		.cfi_def_cfa_offset 24
 1911 0004 02AF     		add	r7, sp, #8
 1912              	.LCFI131:
 1913              		.cfi_def_cfa 7, 16
 1914 0006 3A60     		str	r2, [r7]
 1915 0008 1A46     		mov	r2, r3
 1916 000a 0346     		mov	r3, r0
 1917 000c FB71     		strb	r3, [r7, #7]
 1918 000e 0B46     		mov	r3, r1
 1919 0010 BB71     		strb	r3, [r7, #6]
 1920 0012 1346     		mov	r3, r2	@ movhi
 1921 0014 BB80     		strh	r3, [r7, #4]	@ movhi
 727:../../Drivers/BSP/STM32F769I-Discovery/stm32f769i_discovery.c ****   I2Cx_WriteMultiple(&hI2cAudioHandler, Addr, (uint16_t)Reg, I2C_MEMADD_SIZE_8BIT, Buffer, Length);
 1922              		.loc 1 727 0
 1923 0016 BB79     		ldrb	r3, [r7, #6]	@ zero_extendqisi2
 1924 0018 9AB2     		uxth	r2, r3
 1925 001a F979     		ldrb	r1, [r7, #7]	@ zero_extendqisi2
 1926 001c 3B68     		ldr	r3, [r7]
 1927 001e 0093     		str	r3, [sp]
 1928 0020 BB88     		ldrh	r3, [r7, #4]
 1929 0022 0193     		str	r3, [sp, #4]
 1930 0024 0348     		ldr	r0, .L94
 1931 0026 0123     		movs	r3, #1
 1932 0028 FFF7FEFF 		bl	I2Cx_WriteMultiple
 728:../../Drivers/BSP/STM32F769I-Discovery/stm32f769i_discovery.c **** }
 1933              		.loc 1 728 0
 1934 002c 0837     		adds	r7, r7, #8
 1935              	.LCFI132:
 1936              		.cfi_def_cfa_offset 8
 1937 002e BD46     		mov	sp, r7
 1938              	.LCFI133:
 1939              		.cfi_def_cfa_register 13
 1940              		@ sp needed
 1941 0030 80BD     		pop	{r7, pc}
 1942              	.L95:
 1943 0032 00BF     		.align	2
 1944              	.L94:
 1945 0034 00000000 		.word	hI2cAudioHandler
 1946              		.cfi_endproc
 1947              	.LFE163:
 1949              		.section	.text.TS_IO_Delay,"ax",%progbits
 1950              		.align	2
 1951              		.global	TS_IO_Delay
 1952              		.thumb
 1953              		.thumb_func
 1955              	TS_IO_Delay:
 1956              	.LFB164:
 729:../../Drivers/BSP/STM32F769I-Discovery/stm32f769i_discovery.c **** 
 730:../../Drivers/BSP/STM32F769I-Discovery/stm32f769i_discovery.c **** /**
 731:../../Drivers/BSP/STM32F769I-Discovery/stm32f769i_discovery.c ****   * @brief  Delay function used in TouchScreen low level driver.
ARM GAS  /tmp/ccDIYG4f.s 			page 47


 732:../../Drivers/BSP/STM32F769I-Discovery/stm32f769i_discovery.c ****   * @param  Delay: Delay in ms
 733:../../Drivers/BSP/STM32F769I-Discovery/stm32f769i_discovery.c ****   * @retval None
 734:../../Drivers/BSP/STM32F769I-Discovery/stm32f769i_discovery.c ****   */
 735:../../Drivers/BSP/STM32F769I-Discovery/stm32f769i_discovery.c **** void TS_IO_Delay(uint32_t Delay)
 736:../../Drivers/BSP/STM32F769I-Discovery/stm32f769i_discovery.c **** {
 1957              		.loc 1 736 0
 1958              		.cfi_startproc
 1959              		@ args = 0, pretend = 0, frame = 8
 1960              		@ frame_needed = 1, uses_anonymous_args = 0
 1961 0000 80B5     		push	{r7, lr}
 1962              	.LCFI134:
 1963              		.cfi_def_cfa_offset 8
 1964              		.cfi_offset 7, -8
 1965              		.cfi_offset 14, -4
 1966 0002 82B0     		sub	sp, sp, #8
 1967              	.LCFI135:
 1968              		.cfi_def_cfa_offset 16
 1969 0004 00AF     		add	r7, sp, #0
 1970              	.LCFI136:
 1971              		.cfi_def_cfa_register 7
 1972 0006 7860     		str	r0, [r7, #4]
 737:../../Drivers/BSP/STM32F769I-Discovery/stm32f769i_discovery.c ****   HAL_Delay(Delay);
 1973              		.loc 1 737 0
 1974 0008 7868     		ldr	r0, [r7, #4]
 1975 000a FFF7FEFF 		bl	HAL_Delay
 738:../../Drivers/BSP/STM32F769I-Discovery/stm32f769i_discovery.c **** }
 1976              		.loc 1 738 0
 1977 000e 0837     		adds	r7, r7, #8
 1978              	.LCFI137:
 1979              		.cfi_def_cfa_offset 8
 1980 0010 BD46     		mov	sp, r7
 1981              	.LCFI138:
 1982              		.cfi_def_cfa_register 13
 1983              		@ sp needed
 1984 0012 80BD     		pop	{r7, pc}
 1985              		.cfi_endproc
 1986              	.LFE164:
 1988              		.section	.text.OTM8009A_IO_Delay,"ax",%progbits
 1989              		.align	2
 1990              		.global	OTM8009A_IO_Delay
 1991              		.thumb
 1992              		.thumb_func
 1994              	OTM8009A_IO_Delay:
 1995              	.LFB165:
 739:../../Drivers/BSP/STM32F769I-Discovery/stm32f769i_discovery.c **** 
 740:../../Drivers/BSP/STM32F769I-Discovery/stm32f769i_discovery.c **** /**************************** LINK OTM8009A (Display driver) ******************/
 741:../../Drivers/BSP/STM32F769I-Discovery/stm32f769i_discovery.c **** /**
 742:../../Drivers/BSP/STM32F769I-Discovery/stm32f769i_discovery.c ****   * @brief  OTM8009A delay
 743:../../Drivers/BSP/STM32F769I-Discovery/stm32f769i_discovery.c ****   * @param  Delay: Delay in ms
 744:../../Drivers/BSP/STM32F769I-Discovery/stm32f769i_discovery.c ****   */
 745:../../Drivers/BSP/STM32F769I-Discovery/stm32f769i_discovery.c **** void OTM8009A_IO_Delay(uint32_t Delay)
 746:../../Drivers/BSP/STM32F769I-Discovery/stm32f769i_discovery.c **** {
 1996              		.loc 1 746 0
 1997              		.cfi_startproc
 1998              		@ args = 0, pretend = 0, frame = 8
 1999              		@ frame_needed = 1, uses_anonymous_args = 0
 2000 0000 80B5     		push	{r7, lr}
ARM GAS  /tmp/ccDIYG4f.s 			page 48


 2001              	.LCFI139:
 2002              		.cfi_def_cfa_offset 8
 2003              		.cfi_offset 7, -8
 2004              		.cfi_offset 14, -4
 2005 0002 82B0     		sub	sp, sp, #8
 2006              	.LCFI140:
 2007              		.cfi_def_cfa_offset 16
 2008 0004 00AF     		add	r7, sp, #0
 2009              	.LCFI141:
 2010              		.cfi_def_cfa_register 7
 2011 0006 7860     		str	r0, [r7, #4]
 747:../../Drivers/BSP/STM32F769I-Discovery/stm32f769i_discovery.c ****   HAL_Delay(Delay);
 2012              		.loc 1 747 0
 2013 0008 7868     		ldr	r0, [r7, #4]
 2014 000a FFF7FEFF 		bl	HAL_Delay
 748:../../Drivers/BSP/STM32F769I-Discovery/stm32f769i_discovery.c **** }
 2015              		.loc 1 748 0
 2016 000e 0837     		adds	r7, r7, #8
 2017              	.LCFI142:
 2018              		.cfi_def_cfa_offset 8
 2019 0010 BD46     		mov	sp, r7
 2020              	.LCFI143:
 2021              		.cfi_def_cfa_register 13
 2022              		@ sp needed
 2023 0012 80BD     		pop	{r7, pc}
 2024              		.cfi_endproc
 2025              	.LFE165:
 2027              		.section	.text.HDMI_IO_Init,"ax",%progbits
 2028              		.align	2
 2029              		.global	HDMI_IO_Init
 2030              		.thumb
 2031              		.thumb_func
 2033              	HDMI_IO_Init:
 2034              	.LFB166:
 749:../../Drivers/BSP/STM32F769I-Discovery/stm32f769i_discovery.c **** 
 750:../../Drivers/BSP/STM32F769I-Discovery/stm32f769i_discovery.c **** /**************************** LINK ADV7533 DSI-HDMI (Display driver) **********/
 751:../../Drivers/BSP/STM32F769I-Discovery/stm32f769i_discovery.c **** /**
 752:../../Drivers/BSP/STM32F769I-Discovery/stm32f769i_discovery.c ****   * @brief  Initializes HDMI IO low level.
 753:../../Drivers/BSP/STM32F769I-Discovery/stm32f769i_discovery.c ****   * @retval None
 754:../../Drivers/BSP/STM32F769I-Discovery/stm32f769i_discovery.c ****   */
 755:../../Drivers/BSP/STM32F769I-Discovery/stm32f769i_discovery.c **** void HDMI_IO_Init(void)
 756:../../Drivers/BSP/STM32F769I-Discovery/stm32f769i_discovery.c **** {
 2035              		.loc 1 756 0
 2036              		.cfi_startproc
 2037              		@ args = 0, pretend = 0, frame = 0
 2038              		@ frame_needed = 1, uses_anonymous_args = 0
 2039 0000 80B5     		push	{r7, lr}
 2040              	.LCFI144:
 2041              		.cfi_def_cfa_offset 8
 2042              		.cfi_offset 7, -8
 2043              		.cfi_offset 14, -4
 2044 0002 00AF     		add	r7, sp, #0
 2045              	.LCFI145:
 2046              		.cfi_def_cfa_register 7
 757:../../Drivers/BSP/STM32F769I-Discovery/stm32f769i_discovery.c ****   I2Cx_Init(&hI2cAudioHandler);
 2047              		.loc 1 757 0
 2048 0004 0148     		ldr	r0, .L99
ARM GAS  /tmp/ccDIYG4f.s 			page 49


 2049 0006 FFF7FEFF 		bl	I2Cx_Init
 758:../../Drivers/BSP/STM32F769I-Discovery/stm32f769i_discovery.c **** }
 2050              		.loc 1 758 0
 2051 000a 80BD     		pop	{r7, pc}
 2052              	.L100:
 2053              		.align	2
 2054              	.L99:
 2055 000c 00000000 		.word	hI2cAudioHandler
 2056              		.cfi_endproc
 2057              	.LFE166:
 2059              		.section	.text.HDMI_IO_Write,"ax",%progbits
 2060              		.align	2
 2061              		.global	HDMI_IO_Write
 2062              		.thumb
 2063              		.thumb_func
 2065              	HDMI_IO_Write:
 2066              	.LFB167:
 759:../../Drivers/BSP/STM32F769I-Discovery/stm32f769i_discovery.c **** 
 760:../../Drivers/BSP/STM32F769I-Discovery/stm32f769i_discovery.c **** /**
 761:../../Drivers/BSP/STM32F769I-Discovery/stm32f769i_discovery.c ****   * @brief  HDMI writes single data.
 762:../../Drivers/BSP/STM32F769I-Discovery/stm32f769i_discovery.c ****   * @param  Addr: I2C address
 763:../../Drivers/BSP/STM32F769I-Discovery/stm32f769i_discovery.c ****   * @param  Reg: Register address 
 764:../../Drivers/BSP/STM32F769I-Discovery/stm32f769i_discovery.c ****   * @param  Value: Data to be written
 765:../../Drivers/BSP/STM32F769I-Discovery/stm32f769i_discovery.c ****   * @retval None
 766:../../Drivers/BSP/STM32F769I-Discovery/stm32f769i_discovery.c ****   */
 767:../../Drivers/BSP/STM32F769I-Discovery/stm32f769i_discovery.c **** void HDMI_IO_Write(uint8_t Addr, uint8_t Reg, uint8_t Value)
 768:../../Drivers/BSP/STM32F769I-Discovery/stm32f769i_discovery.c **** {
 2067              		.loc 1 768 0
 2068              		.cfi_startproc
 2069              		@ args = 0, pretend = 0, frame = 8
 2070              		@ frame_needed = 1, uses_anonymous_args = 0
 2071 0000 80B5     		push	{r7, lr}
 2072              	.LCFI146:
 2073              		.cfi_def_cfa_offset 8
 2074              		.cfi_offset 7, -8
 2075              		.cfi_offset 14, -4
 2076 0002 84B0     		sub	sp, sp, #16
 2077              	.LCFI147:
 2078              		.cfi_def_cfa_offset 24
 2079 0004 02AF     		add	r7, sp, #8
 2080              	.LCFI148:
 2081              		.cfi_def_cfa 7, 16
 2082 0006 0346     		mov	r3, r0
 2083 0008 FB71     		strb	r3, [r7, #7]
 2084 000a 0B46     		mov	r3, r1
 2085 000c BB71     		strb	r3, [r7, #6]
 2086 000e 1346     		mov	r3, r2
 2087 0010 7B71     		strb	r3, [r7, #5]
 769:../../Drivers/BSP/STM32F769I-Discovery/stm32f769i_discovery.c ****   I2Cx_WriteMultiple(&hI2cAudioHandler, Addr, (uint16_t)Reg, I2C_MEMADD_SIZE_8BIT, &Value, 1);  
 2088              		.loc 1 769 0
 2089 0012 BB79     		ldrb	r3, [r7, #6]	@ zero_extendqisi2
 2090 0014 9AB2     		uxth	r2, r3
 2091 0016 F979     		ldrb	r1, [r7, #7]	@ zero_extendqisi2
 2092 0018 7B1D     		adds	r3, r7, #5
 2093 001a 0093     		str	r3, [sp]
 2094 001c 0123     		movs	r3, #1
 2095 001e 0193     		str	r3, [sp, #4]
ARM GAS  /tmp/ccDIYG4f.s 			page 50


 2096 0020 0348     		ldr	r0, .L102
 2097 0022 0123     		movs	r3, #1
 2098 0024 FFF7FEFF 		bl	I2Cx_WriteMultiple
 770:../../Drivers/BSP/STM32F769I-Discovery/stm32f769i_discovery.c **** }
 2099              		.loc 1 770 0
 2100 0028 0837     		adds	r7, r7, #8
 2101              	.LCFI149:
 2102              		.cfi_def_cfa_offset 8
 2103 002a BD46     		mov	sp, r7
 2104              	.LCFI150:
 2105              		.cfi_def_cfa_register 13
 2106              		@ sp needed
 2107 002c 80BD     		pop	{r7, pc}
 2108              	.L103:
 2109 002e 00BF     		.align	2
 2110              	.L102:
 2111 0030 00000000 		.word	hI2cAudioHandler
 2112              		.cfi_endproc
 2113              	.LFE167:
 2115              		.section	.text.HDMI_IO_Read,"ax",%progbits
 2116              		.align	2
 2117              		.global	HDMI_IO_Read
 2118              		.thumb
 2119              		.thumb_func
 2121              	HDMI_IO_Read:
 2122              	.LFB168:
 771:../../Drivers/BSP/STM32F769I-Discovery/stm32f769i_discovery.c **** 
 772:../../Drivers/BSP/STM32F769I-Discovery/stm32f769i_discovery.c **** /**
 773:../../Drivers/BSP/STM32F769I-Discovery/stm32f769i_discovery.c ****   * @brief  Reads single data with I2C communication
 774:../../Drivers/BSP/STM32F769I-Discovery/stm32f769i_discovery.c ****   *         channel from HDMI bridge.
 775:../../Drivers/BSP/STM32F769I-Discovery/stm32f769i_discovery.c ****   * @param  Addr: I2C address
 776:../../Drivers/BSP/STM32F769I-Discovery/stm32f769i_discovery.c ****   * @param  Reg: Register address
 777:../../Drivers/BSP/STM32F769I-Discovery/stm32f769i_discovery.c ****   * @retval Read data
 778:../../Drivers/BSP/STM32F769I-Discovery/stm32f769i_discovery.c ****   */
 779:../../Drivers/BSP/STM32F769I-Discovery/stm32f769i_discovery.c **** uint8_t HDMI_IO_Read(uint8_t Addr, uint8_t Reg)
 780:../../Drivers/BSP/STM32F769I-Discovery/stm32f769i_discovery.c **** {
 2123              		.loc 1 780 0
 2124              		.cfi_startproc
 2125              		@ args = 0, pretend = 0, frame = 16
 2126              		@ frame_needed = 1, uses_anonymous_args = 0
 2127 0000 80B5     		push	{r7, lr}
 2128              	.LCFI151:
 2129              		.cfi_def_cfa_offset 8
 2130              		.cfi_offset 7, -8
 2131              		.cfi_offset 14, -4
 2132 0002 86B0     		sub	sp, sp, #24
 2133              	.LCFI152:
 2134              		.cfi_def_cfa_offset 32
 2135 0004 02AF     		add	r7, sp, #8
 2136              	.LCFI153:
 2137              		.cfi_def_cfa 7, 24
 2138 0006 0346     		mov	r3, r0
 2139 0008 0A46     		mov	r2, r1
 2140 000a FB71     		strb	r3, [r7, #7]
 2141 000c 1346     		mov	r3, r2
 2142 000e BB71     		strb	r3, [r7, #6]
 781:../../Drivers/BSP/STM32F769I-Discovery/stm32f769i_discovery.c ****   uint8_t value = 0x00;
ARM GAS  /tmp/ccDIYG4f.s 			page 51


 2143              		.loc 1 781 0
 2144 0010 0023     		movs	r3, #0
 2145 0012 FB73     		strb	r3, [r7, #15]
 782:../../Drivers/BSP/STM32F769I-Discovery/stm32f769i_discovery.c **** 
 783:../../Drivers/BSP/STM32F769I-Discovery/stm32f769i_discovery.c ****   I2Cx_ReadMultiple(&hI2cAudioHandler, Addr, (uint16_t)Reg, I2C_MEMADD_SIZE_8BIT, &value, 1);
 2146              		.loc 1 783 0
 2147 0014 BB79     		ldrb	r3, [r7, #6]	@ zero_extendqisi2
 2148 0016 9AB2     		uxth	r2, r3
 2149 0018 F979     		ldrb	r1, [r7, #7]	@ zero_extendqisi2
 2150 001a 07F10F03 		add	r3, r7, #15
 2151 001e 0093     		str	r3, [sp]
 2152 0020 0123     		movs	r3, #1
 2153 0022 0193     		str	r3, [sp, #4]
 2154 0024 0448     		ldr	r0, .L106
 2155 0026 0123     		movs	r3, #1
 2156 0028 FFF7FEFF 		bl	I2Cx_ReadMultiple
 784:../../Drivers/BSP/STM32F769I-Discovery/stm32f769i_discovery.c **** 
 785:../../Drivers/BSP/STM32F769I-Discovery/stm32f769i_discovery.c ****   return value;   
 2157              		.loc 1 785 0
 2158 002c FB7B     		ldrb	r3, [r7, #15]	@ zero_extendqisi2
 786:../../Drivers/BSP/STM32F769I-Discovery/stm32f769i_discovery.c **** }
 2159              		.loc 1 786 0
 2160 002e 1846     		mov	r0, r3
 2161 0030 1037     		adds	r7, r7, #16
 2162              	.LCFI154:
 2163              		.cfi_def_cfa_offset 8
 2164 0032 BD46     		mov	sp, r7
 2165              	.LCFI155:
 2166              		.cfi_def_cfa_register 13
 2167              		@ sp needed
 2168 0034 80BD     		pop	{r7, pc}
 2169              	.L107:
 2170 0036 00BF     		.align	2
 2171              	.L106:
 2172 0038 00000000 		.word	hI2cAudioHandler
 2173              		.cfi_endproc
 2174              	.LFE168:
 2176              		.section	.text.HDMI_IO_Delay,"ax",%progbits
 2177              		.align	2
 2178              		.global	HDMI_IO_Delay
 2179              		.thumb
 2180              		.thumb_func
 2182              	HDMI_IO_Delay:
 2183              	.LFB169:
 787:../../Drivers/BSP/STM32F769I-Discovery/stm32f769i_discovery.c **** 
 788:../../Drivers/BSP/STM32F769I-Discovery/stm32f769i_discovery.c **** /**
 789:../../Drivers/BSP/STM32F769I-Discovery/stm32f769i_discovery.c ****   * @brief  HDMI delay 
 790:../../Drivers/BSP/STM32F769I-Discovery/stm32f769i_discovery.c ****   * @param  Delay: Delay in ms
 791:../../Drivers/BSP/STM32F769I-Discovery/stm32f769i_discovery.c ****   * @retval None
 792:../../Drivers/BSP/STM32F769I-Discovery/stm32f769i_discovery.c ****   */
 793:../../Drivers/BSP/STM32F769I-Discovery/stm32f769i_discovery.c **** void HDMI_IO_Delay(uint32_t Delay)
 794:../../Drivers/BSP/STM32F769I-Discovery/stm32f769i_discovery.c **** {
 2184              		.loc 1 794 0
 2185              		.cfi_startproc
 2186              		@ args = 0, pretend = 0, frame = 8
 2187              		@ frame_needed = 1, uses_anonymous_args = 0
 2188 0000 80B5     		push	{r7, lr}
ARM GAS  /tmp/ccDIYG4f.s 			page 52


 2189              	.LCFI156:
 2190              		.cfi_def_cfa_offset 8
 2191              		.cfi_offset 7, -8
 2192              		.cfi_offset 14, -4
 2193 0002 82B0     		sub	sp, sp, #8
 2194              	.LCFI157:
 2195              		.cfi_def_cfa_offset 16
 2196 0004 00AF     		add	r7, sp, #0
 2197              	.LCFI158:
 2198              		.cfi_def_cfa_register 7
 2199 0006 7860     		str	r0, [r7, #4]
 795:../../Drivers/BSP/STM32F769I-Discovery/stm32f769i_discovery.c ****   HAL_Delay(Delay);
 2200              		.loc 1 795 0
 2201 0008 7868     		ldr	r0, [r7, #4]
 2202 000a FFF7FEFF 		bl	HAL_Delay
 796:../../Drivers/BSP/STM32F769I-Discovery/stm32f769i_discovery.c **** }
 2203              		.loc 1 796 0
 2204 000e 0837     		adds	r7, r7, #8
 2205              	.LCFI159:
 2206              		.cfi_def_cfa_offset 8
 2207 0010 BD46     		mov	sp, r7
 2208              	.LCFI160:
 2209              		.cfi_def_cfa_register 13
 2210              		@ sp needed
 2211 0012 80BD     		pop	{r7, pc}
 2212              		.cfi_endproc
 2213              	.LFE169:
 2215              		.text
 2216              	.Letext0:
 2217              		.file 2 "../../Drivers/CMSIS/Device/ST/STM32F7xx/Include/stm32f769xx.h"
 2218              		.file 3 "/usr/arm-none-eabi/include/machine/_default_types.h"
 2219              		.file 4 "/usr/arm-none-eabi/include/sys/_stdint.h"
 2220              		.file 5 "../../Drivers/STM32F7xx_HAL_Driver/Inc/stm32f7xx_hal_def.h"
 2221              		.file 6 "../../Drivers/STM32F7xx_HAL_Driver/Inc/stm32f7xx_hal_gpio.h"
 2222              		.file 7 "../../Drivers/STM32F7xx_HAL_Driver/Inc/stm32f7xx_hal_dma.h"
 2223              		.file 8 "../../Drivers/STM32F7xx_HAL_Driver/Inc/stm32f7xx_hal_i2c.h"
 2224              		.file 9 "../../Drivers/BSP/STM32F769I-Discovery/stm32f769i_discovery.h"
 2225              		.file 10 "../../Drivers/CMSIS/Include/core_cm7.h"
ARM GAS  /tmp/ccDIYG4f.s 			page 53

