ARM GAS  /tmp/cc3FfnUx.s 			page 1


   1              		.syntax unified
   2              		.cpu cortex-m7
   3              		.eabi_attribute 27, 1
   4              		.eabi_attribute 28, 1
   5              		.fpu fpv5-sp-d16
   6              		.eabi_attribute 20, 1
   7              		.eabi_attribute 21, 1
   8              		.eabi_attribute 23, 3
   9              		.eabi_attribute 24, 1
  10              		.eabi_attribute 25, 1
  11              		.eabi_attribute 26, 1
  12              		.eabi_attribute 30, 6
  13              		.eabi_attribute 34, 1
  14              		.eabi_attribute 18, 4
  15              		.thumb
  16              		.file	"stm32f7xx_hal_pwr.c"
  17              		.text
  18              	.Ltext0:
  19              		.cfi_sections	.debug_frame
  20              		.section	.text.HAL_PWR_DeInit,"ax",%progbits
  21              		.align	2
  22              		.global	HAL_PWR_DeInit
  23              		.thumb
  24              		.thumb_func
  26              	HAL_PWR_DeInit:
  27              	.LFB135:
  28              		.file 1 "../../Drivers/STM32F7xx_HAL_Driver/Src/stm32f7xx_hal_pwr.c"
   1:../../Drivers/STM32F7xx_HAL_Driver/Src/stm32f7xx_hal_pwr.c **** /**
   2:../../Drivers/STM32F7xx_HAL_Driver/Src/stm32f7xx_hal_pwr.c ****   ******************************************************************************
   3:../../Drivers/STM32F7xx_HAL_Driver/Src/stm32f7xx_hal_pwr.c ****   * @file    stm32f7xx_hal_pwr.c
   4:../../Drivers/STM32F7xx_HAL_Driver/Src/stm32f7xx_hal_pwr.c ****   * @author  MCD Application Team
   5:../../Drivers/STM32F7xx_HAL_Driver/Src/stm32f7xx_hal_pwr.c ****   * @version V1.1.2
   6:../../Drivers/STM32F7xx_HAL_Driver/Src/stm32f7xx_hal_pwr.c ****   * @date    23-September-2016 
   7:../../Drivers/STM32F7xx_HAL_Driver/Src/stm32f7xx_hal_pwr.c ****   * @brief   PWR HAL module driver.
   8:../../Drivers/STM32F7xx_HAL_Driver/Src/stm32f7xx_hal_pwr.c ****   *          This file provides firmware functions to manage the following 
   9:../../Drivers/STM32F7xx_HAL_Driver/Src/stm32f7xx_hal_pwr.c ****   *          functionalities of the Power Controller (PWR) peripheral:
  10:../../Drivers/STM32F7xx_HAL_Driver/Src/stm32f7xx_hal_pwr.c ****   *           + Initialization and de-initialization functions
  11:../../Drivers/STM32F7xx_HAL_Driver/Src/stm32f7xx_hal_pwr.c ****   *           + Peripheral Control functions 
  12:../../Drivers/STM32F7xx_HAL_Driver/Src/stm32f7xx_hal_pwr.c ****   *         
  13:../../Drivers/STM32F7xx_HAL_Driver/Src/stm32f7xx_hal_pwr.c ****   ******************************************************************************
  14:../../Drivers/STM32F7xx_HAL_Driver/Src/stm32f7xx_hal_pwr.c ****   * @attention
  15:../../Drivers/STM32F7xx_HAL_Driver/Src/stm32f7xx_hal_pwr.c ****   *
  16:../../Drivers/STM32F7xx_HAL_Driver/Src/stm32f7xx_hal_pwr.c ****   * <h2><center>&copy; COPYRIGHT(c) 2016 STMicroelectronics</center></h2>
  17:../../Drivers/STM32F7xx_HAL_Driver/Src/stm32f7xx_hal_pwr.c ****   *
  18:../../Drivers/STM32F7xx_HAL_Driver/Src/stm32f7xx_hal_pwr.c ****   * Redistribution and use in source and binary forms, with or without modification,
  19:../../Drivers/STM32F7xx_HAL_Driver/Src/stm32f7xx_hal_pwr.c ****   * are permitted provided that the following conditions are met:
  20:../../Drivers/STM32F7xx_HAL_Driver/Src/stm32f7xx_hal_pwr.c ****   *   1. Redistributions of source code must retain the above copyright notice,
  21:../../Drivers/STM32F7xx_HAL_Driver/Src/stm32f7xx_hal_pwr.c ****   *      this list of conditions and the following disclaimer.
  22:../../Drivers/STM32F7xx_HAL_Driver/Src/stm32f7xx_hal_pwr.c ****   *   2. Redistributions in binary form must reproduce the above copyright notice,
  23:../../Drivers/STM32F7xx_HAL_Driver/Src/stm32f7xx_hal_pwr.c ****   *      this list of conditions and the following disclaimer in the documentation
  24:../../Drivers/STM32F7xx_HAL_Driver/Src/stm32f7xx_hal_pwr.c ****   *      and/or other materials provided with the distribution.
  25:../../Drivers/STM32F7xx_HAL_Driver/Src/stm32f7xx_hal_pwr.c ****   *   3. Neither the name of STMicroelectronics nor the names of its contributors
  26:../../Drivers/STM32F7xx_HAL_Driver/Src/stm32f7xx_hal_pwr.c ****   *      may be used to endorse or promote products derived from this software
  27:../../Drivers/STM32F7xx_HAL_Driver/Src/stm32f7xx_hal_pwr.c ****   *      without specific prior written permission.
  28:../../Drivers/STM32F7xx_HAL_Driver/Src/stm32f7xx_hal_pwr.c ****   *
  29:../../Drivers/STM32F7xx_HAL_Driver/Src/stm32f7xx_hal_pwr.c ****   * THIS SOFTWARE IS PROVIDED BY THE COPYRIGHT HOLDERS AND CONTRIBUTORS "AS IS"
  30:../../Drivers/STM32F7xx_HAL_Driver/Src/stm32f7xx_hal_pwr.c ****   * AND ANY EXPRESS OR IMPLIED WARRANTIES, INCLUDING, BUT NOT LIMITED TO, THE
ARM GAS  /tmp/cc3FfnUx.s 			page 2


  31:../../Drivers/STM32F7xx_HAL_Driver/Src/stm32f7xx_hal_pwr.c ****   * IMPLIED WARRANTIES OF MERCHANTABILITY AND FITNESS FOR A PARTICULAR PURPOSE ARE
  32:../../Drivers/STM32F7xx_HAL_Driver/Src/stm32f7xx_hal_pwr.c ****   * DISCLAIMED. IN NO EVENT SHALL THE COPYRIGHT HOLDER OR CONTRIBUTORS BE LIABLE
  33:../../Drivers/STM32F7xx_HAL_Driver/Src/stm32f7xx_hal_pwr.c ****   * FOR ANY DIRECT, INDIRECT, INCIDENTAL, SPECIAL, EXEMPLARY, OR CONSEQUENTIAL
  34:../../Drivers/STM32F7xx_HAL_Driver/Src/stm32f7xx_hal_pwr.c ****   * DAMAGES (INCLUDING, BUT NOT LIMITED TO, PROCUREMENT OF SUBSTITUTE GOODS OR
  35:../../Drivers/STM32F7xx_HAL_Driver/Src/stm32f7xx_hal_pwr.c ****   * SERVICES; LOSS OF USE, DATA, OR PROFITS; OR BUSINESS INTERRUPTION) HOWEVER
  36:../../Drivers/STM32F7xx_HAL_Driver/Src/stm32f7xx_hal_pwr.c ****   * CAUSED AND ON ANY THEORY OF LIABILITY, WHETHER IN CONTRACT, STRICT LIABILITY,
  37:../../Drivers/STM32F7xx_HAL_Driver/Src/stm32f7xx_hal_pwr.c ****   * OR TORT (INCLUDING NEGLIGENCE OR OTHERWISE) ARISING IN ANY WAY OUT OF THE USE
  38:../../Drivers/STM32F7xx_HAL_Driver/Src/stm32f7xx_hal_pwr.c ****   * OF THIS SOFTWARE, EVEN IF ADVISED OF THE POSSIBILITY OF SUCH DAMAGE.
  39:../../Drivers/STM32F7xx_HAL_Driver/Src/stm32f7xx_hal_pwr.c ****   *
  40:../../Drivers/STM32F7xx_HAL_Driver/Src/stm32f7xx_hal_pwr.c ****   ******************************************************************************
  41:../../Drivers/STM32F7xx_HAL_Driver/Src/stm32f7xx_hal_pwr.c ****   */ 
  42:../../Drivers/STM32F7xx_HAL_Driver/Src/stm32f7xx_hal_pwr.c **** 
  43:../../Drivers/STM32F7xx_HAL_Driver/Src/stm32f7xx_hal_pwr.c **** /* Includes ------------------------------------------------------------------*/
  44:../../Drivers/STM32F7xx_HAL_Driver/Src/stm32f7xx_hal_pwr.c **** #include "stm32f7xx_hal.h"
  45:../../Drivers/STM32F7xx_HAL_Driver/Src/stm32f7xx_hal_pwr.c **** 
  46:../../Drivers/STM32F7xx_HAL_Driver/Src/stm32f7xx_hal_pwr.c **** /** @addtogroup STM32F7xx_HAL_Driver
  47:../../Drivers/STM32F7xx_HAL_Driver/Src/stm32f7xx_hal_pwr.c ****   * @{
  48:../../Drivers/STM32F7xx_HAL_Driver/Src/stm32f7xx_hal_pwr.c ****   */
  49:../../Drivers/STM32F7xx_HAL_Driver/Src/stm32f7xx_hal_pwr.c **** 
  50:../../Drivers/STM32F7xx_HAL_Driver/Src/stm32f7xx_hal_pwr.c **** /** @defgroup PWR PWR
  51:../../Drivers/STM32F7xx_HAL_Driver/Src/stm32f7xx_hal_pwr.c ****   * @brief PWR HAL module driver
  52:../../Drivers/STM32F7xx_HAL_Driver/Src/stm32f7xx_hal_pwr.c ****   * @{
  53:../../Drivers/STM32F7xx_HAL_Driver/Src/stm32f7xx_hal_pwr.c ****   */
  54:../../Drivers/STM32F7xx_HAL_Driver/Src/stm32f7xx_hal_pwr.c **** 
  55:../../Drivers/STM32F7xx_HAL_Driver/Src/stm32f7xx_hal_pwr.c **** #ifdef HAL_PWR_MODULE_ENABLED
  56:../../Drivers/STM32F7xx_HAL_Driver/Src/stm32f7xx_hal_pwr.c **** 
  57:../../Drivers/STM32F7xx_HAL_Driver/Src/stm32f7xx_hal_pwr.c **** /* Private typedef -----------------------------------------------------------*/
  58:../../Drivers/STM32F7xx_HAL_Driver/Src/stm32f7xx_hal_pwr.c **** /* Private define ------------------------------------------------------------*/
  59:../../Drivers/STM32F7xx_HAL_Driver/Src/stm32f7xx_hal_pwr.c **** /** @addtogroup PWR_Private_Constants
  60:../../Drivers/STM32F7xx_HAL_Driver/Src/stm32f7xx_hal_pwr.c ****   * @{
  61:../../Drivers/STM32F7xx_HAL_Driver/Src/stm32f7xx_hal_pwr.c ****   */
  62:../../Drivers/STM32F7xx_HAL_Driver/Src/stm32f7xx_hal_pwr.c **** 	
  63:../../Drivers/STM32F7xx_HAL_Driver/Src/stm32f7xx_hal_pwr.c **** /** @defgroup PWR_PVD_Mode_Mask PWR PVD Mode Mask
  64:../../Drivers/STM32F7xx_HAL_Driver/Src/stm32f7xx_hal_pwr.c ****   * @{
  65:../../Drivers/STM32F7xx_HAL_Driver/Src/stm32f7xx_hal_pwr.c ****   */     
  66:../../Drivers/STM32F7xx_HAL_Driver/Src/stm32f7xx_hal_pwr.c **** #define PVD_MODE_IT               ((uint32_t)0x00010000U)
  67:../../Drivers/STM32F7xx_HAL_Driver/Src/stm32f7xx_hal_pwr.c **** #define PVD_MODE_EVT              ((uint32_t)0x00020000U)
  68:../../Drivers/STM32F7xx_HAL_Driver/Src/stm32f7xx_hal_pwr.c **** #define PVD_RISING_EDGE           ((uint32_t)0x00000001U)
  69:../../Drivers/STM32F7xx_HAL_Driver/Src/stm32f7xx_hal_pwr.c **** #define PVD_FALLING_EDGE          ((uint32_t)0x00000002U)
  70:../../Drivers/STM32F7xx_HAL_Driver/Src/stm32f7xx_hal_pwr.c **** /**
  71:../../Drivers/STM32F7xx_HAL_Driver/Src/stm32f7xx_hal_pwr.c ****   * @}
  72:../../Drivers/STM32F7xx_HAL_Driver/Src/stm32f7xx_hal_pwr.c ****   */
  73:../../Drivers/STM32F7xx_HAL_Driver/Src/stm32f7xx_hal_pwr.c **** 
  74:../../Drivers/STM32F7xx_HAL_Driver/Src/stm32f7xx_hal_pwr.c **** /** @defgroup PWR_ENABLE_WUP_Mask PWR Enable WUP Mask
  75:../../Drivers/STM32F7xx_HAL_Driver/Src/stm32f7xx_hal_pwr.c ****   * @{
  76:../../Drivers/STM32F7xx_HAL_Driver/Src/stm32f7xx_hal_pwr.c ****   */  
  77:../../Drivers/STM32F7xx_HAL_Driver/Src/stm32f7xx_hal_pwr.c **** #define  PWR_EWUP_MASK                          ((uint32_t)0x00003F00)
  78:../../Drivers/STM32F7xx_HAL_Driver/Src/stm32f7xx_hal_pwr.c **** /**
  79:../../Drivers/STM32F7xx_HAL_Driver/Src/stm32f7xx_hal_pwr.c ****   * @}
  80:../../Drivers/STM32F7xx_HAL_Driver/Src/stm32f7xx_hal_pwr.c ****   */
  81:../../Drivers/STM32F7xx_HAL_Driver/Src/stm32f7xx_hal_pwr.c **** 
  82:../../Drivers/STM32F7xx_HAL_Driver/Src/stm32f7xx_hal_pwr.c **** /**
  83:../../Drivers/STM32F7xx_HAL_Driver/Src/stm32f7xx_hal_pwr.c ****   * @}
  84:../../Drivers/STM32F7xx_HAL_Driver/Src/stm32f7xx_hal_pwr.c ****   */
  85:../../Drivers/STM32F7xx_HAL_Driver/Src/stm32f7xx_hal_pwr.c **** /* Private macro -------------------------------------------------------------*/
  86:../../Drivers/STM32F7xx_HAL_Driver/Src/stm32f7xx_hal_pwr.c **** /* Private variables ---------------------------------------------------------*/
  87:../../Drivers/STM32F7xx_HAL_Driver/Src/stm32f7xx_hal_pwr.c **** /* Private function prototypes -----------------------------------------------*/
ARM GAS  /tmp/cc3FfnUx.s 			page 3


  88:../../Drivers/STM32F7xx_HAL_Driver/Src/stm32f7xx_hal_pwr.c **** /* Private functions ---------------------------------------------------------*/
  89:../../Drivers/STM32F7xx_HAL_Driver/Src/stm32f7xx_hal_pwr.c **** 
  90:../../Drivers/STM32F7xx_HAL_Driver/Src/stm32f7xx_hal_pwr.c **** /** @defgroup PWR_Exported_Functions PWR Exported Functions
  91:../../Drivers/STM32F7xx_HAL_Driver/Src/stm32f7xx_hal_pwr.c ****   * @{
  92:../../Drivers/STM32F7xx_HAL_Driver/Src/stm32f7xx_hal_pwr.c ****   */
  93:../../Drivers/STM32F7xx_HAL_Driver/Src/stm32f7xx_hal_pwr.c **** 
  94:../../Drivers/STM32F7xx_HAL_Driver/Src/stm32f7xx_hal_pwr.c **** /** @defgroup PWR_Exported_Functions_Group1 Initialization and de-initialization functions 
  95:../../Drivers/STM32F7xx_HAL_Driver/Src/stm32f7xx_hal_pwr.c ****   *  @brief    Initialization and de-initialization functions
  96:../../Drivers/STM32F7xx_HAL_Driver/Src/stm32f7xx_hal_pwr.c ****   *
  97:../../Drivers/STM32F7xx_HAL_Driver/Src/stm32f7xx_hal_pwr.c **** @verbatim
  98:../../Drivers/STM32F7xx_HAL_Driver/Src/stm32f7xx_hal_pwr.c ****  ===============================================================================
  99:../../Drivers/STM32F7xx_HAL_Driver/Src/stm32f7xx_hal_pwr.c ****               ##### Initialization and de-initialization functions #####
 100:../../Drivers/STM32F7xx_HAL_Driver/Src/stm32f7xx_hal_pwr.c ****  ===============================================================================
 101:../../Drivers/STM32F7xx_HAL_Driver/Src/stm32f7xx_hal_pwr.c ****     [..]
 102:../../Drivers/STM32F7xx_HAL_Driver/Src/stm32f7xx_hal_pwr.c ****       After reset, the backup domain (RTC registers, RTC backup data 
 103:../../Drivers/STM32F7xx_HAL_Driver/Src/stm32f7xx_hal_pwr.c ****       registers and backup SRAM) is protected against possible unwanted 
 104:../../Drivers/STM32F7xx_HAL_Driver/Src/stm32f7xx_hal_pwr.c ****       write accesses. 
 105:../../Drivers/STM32F7xx_HAL_Driver/Src/stm32f7xx_hal_pwr.c ****       To enable access to the RTC Domain and RTC registers, proceed as follows:
 106:../../Drivers/STM32F7xx_HAL_Driver/Src/stm32f7xx_hal_pwr.c ****         (+) Enable the Power Controller (PWR) APB1 interface clock using the
 107:../../Drivers/STM32F7xx_HAL_Driver/Src/stm32f7xx_hal_pwr.c ****             __HAL_RCC_PWR_CLK_ENABLE() macro.
 108:../../Drivers/STM32F7xx_HAL_Driver/Src/stm32f7xx_hal_pwr.c ****         (+) Enable access to RTC domain using the HAL_PWR_EnableBkUpAccess() function.
 109:../../Drivers/STM32F7xx_HAL_Driver/Src/stm32f7xx_hal_pwr.c ****  
 110:../../Drivers/STM32F7xx_HAL_Driver/Src/stm32f7xx_hal_pwr.c **** @endverbatim
 111:../../Drivers/STM32F7xx_HAL_Driver/Src/stm32f7xx_hal_pwr.c ****   * @{
 112:../../Drivers/STM32F7xx_HAL_Driver/Src/stm32f7xx_hal_pwr.c ****   */
 113:../../Drivers/STM32F7xx_HAL_Driver/Src/stm32f7xx_hal_pwr.c **** 
 114:../../Drivers/STM32F7xx_HAL_Driver/Src/stm32f7xx_hal_pwr.c **** /**
 115:../../Drivers/STM32F7xx_HAL_Driver/Src/stm32f7xx_hal_pwr.c ****   * @brief Deinitializes the HAL PWR peripheral registers to their default reset values.
 116:../../Drivers/STM32F7xx_HAL_Driver/Src/stm32f7xx_hal_pwr.c ****   * @retval None
 117:../../Drivers/STM32F7xx_HAL_Driver/Src/stm32f7xx_hal_pwr.c ****   */
 118:../../Drivers/STM32F7xx_HAL_Driver/Src/stm32f7xx_hal_pwr.c **** void HAL_PWR_DeInit(void)
 119:../../Drivers/STM32F7xx_HAL_Driver/Src/stm32f7xx_hal_pwr.c **** {
  29              		.loc 1 119 0
  30              		.cfi_startproc
  31              		@ args = 0, pretend = 0, frame = 0
  32              		@ frame_needed = 1, uses_anonymous_args = 0
  33              		@ link register save eliminated.
  34 0000 80B4     		push	{r7}
  35              	.LCFI0:
  36              		.cfi_def_cfa_offset 4
  37              		.cfi_offset 7, -4
  38 0002 00AF     		add	r7, sp, #0
  39              	.LCFI1:
  40              		.cfi_def_cfa_register 7
 120:../../Drivers/STM32F7xx_HAL_Driver/Src/stm32f7xx_hal_pwr.c ****   __HAL_RCC_PWR_FORCE_RESET();
  41              		.loc 1 120 0
  42 0004 074A     		ldr	r2, .L2
  43 0006 074B     		ldr	r3, .L2
  44 0008 1B6A     		ldr	r3, [r3, #32]
  45 000a 43F08053 		orr	r3, r3, #268435456
  46 000e 1362     		str	r3, [r2, #32]
 121:../../Drivers/STM32F7xx_HAL_Driver/Src/stm32f7xx_hal_pwr.c ****   __HAL_RCC_PWR_RELEASE_RESET();
  47              		.loc 1 121 0
  48 0010 044A     		ldr	r2, .L2
  49 0012 044B     		ldr	r3, .L2
  50 0014 1B6A     		ldr	r3, [r3, #32]
  51 0016 23F08053 		bic	r3, r3, #268435456
ARM GAS  /tmp/cc3FfnUx.s 			page 4


  52 001a 1362     		str	r3, [r2, #32]
 122:../../Drivers/STM32F7xx_HAL_Driver/Src/stm32f7xx_hal_pwr.c **** }
  53              		.loc 1 122 0
  54 001c BD46     		mov	sp, r7
  55              	.LCFI2:
  56              		.cfi_def_cfa_register 13
  57              		@ sp needed
  58 001e 5DF8047B 		ldr	r7, [sp], #4
  59              	.LCFI3:
  60              		.cfi_restore 7
  61              		.cfi_def_cfa_offset 0
  62 0022 7047     		bx	lr
  63              	.L3:
  64              		.align	2
  65              	.L2:
  66 0024 00380240 		.word	1073887232
  67              		.cfi_endproc
  68              	.LFE135:
  70              		.section	.text.HAL_PWR_EnableBkUpAccess,"ax",%progbits
  71              		.align	2
  72              		.global	HAL_PWR_EnableBkUpAccess
  73              		.thumb
  74              		.thumb_func
  76              	HAL_PWR_EnableBkUpAccess:
  77              	.LFB136:
 123:../../Drivers/STM32F7xx_HAL_Driver/Src/stm32f7xx_hal_pwr.c **** 
 124:../../Drivers/STM32F7xx_HAL_Driver/Src/stm32f7xx_hal_pwr.c **** /**
 125:../../Drivers/STM32F7xx_HAL_Driver/Src/stm32f7xx_hal_pwr.c ****   * @brief Enables access to the backup domain (RTC registers, RTC 
 126:../../Drivers/STM32F7xx_HAL_Driver/Src/stm32f7xx_hal_pwr.c ****   *         backup data registers and backup SRAM).
 127:../../Drivers/STM32F7xx_HAL_Driver/Src/stm32f7xx_hal_pwr.c ****   * @note If the HSE divided by 2, 3, ..31 is used as the RTC clock, the 
 128:../../Drivers/STM32F7xx_HAL_Driver/Src/stm32f7xx_hal_pwr.c ****   *         Backup Domain Access should be kept enabled.
 129:../../Drivers/STM32F7xx_HAL_Driver/Src/stm32f7xx_hal_pwr.c ****   * @retval None
 130:../../Drivers/STM32F7xx_HAL_Driver/Src/stm32f7xx_hal_pwr.c ****   */
 131:../../Drivers/STM32F7xx_HAL_Driver/Src/stm32f7xx_hal_pwr.c **** void HAL_PWR_EnableBkUpAccess(void)
 132:../../Drivers/STM32F7xx_HAL_Driver/Src/stm32f7xx_hal_pwr.c **** {
  78              		.loc 1 132 0
  79              		.cfi_startproc
  80              		@ args = 0, pretend = 0, frame = 0
  81              		@ frame_needed = 1, uses_anonymous_args = 0
  82              		@ link register save eliminated.
  83 0000 80B4     		push	{r7}
  84              	.LCFI4:
  85              		.cfi_def_cfa_offset 4
  86              		.cfi_offset 7, -4
  87 0002 00AF     		add	r7, sp, #0
  88              	.LCFI5:
  89              		.cfi_def_cfa_register 7
 133:../../Drivers/STM32F7xx_HAL_Driver/Src/stm32f7xx_hal_pwr.c ****   /* Enable access to RTC and backup registers */
 134:../../Drivers/STM32F7xx_HAL_Driver/Src/stm32f7xx_hal_pwr.c ****   SET_BIT(PWR->CR1, PWR_CR1_DBP);
  90              		.loc 1 134 0
  91 0004 044A     		ldr	r2, .L5
  92 0006 044B     		ldr	r3, .L5
  93 0008 1B68     		ldr	r3, [r3]
  94 000a 43F48073 		orr	r3, r3, #256
  95 000e 1360     		str	r3, [r2]
 135:../../Drivers/STM32F7xx_HAL_Driver/Src/stm32f7xx_hal_pwr.c **** }
  96              		.loc 1 135 0
ARM GAS  /tmp/cc3FfnUx.s 			page 5


  97 0010 BD46     		mov	sp, r7
  98              	.LCFI6:
  99              		.cfi_def_cfa_register 13
 100              		@ sp needed
 101 0012 5DF8047B 		ldr	r7, [sp], #4
 102              	.LCFI7:
 103              		.cfi_restore 7
 104              		.cfi_def_cfa_offset 0
 105 0016 7047     		bx	lr
 106              	.L6:
 107              		.align	2
 108              	.L5:
 109 0018 00700040 		.word	1073770496
 110              		.cfi_endproc
 111              	.LFE136:
 113              		.section	.text.HAL_PWR_DisableBkUpAccess,"ax",%progbits
 114              		.align	2
 115              		.global	HAL_PWR_DisableBkUpAccess
 116              		.thumb
 117              		.thumb_func
 119              	HAL_PWR_DisableBkUpAccess:
 120              	.LFB137:
 136:../../Drivers/STM32F7xx_HAL_Driver/Src/stm32f7xx_hal_pwr.c **** 
 137:../../Drivers/STM32F7xx_HAL_Driver/Src/stm32f7xx_hal_pwr.c **** /**
 138:../../Drivers/STM32F7xx_HAL_Driver/Src/stm32f7xx_hal_pwr.c ****   * @brief Disables access to the backup domain (RTC registers, RTC 
 139:../../Drivers/STM32F7xx_HAL_Driver/Src/stm32f7xx_hal_pwr.c ****   *         backup data registers and backup SRAM).
 140:../../Drivers/STM32F7xx_HAL_Driver/Src/stm32f7xx_hal_pwr.c ****   * @note If the HSE divided by 2, 3, ..31 is used as the RTC clock, the 
 141:../../Drivers/STM32F7xx_HAL_Driver/Src/stm32f7xx_hal_pwr.c ****   *         Backup Domain Access should be kept enabled.
 142:../../Drivers/STM32F7xx_HAL_Driver/Src/stm32f7xx_hal_pwr.c ****   * @retval None
 143:../../Drivers/STM32F7xx_HAL_Driver/Src/stm32f7xx_hal_pwr.c ****   */
 144:../../Drivers/STM32F7xx_HAL_Driver/Src/stm32f7xx_hal_pwr.c **** void HAL_PWR_DisableBkUpAccess(void)
 145:../../Drivers/STM32F7xx_HAL_Driver/Src/stm32f7xx_hal_pwr.c **** {
 121              		.loc 1 145 0
 122              		.cfi_startproc
 123              		@ args = 0, pretend = 0, frame = 0
 124              		@ frame_needed = 1, uses_anonymous_args = 0
 125              		@ link register save eliminated.
 126 0000 80B4     		push	{r7}
 127              	.LCFI8:
 128              		.cfi_def_cfa_offset 4
 129              		.cfi_offset 7, -4
 130 0002 00AF     		add	r7, sp, #0
 131              	.LCFI9:
 132              		.cfi_def_cfa_register 7
 146:../../Drivers/STM32F7xx_HAL_Driver/Src/stm32f7xx_hal_pwr.c ****   /* Disable access to RTC and backup registers */
 147:../../Drivers/STM32F7xx_HAL_Driver/Src/stm32f7xx_hal_pwr.c **** 	CLEAR_BIT(PWR->CR1, PWR_CR1_DBP);
 133              		.loc 1 147 0
 134 0004 044A     		ldr	r2, .L8
 135 0006 044B     		ldr	r3, .L8
 136 0008 1B68     		ldr	r3, [r3]
 137 000a 23F48073 		bic	r3, r3, #256
 138 000e 1360     		str	r3, [r2]
 148:../../Drivers/STM32F7xx_HAL_Driver/Src/stm32f7xx_hal_pwr.c **** }
 139              		.loc 1 148 0
 140 0010 BD46     		mov	sp, r7
 141              	.LCFI10:
 142              		.cfi_def_cfa_register 13
ARM GAS  /tmp/cc3FfnUx.s 			page 6


 143              		@ sp needed
 144 0012 5DF8047B 		ldr	r7, [sp], #4
 145              	.LCFI11:
 146              		.cfi_restore 7
 147              		.cfi_def_cfa_offset 0
 148 0016 7047     		bx	lr
 149              	.L9:
 150              		.align	2
 151              	.L8:
 152 0018 00700040 		.word	1073770496
 153              		.cfi_endproc
 154              	.LFE137:
 156              		.section	.text.HAL_PWR_ConfigPVD,"ax",%progbits
 157              		.align	2
 158              		.global	HAL_PWR_ConfigPVD
 159              		.thumb
 160              		.thumb_func
 162              	HAL_PWR_ConfigPVD:
 163              	.LFB138:
 149:../../Drivers/STM32F7xx_HAL_Driver/Src/stm32f7xx_hal_pwr.c **** 
 150:../../Drivers/STM32F7xx_HAL_Driver/Src/stm32f7xx_hal_pwr.c **** /**
 151:../../Drivers/STM32F7xx_HAL_Driver/Src/stm32f7xx_hal_pwr.c ****   * @}
 152:../../Drivers/STM32F7xx_HAL_Driver/Src/stm32f7xx_hal_pwr.c ****   */
 153:../../Drivers/STM32F7xx_HAL_Driver/Src/stm32f7xx_hal_pwr.c **** 
 154:../../Drivers/STM32F7xx_HAL_Driver/Src/stm32f7xx_hal_pwr.c **** /** @defgroup PWR_Exported_Functions_Group2 Peripheral Control functions 
 155:../../Drivers/STM32F7xx_HAL_Driver/Src/stm32f7xx_hal_pwr.c ****   *  @brief Low Power modes configuration functions 
 156:../../Drivers/STM32F7xx_HAL_Driver/Src/stm32f7xx_hal_pwr.c ****   *
 157:../../Drivers/STM32F7xx_HAL_Driver/Src/stm32f7xx_hal_pwr.c **** @verbatim
 158:../../Drivers/STM32F7xx_HAL_Driver/Src/stm32f7xx_hal_pwr.c **** 
 159:../../Drivers/STM32F7xx_HAL_Driver/Src/stm32f7xx_hal_pwr.c ****  ===============================================================================
 160:../../Drivers/STM32F7xx_HAL_Driver/Src/stm32f7xx_hal_pwr.c ****                  ##### Peripheral Control functions #####
 161:../../Drivers/STM32F7xx_HAL_Driver/Src/stm32f7xx_hal_pwr.c ****  ===============================================================================
 162:../../Drivers/STM32F7xx_HAL_Driver/Src/stm32f7xx_hal_pwr.c ****      
 163:../../Drivers/STM32F7xx_HAL_Driver/Src/stm32f7xx_hal_pwr.c ****     *** PVD configuration ***
 164:../../Drivers/STM32F7xx_HAL_Driver/Src/stm32f7xx_hal_pwr.c ****     =========================
 165:../../Drivers/STM32F7xx_HAL_Driver/Src/stm32f7xx_hal_pwr.c ****     [..]
 166:../../Drivers/STM32F7xx_HAL_Driver/Src/stm32f7xx_hal_pwr.c ****       (+) The PVD is used to monitor the VDD power supply by comparing it to a 
 167:../../Drivers/STM32F7xx_HAL_Driver/Src/stm32f7xx_hal_pwr.c ****           threshold selected by the PVD Level (PLS[2:0] bits in the PWR_CR).
 168:../../Drivers/STM32F7xx_HAL_Driver/Src/stm32f7xx_hal_pwr.c ****       (+) A PVDO flag is available to indicate if VDD/VDDA is higher or lower 
 169:../../Drivers/STM32F7xx_HAL_Driver/Src/stm32f7xx_hal_pwr.c ****           than the PVD threshold. This event is internally connected to the EXTI 
 170:../../Drivers/STM32F7xx_HAL_Driver/Src/stm32f7xx_hal_pwr.c ****           line16 and can generate an interrupt if enabled. This is done through
 171:../../Drivers/STM32F7xx_HAL_Driver/Src/stm32f7xx_hal_pwr.c ****           __HAL_PWR_PVD_EXTI_ENABLE_IT() macro.
 172:../../Drivers/STM32F7xx_HAL_Driver/Src/stm32f7xx_hal_pwr.c ****       (+) The PVD is stopped in Standby mode.
 173:../../Drivers/STM32F7xx_HAL_Driver/Src/stm32f7xx_hal_pwr.c **** 
 174:../../Drivers/STM32F7xx_HAL_Driver/Src/stm32f7xx_hal_pwr.c ****     *** Wake-up pin configuration ***
 175:../../Drivers/STM32F7xx_HAL_Driver/Src/stm32f7xx_hal_pwr.c ****     ================================
 176:../../Drivers/STM32F7xx_HAL_Driver/Src/stm32f7xx_hal_pwr.c ****     [..]
 177:../../Drivers/STM32F7xx_HAL_Driver/Src/stm32f7xx_hal_pwr.c ****       (+) Wake-up pin is used to wake up the system from Standby mode. This pin is 
 178:../../Drivers/STM32F7xx_HAL_Driver/Src/stm32f7xx_hal_pwr.c ****           forced in input pull-down configuration and is active on rising edges.
 179:../../Drivers/STM32F7xx_HAL_Driver/Src/stm32f7xx_hal_pwr.c ****       (+) There are to 6 Wake-up pin in the STM32F7 devices family
 180:../../Drivers/STM32F7xx_HAL_Driver/Src/stm32f7xx_hal_pwr.c **** 
 181:../../Drivers/STM32F7xx_HAL_Driver/Src/stm32f7xx_hal_pwr.c ****     *** Low Power modes configuration ***
 182:../../Drivers/STM32F7xx_HAL_Driver/Src/stm32f7xx_hal_pwr.c ****     =====================================
 183:../../Drivers/STM32F7xx_HAL_Driver/Src/stm32f7xx_hal_pwr.c ****     [..]
 184:../../Drivers/STM32F7xx_HAL_Driver/Src/stm32f7xx_hal_pwr.c ****       The devices feature 3 low-power modes:
 185:../../Drivers/STM32F7xx_HAL_Driver/Src/stm32f7xx_hal_pwr.c ****       (+) Sleep mode: Cortex-M7 core stopped, peripherals kept running.
 186:../../Drivers/STM32F7xx_HAL_Driver/Src/stm32f7xx_hal_pwr.c ****       (+) Stop mode: all clocks are stopped, regulator running, regulator 
ARM GAS  /tmp/cc3FfnUx.s 			page 7


 187:../../Drivers/STM32F7xx_HAL_Driver/Src/stm32f7xx_hal_pwr.c ****           in low power mode
 188:../../Drivers/STM32F7xx_HAL_Driver/Src/stm32f7xx_hal_pwr.c ****       (+) Standby mode: 1.2V domain powered off.
 189:../../Drivers/STM32F7xx_HAL_Driver/Src/stm32f7xx_hal_pwr.c ****    
 190:../../Drivers/STM32F7xx_HAL_Driver/Src/stm32f7xx_hal_pwr.c ****    *** Sleep mode ***
 191:../../Drivers/STM32F7xx_HAL_Driver/Src/stm32f7xx_hal_pwr.c ****    ==================
 192:../../Drivers/STM32F7xx_HAL_Driver/Src/stm32f7xx_hal_pwr.c ****     [..]
 193:../../Drivers/STM32F7xx_HAL_Driver/Src/stm32f7xx_hal_pwr.c ****       (+) Entry:
 194:../../Drivers/STM32F7xx_HAL_Driver/Src/stm32f7xx_hal_pwr.c ****         The Sleep mode is entered by using the HAL_PWR_EnterSLEEPMode(PWR_MAINREGULATOR_ON, PWR_SLE
 195:../../Drivers/STM32F7xx_HAL_Driver/Src/stm32f7xx_hal_pwr.c ****               functions with
 196:../../Drivers/STM32F7xx_HAL_Driver/Src/stm32f7xx_hal_pwr.c ****           (++) PWR_SLEEPENTRY_WFI: enter SLEEP mode with WFI instruction
 197:../../Drivers/STM32F7xx_HAL_Driver/Src/stm32f7xx_hal_pwr.c ****           (++) PWR_SLEEPENTRY_WFE: enter SLEEP mode with WFE instruction
 198:../../Drivers/STM32F7xx_HAL_Driver/Src/stm32f7xx_hal_pwr.c ****       
 199:../../Drivers/STM32F7xx_HAL_Driver/Src/stm32f7xx_hal_pwr.c ****       -@@- The Regulator parameter is not used for the STM32F7 family 
 200:../../Drivers/STM32F7xx_HAL_Driver/Src/stm32f7xx_hal_pwr.c ****               and is kept as parameter just to maintain compatibility with the 
 201:../../Drivers/STM32F7xx_HAL_Driver/Src/stm32f7xx_hal_pwr.c ****               lower power families (STM32L).
 202:../../Drivers/STM32F7xx_HAL_Driver/Src/stm32f7xx_hal_pwr.c ****       (+) Exit:
 203:../../Drivers/STM32F7xx_HAL_Driver/Src/stm32f7xx_hal_pwr.c ****         Any peripheral interrupt acknowledged by the nested vectored interrupt 
 204:../../Drivers/STM32F7xx_HAL_Driver/Src/stm32f7xx_hal_pwr.c ****               controller (NVIC) can wake up the device from Sleep mode.
 205:../../Drivers/STM32F7xx_HAL_Driver/Src/stm32f7xx_hal_pwr.c **** 
 206:../../Drivers/STM32F7xx_HAL_Driver/Src/stm32f7xx_hal_pwr.c ****    *** Stop mode ***
 207:../../Drivers/STM32F7xx_HAL_Driver/Src/stm32f7xx_hal_pwr.c ****    =================
 208:../../Drivers/STM32F7xx_HAL_Driver/Src/stm32f7xx_hal_pwr.c ****     [..]
 209:../../Drivers/STM32F7xx_HAL_Driver/Src/stm32f7xx_hal_pwr.c ****       In Stop mode, all clocks in the 1.2V domain are stopped, the PLL, the HSI,
 210:../../Drivers/STM32F7xx_HAL_Driver/Src/stm32f7xx_hal_pwr.c ****       and the HSE RC oscillators are disabled. Internal SRAM and register contents 
 211:../../Drivers/STM32F7xx_HAL_Driver/Src/stm32f7xx_hal_pwr.c ****       are preserved.
 212:../../Drivers/STM32F7xx_HAL_Driver/Src/stm32f7xx_hal_pwr.c ****       The voltage regulator can be configured either in normal or low-power mode.
 213:../../Drivers/STM32F7xx_HAL_Driver/Src/stm32f7xx_hal_pwr.c ****       To minimize the consumption In Stop mode, FLASH can be powered off before 
 214:../../Drivers/STM32F7xx_HAL_Driver/Src/stm32f7xx_hal_pwr.c ****       entering the Stop mode using the HAL_PWREx_EnableFlashPowerDown() function.
 215:../../Drivers/STM32F7xx_HAL_Driver/Src/stm32f7xx_hal_pwr.c ****       It can be switched on again by software after exiting the Stop mode using
 216:../../Drivers/STM32F7xx_HAL_Driver/Src/stm32f7xx_hal_pwr.c ****       the HAL_PWREx_DisableFlashPowerDown() function. 
 217:../../Drivers/STM32F7xx_HAL_Driver/Src/stm32f7xx_hal_pwr.c **** 
 218:../../Drivers/STM32F7xx_HAL_Driver/Src/stm32f7xx_hal_pwr.c ****       (+) Entry:
 219:../../Drivers/STM32F7xx_HAL_Driver/Src/stm32f7xx_hal_pwr.c ****          The Stop mode is entered using the HAL_PWR_EnterSTOPMode(PWR_MAINREGULATOR_ON) 
 220:../../Drivers/STM32F7xx_HAL_Driver/Src/stm32f7xx_hal_pwr.c ****              function with:
 221:../../Drivers/STM32F7xx_HAL_Driver/Src/stm32f7xx_hal_pwr.c ****           (++) Main regulator ON.
 222:../../Drivers/STM32F7xx_HAL_Driver/Src/stm32f7xx_hal_pwr.c ****           (++) Low Power regulator ON.
 223:../../Drivers/STM32F7xx_HAL_Driver/Src/stm32f7xx_hal_pwr.c ****       (+) Exit:
 224:../../Drivers/STM32F7xx_HAL_Driver/Src/stm32f7xx_hal_pwr.c ****         Any EXTI Line (Internal or External) configured in Interrupt/Event mode.
 225:../../Drivers/STM32F7xx_HAL_Driver/Src/stm32f7xx_hal_pwr.c **** 
 226:../../Drivers/STM32F7xx_HAL_Driver/Src/stm32f7xx_hal_pwr.c ****    *** Standby mode ***
 227:../../Drivers/STM32F7xx_HAL_Driver/Src/stm32f7xx_hal_pwr.c ****    ====================
 228:../../Drivers/STM32F7xx_HAL_Driver/Src/stm32f7xx_hal_pwr.c ****     [..]
 229:../../Drivers/STM32F7xx_HAL_Driver/Src/stm32f7xx_hal_pwr.c ****     (+)
 230:../../Drivers/STM32F7xx_HAL_Driver/Src/stm32f7xx_hal_pwr.c ****       The Standby mode allows to achieve the lowest power consumption. It is based 
 231:../../Drivers/STM32F7xx_HAL_Driver/Src/stm32f7xx_hal_pwr.c ****       on the Cortex-M7 deep sleep mode, with the voltage regulator disabled. 
 232:../../Drivers/STM32F7xx_HAL_Driver/Src/stm32f7xx_hal_pwr.c ****       The 1.2V domain is consequently powered off. The PLL, the HSI oscillator and 
 233:../../Drivers/STM32F7xx_HAL_Driver/Src/stm32f7xx_hal_pwr.c ****       the HSE oscillator are also switched off. SRAM and register contents are lost 
 234:../../Drivers/STM32F7xx_HAL_Driver/Src/stm32f7xx_hal_pwr.c ****       except for the RTC registers, RTC backup registers, backup SRAM and Standby 
 235:../../Drivers/STM32F7xx_HAL_Driver/Src/stm32f7xx_hal_pwr.c ****       circuitry.
 236:../../Drivers/STM32F7xx_HAL_Driver/Src/stm32f7xx_hal_pwr.c ****    
 237:../../Drivers/STM32F7xx_HAL_Driver/Src/stm32f7xx_hal_pwr.c ****       The voltage regulator is OFF.
 238:../../Drivers/STM32F7xx_HAL_Driver/Src/stm32f7xx_hal_pwr.c ****       
 239:../../Drivers/STM32F7xx_HAL_Driver/Src/stm32f7xx_hal_pwr.c ****       (++) Entry:
 240:../../Drivers/STM32F7xx_HAL_Driver/Src/stm32f7xx_hal_pwr.c ****         (+++) The Standby mode is entered using the HAL_PWR_EnterSTANDBYMode() function.
 241:../../Drivers/STM32F7xx_HAL_Driver/Src/stm32f7xx_hal_pwr.c ****       (++) Exit:
 242:../../Drivers/STM32F7xx_HAL_Driver/Src/stm32f7xx_hal_pwr.c ****         (+++) WKUP pin rising or falling edge, RTC alarm (Alarm A and Alarm B), RTC
 243:../../Drivers/STM32F7xx_HAL_Driver/Src/stm32f7xx_hal_pwr.c ****              wakeup, tamper event, time stamp event, external reset in NRST pin, IWDG reset.
ARM GAS  /tmp/cc3FfnUx.s 			page 8


 244:../../Drivers/STM32F7xx_HAL_Driver/Src/stm32f7xx_hal_pwr.c **** 
 245:../../Drivers/STM32F7xx_HAL_Driver/Src/stm32f7xx_hal_pwr.c ****    *** Auto-wakeup (AWU) from low-power mode ***
 246:../../Drivers/STM32F7xx_HAL_Driver/Src/stm32f7xx_hal_pwr.c ****    =============================================
 247:../../Drivers/STM32F7xx_HAL_Driver/Src/stm32f7xx_hal_pwr.c ****     [..]
 248:../../Drivers/STM32F7xx_HAL_Driver/Src/stm32f7xx_hal_pwr.c ****     
 249:../../Drivers/STM32F7xx_HAL_Driver/Src/stm32f7xx_hal_pwr.c ****      (+) The MCU can be woken up from low-power mode by an RTC Alarm event, an RTC 
 250:../../Drivers/STM32F7xx_HAL_Driver/Src/stm32f7xx_hal_pwr.c ****       Wakeup event, a tamper event or a time-stamp event, without depending on 
 251:../../Drivers/STM32F7xx_HAL_Driver/Src/stm32f7xx_hal_pwr.c ****       an external interrupt (Auto-wakeup mode).
 252:../../Drivers/STM32F7xx_HAL_Driver/Src/stm32f7xx_hal_pwr.c **** 
 253:../../Drivers/STM32F7xx_HAL_Driver/Src/stm32f7xx_hal_pwr.c ****       (+) RTC auto-wakeup (AWU) from the Stop and Standby modes
 254:../../Drivers/STM32F7xx_HAL_Driver/Src/stm32f7xx_hal_pwr.c ****        
 255:../../Drivers/STM32F7xx_HAL_Driver/Src/stm32f7xx_hal_pwr.c ****         (++) To wake up from the Stop mode with an RTC alarm event, it is necessary to 
 256:../../Drivers/STM32F7xx_HAL_Driver/Src/stm32f7xx_hal_pwr.c ****               configure the RTC to generate the RTC alarm using the HAL_RTC_SetAlarm_IT() function.
 257:../../Drivers/STM32F7xx_HAL_Driver/Src/stm32f7xx_hal_pwr.c **** 
 258:../../Drivers/STM32F7xx_HAL_Driver/Src/stm32f7xx_hal_pwr.c ****         (++) To wake up from the Stop mode with an RTC Tamper or time stamp event, it 
 259:../../Drivers/STM32F7xx_HAL_Driver/Src/stm32f7xx_hal_pwr.c ****              is necessary to configure the RTC to detect the tamper or time stamp event using the
 260:../../Drivers/STM32F7xx_HAL_Driver/Src/stm32f7xx_hal_pwr.c ****                 HAL_RTCEx_SetTimeStamp_IT() or HAL_RTCEx_SetTamper_IT() functions.
 261:../../Drivers/STM32F7xx_HAL_Driver/Src/stm32f7xx_hal_pwr.c ****                   
 262:../../Drivers/STM32F7xx_HAL_Driver/Src/stm32f7xx_hal_pwr.c ****         (++) To wake up from the Stop mode with an RTC WakeUp event, it is necessary to
 263:../../Drivers/STM32F7xx_HAL_Driver/Src/stm32f7xx_hal_pwr.c ****               configure the RTC to generate the RTC WakeUp event using the HAL_RTCEx_SetWakeUpTimer
 264:../../Drivers/STM32F7xx_HAL_Driver/Src/stm32f7xx_hal_pwr.c **** 
 265:../../Drivers/STM32F7xx_HAL_Driver/Src/stm32f7xx_hal_pwr.c **** @endverbatim
 266:../../Drivers/STM32F7xx_HAL_Driver/Src/stm32f7xx_hal_pwr.c ****   * @{
 267:../../Drivers/STM32F7xx_HAL_Driver/Src/stm32f7xx_hal_pwr.c ****   */
 268:../../Drivers/STM32F7xx_HAL_Driver/Src/stm32f7xx_hal_pwr.c **** 
 269:../../Drivers/STM32F7xx_HAL_Driver/Src/stm32f7xx_hal_pwr.c **** /**
 270:../../Drivers/STM32F7xx_HAL_Driver/Src/stm32f7xx_hal_pwr.c ****   * @brief Configures the voltage threshold detected by the Power Voltage Detector(PVD).
 271:../../Drivers/STM32F7xx_HAL_Driver/Src/stm32f7xx_hal_pwr.c ****   * @param sConfigPVD: pointer to an PWR_PVDTypeDef structure that contains the configuration
 272:../../Drivers/STM32F7xx_HAL_Driver/Src/stm32f7xx_hal_pwr.c ****   *        information for the PVD.
 273:../../Drivers/STM32F7xx_HAL_Driver/Src/stm32f7xx_hal_pwr.c ****   * @note Refer to the electrical characteristics of your device datasheet for
 274:../../Drivers/STM32F7xx_HAL_Driver/Src/stm32f7xx_hal_pwr.c ****   *         more details about the voltage threshold corresponding to each 
 275:../../Drivers/STM32F7xx_HAL_Driver/Src/stm32f7xx_hal_pwr.c ****   *         detection level.
 276:../../Drivers/STM32F7xx_HAL_Driver/Src/stm32f7xx_hal_pwr.c ****   * @retval None
 277:../../Drivers/STM32F7xx_HAL_Driver/Src/stm32f7xx_hal_pwr.c ****   */
 278:../../Drivers/STM32F7xx_HAL_Driver/Src/stm32f7xx_hal_pwr.c **** void HAL_PWR_ConfigPVD(PWR_PVDTypeDef *sConfigPVD)
 279:../../Drivers/STM32F7xx_HAL_Driver/Src/stm32f7xx_hal_pwr.c **** {
 164              		.loc 1 279 0
 165              		.cfi_startproc
 166              		@ args = 0, pretend = 0, frame = 8
 167              		@ frame_needed = 1, uses_anonymous_args = 0
 168              		@ link register save eliminated.
 169 0000 80B4     		push	{r7}
 170              	.LCFI12:
 171              		.cfi_def_cfa_offset 4
 172              		.cfi_offset 7, -4
 173 0002 83B0     		sub	sp, sp, #12
 174              	.LCFI13:
 175              		.cfi_def_cfa_offset 16
 176 0004 00AF     		add	r7, sp, #0
 177              	.LCFI14:
 178              		.cfi_def_cfa_register 7
 179 0006 7860     		str	r0, [r7, #4]
 280:../../Drivers/STM32F7xx_HAL_Driver/Src/stm32f7xx_hal_pwr.c ****   /* Check the parameters */
 281:../../Drivers/STM32F7xx_HAL_Driver/Src/stm32f7xx_hal_pwr.c ****   assert_param(IS_PWR_PVD_LEVEL(sConfigPVD->PVDLevel));
 282:../../Drivers/STM32F7xx_HAL_Driver/Src/stm32f7xx_hal_pwr.c ****   assert_param(IS_PWR_PVD_MODE(sConfigPVD->Mode));
 283:../../Drivers/STM32F7xx_HAL_Driver/Src/stm32f7xx_hal_pwr.c ****   
 284:../../Drivers/STM32F7xx_HAL_Driver/Src/stm32f7xx_hal_pwr.c ****   /* Set PLS[7:5] bits according to PVDLevel value */
ARM GAS  /tmp/cc3FfnUx.s 			page 9


 285:../../Drivers/STM32F7xx_HAL_Driver/Src/stm32f7xx_hal_pwr.c ****   MODIFY_REG(PWR->CR1, PWR_CR1_PLS, sConfigPVD->PVDLevel);
 180              		.loc 1 285 0
 181 0008 2A49     		ldr	r1, .L15
 182 000a 2A4B     		ldr	r3, .L15
 183 000c 1B68     		ldr	r3, [r3]
 184 000e 23F0E002 		bic	r2, r3, #224
 185 0012 7B68     		ldr	r3, [r7, #4]
 186 0014 1B68     		ldr	r3, [r3]
 187 0016 1343     		orrs	r3, r3, r2
 188 0018 0B60     		str	r3, [r1]
 286:../../Drivers/STM32F7xx_HAL_Driver/Src/stm32f7xx_hal_pwr.c ****   
 287:../../Drivers/STM32F7xx_HAL_Driver/Src/stm32f7xx_hal_pwr.c ****   /* Clear any previous config. Keep it clear if no event or IT mode is selected */
 288:../../Drivers/STM32F7xx_HAL_Driver/Src/stm32f7xx_hal_pwr.c ****   __HAL_PWR_PVD_EXTI_DISABLE_EVENT();
 189              		.loc 1 288 0
 190 001a 274A     		ldr	r2, .L15+4
 191 001c 264B     		ldr	r3, .L15+4
 192 001e 5B68     		ldr	r3, [r3, #4]
 193 0020 23F48033 		bic	r3, r3, #65536
 194 0024 5360     		str	r3, [r2, #4]
 289:../../Drivers/STM32F7xx_HAL_Driver/Src/stm32f7xx_hal_pwr.c ****   __HAL_PWR_PVD_EXTI_DISABLE_IT();
 195              		.loc 1 289 0
 196 0026 244A     		ldr	r2, .L15+4
 197 0028 234B     		ldr	r3, .L15+4
 198 002a 1B68     		ldr	r3, [r3]
 199 002c 23F48033 		bic	r3, r3, #65536
 200 0030 1360     		str	r3, [r2]
 290:../../Drivers/STM32F7xx_HAL_Driver/Src/stm32f7xx_hal_pwr.c ****   __HAL_PWR_PVD_EXTI_DISABLE_RISING_EDGE();
 201              		.loc 1 290 0
 202 0032 214A     		ldr	r2, .L15+4
 203 0034 204B     		ldr	r3, .L15+4
 204 0036 9B68     		ldr	r3, [r3, #8]
 205 0038 23F48033 		bic	r3, r3, #65536
 206 003c 9360     		str	r3, [r2, #8]
 291:../../Drivers/STM32F7xx_HAL_Driver/Src/stm32f7xx_hal_pwr.c ****   __HAL_PWR_PVD_EXTI_DISABLE_FALLING_EDGE(); 
 207              		.loc 1 291 0
 208 003e 1E4A     		ldr	r2, .L15+4
 209 0040 1D4B     		ldr	r3, .L15+4
 210 0042 DB68     		ldr	r3, [r3, #12]
 211 0044 23F48033 		bic	r3, r3, #65536
 212 0048 D360     		str	r3, [r2, #12]
 292:../../Drivers/STM32F7xx_HAL_Driver/Src/stm32f7xx_hal_pwr.c **** 
 293:../../Drivers/STM32F7xx_HAL_Driver/Src/stm32f7xx_hal_pwr.c ****   /* Configure interrupt mode */
 294:../../Drivers/STM32F7xx_HAL_Driver/Src/stm32f7xx_hal_pwr.c ****   if((sConfigPVD->Mode & PVD_MODE_IT) == PVD_MODE_IT)
 213              		.loc 1 294 0
 214 004a 7B68     		ldr	r3, [r7, #4]
 215 004c 5B68     		ldr	r3, [r3, #4]
 216 004e 03F48033 		and	r3, r3, #65536
 217 0052 002B     		cmp	r3, #0
 218 0054 05D0     		beq	.L11
 295:../../Drivers/STM32F7xx_HAL_Driver/Src/stm32f7xx_hal_pwr.c ****   {
 296:../../Drivers/STM32F7xx_HAL_Driver/Src/stm32f7xx_hal_pwr.c ****     __HAL_PWR_PVD_EXTI_ENABLE_IT();
 219              		.loc 1 296 0
 220 0056 184A     		ldr	r2, .L15+4
 221 0058 174B     		ldr	r3, .L15+4
 222 005a 1B68     		ldr	r3, [r3]
 223 005c 43F48033 		orr	r3, r3, #65536
 224 0060 1360     		str	r3, [r2]
ARM GAS  /tmp/cc3FfnUx.s 			page 10


 225              	.L11:
 297:../../Drivers/STM32F7xx_HAL_Driver/Src/stm32f7xx_hal_pwr.c ****   }
 298:../../Drivers/STM32F7xx_HAL_Driver/Src/stm32f7xx_hal_pwr.c ****   
 299:../../Drivers/STM32F7xx_HAL_Driver/Src/stm32f7xx_hal_pwr.c ****   /* Configure event mode */
 300:../../Drivers/STM32F7xx_HAL_Driver/Src/stm32f7xx_hal_pwr.c ****   if((sConfigPVD->Mode & PVD_MODE_EVT) == PVD_MODE_EVT)
 226              		.loc 1 300 0
 227 0062 7B68     		ldr	r3, [r7, #4]
 228 0064 5B68     		ldr	r3, [r3, #4]
 229 0066 03F40033 		and	r3, r3, #131072
 230 006a 002B     		cmp	r3, #0
 231 006c 05D0     		beq	.L12
 301:../../Drivers/STM32F7xx_HAL_Driver/Src/stm32f7xx_hal_pwr.c ****   {
 302:../../Drivers/STM32F7xx_HAL_Driver/Src/stm32f7xx_hal_pwr.c ****     __HAL_PWR_PVD_EXTI_ENABLE_EVENT();
 232              		.loc 1 302 0
 233 006e 124A     		ldr	r2, .L15+4
 234 0070 114B     		ldr	r3, .L15+4
 235 0072 5B68     		ldr	r3, [r3, #4]
 236 0074 43F48033 		orr	r3, r3, #65536
 237 0078 5360     		str	r3, [r2, #4]
 238              	.L12:
 303:../../Drivers/STM32F7xx_HAL_Driver/Src/stm32f7xx_hal_pwr.c ****   }
 304:../../Drivers/STM32F7xx_HAL_Driver/Src/stm32f7xx_hal_pwr.c ****   
 305:../../Drivers/STM32F7xx_HAL_Driver/Src/stm32f7xx_hal_pwr.c ****   /* Configure the edge */
 306:../../Drivers/STM32F7xx_HAL_Driver/Src/stm32f7xx_hal_pwr.c ****   if((sConfigPVD->Mode & PVD_RISING_EDGE) == PVD_RISING_EDGE)
 239              		.loc 1 306 0
 240 007a 7B68     		ldr	r3, [r7, #4]
 241 007c 5B68     		ldr	r3, [r3, #4]
 242 007e 03F00103 		and	r3, r3, #1
 243 0082 002B     		cmp	r3, #0
 244 0084 05D0     		beq	.L13
 307:../../Drivers/STM32F7xx_HAL_Driver/Src/stm32f7xx_hal_pwr.c ****   {
 308:../../Drivers/STM32F7xx_HAL_Driver/Src/stm32f7xx_hal_pwr.c ****     __HAL_PWR_PVD_EXTI_ENABLE_RISING_EDGE();
 245              		.loc 1 308 0
 246 0086 0C4A     		ldr	r2, .L15+4
 247 0088 0B4B     		ldr	r3, .L15+4
 248 008a 9B68     		ldr	r3, [r3, #8]
 249 008c 43F48033 		orr	r3, r3, #65536
 250 0090 9360     		str	r3, [r2, #8]
 251              	.L13:
 309:../../Drivers/STM32F7xx_HAL_Driver/Src/stm32f7xx_hal_pwr.c ****   }
 310:../../Drivers/STM32F7xx_HAL_Driver/Src/stm32f7xx_hal_pwr.c ****   
 311:../../Drivers/STM32F7xx_HAL_Driver/Src/stm32f7xx_hal_pwr.c ****   if((sConfigPVD->Mode & PVD_FALLING_EDGE) == PVD_FALLING_EDGE)
 252              		.loc 1 311 0
 253 0092 7B68     		ldr	r3, [r7, #4]
 254 0094 5B68     		ldr	r3, [r3, #4]
 255 0096 03F00203 		and	r3, r3, #2
 256 009a 002B     		cmp	r3, #0
 257 009c 05D0     		beq	.L10
 312:../../Drivers/STM32F7xx_HAL_Driver/Src/stm32f7xx_hal_pwr.c ****   {
 313:../../Drivers/STM32F7xx_HAL_Driver/Src/stm32f7xx_hal_pwr.c ****     __HAL_PWR_PVD_EXTI_ENABLE_FALLING_EDGE();
 258              		.loc 1 313 0
 259 009e 064A     		ldr	r2, .L15+4
 260 00a0 054B     		ldr	r3, .L15+4
 261 00a2 DB68     		ldr	r3, [r3, #12]
 262 00a4 43F48033 		orr	r3, r3, #65536
 263 00a8 D360     		str	r3, [r2, #12]
 264              	.L10:
ARM GAS  /tmp/cc3FfnUx.s 			page 11


 314:../../Drivers/STM32F7xx_HAL_Driver/Src/stm32f7xx_hal_pwr.c ****   }
 315:../../Drivers/STM32F7xx_HAL_Driver/Src/stm32f7xx_hal_pwr.c **** }
 265              		.loc 1 315 0
 266 00aa 0C37     		adds	r7, r7, #12
 267              	.LCFI15:
 268              		.cfi_def_cfa_offset 4
 269 00ac BD46     		mov	sp, r7
 270              	.LCFI16:
 271              		.cfi_def_cfa_register 13
 272              		@ sp needed
 273 00ae 5DF8047B 		ldr	r7, [sp], #4
 274              	.LCFI17:
 275              		.cfi_restore 7
 276              		.cfi_def_cfa_offset 0
 277 00b2 7047     		bx	lr
 278              	.L16:
 279              		.align	2
 280              	.L15:
 281 00b4 00700040 		.word	1073770496
 282 00b8 003C0140 		.word	1073822720
 283              		.cfi_endproc
 284              	.LFE138:
 286              		.section	.text.HAL_PWR_EnablePVD,"ax",%progbits
 287              		.align	2
 288              		.global	HAL_PWR_EnablePVD
 289              		.thumb
 290              		.thumb_func
 292              	HAL_PWR_EnablePVD:
 293              	.LFB139:
 316:../../Drivers/STM32F7xx_HAL_Driver/Src/stm32f7xx_hal_pwr.c **** 
 317:../../Drivers/STM32F7xx_HAL_Driver/Src/stm32f7xx_hal_pwr.c **** /**
 318:../../Drivers/STM32F7xx_HAL_Driver/Src/stm32f7xx_hal_pwr.c ****   * @brief Enables the Power Voltage Detector(PVD).
 319:../../Drivers/STM32F7xx_HAL_Driver/Src/stm32f7xx_hal_pwr.c ****   * @retval None
 320:../../Drivers/STM32F7xx_HAL_Driver/Src/stm32f7xx_hal_pwr.c ****   */
 321:../../Drivers/STM32F7xx_HAL_Driver/Src/stm32f7xx_hal_pwr.c **** void HAL_PWR_EnablePVD(void)
 322:../../Drivers/STM32F7xx_HAL_Driver/Src/stm32f7xx_hal_pwr.c **** {
 294              		.loc 1 322 0
 295              		.cfi_startproc
 296              		@ args = 0, pretend = 0, frame = 0
 297              		@ frame_needed = 1, uses_anonymous_args = 0
 298              		@ link register save eliminated.
 299 0000 80B4     		push	{r7}
 300              	.LCFI18:
 301              		.cfi_def_cfa_offset 4
 302              		.cfi_offset 7, -4
 303 0002 00AF     		add	r7, sp, #0
 304              	.LCFI19:
 305              		.cfi_def_cfa_register 7
 323:../../Drivers/STM32F7xx_HAL_Driver/Src/stm32f7xx_hal_pwr.c ****   /* Enable the power voltage detector */
 324:../../Drivers/STM32F7xx_HAL_Driver/Src/stm32f7xx_hal_pwr.c **** 	SET_BIT(PWR->CR1, PWR_CR1_PVDE);
 306              		.loc 1 324 0
 307 0004 044A     		ldr	r2, .L18
 308 0006 044B     		ldr	r3, .L18
 309 0008 1B68     		ldr	r3, [r3]
 310 000a 43F01003 		orr	r3, r3, #16
 311 000e 1360     		str	r3, [r2]
 325:../../Drivers/STM32F7xx_HAL_Driver/Src/stm32f7xx_hal_pwr.c **** }
ARM GAS  /tmp/cc3FfnUx.s 			page 12


 312              		.loc 1 325 0
 313 0010 BD46     		mov	sp, r7
 314              	.LCFI20:
 315              		.cfi_def_cfa_register 13
 316              		@ sp needed
 317 0012 5DF8047B 		ldr	r7, [sp], #4
 318              	.LCFI21:
 319              		.cfi_restore 7
 320              		.cfi_def_cfa_offset 0
 321 0016 7047     		bx	lr
 322              	.L19:
 323              		.align	2
 324              	.L18:
 325 0018 00700040 		.word	1073770496
 326              		.cfi_endproc
 327              	.LFE139:
 329              		.section	.text.HAL_PWR_DisablePVD,"ax",%progbits
 330              		.align	2
 331              		.global	HAL_PWR_DisablePVD
 332              		.thumb
 333              		.thumb_func
 335              	HAL_PWR_DisablePVD:
 336              	.LFB140:
 326:../../Drivers/STM32F7xx_HAL_Driver/Src/stm32f7xx_hal_pwr.c **** 
 327:../../Drivers/STM32F7xx_HAL_Driver/Src/stm32f7xx_hal_pwr.c **** /**
 328:../../Drivers/STM32F7xx_HAL_Driver/Src/stm32f7xx_hal_pwr.c ****   * @brief Disables the Power Voltage Detector(PVD).
 329:../../Drivers/STM32F7xx_HAL_Driver/Src/stm32f7xx_hal_pwr.c ****   * @retval None
 330:../../Drivers/STM32F7xx_HAL_Driver/Src/stm32f7xx_hal_pwr.c ****   */
 331:../../Drivers/STM32F7xx_HAL_Driver/Src/stm32f7xx_hal_pwr.c **** void HAL_PWR_DisablePVD(void)
 332:../../Drivers/STM32F7xx_HAL_Driver/Src/stm32f7xx_hal_pwr.c **** {
 337              		.loc 1 332 0
 338              		.cfi_startproc
 339              		@ args = 0, pretend = 0, frame = 0
 340              		@ frame_needed = 1, uses_anonymous_args = 0
 341              		@ link register save eliminated.
 342 0000 80B4     		push	{r7}
 343              	.LCFI22:
 344              		.cfi_def_cfa_offset 4
 345              		.cfi_offset 7, -4
 346 0002 00AF     		add	r7, sp, #0
 347              	.LCFI23:
 348              		.cfi_def_cfa_register 7
 333:../../Drivers/STM32F7xx_HAL_Driver/Src/stm32f7xx_hal_pwr.c ****   /* Disable the power voltage detector */
 334:../../Drivers/STM32F7xx_HAL_Driver/Src/stm32f7xx_hal_pwr.c **** 	CLEAR_BIT(PWR->CR1, PWR_CR1_PVDE);
 349              		.loc 1 334 0
 350 0004 044A     		ldr	r2, .L21
 351 0006 044B     		ldr	r3, .L21
 352 0008 1B68     		ldr	r3, [r3]
 353 000a 23F01003 		bic	r3, r3, #16
 354 000e 1360     		str	r3, [r2]
 335:../../Drivers/STM32F7xx_HAL_Driver/Src/stm32f7xx_hal_pwr.c **** }
 355              		.loc 1 335 0
 356 0010 BD46     		mov	sp, r7
 357              	.LCFI24:
 358              		.cfi_def_cfa_register 13
 359              		@ sp needed
 360 0012 5DF8047B 		ldr	r7, [sp], #4
ARM GAS  /tmp/cc3FfnUx.s 			page 13


 361              	.LCFI25:
 362              		.cfi_restore 7
 363              		.cfi_def_cfa_offset 0
 364 0016 7047     		bx	lr
 365              	.L22:
 366              		.align	2
 367              	.L21:
 368 0018 00700040 		.word	1073770496
 369              		.cfi_endproc
 370              	.LFE140:
 372              		.section	.text.HAL_PWR_EnableWakeUpPin,"ax",%progbits
 373              		.align	2
 374              		.global	HAL_PWR_EnableWakeUpPin
 375              		.thumb
 376              		.thumb_func
 378              	HAL_PWR_EnableWakeUpPin:
 379              	.LFB141:
 336:../../Drivers/STM32F7xx_HAL_Driver/Src/stm32f7xx_hal_pwr.c **** 
 337:../../Drivers/STM32F7xx_HAL_Driver/Src/stm32f7xx_hal_pwr.c **** /**
 338:../../Drivers/STM32F7xx_HAL_Driver/Src/stm32f7xx_hal_pwr.c ****   * @brief Enable the WakeUp PINx functionality.
 339:../../Drivers/STM32F7xx_HAL_Driver/Src/stm32f7xx_hal_pwr.c ****   * @param WakeUpPinPolarity: Specifies which Wake-Up pin to enable.
 340:../../Drivers/STM32F7xx_HAL_Driver/Src/stm32f7xx_hal_pwr.c ****   *         This parameter can be one of the following legacy values, which sets the default polari
 341:../../Drivers/STM32F7xx_HAL_Driver/Src/stm32f7xx_hal_pwr.c ****   *         detection on high level (rising edge):
 342:../../Drivers/STM32F7xx_HAL_Driver/Src/stm32f7xx_hal_pwr.c ****   *           @arg PWR_WAKEUP_PIN1, PWR_WAKEUP_PIN2, PWR_WAKEUP_PIN3, PWR_WAKEUP_PIN4, PWR_WAKEUP_P
 343:../../Drivers/STM32F7xx_HAL_Driver/Src/stm32f7xx_hal_pwr.c ****   *         or one of the following value where the user can explicitly states the enabled pin and
 344:../../Drivers/STM32F7xx_HAL_Driver/Src/stm32f7xx_hal_pwr.c ****   *         the chosen polarity  
 345:../../Drivers/STM32F7xx_HAL_Driver/Src/stm32f7xx_hal_pwr.c ****   *           @arg PWR_WAKEUP_PIN1_HIGH or PWR_WAKEUP_PIN1_LOW 
 346:../../Drivers/STM32F7xx_HAL_Driver/Src/stm32f7xx_hal_pwr.c ****   *           @arg PWR_WAKEUP_PIN2_HIGH or PWR_WAKEUP_PIN2_LOW 
 347:../../Drivers/STM32F7xx_HAL_Driver/Src/stm32f7xx_hal_pwr.c ****   *           @arg PWR_WAKEUP_PIN3_HIGH or PWR_WAKEUP_PIN3_LOW 
 348:../../Drivers/STM32F7xx_HAL_Driver/Src/stm32f7xx_hal_pwr.c ****   *           @arg PWR_WAKEUP_PIN4_HIGH or PWR_WAKEUP_PIN4_LOW
 349:../../Drivers/STM32F7xx_HAL_Driver/Src/stm32f7xx_hal_pwr.c ****   *           @arg PWR_WAKEUP_PIN5_HIGH or PWR_WAKEUP_PIN5_LOW 
 350:../../Drivers/STM32F7xx_HAL_Driver/Src/stm32f7xx_hal_pwr.c ****   *           @arg PWR_WAKEUP_PIN6_HIGH or PWR_WAKEUP_PIN6_LOW 
 351:../../Drivers/STM32F7xx_HAL_Driver/Src/stm32f7xx_hal_pwr.c ****   * @note  PWR_WAKEUP_PINx and PWR_WAKEUP_PINx_HIGH are equivalent.               
 352:../../Drivers/STM32F7xx_HAL_Driver/Src/stm32f7xx_hal_pwr.c ****   * @retval None
 353:../../Drivers/STM32F7xx_HAL_Driver/Src/stm32f7xx_hal_pwr.c ****   */
 354:../../Drivers/STM32F7xx_HAL_Driver/Src/stm32f7xx_hal_pwr.c **** void HAL_PWR_EnableWakeUpPin(uint32_t WakeUpPinPolarity)
 355:../../Drivers/STM32F7xx_HAL_Driver/Src/stm32f7xx_hal_pwr.c **** {
 380              		.loc 1 355 0
 381              		.cfi_startproc
 382              		@ args = 0, pretend = 0, frame = 8
 383              		@ frame_needed = 1, uses_anonymous_args = 0
 384              		@ link register save eliminated.
 385 0000 80B4     		push	{r7}
 386              	.LCFI26:
 387              		.cfi_def_cfa_offset 4
 388              		.cfi_offset 7, -4
 389 0002 83B0     		sub	sp, sp, #12
 390              	.LCFI27:
 391              		.cfi_def_cfa_offset 16
 392 0004 00AF     		add	r7, sp, #0
 393              	.LCFI28:
 394              		.cfi_def_cfa_register 7
 395 0006 7860     		str	r0, [r7, #4]
 356:../../Drivers/STM32F7xx_HAL_Driver/Src/stm32f7xx_hal_pwr.c ****   assert_param(IS_PWR_WAKEUP_PIN(WakeUpPinPolarity));
 357:../../Drivers/STM32F7xx_HAL_Driver/Src/stm32f7xx_hal_pwr.c ****   
 358:../../Drivers/STM32F7xx_HAL_Driver/Src/stm32f7xx_hal_pwr.c ****   /* Enable wake-up pin */
 359:../../Drivers/STM32F7xx_HAL_Driver/Src/stm32f7xx_hal_pwr.c ****   SET_BIT(PWR->CSR2, (PWR_EWUP_MASK & WakeUpPinPolarity));
ARM GAS  /tmp/cc3FfnUx.s 			page 14


 396              		.loc 1 359 0
 397 0008 0C49     		ldr	r1, .L24
 398 000a 0C4B     		ldr	r3, .L24
 399 000c DA68     		ldr	r2, [r3, #12]
 400 000e 7B68     		ldr	r3, [r7, #4]
 401 0010 03F47C53 		and	r3, r3, #16128
 402 0014 1343     		orrs	r3, r3, r2
 403 0016 CB60     		str	r3, [r1, #12]
 360:../../Drivers/STM32F7xx_HAL_Driver/Src/stm32f7xx_hal_pwr.c **** 	
 361:../../Drivers/STM32F7xx_HAL_Driver/Src/stm32f7xx_hal_pwr.c ****   /* Specifies the Wake-Up pin polarity for the event detection
 362:../../Drivers/STM32F7xx_HAL_Driver/Src/stm32f7xx_hal_pwr.c ****     (rising or falling edge) */
 363:../../Drivers/STM32F7xx_HAL_Driver/Src/stm32f7xx_hal_pwr.c ****   MODIFY_REG(PWR->CR2, (PWR_EWUP_MASK & WakeUpPinPolarity), (WakeUpPinPolarity >> 0x06));
 404              		.loc 1 363 0
 405 0018 0849     		ldr	r1, .L24
 406 001a 084B     		ldr	r3, .L24
 407 001c 9A68     		ldr	r2, [r3, #8]
 408 001e 7B68     		ldr	r3, [r7, #4]
 409 0020 03F47C53 		and	r3, r3, #16128
 410 0024 DB43     		mvns	r3, r3
 411 0026 1A40     		ands	r2, r2, r3
 412 0028 7B68     		ldr	r3, [r7, #4]
 413 002a 9B09     		lsrs	r3, r3, #6
 414 002c 1343     		orrs	r3, r3, r2
 415 002e 8B60     		str	r3, [r1, #8]
 364:../../Drivers/STM32F7xx_HAL_Driver/Src/stm32f7xx_hal_pwr.c **** }
 416              		.loc 1 364 0
 417 0030 0C37     		adds	r7, r7, #12
 418              	.LCFI29:
 419              		.cfi_def_cfa_offset 4
 420 0032 BD46     		mov	sp, r7
 421              	.LCFI30:
 422              		.cfi_def_cfa_register 13
 423              		@ sp needed
 424 0034 5DF8047B 		ldr	r7, [sp], #4
 425              	.LCFI31:
 426              		.cfi_restore 7
 427              		.cfi_def_cfa_offset 0
 428 0038 7047     		bx	lr
 429              	.L25:
 430 003a 00BF     		.align	2
 431              	.L24:
 432 003c 00700040 		.word	1073770496
 433              		.cfi_endproc
 434              	.LFE141:
 436              		.section	.text.HAL_PWR_DisableWakeUpPin,"ax",%progbits
 437              		.align	2
 438              		.global	HAL_PWR_DisableWakeUpPin
 439              		.thumb
 440              		.thumb_func
 442              	HAL_PWR_DisableWakeUpPin:
 443              	.LFB142:
 365:../../Drivers/STM32F7xx_HAL_Driver/Src/stm32f7xx_hal_pwr.c **** 
 366:../../Drivers/STM32F7xx_HAL_Driver/Src/stm32f7xx_hal_pwr.c **** /**
 367:../../Drivers/STM32F7xx_HAL_Driver/Src/stm32f7xx_hal_pwr.c ****   * @brief Disables the WakeUp PINx functionality.
 368:../../Drivers/STM32F7xx_HAL_Driver/Src/stm32f7xx_hal_pwr.c ****   * @param WakeUpPinx: Specifies the Power Wake-Up pin to disable.
 369:../../Drivers/STM32F7xx_HAL_Driver/Src/stm32f7xx_hal_pwr.c ****   *         This parameter can be one of the following values:
 370:../../Drivers/STM32F7xx_HAL_Driver/Src/stm32f7xx_hal_pwr.c ****   *           @arg PWR_WAKEUP_PIN1
ARM GAS  /tmp/cc3FfnUx.s 			page 15


 371:../../Drivers/STM32F7xx_HAL_Driver/Src/stm32f7xx_hal_pwr.c ****   *           @arg PWR_WAKEUP_PIN2
 372:../../Drivers/STM32F7xx_HAL_Driver/Src/stm32f7xx_hal_pwr.c ****   *           @arg PWR_WAKEUP_PIN3
 373:../../Drivers/STM32F7xx_HAL_Driver/Src/stm32f7xx_hal_pwr.c ****   *           @arg PWR_WAKEUP_PIN4
 374:../../Drivers/STM32F7xx_HAL_Driver/Src/stm32f7xx_hal_pwr.c ****   *           @arg PWR_WAKEUP_PIN5
 375:../../Drivers/STM32F7xx_HAL_Driver/Src/stm32f7xx_hal_pwr.c ****   *           @arg PWR_WAKEUP_PIN6 
 376:../../Drivers/STM32F7xx_HAL_Driver/Src/stm32f7xx_hal_pwr.c ****   * @retval None
 377:../../Drivers/STM32F7xx_HAL_Driver/Src/stm32f7xx_hal_pwr.c ****   */
 378:../../Drivers/STM32F7xx_HAL_Driver/Src/stm32f7xx_hal_pwr.c **** void HAL_PWR_DisableWakeUpPin(uint32_t WakeUpPinx)
 379:../../Drivers/STM32F7xx_HAL_Driver/Src/stm32f7xx_hal_pwr.c **** {
 444              		.loc 1 379 0
 445              		.cfi_startproc
 446              		@ args = 0, pretend = 0, frame = 8
 447              		@ frame_needed = 1, uses_anonymous_args = 0
 448              		@ link register save eliminated.
 449 0000 80B4     		push	{r7}
 450              	.LCFI32:
 451              		.cfi_def_cfa_offset 4
 452              		.cfi_offset 7, -4
 453 0002 83B0     		sub	sp, sp, #12
 454              	.LCFI33:
 455              		.cfi_def_cfa_offset 16
 456 0004 00AF     		add	r7, sp, #0
 457              	.LCFI34:
 458              		.cfi_def_cfa_register 7
 459 0006 7860     		str	r0, [r7, #4]
 380:../../Drivers/STM32F7xx_HAL_Driver/Src/stm32f7xx_hal_pwr.c ****   assert_param(IS_PWR_WAKEUP_PIN(WakeUpPinx));
 381:../../Drivers/STM32F7xx_HAL_Driver/Src/stm32f7xx_hal_pwr.c **** 
 382:../../Drivers/STM32F7xx_HAL_Driver/Src/stm32f7xx_hal_pwr.c ****   CLEAR_BIT(PWR->CSR2, WakeUpPinx);
 460              		.loc 1 382 0
 461 0008 0549     		ldr	r1, .L27
 462 000a 054B     		ldr	r3, .L27
 463 000c DA68     		ldr	r2, [r3, #12]
 464 000e 7B68     		ldr	r3, [r7, #4]
 465 0010 DB43     		mvns	r3, r3
 466 0012 1340     		ands	r3, r3, r2
 467 0014 CB60     		str	r3, [r1, #12]
 383:../../Drivers/STM32F7xx_HAL_Driver/Src/stm32f7xx_hal_pwr.c **** }
 468              		.loc 1 383 0
 469 0016 0C37     		adds	r7, r7, #12
 470              	.LCFI35:
 471              		.cfi_def_cfa_offset 4
 472 0018 BD46     		mov	sp, r7
 473              	.LCFI36:
 474              		.cfi_def_cfa_register 13
 475              		@ sp needed
 476 001a 5DF8047B 		ldr	r7, [sp], #4
 477              	.LCFI37:
 478              		.cfi_restore 7
 479              		.cfi_def_cfa_offset 0
 480 001e 7047     		bx	lr
 481              	.L28:
 482              		.align	2
 483              	.L27:
 484 0020 00700040 		.word	1073770496
 485              		.cfi_endproc
 486              	.LFE142:
 488              		.section	.text.HAL_PWR_EnterSLEEPMode,"ax",%progbits
ARM GAS  /tmp/cc3FfnUx.s 			page 16


 489              		.align	2
 490              		.global	HAL_PWR_EnterSLEEPMode
 491              		.thumb
 492              		.thumb_func
 494              	HAL_PWR_EnterSLEEPMode:
 495              	.LFB143:
 384:../../Drivers/STM32F7xx_HAL_Driver/Src/stm32f7xx_hal_pwr.c ****   
 385:../../Drivers/STM32F7xx_HAL_Driver/Src/stm32f7xx_hal_pwr.c **** /**
 386:../../Drivers/STM32F7xx_HAL_Driver/Src/stm32f7xx_hal_pwr.c ****   * @brief Enters Sleep mode.
 387:../../Drivers/STM32F7xx_HAL_Driver/Src/stm32f7xx_hal_pwr.c ****   *   
 388:../../Drivers/STM32F7xx_HAL_Driver/Src/stm32f7xx_hal_pwr.c ****   * @note In Sleep mode, all I/O pins keep the same state as in Run mode.
 389:../../Drivers/STM32F7xx_HAL_Driver/Src/stm32f7xx_hal_pwr.c ****   * 
 390:../../Drivers/STM32F7xx_HAL_Driver/Src/stm32f7xx_hal_pwr.c ****   * @note In Sleep mode, the systick is stopped to avoid exit from this mode with
 391:../../Drivers/STM32F7xx_HAL_Driver/Src/stm32f7xx_hal_pwr.c ****   *       systick interrupt when used as time base for Timeout 
 392:../../Drivers/STM32F7xx_HAL_Driver/Src/stm32f7xx_hal_pwr.c ****   *                
 393:../../Drivers/STM32F7xx_HAL_Driver/Src/stm32f7xx_hal_pwr.c ****   * @param Regulator: Specifies the regulator state in SLEEP mode.
 394:../../Drivers/STM32F7xx_HAL_Driver/Src/stm32f7xx_hal_pwr.c ****   *            This parameter can be one of the following values:
 395:../../Drivers/STM32F7xx_HAL_Driver/Src/stm32f7xx_hal_pwr.c ****   *            @arg PWR_MAINREGULATOR_ON: SLEEP mode with regulator ON
 396:../../Drivers/STM32F7xx_HAL_Driver/Src/stm32f7xx_hal_pwr.c ****   *            @arg PWR_LOWPOWERREGULATOR_ON: SLEEP mode with low power regulator ON
 397:../../Drivers/STM32F7xx_HAL_Driver/Src/stm32f7xx_hal_pwr.c ****   * @note This parameter is not used for the STM32F7 family and is kept as parameter
 398:../../Drivers/STM32F7xx_HAL_Driver/Src/stm32f7xx_hal_pwr.c ****   *       just to maintain compatibility with the lower power families.
 399:../../Drivers/STM32F7xx_HAL_Driver/Src/stm32f7xx_hal_pwr.c ****   * @param SLEEPEntry: Specifies if SLEEP mode in entered with WFI or WFE instruction.
 400:../../Drivers/STM32F7xx_HAL_Driver/Src/stm32f7xx_hal_pwr.c ****   *          This parameter can be one of the following values:
 401:../../Drivers/STM32F7xx_HAL_Driver/Src/stm32f7xx_hal_pwr.c ****   *            @arg PWR_SLEEPENTRY_WFI: enter SLEEP mode with WFI instruction
 402:../../Drivers/STM32F7xx_HAL_Driver/Src/stm32f7xx_hal_pwr.c ****   *            @arg PWR_SLEEPENTRY_WFE: enter SLEEP mode with WFE instruction
 403:../../Drivers/STM32F7xx_HAL_Driver/Src/stm32f7xx_hal_pwr.c ****   * @retval None
 404:../../Drivers/STM32F7xx_HAL_Driver/Src/stm32f7xx_hal_pwr.c ****   */
 405:../../Drivers/STM32F7xx_HAL_Driver/Src/stm32f7xx_hal_pwr.c **** void HAL_PWR_EnterSLEEPMode(uint32_t Regulator, uint8_t SLEEPEntry)
 406:../../Drivers/STM32F7xx_HAL_Driver/Src/stm32f7xx_hal_pwr.c **** {
 496              		.loc 1 406 0
 497              		.cfi_startproc
 498              		@ args = 0, pretend = 0, frame = 8
 499              		@ frame_needed = 1, uses_anonymous_args = 0
 500              		@ link register save eliminated.
 501 0000 80B4     		push	{r7}
 502              	.LCFI38:
 503              		.cfi_def_cfa_offset 4
 504              		.cfi_offset 7, -4
 505 0002 83B0     		sub	sp, sp, #12
 506              	.LCFI39:
 507              		.cfi_def_cfa_offset 16
 508 0004 00AF     		add	r7, sp, #0
 509              	.LCFI40:
 510              		.cfi_def_cfa_register 7
 511 0006 7860     		str	r0, [r7, #4]
 512 0008 0B46     		mov	r3, r1
 513 000a FB70     		strb	r3, [r7, #3]
 407:../../Drivers/STM32F7xx_HAL_Driver/Src/stm32f7xx_hal_pwr.c ****   /* Check the parameters */
 408:../../Drivers/STM32F7xx_HAL_Driver/Src/stm32f7xx_hal_pwr.c ****   assert_param(IS_PWR_REGULATOR(Regulator));
 409:../../Drivers/STM32F7xx_HAL_Driver/Src/stm32f7xx_hal_pwr.c ****   assert_param(IS_PWR_SLEEP_ENTRY(SLEEPEntry));
 410:../../Drivers/STM32F7xx_HAL_Driver/Src/stm32f7xx_hal_pwr.c **** 
 411:../../Drivers/STM32F7xx_HAL_Driver/Src/stm32f7xx_hal_pwr.c ****   /* Clear SLEEPDEEP bit of Cortex System Control Register */
 412:../../Drivers/STM32F7xx_HAL_Driver/Src/stm32f7xx_hal_pwr.c ****   CLEAR_BIT(SCB->SCR, ((uint32_t)SCB_SCR_SLEEPDEEP_Msk));
 514              		.loc 1 412 0
 515 000c 094A     		ldr	r2, .L32
 516 000e 094B     		ldr	r3, .L32
 517 0010 1B69     		ldr	r3, [r3, #16]
ARM GAS  /tmp/cc3FfnUx.s 			page 17


 518 0012 23F00403 		bic	r3, r3, #4
 519 0016 1361     		str	r3, [r2, #16]
 413:../../Drivers/STM32F7xx_HAL_Driver/Src/stm32f7xx_hal_pwr.c **** 
 414:../../Drivers/STM32F7xx_HAL_Driver/Src/stm32f7xx_hal_pwr.c ****   /* Select SLEEP mode entry -------------------------------------------------*/
 415:../../Drivers/STM32F7xx_HAL_Driver/Src/stm32f7xx_hal_pwr.c ****   if(SLEEPEntry == PWR_SLEEPENTRY_WFI)
 520              		.loc 1 415 0
 521 0018 FB78     		ldrb	r3, [r7, #3]	@ zero_extendqisi2
 522 001a 012B     		cmp	r3, #1
 523 001c 01D1     		bne	.L30
 524              	.LBB20:
 525              	.LBB21:
 526              		.file 2 "../../Drivers/CMSIS/Include/cmsis_gcc.h"
   1:../../Drivers/CMSIS/Include/cmsis_gcc.h **** /**************************************************************************//**
   2:../../Drivers/CMSIS/Include/cmsis_gcc.h ****  * @file     cmsis_gcc.h
   3:../../Drivers/CMSIS/Include/cmsis_gcc.h ****  * @brief    CMSIS Cortex-M Core Function/Instruction Header File
   4:../../Drivers/CMSIS/Include/cmsis_gcc.h ****  * @version  V4.30
   5:../../Drivers/CMSIS/Include/cmsis_gcc.h ****  * @date     20. October 2015
   6:../../Drivers/CMSIS/Include/cmsis_gcc.h ****  ******************************************************************************/
   7:../../Drivers/CMSIS/Include/cmsis_gcc.h **** /* Copyright (c) 2009 - 2015 ARM LIMITED
   8:../../Drivers/CMSIS/Include/cmsis_gcc.h **** 
   9:../../Drivers/CMSIS/Include/cmsis_gcc.h ****    All rights reserved.
  10:../../Drivers/CMSIS/Include/cmsis_gcc.h ****    Redistribution and use in source and binary forms, with or without
  11:../../Drivers/CMSIS/Include/cmsis_gcc.h ****    modification, are permitted provided that the following conditions are met:
  12:../../Drivers/CMSIS/Include/cmsis_gcc.h ****    - Redistributions of source code must retain the above copyright
  13:../../Drivers/CMSIS/Include/cmsis_gcc.h ****      notice, this list of conditions and the following disclaimer.
  14:../../Drivers/CMSIS/Include/cmsis_gcc.h ****    - Redistributions in binary form must reproduce the above copyright
  15:../../Drivers/CMSIS/Include/cmsis_gcc.h ****      notice, this list of conditions and the following disclaimer in the
  16:../../Drivers/CMSIS/Include/cmsis_gcc.h ****      documentation and/or other materials provided with the distribution.
  17:../../Drivers/CMSIS/Include/cmsis_gcc.h ****    - Neither the name of ARM nor the names of its contributors may be used
  18:../../Drivers/CMSIS/Include/cmsis_gcc.h ****      to endorse or promote products derived from this software without
  19:../../Drivers/CMSIS/Include/cmsis_gcc.h ****      specific prior written permission.
  20:../../Drivers/CMSIS/Include/cmsis_gcc.h ****    *
  21:../../Drivers/CMSIS/Include/cmsis_gcc.h ****    THIS SOFTWARE IS PROVIDED BY THE COPYRIGHT HOLDERS AND CONTRIBUTORS "AS IS"
  22:../../Drivers/CMSIS/Include/cmsis_gcc.h ****    AND ANY EXPRESS OR IMPLIED WARRANTIES, INCLUDING, BUT NOT LIMITED TO, THE
  23:../../Drivers/CMSIS/Include/cmsis_gcc.h ****    IMPLIED WARRANTIES OF MERCHANTABILITY AND FITNESS FOR A PARTICULAR PURPOSE
  24:../../Drivers/CMSIS/Include/cmsis_gcc.h ****    ARE DISCLAIMED. IN NO EVENT SHALL COPYRIGHT HOLDERS AND CONTRIBUTORS BE
  25:../../Drivers/CMSIS/Include/cmsis_gcc.h ****    LIABLE FOR ANY DIRECT, INDIRECT, INCIDENTAL, SPECIAL, EXEMPLARY, OR
  26:../../Drivers/CMSIS/Include/cmsis_gcc.h ****    CONSEQUENTIAL DAMAGES (INCLUDING, BUT NOT LIMITED TO, PROCUREMENT OF
  27:../../Drivers/CMSIS/Include/cmsis_gcc.h ****    SUBSTITUTE GOODS OR SERVICES; LOSS OF USE, DATA, OR PROFITS; OR BUSINESS
  28:../../Drivers/CMSIS/Include/cmsis_gcc.h ****    INTERRUPTION) HOWEVER CAUSED AND ON ANY THEORY OF LIABILITY, WHETHER IN
  29:../../Drivers/CMSIS/Include/cmsis_gcc.h ****    CONTRACT, STRICT LIABILITY, OR TORT (INCLUDING NEGLIGENCE OR OTHERWISE)
  30:../../Drivers/CMSIS/Include/cmsis_gcc.h ****    ARISING IN ANY WAY OUT OF THE USE OF THIS SOFTWARE, EVEN IF ADVISED OF THE
  31:../../Drivers/CMSIS/Include/cmsis_gcc.h ****    POSSIBILITY OF SUCH DAMAGE.
  32:../../Drivers/CMSIS/Include/cmsis_gcc.h ****    ---------------------------------------------------------------------------*/
  33:../../Drivers/CMSIS/Include/cmsis_gcc.h **** 
  34:../../Drivers/CMSIS/Include/cmsis_gcc.h **** 
  35:../../Drivers/CMSIS/Include/cmsis_gcc.h **** #ifndef __CMSIS_GCC_H
  36:../../Drivers/CMSIS/Include/cmsis_gcc.h **** #define __CMSIS_GCC_H
  37:../../Drivers/CMSIS/Include/cmsis_gcc.h **** 
  38:../../Drivers/CMSIS/Include/cmsis_gcc.h **** /* ignore some GCC warnings */
  39:../../Drivers/CMSIS/Include/cmsis_gcc.h **** #if defined ( __GNUC__ )
  40:../../Drivers/CMSIS/Include/cmsis_gcc.h **** #pragma GCC diagnostic push
  41:../../Drivers/CMSIS/Include/cmsis_gcc.h **** #pragma GCC diagnostic ignored "-Wsign-conversion"
  42:../../Drivers/CMSIS/Include/cmsis_gcc.h **** #pragma GCC diagnostic ignored "-Wconversion"
  43:../../Drivers/CMSIS/Include/cmsis_gcc.h **** #pragma GCC diagnostic ignored "-Wunused-parameter"
  44:../../Drivers/CMSIS/Include/cmsis_gcc.h **** #endif
  45:../../Drivers/CMSIS/Include/cmsis_gcc.h **** 
ARM GAS  /tmp/cc3FfnUx.s 			page 18


  46:../../Drivers/CMSIS/Include/cmsis_gcc.h **** 
  47:../../Drivers/CMSIS/Include/cmsis_gcc.h **** /* ###########################  Core Function Access  ########################### */
  48:../../Drivers/CMSIS/Include/cmsis_gcc.h **** /** \ingroup  CMSIS_Core_FunctionInterface
  49:../../Drivers/CMSIS/Include/cmsis_gcc.h ****     \defgroup CMSIS_Core_RegAccFunctions CMSIS Core Register Access Functions
  50:../../Drivers/CMSIS/Include/cmsis_gcc.h ****   @{
  51:../../Drivers/CMSIS/Include/cmsis_gcc.h ****  */
  52:../../Drivers/CMSIS/Include/cmsis_gcc.h **** 
  53:../../Drivers/CMSIS/Include/cmsis_gcc.h **** /**
  54:../../Drivers/CMSIS/Include/cmsis_gcc.h ****   \brief   Enable IRQ Interrupts
  55:../../Drivers/CMSIS/Include/cmsis_gcc.h ****   \details Enables IRQ interrupts by clearing the I-bit in the CPSR.
  56:../../Drivers/CMSIS/Include/cmsis_gcc.h ****            Can only be executed in Privileged modes.
  57:../../Drivers/CMSIS/Include/cmsis_gcc.h ****  */
  58:../../Drivers/CMSIS/Include/cmsis_gcc.h **** __attribute__( ( always_inline ) ) __STATIC_INLINE void __enable_irq(void)
  59:../../Drivers/CMSIS/Include/cmsis_gcc.h **** {
  60:../../Drivers/CMSIS/Include/cmsis_gcc.h ****   __ASM volatile ("cpsie i" : : : "memory");
  61:../../Drivers/CMSIS/Include/cmsis_gcc.h **** }
  62:../../Drivers/CMSIS/Include/cmsis_gcc.h **** 
  63:../../Drivers/CMSIS/Include/cmsis_gcc.h **** 
  64:../../Drivers/CMSIS/Include/cmsis_gcc.h **** /**
  65:../../Drivers/CMSIS/Include/cmsis_gcc.h ****   \brief   Disable IRQ Interrupts
  66:../../Drivers/CMSIS/Include/cmsis_gcc.h ****   \details Disables IRQ interrupts by setting the I-bit in the CPSR.
  67:../../Drivers/CMSIS/Include/cmsis_gcc.h ****   Can only be executed in Privileged modes.
  68:../../Drivers/CMSIS/Include/cmsis_gcc.h ****  */
  69:../../Drivers/CMSIS/Include/cmsis_gcc.h **** __attribute__( ( always_inline ) ) __STATIC_INLINE void __disable_irq(void)
  70:../../Drivers/CMSIS/Include/cmsis_gcc.h **** {
  71:../../Drivers/CMSIS/Include/cmsis_gcc.h ****   __ASM volatile ("cpsid i" : : : "memory");
  72:../../Drivers/CMSIS/Include/cmsis_gcc.h **** }
  73:../../Drivers/CMSIS/Include/cmsis_gcc.h **** 
  74:../../Drivers/CMSIS/Include/cmsis_gcc.h **** 
  75:../../Drivers/CMSIS/Include/cmsis_gcc.h **** /**
  76:../../Drivers/CMSIS/Include/cmsis_gcc.h ****   \brief   Get Control Register
  77:../../Drivers/CMSIS/Include/cmsis_gcc.h ****   \details Returns the content of the Control Register.
  78:../../Drivers/CMSIS/Include/cmsis_gcc.h ****   \return               Control Register value
  79:../../Drivers/CMSIS/Include/cmsis_gcc.h ****  */
  80:../../Drivers/CMSIS/Include/cmsis_gcc.h **** __attribute__( ( always_inline ) ) __STATIC_INLINE uint32_t __get_CONTROL(void)
  81:../../Drivers/CMSIS/Include/cmsis_gcc.h **** {
  82:../../Drivers/CMSIS/Include/cmsis_gcc.h ****   uint32_t result;
  83:../../Drivers/CMSIS/Include/cmsis_gcc.h **** 
  84:../../Drivers/CMSIS/Include/cmsis_gcc.h ****   __ASM volatile ("MRS %0, control" : "=r" (result) );
  85:../../Drivers/CMSIS/Include/cmsis_gcc.h ****   return(result);
  86:../../Drivers/CMSIS/Include/cmsis_gcc.h **** }
  87:../../Drivers/CMSIS/Include/cmsis_gcc.h **** 
  88:../../Drivers/CMSIS/Include/cmsis_gcc.h **** 
  89:../../Drivers/CMSIS/Include/cmsis_gcc.h **** /**
  90:../../Drivers/CMSIS/Include/cmsis_gcc.h ****   \brief   Set Control Register
  91:../../Drivers/CMSIS/Include/cmsis_gcc.h ****   \details Writes the given value to the Control Register.
  92:../../Drivers/CMSIS/Include/cmsis_gcc.h ****   \param [in]    control  Control Register value to set
  93:../../Drivers/CMSIS/Include/cmsis_gcc.h ****  */
  94:../../Drivers/CMSIS/Include/cmsis_gcc.h **** __attribute__( ( always_inline ) ) __STATIC_INLINE void __set_CONTROL(uint32_t control)
  95:../../Drivers/CMSIS/Include/cmsis_gcc.h **** {
  96:../../Drivers/CMSIS/Include/cmsis_gcc.h ****   __ASM volatile ("MSR control, %0" : : "r" (control) : "memory");
  97:../../Drivers/CMSIS/Include/cmsis_gcc.h **** }
  98:../../Drivers/CMSIS/Include/cmsis_gcc.h **** 
  99:../../Drivers/CMSIS/Include/cmsis_gcc.h **** 
 100:../../Drivers/CMSIS/Include/cmsis_gcc.h **** /**
 101:../../Drivers/CMSIS/Include/cmsis_gcc.h ****   \brief   Get IPSR Register
 102:../../Drivers/CMSIS/Include/cmsis_gcc.h ****   \details Returns the content of the IPSR Register.
ARM GAS  /tmp/cc3FfnUx.s 			page 19


 103:../../Drivers/CMSIS/Include/cmsis_gcc.h ****   \return               IPSR Register value
 104:../../Drivers/CMSIS/Include/cmsis_gcc.h ****  */
 105:../../Drivers/CMSIS/Include/cmsis_gcc.h **** __attribute__( ( always_inline ) ) __STATIC_INLINE uint32_t __get_IPSR(void)
 106:../../Drivers/CMSIS/Include/cmsis_gcc.h **** {
 107:../../Drivers/CMSIS/Include/cmsis_gcc.h ****   uint32_t result;
 108:../../Drivers/CMSIS/Include/cmsis_gcc.h **** 
 109:../../Drivers/CMSIS/Include/cmsis_gcc.h ****   __ASM volatile ("MRS %0, ipsr" : "=r" (result) );
 110:../../Drivers/CMSIS/Include/cmsis_gcc.h ****   return(result);
 111:../../Drivers/CMSIS/Include/cmsis_gcc.h **** }
 112:../../Drivers/CMSIS/Include/cmsis_gcc.h **** 
 113:../../Drivers/CMSIS/Include/cmsis_gcc.h **** 
 114:../../Drivers/CMSIS/Include/cmsis_gcc.h **** /**
 115:../../Drivers/CMSIS/Include/cmsis_gcc.h ****   \brief   Get APSR Register
 116:../../Drivers/CMSIS/Include/cmsis_gcc.h ****   \details Returns the content of the APSR Register.
 117:../../Drivers/CMSIS/Include/cmsis_gcc.h ****   \return               APSR Register value
 118:../../Drivers/CMSIS/Include/cmsis_gcc.h ****  */
 119:../../Drivers/CMSIS/Include/cmsis_gcc.h **** __attribute__( ( always_inline ) ) __STATIC_INLINE uint32_t __get_APSR(void)
 120:../../Drivers/CMSIS/Include/cmsis_gcc.h **** {
 121:../../Drivers/CMSIS/Include/cmsis_gcc.h ****   uint32_t result;
 122:../../Drivers/CMSIS/Include/cmsis_gcc.h **** 
 123:../../Drivers/CMSIS/Include/cmsis_gcc.h ****   __ASM volatile ("MRS %0, apsr" : "=r" (result) );
 124:../../Drivers/CMSIS/Include/cmsis_gcc.h ****   return(result);
 125:../../Drivers/CMSIS/Include/cmsis_gcc.h **** }
 126:../../Drivers/CMSIS/Include/cmsis_gcc.h **** 
 127:../../Drivers/CMSIS/Include/cmsis_gcc.h **** 
 128:../../Drivers/CMSIS/Include/cmsis_gcc.h **** /**
 129:../../Drivers/CMSIS/Include/cmsis_gcc.h ****   \brief   Get xPSR Register
 130:../../Drivers/CMSIS/Include/cmsis_gcc.h ****   \details Returns the content of the xPSR Register.
 131:../../Drivers/CMSIS/Include/cmsis_gcc.h **** 
 132:../../Drivers/CMSIS/Include/cmsis_gcc.h ****     \return               xPSR Register value
 133:../../Drivers/CMSIS/Include/cmsis_gcc.h ****  */
 134:../../Drivers/CMSIS/Include/cmsis_gcc.h **** __attribute__( ( always_inline ) ) __STATIC_INLINE uint32_t __get_xPSR(void)
 135:../../Drivers/CMSIS/Include/cmsis_gcc.h **** {
 136:../../Drivers/CMSIS/Include/cmsis_gcc.h ****   uint32_t result;
 137:../../Drivers/CMSIS/Include/cmsis_gcc.h **** 
 138:../../Drivers/CMSIS/Include/cmsis_gcc.h ****   __ASM volatile ("MRS %0, xpsr" : "=r" (result) );
 139:../../Drivers/CMSIS/Include/cmsis_gcc.h ****   return(result);
 140:../../Drivers/CMSIS/Include/cmsis_gcc.h **** }
 141:../../Drivers/CMSIS/Include/cmsis_gcc.h **** 
 142:../../Drivers/CMSIS/Include/cmsis_gcc.h **** 
 143:../../Drivers/CMSIS/Include/cmsis_gcc.h **** /**
 144:../../Drivers/CMSIS/Include/cmsis_gcc.h ****   \brief   Get Process Stack Pointer
 145:../../Drivers/CMSIS/Include/cmsis_gcc.h ****   \details Returns the current value of the Process Stack Pointer (PSP).
 146:../../Drivers/CMSIS/Include/cmsis_gcc.h ****   \return               PSP Register value
 147:../../Drivers/CMSIS/Include/cmsis_gcc.h ****  */
 148:../../Drivers/CMSIS/Include/cmsis_gcc.h **** __attribute__( ( always_inline ) ) __STATIC_INLINE uint32_t __get_PSP(void)
 149:../../Drivers/CMSIS/Include/cmsis_gcc.h **** {
 150:../../Drivers/CMSIS/Include/cmsis_gcc.h ****   register uint32_t result;
 151:../../Drivers/CMSIS/Include/cmsis_gcc.h **** 
 152:../../Drivers/CMSIS/Include/cmsis_gcc.h ****   __ASM volatile ("MRS %0, psp\n"  : "=r" (result) );
 153:../../Drivers/CMSIS/Include/cmsis_gcc.h ****   return(result);
 154:../../Drivers/CMSIS/Include/cmsis_gcc.h **** }
 155:../../Drivers/CMSIS/Include/cmsis_gcc.h **** 
 156:../../Drivers/CMSIS/Include/cmsis_gcc.h **** 
 157:../../Drivers/CMSIS/Include/cmsis_gcc.h **** /**
 158:../../Drivers/CMSIS/Include/cmsis_gcc.h ****   \brief   Set Process Stack Pointer
 159:../../Drivers/CMSIS/Include/cmsis_gcc.h ****   \details Assigns the given value to the Process Stack Pointer (PSP).
ARM GAS  /tmp/cc3FfnUx.s 			page 20


 160:../../Drivers/CMSIS/Include/cmsis_gcc.h ****   \param [in]    topOfProcStack  Process Stack Pointer value to set
 161:../../Drivers/CMSIS/Include/cmsis_gcc.h ****  */
 162:../../Drivers/CMSIS/Include/cmsis_gcc.h **** __attribute__( ( always_inline ) ) __STATIC_INLINE void __set_PSP(uint32_t topOfProcStack)
 163:../../Drivers/CMSIS/Include/cmsis_gcc.h **** {
 164:../../Drivers/CMSIS/Include/cmsis_gcc.h ****   __ASM volatile ("MSR psp, %0\n" : : "r" (topOfProcStack) : "sp");
 165:../../Drivers/CMSIS/Include/cmsis_gcc.h **** }
 166:../../Drivers/CMSIS/Include/cmsis_gcc.h **** 
 167:../../Drivers/CMSIS/Include/cmsis_gcc.h **** 
 168:../../Drivers/CMSIS/Include/cmsis_gcc.h **** /**
 169:../../Drivers/CMSIS/Include/cmsis_gcc.h ****   \brief   Get Main Stack Pointer
 170:../../Drivers/CMSIS/Include/cmsis_gcc.h ****   \details Returns the current value of the Main Stack Pointer (MSP).
 171:../../Drivers/CMSIS/Include/cmsis_gcc.h ****   \return               MSP Register value
 172:../../Drivers/CMSIS/Include/cmsis_gcc.h ****  */
 173:../../Drivers/CMSIS/Include/cmsis_gcc.h **** __attribute__( ( always_inline ) ) __STATIC_INLINE uint32_t __get_MSP(void)
 174:../../Drivers/CMSIS/Include/cmsis_gcc.h **** {
 175:../../Drivers/CMSIS/Include/cmsis_gcc.h ****   register uint32_t result;
 176:../../Drivers/CMSIS/Include/cmsis_gcc.h **** 
 177:../../Drivers/CMSIS/Include/cmsis_gcc.h ****   __ASM volatile ("MRS %0, msp\n" : "=r" (result) );
 178:../../Drivers/CMSIS/Include/cmsis_gcc.h ****   return(result);
 179:../../Drivers/CMSIS/Include/cmsis_gcc.h **** }
 180:../../Drivers/CMSIS/Include/cmsis_gcc.h **** 
 181:../../Drivers/CMSIS/Include/cmsis_gcc.h **** 
 182:../../Drivers/CMSIS/Include/cmsis_gcc.h **** /**
 183:../../Drivers/CMSIS/Include/cmsis_gcc.h ****   \brief   Set Main Stack Pointer
 184:../../Drivers/CMSIS/Include/cmsis_gcc.h ****   \details Assigns the given value to the Main Stack Pointer (MSP).
 185:../../Drivers/CMSIS/Include/cmsis_gcc.h **** 
 186:../../Drivers/CMSIS/Include/cmsis_gcc.h ****     \param [in]    topOfMainStack  Main Stack Pointer value to set
 187:../../Drivers/CMSIS/Include/cmsis_gcc.h ****  */
 188:../../Drivers/CMSIS/Include/cmsis_gcc.h **** __attribute__( ( always_inline ) ) __STATIC_INLINE void __set_MSP(uint32_t topOfMainStack)
 189:../../Drivers/CMSIS/Include/cmsis_gcc.h **** {
 190:../../Drivers/CMSIS/Include/cmsis_gcc.h ****   __ASM volatile ("MSR msp, %0\n" : : "r" (topOfMainStack) : "sp");
 191:../../Drivers/CMSIS/Include/cmsis_gcc.h **** }
 192:../../Drivers/CMSIS/Include/cmsis_gcc.h **** 
 193:../../Drivers/CMSIS/Include/cmsis_gcc.h **** 
 194:../../Drivers/CMSIS/Include/cmsis_gcc.h **** /**
 195:../../Drivers/CMSIS/Include/cmsis_gcc.h ****   \brief   Get Priority Mask
 196:../../Drivers/CMSIS/Include/cmsis_gcc.h ****   \details Returns the current state of the priority mask bit from the Priority Mask Register.
 197:../../Drivers/CMSIS/Include/cmsis_gcc.h ****   \return               Priority Mask value
 198:../../Drivers/CMSIS/Include/cmsis_gcc.h ****  */
 199:../../Drivers/CMSIS/Include/cmsis_gcc.h **** __attribute__( ( always_inline ) ) __STATIC_INLINE uint32_t __get_PRIMASK(void)
 200:../../Drivers/CMSIS/Include/cmsis_gcc.h **** {
 201:../../Drivers/CMSIS/Include/cmsis_gcc.h ****   uint32_t result;
 202:../../Drivers/CMSIS/Include/cmsis_gcc.h **** 
 203:../../Drivers/CMSIS/Include/cmsis_gcc.h ****   __ASM volatile ("MRS %0, primask" : "=r" (result) );
 204:../../Drivers/CMSIS/Include/cmsis_gcc.h ****   return(result);
 205:../../Drivers/CMSIS/Include/cmsis_gcc.h **** }
 206:../../Drivers/CMSIS/Include/cmsis_gcc.h **** 
 207:../../Drivers/CMSIS/Include/cmsis_gcc.h **** 
 208:../../Drivers/CMSIS/Include/cmsis_gcc.h **** /**
 209:../../Drivers/CMSIS/Include/cmsis_gcc.h ****   \brief   Set Priority Mask
 210:../../Drivers/CMSIS/Include/cmsis_gcc.h ****   \details Assigns the given value to the Priority Mask Register.
 211:../../Drivers/CMSIS/Include/cmsis_gcc.h ****   \param [in]    priMask  Priority Mask
 212:../../Drivers/CMSIS/Include/cmsis_gcc.h ****  */
 213:../../Drivers/CMSIS/Include/cmsis_gcc.h **** __attribute__( ( always_inline ) ) __STATIC_INLINE void __set_PRIMASK(uint32_t priMask)
 214:../../Drivers/CMSIS/Include/cmsis_gcc.h **** {
 215:../../Drivers/CMSIS/Include/cmsis_gcc.h ****   __ASM volatile ("MSR primask, %0" : : "r" (priMask) : "memory");
 216:../../Drivers/CMSIS/Include/cmsis_gcc.h **** }
ARM GAS  /tmp/cc3FfnUx.s 			page 21


 217:../../Drivers/CMSIS/Include/cmsis_gcc.h **** 
 218:../../Drivers/CMSIS/Include/cmsis_gcc.h **** 
 219:../../Drivers/CMSIS/Include/cmsis_gcc.h **** #if       (__CORTEX_M >= 0x03U)
 220:../../Drivers/CMSIS/Include/cmsis_gcc.h **** 
 221:../../Drivers/CMSIS/Include/cmsis_gcc.h **** /**
 222:../../Drivers/CMSIS/Include/cmsis_gcc.h ****   \brief   Enable FIQ
 223:../../Drivers/CMSIS/Include/cmsis_gcc.h ****   \details Enables FIQ interrupts by clearing the F-bit in the CPSR.
 224:../../Drivers/CMSIS/Include/cmsis_gcc.h ****            Can only be executed in Privileged modes.
 225:../../Drivers/CMSIS/Include/cmsis_gcc.h ****  */
 226:../../Drivers/CMSIS/Include/cmsis_gcc.h **** __attribute__( ( always_inline ) ) __STATIC_INLINE void __enable_fault_irq(void)
 227:../../Drivers/CMSIS/Include/cmsis_gcc.h **** {
 228:../../Drivers/CMSIS/Include/cmsis_gcc.h ****   __ASM volatile ("cpsie f" : : : "memory");
 229:../../Drivers/CMSIS/Include/cmsis_gcc.h **** }
 230:../../Drivers/CMSIS/Include/cmsis_gcc.h **** 
 231:../../Drivers/CMSIS/Include/cmsis_gcc.h **** 
 232:../../Drivers/CMSIS/Include/cmsis_gcc.h **** /**
 233:../../Drivers/CMSIS/Include/cmsis_gcc.h ****   \brief   Disable FIQ
 234:../../Drivers/CMSIS/Include/cmsis_gcc.h ****   \details Disables FIQ interrupts by setting the F-bit in the CPSR.
 235:../../Drivers/CMSIS/Include/cmsis_gcc.h ****            Can only be executed in Privileged modes.
 236:../../Drivers/CMSIS/Include/cmsis_gcc.h ****  */
 237:../../Drivers/CMSIS/Include/cmsis_gcc.h **** __attribute__( ( always_inline ) ) __STATIC_INLINE void __disable_fault_irq(void)
 238:../../Drivers/CMSIS/Include/cmsis_gcc.h **** {
 239:../../Drivers/CMSIS/Include/cmsis_gcc.h ****   __ASM volatile ("cpsid f" : : : "memory");
 240:../../Drivers/CMSIS/Include/cmsis_gcc.h **** }
 241:../../Drivers/CMSIS/Include/cmsis_gcc.h **** 
 242:../../Drivers/CMSIS/Include/cmsis_gcc.h **** 
 243:../../Drivers/CMSIS/Include/cmsis_gcc.h **** /**
 244:../../Drivers/CMSIS/Include/cmsis_gcc.h ****   \brief   Get Base Priority
 245:../../Drivers/CMSIS/Include/cmsis_gcc.h ****   \details Returns the current value of the Base Priority register.
 246:../../Drivers/CMSIS/Include/cmsis_gcc.h ****   \return               Base Priority register value
 247:../../Drivers/CMSIS/Include/cmsis_gcc.h ****  */
 248:../../Drivers/CMSIS/Include/cmsis_gcc.h **** __attribute__( ( always_inline ) ) __STATIC_INLINE uint32_t __get_BASEPRI(void)
 249:../../Drivers/CMSIS/Include/cmsis_gcc.h **** {
 250:../../Drivers/CMSIS/Include/cmsis_gcc.h ****   uint32_t result;
 251:../../Drivers/CMSIS/Include/cmsis_gcc.h **** 
 252:../../Drivers/CMSIS/Include/cmsis_gcc.h ****   __ASM volatile ("MRS %0, basepri" : "=r" (result) );
 253:../../Drivers/CMSIS/Include/cmsis_gcc.h ****   return(result);
 254:../../Drivers/CMSIS/Include/cmsis_gcc.h **** }
 255:../../Drivers/CMSIS/Include/cmsis_gcc.h **** 
 256:../../Drivers/CMSIS/Include/cmsis_gcc.h **** 
 257:../../Drivers/CMSIS/Include/cmsis_gcc.h **** /**
 258:../../Drivers/CMSIS/Include/cmsis_gcc.h ****   \brief   Set Base Priority
 259:../../Drivers/CMSIS/Include/cmsis_gcc.h ****   \details Assigns the given value to the Base Priority register.
 260:../../Drivers/CMSIS/Include/cmsis_gcc.h ****   \param [in]    basePri  Base Priority value to set
 261:../../Drivers/CMSIS/Include/cmsis_gcc.h ****  */
 262:../../Drivers/CMSIS/Include/cmsis_gcc.h **** __attribute__( ( always_inline ) ) __STATIC_INLINE void __set_BASEPRI(uint32_t value)
 263:../../Drivers/CMSIS/Include/cmsis_gcc.h **** {
 264:../../Drivers/CMSIS/Include/cmsis_gcc.h ****   __ASM volatile ("MSR basepri, %0" : : "r" (value) : "memory");
 265:../../Drivers/CMSIS/Include/cmsis_gcc.h **** }
 266:../../Drivers/CMSIS/Include/cmsis_gcc.h **** 
 267:../../Drivers/CMSIS/Include/cmsis_gcc.h **** 
 268:../../Drivers/CMSIS/Include/cmsis_gcc.h **** /**
 269:../../Drivers/CMSIS/Include/cmsis_gcc.h ****   \brief   Set Base Priority with condition
 270:../../Drivers/CMSIS/Include/cmsis_gcc.h ****   \details Assigns the given value to the Base Priority register only if BASEPRI masking is disable
 271:../../Drivers/CMSIS/Include/cmsis_gcc.h ****            or the new value increases the BASEPRI priority level.
 272:../../Drivers/CMSIS/Include/cmsis_gcc.h ****   \param [in]    basePri  Base Priority value to set
 273:../../Drivers/CMSIS/Include/cmsis_gcc.h ****  */
ARM GAS  /tmp/cc3FfnUx.s 			page 22


 274:../../Drivers/CMSIS/Include/cmsis_gcc.h **** __attribute__( ( always_inline ) ) __STATIC_INLINE void __set_BASEPRI_MAX(uint32_t value)
 275:../../Drivers/CMSIS/Include/cmsis_gcc.h **** {
 276:../../Drivers/CMSIS/Include/cmsis_gcc.h ****   __ASM volatile ("MSR basepri_max, %0" : : "r" (value) : "memory");
 277:../../Drivers/CMSIS/Include/cmsis_gcc.h **** }
 278:../../Drivers/CMSIS/Include/cmsis_gcc.h **** 
 279:../../Drivers/CMSIS/Include/cmsis_gcc.h **** 
 280:../../Drivers/CMSIS/Include/cmsis_gcc.h **** /**
 281:../../Drivers/CMSIS/Include/cmsis_gcc.h ****   \brief   Get Fault Mask
 282:../../Drivers/CMSIS/Include/cmsis_gcc.h ****   \details Returns the current value of the Fault Mask register.
 283:../../Drivers/CMSIS/Include/cmsis_gcc.h ****   \return               Fault Mask register value
 284:../../Drivers/CMSIS/Include/cmsis_gcc.h ****  */
 285:../../Drivers/CMSIS/Include/cmsis_gcc.h **** __attribute__( ( always_inline ) ) __STATIC_INLINE uint32_t __get_FAULTMASK(void)
 286:../../Drivers/CMSIS/Include/cmsis_gcc.h **** {
 287:../../Drivers/CMSIS/Include/cmsis_gcc.h ****   uint32_t result;
 288:../../Drivers/CMSIS/Include/cmsis_gcc.h **** 
 289:../../Drivers/CMSIS/Include/cmsis_gcc.h ****   __ASM volatile ("MRS %0, faultmask" : "=r" (result) );
 290:../../Drivers/CMSIS/Include/cmsis_gcc.h ****   return(result);
 291:../../Drivers/CMSIS/Include/cmsis_gcc.h **** }
 292:../../Drivers/CMSIS/Include/cmsis_gcc.h **** 
 293:../../Drivers/CMSIS/Include/cmsis_gcc.h **** 
 294:../../Drivers/CMSIS/Include/cmsis_gcc.h **** /**
 295:../../Drivers/CMSIS/Include/cmsis_gcc.h ****   \brief   Set Fault Mask
 296:../../Drivers/CMSIS/Include/cmsis_gcc.h ****   \details Assigns the given value to the Fault Mask register.
 297:../../Drivers/CMSIS/Include/cmsis_gcc.h ****   \param [in]    faultMask  Fault Mask value to set
 298:../../Drivers/CMSIS/Include/cmsis_gcc.h ****  */
 299:../../Drivers/CMSIS/Include/cmsis_gcc.h **** __attribute__( ( always_inline ) ) __STATIC_INLINE void __set_FAULTMASK(uint32_t faultMask)
 300:../../Drivers/CMSIS/Include/cmsis_gcc.h **** {
 301:../../Drivers/CMSIS/Include/cmsis_gcc.h ****   __ASM volatile ("MSR faultmask, %0" : : "r" (faultMask) : "memory");
 302:../../Drivers/CMSIS/Include/cmsis_gcc.h **** }
 303:../../Drivers/CMSIS/Include/cmsis_gcc.h **** 
 304:../../Drivers/CMSIS/Include/cmsis_gcc.h **** #endif /* (__CORTEX_M >= 0x03U) */
 305:../../Drivers/CMSIS/Include/cmsis_gcc.h **** 
 306:../../Drivers/CMSIS/Include/cmsis_gcc.h **** 
 307:../../Drivers/CMSIS/Include/cmsis_gcc.h **** #if       (__CORTEX_M == 0x04U) || (__CORTEX_M == 0x07U)
 308:../../Drivers/CMSIS/Include/cmsis_gcc.h **** 
 309:../../Drivers/CMSIS/Include/cmsis_gcc.h **** /**
 310:../../Drivers/CMSIS/Include/cmsis_gcc.h ****   \brief   Get FPSCR
 311:../../Drivers/CMSIS/Include/cmsis_gcc.h ****   \details Returns the current value of the Floating Point Status/Control register.
 312:../../Drivers/CMSIS/Include/cmsis_gcc.h ****   \return               Floating Point Status/Control register value
 313:../../Drivers/CMSIS/Include/cmsis_gcc.h ****  */
 314:../../Drivers/CMSIS/Include/cmsis_gcc.h **** __attribute__( ( always_inline ) ) __STATIC_INLINE uint32_t __get_FPSCR(void)
 315:../../Drivers/CMSIS/Include/cmsis_gcc.h **** {
 316:../../Drivers/CMSIS/Include/cmsis_gcc.h **** #if (__FPU_PRESENT == 1U) && (__FPU_USED == 1U)
 317:../../Drivers/CMSIS/Include/cmsis_gcc.h ****   uint32_t result;
 318:../../Drivers/CMSIS/Include/cmsis_gcc.h **** 
 319:../../Drivers/CMSIS/Include/cmsis_gcc.h ****   /* Empty asm statement works as a scheduling barrier */
 320:../../Drivers/CMSIS/Include/cmsis_gcc.h ****   __ASM volatile ("");
 321:../../Drivers/CMSIS/Include/cmsis_gcc.h ****   __ASM volatile ("VMRS %0, fpscr" : "=r" (result) );
 322:../../Drivers/CMSIS/Include/cmsis_gcc.h ****   __ASM volatile ("");
 323:../../Drivers/CMSIS/Include/cmsis_gcc.h ****   return(result);
 324:../../Drivers/CMSIS/Include/cmsis_gcc.h **** #else
 325:../../Drivers/CMSIS/Include/cmsis_gcc.h ****    return(0);
 326:../../Drivers/CMSIS/Include/cmsis_gcc.h **** #endif
 327:../../Drivers/CMSIS/Include/cmsis_gcc.h **** }
 328:../../Drivers/CMSIS/Include/cmsis_gcc.h **** 
 329:../../Drivers/CMSIS/Include/cmsis_gcc.h **** 
 330:../../Drivers/CMSIS/Include/cmsis_gcc.h **** /**
ARM GAS  /tmp/cc3FfnUx.s 			page 23


 331:../../Drivers/CMSIS/Include/cmsis_gcc.h ****   \brief   Set FPSCR
 332:../../Drivers/CMSIS/Include/cmsis_gcc.h ****   \details Assigns the given value to the Floating Point Status/Control register.
 333:../../Drivers/CMSIS/Include/cmsis_gcc.h ****   \param [in]    fpscr  Floating Point Status/Control value to set
 334:../../Drivers/CMSIS/Include/cmsis_gcc.h ****  */
 335:../../Drivers/CMSIS/Include/cmsis_gcc.h **** __attribute__( ( always_inline ) ) __STATIC_INLINE void __set_FPSCR(uint32_t fpscr)
 336:../../Drivers/CMSIS/Include/cmsis_gcc.h **** {
 337:../../Drivers/CMSIS/Include/cmsis_gcc.h **** #if (__FPU_PRESENT == 1U) && (__FPU_USED == 1U)
 338:../../Drivers/CMSIS/Include/cmsis_gcc.h ****   /* Empty asm statement works as a scheduling barrier */
 339:../../Drivers/CMSIS/Include/cmsis_gcc.h ****   __ASM volatile ("");
 340:../../Drivers/CMSIS/Include/cmsis_gcc.h ****   __ASM volatile ("VMSR fpscr, %0" : : "r" (fpscr) : "vfpcc");
 341:../../Drivers/CMSIS/Include/cmsis_gcc.h ****   __ASM volatile ("");
 342:../../Drivers/CMSIS/Include/cmsis_gcc.h **** #endif
 343:../../Drivers/CMSIS/Include/cmsis_gcc.h **** }
 344:../../Drivers/CMSIS/Include/cmsis_gcc.h **** 
 345:../../Drivers/CMSIS/Include/cmsis_gcc.h **** #endif /* (__CORTEX_M == 0x04U) || (__CORTEX_M == 0x07U) */
 346:../../Drivers/CMSIS/Include/cmsis_gcc.h **** 
 347:../../Drivers/CMSIS/Include/cmsis_gcc.h **** 
 348:../../Drivers/CMSIS/Include/cmsis_gcc.h **** 
 349:../../Drivers/CMSIS/Include/cmsis_gcc.h **** /*@} end of CMSIS_Core_RegAccFunctions */
 350:../../Drivers/CMSIS/Include/cmsis_gcc.h **** 
 351:../../Drivers/CMSIS/Include/cmsis_gcc.h **** 
 352:../../Drivers/CMSIS/Include/cmsis_gcc.h **** /* ##########################  Core Instruction Access  ######################### */
 353:../../Drivers/CMSIS/Include/cmsis_gcc.h **** /** \defgroup CMSIS_Core_InstructionInterface CMSIS Core Instruction Interface
 354:../../Drivers/CMSIS/Include/cmsis_gcc.h ****   Access to dedicated instructions
 355:../../Drivers/CMSIS/Include/cmsis_gcc.h ****   @{
 356:../../Drivers/CMSIS/Include/cmsis_gcc.h **** */
 357:../../Drivers/CMSIS/Include/cmsis_gcc.h **** 
 358:../../Drivers/CMSIS/Include/cmsis_gcc.h **** /* Define macros for porting to both thumb1 and thumb2.
 359:../../Drivers/CMSIS/Include/cmsis_gcc.h ****  * For thumb1, use low register (r0-r7), specified by constraint "l"
 360:../../Drivers/CMSIS/Include/cmsis_gcc.h ****  * Otherwise, use general registers, specified by constraint "r" */
 361:../../Drivers/CMSIS/Include/cmsis_gcc.h **** #if defined (__thumb__) && !defined (__thumb2__)
 362:../../Drivers/CMSIS/Include/cmsis_gcc.h **** #define __CMSIS_GCC_OUT_REG(r) "=l" (r)
 363:../../Drivers/CMSIS/Include/cmsis_gcc.h **** #define __CMSIS_GCC_USE_REG(r) "l" (r)
 364:../../Drivers/CMSIS/Include/cmsis_gcc.h **** #else
 365:../../Drivers/CMSIS/Include/cmsis_gcc.h **** #define __CMSIS_GCC_OUT_REG(r) "=r" (r)
 366:../../Drivers/CMSIS/Include/cmsis_gcc.h **** #define __CMSIS_GCC_USE_REG(r) "r" (r)
 367:../../Drivers/CMSIS/Include/cmsis_gcc.h **** #endif
 368:../../Drivers/CMSIS/Include/cmsis_gcc.h **** 
 369:../../Drivers/CMSIS/Include/cmsis_gcc.h **** /**
 370:../../Drivers/CMSIS/Include/cmsis_gcc.h ****   \brief   No Operation
 371:../../Drivers/CMSIS/Include/cmsis_gcc.h ****   \details No Operation does nothing. This instruction can be used for code alignment purposes.
 372:../../Drivers/CMSIS/Include/cmsis_gcc.h ****  */
 373:../../Drivers/CMSIS/Include/cmsis_gcc.h **** __attribute__((always_inline)) __STATIC_INLINE void __NOP(void)
 374:../../Drivers/CMSIS/Include/cmsis_gcc.h **** {
 375:../../Drivers/CMSIS/Include/cmsis_gcc.h ****   __ASM volatile ("nop");
 376:../../Drivers/CMSIS/Include/cmsis_gcc.h **** }
 377:../../Drivers/CMSIS/Include/cmsis_gcc.h **** 
 378:../../Drivers/CMSIS/Include/cmsis_gcc.h **** 
 379:../../Drivers/CMSIS/Include/cmsis_gcc.h **** /**
 380:../../Drivers/CMSIS/Include/cmsis_gcc.h ****   \brief   Wait For Interrupt
 381:../../Drivers/CMSIS/Include/cmsis_gcc.h ****   \details Wait For Interrupt is a hint instruction that suspends execution until one of a number o
 382:../../Drivers/CMSIS/Include/cmsis_gcc.h ****  */
 383:../../Drivers/CMSIS/Include/cmsis_gcc.h **** __attribute__((always_inline)) __STATIC_INLINE void __WFI(void)
 384:../../Drivers/CMSIS/Include/cmsis_gcc.h **** {
 385:../../Drivers/CMSIS/Include/cmsis_gcc.h ****   __ASM volatile ("wfi");
 527              		.loc 2 385 0
 528              	@ 385 "../../Drivers/CMSIS/Include/cmsis_gcc.h" 1
ARM GAS  /tmp/cc3FfnUx.s 			page 24


 529 001e 30BF     		wfi
 530              	@ 0 "" 2
 531              		.thumb
 532              	.LBE21:
 533              	.LBE20:
 534 0020 02E0     		b	.L29
 535              	.L30:
 536              	.LBB22:
 537              	.LBB23:
 386:../../Drivers/CMSIS/Include/cmsis_gcc.h **** }
 387:../../Drivers/CMSIS/Include/cmsis_gcc.h **** 
 388:../../Drivers/CMSIS/Include/cmsis_gcc.h **** 
 389:../../Drivers/CMSIS/Include/cmsis_gcc.h **** /**
 390:../../Drivers/CMSIS/Include/cmsis_gcc.h ****   \brief   Wait For Event
 391:../../Drivers/CMSIS/Include/cmsis_gcc.h ****   \details Wait For Event is a hint instruction that permits the processor to enter
 392:../../Drivers/CMSIS/Include/cmsis_gcc.h ****     a low-power state until one of a number of events occurs.
 393:../../Drivers/CMSIS/Include/cmsis_gcc.h ****  */
 394:../../Drivers/CMSIS/Include/cmsis_gcc.h **** __attribute__((always_inline)) __STATIC_INLINE void __WFE(void)
 395:../../Drivers/CMSIS/Include/cmsis_gcc.h **** {
 396:../../Drivers/CMSIS/Include/cmsis_gcc.h ****   __ASM volatile ("wfe");
 397:../../Drivers/CMSIS/Include/cmsis_gcc.h **** }
 398:../../Drivers/CMSIS/Include/cmsis_gcc.h **** 
 399:../../Drivers/CMSIS/Include/cmsis_gcc.h **** 
 400:../../Drivers/CMSIS/Include/cmsis_gcc.h **** /**
 401:../../Drivers/CMSIS/Include/cmsis_gcc.h ****   \brief   Send Event
 402:../../Drivers/CMSIS/Include/cmsis_gcc.h ****   \details Send Event is a hint instruction. It causes an event to be signaled to the CPU.
 403:../../Drivers/CMSIS/Include/cmsis_gcc.h ****  */
 404:../../Drivers/CMSIS/Include/cmsis_gcc.h **** __attribute__((always_inline)) __STATIC_INLINE void __SEV(void)
 405:../../Drivers/CMSIS/Include/cmsis_gcc.h **** {
 406:../../Drivers/CMSIS/Include/cmsis_gcc.h ****   __ASM volatile ("sev");
 538              		.loc 2 406 0
 539              	@ 406 "../../Drivers/CMSIS/Include/cmsis_gcc.h" 1
 540 0022 40BF     		sev
 541              	@ 0 "" 2
 542              		.thumb
 543              	.LBE23:
 544              	.LBE22:
 545              	.LBB24:
 546              	.LBB25:
 396:../../Drivers/CMSIS/Include/cmsis_gcc.h **** }
 547              		.loc 2 396 0
 548              	@ 396 "../../Drivers/CMSIS/Include/cmsis_gcc.h" 1
 549 0024 20BF     		wfe
 550              	@ 0 "" 2
 551              		.thumb
 552              	.LBE25:
 553              	.LBE24:
 554              	.LBB26:
 555              	.LBB27:
 556              	@ 396 "../../Drivers/CMSIS/Include/cmsis_gcc.h" 1
 557 0026 20BF     		wfe
 558              	@ 0 "" 2
 559              		.thumb
 560              	.L29:
 561              	.LBE27:
 562              	.LBE26:
 416:../../Drivers/STM32F7xx_HAL_Driver/Src/stm32f7xx_hal_pwr.c ****   {   
ARM GAS  /tmp/cc3FfnUx.s 			page 25


 417:../../Drivers/STM32F7xx_HAL_Driver/Src/stm32f7xx_hal_pwr.c ****     /* Request Wait For Interrupt */
 418:../../Drivers/STM32F7xx_HAL_Driver/Src/stm32f7xx_hal_pwr.c ****     __WFI();
 419:../../Drivers/STM32F7xx_HAL_Driver/Src/stm32f7xx_hal_pwr.c ****   }
 420:../../Drivers/STM32F7xx_HAL_Driver/Src/stm32f7xx_hal_pwr.c ****   else
 421:../../Drivers/STM32F7xx_HAL_Driver/Src/stm32f7xx_hal_pwr.c ****   {
 422:../../Drivers/STM32F7xx_HAL_Driver/Src/stm32f7xx_hal_pwr.c ****     /* Request Wait For Event */
 423:../../Drivers/STM32F7xx_HAL_Driver/Src/stm32f7xx_hal_pwr.c ****     __SEV();
 424:../../Drivers/STM32F7xx_HAL_Driver/Src/stm32f7xx_hal_pwr.c ****     __WFE();
 425:../../Drivers/STM32F7xx_HAL_Driver/Src/stm32f7xx_hal_pwr.c ****     __WFE();
 426:../../Drivers/STM32F7xx_HAL_Driver/Src/stm32f7xx_hal_pwr.c ****   }
 427:../../Drivers/STM32F7xx_HAL_Driver/Src/stm32f7xx_hal_pwr.c **** }
 563              		.loc 1 427 0
 564 0028 0C37     		adds	r7, r7, #12
 565              	.LCFI41:
 566              		.cfi_def_cfa_offset 4
 567 002a BD46     		mov	sp, r7
 568              	.LCFI42:
 569              		.cfi_def_cfa_register 13
 570              		@ sp needed
 571 002c 5DF8047B 		ldr	r7, [sp], #4
 572              	.LCFI43:
 573              		.cfi_restore 7
 574              		.cfi_def_cfa_offset 0
 575 0030 7047     		bx	lr
 576              	.L33:
 577 0032 00BF     		.align	2
 578              	.L32:
 579 0034 00ED00E0 		.word	-536810240
 580              		.cfi_endproc
 581              	.LFE143:
 583              		.section	.text.HAL_PWR_EnterSTOPMode,"ax",%progbits
 584              		.align	2
 585              		.global	HAL_PWR_EnterSTOPMode
 586              		.thumb
 587              		.thumb_func
 589              	HAL_PWR_EnterSTOPMode:
 590              	.LFB144:
 428:../../Drivers/STM32F7xx_HAL_Driver/Src/stm32f7xx_hal_pwr.c **** 
 429:../../Drivers/STM32F7xx_HAL_Driver/Src/stm32f7xx_hal_pwr.c **** /**
 430:../../Drivers/STM32F7xx_HAL_Driver/Src/stm32f7xx_hal_pwr.c ****   * @brief Enters Stop mode. 
 431:../../Drivers/STM32F7xx_HAL_Driver/Src/stm32f7xx_hal_pwr.c ****   * @note In Stop mode, all I/O pins keep the same state as in Run mode.
 432:../../Drivers/STM32F7xx_HAL_Driver/Src/stm32f7xx_hal_pwr.c ****   * @note When exiting Stop mode by issuing an interrupt or a wakeup event, 
 433:../../Drivers/STM32F7xx_HAL_Driver/Src/stm32f7xx_hal_pwr.c ****   *         the HSI RC oscillator is selected as system clock.
 434:../../Drivers/STM32F7xx_HAL_Driver/Src/stm32f7xx_hal_pwr.c ****   * @note When the voltage regulator operates in low power mode, an additional 
 435:../../Drivers/STM32F7xx_HAL_Driver/Src/stm32f7xx_hal_pwr.c ****   *         startup delay is incurred when waking up from Stop mode. 
 436:../../Drivers/STM32F7xx_HAL_Driver/Src/stm32f7xx_hal_pwr.c ****   *         By keeping the internal regulator ON during Stop mode, the consumption 
 437:../../Drivers/STM32F7xx_HAL_Driver/Src/stm32f7xx_hal_pwr.c ****   *         is higher although the startup time is reduced.    
 438:../../Drivers/STM32F7xx_HAL_Driver/Src/stm32f7xx_hal_pwr.c ****   * @param Regulator: Specifies the regulator state in Stop mode.
 439:../../Drivers/STM32F7xx_HAL_Driver/Src/stm32f7xx_hal_pwr.c ****   *          This parameter can be one of the following values:
 440:../../Drivers/STM32F7xx_HAL_Driver/Src/stm32f7xx_hal_pwr.c ****   *            @arg PWR_MAINREGULATOR_ON: Stop mode with regulator ON
 441:../../Drivers/STM32F7xx_HAL_Driver/Src/stm32f7xx_hal_pwr.c ****   *            @arg PWR_LOWPOWERREGULATOR_ON: Stop mode with low power regulator ON
 442:../../Drivers/STM32F7xx_HAL_Driver/Src/stm32f7xx_hal_pwr.c ****   * @param STOPEntry: Specifies if Stop mode in entered with WFI or WFE instruction.
 443:../../Drivers/STM32F7xx_HAL_Driver/Src/stm32f7xx_hal_pwr.c ****   *          This parameter can be one of the following values:
 444:../../Drivers/STM32F7xx_HAL_Driver/Src/stm32f7xx_hal_pwr.c ****   *            @arg PWR_STOPENTRY_WFI: Enter Stop mode with WFI instruction
 445:../../Drivers/STM32F7xx_HAL_Driver/Src/stm32f7xx_hal_pwr.c ****   *            @arg PWR_STOPENTRY_WFE: Enter Stop mode with WFE instruction
 446:../../Drivers/STM32F7xx_HAL_Driver/Src/stm32f7xx_hal_pwr.c ****   * @retval None
 447:../../Drivers/STM32F7xx_HAL_Driver/Src/stm32f7xx_hal_pwr.c ****   */
ARM GAS  /tmp/cc3FfnUx.s 			page 26


 448:../../Drivers/STM32F7xx_HAL_Driver/Src/stm32f7xx_hal_pwr.c **** void HAL_PWR_EnterSTOPMode(uint32_t Regulator, uint8_t STOPEntry)
 449:../../Drivers/STM32F7xx_HAL_Driver/Src/stm32f7xx_hal_pwr.c **** {
 591              		.loc 1 449 0
 592              		.cfi_startproc
 593              		@ args = 0, pretend = 0, frame = 16
 594              		@ frame_needed = 1, uses_anonymous_args = 0
 595              		@ link register save eliminated.
 596 0000 80B4     		push	{r7}
 597              	.LCFI44:
 598              		.cfi_def_cfa_offset 4
 599              		.cfi_offset 7, -4
 600 0002 85B0     		sub	sp, sp, #20
 601              	.LCFI45:
 602              		.cfi_def_cfa_offset 24
 603 0004 00AF     		add	r7, sp, #0
 604              	.LCFI46:
 605              		.cfi_def_cfa_register 7
 606 0006 7860     		str	r0, [r7, #4]
 607 0008 0B46     		mov	r3, r1
 608 000a FB70     		strb	r3, [r7, #3]
 450:../../Drivers/STM32F7xx_HAL_Driver/Src/stm32f7xx_hal_pwr.c ****   uint32_t tmpreg = 0;
 609              		.loc 1 450 0
 610 000c 0023     		movs	r3, #0
 611 000e FB60     		str	r3, [r7, #12]
 451:../../Drivers/STM32F7xx_HAL_Driver/Src/stm32f7xx_hal_pwr.c ****   
 452:../../Drivers/STM32F7xx_HAL_Driver/Src/stm32f7xx_hal_pwr.c ****   /* Check the parameters */
 453:../../Drivers/STM32F7xx_HAL_Driver/Src/stm32f7xx_hal_pwr.c ****   assert_param(IS_PWR_REGULATOR(Regulator));
 454:../../Drivers/STM32F7xx_HAL_Driver/Src/stm32f7xx_hal_pwr.c ****   assert_param(IS_PWR_STOP_ENTRY(STOPEntry));
 455:../../Drivers/STM32F7xx_HAL_Driver/Src/stm32f7xx_hal_pwr.c ****   
 456:../../Drivers/STM32F7xx_HAL_Driver/Src/stm32f7xx_hal_pwr.c ****   /* Select the regulator state in Stop mode ---------------------------------*/
 457:../../Drivers/STM32F7xx_HAL_Driver/Src/stm32f7xx_hal_pwr.c ****   tmpreg = PWR->CR1;
 612              		.loc 1 457 0
 613 0010 134B     		ldr	r3, .L37
 614 0012 1B68     		ldr	r3, [r3]
 615 0014 FB60     		str	r3, [r7, #12]
 458:../../Drivers/STM32F7xx_HAL_Driver/Src/stm32f7xx_hal_pwr.c ****   /* Clear PDDS and LPDS bits */
 459:../../Drivers/STM32F7xx_HAL_Driver/Src/stm32f7xx_hal_pwr.c ****   tmpreg &= (uint32_t)~(PWR_CR1_PDDS | PWR_CR1_LPDS);
 616              		.loc 1 459 0
 617 0016 FB68     		ldr	r3, [r7, #12]
 618 0018 23F00303 		bic	r3, r3, #3
 619 001c FB60     		str	r3, [r7, #12]
 460:../../Drivers/STM32F7xx_HAL_Driver/Src/stm32f7xx_hal_pwr.c ****   
 461:../../Drivers/STM32F7xx_HAL_Driver/Src/stm32f7xx_hal_pwr.c ****   /* Set LPDS, MRLVDS and LPLVDS bits according to Regulator value */
 462:../../Drivers/STM32F7xx_HAL_Driver/Src/stm32f7xx_hal_pwr.c ****   tmpreg |= Regulator;
 620              		.loc 1 462 0
 621 001e FA68     		ldr	r2, [r7, #12]
 622 0020 7B68     		ldr	r3, [r7, #4]
 623 0022 1343     		orrs	r3, r3, r2
 624 0024 FB60     		str	r3, [r7, #12]
 463:../../Drivers/STM32F7xx_HAL_Driver/Src/stm32f7xx_hal_pwr.c ****   
 464:../../Drivers/STM32F7xx_HAL_Driver/Src/stm32f7xx_hal_pwr.c ****   /* Store the new value */
 465:../../Drivers/STM32F7xx_HAL_Driver/Src/stm32f7xx_hal_pwr.c ****   PWR->CR1 = tmpreg;
 625              		.loc 1 465 0
 626 0026 0E4A     		ldr	r2, .L37
 627 0028 FB68     		ldr	r3, [r7, #12]
 628 002a 1360     		str	r3, [r2]
 466:../../Drivers/STM32F7xx_HAL_Driver/Src/stm32f7xx_hal_pwr.c ****   
ARM GAS  /tmp/cc3FfnUx.s 			page 27


 467:../../Drivers/STM32F7xx_HAL_Driver/Src/stm32f7xx_hal_pwr.c ****   /* Set SLEEPDEEP bit of Cortex System Control Register */
 468:../../Drivers/STM32F7xx_HAL_Driver/Src/stm32f7xx_hal_pwr.c ****   SCB->SCR |= SCB_SCR_SLEEPDEEP_Msk;
 629              		.loc 1 468 0
 630 002c 0D4A     		ldr	r2, .L37+4
 631 002e 0D4B     		ldr	r3, .L37+4
 632 0030 1B69     		ldr	r3, [r3, #16]
 633 0032 43F00403 		orr	r3, r3, #4
 634 0036 1361     		str	r3, [r2, #16]
 469:../../Drivers/STM32F7xx_HAL_Driver/Src/stm32f7xx_hal_pwr.c ****   
 470:../../Drivers/STM32F7xx_HAL_Driver/Src/stm32f7xx_hal_pwr.c ****   /* Select Stop mode entry --------------------------------------------------*/
 471:../../Drivers/STM32F7xx_HAL_Driver/Src/stm32f7xx_hal_pwr.c ****   if(STOPEntry == PWR_STOPENTRY_WFI)
 635              		.loc 1 471 0
 636 0038 FB78     		ldrb	r3, [r7, #3]	@ zero_extendqisi2
 637 003a 012B     		cmp	r3, #1
 638 003c 01D1     		bne	.L35
 639              	.LBB28:
 640              	.LBB29:
 385:../../Drivers/CMSIS/Include/cmsis_gcc.h **** }
 641              		.loc 2 385 0
 642              	@ 385 "../../Drivers/CMSIS/Include/cmsis_gcc.h" 1
 643 003e 30BF     		wfi
 644              	@ 0 "" 2
 645              		.thumb
 646              	.LBE29:
 647              	.LBE28:
 648 0040 02E0     		b	.L36
 649              	.L35:
 650              	.LBB30:
 651              	.LBB31:
 652              		.loc 2 406 0
 653              	@ 406 "../../Drivers/CMSIS/Include/cmsis_gcc.h" 1
 654 0042 40BF     		sev
 655              	@ 0 "" 2
 656              		.thumb
 657              	.LBE31:
 658              	.LBE30:
 659              	.LBB32:
 660              	.LBB33:
 396:../../Drivers/CMSIS/Include/cmsis_gcc.h **** }
 661              		.loc 2 396 0
 662              	@ 396 "../../Drivers/CMSIS/Include/cmsis_gcc.h" 1
 663 0044 20BF     		wfe
 664              	@ 0 "" 2
 665              		.thumb
 666              	.LBE33:
 667              	.LBE32:
 668              	.LBB34:
 669              	.LBB35:
 670              	@ 396 "../../Drivers/CMSIS/Include/cmsis_gcc.h" 1
 671 0046 20BF     		wfe
 672              	@ 0 "" 2
 673              		.thumb
 674              	.L36:
 675              	.LBE35:
 676              	.LBE34:
 472:../../Drivers/STM32F7xx_HAL_Driver/Src/stm32f7xx_hal_pwr.c ****   {   
 473:../../Drivers/STM32F7xx_HAL_Driver/Src/stm32f7xx_hal_pwr.c ****     /* Request Wait For Interrupt */
ARM GAS  /tmp/cc3FfnUx.s 			page 28


 474:../../Drivers/STM32F7xx_HAL_Driver/Src/stm32f7xx_hal_pwr.c ****     __WFI();
 475:../../Drivers/STM32F7xx_HAL_Driver/Src/stm32f7xx_hal_pwr.c ****   }
 476:../../Drivers/STM32F7xx_HAL_Driver/Src/stm32f7xx_hal_pwr.c ****   else
 477:../../Drivers/STM32F7xx_HAL_Driver/Src/stm32f7xx_hal_pwr.c ****   {
 478:../../Drivers/STM32F7xx_HAL_Driver/Src/stm32f7xx_hal_pwr.c ****     /* Request Wait For Event */
 479:../../Drivers/STM32F7xx_HAL_Driver/Src/stm32f7xx_hal_pwr.c ****     __SEV();
 480:../../Drivers/STM32F7xx_HAL_Driver/Src/stm32f7xx_hal_pwr.c ****     __WFE();
 481:../../Drivers/STM32F7xx_HAL_Driver/Src/stm32f7xx_hal_pwr.c ****     __WFE();
 482:../../Drivers/STM32F7xx_HAL_Driver/Src/stm32f7xx_hal_pwr.c ****   }
 483:../../Drivers/STM32F7xx_HAL_Driver/Src/stm32f7xx_hal_pwr.c ****   /* Reset SLEEPDEEP bit of Cortex System Control Register */
 484:../../Drivers/STM32F7xx_HAL_Driver/Src/stm32f7xx_hal_pwr.c ****   SCB->SCR &= (uint32_t)~((uint32_t)SCB_SCR_SLEEPDEEP_Msk);  
 677              		.loc 1 484 0
 678 0048 064A     		ldr	r2, .L37+4
 679 004a 064B     		ldr	r3, .L37+4
 680 004c 1B69     		ldr	r3, [r3, #16]
 681 004e 23F00403 		bic	r3, r3, #4
 682 0052 1361     		str	r3, [r2, #16]
 485:../../Drivers/STM32F7xx_HAL_Driver/Src/stm32f7xx_hal_pwr.c **** }
 683              		.loc 1 485 0
 684 0054 1437     		adds	r7, r7, #20
 685              	.LCFI47:
 686              		.cfi_def_cfa_offset 4
 687 0056 BD46     		mov	sp, r7
 688              	.LCFI48:
 689              		.cfi_def_cfa_register 13
 690              		@ sp needed
 691 0058 5DF8047B 		ldr	r7, [sp], #4
 692              	.LCFI49:
 693              		.cfi_restore 7
 694              		.cfi_def_cfa_offset 0
 695 005c 7047     		bx	lr
 696              	.L38:
 697 005e 00BF     		.align	2
 698              	.L37:
 699 0060 00700040 		.word	1073770496
 700 0064 00ED00E0 		.word	-536810240
 701              		.cfi_endproc
 702              	.LFE144:
 704              		.section	.text.HAL_PWR_EnterSTANDBYMode,"ax",%progbits
 705              		.align	2
 706              		.global	HAL_PWR_EnterSTANDBYMode
 707              		.thumb
 708              		.thumb_func
 710              	HAL_PWR_EnterSTANDBYMode:
 711              	.LFB145:
 486:../../Drivers/STM32F7xx_HAL_Driver/Src/stm32f7xx_hal_pwr.c **** 
 487:../../Drivers/STM32F7xx_HAL_Driver/Src/stm32f7xx_hal_pwr.c **** /**
 488:../../Drivers/STM32F7xx_HAL_Driver/Src/stm32f7xx_hal_pwr.c ****   * @brief Enters Standby mode.
 489:../../Drivers/STM32F7xx_HAL_Driver/Src/stm32f7xx_hal_pwr.c ****   * @note In Standby mode, all I/O pins are high impedance except for:
 490:../../Drivers/STM32F7xx_HAL_Driver/Src/stm32f7xx_hal_pwr.c ****   *          - Reset pad (still available) 
 491:../../Drivers/STM32F7xx_HAL_Driver/Src/stm32f7xx_hal_pwr.c ****   *          - RTC_AF1 pin (PC13) if configured for tamper, time-stamp, RTC 
 492:../../Drivers/STM32F7xx_HAL_Driver/Src/stm32f7xx_hal_pwr.c ****   *            Alarm out, or RTC clock calibration out.
 493:../../Drivers/STM32F7xx_HAL_Driver/Src/stm32f7xx_hal_pwr.c ****   *          - RTC_AF2 pin (PI8) if configured for tamper or time-stamp.  
 494:../../Drivers/STM32F7xx_HAL_Driver/Src/stm32f7xx_hal_pwr.c ****   *          - WKUP pins if enabled.       
 495:../../Drivers/STM32F7xx_HAL_Driver/Src/stm32f7xx_hal_pwr.c ****   * @retval None
 496:../../Drivers/STM32F7xx_HAL_Driver/Src/stm32f7xx_hal_pwr.c ****   */
 497:../../Drivers/STM32F7xx_HAL_Driver/Src/stm32f7xx_hal_pwr.c **** void HAL_PWR_EnterSTANDBYMode(void)
ARM GAS  /tmp/cc3FfnUx.s 			page 29


 498:../../Drivers/STM32F7xx_HAL_Driver/Src/stm32f7xx_hal_pwr.c **** {
 712              		.loc 1 498 0
 713              		.cfi_startproc
 714              		@ args = 0, pretend = 0, frame = 0
 715              		@ frame_needed = 1, uses_anonymous_args = 0
 716              		@ link register save eliminated.
 717 0000 80B4     		push	{r7}
 718              	.LCFI50:
 719              		.cfi_def_cfa_offset 4
 720              		.cfi_offset 7, -4
 721 0002 00AF     		add	r7, sp, #0
 722              	.LCFI51:
 723              		.cfi_def_cfa_register 7
 499:../../Drivers/STM32F7xx_HAL_Driver/Src/stm32f7xx_hal_pwr.c ****   /* Select Standby mode */
 500:../../Drivers/STM32F7xx_HAL_Driver/Src/stm32f7xx_hal_pwr.c ****   PWR->CR1 |= PWR_CR1_PDDS;
 724              		.loc 1 500 0
 725 0004 084A     		ldr	r2, .L40
 726 0006 084B     		ldr	r3, .L40
 727 0008 1B68     		ldr	r3, [r3]
 728 000a 43F00203 		orr	r3, r3, #2
 729 000e 1360     		str	r3, [r2]
 501:../../Drivers/STM32F7xx_HAL_Driver/Src/stm32f7xx_hal_pwr.c ****   
 502:../../Drivers/STM32F7xx_HAL_Driver/Src/stm32f7xx_hal_pwr.c ****   /* Set SLEEPDEEP bit of Cortex System Control Register */
 503:../../Drivers/STM32F7xx_HAL_Driver/Src/stm32f7xx_hal_pwr.c ****   SCB->SCR |= SCB_SCR_SLEEPDEEP_Msk;
 730              		.loc 1 503 0
 731 0010 064A     		ldr	r2, .L40+4
 732 0012 064B     		ldr	r3, .L40+4
 733 0014 1B69     		ldr	r3, [r3, #16]
 734 0016 43F00403 		orr	r3, r3, #4
 735 001a 1361     		str	r3, [r2, #16]
 736              	.LBB36:
 737              	.LBB37:
 385:../../Drivers/CMSIS/Include/cmsis_gcc.h **** }
 738              		.loc 2 385 0
 739              	@ 385 "../../Drivers/CMSIS/Include/cmsis_gcc.h" 1
 740 001c 30BF     		wfi
 741              	@ 0 "" 2
 742              		.thumb
 743              	.LBE37:
 744              	.LBE36:
 504:../../Drivers/STM32F7xx_HAL_Driver/Src/stm32f7xx_hal_pwr.c ****   
 505:../../Drivers/STM32F7xx_HAL_Driver/Src/stm32f7xx_hal_pwr.c ****   /* This option is used to ensure that store operations are completed */
 506:../../Drivers/STM32F7xx_HAL_Driver/Src/stm32f7xx_hal_pwr.c **** #if defined ( __CC_ARM)
 507:../../Drivers/STM32F7xx_HAL_Driver/Src/stm32f7xx_hal_pwr.c ****   __force_stores();
 508:../../Drivers/STM32F7xx_HAL_Driver/Src/stm32f7xx_hal_pwr.c **** #endif
 509:../../Drivers/STM32F7xx_HAL_Driver/Src/stm32f7xx_hal_pwr.c ****   /* Request Wait For Interrupt */
 510:../../Drivers/STM32F7xx_HAL_Driver/Src/stm32f7xx_hal_pwr.c ****   __WFI();
 511:../../Drivers/STM32F7xx_HAL_Driver/Src/stm32f7xx_hal_pwr.c **** }
 745              		.loc 1 511 0
 746 001e BD46     		mov	sp, r7
 747              	.LCFI52:
 748              		.cfi_def_cfa_register 13
 749              		@ sp needed
 750 0020 5DF8047B 		ldr	r7, [sp], #4
 751              	.LCFI53:
 752              		.cfi_restore 7
 753              		.cfi_def_cfa_offset 0
ARM GAS  /tmp/cc3FfnUx.s 			page 30


 754 0024 7047     		bx	lr
 755              	.L41:
 756 0026 00BF     		.align	2
 757              	.L40:
 758 0028 00700040 		.word	1073770496
 759 002c 00ED00E0 		.word	-536810240
 760              		.cfi_endproc
 761              	.LFE145:
 763              		.section	.text.HAL_PWR_PVD_IRQHandler,"ax",%progbits
 764              		.align	2
 765              		.global	HAL_PWR_PVD_IRQHandler
 766              		.thumb
 767              		.thumb_func
 769              	HAL_PWR_PVD_IRQHandler:
 770              	.LFB146:
 512:../../Drivers/STM32F7xx_HAL_Driver/Src/stm32f7xx_hal_pwr.c **** 
 513:../../Drivers/STM32F7xx_HAL_Driver/Src/stm32f7xx_hal_pwr.c **** /**
 514:../../Drivers/STM32F7xx_HAL_Driver/Src/stm32f7xx_hal_pwr.c ****   * @brief This function handles the PWR PVD interrupt request.
 515:../../Drivers/STM32F7xx_HAL_Driver/Src/stm32f7xx_hal_pwr.c ****   * @note This API should be called under the PVD_IRQHandler().
 516:../../Drivers/STM32F7xx_HAL_Driver/Src/stm32f7xx_hal_pwr.c ****   * @retval None
 517:../../Drivers/STM32F7xx_HAL_Driver/Src/stm32f7xx_hal_pwr.c ****   */
 518:../../Drivers/STM32F7xx_HAL_Driver/Src/stm32f7xx_hal_pwr.c **** void HAL_PWR_PVD_IRQHandler(void)
 519:../../Drivers/STM32F7xx_HAL_Driver/Src/stm32f7xx_hal_pwr.c **** {
 771              		.loc 1 519 0
 772              		.cfi_startproc
 773              		@ args = 0, pretend = 0, frame = 0
 774              		@ frame_needed = 1, uses_anonymous_args = 0
 775 0000 80B5     		push	{r7, lr}
 776              	.LCFI54:
 777              		.cfi_def_cfa_offset 8
 778              		.cfi_offset 7, -8
 779              		.cfi_offset 14, -4
 780 0002 00AF     		add	r7, sp, #0
 781              	.LCFI55:
 782              		.cfi_def_cfa_register 7
 520:../../Drivers/STM32F7xx_HAL_Driver/Src/stm32f7xx_hal_pwr.c ****   /* Check PWR Exti flag */
 521:../../Drivers/STM32F7xx_HAL_Driver/Src/stm32f7xx_hal_pwr.c ****   if(__HAL_PWR_PVD_EXTI_GET_FLAG() != RESET)
 783              		.loc 1 521 0
 784 0004 064B     		ldr	r3, .L44
 785 0006 5B69     		ldr	r3, [r3, #20]
 786 0008 03F48033 		and	r3, r3, #65536
 787 000c 002B     		cmp	r3, #0
 788 000e 05D0     		beq	.L42
 522:../../Drivers/STM32F7xx_HAL_Driver/Src/stm32f7xx_hal_pwr.c ****   {
 523:../../Drivers/STM32F7xx_HAL_Driver/Src/stm32f7xx_hal_pwr.c ****     /* PWR PVD interrupt user callback */
 524:../../Drivers/STM32F7xx_HAL_Driver/Src/stm32f7xx_hal_pwr.c ****     HAL_PWR_PVDCallback();
 789              		.loc 1 524 0
 790 0010 FFF7FEFF 		bl	HAL_PWR_PVDCallback
 525:../../Drivers/STM32F7xx_HAL_Driver/Src/stm32f7xx_hal_pwr.c ****     
 526:../../Drivers/STM32F7xx_HAL_Driver/Src/stm32f7xx_hal_pwr.c ****     /* Clear PWR Exti pending bit */
 527:../../Drivers/STM32F7xx_HAL_Driver/Src/stm32f7xx_hal_pwr.c ****     __HAL_PWR_PVD_EXTI_CLEAR_FLAG();
 791              		.loc 1 527 0
 792 0014 024B     		ldr	r3, .L44
 793 0016 4FF48032 		mov	r2, #65536
 794 001a 5A61     		str	r2, [r3, #20]
 795              	.L42:
 528:../../Drivers/STM32F7xx_HAL_Driver/Src/stm32f7xx_hal_pwr.c ****   }
ARM GAS  /tmp/cc3FfnUx.s 			page 31


 529:../../Drivers/STM32F7xx_HAL_Driver/Src/stm32f7xx_hal_pwr.c **** }
 796              		.loc 1 529 0
 797 001c 80BD     		pop	{r7, pc}
 798              	.L45:
 799 001e 00BF     		.align	2
 800              	.L44:
 801 0020 003C0140 		.word	1073822720
 802              		.cfi_endproc
 803              	.LFE146:
 805              		.section	.text.HAL_PWR_PVDCallback,"ax",%progbits
 806              		.align	2
 807              		.weak	HAL_PWR_PVDCallback
 808              		.thumb
 809              		.thumb_func
 811              	HAL_PWR_PVDCallback:
 812              	.LFB147:
 530:../../Drivers/STM32F7xx_HAL_Driver/Src/stm32f7xx_hal_pwr.c **** 
 531:../../Drivers/STM32F7xx_HAL_Driver/Src/stm32f7xx_hal_pwr.c **** /**
 532:../../Drivers/STM32F7xx_HAL_Driver/Src/stm32f7xx_hal_pwr.c ****   * @brief  PWR PVD interrupt callback
 533:../../Drivers/STM32F7xx_HAL_Driver/Src/stm32f7xx_hal_pwr.c ****   * @retval None
 534:../../Drivers/STM32F7xx_HAL_Driver/Src/stm32f7xx_hal_pwr.c ****   */
 535:../../Drivers/STM32F7xx_HAL_Driver/Src/stm32f7xx_hal_pwr.c **** __weak void HAL_PWR_PVDCallback(void)
 536:../../Drivers/STM32F7xx_HAL_Driver/Src/stm32f7xx_hal_pwr.c **** {
 813              		.loc 1 536 0
 814              		.cfi_startproc
 815              		@ args = 0, pretend = 0, frame = 0
 816              		@ frame_needed = 1, uses_anonymous_args = 0
 817              		@ link register save eliminated.
 818 0000 80B4     		push	{r7}
 819              	.LCFI56:
 820              		.cfi_def_cfa_offset 4
 821              		.cfi_offset 7, -4
 822 0002 00AF     		add	r7, sp, #0
 823              	.LCFI57:
 824              		.cfi_def_cfa_register 7
 537:../../Drivers/STM32F7xx_HAL_Driver/Src/stm32f7xx_hal_pwr.c ****   /* NOTE : This function Should not be modified, when the callback is needed,
 538:../../Drivers/STM32F7xx_HAL_Driver/Src/stm32f7xx_hal_pwr.c ****             the HAL_PWR_PVDCallback could be implemented in the user file
 539:../../Drivers/STM32F7xx_HAL_Driver/Src/stm32f7xx_hal_pwr.c ****    */ 
 540:../../Drivers/STM32F7xx_HAL_Driver/Src/stm32f7xx_hal_pwr.c **** }
 825              		.loc 1 540 0
 826 0004 BD46     		mov	sp, r7
 827              	.LCFI58:
 828              		.cfi_def_cfa_register 13
 829              		@ sp needed
 830 0006 5DF8047B 		ldr	r7, [sp], #4
 831              	.LCFI59:
 832              		.cfi_restore 7
 833              		.cfi_def_cfa_offset 0
 834 000a 7047     		bx	lr
 835              		.cfi_endproc
 836              	.LFE147:
 838              		.section	.text.HAL_PWR_EnableSleepOnExit,"ax",%progbits
 839              		.align	2
 840              		.global	HAL_PWR_EnableSleepOnExit
 841              		.thumb
 842              		.thumb_func
 844              	HAL_PWR_EnableSleepOnExit:
ARM GAS  /tmp/cc3FfnUx.s 			page 32


 845              	.LFB148:
 541:../../Drivers/STM32F7xx_HAL_Driver/Src/stm32f7xx_hal_pwr.c **** 
 542:../../Drivers/STM32F7xx_HAL_Driver/Src/stm32f7xx_hal_pwr.c **** /**
 543:../../Drivers/STM32F7xx_HAL_Driver/Src/stm32f7xx_hal_pwr.c ****   * @brief Indicates Sleep-On-Exit when returning from Handler mode to Thread mode. 
 544:../../Drivers/STM32F7xx_HAL_Driver/Src/stm32f7xx_hal_pwr.c ****   * @note Set SLEEPONEXIT bit of SCR register. When this bit is set, the processor 
 545:../../Drivers/STM32F7xx_HAL_Driver/Src/stm32f7xx_hal_pwr.c ****   *       re-enters SLEEP mode when an interruption handling is over.
 546:../../Drivers/STM32F7xx_HAL_Driver/Src/stm32f7xx_hal_pwr.c ****   *       Setting this bit is useful when the processor is expected to run only on
 547:../../Drivers/STM32F7xx_HAL_Driver/Src/stm32f7xx_hal_pwr.c ****   *       interruptions handling.         
 548:../../Drivers/STM32F7xx_HAL_Driver/Src/stm32f7xx_hal_pwr.c ****   * @retval None
 549:../../Drivers/STM32F7xx_HAL_Driver/Src/stm32f7xx_hal_pwr.c ****   */
 550:../../Drivers/STM32F7xx_HAL_Driver/Src/stm32f7xx_hal_pwr.c **** void HAL_PWR_EnableSleepOnExit(void)
 551:../../Drivers/STM32F7xx_HAL_Driver/Src/stm32f7xx_hal_pwr.c **** {
 846              		.loc 1 551 0
 847              		.cfi_startproc
 848              		@ args = 0, pretend = 0, frame = 0
 849              		@ frame_needed = 1, uses_anonymous_args = 0
 850              		@ link register save eliminated.
 851 0000 80B4     		push	{r7}
 852              	.LCFI60:
 853              		.cfi_def_cfa_offset 4
 854              		.cfi_offset 7, -4
 855 0002 00AF     		add	r7, sp, #0
 856              	.LCFI61:
 857              		.cfi_def_cfa_register 7
 552:../../Drivers/STM32F7xx_HAL_Driver/Src/stm32f7xx_hal_pwr.c ****   /* Set SLEEPONEXIT bit of Cortex System Control Register */
 553:../../Drivers/STM32F7xx_HAL_Driver/Src/stm32f7xx_hal_pwr.c ****   SET_BIT(SCB->SCR, ((uint32_t)SCB_SCR_SLEEPONEXIT_Msk));
 858              		.loc 1 553 0
 859 0004 044A     		ldr	r2, .L48
 860 0006 044B     		ldr	r3, .L48
 861 0008 1B69     		ldr	r3, [r3, #16]
 862 000a 43F00203 		orr	r3, r3, #2
 863 000e 1361     		str	r3, [r2, #16]
 554:../../Drivers/STM32F7xx_HAL_Driver/Src/stm32f7xx_hal_pwr.c **** }
 864              		.loc 1 554 0
 865 0010 BD46     		mov	sp, r7
 866              	.LCFI62:
 867              		.cfi_def_cfa_register 13
 868              		@ sp needed
 869 0012 5DF8047B 		ldr	r7, [sp], #4
 870              	.LCFI63:
 871              		.cfi_restore 7
 872              		.cfi_def_cfa_offset 0
 873 0016 7047     		bx	lr
 874              	.L49:
 875              		.align	2
 876              	.L48:
 877 0018 00ED00E0 		.word	-536810240
 878              		.cfi_endproc
 879              	.LFE148:
 881              		.section	.text.HAL_PWR_DisableSleepOnExit,"ax",%progbits
 882              		.align	2
 883              		.global	HAL_PWR_DisableSleepOnExit
 884              		.thumb
 885              		.thumb_func
 887              	HAL_PWR_DisableSleepOnExit:
 888              	.LFB149:
 555:../../Drivers/STM32F7xx_HAL_Driver/Src/stm32f7xx_hal_pwr.c **** 
ARM GAS  /tmp/cc3FfnUx.s 			page 33


 556:../../Drivers/STM32F7xx_HAL_Driver/Src/stm32f7xx_hal_pwr.c **** /**
 557:../../Drivers/STM32F7xx_HAL_Driver/Src/stm32f7xx_hal_pwr.c ****   * @brief Disables Sleep-On-Exit feature when returning from Handler mode to Thread mode. 
 558:../../Drivers/STM32F7xx_HAL_Driver/Src/stm32f7xx_hal_pwr.c ****   * @note Clears SLEEPONEXIT bit of SCR register. When this bit is set, the processor 
 559:../../Drivers/STM32F7xx_HAL_Driver/Src/stm32f7xx_hal_pwr.c ****   *       re-enters SLEEP mode when an interruption handling is over.          
 560:../../Drivers/STM32F7xx_HAL_Driver/Src/stm32f7xx_hal_pwr.c ****   * @retval None
 561:../../Drivers/STM32F7xx_HAL_Driver/Src/stm32f7xx_hal_pwr.c ****   */
 562:../../Drivers/STM32F7xx_HAL_Driver/Src/stm32f7xx_hal_pwr.c **** void HAL_PWR_DisableSleepOnExit(void)
 563:../../Drivers/STM32F7xx_HAL_Driver/Src/stm32f7xx_hal_pwr.c **** {
 889              		.loc 1 563 0
 890              		.cfi_startproc
 891              		@ args = 0, pretend = 0, frame = 0
 892              		@ frame_needed = 1, uses_anonymous_args = 0
 893              		@ link register save eliminated.
 894 0000 80B4     		push	{r7}
 895              	.LCFI64:
 896              		.cfi_def_cfa_offset 4
 897              		.cfi_offset 7, -4
 898 0002 00AF     		add	r7, sp, #0
 899              	.LCFI65:
 900              		.cfi_def_cfa_register 7
 564:../../Drivers/STM32F7xx_HAL_Driver/Src/stm32f7xx_hal_pwr.c ****   /* Clear SLEEPONEXIT bit of Cortex System Control Register */
 565:../../Drivers/STM32F7xx_HAL_Driver/Src/stm32f7xx_hal_pwr.c ****   CLEAR_BIT(SCB->SCR, ((uint32_t)SCB_SCR_SLEEPONEXIT_Msk));
 901              		.loc 1 565 0
 902 0004 044A     		ldr	r2, .L51
 903 0006 044B     		ldr	r3, .L51
 904 0008 1B69     		ldr	r3, [r3, #16]
 905 000a 23F00203 		bic	r3, r3, #2
 906 000e 1361     		str	r3, [r2, #16]
 566:../../Drivers/STM32F7xx_HAL_Driver/Src/stm32f7xx_hal_pwr.c **** }
 907              		.loc 1 566 0
 908 0010 BD46     		mov	sp, r7
 909              	.LCFI66:
 910              		.cfi_def_cfa_register 13
 911              		@ sp needed
 912 0012 5DF8047B 		ldr	r7, [sp], #4
 913              	.LCFI67:
 914              		.cfi_restore 7
 915              		.cfi_def_cfa_offset 0
 916 0016 7047     		bx	lr
 917              	.L52:
 918              		.align	2
 919              	.L51:
 920 0018 00ED00E0 		.word	-536810240
 921              		.cfi_endproc
 922              	.LFE149:
 924              		.section	.text.HAL_PWR_EnableSEVOnPend,"ax",%progbits
 925              		.align	2
 926              		.global	HAL_PWR_EnableSEVOnPend
 927              		.thumb
 928              		.thumb_func
 930              	HAL_PWR_EnableSEVOnPend:
 931              	.LFB150:
 567:../../Drivers/STM32F7xx_HAL_Driver/Src/stm32f7xx_hal_pwr.c **** 
 568:../../Drivers/STM32F7xx_HAL_Driver/Src/stm32f7xx_hal_pwr.c **** /**
 569:../../Drivers/STM32F7xx_HAL_Driver/Src/stm32f7xx_hal_pwr.c ****   * @brief Enables CORTEX M4 SEVONPEND bit. 
 570:../../Drivers/STM32F7xx_HAL_Driver/Src/stm32f7xx_hal_pwr.c ****   * @note Sets SEVONPEND bit of SCR register. When this bit is set, this causes 
 571:../../Drivers/STM32F7xx_HAL_Driver/Src/stm32f7xx_hal_pwr.c ****   *       WFE to wake up when an interrupt moves from inactive to pended.
ARM GAS  /tmp/cc3FfnUx.s 			page 34


 572:../../Drivers/STM32F7xx_HAL_Driver/Src/stm32f7xx_hal_pwr.c ****   * @retval None
 573:../../Drivers/STM32F7xx_HAL_Driver/Src/stm32f7xx_hal_pwr.c ****   */
 574:../../Drivers/STM32F7xx_HAL_Driver/Src/stm32f7xx_hal_pwr.c **** void HAL_PWR_EnableSEVOnPend(void)
 575:../../Drivers/STM32F7xx_HAL_Driver/Src/stm32f7xx_hal_pwr.c **** {
 932              		.loc 1 575 0
 933              		.cfi_startproc
 934              		@ args = 0, pretend = 0, frame = 0
 935              		@ frame_needed = 1, uses_anonymous_args = 0
 936              		@ link register save eliminated.
 937 0000 80B4     		push	{r7}
 938              	.LCFI68:
 939              		.cfi_def_cfa_offset 4
 940              		.cfi_offset 7, -4
 941 0002 00AF     		add	r7, sp, #0
 942              	.LCFI69:
 943              		.cfi_def_cfa_register 7
 576:../../Drivers/STM32F7xx_HAL_Driver/Src/stm32f7xx_hal_pwr.c ****   /* Set SEVONPEND bit of Cortex System Control Register */
 577:../../Drivers/STM32F7xx_HAL_Driver/Src/stm32f7xx_hal_pwr.c ****   SET_BIT(SCB->SCR, ((uint32_t)SCB_SCR_SEVONPEND_Msk));
 944              		.loc 1 577 0
 945 0004 044A     		ldr	r2, .L54
 946 0006 044B     		ldr	r3, .L54
 947 0008 1B69     		ldr	r3, [r3, #16]
 948 000a 43F01003 		orr	r3, r3, #16
 949 000e 1361     		str	r3, [r2, #16]
 578:../../Drivers/STM32F7xx_HAL_Driver/Src/stm32f7xx_hal_pwr.c **** }
 950              		.loc 1 578 0
 951 0010 BD46     		mov	sp, r7
 952              	.LCFI70:
 953              		.cfi_def_cfa_register 13
 954              		@ sp needed
 955 0012 5DF8047B 		ldr	r7, [sp], #4
 956              	.LCFI71:
 957              		.cfi_restore 7
 958              		.cfi_def_cfa_offset 0
 959 0016 7047     		bx	lr
 960              	.L55:
 961              		.align	2
 962              	.L54:
 963 0018 00ED00E0 		.word	-536810240
 964              		.cfi_endproc
 965              	.LFE150:
 967              		.section	.text.HAL_PWR_DisableSEVOnPend,"ax",%progbits
 968              		.align	2
 969              		.global	HAL_PWR_DisableSEVOnPend
 970              		.thumb
 971              		.thumb_func
 973              	HAL_PWR_DisableSEVOnPend:
 974              	.LFB151:
 579:../../Drivers/STM32F7xx_HAL_Driver/Src/stm32f7xx_hal_pwr.c **** 
 580:../../Drivers/STM32F7xx_HAL_Driver/Src/stm32f7xx_hal_pwr.c **** /**
 581:../../Drivers/STM32F7xx_HAL_Driver/Src/stm32f7xx_hal_pwr.c ****   * @brief Disables CORTEX M4 SEVONPEND bit. 
 582:../../Drivers/STM32F7xx_HAL_Driver/Src/stm32f7xx_hal_pwr.c ****   * @note Clears SEVONPEND bit of SCR register. When this bit is set, this causes 
 583:../../Drivers/STM32F7xx_HAL_Driver/Src/stm32f7xx_hal_pwr.c ****   *       WFE to wake up when an interrupt moves from inactive to pended.         
 584:../../Drivers/STM32F7xx_HAL_Driver/Src/stm32f7xx_hal_pwr.c ****   * @retval None
 585:../../Drivers/STM32F7xx_HAL_Driver/Src/stm32f7xx_hal_pwr.c ****   */
 586:../../Drivers/STM32F7xx_HAL_Driver/Src/stm32f7xx_hal_pwr.c **** void HAL_PWR_DisableSEVOnPend(void)
 587:../../Drivers/STM32F7xx_HAL_Driver/Src/stm32f7xx_hal_pwr.c **** {
ARM GAS  /tmp/cc3FfnUx.s 			page 35


 975              		.loc 1 587 0
 976              		.cfi_startproc
 977              		@ args = 0, pretend = 0, frame = 0
 978              		@ frame_needed = 1, uses_anonymous_args = 0
 979              		@ link register save eliminated.
 980 0000 80B4     		push	{r7}
 981              	.LCFI72:
 982              		.cfi_def_cfa_offset 4
 983              		.cfi_offset 7, -4
 984 0002 00AF     		add	r7, sp, #0
 985              	.LCFI73:
 986              		.cfi_def_cfa_register 7
 588:../../Drivers/STM32F7xx_HAL_Driver/Src/stm32f7xx_hal_pwr.c ****   /* Clear SEVONPEND bit of Cortex System Control Register */
 589:../../Drivers/STM32F7xx_HAL_Driver/Src/stm32f7xx_hal_pwr.c ****   CLEAR_BIT(SCB->SCR, ((uint32_t)SCB_SCR_SEVONPEND_Msk));
 987              		.loc 1 589 0
 988 0004 044A     		ldr	r2, .L57
 989 0006 044B     		ldr	r3, .L57
 990 0008 1B69     		ldr	r3, [r3, #16]
 991 000a 23F01003 		bic	r3, r3, #16
 992 000e 1361     		str	r3, [r2, #16]
 590:../../Drivers/STM32F7xx_HAL_Driver/Src/stm32f7xx_hal_pwr.c **** }
 993              		.loc 1 590 0
 994 0010 BD46     		mov	sp, r7
 995              	.LCFI74:
 996              		.cfi_def_cfa_register 13
 997              		@ sp needed
 998 0012 5DF8047B 		ldr	r7, [sp], #4
 999              	.LCFI75:
 1000              		.cfi_restore 7
 1001              		.cfi_def_cfa_offset 0
 1002 0016 7047     		bx	lr
 1003              	.L58:
 1004              		.align	2
 1005              	.L57:
 1006 0018 00ED00E0 		.word	-536810240
 1007              		.cfi_endproc
 1008              	.LFE151:
 1010              		.text
 1011              	.Letext0:
 1012              		.file 3 "/usr/arm-none-eabi/include/machine/_default_types.h"
 1013              		.file 4 "/usr/arm-none-eabi/include/sys/_stdint.h"
 1014              		.file 5 "../../Drivers/CMSIS/Include/core_cm7.h"
 1015              		.file 6 "../../Drivers/CMSIS/Device/ST/STM32F7xx/Include/stm32f769xx.h"
 1016              		.file 7 "../../Drivers/STM32F7xx_HAL_Driver/Inc/stm32f7xx_hal_pwr.h"
 1017              		.file 8 "../../Drivers/CMSIS/Device/ST/STM32F7xx/Include/stm32f7xx.h"
ARM GAS  /tmp/cc3FfnUx.s 			page 36

