ARM GAS  /tmp/ccfW2k76.s 			page 1


   1              		.syntax unified
   2              		.cpu cortex-m7
   3              		.eabi_attribute 27, 1
   4              		.eabi_attribute 28, 1
   5              		.fpu fpv5-sp-d16
   6              		.eabi_attribute 20, 1
   7              		.eabi_attribute 21, 1
   8              		.eabi_attribute 23, 3
   9              		.eabi_attribute 24, 1
  10              		.eabi_attribute 25, 1
  11              		.eabi_attribute 26, 1
  12              		.eabi_attribute 30, 6
  13              		.eabi_attribute 34, 1
  14              		.eabi_attribute 18, 4
  15              		.thumb
  16              		.file	"tasks.c"
  17              		.text
  18              	.Ltext0:
  19              		.cfi_sections	.debug_frame
  20              		.global	pxCurrentTCB
  21              		.section	.bss.pxCurrentTCB,"aw",%nobits
  22              		.align	2
  25              	pxCurrentTCB:
  26 0000 00000000 		.space	4
  27              		.section	.bss.pxReadyTasksLists,"aw",%nobits
  28              		.align	2
  31              	pxReadyTasksLists:
  32 0000 00000000 		.space	140
  32      00000000 
  32      00000000 
  32      00000000 
  32      00000000 
  33              		.section	.bss.xDelayedTaskList1,"aw",%nobits
  34              		.align	2
  37              	xDelayedTaskList1:
  38 0000 00000000 		.space	20
  38      00000000 
  38      00000000 
  38      00000000 
  38      00000000 
  39              		.section	.bss.xDelayedTaskList2,"aw",%nobits
  40              		.align	2
  43              	xDelayedTaskList2:
  44 0000 00000000 		.space	20
  44      00000000 
  44      00000000 
  44      00000000 
  44      00000000 
  45              		.section	.bss.pxDelayedTaskList,"aw",%nobits
  46              		.align	2
  49              	pxDelayedTaskList:
  50 0000 00000000 		.space	4
  51              		.section	.bss.pxOverflowDelayedTaskList,"aw",%nobits
  52              		.align	2
  55              	pxOverflowDelayedTaskList:
  56 0000 00000000 		.space	4
  57              		.section	.bss.xPendingReadyList,"aw",%nobits
ARM GAS  /tmp/ccfW2k76.s 			page 2


  58              		.align	2
  61              	xPendingReadyList:
  62 0000 00000000 		.space	20
  62      00000000 
  62      00000000 
  62      00000000 
  62      00000000 
  63              		.section	.bss.xTasksWaitingTermination,"aw",%nobits
  64              		.align	2
  67              	xTasksWaitingTermination:
  68 0000 00000000 		.space	20
  68      00000000 
  68      00000000 
  68      00000000 
  68      00000000 
  69              		.section	.bss.uxDeletedTasksWaitingCleanUp,"aw",%nobits
  70              		.align	2
  73              	uxDeletedTasksWaitingCleanUp:
  74 0000 00000000 		.space	4
  75              		.section	.bss.xSuspendedTaskList,"aw",%nobits
  76              		.align	2
  79              	xSuspendedTaskList:
  80 0000 00000000 		.space	20
  80      00000000 
  80      00000000 
  80      00000000 
  80      00000000 
  81              		.section	.bss.uxCurrentNumberOfTasks,"aw",%nobits
  82              		.align	2
  85              	uxCurrentNumberOfTasks:
  86 0000 00000000 		.space	4
  87              		.section	.bss.xTickCount,"aw",%nobits
  88              		.align	2
  91              	xTickCount:
  92 0000 00000000 		.space	4
  93              		.section	.bss.uxTopReadyPriority,"aw",%nobits
  94              		.align	2
  97              	uxTopReadyPriority:
  98 0000 00000000 		.space	4
  99              		.section	.bss.xSchedulerRunning,"aw",%nobits
 100              		.align	2
 103              	xSchedulerRunning:
 104 0000 00000000 		.space	4
 105              		.section	.bss.uxPendedTicks,"aw",%nobits
 106              		.align	2
 109              	uxPendedTicks:
 110 0000 00000000 		.space	4
 111              		.section	.bss.xYieldPending,"aw",%nobits
 112              		.align	2
 115              	xYieldPending:
 116 0000 00000000 		.space	4
 117              		.section	.bss.xNumOfOverflows,"aw",%nobits
 118              		.align	2
 121              	xNumOfOverflows:
 122 0000 00000000 		.space	4
 123              		.section	.bss.uxTaskNumber,"aw",%nobits
 124              		.align	2
ARM GAS  /tmp/ccfW2k76.s 			page 3


 127              	uxTaskNumber:
 128 0000 00000000 		.space	4
 129              		.section	.bss.xNextTaskUnblockTime,"aw",%nobits
 130              		.align	2
 133              	xNextTaskUnblockTime:
 134 0000 00000000 		.space	4
 135              		.section	.bss.xIdleTaskHandle,"aw",%nobits
 136              		.align	2
 139              	xIdleTaskHandle:
 140 0000 00000000 		.space	4
 141              		.section	.bss.uxSchedulerSuspended,"aw",%nobits
 142              		.align	2
 145              	uxSchedulerSuspended:
 146 0000 00000000 		.space	4
 147              		.section	.text.xTaskCreate,"ax",%progbits
 148              		.align	2
 149              		.global	xTaskCreate
 150              		.thumb
 151              		.thumb_func
 153              	xTaskCreate:
 154              	.LFB5:
 155              		.file 1 "../../../FreeRTOS_9_0/Source/tasks.c"
   1:../../../FreeRTOS_9_0/Source/tasks.c **** /*
   2:../../../FreeRTOS_9_0/Source/tasks.c ****     FreeRTOS V9.0.0 - Copyright (C) 2016 Real Time Engineers Ltd.
   3:../../../FreeRTOS_9_0/Source/tasks.c ****     All rights reserved
   4:../../../FreeRTOS_9_0/Source/tasks.c **** 
   5:../../../FreeRTOS_9_0/Source/tasks.c ****     VISIT http://www.FreeRTOS.org TO ENSURE YOU ARE USING THE LATEST VERSION.
   6:../../../FreeRTOS_9_0/Source/tasks.c **** 
   7:../../../FreeRTOS_9_0/Source/tasks.c ****     This file is part of the FreeRTOS distribution.
   8:../../../FreeRTOS_9_0/Source/tasks.c **** 
   9:../../../FreeRTOS_9_0/Source/tasks.c ****     FreeRTOS is free software; you can redistribute it and/or modify it under
  10:../../../FreeRTOS_9_0/Source/tasks.c ****     the terms of the GNU General Public License (version 2) as published by the
  11:../../../FreeRTOS_9_0/Source/tasks.c ****     Free Software Foundation >>>> AND MODIFIED BY <<<< the FreeRTOS exception.
  12:../../../FreeRTOS_9_0/Source/tasks.c **** 
  13:../../../FreeRTOS_9_0/Source/tasks.c ****     ***************************************************************************
  14:../../../FreeRTOS_9_0/Source/tasks.c ****     >>!   NOTE: The modification to the GPL is included to allow you to     !<<
  15:../../../FreeRTOS_9_0/Source/tasks.c ****     >>!   distribute a combined work that includes FreeRTOS without being   !<<
  16:../../../FreeRTOS_9_0/Source/tasks.c ****     >>!   obliged to provide the source code for proprietary components     !<<
  17:../../../FreeRTOS_9_0/Source/tasks.c ****     >>!   outside of the FreeRTOS kernel.                                   !<<
  18:../../../FreeRTOS_9_0/Source/tasks.c ****     ***************************************************************************
  19:../../../FreeRTOS_9_0/Source/tasks.c **** 
  20:../../../FreeRTOS_9_0/Source/tasks.c ****     FreeRTOS is distributed in the hope that it will be useful, but WITHOUT ANY
  21:../../../FreeRTOS_9_0/Source/tasks.c ****     WARRANTY; without even the implied warranty of MERCHANTABILITY or FITNESS
  22:../../../FreeRTOS_9_0/Source/tasks.c ****     FOR A PARTICULAR PURPOSE.  Full license text is available on the following
  23:../../../FreeRTOS_9_0/Source/tasks.c ****     link: http://www.freertos.org/a00114.html
  24:../../../FreeRTOS_9_0/Source/tasks.c **** 
  25:../../../FreeRTOS_9_0/Source/tasks.c ****     ***************************************************************************
  26:../../../FreeRTOS_9_0/Source/tasks.c ****      *                                                                       *
  27:../../../FreeRTOS_9_0/Source/tasks.c ****      *    FreeRTOS provides completely free yet professionally developed,    *
  28:../../../FreeRTOS_9_0/Source/tasks.c ****      *    robust, strictly quality controlled, supported, and cross          *
  29:../../../FreeRTOS_9_0/Source/tasks.c ****      *    platform software that is more than just the market leader, it     *
  30:../../../FreeRTOS_9_0/Source/tasks.c ****      *    is the industry's de facto standard.                               *
  31:../../../FreeRTOS_9_0/Source/tasks.c ****      *                                                                       *
  32:../../../FreeRTOS_9_0/Source/tasks.c ****      *    Help yourself get started quickly while simultaneously helping     *
  33:../../../FreeRTOS_9_0/Source/tasks.c ****      *    to support the FreeRTOS project by purchasing a FreeRTOS           *
  34:../../../FreeRTOS_9_0/Source/tasks.c ****      *    tutorial book, reference manual, or both:                          *
  35:../../../FreeRTOS_9_0/Source/tasks.c ****      *    http://www.FreeRTOS.org/Documentation                              *
ARM GAS  /tmp/ccfW2k76.s 			page 4


  36:../../../FreeRTOS_9_0/Source/tasks.c ****      *                                                                       *
  37:../../../FreeRTOS_9_0/Source/tasks.c ****     ***************************************************************************
  38:../../../FreeRTOS_9_0/Source/tasks.c **** 
  39:../../../FreeRTOS_9_0/Source/tasks.c ****     http://www.FreeRTOS.org/FAQHelp.html - Having a problem?  Start by reading
  40:../../../FreeRTOS_9_0/Source/tasks.c ****     the FAQ page "My application does not run, what could be wrong?".  Have you
  41:../../../FreeRTOS_9_0/Source/tasks.c ****     defined configASSERT()?
  42:../../../FreeRTOS_9_0/Source/tasks.c **** 
  43:../../../FreeRTOS_9_0/Source/tasks.c ****     http://www.FreeRTOS.org/support - In return for receiving this top quality
  44:../../../FreeRTOS_9_0/Source/tasks.c ****     embedded software for free we request you assist our global community by
  45:../../../FreeRTOS_9_0/Source/tasks.c ****     participating in the support forum.
  46:../../../FreeRTOS_9_0/Source/tasks.c **** 
  47:../../../FreeRTOS_9_0/Source/tasks.c ****     http://www.FreeRTOS.org/training - Investing in training allows your team to
  48:../../../FreeRTOS_9_0/Source/tasks.c ****     be as productive as possible as early as possible.  Now you can receive
  49:../../../FreeRTOS_9_0/Source/tasks.c ****     FreeRTOS training directly from Richard Barry, CEO of Real Time Engineers
  50:../../../FreeRTOS_9_0/Source/tasks.c ****     Ltd, and the world's leading authority on the world's leading RTOS.
  51:../../../FreeRTOS_9_0/Source/tasks.c **** 
  52:../../../FreeRTOS_9_0/Source/tasks.c ****     http://www.FreeRTOS.org/plus - A selection of FreeRTOS ecosystem products,
  53:../../../FreeRTOS_9_0/Source/tasks.c ****     including FreeRTOS+Trace - an indispensable productivity tool, a DOS
  54:../../../FreeRTOS_9_0/Source/tasks.c ****     compatible FAT file system, and our tiny thread aware UDP/IP stack.
  55:../../../FreeRTOS_9_0/Source/tasks.c **** 
  56:../../../FreeRTOS_9_0/Source/tasks.c ****     http://www.FreeRTOS.org/labs - Where new FreeRTOS products go to incubate.
  57:../../../FreeRTOS_9_0/Source/tasks.c ****     Come and try FreeRTOS+TCP, our new open source TCP/IP stack for FreeRTOS.
  58:../../../FreeRTOS_9_0/Source/tasks.c **** 
  59:../../../FreeRTOS_9_0/Source/tasks.c ****     http://www.OpenRTOS.com - Real Time Engineers ltd. license FreeRTOS to High
  60:../../../FreeRTOS_9_0/Source/tasks.c ****     Integrity Systems ltd. to sell under the OpenRTOS brand.  Low cost OpenRTOS
  61:../../../FreeRTOS_9_0/Source/tasks.c ****     licenses offer ticketed support, indemnification and commercial middleware.
  62:../../../FreeRTOS_9_0/Source/tasks.c **** 
  63:../../../FreeRTOS_9_0/Source/tasks.c ****     http://www.SafeRTOS.com - High Integrity Systems also provide a safety
  64:../../../FreeRTOS_9_0/Source/tasks.c ****     engineered and independently SIL3 certified version for use in safety and
  65:../../../FreeRTOS_9_0/Source/tasks.c ****     mission critical applications that require provable dependability.
  66:../../../FreeRTOS_9_0/Source/tasks.c **** 
  67:../../../FreeRTOS_9_0/Source/tasks.c ****     1 tab == 4 spaces!
  68:../../../FreeRTOS_9_0/Source/tasks.c **** */
  69:../../../FreeRTOS_9_0/Source/tasks.c **** 
  70:../../../FreeRTOS_9_0/Source/tasks.c **** /* Standard includes. */
  71:../../../FreeRTOS_9_0/Source/tasks.c **** #include <stdlib.h>
  72:../../../FreeRTOS_9_0/Source/tasks.c **** #include <string.h>
  73:../../../FreeRTOS_9_0/Source/tasks.c **** 
  74:../../../FreeRTOS_9_0/Source/tasks.c **** /* Defining MPU_WRAPPERS_INCLUDED_FROM_API_FILE prevents task.h from redefining
  75:../../../FreeRTOS_9_0/Source/tasks.c **** all the API functions to use the MPU wrappers.  That should only be done when
  76:../../../FreeRTOS_9_0/Source/tasks.c **** task.h is included from an application file. */
  77:../../../FreeRTOS_9_0/Source/tasks.c **** #define MPU_WRAPPERS_INCLUDED_FROM_API_FILE
  78:../../../FreeRTOS_9_0/Source/tasks.c **** 
  79:../../../FreeRTOS_9_0/Source/tasks.c **** /* FreeRTOS includes. */
  80:../../../FreeRTOS_9_0/Source/tasks.c **** #include "FreeRTOS.h"
  81:../../../FreeRTOS_9_0/Source/tasks.c **** #include "task.h"
  82:../../../FreeRTOS_9_0/Source/tasks.c **** #include "timers.h"
  83:../../../FreeRTOS_9_0/Source/tasks.c **** #include "StackMacros.h"
  84:../../../FreeRTOS_9_0/Source/tasks.c **** 
  85:../../../FreeRTOS_9_0/Source/tasks.c **** /* Lint e961 and e750 are suppressed as a MISRA exception justified because the
  86:../../../FreeRTOS_9_0/Source/tasks.c **** MPU ports require MPU_WRAPPERS_INCLUDED_FROM_API_FILE to be defined for the
  87:../../../FreeRTOS_9_0/Source/tasks.c **** header files above, but not in this file, in order to generate the correct
  88:../../../FreeRTOS_9_0/Source/tasks.c **** privileged Vs unprivileged linkage and placement. */
  89:../../../FreeRTOS_9_0/Source/tasks.c **** #undef MPU_WRAPPERS_INCLUDED_FROM_API_FILE /*lint !e961 !e750. */
  90:../../../FreeRTOS_9_0/Source/tasks.c **** 
  91:../../../FreeRTOS_9_0/Source/tasks.c **** /* Set configUSE_STATS_FORMATTING_FUNCTIONS to 2 to include the stats formatting
  92:../../../FreeRTOS_9_0/Source/tasks.c **** functions but without including stdio.h here. */
ARM GAS  /tmp/ccfW2k76.s 			page 5


  93:../../../FreeRTOS_9_0/Source/tasks.c **** #if ( configUSE_STATS_FORMATTING_FUNCTIONS == 1 )
  94:../../../FreeRTOS_9_0/Source/tasks.c **** 	/* At the bottom of this file are two optional functions that can be used
  95:../../../FreeRTOS_9_0/Source/tasks.c **** 	to generate human readable text from the raw data generated by the
  96:../../../FreeRTOS_9_0/Source/tasks.c **** 	uxTaskGetSystemState() function.  Note the formatting functions are provided
  97:../../../FreeRTOS_9_0/Source/tasks.c **** 	for convenience only, and are NOT considered part of the kernel. */
  98:../../../FreeRTOS_9_0/Source/tasks.c **** 	#include <stdio.h>
  99:../../../FreeRTOS_9_0/Source/tasks.c **** #endif /* configUSE_STATS_FORMATTING_FUNCTIONS == 1 ) */
 100:../../../FreeRTOS_9_0/Source/tasks.c **** 
 101:../../../FreeRTOS_9_0/Source/tasks.c **** #if( configUSE_PREEMPTION == 0 )
 102:../../../FreeRTOS_9_0/Source/tasks.c **** 	/* If the cooperative scheduler is being used then a yield should not be
 103:../../../FreeRTOS_9_0/Source/tasks.c **** 	performed just because a higher priority task has been woken. */
 104:../../../FreeRTOS_9_0/Source/tasks.c **** 	#define taskYIELD_IF_USING_PREEMPTION()
 105:../../../FreeRTOS_9_0/Source/tasks.c **** #else
 106:../../../FreeRTOS_9_0/Source/tasks.c **** 	#define taskYIELD_IF_USING_PREEMPTION() portYIELD_WITHIN_API()
 107:../../../FreeRTOS_9_0/Source/tasks.c **** #endif
 108:../../../FreeRTOS_9_0/Source/tasks.c **** 
 109:../../../FreeRTOS_9_0/Source/tasks.c **** /* Values that can be assigned to the ucNotifyState member of the TCB. */
 110:../../../FreeRTOS_9_0/Source/tasks.c **** #define taskNOT_WAITING_NOTIFICATION	( ( uint8_t ) 0 )
 111:../../../FreeRTOS_9_0/Source/tasks.c **** #define taskWAITING_NOTIFICATION		( ( uint8_t ) 1 )
 112:../../../FreeRTOS_9_0/Source/tasks.c **** #define taskNOTIFICATION_RECEIVED		( ( uint8_t ) 2 )
 113:../../../FreeRTOS_9_0/Source/tasks.c **** 
 114:../../../FreeRTOS_9_0/Source/tasks.c **** /*
 115:../../../FreeRTOS_9_0/Source/tasks.c ****  * The value used to fill the stack of a task when the task is created.  This
 116:../../../FreeRTOS_9_0/Source/tasks.c ****  * is used purely for checking the high water mark for tasks.
 117:../../../FreeRTOS_9_0/Source/tasks.c ****  */
 118:../../../FreeRTOS_9_0/Source/tasks.c **** #define tskSTACK_FILL_BYTE	( 0xa5U )
 119:../../../FreeRTOS_9_0/Source/tasks.c **** 
 120:../../../FreeRTOS_9_0/Source/tasks.c **** /* Sometimes the FreeRTOSConfig.h settings only allow a task to be created using
 121:../../../FreeRTOS_9_0/Source/tasks.c **** dynamically allocated RAM, in which case when any task is deleted it is known
 122:../../../FreeRTOS_9_0/Source/tasks.c **** that both the task's stack and TCB need to be freed.  Sometimes the
 123:../../../FreeRTOS_9_0/Source/tasks.c **** FreeRTOSConfig.h settings only allow a task to be created using statically
 124:../../../FreeRTOS_9_0/Source/tasks.c **** allocated RAM, in which case when any task is deleted it is known that neither
 125:../../../FreeRTOS_9_0/Source/tasks.c **** the task's stack or TCB should be freed.  Sometimes the FreeRTOSConfig.h
 126:../../../FreeRTOS_9_0/Source/tasks.c **** settings allow a task to be created using either statically or dynamically
 127:../../../FreeRTOS_9_0/Source/tasks.c **** allocated RAM, in which case a member of the TCB is used to record whether the
 128:../../../FreeRTOS_9_0/Source/tasks.c **** stack and/or TCB were allocated statically or dynamically, so when a task is
 129:../../../FreeRTOS_9_0/Source/tasks.c **** deleted the RAM that was allocated dynamically is freed again and no attempt is
 130:../../../FreeRTOS_9_0/Source/tasks.c **** made to free the RAM that was allocated statically.
 131:../../../FreeRTOS_9_0/Source/tasks.c **** tskSTATIC_AND_DYNAMIC_ALLOCATION_POSSIBLE is only true if it is possible for a
 132:../../../FreeRTOS_9_0/Source/tasks.c **** task to be created using either statically or dynamically allocated RAM.  Note
 133:../../../FreeRTOS_9_0/Source/tasks.c **** that if portUSING_MPU_WRAPPERS is 1 then a protected task can be created with
 134:../../../FreeRTOS_9_0/Source/tasks.c **** a statically allocated stack and a dynamically allocated TCB. */
 135:../../../FreeRTOS_9_0/Source/tasks.c **** #define tskSTATIC_AND_DYNAMIC_ALLOCATION_POSSIBLE ( ( ( configSUPPORT_STATIC_ALLOCATION == 1 ) && (
 136:../../../FreeRTOS_9_0/Source/tasks.c **** #define tskDYNAMICALLY_ALLOCATED_STACK_AND_TCB 		( ( uint8_t ) 0 )
 137:../../../FreeRTOS_9_0/Source/tasks.c **** #define tskSTATICALLY_ALLOCATED_STACK_ONLY 			( ( uint8_t ) 1 )
 138:../../../FreeRTOS_9_0/Source/tasks.c **** #define tskSTATICALLY_ALLOCATED_STACK_AND_TCB		( ( uint8_t ) 2 )
 139:../../../FreeRTOS_9_0/Source/tasks.c **** 
 140:../../../FreeRTOS_9_0/Source/tasks.c **** /*
 141:../../../FreeRTOS_9_0/Source/tasks.c ****  * Macros used by vListTask to indicate which state a task is in.
 142:../../../FreeRTOS_9_0/Source/tasks.c ****  */
 143:../../../FreeRTOS_9_0/Source/tasks.c **** #define tskBLOCKED_CHAR		( 'B' )
 144:../../../FreeRTOS_9_0/Source/tasks.c **** #define tskREADY_CHAR		( 'R' )
 145:../../../FreeRTOS_9_0/Source/tasks.c **** #define tskDELETED_CHAR		( 'D' )
 146:../../../FreeRTOS_9_0/Source/tasks.c **** #define tskSUSPENDED_CHAR	( 'S' )
 147:../../../FreeRTOS_9_0/Source/tasks.c **** 
 148:../../../FreeRTOS_9_0/Source/tasks.c **** /*
 149:../../../FreeRTOS_9_0/Source/tasks.c ****  * Some kernel aware debuggers require the data the debugger needs access to be
ARM GAS  /tmp/ccfW2k76.s 			page 6


 150:../../../FreeRTOS_9_0/Source/tasks.c ****  * global, rather than file scope.
 151:../../../FreeRTOS_9_0/Source/tasks.c ****  */
 152:../../../FreeRTOS_9_0/Source/tasks.c **** #ifdef portREMOVE_STATIC_QUALIFIER
 153:../../../FreeRTOS_9_0/Source/tasks.c **** 	#define static
 154:../../../FreeRTOS_9_0/Source/tasks.c **** #endif
 155:../../../FreeRTOS_9_0/Source/tasks.c **** 
 156:../../../FreeRTOS_9_0/Source/tasks.c **** #if ( configUSE_PORT_OPTIMISED_TASK_SELECTION == 0 )
 157:../../../FreeRTOS_9_0/Source/tasks.c **** 
 158:../../../FreeRTOS_9_0/Source/tasks.c **** 	/* If configUSE_PORT_OPTIMISED_TASK_SELECTION is 0 then task selection is
 159:../../../FreeRTOS_9_0/Source/tasks.c **** 	performed in a generic way that is not optimised to any particular
 160:../../../FreeRTOS_9_0/Source/tasks.c **** 	microcontroller architecture. */
 161:../../../FreeRTOS_9_0/Source/tasks.c **** 
 162:../../../FreeRTOS_9_0/Source/tasks.c **** 	/* uxTopReadyPriority holds the priority of the highest priority ready
 163:../../../FreeRTOS_9_0/Source/tasks.c **** 	state task. */
 164:../../../FreeRTOS_9_0/Source/tasks.c **** 	#define taskRECORD_READY_PRIORITY( uxPriority )														\
 165:../../../FreeRTOS_9_0/Source/tasks.c **** 	{																									\
 166:../../../FreeRTOS_9_0/Source/tasks.c **** 		if( ( uxPriority ) > uxTopReadyPriority )														\
 167:../../../FreeRTOS_9_0/Source/tasks.c **** 		{																								\
 168:../../../FreeRTOS_9_0/Source/tasks.c **** 			uxTopReadyPriority = ( uxPriority );														\
 169:../../../FreeRTOS_9_0/Source/tasks.c **** 		}																								\
 170:../../../FreeRTOS_9_0/Source/tasks.c **** 	} /* taskRECORD_READY_PRIORITY */
 171:../../../FreeRTOS_9_0/Source/tasks.c **** 
 172:../../../FreeRTOS_9_0/Source/tasks.c **** 	/*-----------------------------------------------------------*/
 173:../../../FreeRTOS_9_0/Source/tasks.c **** 
 174:../../../FreeRTOS_9_0/Source/tasks.c **** 	#define taskSELECT_HIGHEST_PRIORITY_TASK()															\
 175:../../../FreeRTOS_9_0/Source/tasks.c **** 	{																									\
 176:../../../FreeRTOS_9_0/Source/tasks.c **** 	UBaseType_t uxTopPriority = uxTopReadyPriority;														\
 177:../../../FreeRTOS_9_0/Source/tasks.c **** 																										\
 178:../../../FreeRTOS_9_0/Source/tasks.c **** 		/* Find the highest priority queue that contains ready tasks. */								\
 179:../../../FreeRTOS_9_0/Source/tasks.c **** 		while( listLIST_IS_EMPTY( &( pxReadyTasksLists[ uxTopPriority ] ) ) )							\
 180:../../../FreeRTOS_9_0/Source/tasks.c **** 		{																								\
 181:../../../FreeRTOS_9_0/Source/tasks.c **** 			configASSERT( uxTopPriority );																\
 182:../../../FreeRTOS_9_0/Source/tasks.c **** 			--uxTopPriority;																			\
 183:../../../FreeRTOS_9_0/Source/tasks.c **** 		}																								\
 184:../../../FreeRTOS_9_0/Source/tasks.c **** 																										\
 185:../../../FreeRTOS_9_0/Source/tasks.c **** 		/* listGET_OWNER_OF_NEXT_ENTRY indexes through the list, so the tasks of						\
 186:../../../FreeRTOS_9_0/Source/tasks.c **** 		the	same priority get an equal share of the processor time. */									\
 187:../../../FreeRTOS_9_0/Source/tasks.c **** 		listGET_OWNER_OF_NEXT_ENTRY( pxCurrentTCB, &( pxReadyTasksLists[ uxTopPriority ] ) );			\
 188:../../../FreeRTOS_9_0/Source/tasks.c **** 		uxTopReadyPriority = uxTopPriority;																\
 189:../../../FreeRTOS_9_0/Source/tasks.c **** 	} /* taskSELECT_HIGHEST_PRIORITY_TASK */
 190:../../../FreeRTOS_9_0/Source/tasks.c **** 
 191:../../../FreeRTOS_9_0/Source/tasks.c **** 	/*-----------------------------------------------------------*/
 192:../../../FreeRTOS_9_0/Source/tasks.c **** 
 193:../../../FreeRTOS_9_0/Source/tasks.c **** 	/* Define away taskRESET_READY_PRIORITY() and portRESET_READY_PRIORITY() as
 194:../../../FreeRTOS_9_0/Source/tasks.c **** 	they are only required when a port optimised method of task selection is
 195:../../../FreeRTOS_9_0/Source/tasks.c **** 	being used. */
 196:../../../FreeRTOS_9_0/Source/tasks.c **** 	#define taskRESET_READY_PRIORITY( uxPriority )
 197:../../../FreeRTOS_9_0/Source/tasks.c **** 	#define portRESET_READY_PRIORITY( uxPriority, uxTopReadyPriority )
 198:../../../FreeRTOS_9_0/Source/tasks.c **** 
 199:../../../FreeRTOS_9_0/Source/tasks.c **** #else /* configUSE_PORT_OPTIMISED_TASK_SELECTION */
 200:../../../FreeRTOS_9_0/Source/tasks.c **** 
 201:../../../FreeRTOS_9_0/Source/tasks.c **** 	/* If configUSE_PORT_OPTIMISED_TASK_SELECTION is 1 then task selection is
 202:../../../FreeRTOS_9_0/Source/tasks.c **** 	performed in a way that is tailored to the particular microcontroller
 203:../../../FreeRTOS_9_0/Source/tasks.c **** 	architecture being used. */
 204:../../../FreeRTOS_9_0/Source/tasks.c **** 
 205:../../../FreeRTOS_9_0/Source/tasks.c **** 	/* A port optimised version is provided.  Call the port defined macros. */
 206:../../../FreeRTOS_9_0/Source/tasks.c **** 	#define taskRECORD_READY_PRIORITY( uxPriority )	portRECORD_READY_PRIORITY( uxPriority, uxTopReadyP
ARM GAS  /tmp/ccfW2k76.s 			page 7


 207:../../../FreeRTOS_9_0/Source/tasks.c **** 
 208:../../../FreeRTOS_9_0/Source/tasks.c **** 	/*-----------------------------------------------------------*/
 209:../../../FreeRTOS_9_0/Source/tasks.c **** 
 210:../../../FreeRTOS_9_0/Source/tasks.c **** 	#define taskSELECT_HIGHEST_PRIORITY_TASK()														\
 211:../../../FreeRTOS_9_0/Source/tasks.c **** 	{																								\
 212:../../../FreeRTOS_9_0/Source/tasks.c **** 	UBaseType_t uxTopPriority;																		\
 213:../../../FreeRTOS_9_0/Source/tasks.c **** 																									\
 214:../../../FreeRTOS_9_0/Source/tasks.c **** 		/* Find the highest priority list that contains ready tasks. */								\
 215:../../../FreeRTOS_9_0/Source/tasks.c **** 		portGET_HIGHEST_PRIORITY( uxTopPriority, uxTopReadyPriority );								\
 216:../../../FreeRTOS_9_0/Source/tasks.c **** 		configASSERT( listCURRENT_LIST_LENGTH( &( pxReadyTasksLists[ uxTopPriority ] ) ) > 0 );		\
 217:../../../FreeRTOS_9_0/Source/tasks.c **** 		listGET_OWNER_OF_NEXT_ENTRY( pxCurrentTCB, &( pxReadyTasksLists[ uxTopPriority ] ) );		\
 218:../../../FreeRTOS_9_0/Source/tasks.c **** 	} /* taskSELECT_HIGHEST_PRIORITY_TASK() */
 219:../../../FreeRTOS_9_0/Source/tasks.c **** 
 220:../../../FreeRTOS_9_0/Source/tasks.c **** 	/*-----------------------------------------------------------*/
 221:../../../FreeRTOS_9_0/Source/tasks.c **** 
 222:../../../FreeRTOS_9_0/Source/tasks.c **** 	/* A port optimised version is provided, call it only if the TCB being reset
 223:../../../FreeRTOS_9_0/Source/tasks.c **** 	is being referenced from a ready list.  If it is referenced from a delayed
 224:../../../FreeRTOS_9_0/Source/tasks.c **** 	or suspended list then it won't be in a ready list. */
 225:../../../FreeRTOS_9_0/Source/tasks.c **** 	#define taskRESET_READY_PRIORITY( uxPriority )														\
 226:../../../FreeRTOS_9_0/Source/tasks.c **** 	{																									\
 227:../../../FreeRTOS_9_0/Source/tasks.c **** 		if( listCURRENT_LIST_LENGTH( &( pxReadyTasksLists[ ( uxPriority ) ] ) ) == ( UBaseType_t ) 0 )	\
 228:../../../FreeRTOS_9_0/Source/tasks.c **** 		{																								\
 229:../../../FreeRTOS_9_0/Source/tasks.c **** 			portRESET_READY_PRIORITY( ( uxPriority ), ( uxTopReadyPriority ) );							\
 230:../../../FreeRTOS_9_0/Source/tasks.c **** 		}																								\
 231:../../../FreeRTOS_9_0/Source/tasks.c **** 	}
 232:../../../FreeRTOS_9_0/Source/tasks.c **** 
 233:../../../FreeRTOS_9_0/Source/tasks.c **** #endif /* configUSE_PORT_OPTIMISED_TASK_SELECTION */
 234:../../../FreeRTOS_9_0/Source/tasks.c **** 
 235:../../../FreeRTOS_9_0/Source/tasks.c **** /*-----------------------------------------------------------*/
 236:../../../FreeRTOS_9_0/Source/tasks.c **** 
 237:../../../FreeRTOS_9_0/Source/tasks.c **** /* pxDelayedTaskList and pxOverflowDelayedTaskList are switched when the tick
 238:../../../FreeRTOS_9_0/Source/tasks.c **** count overflows. */
 239:../../../FreeRTOS_9_0/Source/tasks.c **** #define taskSWITCH_DELAYED_LISTS()																	\
 240:../../../FreeRTOS_9_0/Source/tasks.c **** {																									\
 241:../../../FreeRTOS_9_0/Source/tasks.c **** 	List_t *pxTemp;																					\
 242:../../../FreeRTOS_9_0/Source/tasks.c **** 																									\
 243:../../../FreeRTOS_9_0/Source/tasks.c **** 	/* The delayed tasks list should be empty when the lists are switched. */						\
 244:../../../FreeRTOS_9_0/Source/tasks.c **** 	configASSERT( ( listLIST_IS_EMPTY( pxDelayedTaskList ) ) );										\
 245:../../../FreeRTOS_9_0/Source/tasks.c **** 																									\
 246:../../../FreeRTOS_9_0/Source/tasks.c **** 	pxTemp = pxDelayedTaskList;																		\
 247:../../../FreeRTOS_9_0/Source/tasks.c **** 	pxDelayedTaskList = pxOverflowDelayedTaskList;													\
 248:../../../FreeRTOS_9_0/Source/tasks.c **** 	pxOverflowDelayedTaskList = pxTemp;																\
 249:../../../FreeRTOS_9_0/Source/tasks.c **** 	xNumOfOverflows++;																				\
 250:../../../FreeRTOS_9_0/Source/tasks.c **** 	prvResetNextTaskUnblockTime();																	\
 251:../../../FreeRTOS_9_0/Source/tasks.c **** }
 252:../../../FreeRTOS_9_0/Source/tasks.c **** 
 253:../../../FreeRTOS_9_0/Source/tasks.c **** /*-----------------------------------------------------------*/
 254:../../../FreeRTOS_9_0/Source/tasks.c **** 
 255:../../../FreeRTOS_9_0/Source/tasks.c **** /*
 256:../../../FreeRTOS_9_0/Source/tasks.c ****  * Place the task represented by pxTCB into the appropriate ready list for
 257:../../../FreeRTOS_9_0/Source/tasks.c ****  * the task.  It is inserted at the end of the list.
 258:../../../FreeRTOS_9_0/Source/tasks.c ****  */
 259:../../../FreeRTOS_9_0/Source/tasks.c **** #define prvAddTaskToReadyList( pxTCB )																\
 260:../../../FreeRTOS_9_0/Source/tasks.c **** 	traceMOVED_TASK_TO_READY_STATE( pxTCB );														\
 261:../../../FreeRTOS_9_0/Source/tasks.c **** 	taskRECORD_READY_PRIORITY( ( pxTCB )->uxPriority );												\
 262:../../../FreeRTOS_9_0/Source/tasks.c **** 	vListInsertEnd( &( pxReadyTasksLists[ ( pxTCB )->uxPriority ] ), &( ( pxTCB )->xStateListItem ) );
 263:../../../FreeRTOS_9_0/Source/tasks.c **** 	tracePOST_MOVED_TASK_TO_READY_STATE( pxTCB )
ARM GAS  /tmp/ccfW2k76.s 			page 8


 264:../../../FreeRTOS_9_0/Source/tasks.c **** 
 265:../../../FreeRTOS_9_0/Source/tasks.c **** /*
 266:../../../FreeRTOS_9_0/Source/tasks.c ****  * Place the task represented by pxTCB which has been in a ready list before
 267:../../../FreeRTOS_9_0/Source/tasks.c ****  * into the appropriate ready list for the task.
 268:../../../FreeRTOS_9_0/Source/tasks.c ****  * It is inserted at the end of the list.
 269:../../../FreeRTOS_9_0/Source/tasks.c ****  */
 270:../../../FreeRTOS_9_0/Source/tasks.c **** #define prvReaddTaskToReadyList( pxTCB )															\
 271:../../../FreeRTOS_9_0/Source/tasks.c **** 	traceREADDED_TASK_TO_READY_STATE( pxTCB );														\
 272:../../../FreeRTOS_9_0/Source/tasks.c **** 	taskRECORD_READY_PRIORITY( ( pxTCB )->uxPriority );												\
 273:../../../FreeRTOS_9_0/Source/tasks.c **** 	vListInsertEnd( &( pxReadyTasksLists[ ( pxTCB )->uxPriority ] ), &( ( pxTCB )->xStateListItem ) );
 274:../../../FreeRTOS_9_0/Source/tasks.c **** 	tracePOST_MOVED_TASK_TO_READY_STATE( pxTCB )
 275:../../../FreeRTOS_9_0/Source/tasks.c **** /*-----------------------------------------------------------*/
 276:../../../FreeRTOS_9_0/Source/tasks.c **** 
 277:../../../FreeRTOS_9_0/Source/tasks.c **** /*
 278:../../../FreeRTOS_9_0/Source/tasks.c ****  * Several functions take an TaskHandle_t parameter that can optionally be NULL,
 279:../../../FreeRTOS_9_0/Source/tasks.c ****  * where NULL is used to indicate that the handle of the currently executing
 280:../../../FreeRTOS_9_0/Source/tasks.c ****  * task should be used in place of the parameter.  This macro simply checks to
 281:../../../FreeRTOS_9_0/Source/tasks.c ****  * see if the parameter is NULL and returns a pointer to the appropriate TCB.
 282:../../../FreeRTOS_9_0/Source/tasks.c ****  */
 283:../../../FreeRTOS_9_0/Source/tasks.c **** #define prvGetTCBFromHandle( pxHandle ) ( ( ( pxHandle ) == NULL ) ? ( TCB_t * ) pxCurrentTCB : ( T
 284:../../../FreeRTOS_9_0/Source/tasks.c **** 
 285:../../../FreeRTOS_9_0/Source/tasks.c **** /* The item value of the event list item is normally used to hold the priority
 286:../../../FreeRTOS_9_0/Source/tasks.c **** of the task to which it belongs (coded to allow it to be held in reverse
 287:../../../FreeRTOS_9_0/Source/tasks.c **** priority order).  However, it is occasionally borrowed for other purposes.  It
 288:../../../FreeRTOS_9_0/Source/tasks.c **** is important its value is not updated due to a task priority change while it is
 289:../../../FreeRTOS_9_0/Source/tasks.c **** being used for another purpose.  The following bit definition is used to inform
 290:../../../FreeRTOS_9_0/Source/tasks.c **** the scheduler that the value should not be changed - in which case it is the
 291:../../../FreeRTOS_9_0/Source/tasks.c **** responsibility of whichever module is using the value to ensure it gets set back
 292:../../../FreeRTOS_9_0/Source/tasks.c **** to its original value when it is released. */
 293:../../../FreeRTOS_9_0/Source/tasks.c **** #if( configUSE_16_BIT_TICKS == 1 )
 294:../../../FreeRTOS_9_0/Source/tasks.c **** 	#define taskEVENT_LIST_ITEM_VALUE_IN_USE	0x8000U
 295:../../../FreeRTOS_9_0/Source/tasks.c **** #else
 296:../../../FreeRTOS_9_0/Source/tasks.c **** 	#define taskEVENT_LIST_ITEM_VALUE_IN_USE	0x80000000UL
 297:../../../FreeRTOS_9_0/Source/tasks.c **** #endif
 298:../../../FreeRTOS_9_0/Source/tasks.c **** 
 299:../../../FreeRTOS_9_0/Source/tasks.c **** /*
 300:../../../FreeRTOS_9_0/Source/tasks.c ****  * Task control block.  A task control block (TCB) is allocated for each task,
 301:../../../FreeRTOS_9_0/Source/tasks.c ****  * and stores task state information, including a pointer to the task's context
 302:../../../FreeRTOS_9_0/Source/tasks.c ****  * (the task's run time environment, including register values)
 303:../../../FreeRTOS_9_0/Source/tasks.c ****  */
 304:../../../FreeRTOS_9_0/Source/tasks.c **** typedef struct tskTaskControlBlock
 305:../../../FreeRTOS_9_0/Source/tasks.c **** {
 306:../../../FreeRTOS_9_0/Source/tasks.c **** 	volatile StackType_t	*pxTopOfStack;	/*< Points to the location of the last item placed on the task
 307:../../../FreeRTOS_9_0/Source/tasks.c **** 
 308:../../../FreeRTOS_9_0/Source/tasks.c **** 	#if ( portUSING_MPU_WRAPPERS == 1 )
 309:../../../FreeRTOS_9_0/Source/tasks.c **** 		xMPU_SETTINGS	xMPUSettings;		/*< The MPU settings are defined as part of the port layer.  THIS MU
 310:../../../FreeRTOS_9_0/Source/tasks.c **** 	#endif
 311:../../../FreeRTOS_9_0/Source/tasks.c **** 
 312:../../../FreeRTOS_9_0/Source/tasks.c **** 	ListItem_t			xStateListItem;	/*< The list that the state list item of a task is reference from den
 313:../../../FreeRTOS_9_0/Source/tasks.c **** 	ListItem_t			xEventListItem;		/*< Used to reference a task from an event list. */
 314:../../../FreeRTOS_9_0/Source/tasks.c **** 	UBaseType_t			uxPriority;			/*< The priority of the task.  0 is the lowest priority. */
 315:../../../FreeRTOS_9_0/Source/tasks.c **** 	StackType_t			*pxStack;			/*< Points to the start of the stack. */
 316:../../../FreeRTOS_9_0/Source/tasks.c **** 	char				pcTaskName[ configMAX_TASK_NAME_LEN ];/*< Descriptive name given to the task when created.
 317:../../../FreeRTOS_9_0/Source/tasks.c **** 
 318:../../../FreeRTOS_9_0/Source/tasks.c **** 	#if ( portSTACK_GROWTH > 0 )
 319:../../../FreeRTOS_9_0/Source/tasks.c **** 		StackType_t		*pxEndOfStack;		/*< Points to the end of the stack on architectures where the stack 
 320:../../../FreeRTOS_9_0/Source/tasks.c **** 	#endif
ARM GAS  /tmp/ccfW2k76.s 			page 9


 321:../../../FreeRTOS_9_0/Source/tasks.c **** 
 322:../../../FreeRTOS_9_0/Source/tasks.c **** 	#if ( portCRITICAL_NESTING_IN_TCB == 1 )
 323:../../../FreeRTOS_9_0/Source/tasks.c **** 		UBaseType_t		uxCriticalNesting;	/*< Holds the critical section nesting depth for ports that do no
 324:../../../FreeRTOS_9_0/Source/tasks.c **** 	#endif
 325:../../../FreeRTOS_9_0/Source/tasks.c **** 
 326:../../../FreeRTOS_9_0/Source/tasks.c **** 	#if ( configUSE_TRACE_FACILITY == 1 )
 327:../../../FreeRTOS_9_0/Source/tasks.c **** 		UBaseType_t		uxTCBNumber;		/*< Stores a number that increments each time a TCB is created.  It al
 328:../../../FreeRTOS_9_0/Source/tasks.c **** 		UBaseType_t		uxTaskNumber;		/*< Stores a number specifically for use by third party trace code. *
 329:../../../FreeRTOS_9_0/Source/tasks.c **** 	#endif
 330:../../../FreeRTOS_9_0/Source/tasks.c **** 
 331:../../../FreeRTOS_9_0/Source/tasks.c **** 	#if ( configUSE_MUTEXES == 1 )
 332:../../../FreeRTOS_9_0/Source/tasks.c **** 		UBaseType_t		uxBasePriority;		/*< The priority last assigned to the task - used by the priority i
 333:../../../FreeRTOS_9_0/Source/tasks.c **** 		UBaseType_t		uxMutexesHeld;
 334:../../../FreeRTOS_9_0/Source/tasks.c **** 	#endif
 335:../../../FreeRTOS_9_0/Source/tasks.c **** 
 336:../../../FreeRTOS_9_0/Source/tasks.c **** 	#if ( configUSE_APPLICATION_TASK_TAG == 1 )
 337:../../../FreeRTOS_9_0/Source/tasks.c **** 		TaskHookFunction_t pxTaskTag;
 338:../../../FreeRTOS_9_0/Source/tasks.c **** 	#endif
 339:../../../FreeRTOS_9_0/Source/tasks.c **** 
 340:../../../FreeRTOS_9_0/Source/tasks.c **** 	#if( configNUM_THREAD_LOCAL_STORAGE_POINTERS > 0 )
 341:../../../FreeRTOS_9_0/Source/tasks.c **** 		void *pvThreadLocalStoragePointers[ configNUM_THREAD_LOCAL_STORAGE_POINTERS ];
 342:../../../FreeRTOS_9_0/Source/tasks.c **** 	#endif
 343:../../../FreeRTOS_9_0/Source/tasks.c **** 
 344:../../../FreeRTOS_9_0/Source/tasks.c **** 	#if( configGENERATE_RUN_TIME_STATS == 1 )
 345:../../../FreeRTOS_9_0/Source/tasks.c **** 		uint32_t		ulRunTimeCounter;	/*< Stores the amount of time the task has spent in the Running state
 346:../../../FreeRTOS_9_0/Source/tasks.c **** 	#endif
 347:../../../FreeRTOS_9_0/Source/tasks.c **** 
 348:../../../FreeRTOS_9_0/Source/tasks.c **** 	#if ( configUSE_NEWLIB_REENTRANT == 1 )
 349:../../../FreeRTOS_9_0/Source/tasks.c **** 		/* Allocate a Newlib reent structure that is specific to this task.
 350:../../../FreeRTOS_9_0/Source/tasks.c **** 		Note Newlib support has been included by popular demand, but is not
 351:../../../FreeRTOS_9_0/Source/tasks.c **** 		used by the FreeRTOS maintainers themselves.  FreeRTOS is not
 352:../../../FreeRTOS_9_0/Source/tasks.c **** 		responsible for resulting newlib operation.  User must be familiar with
 353:../../../FreeRTOS_9_0/Source/tasks.c **** 		newlib and must provide system-wide implementations of the necessary
 354:../../../FreeRTOS_9_0/Source/tasks.c **** 		stubs. Be warned that (at the time of writing) the current newlib design
 355:../../../FreeRTOS_9_0/Source/tasks.c **** 		implements a system-wide malloc() that must be provided with locks. */
 356:../../../FreeRTOS_9_0/Source/tasks.c **** 		struct	_reent xNewLib_reent;
 357:../../../FreeRTOS_9_0/Source/tasks.c **** 	#endif
 358:../../../FreeRTOS_9_0/Source/tasks.c **** 
 359:../../../FreeRTOS_9_0/Source/tasks.c **** 	#if( configUSE_TASK_NOTIFICATIONS == 1 )
 360:../../../FreeRTOS_9_0/Source/tasks.c **** 		volatile uint32_t ulNotifiedValue;
 361:../../../FreeRTOS_9_0/Source/tasks.c **** 		volatile uint8_t ucNotifyState;
 362:../../../FreeRTOS_9_0/Source/tasks.c **** 	#endif
 363:../../../FreeRTOS_9_0/Source/tasks.c **** 
 364:../../../FreeRTOS_9_0/Source/tasks.c **** 	/* See the comments above the definition of
 365:../../../FreeRTOS_9_0/Source/tasks.c **** 	tskSTATIC_AND_DYNAMIC_ALLOCATION_POSSIBLE. */
 366:../../../FreeRTOS_9_0/Source/tasks.c **** 	#if( tskSTATIC_AND_DYNAMIC_ALLOCATION_POSSIBLE != 0 )
 367:../../../FreeRTOS_9_0/Source/tasks.c **** 		uint8_t	ucStaticallyAllocated; 		/*< Set to pdTRUE if the task is a statically allocated to ensur
 368:../../../FreeRTOS_9_0/Source/tasks.c **** 	#endif
 369:../../../FreeRTOS_9_0/Source/tasks.c **** 
 370:../../../FreeRTOS_9_0/Source/tasks.c **** 	#if( INCLUDE_xTaskAbortDelay == 1 )
 371:../../../FreeRTOS_9_0/Source/tasks.c **** 		uint8_t ucDelayAborted;
 372:../../../FreeRTOS_9_0/Source/tasks.c **** 	#endif
 373:../../../FreeRTOS_9_0/Source/tasks.c **** 
 374:../../../FreeRTOS_9_0/Source/tasks.c **** } tskTCB;
 375:../../../FreeRTOS_9_0/Source/tasks.c **** 
 376:../../../FreeRTOS_9_0/Source/tasks.c **** /* The old tskTCB name is maintained above then typedefed to the new TCB_t name
 377:../../../FreeRTOS_9_0/Source/tasks.c **** below to enable the use of older kernel aware debuggers. */
ARM GAS  /tmp/ccfW2k76.s 			page 10


 378:../../../FreeRTOS_9_0/Source/tasks.c **** typedef tskTCB TCB_t;
 379:../../../FreeRTOS_9_0/Source/tasks.c **** 
 380:../../../FreeRTOS_9_0/Source/tasks.c **** /*lint -e956 A manual analysis and inspection has been used to determine which
 381:../../../FreeRTOS_9_0/Source/tasks.c **** static variables must be declared volatile. */
 382:../../../FreeRTOS_9_0/Source/tasks.c **** 
 383:../../../FreeRTOS_9_0/Source/tasks.c **** PRIVILEGED_DATA TCB_t * volatile pxCurrentTCB = NULL;
 384:../../../FreeRTOS_9_0/Source/tasks.c **** 
 385:../../../FreeRTOS_9_0/Source/tasks.c **** /* Lists for ready and blocked tasks. --------------------*/
 386:../../../FreeRTOS_9_0/Source/tasks.c **** PRIVILEGED_DATA static List_t pxReadyTasksLists[ configMAX_PRIORITIES ];/*< Prioritised ready tasks
 387:../../../FreeRTOS_9_0/Source/tasks.c **** PRIVILEGED_DATA static List_t xDelayedTaskList1;						/*< Delayed tasks. */
 388:../../../FreeRTOS_9_0/Source/tasks.c **** PRIVILEGED_DATA static List_t xDelayedTaskList2;						/*< Delayed tasks (two lists are used - one f
 389:../../../FreeRTOS_9_0/Source/tasks.c **** PRIVILEGED_DATA static List_t * volatile pxDelayedTaskList;				/*< Points to the delayed task list 
 390:../../../FreeRTOS_9_0/Source/tasks.c **** PRIVILEGED_DATA static List_t * volatile pxOverflowDelayedTaskList;		/*< Points to the delayed task
 391:../../../FreeRTOS_9_0/Source/tasks.c **** PRIVILEGED_DATA static List_t xPendingReadyList;						/*< Tasks that have been readied while the sc
 392:../../../FreeRTOS_9_0/Source/tasks.c **** 
 393:../../../FreeRTOS_9_0/Source/tasks.c **** #if( INCLUDE_vTaskDelete == 1 )
 394:../../../FreeRTOS_9_0/Source/tasks.c **** 
 395:../../../FreeRTOS_9_0/Source/tasks.c **** 	PRIVILEGED_DATA static List_t xTasksWaitingTermination;				/*< Tasks that have been deleted - but 
 396:../../../FreeRTOS_9_0/Source/tasks.c **** 	PRIVILEGED_DATA static volatile UBaseType_t uxDeletedTasksWaitingCleanUp = ( UBaseType_t ) 0U;
 397:../../../FreeRTOS_9_0/Source/tasks.c **** 
 398:../../../FreeRTOS_9_0/Source/tasks.c **** #endif
 399:../../../FreeRTOS_9_0/Source/tasks.c **** 
 400:../../../FreeRTOS_9_0/Source/tasks.c **** #if ( INCLUDE_vTaskSuspend == 1 )
 401:../../../FreeRTOS_9_0/Source/tasks.c **** 
 402:../../../FreeRTOS_9_0/Source/tasks.c **** 	PRIVILEGED_DATA static List_t xSuspendedTaskList;					/*< Tasks that are currently suspended. */
 403:../../../FreeRTOS_9_0/Source/tasks.c **** 
 404:../../../FreeRTOS_9_0/Source/tasks.c **** #endif
 405:../../../FreeRTOS_9_0/Source/tasks.c **** 
 406:../../../FreeRTOS_9_0/Source/tasks.c **** /* Other file private variables. --------------------------------*/
 407:../../../FreeRTOS_9_0/Source/tasks.c **** PRIVILEGED_DATA static volatile UBaseType_t uxCurrentNumberOfTasks 	= ( UBaseType_t ) 0U;
 408:../../../FreeRTOS_9_0/Source/tasks.c **** PRIVILEGED_DATA static volatile TickType_t xTickCount 				= ( TickType_t ) 0U;
 409:../../../FreeRTOS_9_0/Source/tasks.c **** PRIVILEGED_DATA static volatile UBaseType_t uxTopReadyPriority 		= tskIDLE_PRIORITY;
 410:../../../FreeRTOS_9_0/Source/tasks.c **** PRIVILEGED_DATA static volatile BaseType_t xSchedulerRunning 		= pdFALSE;
 411:../../../FreeRTOS_9_0/Source/tasks.c **** PRIVILEGED_DATA static volatile UBaseType_t uxPendedTicks 			= ( UBaseType_t ) 0U;
 412:../../../FreeRTOS_9_0/Source/tasks.c **** PRIVILEGED_DATA static volatile BaseType_t xYieldPending 			= pdFALSE;
 413:../../../FreeRTOS_9_0/Source/tasks.c **** PRIVILEGED_DATA static volatile BaseType_t xNumOfOverflows 			= ( BaseType_t ) 0;
 414:../../../FreeRTOS_9_0/Source/tasks.c **** PRIVILEGED_DATA static UBaseType_t uxTaskNumber 					= ( UBaseType_t ) 0U;
 415:../../../FreeRTOS_9_0/Source/tasks.c **** PRIVILEGED_DATA static volatile TickType_t xNextTaskUnblockTime		= ( TickType_t ) 0U; /* Initialise
 416:../../../FreeRTOS_9_0/Source/tasks.c **** PRIVILEGED_DATA static TaskHandle_t xIdleTaskHandle					= NULL;			/*< Holds the handle of the idle 
 417:../../../FreeRTOS_9_0/Source/tasks.c **** 
 418:../../../FreeRTOS_9_0/Source/tasks.c **** /* Context switches are held pending while the scheduler is suspended.  Also,
 419:../../../FreeRTOS_9_0/Source/tasks.c **** interrupts must not manipulate the xStateListItem of a TCB, or any of the
 420:../../../FreeRTOS_9_0/Source/tasks.c **** lists the xStateListItem can be referenced from, if the scheduler is suspended.
 421:../../../FreeRTOS_9_0/Source/tasks.c **** If an interrupt needs to unblock a task while the scheduler is suspended then it
 422:../../../FreeRTOS_9_0/Source/tasks.c **** moves the task's event list item into the xPendingReadyList, ready for the
 423:../../../FreeRTOS_9_0/Source/tasks.c **** kernel to move the task from the pending ready list into the real ready list
 424:../../../FreeRTOS_9_0/Source/tasks.c **** when the scheduler is unsuspended.  The pending ready list itself can only be
 425:../../../FreeRTOS_9_0/Source/tasks.c **** accessed from a critical section. */
 426:../../../FreeRTOS_9_0/Source/tasks.c **** PRIVILEGED_DATA static volatile UBaseType_t uxSchedulerSuspended	= ( UBaseType_t ) pdFALSE;
 427:../../../FreeRTOS_9_0/Source/tasks.c **** 
 428:../../../FreeRTOS_9_0/Source/tasks.c **** #if ( configGENERATE_RUN_TIME_STATS == 1 )
 429:../../../FreeRTOS_9_0/Source/tasks.c **** 
 430:../../../FreeRTOS_9_0/Source/tasks.c **** 	PRIVILEGED_DATA static uint32_t ulTaskSwitchedInTime = 0UL;	/*< Holds the value of a timer/counter
 431:../../../FreeRTOS_9_0/Source/tasks.c **** 	PRIVILEGED_DATA static uint32_t ulTotalRunTime = 0UL;		/*< Holds the total amount of execution tim
 432:../../../FreeRTOS_9_0/Source/tasks.c **** 
 433:../../../FreeRTOS_9_0/Source/tasks.c **** #endif
 434:../../../FreeRTOS_9_0/Source/tasks.c **** 
ARM GAS  /tmp/ccfW2k76.s 			page 11


 435:../../../FreeRTOS_9_0/Source/tasks.c **** /*lint +e956 */
 436:../../../FreeRTOS_9_0/Source/tasks.c **** 
 437:../../../FreeRTOS_9_0/Source/tasks.c **** /*-----------------------------------------------------------*/
 438:../../../FreeRTOS_9_0/Source/tasks.c **** 
 439:../../../FreeRTOS_9_0/Source/tasks.c **** /* Callback function prototypes. --------------------------*/
 440:../../../FreeRTOS_9_0/Source/tasks.c **** #if(  configCHECK_FOR_STACK_OVERFLOW > 0 )
 441:../../../FreeRTOS_9_0/Source/tasks.c **** 	extern void vApplicationStackOverflowHook( TaskHandle_t xTask, char *pcTaskName );
 442:../../../FreeRTOS_9_0/Source/tasks.c **** #endif
 443:../../../FreeRTOS_9_0/Source/tasks.c **** 
 444:../../../FreeRTOS_9_0/Source/tasks.c **** #if( configUSE_TICK_HOOK > 0 )
 445:../../../FreeRTOS_9_0/Source/tasks.c **** 	extern void vApplicationTickHook( void );
 446:../../../FreeRTOS_9_0/Source/tasks.c **** #endif
 447:../../../FreeRTOS_9_0/Source/tasks.c **** 
 448:../../../FreeRTOS_9_0/Source/tasks.c **** #if( configSUPPORT_STATIC_ALLOCATION == 1 )
 449:../../../FreeRTOS_9_0/Source/tasks.c **** 	extern void vApplicationGetIdleTaskMemory( StaticTask_t **ppxIdleTaskTCBBuffer, StackType_t **ppxI
 450:../../../FreeRTOS_9_0/Source/tasks.c **** #endif
 451:../../../FreeRTOS_9_0/Source/tasks.c **** 
 452:../../../FreeRTOS_9_0/Source/tasks.c **** /* File private functions. --------------------------------*/
 453:../../../FreeRTOS_9_0/Source/tasks.c **** 
 454:../../../FreeRTOS_9_0/Source/tasks.c **** /**
 455:../../../FreeRTOS_9_0/Source/tasks.c ****  * Utility task that simply returns pdTRUE if the task referenced by xTask is
 456:../../../FreeRTOS_9_0/Source/tasks.c ****  * currently in the Suspended state, or pdFALSE if the task referenced by xTask
 457:../../../FreeRTOS_9_0/Source/tasks.c ****  * is in any other state.
 458:../../../FreeRTOS_9_0/Source/tasks.c ****  */
 459:../../../FreeRTOS_9_0/Source/tasks.c **** #if ( INCLUDE_vTaskSuspend == 1 )
 460:../../../FreeRTOS_9_0/Source/tasks.c **** 	static BaseType_t prvTaskIsTaskSuspended( const TaskHandle_t xTask ) PRIVILEGED_FUNCTION;
 461:../../../FreeRTOS_9_0/Source/tasks.c **** #endif /* INCLUDE_vTaskSuspend */
 462:../../../FreeRTOS_9_0/Source/tasks.c **** 
 463:../../../FreeRTOS_9_0/Source/tasks.c **** /*
 464:../../../FreeRTOS_9_0/Source/tasks.c ****  * Utility to ready all the lists used by the scheduler.  This is called
 465:../../../FreeRTOS_9_0/Source/tasks.c ****  * automatically upon the creation of the first task.
 466:../../../FreeRTOS_9_0/Source/tasks.c ****  */
 467:../../../FreeRTOS_9_0/Source/tasks.c **** static void prvInitialiseTaskLists( void ) PRIVILEGED_FUNCTION;
 468:../../../FreeRTOS_9_0/Source/tasks.c **** 
 469:../../../FreeRTOS_9_0/Source/tasks.c **** /*
 470:../../../FreeRTOS_9_0/Source/tasks.c ****  * The idle task, which as all tasks is implemented as a never ending loop.
 471:../../../FreeRTOS_9_0/Source/tasks.c ****  * The idle task is automatically created and added to the ready lists upon
 472:../../../FreeRTOS_9_0/Source/tasks.c ****  * creation of the first user task.
 473:../../../FreeRTOS_9_0/Source/tasks.c ****  *
 474:../../../FreeRTOS_9_0/Source/tasks.c ****  * The portTASK_FUNCTION_PROTO() macro is used to allow port/compiler specific
 475:../../../FreeRTOS_9_0/Source/tasks.c ****  * language extensions.  The equivalent prototype for this function is:
 476:../../../FreeRTOS_9_0/Source/tasks.c ****  *
 477:../../../FreeRTOS_9_0/Source/tasks.c ****  * void prvIdleTask( void *pvParameters );
 478:../../../FreeRTOS_9_0/Source/tasks.c ****  *
 479:../../../FreeRTOS_9_0/Source/tasks.c ****  */
 480:../../../FreeRTOS_9_0/Source/tasks.c **** static portTASK_FUNCTION_PROTO( prvIdleTask, pvParameters );
 481:../../../FreeRTOS_9_0/Source/tasks.c **** 
 482:../../../FreeRTOS_9_0/Source/tasks.c **** /*
 483:../../../FreeRTOS_9_0/Source/tasks.c ****  * Utility to free all memory allocated by the scheduler to hold a TCB,
 484:../../../FreeRTOS_9_0/Source/tasks.c ****  * including the stack pointed to by the TCB.
 485:../../../FreeRTOS_9_0/Source/tasks.c ****  *
 486:../../../FreeRTOS_9_0/Source/tasks.c ****  * This does not free memory allocated by the task itself (i.e. memory
 487:../../../FreeRTOS_9_0/Source/tasks.c ****  * allocated by calls to pvPortMalloc from within the tasks application code).
 488:../../../FreeRTOS_9_0/Source/tasks.c ****  */
 489:../../../FreeRTOS_9_0/Source/tasks.c **** #if ( INCLUDE_vTaskDelete == 1 )
 490:../../../FreeRTOS_9_0/Source/tasks.c **** 
 491:../../../FreeRTOS_9_0/Source/tasks.c **** 	static void prvDeleteTCB( TCB_t *pxTCB ) PRIVILEGED_FUNCTION;
ARM GAS  /tmp/ccfW2k76.s 			page 12


 492:../../../FreeRTOS_9_0/Source/tasks.c **** 
 493:../../../FreeRTOS_9_0/Source/tasks.c **** #endif
 494:../../../FreeRTOS_9_0/Source/tasks.c **** 
 495:../../../FreeRTOS_9_0/Source/tasks.c **** /*
 496:../../../FreeRTOS_9_0/Source/tasks.c ****  * Used only by the idle task.  This checks to see if anything has been placed
 497:../../../FreeRTOS_9_0/Source/tasks.c ****  * in the list of tasks waiting to be deleted.  If so the task is cleaned up
 498:../../../FreeRTOS_9_0/Source/tasks.c ****  * and its TCB deleted.
 499:../../../FreeRTOS_9_0/Source/tasks.c ****  */
 500:../../../FreeRTOS_9_0/Source/tasks.c **** static void prvCheckTasksWaitingTermination( void ) PRIVILEGED_FUNCTION;
 501:../../../FreeRTOS_9_0/Source/tasks.c **** 
 502:../../../FreeRTOS_9_0/Source/tasks.c **** /*
 503:../../../FreeRTOS_9_0/Source/tasks.c ****  * The currently executing task is entering the Blocked state.  Add the task to
 504:../../../FreeRTOS_9_0/Source/tasks.c ****  * either the current or the overflow delayed task list.
 505:../../../FreeRTOS_9_0/Source/tasks.c ****  */
 506:../../../FreeRTOS_9_0/Source/tasks.c **** static void prvAddCurrentTaskToDelayedList( TickType_t xTicksToWait, const BaseType_t xCanBlockInde
 507:../../../FreeRTOS_9_0/Source/tasks.c **** 
 508:../../../FreeRTOS_9_0/Source/tasks.c **** /*
 509:../../../FreeRTOS_9_0/Source/tasks.c ****  * Fills an TaskStatus_t structure with information on each task that is
 510:../../../FreeRTOS_9_0/Source/tasks.c ****  * referenced from the pxList list (which may be a ready list, a delayed list,
 511:../../../FreeRTOS_9_0/Source/tasks.c ****  * a suspended list, etc.).
 512:../../../FreeRTOS_9_0/Source/tasks.c ****  *
 513:../../../FreeRTOS_9_0/Source/tasks.c ****  * THIS FUNCTION IS INTENDED FOR DEBUGGING ONLY, AND SHOULD NOT BE CALLED FROM
 514:../../../FreeRTOS_9_0/Source/tasks.c ****  * NORMAL APPLICATION CODE.
 515:../../../FreeRTOS_9_0/Source/tasks.c ****  */
 516:../../../FreeRTOS_9_0/Source/tasks.c **** #if ( configUSE_TRACE_FACILITY == 1 )
 517:../../../FreeRTOS_9_0/Source/tasks.c **** 
 518:../../../FreeRTOS_9_0/Source/tasks.c **** 	static UBaseType_t prvListTasksWithinSingleList( TaskStatus_t *pxTaskStatusArray, List_t *pxList, 
 519:../../../FreeRTOS_9_0/Source/tasks.c **** 
 520:../../../FreeRTOS_9_0/Source/tasks.c **** #endif
 521:../../../FreeRTOS_9_0/Source/tasks.c **** 
 522:../../../FreeRTOS_9_0/Source/tasks.c **** /*
 523:../../../FreeRTOS_9_0/Source/tasks.c ****  * Searches pxList for a task with name pcNameToQuery - returning a handle to
 524:../../../FreeRTOS_9_0/Source/tasks.c ****  * the task if it is found, or NULL if the task is not found.
 525:../../../FreeRTOS_9_0/Source/tasks.c ****  */
 526:../../../FreeRTOS_9_0/Source/tasks.c **** #if ( INCLUDE_xTaskGetHandle == 1 )
 527:../../../FreeRTOS_9_0/Source/tasks.c **** 
 528:../../../FreeRTOS_9_0/Source/tasks.c **** 	static TCB_t *prvSearchForNameWithinSingleList( List_t *pxList, const char pcNameToQuery[] ) PRIVI
 529:../../../FreeRTOS_9_0/Source/tasks.c **** 
 530:../../../FreeRTOS_9_0/Source/tasks.c **** #endif
 531:../../../FreeRTOS_9_0/Source/tasks.c **** 
 532:../../../FreeRTOS_9_0/Source/tasks.c **** /*
 533:../../../FreeRTOS_9_0/Source/tasks.c ****  * When a task is created, the stack of the task is filled with a known value.
 534:../../../FreeRTOS_9_0/Source/tasks.c ****  * This function determines the 'high water mark' of the task stack by
 535:../../../FreeRTOS_9_0/Source/tasks.c ****  * determining how much of the stack remains at the original preset value.
 536:../../../FreeRTOS_9_0/Source/tasks.c ****  */
 537:../../../FreeRTOS_9_0/Source/tasks.c **** #if ( ( configUSE_TRACE_FACILITY == 1 ) || ( INCLUDE_uxTaskGetStackHighWaterMark == 1 ) )
 538:../../../FreeRTOS_9_0/Source/tasks.c **** 
 539:../../../FreeRTOS_9_0/Source/tasks.c **** 	static uint16_t prvTaskCheckFreeStackSpace( const uint8_t * pucStackByte ) PRIVILEGED_FUNCTION;
 540:../../../FreeRTOS_9_0/Source/tasks.c **** 
 541:../../../FreeRTOS_9_0/Source/tasks.c **** #endif
 542:../../../FreeRTOS_9_0/Source/tasks.c **** 
 543:../../../FreeRTOS_9_0/Source/tasks.c **** /*
 544:../../../FreeRTOS_9_0/Source/tasks.c ****  * Return the amount of time, in ticks, that will pass before the kernel will
 545:../../../FreeRTOS_9_0/Source/tasks.c ****  * next move a task from the Blocked state to the Running state.
 546:../../../FreeRTOS_9_0/Source/tasks.c ****  *
 547:../../../FreeRTOS_9_0/Source/tasks.c ****  * This conditional compilation should use inequality to 0, not equality to 1.
 548:../../../FreeRTOS_9_0/Source/tasks.c ****  * This is to ensure portSUPPRESS_TICKS_AND_SLEEP() can be called when user
ARM GAS  /tmp/ccfW2k76.s 			page 13


 549:../../../FreeRTOS_9_0/Source/tasks.c ****  * defined low power mode implementations require configUSE_TICKLESS_IDLE to be
 550:../../../FreeRTOS_9_0/Source/tasks.c ****  * set to a value other than 1.
 551:../../../FreeRTOS_9_0/Source/tasks.c ****  */
 552:../../../FreeRTOS_9_0/Source/tasks.c **** #if ( configUSE_TICKLESS_IDLE != 0 )
 553:../../../FreeRTOS_9_0/Source/tasks.c **** 
 554:../../../FreeRTOS_9_0/Source/tasks.c **** 	static TickType_t prvGetExpectedIdleTime( void ) PRIVILEGED_FUNCTION;
 555:../../../FreeRTOS_9_0/Source/tasks.c **** 
 556:../../../FreeRTOS_9_0/Source/tasks.c **** #endif
 557:../../../FreeRTOS_9_0/Source/tasks.c **** 
 558:../../../FreeRTOS_9_0/Source/tasks.c **** /*
 559:../../../FreeRTOS_9_0/Source/tasks.c ****  * Set xNextTaskUnblockTime to the time at which the next Blocked state task
 560:../../../FreeRTOS_9_0/Source/tasks.c ****  * will exit the Blocked state.
 561:../../../FreeRTOS_9_0/Source/tasks.c ****  */
 562:../../../FreeRTOS_9_0/Source/tasks.c **** static void prvResetNextTaskUnblockTime( void );
 563:../../../FreeRTOS_9_0/Source/tasks.c **** 
 564:../../../FreeRTOS_9_0/Source/tasks.c **** #if ( ( configUSE_TRACE_FACILITY == 1 ) && ( configUSE_STATS_FORMATTING_FUNCTIONS > 0 ) )
 565:../../../FreeRTOS_9_0/Source/tasks.c **** 
 566:../../../FreeRTOS_9_0/Source/tasks.c **** 	/*
 567:../../../FreeRTOS_9_0/Source/tasks.c **** 	 * Helper function used to pad task names with spaces when printing out
 568:../../../FreeRTOS_9_0/Source/tasks.c **** 	 * human readable tables of task information.
 569:../../../FreeRTOS_9_0/Source/tasks.c **** 	 */
 570:../../../FreeRTOS_9_0/Source/tasks.c **** 	static char *prvWriteNameToBuffer( char *pcBuffer, const char *pcTaskName ) PRIVILEGED_FUNCTION;
 571:../../../FreeRTOS_9_0/Source/tasks.c **** 
 572:../../../FreeRTOS_9_0/Source/tasks.c **** #endif
 573:../../../FreeRTOS_9_0/Source/tasks.c **** 
 574:../../../FreeRTOS_9_0/Source/tasks.c **** /*
 575:../../../FreeRTOS_9_0/Source/tasks.c ****  * Called after a Task_t structure has been allocated either statically or
 576:../../../FreeRTOS_9_0/Source/tasks.c ****  * dynamically to fill in the structure's members.
 577:../../../FreeRTOS_9_0/Source/tasks.c ****  */
 578:../../../FreeRTOS_9_0/Source/tasks.c **** static void prvInitialiseNewTask( 	TaskFunction_t pxTaskCode,
 579:../../../FreeRTOS_9_0/Source/tasks.c **** 									const char * const pcName,
 580:../../../FreeRTOS_9_0/Source/tasks.c **** 									const uint32_t ulStackDepth,
 581:../../../FreeRTOS_9_0/Source/tasks.c **** 									void * const pvParameters,
 582:../../../FreeRTOS_9_0/Source/tasks.c **** 									UBaseType_t uxPriority,
 583:../../../FreeRTOS_9_0/Source/tasks.c **** 									TaskHandle_t * const pxCreatedTask,
 584:../../../FreeRTOS_9_0/Source/tasks.c **** 									TCB_t *pxNewTCB,
 585:../../../FreeRTOS_9_0/Source/tasks.c **** 									const MemoryRegion_t * const xRegions ) PRIVILEGED_FUNCTION; /*lint !e971 Unqualified char
 586:../../../FreeRTOS_9_0/Source/tasks.c **** 
 587:../../../FreeRTOS_9_0/Source/tasks.c **** /*
 588:../../../FreeRTOS_9_0/Source/tasks.c ****  * Called after a new task has been created and initialised to place the task
 589:../../../FreeRTOS_9_0/Source/tasks.c ****  * under the control of the scheduler.
 590:../../../FreeRTOS_9_0/Source/tasks.c ****  */
 591:../../../FreeRTOS_9_0/Source/tasks.c **** static void prvAddNewTaskToReadyList( TCB_t *pxNewTCB ) PRIVILEGED_FUNCTION;
 592:../../../FreeRTOS_9_0/Source/tasks.c **** 
 593:../../../FreeRTOS_9_0/Source/tasks.c **** /*-----------------------------------------------------------*/
 594:../../../FreeRTOS_9_0/Source/tasks.c **** 
 595:../../../FreeRTOS_9_0/Source/tasks.c **** #if( configSUPPORT_STATIC_ALLOCATION == 1 )
 596:../../../FreeRTOS_9_0/Source/tasks.c **** 
 597:../../../FreeRTOS_9_0/Source/tasks.c **** 	TaskHandle_t xTaskCreateStatic(	TaskFunction_t pxTaskCode,
 598:../../../FreeRTOS_9_0/Source/tasks.c **** 									const char * const pcName,
 599:../../../FreeRTOS_9_0/Source/tasks.c **** 									const uint32_t ulStackDepth,
 600:../../../FreeRTOS_9_0/Source/tasks.c **** 									void * const pvParameters,
 601:../../../FreeRTOS_9_0/Source/tasks.c **** 									UBaseType_t uxPriority,
 602:../../../FreeRTOS_9_0/Source/tasks.c **** 									StackType_t * const puxStackBuffer,
 603:../../../FreeRTOS_9_0/Source/tasks.c **** 									StaticTask_t * const pxTaskBuffer ) /*lint !e971 Unqualified char types are allowed for st
 604:../../../FreeRTOS_9_0/Source/tasks.c **** 	{
 605:../../../FreeRTOS_9_0/Source/tasks.c **** 	TCB_t *pxNewTCB;
ARM GAS  /tmp/ccfW2k76.s 			page 14


 606:../../../FreeRTOS_9_0/Source/tasks.c **** 	TaskHandle_t xReturn;
 607:../../../FreeRTOS_9_0/Source/tasks.c **** 
 608:../../../FreeRTOS_9_0/Source/tasks.c **** 		configASSERT( puxStackBuffer != NULL );
 609:../../../FreeRTOS_9_0/Source/tasks.c **** 		configASSERT( pxTaskBuffer != NULL );
 610:../../../FreeRTOS_9_0/Source/tasks.c **** 
 611:../../../FreeRTOS_9_0/Source/tasks.c **** 		if( ( pxTaskBuffer != NULL ) && ( puxStackBuffer != NULL ) )
 612:../../../FreeRTOS_9_0/Source/tasks.c **** 		{
 613:../../../FreeRTOS_9_0/Source/tasks.c **** 			/* The memory used for the task's TCB and stack are passed into this
 614:../../../FreeRTOS_9_0/Source/tasks.c **** 			function - use them. */
 615:../../../FreeRTOS_9_0/Source/tasks.c **** 			pxNewTCB = ( TCB_t * ) pxTaskBuffer; /*lint !e740 Unusual cast is ok as the structures are desig
 616:../../../FreeRTOS_9_0/Source/tasks.c **** 			pxNewTCB->pxStack = ( StackType_t * ) puxStackBuffer;
 617:../../../FreeRTOS_9_0/Source/tasks.c **** 
 618:../../../FreeRTOS_9_0/Source/tasks.c **** 			#if( tskSTATIC_AND_DYNAMIC_ALLOCATION_POSSIBLE != 0 )
 619:../../../FreeRTOS_9_0/Source/tasks.c **** 			{
 620:../../../FreeRTOS_9_0/Source/tasks.c **** 				/* Tasks can be created statically or dynamically, so note this
 621:../../../FreeRTOS_9_0/Source/tasks.c **** 				task was created statically in case the task is later deleted. */
 622:../../../FreeRTOS_9_0/Source/tasks.c **** 				pxNewTCB->ucStaticallyAllocated = tskSTATICALLY_ALLOCATED_STACK_AND_TCB;
 623:../../../FreeRTOS_9_0/Source/tasks.c **** 			}
 624:../../../FreeRTOS_9_0/Source/tasks.c **** 			#endif /* configSUPPORT_DYNAMIC_ALLOCATION */
 625:../../../FreeRTOS_9_0/Source/tasks.c **** 
 626:../../../FreeRTOS_9_0/Source/tasks.c **** 			prvInitialiseNewTask( pxTaskCode, pcName, ulStackDepth, pvParameters, uxPriority, &xReturn, pxNe
 627:../../../FreeRTOS_9_0/Source/tasks.c **** 			prvAddNewTaskToReadyList( pxNewTCB );
 628:../../../FreeRTOS_9_0/Source/tasks.c **** 		}
 629:../../../FreeRTOS_9_0/Source/tasks.c **** 		else
 630:../../../FreeRTOS_9_0/Source/tasks.c **** 		{
 631:../../../FreeRTOS_9_0/Source/tasks.c **** 			xReturn = NULL;
 632:../../../FreeRTOS_9_0/Source/tasks.c **** 		}
 633:../../../FreeRTOS_9_0/Source/tasks.c **** 
 634:../../../FreeRTOS_9_0/Source/tasks.c **** 		return xReturn;
 635:../../../FreeRTOS_9_0/Source/tasks.c **** 	}
 636:../../../FreeRTOS_9_0/Source/tasks.c **** 
 637:../../../FreeRTOS_9_0/Source/tasks.c **** #endif /* SUPPORT_STATIC_ALLOCATION */
 638:../../../FreeRTOS_9_0/Source/tasks.c **** /*-----------------------------------------------------------*/
 639:../../../FreeRTOS_9_0/Source/tasks.c **** 
 640:../../../FreeRTOS_9_0/Source/tasks.c **** #if( portUSING_MPU_WRAPPERS == 1 )
 641:../../../FreeRTOS_9_0/Source/tasks.c **** 
 642:../../../FreeRTOS_9_0/Source/tasks.c **** 	BaseType_t xTaskCreateRestricted( const TaskParameters_t * const pxTaskDefinition, TaskHandle_t *p
 643:../../../FreeRTOS_9_0/Source/tasks.c **** 	{
 644:../../../FreeRTOS_9_0/Source/tasks.c **** 	TCB_t *pxNewTCB;
 645:../../../FreeRTOS_9_0/Source/tasks.c **** 	BaseType_t xReturn = errCOULD_NOT_ALLOCATE_REQUIRED_MEMORY;
 646:../../../FreeRTOS_9_0/Source/tasks.c **** 
 647:../../../FreeRTOS_9_0/Source/tasks.c **** 		configASSERT( pxTaskDefinition->puxStackBuffer );
 648:../../../FreeRTOS_9_0/Source/tasks.c **** 
 649:../../../FreeRTOS_9_0/Source/tasks.c **** 		if( pxTaskDefinition->puxStackBuffer != NULL )
 650:../../../FreeRTOS_9_0/Source/tasks.c **** 		{
 651:../../../FreeRTOS_9_0/Source/tasks.c **** 			/* Allocate space for the TCB.  Where the memory comes from depends
 652:../../../FreeRTOS_9_0/Source/tasks.c **** 			on the implementation of the port malloc function and whether or
 653:../../../FreeRTOS_9_0/Source/tasks.c **** 			not static allocation is being used. */
 654:../../../FreeRTOS_9_0/Source/tasks.c **** 			pxNewTCB = ( TCB_t * ) pvPortMalloc( sizeof( TCB_t ) );
 655:../../../FreeRTOS_9_0/Source/tasks.c **** 
 656:../../../FreeRTOS_9_0/Source/tasks.c **** 			if( pxNewTCB != NULL )
 657:../../../FreeRTOS_9_0/Source/tasks.c **** 			{
 658:../../../FreeRTOS_9_0/Source/tasks.c **** 				/* Store the stack location in the TCB. */
 659:../../../FreeRTOS_9_0/Source/tasks.c **** 				pxNewTCB->pxStack = pxTaskDefinition->puxStackBuffer;
 660:../../../FreeRTOS_9_0/Source/tasks.c **** 
 661:../../../FreeRTOS_9_0/Source/tasks.c **** 				/* Tasks can be created statically or dynamically, so note
 662:../../../FreeRTOS_9_0/Source/tasks.c **** 				this task had a statically allocated stack in case it is
ARM GAS  /tmp/ccfW2k76.s 			page 15


 663:../../../FreeRTOS_9_0/Source/tasks.c **** 				later deleted.  The TCB was allocated dynamically. */
 664:../../../FreeRTOS_9_0/Source/tasks.c **** 				pxNewTCB->ucStaticallyAllocated = tskSTATICALLY_ALLOCATED_STACK_ONLY;
 665:../../../FreeRTOS_9_0/Source/tasks.c **** 
 666:../../../FreeRTOS_9_0/Source/tasks.c **** 				prvInitialiseNewTask(	pxTaskDefinition->pvTaskCode,
 667:../../../FreeRTOS_9_0/Source/tasks.c **** 										pxTaskDefinition->pcName,
 668:../../../FreeRTOS_9_0/Source/tasks.c **** 										( uint32_t ) pxTaskDefinition->usStackDepth,
 669:../../../FreeRTOS_9_0/Source/tasks.c **** 										pxTaskDefinition->pvParameters,
 670:../../../FreeRTOS_9_0/Source/tasks.c **** 										pxTaskDefinition->uxPriority,
 671:../../../FreeRTOS_9_0/Source/tasks.c **** 										pxCreatedTask, pxNewTCB,
 672:../../../FreeRTOS_9_0/Source/tasks.c **** 										pxTaskDefinition->xRegions );
 673:../../../FreeRTOS_9_0/Source/tasks.c **** 
 674:../../../FreeRTOS_9_0/Source/tasks.c **** 				prvAddNewTaskToReadyList( pxNewTCB );
 675:../../../FreeRTOS_9_0/Source/tasks.c **** 				xReturn = pdPASS;
 676:../../../FreeRTOS_9_0/Source/tasks.c **** 			}
 677:../../../FreeRTOS_9_0/Source/tasks.c **** 		}
 678:../../../FreeRTOS_9_0/Source/tasks.c **** 
 679:../../../FreeRTOS_9_0/Source/tasks.c **** 		return xReturn;
 680:../../../FreeRTOS_9_0/Source/tasks.c **** 	}
 681:../../../FreeRTOS_9_0/Source/tasks.c **** 
 682:../../../FreeRTOS_9_0/Source/tasks.c **** #endif /* portUSING_MPU_WRAPPERS */
 683:../../../FreeRTOS_9_0/Source/tasks.c **** /*-----------------------------------------------------------*/
 684:../../../FreeRTOS_9_0/Source/tasks.c **** 
 685:../../../FreeRTOS_9_0/Source/tasks.c **** #if( configSUPPORT_DYNAMIC_ALLOCATION == 1 )
 686:../../../FreeRTOS_9_0/Source/tasks.c **** 
 687:../../../FreeRTOS_9_0/Source/tasks.c **** 	BaseType_t xTaskCreate(	TaskFunction_t pxTaskCode,
 688:../../../FreeRTOS_9_0/Source/tasks.c **** 							const char * const pcName,
 689:../../../FreeRTOS_9_0/Source/tasks.c **** 							const uint16_t usStackDepth,
 690:../../../FreeRTOS_9_0/Source/tasks.c **** 							void * const pvParameters,
 691:../../../FreeRTOS_9_0/Source/tasks.c **** 							UBaseType_t uxPriority,
 692:../../../FreeRTOS_9_0/Source/tasks.c **** 							TaskHandle_t * const pxCreatedTask ) /*lint !e971 Unqualified char types are allowed for str
 693:../../../FreeRTOS_9_0/Source/tasks.c **** 	{
 156              		.loc 1 693 0
 157              		.cfi_startproc
 158              		@ args = 8, pretend = 0, frame = 32
 159              		@ frame_needed = 1, uses_anonymous_args = 0
 160 0000 80B5     		push	{r7, lr}
 161              	.LCFI0:
 162              		.cfi_def_cfa_offset 8
 163              		.cfi_offset 7, -8
 164              		.cfi_offset 14, -4
 165 0002 8CB0     		sub	sp, sp, #48
 166              	.LCFI1:
 167              		.cfi_def_cfa_offset 56
 168 0004 04AF     		add	r7, sp, #16
 169              	.LCFI2:
 170              		.cfi_def_cfa 7, 40
 171 0006 F860     		str	r0, [r7, #12]
 172 0008 B960     		str	r1, [r7, #8]
 173 000a 3B60     		str	r3, [r7]
 174 000c 1346     		mov	r3, r2	@ movhi
 175 000e FB80     		strh	r3, [r7, #6]	@ movhi
 176              	.LBB92:
 694:../../../FreeRTOS_9_0/Source/tasks.c **** 	TCB_t *pxNewTCB;
 695:../../../FreeRTOS_9_0/Source/tasks.c **** 	BaseType_t xReturn;
 696:../../../FreeRTOS_9_0/Source/tasks.c **** 
 697:../../../FreeRTOS_9_0/Source/tasks.c **** 		/* If the stack grows down then allocate the stack then the TCB so the stack
 698:../../../FreeRTOS_9_0/Source/tasks.c **** 		does not grow into the TCB.  Likewise if the stack grows up then allocate
ARM GAS  /tmp/ccfW2k76.s 			page 16


 699:../../../FreeRTOS_9_0/Source/tasks.c **** 		the TCB then the stack. */
 700:../../../FreeRTOS_9_0/Source/tasks.c **** 		#if( portSTACK_GROWTH > 0 )
 701:../../../FreeRTOS_9_0/Source/tasks.c **** 		{
 702:../../../FreeRTOS_9_0/Source/tasks.c **** 			/* Allocate space for the TCB.  Where the memory comes from depends on
 703:../../../FreeRTOS_9_0/Source/tasks.c **** 			the implementation of the port malloc function and whether or not static
 704:../../../FreeRTOS_9_0/Source/tasks.c **** 			allocation is being used. */
 705:../../../FreeRTOS_9_0/Source/tasks.c **** 			pxNewTCB = ( TCB_t * ) pvPortMalloc( sizeof( TCB_t ) );
 706:../../../FreeRTOS_9_0/Source/tasks.c **** 
 707:../../../FreeRTOS_9_0/Source/tasks.c **** 			if( pxNewTCB != NULL )
 708:../../../FreeRTOS_9_0/Source/tasks.c **** 			{
 709:../../../FreeRTOS_9_0/Source/tasks.c **** 				/* Allocate space for the stack used by the task being created.
 710:../../../FreeRTOS_9_0/Source/tasks.c **** 				The base of the stack memory stored in the TCB so the task can
 711:../../../FreeRTOS_9_0/Source/tasks.c **** 				be deleted later if required. */
 712:../../../FreeRTOS_9_0/Source/tasks.c **** 				pxNewTCB->pxStack = ( StackType_t * ) pvPortMalloc( ( ( ( size_t ) usStackDepth ) * sizeof( Sta
 713:../../../FreeRTOS_9_0/Source/tasks.c **** 
 714:../../../FreeRTOS_9_0/Source/tasks.c **** 				if( pxNewTCB->pxStack == NULL )
 715:../../../FreeRTOS_9_0/Source/tasks.c **** 				{
 716:../../../FreeRTOS_9_0/Source/tasks.c **** 					/* Could not allocate the stack.  Delete the allocated TCB. */
 717:../../../FreeRTOS_9_0/Source/tasks.c **** 					vPortFree( pxNewTCB );
 718:../../../FreeRTOS_9_0/Source/tasks.c **** 					pxNewTCB = NULL;
 719:../../../FreeRTOS_9_0/Source/tasks.c **** 				}
 720:../../../FreeRTOS_9_0/Source/tasks.c **** 			}
 721:../../../FreeRTOS_9_0/Source/tasks.c **** 		}
 722:../../../FreeRTOS_9_0/Source/tasks.c **** 		#else /* portSTACK_GROWTH */
 723:../../../FreeRTOS_9_0/Source/tasks.c **** 		{
 724:../../../FreeRTOS_9_0/Source/tasks.c **** 		StackType_t *pxStack;
 725:../../../FreeRTOS_9_0/Source/tasks.c **** 
 726:../../../FreeRTOS_9_0/Source/tasks.c **** 			/* Allocate space for the stack used by the task being created. */
 727:../../../FreeRTOS_9_0/Source/tasks.c **** 			pxStack = ( StackType_t * ) pvPortMalloc( ( ( ( size_t ) usStackDepth ) * sizeof( StackType_t ) 
 177              		.loc 1 727 0
 178 0010 FB88     		ldrh	r3, [r7, #6]
 179 0012 9B00     		lsls	r3, r3, #2
 180 0014 1846     		mov	r0, r3
 181 0016 FFF7FEFF 		bl	pvPortMalloc
 182 001a 7861     		str	r0, [r7, #20]
 728:../../../FreeRTOS_9_0/Source/tasks.c **** 
 729:../../../FreeRTOS_9_0/Source/tasks.c **** 			if( pxStack != NULL )
 183              		.loc 1 729 0
 184 001c 7B69     		ldr	r3, [r7, #20]
 185 001e 002B     		cmp	r3, #0
 186 0020 0ED0     		beq	.L2
 730:../../../FreeRTOS_9_0/Source/tasks.c **** 			{
 731:../../../FreeRTOS_9_0/Source/tasks.c **** 				/* Allocate space for the TCB. */
 732:../../../FreeRTOS_9_0/Source/tasks.c **** 				pxNewTCB = ( TCB_t * ) pvPortMalloc( sizeof( TCB_t ) ); /*lint !e961 MISRA exception as the cas
 187              		.loc 1 732 0
 188 0022 5C20     		movs	r0, #92
 189 0024 FFF7FEFF 		bl	pvPortMalloc
 190 0028 F861     		str	r0, [r7, #28]
 733:../../../FreeRTOS_9_0/Source/tasks.c **** 
 734:../../../FreeRTOS_9_0/Source/tasks.c **** 				if( pxNewTCB != NULL )
 191              		.loc 1 734 0
 192 002a FB69     		ldr	r3, [r7, #28]
 193 002c 002B     		cmp	r3, #0
 194 002e 03D0     		beq	.L3
 735:../../../FreeRTOS_9_0/Source/tasks.c **** 				{
 736:../../../FreeRTOS_9_0/Source/tasks.c **** 					/* Store the stack location in the TCB. */
 737:../../../FreeRTOS_9_0/Source/tasks.c **** 					pxNewTCB->pxStack = pxStack;
ARM GAS  /tmp/ccfW2k76.s 			page 17


 195              		.loc 1 737 0
 196 0030 FB69     		ldr	r3, [r7, #28]
 197 0032 7A69     		ldr	r2, [r7, #20]
 198 0034 1A63     		str	r2, [r3, #48]
 199 0036 05E0     		b	.L5
 200              	.L3:
 738:../../../FreeRTOS_9_0/Source/tasks.c **** 				}
 739:../../../FreeRTOS_9_0/Source/tasks.c **** 				else
 740:../../../FreeRTOS_9_0/Source/tasks.c **** 				{
 741:../../../FreeRTOS_9_0/Source/tasks.c **** 					/* The stack cannot be used as the TCB was not created.  Free
 742:../../../FreeRTOS_9_0/Source/tasks.c **** 					it again. */
 743:../../../FreeRTOS_9_0/Source/tasks.c **** 					vPortFree( pxStack );
 201              		.loc 1 743 0
 202 0038 7869     		ldr	r0, [r7, #20]
 203 003a FFF7FEFF 		bl	vPortFree
 204 003e 01E0     		b	.L5
 205              	.L2:
 744:../../../FreeRTOS_9_0/Source/tasks.c **** 				}
 745:../../../FreeRTOS_9_0/Source/tasks.c **** 			}
 746:../../../FreeRTOS_9_0/Source/tasks.c **** 			else
 747:../../../FreeRTOS_9_0/Source/tasks.c **** 			{
 748:../../../FreeRTOS_9_0/Source/tasks.c **** 				pxNewTCB = NULL;
 206              		.loc 1 748 0
 207 0040 0023     		movs	r3, #0
 208 0042 FB61     		str	r3, [r7, #28]
 209              	.L5:
 210              	.LBE92:
 749:../../../FreeRTOS_9_0/Source/tasks.c **** 			}
 750:../../../FreeRTOS_9_0/Source/tasks.c **** 		}
 751:../../../FreeRTOS_9_0/Source/tasks.c **** 		#endif /* portSTACK_GROWTH */
 752:../../../FreeRTOS_9_0/Source/tasks.c **** 
 753:../../../FreeRTOS_9_0/Source/tasks.c **** 		if( pxNewTCB != NULL )
 211              		.loc 1 753 0
 212 0044 FB69     		ldr	r3, [r7, #28]
 213 0046 002B     		cmp	r3, #0
 214 0048 13D0     		beq	.L6
 754:../../../FreeRTOS_9_0/Source/tasks.c **** 		{
 755:../../../FreeRTOS_9_0/Source/tasks.c **** 			#if( tskSTATIC_AND_DYNAMIC_ALLOCATION_POSSIBLE != 0 )
 756:../../../FreeRTOS_9_0/Source/tasks.c **** 			{
 757:../../../FreeRTOS_9_0/Source/tasks.c **** 				/* Tasks can be created statically or dynamically, so note this
 758:../../../FreeRTOS_9_0/Source/tasks.c **** 				task was created dynamically in case it is later deleted. */
 759:../../../FreeRTOS_9_0/Source/tasks.c **** 				pxNewTCB->ucStaticallyAllocated = tskDYNAMICALLY_ALLOCATED_STACK_AND_TCB;
 760:../../../FreeRTOS_9_0/Source/tasks.c **** 			}
 761:../../../FreeRTOS_9_0/Source/tasks.c **** 			#endif /* configSUPPORT_STATIC_ALLOCATION */
 762:../../../FreeRTOS_9_0/Source/tasks.c **** 
 763:../../../FreeRTOS_9_0/Source/tasks.c **** 			prvInitialiseNewTask( pxTaskCode, pcName, ( uint32_t ) usStackDepth, pvParameters, uxPriority, p
 215              		.loc 1 763 0
 216 004a FA88     		ldrh	r2, [r7, #6]
 217 004c BB6A     		ldr	r3, [r7, #40]
 218 004e 0093     		str	r3, [sp]
 219 0050 FB6A     		ldr	r3, [r7, #44]
 220 0052 0193     		str	r3, [sp, #4]
 221 0054 FB69     		ldr	r3, [r7, #28]
 222 0056 0293     		str	r3, [sp, #8]
 223 0058 0023     		movs	r3, #0
 224 005a 0393     		str	r3, [sp, #12]
 225 005c F868     		ldr	r0, [r7, #12]
ARM GAS  /tmp/ccfW2k76.s 			page 18


 226 005e B968     		ldr	r1, [r7, #8]
 227 0060 3B68     		ldr	r3, [r7]
 228 0062 FFF7FEFF 		bl	prvInitialiseNewTask
 764:../../../FreeRTOS_9_0/Source/tasks.c **** 			prvAddNewTaskToReadyList( pxNewTCB );
 229              		.loc 1 764 0
 230 0066 F869     		ldr	r0, [r7, #28]
 231 0068 FFF7FEFF 		bl	prvAddNewTaskToReadyList
 765:../../../FreeRTOS_9_0/Source/tasks.c **** 			xReturn = pdPASS;
 232              		.loc 1 765 0
 233 006c 0123     		movs	r3, #1
 234 006e BB61     		str	r3, [r7, #24]
 235 0070 02E0     		b	.L7
 236              	.L6:
 766:../../../FreeRTOS_9_0/Source/tasks.c **** 		}
 767:../../../FreeRTOS_9_0/Source/tasks.c **** 		else
 768:../../../FreeRTOS_9_0/Source/tasks.c **** 		{
 769:../../../FreeRTOS_9_0/Source/tasks.c **** 			xReturn = errCOULD_NOT_ALLOCATE_REQUIRED_MEMORY;
 237              		.loc 1 769 0
 238 0072 4FF0FF33 		mov	r3, #-1
 239 0076 BB61     		str	r3, [r7, #24]
 240              	.L7:
 770:../../../FreeRTOS_9_0/Source/tasks.c **** 		}
 771:../../../FreeRTOS_9_0/Source/tasks.c **** 
 772:../../../FreeRTOS_9_0/Source/tasks.c **** 		return xReturn;
 241              		.loc 1 772 0
 242 0078 BB69     		ldr	r3, [r7, #24]
 773:../../../FreeRTOS_9_0/Source/tasks.c **** 	}
 243              		.loc 1 773 0
 244 007a 1846     		mov	r0, r3
 245 007c 2037     		adds	r7, r7, #32
 246              	.LCFI3:
 247              		.cfi_def_cfa_offset 8
 248 007e BD46     		mov	sp, r7
 249              	.LCFI4:
 250              		.cfi_def_cfa_register 13
 251              		@ sp needed
 252 0080 80BD     		pop	{r7, pc}
 253              		.cfi_endproc
 254              	.LFE5:
 256 0082 00BF     		.section	.text.prvInitialiseNewTask,"ax",%progbits
 257              		.align	2
 258              		.thumb
 259              		.thumb_func
 261              	prvInitialiseNewTask:
 262              	.LFB6:
 774:../../../FreeRTOS_9_0/Source/tasks.c **** 
 775:../../../FreeRTOS_9_0/Source/tasks.c **** #endif /* configSUPPORT_DYNAMIC_ALLOCATION */
 776:../../../FreeRTOS_9_0/Source/tasks.c **** /*-----------------------------------------------------------*/
 777:../../../FreeRTOS_9_0/Source/tasks.c **** 
 778:../../../FreeRTOS_9_0/Source/tasks.c **** static void prvInitialiseNewTask( 	TaskFunction_t pxTaskCode,
 779:../../../FreeRTOS_9_0/Source/tasks.c **** 									const char * const pcName,
 780:../../../FreeRTOS_9_0/Source/tasks.c **** 									const uint32_t ulStackDepth,
 781:../../../FreeRTOS_9_0/Source/tasks.c **** 									void * const pvParameters,
 782:../../../FreeRTOS_9_0/Source/tasks.c **** 									UBaseType_t uxPriority,
 783:../../../FreeRTOS_9_0/Source/tasks.c **** 									TaskHandle_t * const pxCreatedTask,
 784:../../../FreeRTOS_9_0/Source/tasks.c **** 									TCB_t *pxNewTCB,
 785:../../../FreeRTOS_9_0/Source/tasks.c **** 									const MemoryRegion_t * const xRegions ) /*lint !e971 Unqualified char types are allowed fo
ARM GAS  /tmp/ccfW2k76.s 			page 19


 786:../../../FreeRTOS_9_0/Source/tasks.c **** {
 263              		.loc 1 786 0
 264              		.cfi_startproc
 265              		@ args = 16, pretend = 0, frame = 32
 266              		@ frame_needed = 1, uses_anonymous_args = 0
 267 0000 80B5     		push	{r7, lr}
 268              	.LCFI5:
 269              		.cfi_def_cfa_offset 8
 270              		.cfi_offset 7, -8
 271              		.cfi_offset 14, -4
 272 0002 88B0     		sub	sp, sp, #32
 273              	.LCFI6:
 274              		.cfi_def_cfa_offset 40
 275 0004 00AF     		add	r7, sp, #0
 276              	.LCFI7:
 277              		.cfi_def_cfa_register 7
 278 0006 F860     		str	r0, [r7, #12]
 279 0008 B960     		str	r1, [r7, #8]
 280 000a 7A60     		str	r2, [r7, #4]
 281 000c 3B60     		str	r3, [r7]
 787:../../../FreeRTOS_9_0/Source/tasks.c **** StackType_t *pxTopOfStack;
 788:../../../FreeRTOS_9_0/Source/tasks.c **** UBaseType_t x;
 789:../../../FreeRTOS_9_0/Source/tasks.c **** 
 790:../../../FreeRTOS_9_0/Source/tasks.c **** 	#if( portUSING_MPU_WRAPPERS == 1 )
 791:../../../FreeRTOS_9_0/Source/tasks.c **** 		/* Should the task be created in privileged mode? */
 792:../../../FreeRTOS_9_0/Source/tasks.c **** 		BaseType_t xRunPrivileged;
 793:../../../FreeRTOS_9_0/Source/tasks.c **** 		if( ( uxPriority & portPRIVILEGE_BIT ) != 0U )
 794:../../../FreeRTOS_9_0/Source/tasks.c **** 		{
 795:../../../FreeRTOS_9_0/Source/tasks.c **** 			xRunPrivileged = pdTRUE;
 796:../../../FreeRTOS_9_0/Source/tasks.c **** 		}
 797:../../../FreeRTOS_9_0/Source/tasks.c **** 		else
 798:../../../FreeRTOS_9_0/Source/tasks.c **** 		{
 799:../../../FreeRTOS_9_0/Source/tasks.c **** 			xRunPrivileged = pdFALSE;
 800:../../../FreeRTOS_9_0/Source/tasks.c **** 		}
 801:../../../FreeRTOS_9_0/Source/tasks.c **** 		uxPriority &= ~portPRIVILEGE_BIT;
 802:../../../FreeRTOS_9_0/Source/tasks.c **** 	#endif /* portUSING_MPU_WRAPPERS == 1 */
 803:../../../FreeRTOS_9_0/Source/tasks.c **** 
 804:../../../FreeRTOS_9_0/Source/tasks.c **** 	/* Avoid dependency on memset() if it is not required. */
 805:../../../FreeRTOS_9_0/Source/tasks.c **** 	#if( ( configCHECK_FOR_STACK_OVERFLOW > 1 ) || ( configUSE_TRACE_FACILITY == 1 ) || ( INCLUDE_uxTa
 806:../../../FreeRTOS_9_0/Source/tasks.c **** 	{
 807:../../../FreeRTOS_9_0/Source/tasks.c **** 		/* Fill the stack with a known value to assist debugging. */
 808:../../../FreeRTOS_9_0/Source/tasks.c **** 		( void ) memset( pxNewTCB->pxStack, ( int ) tskSTACK_FILL_BYTE, ( size_t ) ulStackDepth * sizeof(
 282              		.loc 1 808 0
 283 000e 3B6B     		ldr	r3, [r7, #48]
 284 0010 1A6B     		ldr	r2, [r3, #48]
 285 0012 7B68     		ldr	r3, [r7, #4]
 286 0014 9B00     		lsls	r3, r3, #2
 287 0016 1046     		mov	r0, r2
 288 0018 A521     		movs	r1, #165
 289 001a 1A46     		mov	r2, r3
 290 001c FFF7FEFF 		bl	memset
 809:../../../FreeRTOS_9_0/Source/tasks.c **** 	}
 810:../../../FreeRTOS_9_0/Source/tasks.c **** 	#endif /* ( ( configCHECK_FOR_STACK_OVERFLOW > 1 ) || ( ( configUSE_TRACE_FACILITY == 1 ) || ( INC
 811:../../../FreeRTOS_9_0/Source/tasks.c **** 
 812:../../../FreeRTOS_9_0/Source/tasks.c **** 	/* Calculate the top of stack address.  This depends on whether the stack
 813:../../../FreeRTOS_9_0/Source/tasks.c **** 	grows from high memory to low (as per the 80x86) or vice versa.
 814:../../../FreeRTOS_9_0/Source/tasks.c **** 	portSTACK_GROWTH is used to make the result positive or negative as required
ARM GAS  /tmp/ccfW2k76.s 			page 20


 815:../../../FreeRTOS_9_0/Source/tasks.c **** 	by the port. */
 816:../../../FreeRTOS_9_0/Source/tasks.c **** 	#if( portSTACK_GROWTH < 0 )
 817:../../../FreeRTOS_9_0/Source/tasks.c **** 	{
 818:../../../FreeRTOS_9_0/Source/tasks.c **** 		pxTopOfStack = pxNewTCB->pxStack + ( ulStackDepth - ( uint32_t ) 1 );
 291              		.loc 1 818 0
 292 0020 3B6B     		ldr	r3, [r7, #48]
 293 0022 1A6B     		ldr	r2, [r3, #48]
 294 0024 7968     		ldr	r1, [r7, #4]
 295 0026 6FF04043 		mvn	r3, #-1073741824
 296 002a 0B44     		add	r3, r3, r1
 297 002c 9B00     		lsls	r3, r3, #2
 298 002e 1344     		add	r3, r3, r2
 299 0030 BB61     		str	r3, [r7, #24]
 819:../../../FreeRTOS_9_0/Source/tasks.c **** 		pxTopOfStack = ( StackType_t * ) ( ( ( portPOINTER_SIZE_TYPE ) pxTopOfStack ) & ( ~( ( portPOINTE
 300              		.loc 1 819 0
 301 0032 BB69     		ldr	r3, [r7, #24]
 302 0034 23F00703 		bic	r3, r3, #7
 303 0038 BB61     		str	r3, [r7, #24]
 820:../../../FreeRTOS_9_0/Source/tasks.c **** 
 821:../../../FreeRTOS_9_0/Source/tasks.c **** 		/* Check the alignment of the calculated top of stack is correct. */
 822:../../../FreeRTOS_9_0/Source/tasks.c **** 		configASSERT( ( ( ( portPOINTER_SIZE_TYPE ) pxTopOfStack & ( portPOINTER_SIZE_TYPE ) portBYTE_ALI
 304              		.loc 1 822 0
 305 003a BB69     		ldr	r3, [r7, #24]
 306 003c 03F00703 		and	r3, r3, #7
 307 0040 002B     		cmp	r3, #0
 308 0042 09D0     		beq	.L10
 309              	.LBB93:
 310              	.LBB94:
 311              		.file 2 "../../../FreeRTOS_9_0/Source/portable/GCC/ARM_CM4F/portmacro.h"
   1:../../../FreeRTOS_9_0/Source/portable/GCC/ARM_CM4F/portmacro.h **** /*
   2:../../../FreeRTOS_9_0/Source/portable/GCC/ARM_CM4F/portmacro.h ****     FreeRTOS V9.0.0 - Copyright (C) 2016 Real Time Engineers Ltd.
   3:../../../FreeRTOS_9_0/Source/portable/GCC/ARM_CM4F/portmacro.h ****     All rights reserved
   4:../../../FreeRTOS_9_0/Source/portable/GCC/ARM_CM4F/portmacro.h **** 
   5:../../../FreeRTOS_9_0/Source/portable/GCC/ARM_CM4F/portmacro.h ****     VISIT http://www.FreeRTOS.org TO ENSURE YOU ARE USING THE LATEST VERSION.
   6:../../../FreeRTOS_9_0/Source/portable/GCC/ARM_CM4F/portmacro.h **** 
   7:../../../FreeRTOS_9_0/Source/portable/GCC/ARM_CM4F/portmacro.h ****     This file is part of the FreeRTOS distribution.
   8:../../../FreeRTOS_9_0/Source/portable/GCC/ARM_CM4F/portmacro.h **** 
   9:../../../FreeRTOS_9_0/Source/portable/GCC/ARM_CM4F/portmacro.h ****     FreeRTOS is free software; you can redistribute it and/or modify it under
  10:../../../FreeRTOS_9_0/Source/portable/GCC/ARM_CM4F/portmacro.h ****     the terms of the GNU General Public License (version 2) as published by the
  11:../../../FreeRTOS_9_0/Source/portable/GCC/ARM_CM4F/portmacro.h ****     Free Software Foundation >>>> AND MODIFIED BY <<<< the FreeRTOS exception.
  12:../../../FreeRTOS_9_0/Source/portable/GCC/ARM_CM4F/portmacro.h **** 
  13:../../../FreeRTOS_9_0/Source/portable/GCC/ARM_CM4F/portmacro.h ****     ***************************************************************************
  14:../../../FreeRTOS_9_0/Source/portable/GCC/ARM_CM4F/portmacro.h ****     >>!   NOTE: The modification to the GPL is included to allow you to     !<<
  15:../../../FreeRTOS_9_0/Source/portable/GCC/ARM_CM4F/portmacro.h ****     >>!   distribute a combined work that includes FreeRTOS without being   !<<
  16:../../../FreeRTOS_9_0/Source/portable/GCC/ARM_CM4F/portmacro.h ****     >>!   obliged to provide the source code for proprietary components     !<<
  17:../../../FreeRTOS_9_0/Source/portable/GCC/ARM_CM4F/portmacro.h ****     >>!   outside of the FreeRTOS kernel.                                   !<<
  18:../../../FreeRTOS_9_0/Source/portable/GCC/ARM_CM4F/portmacro.h ****     ***************************************************************************
  19:../../../FreeRTOS_9_0/Source/portable/GCC/ARM_CM4F/portmacro.h **** 
  20:../../../FreeRTOS_9_0/Source/portable/GCC/ARM_CM4F/portmacro.h ****     FreeRTOS is distributed in the hope that it will be useful, but WITHOUT ANY
  21:../../../FreeRTOS_9_0/Source/portable/GCC/ARM_CM4F/portmacro.h ****     WARRANTY; without even the implied warranty of MERCHANTABILITY or FITNESS
  22:../../../FreeRTOS_9_0/Source/portable/GCC/ARM_CM4F/portmacro.h ****     FOR A PARTICULAR PURPOSE.  Full license text is available on the following
  23:../../../FreeRTOS_9_0/Source/portable/GCC/ARM_CM4F/portmacro.h ****     link: http://www.freertos.org/a00114.html
  24:../../../FreeRTOS_9_0/Source/portable/GCC/ARM_CM4F/portmacro.h **** 
  25:../../../FreeRTOS_9_0/Source/portable/GCC/ARM_CM4F/portmacro.h ****     ***************************************************************************
  26:../../../FreeRTOS_9_0/Source/portable/GCC/ARM_CM4F/portmacro.h ****      *                                                                       *
  27:../../../FreeRTOS_9_0/Source/portable/GCC/ARM_CM4F/portmacro.h ****      *    FreeRTOS provides completely free yet professionally developed,    *
  28:../../../FreeRTOS_9_0/Source/portable/GCC/ARM_CM4F/portmacro.h ****      *    robust, strictly quality controlled, supported, and cross          *
ARM GAS  /tmp/ccfW2k76.s 			page 21


  29:../../../FreeRTOS_9_0/Source/portable/GCC/ARM_CM4F/portmacro.h ****      *    platform software that is more than just the market leader, it     *
  30:../../../FreeRTOS_9_0/Source/portable/GCC/ARM_CM4F/portmacro.h ****      *    is the industry's de facto standard.                               *
  31:../../../FreeRTOS_9_0/Source/portable/GCC/ARM_CM4F/portmacro.h ****      *                                                                       *
  32:../../../FreeRTOS_9_0/Source/portable/GCC/ARM_CM4F/portmacro.h ****      *    Help yourself get started quickly while simultaneously helping     *
  33:../../../FreeRTOS_9_0/Source/portable/GCC/ARM_CM4F/portmacro.h ****      *    to support the FreeRTOS project by purchasing a FreeRTOS           *
  34:../../../FreeRTOS_9_0/Source/portable/GCC/ARM_CM4F/portmacro.h ****      *    tutorial book, reference manual, or both:                          *
  35:../../../FreeRTOS_9_0/Source/portable/GCC/ARM_CM4F/portmacro.h ****      *    http://www.FreeRTOS.org/Documentation                              *
  36:../../../FreeRTOS_9_0/Source/portable/GCC/ARM_CM4F/portmacro.h ****      *                                                                       *
  37:../../../FreeRTOS_9_0/Source/portable/GCC/ARM_CM4F/portmacro.h ****     ***************************************************************************
  38:../../../FreeRTOS_9_0/Source/portable/GCC/ARM_CM4F/portmacro.h **** 
  39:../../../FreeRTOS_9_0/Source/portable/GCC/ARM_CM4F/portmacro.h ****     http://www.FreeRTOS.org/FAQHelp.html - Having a problem?  Start by reading
  40:../../../FreeRTOS_9_0/Source/portable/GCC/ARM_CM4F/portmacro.h ****     the FAQ page "My application does not run, what could be wrong?".  Have you
  41:../../../FreeRTOS_9_0/Source/portable/GCC/ARM_CM4F/portmacro.h ****     defined configASSERT()?
  42:../../../FreeRTOS_9_0/Source/portable/GCC/ARM_CM4F/portmacro.h **** 
  43:../../../FreeRTOS_9_0/Source/portable/GCC/ARM_CM4F/portmacro.h ****     http://www.FreeRTOS.org/support - In return for receiving this top quality
  44:../../../FreeRTOS_9_0/Source/portable/GCC/ARM_CM4F/portmacro.h ****     embedded software for free we request you assist our global community by
  45:../../../FreeRTOS_9_0/Source/portable/GCC/ARM_CM4F/portmacro.h ****     participating in the support forum.
  46:../../../FreeRTOS_9_0/Source/portable/GCC/ARM_CM4F/portmacro.h **** 
  47:../../../FreeRTOS_9_0/Source/portable/GCC/ARM_CM4F/portmacro.h ****     http://www.FreeRTOS.org/training - Investing in training allows your team to
  48:../../../FreeRTOS_9_0/Source/portable/GCC/ARM_CM4F/portmacro.h ****     be as productive as possible as early as possible.  Now you can receive
  49:../../../FreeRTOS_9_0/Source/portable/GCC/ARM_CM4F/portmacro.h ****     FreeRTOS training directly from Richard Barry, CEO of Real Time Engineers
  50:../../../FreeRTOS_9_0/Source/portable/GCC/ARM_CM4F/portmacro.h ****     Ltd, and the world's leading authority on the world's leading RTOS.
  51:../../../FreeRTOS_9_0/Source/portable/GCC/ARM_CM4F/portmacro.h **** 
  52:../../../FreeRTOS_9_0/Source/portable/GCC/ARM_CM4F/portmacro.h ****     http://www.FreeRTOS.org/plus - A selection of FreeRTOS ecosystem products,
  53:../../../FreeRTOS_9_0/Source/portable/GCC/ARM_CM4F/portmacro.h ****     including FreeRTOS+Trace - an indispensable productivity tool, a DOS
  54:../../../FreeRTOS_9_0/Source/portable/GCC/ARM_CM4F/portmacro.h ****     compatible FAT file system, and our tiny thread aware UDP/IP stack.
  55:../../../FreeRTOS_9_0/Source/portable/GCC/ARM_CM4F/portmacro.h **** 
  56:../../../FreeRTOS_9_0/Source/portable/GCC/ARM_CM4F/portmacro.h ****     http://www.FreeRTOS.org/labs - Where new FreeRTOS products go to incubate.
  57:../../../FreeRTOS_9_0/Source/portable/GCC/ARM_CM4F/portmacro.h ****     Come and try FreeRTOS+TCP, our new open source TCP/IP stack for FreeRTOS.
  58:../../../FreeRTOS_9_0/Source/portable/GCC/ARM_CM4F/portmacro.h **** 
  59:../../../FreeRTOS_9_0/Source/portable/GCC/ARM_CM4F/portmacro.h ****     http://www.OpenRTOS.com - Real Time Engineers ltd. license FreeRTOS to High
  60:../../../FreeRTOS_9_0/Source/portable/GCC/ARM_CM4F/portmacro.h ****     Integrity Systems ltd. to sell under the OpenRTOS brand.  Low cost OpenRTOS
  61:../../../FreeRTOS_9_0/Source/portable/GCC/ARM_CM4F/portmacro.h ****     licenses offer ticketed support, indemnification and commercial middleware.
  62:../../../FreeRTOS_9_0/Source/portable/GCC/ARM_CM4F/portmacro.h **** 
  63:../../../FreeRTOS_9_0/Source/portable/GCC/ARM_CM4F/portmacro.h ****     http://www.SafeRTOS.com - High Integrity Systems also provide a safety
  64:../../../FreeRTOS_9_0/Source/portable/GCC/ARM_CM4F/portmacro.h ****     engineered and independently SIL3 certified version for use in safety and
  65:../../../FreeRTOS_9_0/Source/portable/GCC/ARM_CM4F/portmacro.h ****     mission critical applications that require provable dependability.
  66:../../../FreeRTOS_9_0/Source/portable/GCC/ARM_CM4F/portmacro.h **** 
  67:../../../FreeRTOS_9_0/Source/portable/GCC/ARM_CM4F/portmacro.h ****     1 tab == 4 spaces!
  68:../../../FreeRTOS_9_0/Source/portable/GCC/ARM_CM4F/portmacro.h **** */
  69:../../../FreeRTOS_9_0/Source/portable/GCC/ARM_CM4F/portmacro.h **** 
  70:../../../FreeRTOS_9_0/Source/portable/GCC/ARM_CM4F/portmacro.h **** 
  71:../../../FreeRTOS_9_0/Source/portable/GCC/ARM_CM4F/portmacro.h **** #ifndef PORTMACRO_H
  72:../../../FreeRTOS_9_0/Source/portable/GCC/ARM_CM4F/portmacro.h **** #define PORTMACRO_H
  73:../../../FreeRTOS_9_0/Source/portable/GCC/ARM_CM4F/portmacro.h **** 
  74:../../../FreeRTOS_9_0/Source/portable/GCC/ARM_CM4F/portmacro.h **** #ifdef __cplusplus
  75:../../../FreeRTOS_9_0/Source/portable/GCC/ARM_CM4F/portmacro.h **** extern "C" {
  76:../../../FreeRTOS_9_0/Source/portable/GCC/ARM_CM4F/portmacro.h **** #endif
  77:../../../FreeRTOS_9_0/Source/portable/GCC/ARM_CM4F/portmacro.h **** 
  78:../../../FreeRTOS_9_0/Source/portable/GCC/ARM_CM4F/portmacro.h **** /*-----------------------------------------------------------
  79:../../../FreeRTOS_9_0/Source/portable/GCC/ARM_CM4F/portmacro.h ****  * Port specific definitions.
  80:../../../FreeRTOS_9_0/Source/portable/GCC/ARM_CM4F/portmacro.h ****  *
  81:../../../FreeRTOS_9_0/Source/portable/GCC/ARM_CM4F/portmacro.h ****  * The settings in this file configure FreeRTOS correctly for the
  82:../../../FreeRTOS_9_0/Source/portable/GCC/ARM_CM4F/portmacro.h ****  * given hardware and compiler.
  83:../../../FreeRTOS_9_0/Source/portable/GCC/ARM_CM4F/portmacro.h ****  *
  84:../../../FreeRTOS_9_0/Source/portable/GCC/ARM_CM4F/portmacro.h ****  * These settings should not be altered.
  85:../../../FreeRTOS_9_0/Source/portable/GCC/ARM_CM4F/portmacro.h ****  *-----------------------------------------------------------
ARM GAS  /tmp/ccfW2k76.s 			page 22


  86:../../../FreeRTOS_9_0/Source/portable/GCC/ARM_CM4F/portmacro.h ****  */
  87:../../../FreeRTOS_9_0/Source/portable/GCC/ARM_CM4F/portmacro.h **** 
  88:../../../FreeRTOS_9_0/Source/portable/GCC/ARM_CM4F/portmacro.h **** /* Type definitions. */
  89:../../../FreeRTOS_9_0/Source/portable/GCC/ARM_CM4F/portmacro.h **** #define portCHAR		char
  90:../../../FreeRTOS_9_0/Source/portable/GCC/ARM_CM4F/portmacro.h **** #define portFLOAT		float
  91:../../../FreeRTOS_9_0/Source/portable/GCC/ARM_CM4F/portmacro.h **** #define portDOUBLE		double
  92:../../../FreeRTOS_9_0/Source/portable/GCC/ARM_CM4F/portmacro.h **** #define portLONG		long
  93:../../../FreeRTOS_9_0/Source/portable/GCC/ARM_CM4F/portmacro.h **** #define portSHORT		short
  94:../../../FreeRTOS_9_0/Source/portable/GCC/ARM_CM4F/portmacro.h **** #define portSTACK_TYPE	uint32_t
  95:../../../FreeRTOS_9_0/Source/portable/GCC/ARM_CM4F/portmacro.h **** #define portBASE_TYPE	long
  96:../../../FreeRTOS_9_0/Source/portable/GCC/ARM_CM4F/portmacro.h **** 
  97:../../../FreeRTOS_9_0/Source/portable/GCC/ARM_CM4F/portmacro.h **** typedef portSTACK_TYPE StackType_t;
  98:../../../FreeRTOS_9_0/Source/portable/GCC/ARM_CM4F/portmacro.h **** typedef long BaseType_t;
  99:../../../FreeRTOS_9_0/Source/portable/GCC/ARM_CM4F/portmacro.h **** typedef unsigned long UBaseType_t;
 100:../../../FreeRTOS_9_0/Source/portable/GCC/ARM_CM4F/portmacro.h **** 
 101:../../../FreeRTOS_9_0/Source/portable/GCC/ARM_CM4F/portmacro.h **** #if( configUSE_16_BIT_TICKS == 1 )
 102:../../../FreeRTOS_9_0/Source/portable/GCC/ARM_CM4F/portmacro.h **** 	typedef uint16_t TickType_t;
 103:../../../FreeRTOS_9_0/Source/portable/GCC/ARM_CM4F/portmacro.h **** 	#define portMAX_DELAY ( TickType_t ) 0xffff
 104:../../../FreeRTOS_9_0/Source/portable/GCC/ARM_CM4F/portmacro.h **** #else
 105:../../../FreeRTOS_9_0/Source/portable/GCC/ARM_CM4F/portmacro.h **** 	typedef uint32_t TickType_t;
 106:../../../FreeRTOS_9_0/Source/portable/GCC/ARM_CM4F/portmacro.h **** 	#define portMAX_DELAY ( TickType_t ) 0xffffffffUL
 107:../../../FreeRTOS_9_0/Source/portable/GCC/ARM_CM4F/portmacro.h **** 
 108:../../../FreeRTOS_9_0/Source/portable/GCC/ARM_CM4F/portmacro.h **** 	/* 32-bit tick type on a 32-bit architecture, so reads of the tick count do
 109:../../../FreeRTOS_9_0/Source/portable/GCC/ARM_CM4F/portmacro.h **** 	not need to be guarded with a critical section. */
 110:../../../FreeRTOS_9_0/Source/portable/GCC/ARM_CM4F/portmacro.h **** 	#define portTICK_TYPE_IS_ATOMIC 1
 111:../../../FreeRTOS_9_0/Source/portable/GCC/ARM_CM4F/portmacro.h **** #endif
 112:../../../FreeRTOS_9_0/Source/portable/GCC/ARM_CM4F/portmacro.h **** /*-----------------------------------------------------------*/
 113:../../../FreeRTOS_9_0/Source/portable/GCC/ARM_CM4F/portmacro.h **** 
 114:../../../FreeRTOS_9_0/Source/portable/GCC/ARM_CM4F/portmacro.h **** /* Architecture specifics. */
 115:../../../FreeRTOS_9_0/Source/portable/GCC/ARM_CM4F/portmacro.h **** #define portSTACK_GROWTH			( -1 )
 116:../../../FreeRTOS_9_0/Source/portable/GCC/ARM_CM4F/portmacro.h **** #define portTICK_PERIOD_MS			( ( TickType_t ) 1000 / configTICK_RATE_HZ )
 117:../../../FreeRTOS_9_0/Source/portable/GCC/ARM_CM4F/portmacro.h **** #define portBYTE_ALIGNMENT			8
 118:../../../FreeRTOS_9_0/Source/portable/GCC/ARM_CM4F/portmacro.h **** /*-----------------------------------------------------------*/
 119:../../../FreeRTOS_9_0/Source/portable/GCC/ARM_CM4F/portmacro.h **** 
 120:../../../FreeRTOS_9_0/Source/portable/GCC/ARM_CM4F/portmacro.h **** /* Scheduler utilities. */
 121:../../../FreeRTOS_9_0/Source/portable/GCC/ARM_CM4F/portmacro.h **** #define portYIELD() 															\
 122:../../../FreeRTOS_9_0/Source/portable/GCC/ARM_CM4F/portmacro.h **** {																				\
 123:../../../FreeRTOS_9_0/Source/portable/GCC/ARM_CM4F/portmacro.h **** 	/* Set a PendSV to request a context switch. */								\
 124:../../../FreeRTOS_9_0/Source/portable/GCC/ARM_CM4F/portmacro.h **** 	portNVIC_INT_CTRL_REG = portNVIC_PENDSVSET_BIT;								\
 125:../../../FreeRTOS_9_0/Source/portable/GCC/ARM_CM4F/portmacro.h **** 																				\
 126:../../../FreeRTOS_9_0/Source/portable/GCC/ARM_CM4F/portmacro.h **** 	/* Barriers are normally not required but do ensure the code is completely	\
 127:../../../FreeRTOS_9_0/Source/portable/GCC/ARM_CM4F/portmacro.h **** 	within the specified behaviour for the architecture. */						\
 128:../../../FreeRTOS_9_0/Source/portable/GCC/ARM_CM4F/portmacro.h **** 	__asm volatile( "dsb" );													\
 129:../../../FreeRTOS_9_0/Source/portable/GCC/ARM_CM4F/portmacro.h **** 	__asm volatile( "isb" );													\
 130:../../../FreeRTOS_9_0/Source/portable/GCC/ARM_CM4F/portmacro.h **** }
 131:../../../FreeRTOS_9_0/Source/portable/GCC/ARM_CM4F/portmacro.h **** 
 132:../../../FreeRTOS_9_0/Source/portable/GCC/ARM_CM4F/portmacro.h **** #define portNVIC_INT_CTRL_REG		( * ( ( volatile uint32_t * ) 0xe000ed04 ) )
 133:../../../FreeRTOS_9_0/Source/portable/GCC/ARM_CM4F/portmacro.h **** #define portNVIC_PENDSVSET_BIT		( 1UL << 28UL )
 134:../../../FreeRTOS_9_0/Source/portable/GCC/ARM_CM4F/portmacro.h **** #define portEND_SWITCHING_ISR( xSwitchRequired ) { if( xSwitchRequired != pdFALSE ) { traceISR_EXIT
 135:../../../FreeRTOS_9_0/Source/portable/GCC/ARM_CM4F/portmacro.h **** #define portYIELD_FROM_ISR( x ) portEND_SWITCHING_ISR( x )
 136:../../../FreeRTOS_9_0/Source/portable/GCC/ARM_CM4F/portmacro.h **** /*-----------------------------------------------------------*/
 137:../../../FreeRTOS_9_0/Source/portable/GCC/ARM_CM4F/portmacro.h **** 
 138:../../../FreeRTOS_9_0/Source/portable/GCC/ARM_CM4F/portmacro.h **** /* Critical section management. */
 139:../../../FreeRTOS_9_0/Source/portable/GCC/ARM_CM4F/portmacro.h **** extern void vPortEnterCritical( void );
 140:../../../FreeRTOS_9_0/Source/portable/GCC/ARM_CM4F/portmacro.h **** extern void vPortExitCritical( void );
 141:../../../FreeRTOS_9_0/Source/portable/GCC/ARM_CM4F/portmacro.h **** #define portSET_INTERRUPT_MASK_FROM_ISR()		ulPortRaiseBASEPRI()
 142:../../../FreeRTOS_9_0/Source/portable/GCC/ARM_CM4F/portmacro.h **** #define portCLEAR_INTERRUPT_MASK_FROM_ISR(x)	vPortSetBASEPRI(x)
ARM GAS  /tmp/ccfW2k76.s 			page 23


 143:../../../FreeRTOS_9_0/Source/portable/GCC/ARM_CM4F/portmacro.h **** #define portDISABLE_INTERRUPTS()				vPortRaiseBASEPRI()
 144:../../../FreeRTOS_9_0/Source/portable/GCC/ARM_CM4F/portmacro.h **** #define portENABLE_INTERRUPTS()					vPortSetBASEPRI(0)
 145:../../../FreeRTOS_9_0/Source/portable/GCC/ARM_CM4F/portmacro.h **** #define portENTER_CRITICAL()					vPortEnterCritical()
 146:../../../FreeRTOS_9_0/Source/portable/GCC/ARM_CM4F/portmacro.h **** #define portEXIT_CRITICAL()						vPortExitCritical()
 147:../../../FreeRTOS_9_0/Source/portable/GCC/ARM_CM4F/portmacro.h **** 
 148:../../../FreeRTOS_9_0/Source/portable/GCC/ARM_CM4F/portmacro.h **** /*-----------------------------------------------------------*/
 149:../../../FreeRTOS_9_0/Source/portable/GCC/ARM_CM4F/portmacro.h **** 
 150:../../../FreeRTOS_9_0/Source/portable/GCC/ARM_CM4F/portmacro.h **** /* Task function macros as described on the FreeRTOS.org WEB site.  These are
 151:../../../FreeRTOS_9_0/Source/portable/GCC/ARM_CM4F/portmacro.h **** not necessary for to use this port.  They are defined so the common demo files
 152:../../../FreeRTOS_9_0/Source/portable/GCC/ARM_CM4F/portmacro.h **** (which build with all the ports) will build. */
 153:../../../FreeRTOS_9_0/Source/portable/GCC/ARM_CM4F/portmacro.h **** #define portTASK_FUNCTION_PROTO( vFunction, pvParameters ) void vFunction( void *pvParameters )
 154:../../../FreeRTOS_9_0/Source/portable/GCC/ARM_CM4F/portmacro.h **** #define portTASK_FUNCTION( vFunction, pvParameters ) void vFunction( void *pvParameters )
 155:../../../FreeRTOS_9_0/Source/portable/GCC/ARM_CM4F/portmacro.h **** /*-----------------------------------------------------------*/
 156:../../../FreeRTOS_9_0/Source/portable/GCC/ARM_CM4F/portmacro.h **** 
 157:../../../FreeRTOS_9_0/Source/portable/GCC/ARM_CM4F/portmacro.h **** /* Tickless idle/low power functionality. */
 158:../../../FreeRTOS_9_0/Source/portable/GCC/ARM_CM4F/portmacro.h **** #ifndef portSUPPRESS_TICKS_AND_SLEEP
 159:../../../FreeRTOS_9_0/Source/portable/GCC/ARM_CM4F/portmacro.h **** 	extern void vPortSuppressTicksAndSleep( TickType_t xExpectedIdleTime );
 160:../../../FreeRTOS_9_0/Source/portable/GCC/ARM_CM4F/portmacro.h **** 	#define portSUPPRESS_TICKS_AND_SLEEP( xExpectedIdleTime ) vPortSuppressTicksAndSleep( xExpectedIdl
 161:../../../FreeRTOS_9_0/Source/portable/GCC/ARM_CM4F/portmacro.h **** #endif
 162:../../../FreeRTOS_9_0/Source/portable/GCC/ARM_CM4F/portmacro.h **** /*-----------------------------------------------------------*/
 163:../../../FreeRTOS_9_0/Source/portable/GCC/ARM_CM4F/portmacro.h **** 
 164:../../../FreeRTOS_9_0/Source/portable/GCC/ARM_CM4F/portmacro.h **** /* Architecture specific optimisations. */
 165:../../../FreeRTOS_9_0/Source/portable/GCC/ARM_CM4F/portmacro.h **** #ifndef configUSE_PORT_OPTIMISED_TASK_SELECTION
 166:../../../FreeRTOS_9_0/Source/portable/GCC/ARM_CM4F/portmacro.h **** 	#define configUSE_PORT_OPTIMISED_TASK_SELECTION 1
 167:../../../FreeRTOS_9_0/Source/portable/GCC/ARM_CM4F/portmacro.h **** #endif
 168:../../../FreeRTOS_9_0/Source/portable/GCC/ARM_CM4F/portmacro.h **** 
 169:../../../FreeRTOS_9_0/Source/portable/GCC/ARM_CM4F/portmacro.h **** #if configUSE_PORT_OPTIMISED_TASK_SELECTION == 1
 170:../../../FreeRTOS_9_0/Source/portable/GCC/ARM_CM4F/portmacro.h **** 
 171:../../../FreeRTOS_9_0/Source/portable/GCC/ARM_CM4F/portmacro.h **** 	/* Generic helper function. */
 172:../../../FreeRTOS_9_0/Source/portable/GCC/ARM_CM4F/portmacro.h **** 	__attribute__( ( always_inline ) ) static inline uint8_t ucPortCountLeadingZeros( uint32_t ulBitma
 173:../../../FreeRTOS_9_0/Source/portable/GCC/ARM_CM4F/portmacro.h **** 	{
 174:../../../FreeRTOS_9_0/Source/portable/GCC/ARM_CM4F/portmacro.h **** 	uint8_t ucReturn;
 175:../../../FreeRTOS_9_0/Source/portable/GCC/ARM_CM4F/portmacro.h **** 
 176:../../../FreeRTOS_9_0/Source/portable/GCC/ARM_CM4F/portmacro.h **** 		__asm volatile ( "clz %0, %1" : "=r" ( ucReturn ) : "r" ( ulBitmap ) );
 177:../../../FreeRTOS_9_0/Source/portable/GCC/ARM_CM4F/portmacro.h **** 		return ucReturn;
 178:../../../FreeRTOS_9_0/Source/portable/GCC/ARM_CM4F/portmacro.h **** 	}
 179:../../../FreeRTOS_9_0/Source/portable/GCC/ARM_CM4F/portmacro.h **** 
 180:../../../FreeRTOS_9_0/Source/portable/GCC/ARM_CM4F/portmacro.h **** 	/* Check the configuration. */
 181:../../../FreeRTOS_9_0/Source/portable/GCC/ARM_CM4F/portmacro.h **** 	#if( configMAX_PRIORITIES > 32 )
 182:../../../FreeRTOS_9_0/Source/portable/GCC/ARM_CM4F/portmacro.h **** 		#error configUSE_PORT_OPTIMISED_TASK_SELECTION can only be set to 1 when configMAX_PRIORITIES is 
 183:../../../FreeRTOS_9_0/Source/portable/GCC/ARM_CM4F/portmacro.h **** 	#endif
 184:../../../FreeRTOS_9_0/Source/portable/GCC/ARM_CM4F/portmacro.h **** 
 185:../../../FreeRTOS_9_0/Source/portable/GCC/ARM_CM4F/portmacro.h **** 	/* Store/clear the ready priorities in a bit map. */
 186:../../../FreeRTOS_9_0/Source/portable/GCC/ARM_CM4F/portmacro.h **** 	#define portRECORD_READY_PRIORITY( uxPriority, uxReadyPriorities ) ( uxReadyPriorities ) |= ( 1UL 
 187:../../../FreeRTOS_9_0/Source/portable/GCC/ARM_CM4F/portmacro.h **** 	#define portRESET_READY_PRIORITY( uxPriority, uxReadyPriorities ) ( uxReadyPriorities ) &= ~( 1UL 
 188:../../../FreeRTOS_9_0/Source/portable/GCC/ARM_CM4F/portmacro.h **** 
 189:../../../FreeRTOS_9_0/Source/portable/GCC/ARM_CM4F/portmacro.h **** 	/*-----------------------------------------------------------*/
 190:../../../FreeRTOS_9_0/Source/portable/GCC/ARM_CM4F/portmacro.h **** 
 191:../../../FreeRTOS_9_0/Source/portable/GCC/ARM_CM4F/portmacro.h **** 	#define portGET_HIGHEST_PRIORITY( uxTopPriority, uxReadyPriorities ) uxTopPriority = ( 31UL - ( ui
 192:../../../FreeRTOS_9_0/Source/portable/GCC/ARM_CM4F/portmacro.h **** 
 193:../../../FreeRTOS_9_0/Source/portable/GCC/ARM_CM4F/portmacro.h **** #endif /* configUSE_PORT_OPTIMISED_TASK_SELECTION */
 194:../../../FreeRTOS_9_0/Source/portable/GCC/ARM_CM4F/portmacro.h **** 
 195:../../../FreeRTOS_9_0/Source/portable/GCC/ARM_CM4F/portmacro.h **** /*-----------------------------------------------------------*/
 196:../../../FreeRTOS_9_0/Source/portable/GCC/ARM_CM4F/portmacro.h **** 
 197:../../../FreeRTOS_9_0/Source/portable/GCC/ARM_CM4F/portmacro.h **** #ifdef configASSERT
 198:../../../FreeRTOS_9_0/Source/portable/GCC/ARM_CM4F/portmacro.h **** 	void vPortValidateInterruptPriority( void );
 199:../../../FreeRTOS_9_0/Source/portable/GCC/ARM_CM4F/portmacro.h **** 	#define portASSERT_IF_INTERRUPT_PRIORITY_INVALID() 	vPortValidateInterruptPriority()
ARM GAS  /tmp/ccfW2k76.s 			page 24


 200:../../../FreeRTOS_9_0/Source/portable/GCC/ARM_CM4F/portmacro.h **** #endif
 201:../../../FreeRTOS_9_0/Source/portable/GCC/ARM_CM4F/portmacro.h **** 
 202:../../../FreeRTOS_9_0/Source/portable/GCC/ARM_CM4F/portmacro.h **** /* portNOP() is not required by this port. */
 203:../../../FreeRTOS_9_0/Source/portable/GCC/ARM_CM4F/portmacro.h **** #define portNOP()
 204:../../../FreeRTOS_9_0/Source/portable/GCC/ARM_CM4F/portmacro.h **** 
 205:../../../FreeRTOS_9_0/Source/portable/GCC/ARM_CM4F/portmacro.h **** #define portINLINE	__inline
 206:../../../FreeRTOS_9_0/Source/portable/GCC/ARM_CM4F/portmacro.h **** 
 207:../../../FreeRTOS_9_0/Source/portable/GCC/ARM_CM4F/portmacro.h **** #ifndef portFORCE_INLINE
 208:../../../FreeRTOS_9_0/Source/portable/GCC/ARM_CM4F/portmacro.h **** 	#define portFORCE_INLINE inline __attribute__(( always_inline))
 209:../../../FreeRTOS_9_0/Source/portable/GCC/ARM_CM4F/portmacro.h **** #endif
 210:../../../FreeRTOS_9_0/Source/portable/GCC/ARM_CM4F/portmacro.h **** 
 211:../../../FreeRTOS_9_0/Source/portable/GCC/ARM_CM4F/portmacro.h **** portFORCE_INLINE static BaseType_t xPortIsInsideInterrupt( void )
 212:../../../FreeRTOS_9_0/Source/portable/GCC/ARM_CM4F/portmacro.h **** {
 213:../../../FreeRTOS_9_0/Source/portable/GCC/ARM_CM4F/portmacro.h **** uint32_t ulCurrentInterrupt;
 214:../../../FreeRTOS_9_0/Source/portable/GCC/ARM_CM4F/portmacro.h **** BaseType_t xReturn;
 215:../../../FreeRTOS_9_0/Source/portable/GCC/ARM_CM4F/portmacro.h **** 
 216:../../../FreeRTOS_9_0/Source/portable/GCC/ARM_CM4F/portmacro.h **** 	/* Obtain the number of the currently executing interrupt. */
 217:../../../FreeRTOS_9_0/Source/portable/GCC/ARM_CM4F/portmacro.h **** 	__asm volatile( "mrs %0, ipsr" : "=r"( ulCurrentInterrupt ) );
 218:../../../FreeRTOS_9_0/Source/portable/GCC/ARM_CM4F/portmacro.h **** 
 219:../../../FreeRTOS_9_0/Source/portable/GCC/ARM_CM4F/portmacro.h **** 	if( ulCurrentInterrupt == 0 )
 220:../../../FreeRTOS_9_0/Source/portable/GCC/ARM_CM4F/portmacro.h **** 	{
 221:../../../FreeRTOS_9_0/Source/portable/GCC/ARM_CM4F/portmacro.h **** 		xReturn = pdFALSE;
 222:../../../FreeRTOS_9_0/Source/portable/GCC/ARM_CM4F/portmacro.h **** 	}
 223:../../../FreeRTOS_9_0/Source/portable/GCC/ARM_CM4F/portmacro.h **** 	else
 224:../../../FreeRTOS_9_0/Source/portable/GCC/ARM_CM4F/portmacro.h **** 	{
 225:../../../FreeRTOS_9_0/Source/portable/GCC/ARM_CM4F/portmacro.h **** 		xReturn = pdTRUE;
 226:../../../FreeRTOS_9_0/Source/portable/GCC/ARM_CM4F/portmacro.h **** 	}
 227:../../../FreeRTOS_9_0/Source/portable/GCC/ARM_CM4F/portmacro.h **** 
 228:../../../FreeRTOS_9_0/Source/portable/GCC/ARM_CM4F/portmacro.h **** 	return xReturn;
 229:../../../FreeRTOS_9_0/Source/portable/GCC/ARM_CM4F/portmacro.h **** }
 230:../../../FreeRTOS_9_0/Source/portable/GCC/ARM_CM4F/portmacro.h **** 
 231:../../../FreeRTOS_9_0/Source/portable/GCC/ARM_CM4F/portmacro.h **** /*-----------------------------------------------------------*/
 232:../../../FreeRTOS_9_0/Source/portable/GCC/ARM_CM4F/portmacro.h **** 
 233:../../../FreeRTOS_9_0/Source/portable/GCC/ARM_CM4F/portmacro.h **** portFORCE_INLINE static void vPortRaiseBASEPRI( void )
 234:../../../FreeRTOS_9_0/Source/portable/GCC/ARM_CM4F/portmacro.h **** {
 235:../../../FreeRTOS_9_0/Source/portable/GCC/ARM_CM4F/portmacro.h **** uint32_t ulNewBASEPRI;
 236:../../../FreeRTOS_9_0/Source/portable/GCC/ARM_CM4F/portmacro.h **** 
 237:../../../FreeRTOS_9_0/Source/portable/GCC/ARM_CM4F/portmacro.h **** 	__asm volatile
 312              		.loc 2 237 0 discriminator 1
 313              	@ 237 "../../../FreeRTOS_9_0/Source/portable/GCC/ARM_CM4F/portmacro.h" 1
 314 0044 4FF05003 			mov r3, #80												
 315 0048 83F31188 		msr basepri, r3											
 316 004c BFF36F8F 		isb														
 317 0050 BFF34F8F 		dsb														
 318              	
 319              	@ 0 "" 2
 320              		.thumb
 321 0054 7B61     		str	r3, [r7, #20]
 322              	.L11:
 323              	.LBE94:
 324              	.LBE93:
 325              		.loc 1 822 0 discriminator 1
 326 0056 FEE7     		b	.L11
 327              	.L10:
 823:../../../FreeRTOS_9_0/Source/tasks.c **** 	}
 824:../../../FreeRTOS_9_0/Source/tasks.c **** 	#else /* portSTACK_GROWTH */
 825:../../../FreeRTOS_9_0/Source/tasks.c **** 	{
ARM GAS  /tmp/ccfW2k76.s 			page 25


 826:../../../FreeRTOS_9_0/Source/tasks.c **** 		pxTopOfStack = pxNewTCB->pxStack;
 827:../../../FreeRTOS_9_0/Source/tasks.c **** 
 828:../../../FreeRTOS_9_0/Source/tasks.c **** 		/* Check the alignment of the stack buffer is correct. */
 829:../../../FreeRTOS_9_0/Source/tasks.c **** 		configASSERT( ( ( ( portPOINTER_SIZE_TYPE ) pxNewTCB->pxStack & ( portPOINTER_SIZE_TYPE ) portBYT
 830:../../../FreeRTOS_9_0/Source/tasks.c **** 
 831:../../../FreeRTOS_9_0/Source/tasks.c **** 		/* The other extreme of the stack space is required if stack checking is
 832:../../../FreeRTOS_9_0/Source/tasks.c **** 		performed. */
 833:../../../FreeRTOS_9_0/Source/tasks.c **** 		pxNewTCB->pxEndOfStack = pxNewTCB->pxStack + ( ulStackDepth - ( uint32_t ) 1 );
 834:../../../FreeRTOS_9_0/Source/tasks.c **** 	}
 835:../../../FreeRTOS_9_0/Source/tasks.c **** 	#endif /* portSTACK_GROWTH */
 836:../../../FreeRTOS_9_0/Source/tasks.c **** 
 837:../../../FreeRTOS_9_0/Source/tasks.c **** 	/* Store the task name in the TCB. */
 838:../../../FreeRTOS_9_0/Source/tasks.c **** 	for( x = ( UBaseType_t ) 0; x < ( UBaseType_t ) configMAX_TASK_NAME_LEN; x++ )
 328              		.loc 1 838 0
 329 0058 0023     		movs	r3, #0
 330 005a FB61     		str	r3, [r7, #28]
 331 005c 13E0     		b	.L12
 332              	.L15:
 839:../../../FreeRTOS_9_0/Source/tasks.c **** 	{
 840:../../../FreeRTOS_9_0/Source/tasks.c **** 		pxNewTCB->pcTaskName[ x ] = pcName[ x ];
 333              		.loc 1 840 0
 334 005e BA68     		ldr	r2, [r7, #8]
 335 0060 FB69     		ldr	r3, [r7, #28]
 336 0062 1344     		add	r3, r3, r2
 337 0064 1978     		ldrb	r1, [r3]	@ zero_extendqisi2
 338 0066 3A6B     		ldr	r2, [r7, #48]
 339 0068 FB69     		ldr	r3, [r7, #28]
 340 006a 1344     		add	r3, r3, r2
 341 006c 3033     		adds	r3, r3, #48
 342 006e 0A46     		mov	r2, r1
 343 0070 1A71     		strb	r2, [r3, #4]
 841:../../../FreeRTOS_9_0/Source/tasks.c **** 
 842:../../../FreeRTOS_9_0/Source/tasks.c **** 		/* Don't copy all configMAX_TASK_NAME_LEN if the string is shorter than
 843:../../../FreeRTOS_9_0/Source/tasks.c **** 		configMAX_TASK_NAME_LEN characters just in case the memory after the
 844:../../../FreeRTOS_9_0/Source/tasks.c **** 		string is not accessible (extremely unlikely). */
 845:../../../FreeRTOS_9_0/Source/tasks.c **** 		if( pcName[ x ] == 0x00 )
 344              		.loc 1 845 0
 345 0072 BA68     		ldr	r2, [r7, #8]
 346 0074 FB69     		ldr	r3, [r7, #28]
 347 0076 1344     		add	r3, r3, r2
 348 0078 1B78     		ldrb	r3, [r3]	@ zero_extendqisi2
 349 007a 002B     		cmp	r3, #0
 350 007c 00D1     		bne	.L13
 846:../../../FreeRTOS_9_0/Source/tasks.c **** 		{
 847:../../../FreeRTOS_9_0/Source/tasks.c **** 			break;
 351              		.loc 1 847 0
 352 007e 05E0     		b	.L14
 353              	.L13:
 838:../../../FreeRTOS_9_0/Source/tasks.c **** 	{
 354              		.loc 1 838 0 discriminator 2
 355 0080 FB69     		ldr	r3, [r7, #28]
 356 0082 0133     		adds	r3, r3, #1
 357 0084 FB61     		str	r3, [r7, #28]
 358              	.L12:
 838:../../../FreeRTOS_9_0/Source/tasks.c **** 	{
 359              		.loc 1 838 0 is_stmt 0 discriminator 1
 360 0086 FB69     		ldr	r3, [r7, #28]
ARM GAS  /tmp/ccfW2k76.s 			page 26


 361 0088 0F2B     		cmp	r3, #15
 362 008a E8D9     		bls	.L15
 363              	.L14:
 848:../../../FreeRTOS_9_0/Source/tasks.c **** 		}
 849:../../../FreeRTOS_9_0/Source/tasks.c **** 		else
 850:../../../FreeRTOS_9_0/Source/tasks.c **** 		{
 851:../../../FreeRTOS_9_0/Source/tasks.c **** 			mtCOVERAGE_TEST_MARKER();
 852:../../../FreeRTOS_9_0/Source/tasks.c **** 		}
 853:../../../FreeRTOS_9_0/Source/tasks.c **** 	}
 854:../../../FreeRTOS_9_0/Source/tasks.c **** 
 855:../../../FreeRTOS_9_0/Source/tasks.c **** 	/* Ensure the name string is terminated in the case that the string length
 856:../../../FreeRTOS_9_0/Source/tasks.c **** 	was greater or equal to configMAX_TASK_NAME_LEN. */
 857:../../../FreeRTOS_9_0/Source/tasks.c **** 	pxNewTCB->pcTaskName[ configMAX_TASK_NAME_LEN - 1 ] = '\0';
 364              		.loc 1 857 0 is_stmt 1
 365 008c 3B6B     		ldr	r3, [r7, #48]
 366 008e 0022     		movs	r2, #0
 367 0090 83F84320 		strb	r2, [r3, #67]
 858:../../../FreeRTOS_9_0/Source/tasks.c **** 
 859:../../../FreeRTOS_9_0/Source/tasks.c **** 	/* This is used as an array index so must ensure it's not too large.  First
 860:../../../FreeRTOS_9_0/Source/tasks.c **** 	remove the privilege bit if one is present. */
 861:../../../FreeRTOS_9_0/Source/tasks.c **** 	if( uxPriority >= ( UBaseType_t ) configMAX_PRIORITIES )
 368              		.loc 1 861 0
 369 0094 BB6A     		ldr	r3, [r7, #40]
 370 0096 062B     		cmp	r3, #6
 371 0098 01D9     		bls	.L16
 862:../../../FreeRTOS_9_0/Source/tasks.c **** 	{
 863:../../../FreeRTOS_9_0/Source/tasks.c **** 		uxPriority = ( UBaseType_t ) configMAX_PRIORITIES - ( UBaseType_t ) 1U;
 372              		.loc 1 863 0
 373 009a 0623     		movs	r3, #6
 374 009c BB62     		str	r3, [r7, #40]
 375              	.L16:
 864:../../../FreeRTOS_9_0/Source/tasks.c **** 	}
 865:../../../FreeRTOS_9_0/Source/tasks.c **** 	else
 866:../../../FreeRTOS_9_0/Source/tasks.c **** 	{
 867:../../../FreeRTOS_9_0/Source/tasks.c **** 		mtCOVERAGE_TEST_MARKER();
 868:../../../FreeRTOS_9_0/Source/tasks.c **** 	}
 869:../../../FreeRTOS_9_0/Source/tasks.c **** 
 870:../../../FreeRTOS_9_0/Source/tasks.c **** 	pxNewTCB->uxPriority = uxPriority;
 376              		.loc 1 870 0
 377 009e 3B6B     		ldr	r3, [r7, #48]
 378 00a0 BA6A     		ldr	r2, [r7, #40]
 379 00a2 DA62     		str	r2, [r3, #44]
 871:../../../FreeRTOS_9_0/Source/tasks.c **** 	#if ( configUSE_MUTEXES == 1 )
 872:../../../FreeRTOS_9_0/Source/tasks.c **** 	{
 873:../../../FreeRTOS_9_0/Source/tasks.c **** 		pxNewTCB->uxBasePriority = uxPriority;
 380              		.loc 1 873 0
 381 00a4 3B6B     		ldr	r3, [r7, #48]
 382 00a6 BA6A     		ldr	r2, [r7, #40]
 383 00a8 DA64     		str	r2, [r3, #76]
 874:../../../FreeRTOS_9_0/Source/tasks.c **** 		pxNewTCB->uxMutexesHeld = 0;
 384              		.loc 1 874 0
 385 00aa 3B6B     		ldr	r3, [r7, #48]
 386 00ac 0022     		movs	r2, #0
 387 00ae 1A65     		str	r2, [r3, #80]
 875:../../../FreeRTOS_9_0/Source/tasks.c **** 	}
 876:../../../FreeRTOS_9_0/Source/tasks.c **** 	#endif /* configUSE_MUTEXES */
 877:../../../FreeRTOS_9_0/Source/tasks.c **** 
ARM GAS  /tmp/ccfW2k76.s 			page 27


 878:../../../FreeRTOS_9_0/Source/tasks.c **** 	vListInitialiseItem( &( pxNewTCB->xStateListItem ) );
 388              		.loc 1 878 0
 389 00b0 3B6B     		ldr	r3, [r7, #48]
 390 00b2 0433     		adds	r3, r3, #4
 391 00b4 1846     		mov	r0, r3
 392 00b6 FFF7FEFF 		bl	vListInitialiseItem
 879:../../../FreeRTOS_9_0/Source/tasks.c **** 	vListInitialiseItem( &( pxNewTCB->xEventListItem ) );
 393              		.loc 1 879 0
 394 00ba 3B6B     		ldr	r3, [r7, #48]
 395 00bc 1833     		adds	r3, r3, #24
 396 00be 1846     		mov	r0, r3
 397 00c0 FFF7FEFF 		bl	vListInitialiseItem
 880:../../../FreeRTOS_9_0/Source/tasks.c **** 
 881:../../../FreeRTOS_9_0/Source/tasks.c **** 	/* Set the pxNewTCB as a link back from the ListItem_t.  This is so we can get
 882:../../../FreeRTOS_9_0/Source/tasks.c **** 	back to	the containing TCB from a generic item in a list. */
 883:../../../FreeRTOS_9_0/Source/tasks.c **** 	listSET_LIST_ITEM_OWNER( &( pxNewTCB->xStateListItem ), pxNewTCB );
 398              		.loc 1 883 0
 399 00c4 3B6B     		ldr	r3, [r7, #48]
 400 00c6 3A6B     		ldr	r2, [r7, #48]
 401 00c8 1A61     		str	r2, [r3, #16]
 884:../../../FreeRTOS_9_0/Source/tasks.c **** 
 885:../../../FreeRTOS_9_0/Source/tasks.c **** 	/* Event lists are always in priority order. */
 886:../../../FreeRTOS_9_0/Source/tasks.c **** 	listSET_LIST_ITEM_VALUE( &( pxNewTCB->xEventListItem ), ( TickType_t ) configMAX_PRIORITIES - ( Ti
 402              		.loc 1 886 0
 403 00ca BB6A     		ldr	r3, [r7, #40]
 404 00cc C3F10702 		rsb	r2, r3, #7
 405 00d0 3B6B     		ldr	r3, [r7, #48]
 406 00d2 9A61     		str	r2, [r3, #24]
 887:../../../FreeRTOS_9_0/Source/tasks.c **** 	listSET_LIST_ITEM_OWNER( &( pxNewTCB->xEventListItem ), pxNewTCB );
 407              		.loc 1 887 0
 408 00d4 3B6B     		ldr	r3, [r7, #48]
 409 00d6 3A6B     		ldr	r2, [r7, #48]
 410 00d8 5A62     		str	r2, [r3, #36]
 888:../../../FreeRTOS_9_0/Source/tasks.c **** 
 889:../../../FreeRTOS_9_0/Source/tasks.c **** 	#if ( portCRITICAL_NESTING_IN_TCB == 1 )
 890:../../../FreeRTOS_9_0/Source/tasks.c **** 	{
 891:../../../FreeRTOS_9_0/Source/tasks.c **** 		pxNewTCB->uxCriticalNesting = ( UBaseType_t ) 0U;
 892:../../../FreeRTOS_9_0/Source/tasks.c **** 	}
 893:../../../FreeRTOS_9_0/Source/tasks.c **** 	#endif /* portCRITICAL_NESTING_IN_TCB */
 894:../../../FreeRTOS_9_0/Source/tasks.c **** 
 895:../../../FreeRTOS_9_0/Source/tasks.c **** 	#if ( configUSE_APPLICATION_TASK_TAG == 1 )
 896:../../../FreeRTOS_9_0/Source/tasks.c **** 	{
 897:../../../FreeRTOS_9_0/Source/tasks.c **** 		pxNewTCB->pxTaskTag = NULL;
 898:../../../FreeRTOS_9_0/Source/tasks.c **** 	}
 899:../../../FreeRTOS_9_0/Source/tasks.c **** 	#endif /* configUSE_APPLICATION_TASK_TAG */
 900:../../../FreeRTOS_9_0/Source/tasks.c **** 
 901:../../../FreeRTOS_9_0/Source/tasks.c **** 	#if ( configGENERATE_RUN_TIME_STATS == 1 )
 902:../../../FreeRTOS_9_0/Source/tasks.c **** 	{
 903:../../../FreeRTOS_9_0/Source/tasks.c **** 		pxNewTCB->ulRunTimeCounter = 0UL;
 904:../../../FreeRTOS_9_0/Source/tasks.c **** 	}
 905:../../../FreeRTOS_9_0/Source/tasks.c **** 	#endif /* configGENERATE_RUN_TIME_STATS */
 906:../../../FreeRTOS_9_0/Source/tasks.c **** 
 907:../../../FreeRTOS_9_0/Source/tasks.c **** 	#if ( portUSING_MPU_WRAPPERS == 1 )
 908:../../../FreeRTOS_9_0/Source/tasks.c **** 	{
 909:../../../FreeRTOS_9_0/Source/tasks.c **** 		vPortStoreTaskMPUSettings( &( pxNewTCB->xMPUSettings ), xRegions, pxNewTCB->pxStack, ulStackDepth
 910:../../../FreeRTOS_9_0/Source/tasks.c **** 	}
 911:../../../FreeRTOS_9_0/Source/tasks.c **** 	#else
ARM GAS  /tmp/ccfW2k76.s 			page 28


 912:../../../FreeRTOS_9_0/Source/tasks.c **** 	{
 913:../../../FreeRTOS_9_0/Source/tasks.c **** 		/* Avoid compiler warning about unreferenced parameter. */
 914:../../../FreeRTOS_9_0/Source/tasks.c **** 		( void ) xRegions;
 915:../../../FreeRTOS_9_0/Source/tasks.c **** 	}
 916:../../../FreeRTOS_9_0/Source/tasks.c **** 	#endif
 917:../../../FreeRTOS_9_0/Source/tasks.c **** 
 918:../../../FreeRTOS_9_0/Source/tasks.c **** 	#if( configNUM_THREAD_LOCAL_STORAGE_POINTERS != 0 )
 919:../../../FreeRTOS_9_0/Source/tasks.c **** 	{
 920:../../../FreeRTOS_9_0/Source/tasks.c **** 		for( x = 0; x < ( UBaseType_t ) configNUM_THREAD_LOCAL_STORAGE_POINTERS; x++ )
 921:../../../FreeRTOS_9_0/Source/tasks.c **** 		{
 922:../../../FreeRTOS_9_0/Source/tasks.c **** 			pxNewTCB->pvThreadLocalStoragePointers[ x ] = NULL;
 923:../../../FreeRTOS_9_0/Source/tasks.c **** 		}
 924:../../../FreeRTOS_9_0/Source/tasks.c **** 	}
 925:../../../FreeRTOS_9_0/Source/tasks.c **** 	#endif
 926:../../../FreeRTOS_9_0/Source/tasks.c **** 
 927:../../../FreeRTOS_9_0/Source/tasks.c **** 	#if ( configUSE_TASK_NOTIFICATIONS == 1 )
 928:../../../FreeRTOS_9_0/Source/tasks.c **** 	{
 929:../../../FreeRTOS_9_0/Source/tasks.c **** 		pxNewTCB->ulNotifiedValue = 0;
 411              		.loc 1 929 0
 412 00da 3B6B     		ldr	r3, [r7, #48]
 413 00dc 0022     		movs	r2, #0
 414 00de 5A65     		str	r2, [r3, #84]
 930:../../../FreeRTOS_9_0/Source/tasks.c **** 		pxNewTCB->ucNotifyState = taskNOT_WAITING_NOTIFICATION;
 415              		.loc 1 930 0
 416 00e0 3B6B     		ldr	r3, [r7, #48]
 417 00e2 0022     		movs	r2, #0
 418 00e4 83F85820 		strb	r2, [r3, #88]
 931:../../../FreeRTOS_9_0/Source/tasks.c **** 	}
 932:../../../FreeRTOS_9_0/Source/tasks.c **** 	#endif
 933:../../../FreeRTOS_9_0/Source/tasks.c **** 
 934:../../../FreeRTOS_9_0/Source/tasks.c **** 	#if ( configUSE_NEWLIB_REENTRANT == 1 )
 935:../../../FreeRTOS_9_0/Source/tasks.c **** 	{
 936:../../../FreeRTOS_9_0/Source/tasks.c **** 		/* Initialise this task's Newlib reent structure. */
 937:../../../FreeRTOS_9_0/Source/tasks.c **** 		_REENT_INIT_PTR( ( &( pxNewTCB->xNewLib_reent ) ) );
 938:../../../FreeRTOS_9_0/Source/tasks.c **** 	}
 939:../../../FreeRTOS_9_0/Source/tasks.c **** 	#endif
 940:../../../FreeRTOS_9_0/Source/tasks.c **** 
 941:../../../FreeRTOS_9_0/Source/tasks.c **** 	#if( INCLUDE_xTaskAbortDelay == 1 )
 942:../../../FreeRTOS_9_0/Source/tasks.c **** 	{
 943:../../../FreeRTOS_9_0/Source/tasks.c **** 		pxNewTCB->ucDelayAborted = pdFALSE;
 944:../../../FreeRTOS_9_0/Source/tasks.c **** 	}
 945:../../../FreeRTOS_9_0/Source/tasks.c **** 	#endif
 946:../../../FreeRTOS_9_0/Source/tasks.c **** 
 947:../../../FreeRTOS_9_0/Source/tasks.c **** 	/* Initialize the TCB stack to look as if the task was already running,
 948:../../../FreeRTOS_9_0/Source/tasks.c **** 	but had been interrupted by the scheduler.  The return address is set
 949:../../../FreeRTOS_9_0/Source/tasks.c **** 	to the start of the task function. Once the stack has been initialised
 950:../../../FreeRTOS_9_0/Source/tasks.c **** 	the	top of stack variable is updated. */
 951:../../../FreeRTOS_9_0/Source/tasks.c **** 	#if( portUSING_MPU_WRAPPERS == 1 )
 952:../../../FreeRTOS_9_0/Source/tasks.c **** 	{
 953:../../../FreeRTOS_9_0/Source/tasks.c **** 		pxNewTCB->pxTopOfStack = pxPortInitialiseStack( pxTopOfStack, pxTaskCode, pvParameters, xRunPrivi
 954:../../../FreeRTOS_9_0/Source/tasks.c **** 	}
 955:../../../FreeRTOS_9_0/Source/tasks.c **** 	#else /* portUSING_MPU_WRAPPERS */
 956:../../../FreeRTOS_9_0/Source/tasks.c **** 	{
 957:../../../FreeRTOS_9_0/Source/tasks.c **** 		pxNewTCB->pxTopOfStack = pxPortInitialiseStack( pxTopOfStack, pxTaskCode, pvParameters );
 419              		.loc 1 957 0
 420 00e8 B869     		ldr	r0, [r7, #24]
 421 00ea F968     		ldr	r1, [r7, #12]
ARM GAS  /tmp/ccfW2k76.s 			page 29


 422 00ec 3A68     		ldr	r2, [r7]
 423 00ee FFF7FEFF 		bl	pxPortInitialiseStack
 424 00f2 0246     		mov	r2, r0
 425 00f4 3B6B     		ldr	r3, [r7, #48]
 426 00f6 1A60     		str	r2, [r3]
 958:../../../FreeRTOS_9_0/Source/tasks.c **** 	}
 959:../../../FreeRTOS_9_0/Source/tasks.c **** 	#endif /* portUSING_MPU_WRAPPERS */
 960:../../../FreeRTOS_9_0/Source/tasks.c **** 
 961:../../../FreeRTOS_9_0/Source/tasks.c **** 	if( ( void * ) pxCreatedTask != NULL )
 427              		.loc 1 961 0
 428 00f8 FB6A     		ldr	r3, [r7, #44]
 429 00fa 002B     		cmp	r3, #0
 430 00fc 02D0     		beq	.L9
 962:../../../FreeRTOS_9_0/Source/tasks.c **** 	{
 963:../../../FreeRTOS_9_0/Source/tasks.c **** 		/* Pass the handle out in an anonymous way.  The handle can be used to
 964:../../../FreeRTOS_9_0/Source/tasks.c **** 		change the created task's priority, delete the created task, etc.*/
 965:../../../FreeRTOS_9_0/Source/tasks.c **** 		*pxCreatedTask = ( TaskHandle_t ) pxNewTCB;
 431              		.loc 1 965 0
 432 00fe FB6A     		ldr	r3, [r7, #44]
 433 0100 3A6B     		ldr	r2, [r7, #48]
 434 0102 1A60     		str	r2, [r3]
 435              	.L9:
 966:../../../FreeRTOS_9_0/Source/tasks.c **** 	}
 967:../../../FreeRTOS_9_0/Source/tasks.c **** 	else
 968:../../../FreeRTOS_9_0/Source/tasks.c **** 	{
 969:../../../FreeRTOS_9_0/Source/tasks.c **** 		mtCOVERAGE_TEST_MARKER();
 970:../../../FreeRTOS_9_0/Source/tasks.c **** 	}
 971:../../../FreeRTOS_9_0/Source/tasks.c **** }
 436              		.loc 1 971 0
 437 0104 2037     		adds	r7, r7, #32
 438              	.LCFI8:
 439              		.cfi_def_cfa_offset 8
 440 0106 BD46     		mov	sp, r7
 441              	.LCFI9:
 442              		.cfi_def_cfa_register 13
 443              		@ sp needed
 444 0108 80BD     		pop	{r7, pc}
 445              		.cfi_endproc
 446              	.LFE6:
 448 010a 00BF     		.section	.text.prvAddNewTaskToReadyList,"ax",%progbits
 449              		.align	2
 450              		.thumb
 451              		.thumb_func
 453              	prvAddNewTaskToReadyList:
 454              	.LFB7:
 972:../../../FreeRTOS_9_0/Source/tasks.c **** /*-----------------------------------------------------------*/
 973:../../../FreeRTOS_9_0/Source/tasks.c **** 
 974:../../../FreeRTOS_9_0/Source/tasks.c **** static void prvAddNewTaskToReadyList( TCB_t *pxNewTCB )
 975:../../../FreeRTOS_9_0/Source/tasks.c **** {
 455              		.loc 1 975 0
 456              		.cfi_startproc
 457              		@ args = 0, pretend = 0, frame = 8
 458              		@ frame_needed = 1, uses_anonymous_args = 0
 459 0000 80B5     		push	{r7, lr}
 460              	.LCFI10:
 461              		.cfi_def_cfa_offset 8
 462              		.cfi_offset 7, -8
ARM GAS  /tmp/ccfW2k76.s 			page 30


 463              		.cfi_offset 14, -4
 464 0002 82B0     		sub	sp, sp, #8
 465              	.LCFI11:
 466              		.cfi_def_cfa_offset 16
 467 0004 00AF     		add	r7, sp, #0
 468              	.LCFI12:
 469              		.cfi_def_cfa_register 7
 470 0006 7860     		str	r0, [r7, #4]
 976:../../../FreeRTOS_9_0/Source/tasks.c **** 	/* Ensure interrupts don't access the task lists while the lists are being
 977:../../../FreeRTOS_9_0/Source/tasks.c **** 	updated. */
 978:../../../FreeRTOS_9_0/Source/tasks.c **** 	taskENTER_CRITICAL();
 471              		.loc 1 978 0
 472 0008 FFF7FEFF 		bl	vPortEnterCritical
 979:../../../FreeRTOS_9_0/Source/tasks.c **** 	{
 980:../../../FreeRTOS_9_0/Source/tasks.c **** 		uxCurrentNumberOfTasks++;
 473              		.loc 1 980 0
 474 000c 2D4B     		ldr	r3, .L22
 475 000e 1B68     		ldr	r3, [r3]
 476 0010 0133     		adds	r3, r3, #1
 477 0012 2C4A     		ldr	r2, .L22
 478 0014 1360     		str	r3, [r2]
 981:../../../FreeRTOS_9_0/Source/tasks.c **** 		if( pxCurrentTCB == NULL )
 479              		.loc 1 981 0
 480 0016 2C4B     		ldr	r3, .L22+4
 481 0018 1B68     		ldr	r3, [r3]
 482 001a 002B     		cmp	r3, #0
 483 001c 09D1     		bne	.L19
 982:../../../FreeRTOS_9_0/Source/tasks.c **** 		{
 983:../../../FreeRTOS_9_0/Source/tasks.c **** 			/* There are no other tasks, or all the other tasks are in
 984:../../../FreeRTOS_9_0/Source/tasks.c **** 			the suspended state - make this the current task. */
 985:../../../FreeRTOS_9_0/Source/tasks.c **** 			pxCurrentTCB = pxNewTCB;
 484              		.loc 1 985 0
 485 001e 2A4A     		ldr	r2, .L22+4
 486 0020 7B68     		ldr	r3, [r7, #4]
 487 0022 1360     		str	r3, [r2]
 986:../../../FreeRTOS_9_0/Source/tasks.c **** 
 987:../../../FreeRTOS_9_0/Source/tasks.c **** 			if( uxCurrentNumberOfTasks == ( UBaseType_t ) 1 )
 488              		.loc 1 987 0
 489 0024 274B     		ldr	r3, .L22
 490 0026 1B68     		ldr	r3, [r3]
 491 0028 012B     		cmp	r3, #1
 492 002a 10D1     		bne	.L20
 988:../../../FreeRTOS_9_0/Source/tasks.c **** 			{
 989:../../../FreeRTOS_9_0/Source/tasks.c **** 				/* This is the first task to be created so do the preliminary
 990:../../../FreeRTOS_9_0/Source/tasks.c **** 				initialisation required.  We will not recover if this call
 991:../../../FreeRTOS_9_0/Source/tasks.c **** 				fails, but we will report the failure. */
 992:../../../FreeRTOS_9_0/Source/tasks.c **** 				prvInitialiseTaskLists();
 493              		.loc 1 992 0
 494 002c FFF7FEFF 		bl	prvInitialiseTaskLists
 495 0030 0DE0     		b	.L20
 496              	.L19:
 993:../../../FreeRTOS_9_0/Source/tasks.c **** 			}
 994:../../../FreeRTOS_9_0/Source/tasks.c **** 			else
 995:../../../FreeRTOS_9_0/Source/tasks.c **** 			{
 996:../../../FreeRTOS_9_0/Source/tasks.c **** 				mtCOVERAGE_TEST_MARKER();
 997:../../../FreeRTOS_9_0/Source/tasks.c **** 			}
 998:../../../FreeRTOS_9_0/Source/tasks.c **** 		}
ARM GAS  /tmp/ccfW2k76.s 			page 31


 999:../../../FreeRTOS_9_0/Source/tasks.c **** 		else
1000:../../../FreeRTOS_9_0/Source/tasks.c **** 		{
1001:../../../FreeRTOS_9_0/Source/tasks.c **** 			/* If the scheduler is not already running, make this task the
1002:../../../FreeRTOS_9_0/Source/tasks.c **** 			current task if it is the highest priority task to be created
1003:../../../FreeRTOS_9_0/Source/tasks.c **** 			so far. */
1004:../../../FreeRTOS_9_0/Source/tasks.c **** 			if( xSchedulerRunning == pdFALSE )
 497              		.loc 1 1004 0
 498 0032 264B     		ldr	r3, .L22+8
 499 0034 1B68     		ldr	r3, [r3]
 500 0036 002B     		cmp	r3, #0
 501 0038 09D1     		bne	.L20
1005:../../../FreeRTOS_9_0/Source/tasks.c **** 			{
1006:../../../FreeRTOS_9_0/Source/tasks.c **** 				if( pxCurrentTCB->uxPriority <= pxNewTCB->uxPriority )
 502              		.loc 1 1006 0
 503 003a 234B     		ldr	r3, .L22+4
 504 003c 1B68     		ldr	r3, [r3]
 505 003e DA6A     		ldr	r2, [r3, #44]
 506 0040 7B68     		ldr	r3, [r7, #4]
 507 0042 DB6A     		ldr	r3, [r3, #44]
 508 0044 9A42     		cmp	r2, r3
 509 0046 02D8     		bhi	.L20
1007:../../../FreeRTOS_9_0/Source/tasks.c **** 				{
1008:../../../FreeRTOS_9_0/Source/tasks.c **** 					pxCurrentTCB = pxNewTCB;
 510              		.loc 1 1008 0
 511 0048 1F4A     		ldr	r2, .L22+4
 512 004a 7B68     		ldr	r3, [r7, #4]
 513 004c 1360     		str	r3, [r2]
 514              	.L20:
1009:../../../FreeRTOS_9_0/Source/tasks.c **** 				}
1010:../../../FreeRTOS_9_0/Source/tasks.c **** 				else
1011:../../../FreeRTOS_9_0/Source/tasks.c **** 				{
1012:../../../FreeRTOS_9_0/Source/tasks.c **** 					mtCOVERAGE_TEST_MARKER();
1013:../../../FreeRTOS_9_0/Source/tasks.c **** 				}
1014:../../../FreeRTOS_9_0/Source/tasks.c **** 			}
1015:../../../FreeRTOS_9_0/Source/tasks.c **** 			else
1016:../../../FreeRTOS_9_0/Source/tasks.c **** 			{
1017:../../../FreeRTOS_9_0/Source/tasks.c **** 				mtCOVERAGE_TEST_MARKER();
1018:../../../FreeRTOS_9_0/Source/tasks.c **** 			}
1019:../../../FreeRTOS_9_0/Source/tasks.c **** 		}
1020:../../../FreeRTOS_9_0/Source/tasks.c **** 
1021:../../../FreeRTOS_9_0/Source/tasks.c **** 		uxTaskNumber++;
 515              		.loc 1 1021 0
 516 004e 204B     		ldr	r3, .L22+12
 517 0050 1B68     		ldr	r3, [r3]
 518 0052 0133     		adds	r3, r3, #1
 519 0054 1E4A     		ldr	r2, .L22+12
 520 0056 1360     		str	r3, [r2]
1022:../../../FreeRTOS_9_0/Source/tasks.c **** 
1023:../../../FreeRTOS_9_0/Source/tasks.c **** 		#if ( configUSE_TRACE_FACILITY == 1 )
1024:../../../FreeRTOS_9_0/Source/tasks.c **** 		{
1025:../../../FreeRTOS_9_0/Source/tasks.c **** 			/* Add a counter into the TCB for tracing only. */
1026:../../../FreeRTOS_9_0/Source/tasks.c **** 			pxNewTCB->uxTCBNumber = uxTaskNumber;
 521              		.loc 1 1026 0
 522 0058 1D4B     		ldr	r3, .L22+12
 523 005a 1A68     		ldr	r2, [r3]
 524 005c 7B68     		ldr	r3, [r7, #4]
 525 005e 5A64     		str	r2, [r3, #68]
ARM GAS  /tmp/ccfW2k76.s 			page 32


1027:../../../FreeRTOS_9_0/Source/tasks.c **** 		}
1028:../../../FreeRTOS_9_0/Source/tasks.c **** 		#endif /* configUSE_TRACE_FACILITY */
1029:../../../FreeRTOS_9_0/Source/tasks.c **** 		traceTASK_CREATE( pxNewTCB );
1030:../../../FreeRTOS_9_0/Source/tasks.c **** 
1031:../../../FreeRTOS_9_0/Source/tasks.c **** 		prvAddTaskToReadyList( pxNewTCB );
 526              		.loc 1 1031 0
 527 0060 7B68     		ldr	r3, [r7, #4]
 528 0062 DB6A     		ldr	r3, [r3, #44]
 529 0064 1A46     		mov	r2, r3
 530 0066 0123     		movs	r3, #1
 531 0068 03FA02F2 		lsl	r2, r3, r2
 532 006c 194B     		ldr	r3, .L22+16
 533 006e 1B68     		ldr	r3, [r3]
 534 0070 1343     		orrs	r3, r3, r2
 535 0072 184A     		ldr	r2, .L22+16
 536 0074 1360     		str	r3, [r2]
 537 0076 7B68     		ldr	r3, [r7, #4]
 538 0078 DA6A     		ldr	r2, [r3, #44]
 539 007a 1346     		mov	r3, r2
 540 007c 9B00     		lsls	r3, r3, #2
 541 007e 1344     		add	r3, r3, r2
 542 0080 9B00     		lsls	r3, r3, #2
 543 0082 154A     		ldr	r2, .L22+20
 544 0084 1A44     		add	r2, r2, r3
 545 0086 7B68     		ldr	r3, [r7, #4]
 546 0088 0433     		adds	r3, r3, #4
 547 008a 1046     		mov	r0, r2
 548 008c 1946     		mov	r1, r3
 549 008e FFF7FEFF 		bl	vListInsertEnd
1032:../../../FreeRTOS_9_0/Source/tasks.c **** 
1033:../../../FreeRTOS_9_0/Source/tasks.c **** 		portSETUP_TCB( pxNewTCB );
1034:../../../FreeRTOS_9_0/Source/tasks.c **** 	}
1035:../../../FreeRTOS_9_0/Source/tasks.c **** 	taskEXIT_CRITICAL();
 550              		.loc 1 1035 0
 551 0092 FFF7FEFF 		bl	vPortExitCritical
1036:../../../FreeRTOS_9_0/Source/tasks.c **** 
1037:../../../FreeRTOS_9_0/Source/tasks.c **** 	if( xSchedulerRunning != pdFALSE )
 552              		.loc 1 1037 0
 553 0096 0D4B     		ldr	r3, .L22+8
 554 0098 1B68     		ldr	r3, [r3]
 555 009a 002B     		cmp	r3, #0
 556 009c 0ED0     		beq	.L18
1038:../../../FreeRTOS_9_0/Source/tasks.c **** 	{
1039:../../../FreeRTOS_9_0/Source/tasks.c **** 		/* If the created task is of a higher priority than the current task
1040:../../../FreeRTOS_9_0/Source/tasks.c **** 		then it should run now. */
1041:../../../FreeRTOS_9_0/Source/tasks.c **** 		if( pxCurrentTCB->uxPriority < pxNewTCB->uxPriority )
 557              		.loc 1 1041 0
 558 009e 0A4B     		ldr	r3, .L22+4
 559 00a0 1B68     		ldr	r3, [r3]
 560 00a2 DA6A     		ldr	r2, [r3, #44]
 561 00a4 7B68     		ldr	r3, [r7, #4]
 562 00a6 DB6A     		ldr	r3, [r3, #44]
 563 00a8 9A42     		cmp	r2, r3
 564 00aa 07D2     		bcs	.L18
1042:../../../FreeRTOS_9_0/Source/tasks.c **** 		{
1043:../../../FreeRTOS_9_0/Source/tasks.c **** 			taskYIELD_IF_USING_PREEMPTION();
 565              		.loc 1 1043 0
ARM GAS  /tmp/ccfW2k76.s 			page 33


 566 00ac 0B4B     		ldr	r3, .L22+24
 567 00ae 4FF08052 		mov	r2, #268435456
 568 00b2 1A60     		str	r2, [r3]
 569              	@ 1043 "../../../FreeRTOS_9_0/Source/tasks.c" 1
 570 00b4 BFF34F8F 		dsb
 571              	@ 0 "" 2
 572              	@ 1043 "../../../FreeRTOS_9_0/Source/tasks.c" 1
 573 00b8 BFF36F8F 		isb
 574              	@ 0 "" 2
 575              		.thumb
 576              	.L18:
1044:../../../FreeRTOS_9_0/Source/tasks.c **** 		}
1045:../../../FreeRTOS_9_0/Source/tasks.c **** 		else
1046:../../../FreeRTOS_9_0/Source/tasks.c **** 		{
1047:../../../FreeRTOS_9_0/Source/tasks.c **** 			mtCOVERAGE_TEST_MARKER();
1048:../../../FreeRTOS_9_0/Source/tasks.c **** 		}
1049:../../../FreeRTOS_9_0/Source/tasks.c **** 	}
1050:../../../FreeRTOS_9_0/Source/tasks.c **** 	else
1051:../../../FreeRTOS_9_0/Source/tasks.c **** 	{
1052:../../../FreeRTOS_9_0/Source/tasks.c **** 		mtCOVERAGE_TEST_MARKER();
1053:../../../FreeRTOS_9_0/Source/tasks.c **** 	}
1054:../../../FreeRTOS_9_0/Source/tasks.c **** }
 577              		.loc 1 1054 0
 578 00bc 0837     		adds	r7, r7, #8
 579              	.LCFI13:
 580              		.cfi_def_cfa_offset 8
 581 00be BD46     		mov	sp, r7
 582              	.LCFI14:
 583              		.cfi_def_cfa_register 13
 584              		@ sp needed
 585 00c0 80BD     		pop	{r7, pc}
 586              	.L23:
 587 00c2 00BF     		.align	2
 588              	.L22:
 589 00c4 00000000 		.word	uxCurrentNumberOfTasks
 590 00c8 00000000 		.word	pxCurrentTCB
 591 00cc 00000000 		.word	xSchedulerRunning
 592 00d0 00000000 		.word	uxTaskNumber
 593 00d4 00000000 		.word	uxTopReadyPriority
 594 00d8 00000000 		.word	pxReadyTasksLists
 595 00dc 04ED00E0 		.word	-536810236
 596              		.cfi_endproc
 597              	.LFE7:
 599              		.section	.text.vTaskDelete,"ax",%progbits
 600              		.align	2
 601              		.global	vTaskDelete
 602              		.thumb
 603              		.thumb_func
 605              	vTaskDelete:
 606              	.LFB8:
1055:../../../FreeRTOS_9_0/Source/tasks.c **** /*-----------------------------------------------------------*/
1056:../../../FreeRTOS_9_0/Source/tasks.c **** 
1057:../../../FreeRTOS_9_0/Source/tasks.c **** #if ( INCLUDE_vTaskDelete == 1 )
1058:../../../FreeRTOS_9_0/Source/tasks.c **** 
1059:../../../FreeRTOS_9_0/Source/tasks.c **** 	void vTaskDelete( TaskHandle_t xTaskToDelete )
1060:../../../FreeRTOS_9_0/Source/tasks.c **** 	{
 607              		.loc 1 1060 0
ARM GAS  /tmp/ccfW2k76.s 			page 34


 608              		.cfi_startproc
 609              		@ args = 0, pretend = 0, frame = 16
 610              		@ frame_needed = 1, uses_anonymous_args = 0
 611 0000 80B5     		push	{r7, lr}
 612              	.LCFI15:
 613              		.cfi_def_cfa_offset 8
 614              		.cfi_offset 7, -8
 615              		.cfi_offset 14, -4
 616 0002 84B0     		sub	sp, sp, #16
 617              	.LCFI16:
 618              		.cfi_def_cfa_offset 24
 619 0004 00AF     		add	r7, sp, #0
 620              	.LCFI17:
 621              		.cfi_def_cfa_register 7
 622 0006 7860     		str	r0, [r7, #4]
1061:../../../FreeRTOS_9_0/Source/tasks.c **** 	TCB_t *pxTCB;
1062:../../../FreeRTOS_9_0/Source/tasks.c **** 
1063:../../../FreeRTOS_9_0/Source/tasks.c **** 		taskENTER_CRITICAL();
 623              		.loc 1 1063 0
 624 0008 FFF7FEFF 		bl	vPortEnterCritical
1064:../../../FreeRTOS_9_0/Source/tasks.c **** 		{
1065:../../../FreeRTOS_9_0/Source/tasks.c **** 			/* If null is passed in here then it is the calling task that is
1066:../../../FreeRTOS_9_0/Source/tasks.c **** 			being deleted. */
1067:../../../FreeRTOS_9_0/Source/tasks.c **** 			pxTCB = prvGetTCBFromHandle( xTaskToDelete );
 625              		.loc 1 1067 0
 626 000c 7B68     		ldr	r3, [r7, #4]
 627 000e 002B     		cmp	r3, #0
 628 0010 02D1     		bne	.L25
 629              		.loc 1 1067 0 is_stmt 0 discriminator 1
 630 0012 384B     		ldr	r3, .L35
 631 0014 1B68     		ldr	r3, [r3]
 632 0016 00E0     		b	.L26
 633              	.L25:
 634              		.loc 1 1067 0 discriminator 2
 635 0018 7B68     		ldr	r3, [r7, #4]
 636              	.L26:
 637              		.loc 1 1067 0 discriminator 4
 638 001a FB60     		str	r3, [r7, #12]
1068:../../../FreeRTOS_9_0/Source/tasks.c **** 
1069:../../../FreeRTOS_9_0/Source/tasks.c **** 			/* Remove task from the ready list. */
1070:../../../FreeRTOS_9_0/Source/tasks.c **** 			if( uxListRemove( &( pxTCB->xStateListItem ) ) == ( UBaseType_t ) 0 )
 639              		.loc 1 1070 0 is_stmt 1 discriminator 4
 640 001c FB68     		ldr	r3, [r7, #12]
 641 001e 0433     		adds	r3, r3, #4
 642 0020 1846     		mov	r0, r3
 643 0022 FFF7FEFF 		bl	uxListRemove
 644 0026 0346     		mov	r3, r0
 645 0028 002B     		cmp	r3, #0
 646 002a 15D1     		bne	.L27
1071:../../../FreeRTOS_9_0/Source/tasks.c **** 			{
1072:../../../FreeRTOS_9_0/Source/tasks.c **** 				taskRESET_READY_PRIORITY( pxTCB->uxPriority );
 647              		.loc 1 1072 0
 648 002c FB68     		ldr	r3, [r7, #12]
 649 002e DA6A     		ldr	r2, [r3, #44]
 650 0030 3149     		ldr	r1, .L35+4
 651 0032 1346     		mov	r3, r2
 652 0034 9B00     		lsls	r3, r3, #2
ARM GAS  /tmp/ccfW2k76.s 			page 35


 653 0036 1344     		add	r3, r3, r2
 654 0038 9B00     		lsls	r3, r3, #2
 655 003a 0B44     		add	r3, r3, r1
 656 003c 1B68     		ldr	r3, [r3]
 657 003e 002B     		cmp	r3, #0
 658 0040 0AD1     		bne	.L27
 659              		.loc 1 1072 0 is_stmt 0 discriminator 1
 660 0042 FB68     		ldr	r3, [r7, #12]
 661 0044 DB6A     		ldr	r3, [r3, #44]
 662 0046 1A46     		mov	r2, r3
 663 0048 0123     		movs	r3, #1
 664 004a 9340     		lsls	r3, r3, r2
 665 004c DA43     		mvns	r2, r3
 666 004e 2B4B     		ldr	r3, .L35+8
 667 0050 1B68     		ldr	r3, [r3]
 668 0052 1340     		ands	r3, r3, r2
 669 0054 294A     		ldr	r2, .L35+8
 670 0056 1360     		str	r3, [r2]
 671              	.L27:
1073:../../../FreeRTOS_9_0/Source/tasks.c **** 			}
1074:../../../FreeRTOS_9_0/Source/tasks.c **** 			else
1075:../../../FreeRTOS_9_0/Source/tasks.c **** 			{
1076:../../../FreeRTOS_9_0/Source/tasks.c **** 				mtCOVERAGE_TEST_MARKER();
1077:../../../FreeRTOS_9_0/Source/tasks.c **** 			}
1078:../../../FreeRTOS_9_0/Source/tasks.c **** 
1079:../../../FreeRTOS_9_0/Source/tasks.c **** 			/* Is the task waiting on an event also? */
1080:../../../FreeRTOS_9_0/Source/tasks.c **** 			if( listLIST_ITEM_CONTAINER( &( pxTCB->xEventListItem ) ) != NULL )
 672              		.loc 1 1080 0 is_stmt 1
 673 0058 FB68     		ldr	r3, [r7, #12]
 674 005a 9B6A     		ldr	r3, [r3, #40]
 675 005c 002B     		cmp	r3, #0
 676 005e 04D0     		beq	.L29
1081:../../../FreeRTOS_9_0/Source/tasks.c **** 			{
1082:../../../FreeRTOS_9_0/Source/tasks.c **** 				( void ) uxListRemove( &( pxTCB->xEventListItem ) );
 677              		.loc 1 1082 0
 678 0060 FB68     		ldr	r3, [r7, #12]
 679 0062 1833     		adds	r3, r3, #24
 680 0064 1846     		mov	r0, r3
 681 0066 FFF7FEFF 		bl	uxListRemove
 682              	.L29:
1083:../../../FreeRTOS_9_0/Source/tasks.c **** 			}
1084:../../../FreeRTOS_9_0/Source/tasks.c **** 			else
1085:../../../FreeRTOS_9_0/Source/tasks.c **** 			{
1086:../../../FreeRTOS_9_0/Source/tasks.c **** 				mtCOVERAGE_TEST_MARKER();
1087:../../../FreeRTOS_9_0/Source/tasks.c **** 			}
1088:../../../FreeRTOS_9_0/Source/tasks.c **** 
1089:../../../FreeRTOS_9_0/Source/tasks.c **** 			/* Increment the uxTaskNumber also so kernel aware debuggers can
1090:../../../FreeRTOS_9_0/Source/tasks.c **** 			detect that the task lists need re-generating.  This is done before
1091:../../../FreeRTOS_9_0/Source/tasks.c **** 			portPRE_TASK_DELETE_HOOK() as in the Windows port that macro will
1092:../../../FreeRTOS_9_0/Source/tasks.c **** 			not return. */
1093:../../../FreeRTOS_9_0/Source/tasks.c **** 			uxTaskNumber++;
 683              		.loc 1 1093 0
 684 006a 254B     		ldr	r3, .L35+12
 685 006c 1B68     		ldr	r3, [r3]
 686 006e 0133     		adds	r3, r3, #1
 687 0070 234A     		ldr	r2, .L35+12
 688 0072 1360     		str	r3, [r2]
ARM GAS  /tmp/ccfW2k76.s 			page 36


1094:../../../FreeRTOS_9_0/Source/tasks.c **** 
1095:../../../FreeRTOS_9_0/Source/tasks.c **** 			if( pxTCB == pxCurrentTCB )
 689              		.loc 1 1095 0
 690 0074 1F4B     		ldr	r3, .L35
 691 0076 1B68     		ldr	r3, [r3]
 692 0078 FA68     		ldr	r2, [r7, #12]
 693 007a 9A42     		cmp	r2, r3
 694 007c 0BD1     		bne	.L30
1096:../../../FreeRTOS_9_0/Source/tasks.c **** 			{
1097:../../../FreeRTOS_9_0/Source/tasks.c **** 				/* A task is deleting itself.  This cannot complete within the
1098:../../../FreeRTOS_9_0/Source/tasks.c **** 				task itself, as a context switch to another task is required.
1099:../../../FreeRTOS_9_0/Source/tasks.c **** 				Place the task in the termination list.  The idle task will
1100:../../../FreeRTOS_9_0/Source/tasks.c **** 				check the termination list and free up any memory allocated by
1101:../../../FreeRTOS_9_0/Source/tasks.c **** 				the scheduler for the TCB and stack of the deleted task. */
1102:../../../FreeRTOS_9_0/Source/tasks.c **** 				vListInsertEnd( &xTasksWaitingTermination, &( pxTCB->xStateListItem ) );
 695              		.loc 1 1102 0
 696 007e FB68     		ldr	r3, [r7, #12]
 697 0080 0433     		adds	r3, r3, #4
 698 0082 2048     		ldr	r0, .L35+16
 699 0084 1946     		mov	r1, r3
 700 0086 FFF7FEFF 		bl	vListInsertEnd
1103:../../../FreeRTOS_9_0/Source/tasks.c **** 
1104:../../../FreeRTOS_9_0/Source/tasks.c **** 				/* Increment the ucTasksDeleted variable so the idle task knows
1105:../../../FreeRTOS_9_0/Source/tasks.c **** 				there is a task that has been deleted and that it should therefore
1106:../../../FreeRTOS_9_0/Source/tasks.c **** 				check the xTasksWaitingTermination list. */
1107:../../../FreeRTOS_9_0/Source/tasks.c **** 				++uxDeletedTasksWaitingCleanUp;
 701              		.loc 1 1107 0
 702 008a 1F4B     		ldr	r3, .L35+20
 703 008c 1B68     		ldr	r3, [r3]
 704 008e 0133     		adds	r3, r3, #1
 705 0090 1D4A     		ldr	r2, .L35+20
 706 0092 1360     		str	r3, [r2]
 707 0094 09E0     		b	.L31
 708              	.L30:
1108:../../../FreeRTOS_9_0/Source/tasks.c **** 
1109:../../../FreeRTOS_9_0/Source/tasks.c **** 				/* The pre-delete hook is primarily for the Windows simulator,
1110:../../../FreeRTOS_9_0/Source/tasks.c **** 				in which Windows specific clean up operations are performed,
1111:../../../FreeRTOS_9_0/Source/tasks.c **** 				after which it is not possible to yield away from this task -
1112:../../../FreeRTOS_9_0/Source/tasks.c **** 				hence xYieldPending is used to latch that a context switch is
1113:../../../FreeRTOS_9_0/Source/tasks.c **** 				required. */
1114:../../../FreeRTOS_9_0/Source/tasks.c **** 				portPRE_TASK_DELETE_HOOK( pxTCB, &xYieldPending );
1115:../../../FreeRTOS_9_0/Source/tasks.c **** 			}
1116:../../../FreeRTOS_9_0/Source/tasks.c **** 			else
1117:../../../FreeRTOS_9_0/Source/tasks.c **** 			{
1118:../../../FreeRTOS_9_0/Source/tasks.c **** 				--uxCurrentNumberOfTasks;
 709              		.loc 1 1118 0
 710 0096 1D4B     		ldr	r3, .L35+24
 711 0098 1B68     		ldr	r3, [r3]
 712 009a 013B     		subs	r3, r3, #1
 713 009c 1B4A     		ldr	r2, .L35+24
 714 009e 1360     		str	r3, [r2]
1119:../../../FreeRTOS_9_0/Source/tasks.c **** 				prvDeleteTCB( pxTCB );
 715              		.loc 1 1119 0
 716 00a0 F868     		ldr	r0, [r7, #12]
 717 00a2 FFF7FEFF 		bl	prvDeleteTCB
1120:../../../FreeRTOS_9_0/Source/tasks.c **** 
1121:../../../FreeRTOS_9_0/Source/tasks.c **** 				/* Reset the next expected unblock time in case it referred to
ARM GAS  /tmp/ccfW2k76.s 			page 37


1122:../../../FreeRTOS_9_0/Source/tasks.c **** 				the task that has just been deleted. */
1123:../../../FreeRTOS_9_0/Source/tasks.c **** 				prvResetNextTaskUnblockTime();
 718              		.loc 1 1123 0
 719 00a6 FFF7FEFF 		bl	prvResetNextTaskUnblockTime
 720              	.L31:
1124:../../../FreeRTOS_9_0/Source/tasks.c **** 			}
1125:../../../FreeRTOS_9_0/Source/tasks.c **** 
1126:../../../FreeRTOS_9_0/Source/tasks.c **** 			traceTASK_DELETE( pxTCB );
1127:../../../FreeRTOS_9_0/Source/tasks.c **** 		}
1128:../../../FreeRTOS_9_0/Source/tasks.c **** 		taskEXIT_CRITICAL();
 721              		.loc 1 1128 0
 722 00aa FFF7FEFF 		bl	vPortExitCritical
1129:../../../FreeRTOS_9_0/Source/tasks.c **** 
1130:../../../FreeRTOS_9_0/Source/tasks.c **** 		/* Force a reschedule if it is the currently running task that has just
1131:../../../FreeRTOS_9_0/Source/tasks.c **** 		been deleted. */
1132:../../../FreeRTOS_9_0/Source/tasks.c **** 		if( xSchedulerRunning != pdFALSE )
 723              		.loc 1 1132 0
 724 00ae 184B     		ldr	r3, .L35+28
 725 00b0 1B68     		ldr	r3, [r3]
 726 00b2 002B     		cmp	r3, #0
 727 00b4 1AD0     		beq	.L24
1133:../../../FreeRTOS_9_0/Source/tasks.c **** 		{
1134:../../../FreeRTOS_9_0/Source/tasks.c **** 			if( pxTCB == pxCurrentTCB )
 728              		.loc 1 1134 0
 729 00b6 0F4B     		ldr	r3, .L35
 730 00b8 1B68     		ldr	r3, [r3]
 731 00ba FA68     		ldr	r2, [r7, #12]
 732 00bc 9A42     		cmp	r2, r3
 733 00be 15D1     		bne	.L24
1135:../../../FreeRTOS_9_0/Source/tasks.c **** 			{
1136:../../../FreeRTOS_9_0/Source/tasks.c **** 				configASSERT( uxSchedulerSuspended == 0 );
 734              		.loc 1 1136 0
 735 00c0 144B     		ldr	r3, .L35+32
 736 00c2 1B68     		ldr	r3, [r3]
 737 00c4 002B     		cmp	r3, #0
 738 00c6 09D0     		beq	.L33
 739              	.LBB95:
 740              	.LBB96:
 741              		.loc 2 237 0 discriminator 1
 742              	@ 237 "../../../FreeRTOS_9_0/Source/portable/GCC/ARM_CM4F/portmacro.h" 1
 743 00c8 4FF05003 			mov r3, #80												
 744 00cc 83F31188 		msr basepri, r3											
 745 00d0 BFF36F8F 		isb														
 746 00d4 BFF34F8F 		dsb														
 747              	
 748              	@ 0 "" 2
 749              		.thumb
 750 00d8 BB60     		str	r3, [r7, #8]
 751              	.L34:
 752              	.LBE96:
 753              	.LBE95:
 754              		.loc 1 1136 0 discriminator 1
 755 00da FEE7     		b	.L34
 756              	.L33:
1137:../../../FreeRTOS_9_0/Source/tasks.c **** 				portYIELD_WITHIN_API();
 757              		.loc 1 1137 0
 758 00dc 0E4B     		ldr	r3, .L35+36
ARM GAS  /tmp/ccfW2k76.s 			page 38


 759 00de 4FF08052 		mov	r2, #268435456
 760 00e2 1A60     		str	r2, [r3]
 761              	@ 1137 "../../../FreeRTOS_9_0/Source/tasks.c" 1
 762 00e4 BFF34F8F 		dsb
 763              	@ 0 "" 2
 764              	@ 1137 "../../../FreeRTOS_9_0/Source/tasks.c" 1
 765 00e8 BFF36F8F 		isb
 766              	@ 0 "" 2
 767              		.thumb
 768              	.L24:
1138:../../../FreeRTOS_9_0/Source/tasks.c **** 			}
1139:../../../FreeRTOS_9_0/Source/tasks.c **** 			else
1140:../../../FreeRTOS_9_0/Source/tasks.c **** 			{
1141:../../../FreeRTOS_9_0/Source/tasks.c **** 				mtCOVERAGE_TEST_MARKER();
1142:../../../FreeRTOS_9_0/Source/tasks.c **** 			}
1143:../../../FreeRTOS_9_0/Source/tasks.c **** 		}
1144:../../../FreeRTOS_9_0/Source/tasks.c **** 	}
 769              		.loc 1 1144 0
 770 00ec 1037     		adds	r7, r7, #16
 771              	.LCFI18:
 772              		.cfi_def_cfa_offset 8
 773 00ee BD46     		mov	sp, r7
 774              	.LCFI19:
 775              		.cfi_def_cfa_register 13
 776              		@ sp needed
 777 00f0 80BD     		pop	{r7, pc}
 778              	.L36:
 779 00f2 00BF     		.align	2
 780              	.L35:
 781 00f4 00000000 		.word	pxCurrentTCB
 782 00f8 00000000 		.word	pxReadyTasksLists
 783 00fc 00000000 		.word	uxTopReadyPriority
 784 0100 00000000 		.word	uxTaskNumber
 785 0104 00000000 		.word	xTasksWaitingTermination
 786 0108 00000000 		.word	uxDeletedTasksWaitingCleanUp
 787 010c 00000000 		.word	uxCurrentNumberOfTasks
 788 0110 00000000 		.word	xSchedulerRunning
 789 0114 00000000 		.word	uxSchedulerSuspended
 790 0118 04ED00E0 		.word	-536810236
 791              		.cfi_endproc
 792              	.LFE8:
 794              		.section	.text.vTaskDelay,"ax",%progbits
 795              		.align	2
 796              		.global	vTaskDelay
 797              		.thumb
 798              		.thumb_func
 800              	vTaskDelay:
 801              	.LFB9:
1145:../../../FreeRTOS_9_0/Source/tasks.c **** 
1146:../../../FreeRTOS_9_0/Source/tasks.c **** #endif /* INCLUDE_vTaskDelete */
1147:../../../FreeRTOS_9_0/Source/tasks.c **** /*-----------------------------------------------------------*/
1148:../../../FreeRTOS_9_0/Source/tasks.c **** 
1149:../../../FreeRTOS_9_0/Source/tasks.c **** #if ( INCLUDE_vTaskDelayUntil == 1 )
1150:../../../FreeRTOS_9_0/Source/tasks.c **** 
1151:../../../FreeRTOS_9_0/Source/tasks.c **** 	void vTaskDelayUntil( TickType_t * const pxPreviousWakeTime, const TickType_t xTimeIncrement )
1152:../../../FreeRTOS_9_0/Source/tasks.c **** 	{
1153:../../../FreeRTOS_9_0/Source/tasks.c **** 	TickType_t xTimeToWake;
ARM GAS  /tmp/ccfW2k76.s 			page 39


1154:../../../FreeRTOS_9_0/Source/tasks.c **** 	BaseType_t xAlreadyYielded, xShouldDelay = pdFALSE;
1155:../../../FreeRTOS_9_0/Source/tasks.c **** 
1156:../../../FreeRTOS_9_0/Source/tasks.c **** 		configASSERT( pxPreviousWakeTime );
1157:../../../FreeRTOS_9_0/Source/tasks.c **** 		configASSERT( ( xTimeIncrement > 0U ) );
1158:../../../FreeRTOS_9_0/Source/tasks.c **** 		configASSERT( uxSchedulerSuspended == 0 );
1159:../../../FreeRTOS_9_0/Source/tasks.c **** 
1160:../../../FreeRTOS_9_0/Source/tasks.c **** 		vTaskSuspendAll();
1161:../../../FreeRTOS_9_0/Source/tasks.c **** 		{
1162:../../../FreeRTOS_9_0/Source/tasks.c **** 			/* Minor optimisation.  The tick count cannot change in this
1163:../../../FreeRTOS_9_0/Source/tasks.c **** 			block. */
1164:../../../FreeRTOS_9_0/Source/tasks.c **** 			const TickType_t xConstTickCount = xTickCount;
1165:../../../FreeRTOS_9_0/Source/tasks.c **** 
1166:../../../FreeRTOS_9_0/Source/tasks.c **** 			/* Generate the tick time at which the task wants to wake. */
1167:../../../FreeRTOS_9_0/Source/tasks.c **** 			xTimeToWake = *pxPreviousWakeTime + xTimeIncrement;
1168:../../../FreeRTOS_9_0/Source/tasks.c **** 
1169:../../../FreeRTOS_9_0/Source/tasks.c **** 			if( xConstTickCount < *pxPreviousWakeTime )
1170:../../../FreeRTOS_9_0/Source/tasks.c **** 			{
1171:../../../FreeRTOS_9_0/Source/tasks.c **** 				/* The tick count has overflowed since this function was
1172:../../../FreeRTOS_9_0/Source/tasks.c **** 				lasted called.  In this case the only time we should ever
1173:../../../FreeRTOS_9_0/Source/tasks.c **** 				actually delay is if the wake time has also	overflowed,
1174:../../../FreeRTOS_9_0/Source/tasks.c **** 				and the wake time is greater than the tick time.  When this
1175:../../../FreeRTOS_9_0/Source/tasks.c **** 				is the case it is as if neither time had overflowed. */
1176:../../../FreeRTOS_9_0/Source/tasks.c **** 				if( ( xTimeToWake < *pxPreviousWakeTime ) && ( xTimeToWake > xConstTickCount ) )
1177:../../../FreeRTOS_9_0/Source/tasks.c **** 				{
1178:../../../FreeRTOS_9_0/Source/tasks.c **** 					xShouldDelay = pdTRUE;
1179:../../../FreeRTOS_9_0/Source/tasks.c **** 				}
1180:../../../FreeRTOS_9_0/Source/tasks.c **** 				else
1181:../../../FreeRTOS_9_0/Source/tasks.c **** 				{
1182:../../../FreeRTOS_9_0/Source/tasks.c **** 					mtCOVERAGE_TEST_MARKER();
1183:../../../FreeRTOS_9_0/Source/tasks.c **** 				}
1184:../../../FreeRTOS_9_0/Source/tasks.c **** 			}
1185:../../../FreeRTOS_9_0/Source/tasks.c **** 			else
1186:../../../FreeRTOS_9_0/Source/tasks.c **** 			{
1187:../../../FreeRTOS_9_0/Source/tasks.c **** 				/* The tick time has not overflowed.  In this case we will
1188:../../../FreeRTOS_9_0/Source/tasks.c **** 				delay if either the wake time has overflowed, and/or the
1189:../../../FreeRTOS_9_0/Source/tasks.c **** 				tick time is less than the wake time. */
1190:../../../FreeRTOS_9_0/Source/tasks.c **** 				if( ( xTimeToWake < *pxPreviousWakeTime ) || ( xTimeToWake > xConstTickCount ) )
1191:../../../FreeRTOS_9_0/Source/tasks.c **** 				{
1192:../../../FreeRTOS_9_0/Source/tasks.c **** 					xShouldDelay = pdTRUE;
1193:../../../FreeRTOS_9_0/Source/tasks.c **** 				}
1194:../../../FreeRTOS_9_0/Source/tasks.c **** 				else
1195:../../../FreeRTOS_9_0/Source/tasks.c **** 				{
1196:../../../FreeRTOS_9_0/Source/tasks.c **** 					mtCOVERAGE_TEST_MARKER();
1197:../../../FreeRTOS_9_0/Source/tasks.c **** 				}
1198:../../../FreeRTOS_9_0/Source/tasks.c **** 			}
1199:../../../FreeRTOS_9_0/Source/tasks.c **** 
1200:../../../FreeRTOS_9_0/Source/tasks.c **** 			/* Update the wake time ready for the next call. */
1201:../../../FreeRTOS_9_0/Source/tasks.c **** 			*pxPreviousWakeTime = xTimeToWake;
1202:../../../FreeRTOS_9_0/Source/tasks.c **** 
1203:../../../FreeRTOS_9_0/Source/tasks.c **** 			if( xShouldDelay != pdFALSE )
1204:../../../FreeRTOS_9_0/Source/tasks.c **** 			{
1205:../../../FreeRTOS_9_0/Source/tasks.c **** 				traceTASK_DELAY_UNTIL( xTimeToWake );
1206:../../../FreeRTOS_9_0/Source/tasks.c **** 
1207:../../../FreeRTOS_9_0/Source/tasks.c **** 				/* prvAddCurrentTaskToDelayedList() needs the block time, not
1208:../../../FreeRTOS_9_0/Source/tasks.c **** 				the time to wake, so subtract the current tick count. */
1209:../../../FreeRTOS_9_0/Source/tasks.c **** 				prvAddCurrentTaskToDelayedList( xTimeToWake - xConstTickCount, pdFALSE );
1210:../../../FreeRTOS_9_0/Source/tasks.c **** 			}
ARM GAS  /tmp/ccfW2k76.s 			page 40


1211:../../../FreeRTOS_9_0/Source/tasks.c **** 			else
1212:../../../FreeRTOS_9_0/Source/tasks.c **** 			{
1213:../../../FreeRTOS_9_0/Source/tasks.c **** 				mtCOVERAGE_TEST_MARKER();
1214:../../../FreeRTOS_9_0/Source/tasks.c **** 			}
1215:../../../FreeRTOS_9_0/Source/tasks.c **** 		}
1216:../../../FreeRTOS_9_0/Source/tasks.c **** 		xAlreadyYielded = xTaskResumeAll();
1217:../../../FreeRTOS_9_0/Source/tasks.c **** 
1218:../../../FreeRTOS_9_0/Source/tasks.c **** 		/* Force a reschedule if xTaskResumeAll has not already done so, we may
1219:../../../FreeRTOS_9_0/Source/tasks.c **** 		have put ourselves to sleep. */
1220:../../../FreeRTOS_9_0/Source/tasks.c **** 		if( xAlreadyYielded == pdFALSE )
1221:../../../FreeRTOS_9_0/Source/tasks.c **** 		{
1222:../../../FreeRTOS_9_0/Source/tasks.c **** 			portYIELD_WITHIN_API();
1223:../../../FreeRTOS_9_0/Source/tasks.c **** 		}
1224:../../../FreeRTOS_9_0/Source/tasks.c **** 		else
1225:../../../FreeRTOS_9_0/Source/tasks.c **** 		{
1226:../../../FreeRTOS_9_0/Source/tasks.c **** 			mtCOVERAGE_TEST_MARKER();
1227:../../../FreeRTOS_9_0/Source/tasks.c **** 		}
1228:../../../FreeRTOS_9_0/Source/tasks.c **** 	}
1229:../../../FreeRTOS_9_0/Source/tasks.c **** 
1230:../../../FreeRTOS_9_0/Source/tasks.c **** #endif /* INCLUDE_vTaskDelayUntil */
1231:../../../FreeRTOS_9_0/Source/tasks.c **** /*-----------------------------------------------------------*/
1232:../../../FreeRTOS_9_0/Source/tasks.c **** 
1233:../../../FreeRTOS_9_0/Source/tasks.c **** #if ( INCLUDE_vTaskDelay == 1 )
1234:../../../FreeRTOS_9_0/Source/tasks.c **** 
1235:../../../FreeRTOS_9_0/Source/tasks.c **** 	void vTaskDelay( const TickType_t xTicksToDelay )
1236:../../../FreeRTOS_9_0/Source/tasks.c **** 	{
 802              		.loc 1 1236 0
 803              		.cfi_startproc
 804              		@ args = 0, pretend = 0, frame = 16
 805              		@ frame_needed = 1, uses_anonymous_args = 0
 806 0000 80B5     		push	{r7, lr}
 807              	.LCFI20:
 808              		.cfi_def_cfa_offset 8
 809              		.cfi_offset 7, -8
 810              		.cfi_offset 14, -4
 811 0002 84B0     		sub	sp, sp, #16
 812              	.LCFI21:
 813              		.cfi_def_cfa_offset 24
 814 0004 00AF     		add	r7, sp, #0
 815              	.LCFI22:
 816              		.cfi_def_cfa_register 7
 817 0006 7860     		str	r0, [r7, #4]
1237:../../../FreeRTOS_9_0/Source/tasks.c **** 	BaseType_t xAlreadyYielded = pdFALSE;
 818              		.loc 1 1237 0
 819 0008 0023     		movs	r3, #0
 820 000a FB60     		str	r3, [r7, #12]
1238:../../../FreeRTOS_9_0/Source/tasks.c **** 
1239:../../../FreeRTOS_9_0/Source/tasks.c **** 		/* A delay time of zero just forces a reschedule. */
1240:../../../FreeRTOS_9_0/Source/tasks.c **** 		if( xTicksToDelay > ( TickType_t ) 0U )
 821              		.loc 1 1240 0
 822 000c 7B68     		ldr	r3, [r7, #4]
 823 000e 002B     		cmp	r3, #0
 824 0010 16D0     		beq	.L38
1241:../../../FreeRTOS_9_0/Source/tasks.c **** 		{
1242:../../../FreeRTOS_9_0/Source/tasks.c **** 			configASSERT( uxSchedulerSuspended == 0 );
 825              		.loc 1 1242 0
 826 0012 124B     		ldr	r3, .L42
ARM GAS  /tmp/ccfW2k76.s 			page 41


 827 0014 1B68     		ldr	r3, [r3]
 828 0016 002B     		cmp	r3, #0
 829 0018 09D0     		beq	.L39
 830              	.LBB97:
 831              	.LBB98:
 832              		.loc 2 237 0 discriminator 1
 833              	@ 237 "../../../FreeRTOS_9_0/Source/portable/GCC/ARM_CM4F/portmacro.h" 1
 834 001a 4FF05003 			mov r3, #80												
 835 001e 83F31188 		msr basepri, r3											
 836 0022 BFF36F8F 		isb														
 837 0026 BFF34F8F 		dsb														
 838              	
 839              	@ 0 "" 2
 840              		.thumb
 841 002a BB60     		str	r3, [r7, #8]
 842              	.L40:
 843              	.LBE98:
 844              	.LBE97:
 845              		.loc 1 1242 0 discriminator 1
 846 002c FEE7     		b	.L40
 847              	.L39:
1243:../../../FreeRTOS_9_0/Source/tasks.c **** 			vTaskSuspendAll();
 848              		.loc 1 1243 0
 849 002e FFF7FEFF 		bl	vTaskSuspendAll
1244:../../../FreeRTOS_9_0/Source/tasks.c **** 			{
1245:../../../FreeRTOS_9_0/Source/tasks.c **** 				traceTASK_DELAY();
1246:../../../FreeRTOS_9_0/Source/tasks.c **** 
1247:../../../FreeRTOS_9_0/Source/tasks.c **** 				/* A task that is removed from the event list while the
1248:../../../FreeRTOS_9_0/Source/tasks.c **** 				scheduler is suspended will not get placed in the ready
1249:../../../FreeRTOS_9_0/Source/tasks.c **** 				list or removed from the blocked list until the scheduler
1250:../../../FreeRTOS_9_0/Source/tasks.c **** 				is resumed.
1251:../../../FreeRTOS_9_0/Source/tasks.c **** 
1252:../../../FreeRTOS_9_0/Source/tasks.c **** 				This task cannot be in an event list as it is the currently
1253:../../../FreeRTOS_9_0/Source/tasks.c **** 				executing task. */
1254:../../../FreeRTOS_9_0/Source/tasks.c **** 				prvAddCurrentTaskToDelayedList( xTicksToDelay, pdFALSE );
 850              		.loc 1 1254 0
 851 0032 7868     		ldr	r0, [r7, #4]
 852 0034 0021     		movs	r1, #0
 853 0036 FFF7FEFF 		bl	prvAddCurrentTaskToDelayedList
1255:../../../FreeRTOS_9_0/Source/tasks.c **** 			}
1256:../../../FreeRTOS_9_0/Source/tasks.c **** 			xAlreadyYielded = xTaskResumeAll();
 854              		.loc 1 1256 0
 855 003a FFF7FEFF 		bl	xTaskResumeAll
 856 003e F860     		str	r0, [r7, #12]
 857              	.L38:
1257:../../../FreeRTOS_9_0/Source/tasks.c **** 		}
1258:../../../FreeRTOS_9_0/Source/tasks.c **** 		else
1259:../../../FreeRTOS_9_0/Source/tasks.c **** 		{
1260:../../../FreeRTOS_9_0/Source/tasks.c **** 			mtCOVERAGE_TEST_MARKER();
1261:../../../FreeRTOS_9_0/Source/tasks.c **** 		}
1262:../../../FreeRTOS_9_0/Source/tasks.c **** 
1263:../../../FreeRTOS_9_0/Source/tasks.c **** 		/* Force a reschedule if xTaskResumeAll has not already done so, we may
1264:../../../FreeRTOS_9_0/Source/tasks.c **** 		have put ourselves to sleep. */
1265:../../../FreeRTOS_9_0/Source/tasks.c **** 		if( xAlreadyYielded == pdFALSE )
 858              		.loc 1 1265 0
 859 0040 FB68     		ldr	r3, [r7, #12]
 860 0042 002B     		cmp	r3, #0
ARM GAS  /tmp/ccfW2k76.s 			page 42


 861 0044 07D1     		bne	.L37
1266:../../../FreeRTOS_9_0/Source/tasks.c **** 		{
1267:../../../FreeRTOS_9_0/Source/tasks.c **** 			portYIELD_WITHIN_API();
 862              		.loc 1 1267 0
 863 0046 064B     		ldr	r3, .L42+4
 864 0048 4FF08052 		mov	r2, #268435456
 865 004c 1A60     		str	r2, [r3]
 866              	@ 1267 "../../../FreeRTOS_9_0/Source/tasks.c" 1
 867 004e BFF34F8F 		dsb
 868              	@ 0 "" 2
 869              	@ 1267 "../../../FreeRTOS_9_0/Source/tasks.c" 1
 870 0052 BFF36F8F 		isb
 871              	@ 0 "" 2
 872              		.thumb
 873              	.L37:
1268:../../../FreeRTOS_9_0/Source/tasks.c **** 		}
1269:../../../FreeRTOS_9_0/Source/tasks.c **** 		else
1270:../../../FreeRTOS_9_0/Source/tasks.c **** 		{
1271:../../../FreeRTOS_9_0/Source/tasks.c **** 			mtCOVERAGE_TEST_MARKER();
1272:../../../FreeRTOS_9_0/Source/tasks.c **** 		}
1273:../../../FreeRTOS_9_0/Source/tasks.c **** 	}
 874              		.loc 1 1273 0
 875 0056 1037     		adds	r7, r7, #16
 876              	.LCFI23:
 877              		.cfi_def_cfa_offset 8
 878 0058 BD46     		mov	sp, r7
 879              	.LCFI24:
 880              		.cfi_def_cfa_register 13
 881              		@ sp needed
 882 005a 80BD     		pop	{r7, pc}
 883              	.L43:
 884              		.align	2
 885              	.L42:
 886 005c 00000000 		.word	uxSchedulerSuspended
 887 0060 04ED00E0 		.word	-536810236
 888              		.cfi_endproc
 889              	.LFE9:
 891              		.section	.text.eTaskGetState,"ax",%progbits
 892              		.align	2
 893              		.global	eTaskGetState
 894              		.thumb
 895              		.thumb_func
 897              	eTaskGetState:
 898              	.LFB10:
1274:../../../FreeRTOS_9_0/Source/tasks.c **** 
1275:../../../FreeRTOS_9_0/Source/tasks.c **** #endif /* INCLUDE_vTaskDelay */
1276:../../../FreeRTOS_9_0/Source/tasks.c **** /*-----------------------------------------------------------*/
1277:../../../FreeRTOS_9_0/Source/tasks.c **** 
1278:../../../FreeRTOS_9_0/Source/tasks.c **** #if( ( INCLUDE_eTaskGetState == 1 ) || ( configUSE_TRACE_FACILITY == 1 ) )
1279:../../../FreeRTOS_9_0/Source/tasks.c **** 
1280:../../../FreeRTOS_9_0/Source/tasks.c **** 	eTaskState eTaskGetState( TaskHandle_t xTask )
1281:../../../FreeRTOS_9_0/Source/tasks.c **** 	{
 899              		.loc 1 1281 0
 900              		.cfi_startproc
 901              		@ args = 0, pretend = 0, frame = 24
 902              		@ frame_needed = 1, uses_anonymous_args = 0
 903 0000 80B5     		push	{r7, lr}
ARM GAS  /tmp/ccfW2k76.s 			page 43


 904              	.LCFI25:
 905              		.cfi_def_cfa_offset 8
 906              		.cfi_offset 7, -8
 907              		.cfi_offset 14, -4
 908 0002 86B0     		sub	sp, sp, #24
 909              	.LCFI26:
 910              		.cfi_def_cfa_offset 32
 911 0004 00AF     		add	r7, sp, #0
 912              	.LCFI27:
 913              		.cfi_def_cfa_register 7
 914 0006 7860     		str	r0, [r7, #4]
1282:../../../FreeRTOS_9_0/Source/tasks.c **** 	eTaskState eReturn;
1283:../../../FreeRTOS_9_0/Source/tasks.c **** 	List_t *pxStateList;
1284:../../../FreeRTOS_9_0/Source/tasks.c **** 	const TCB_t * const pxTCB = ( TCB_t * ) xTask;
 915              		.loc 1 1284 0
 916 0008 7B68     		ldr	r3, [r7, #4]
 917 000a 3B61     		str	r3, [r7, #16]
1285:../../../FreeRTOS_9_0/Source/tasks.c **** 
1286:../../../FreeRTOS_9_0/Source/tasks.c **** 		configASSERT( pxTCB );
 918              		.loc 1 1286 0
 919 000c 3B69     		ldr	r3, [r7, #16]
 920 000e 002B     		cmp	r3, #0
 921 0010 09D1     		bne	.L45
 922              	.LBB99:
 923              	.LBB100:
 924              		.loc 2 237 0 discriminator 1
 925              	@ 237 "../../../FreeRTOS_9_0/Source/portable/GCC/ARM_CM4F/portmacro.h" 1
 926 0012 4FF05003 			mov r3, #80												
 927 0016 83F31188 		msr basepri, r3											
 928 001a BFF36F8F 		isb														
 929 001e BFF34F8F 		dsb														
 930              	
 931              	@ 0 "" 2
 932              		.thumb
 933 0022 BB60     		str	r3, [r7, #8]
 934              	.L46:
 935              	.LBE100:
 936              	.LBE99:
 937              		.loc 1 1286 0 discriminator 1
 938 0024 FEE7     		b	.L46
 939              	.L45:
1287:../../../FreeRTOS_9_0/Source/tasks.c **** 
1288:../../../FreeRTOS_9_0/Source/tasks.c **** 		if( pxTCB == pxCurrentTCB )
 940              		.loc 1 1288 0
 941 0026 1D4B     		ldr	r3, .L57
 942 0028 1B68     		ldr	r3, [r3]
 943 002a 3A69     		ldr	r2, [r7, #16]
 944 002c 9A42     		cmp	r2, r3
 945 002e 02D1     		bne	.L47
1289:../../../FreeRTOS_9_0/Source/tasks.c **** 		{
1290:../../../FreeRTOS_9_0/Source/tasks.c **** 			/* The task calling this function is querying its own state. */
1291:../../../FreeRTOS_9_0/Source/tasks.c **** 			eReturn = eRunning;
 946              		.loc 1 1291 0
 947 0030 0023     		movs	r3, #0
 948 0032 FB75     		strb	r3, [r7, #23]
 949 0034 2DE0     		b	.L48
 950              	.L47:
ARM GAS  /tmp/ccfW2k76.s 			page 44


1292:../../../FreeRTOS_9_0/Source/tasks.c **** 		}
1293:../../../FreeRTOS_9_0/Source/tasks.c **** 		else
1294:../../../FreeRTOS_9_0/Source/tasks.c **** 		{
1295:../../../FreeRTOS_9_0/Source/tasks.c **** 			taskENTER_CRITICAL();
 951              		.loc 1 1295 0
 952 0036 FFF7FEFF 		bl	vPortEnterCritical
1296:../../../FreeRTOS_9_0/Source/tasks.c **** 			{
1297:../../../FreeRTOS_9_0/Source/tasks.c **** 				pxStateList = ( List_t * ) listLIST_ITEM_CONTAINER( &( pxTCB->xStateListItem ) );
 953              		.loc 1 1297 0
 954 003a 3B69     		ldr	r3, [r7, #16]
 955 003c 5B69     		ldr	r3, [r3, #20]
 956 003e FB60     		str	r3, [r7, #12]
1298:../../../FreeRTOS_9_0/Source/tasks.c **** 			}
1299:../../../FreeRTOS_9_0/Source/tasks.c **** 			taskEXIT_CRITICAL();
 957              		.loc 1 1299 0
 958 0040 FFF7FEFF 		bl	vPortExitCritical
1300:../../../FreeRTOS_9_0/Source/tasks.c **** 
1301:../../../FreeRTOS_9_0/Source/tasks.c **** 			if( ( pxStateList == pxDelayedTaskList ) || ( pxStateList == pxOverflowDelayedTaskList ) )
 959              		.loc 1 1301 0
 960 0044 164B     		ldr	r3, .L57+4
 961 0046 1B68     		ldr	r3, [r3]
 962 0048 FA68     		ldr	r2, [r7, #12]
 963 004a 9A42     		cmp	r2, r3
 964 004c 04D0     		beq	.L49
 965              		.loc 1 1301 0 is_stmt 0 discriminator 1
 966 004e 154B     		ldr	r3, .L57+8
 967 0050 1B68     		ldr	r3, [r3]
 968 0052 FA68     		ldr	r2, [r7, #12]
 969 0054 9A42     		cmp	r2, r3
 970 0056 02D1     		bne	.L50
 971              	.L49:
1302:../../../FreeRTOS_9_0/Source/tasks.c **** 			{
1303:../../../FreeRTOS_9_0/Source/tasks.c **** 				/* The task being queried is referenced from one of the Blocked
1304:../../../FreeRTOS_9_0/Source/tasks.c **** 				lists. */
1305:../../../FreeRTOS_9_0/Source/tasks.c **** 				eReturn = eBlocked;
 972              		.loc 1 1305 0 is_stmt 1
 973 0058 0223     		movs	r3, #2
 974 005a FB75     		strb	r3, [r7, #23]
 975 005c 19E0     		b	.L48
 976              	.L50:
1306:../../../FreeRTOS_9_0/Source/tasks.c **** 			}
1307:../../../FreeRTOS_9_0/Source/tasks.c **** 
1308:../../../FreeRTOS_9_0/Source/tasks.c **** 			#if ( INCLUDE_vTaskSuspend == 1 )
1309:../../../FreeRTOS_9_0/Source/tasks.c **** 				else if( pxStateList == &xSuspendedTaskList )
 977              		.loc 1 1309 0
 978 005e FB68     		ldr	r3, [r7, #12]
 979 0060 114A     		ldr	r2, .L57+12
 980 0062 9342     		cmp	r3, r2
 981 0064 09D1     		bne	.L51
1310:../../../FreeRTOS_9_0/Source/tasks.c **** 				{
1311:../../../FreeRTOS_9_0/Source/tasks.c **** 					/* The task being queried is referenced from the suspended
1312:../../../FreeRTOS_9_0/Source/tasks.c **** 					list.  Is it genuinely suspended or is it block
1313:../../../FreeRTOS_9_0/Source/tasks.c **** 					indefinitely? */
1314:../../../FreeRTOS_9_0/Source/tasks.c **** 					if( listLIST_ITEM_CONTAINER( &( pxTCB->xEventListItem ) ) == NULL )
 982              		.loc 1 1314 0
 983 0066 3B69     		ldr	r3, [r7, #16]
 984 0068 9B6A     		ldr	r3, [r3, #40]
ARM GAS  /tmp/ccfW2k76.s 			page 45


 985 006a 002B     		cmp	r3, #0
 986 006c 02D1     		bne	.L52
1315:../../../FreeRTOS_9_0/Source/tasks.c **** 					{
1316:../../../FreeRTOS_9_0/Source/tasks.c **** 						eReturn = eSuspended;
 987              		.loc 1 1316 0
 988 006e 0323     		movs	r3, #3
 989 0070 FB75     		strb	r3, [r7, #23]
 990 0072 0EE0     		b	.L48
 991              	.L52:
1317:../../../FreeRTOS_9_0/Source/tasks.c **** 					}
1318:../../../FreeRTOS_9_0/Source/tasks.c **** 					else
1319:../../../FreeRTOS_9_0/Source/tasks.c **** 					{
1320:../../../FreeRTOS_9_0/Source/tasks.c **** 						eReturn = eBlocked;
 992              		.loc 1 1320 0
 993 0074 0223     		movs	r3, #2
 994 0076 FB75     		strb	r3, [r7, #23]
 995 0078 0BE0     		b	.L48
 996              	.L51:
1321:../../../FreeRTOS_9_0/Source/tasks.c **** 					}
1322:../../../FreeRTOS_9_0/Source/tasks.c **** 				}
1323:../../../FreeRTOS_9_0/Source/tasks.c **** 			#endif
1324:../../../FreeRTOS_9_0/Source/tasks.c **** 
1325:../../../FreeRTOS_9_0/Source/tasks.c **** 			#if ( INCLUDE_vTaskDelete == 1 )
1326:../../../FreeRTOS_9_0/Source/tasks.c **** 				else if( ( pxStateList == &xTasksWaitingTermination ) || ( pxStateList == NULL ) )
 997              		.loc 1 1326 0
 998 007a FB68     		ldr	r3, [r7, #12]
 999 007c 0B4A     		ldr	r2, .L57+16
 1000 007e 9342     		cmp	r3, r2
 1001 0080 02D0     		beq	.L54
 1002              		.loc 1 1326 0 is_stmt 0 discriminator 1
 1003 0082 FB68     		ldr	r3, [r7, #12]
 1004 0084 002B     		cmp	r3, #0
 1005 0086 02D1     		bne	.L55
 1006              	.L54:
1327:../../../FreeRTOS_9_0/Source/tasks.c **** 				{
1328:../../../FreeRTOS_9_0/Source/tasks.c **** 					/* The task being queried is referenced from the deleted
1329:../../../FreeRTOS_9_0/Source/tasks.c **** 					tasks list, or it is not referenced from any lists at
1330:../../../FreeRTOS_9_0/Source/tasks.c **** 					all. */
1331:../../../FreeRTOS_9_0/Source/tasks.c **** 					eReturn = eDeleted;
 1007              		.loc 1 1331 0 is_stmt 1
 1008 0088 0423     		movs	r3, #4
 1009 008a FB75     		strb	r3, [r7, #23]
 1010 008c 01E0     		b	.L48
 1011              	.L55:
1332:../../../FreeRTOS_9_0/Source/tasks.c **** 				}
1333:../../../FreeRTOS_9_0/Source/tasks.c **** 			#endif
1334:../../../FreeRTOS_9_0/Source/tasks.c **** 
1335:../../../FreeRTOS_9_0/Source/tasks.c **** 			else /*lint !e525 Negative indentation is intended to make use of pre-processor clearer. */
1336:../../../FreeRTOS_9_0/Source/tasks.c **** 			{
1337:../../../FreeRTOS_9_0/Source/tasks.c **** 				/* If the task is not in any other state, it must be in the
1338:../../../FreeRTOS_9_0/Source/tasks.c **** 				Ready (including pending ready) state. */
1339:../../../FreeRTOS_9_0/Source/tasks.c **** 				eReturn = eReady;
 1012              		.loc 1 1339 0
 1013 008e 0123     		movs	r3, #1
 1014 0090 FB75     		strb	r3, [r7, #23]
 1015              	.L48:
1340:../../../FreeRTOS_9_0/Source/tasks.c **** 			}
ARM GAS  /tmp/ccfW2k76.s 			page 46


1341:../../../FreeRTOS_9_0/Source/tasks.c **** 		}
1342:../../../FreeRTOS_9_0/Source/tasks.c **** 
1343:../../../FreeRTOS_9_0/Source/tasks.c **** 		return eReturn;
 1016              		.loc 1 1343 0
 1017 0092 FB7D     		ldrb	r3, [r7, #23]	@ zero_extendqisi2
1344:../../../FreeRTOS_9_0/Source/tasks.c **** 	} /*lint !e818 xTask cannot be a pointer to const because it is a typedef. */
 1018              		.loc 1 1344 0
 1019 0094 1846     		mov	r0, r3
 1020 0096 1837     		adds	r7, r7, #24
 1021              	.LCFI28:
 1022              		.cfi_def_cfa_offset 8
 1023 0098 BD46     		mov	sp, r7
 1024              	.LCFI29:
 1025              		.cfi_def_cfa_register 13
 1026              		@ sp needed
 1027 009a 80BD     		pop	{r7, pc}
 1028              	.L58:
 1029              		.align	2
 1030              	.L57:
 1031 009c 00000000 		.word	pxCurrentTCB
 1032 00a0 00000000 		.word	pxDelayedTaskList
 1033 00a4 00000000 		.word	pxOverflowDelayedTaskList
 1034 00a8 00000000 		.word	xSuspendedTaskList
 1035 00ac 00000000 		.word	xTasksWaitingTermination
 1036              		.cfi_endproc
 1037              	.LFE10:
 1039              		.section	.text.uxTaskPriorityGet,"ax",%progbits
 1040              		.align	2
 1041              		.global	uxTaskPriorityGet
 1042              		.thumb
 1043              		.thumb_func
 1045              	uxTaskPriorityGet:
 1046              	.LFB11:
1345:../../../FreeRTOS_9_0/Source/tasks.c **** 
1346:../../../FreeRTOS_9_0/Source/tasks.c **** #endif /* INCLUDE_eTaskGetState */
1347:../../../FreeRTOS_9_0/Source/tasks.c **** /*-----------------------------------------------------------*/
1348:../../../FreeRTOS_9_0/Source/tasks.c **** 
1349:../../../FreeRTOS_9_0/Source/tasks.c **** #if ( INCLUDE_uxTaskPriorityGet == 1 )
1350:../../../FreeRTOS_9_0/Source/tasks.c **** 
1351:../../../FreeRTOS_9_0/Source/tasks.c **** 	UBaseType_t uxTaskPriorityGet( TaskHandle_t xTask )
1352:../../../FreeRTOS_9_0/Source/tasks.c **** 	{
 1047              		.loc 1 1352 0
 1048              		.cfi_startproc
 1049              		@ args = 0, pretend = 0, frame = 16
 1050              		@ frame_needed = 1, uses_anonymous_args = 0
 1051 0000 80B5     		push	{r7, lr}
 1052              	.LCFI30:
 1053              		.cfi_def_cfa_offset 8
 1054              		.cfi_offset 7, -8
 1055              		.cfi_offset 14, -4
 1056 0002 84B0     		sub	sp, sp, #16
 1057              	.LCFI31:
 1058              		.cfi_def_cfa_offset 24
 1059 0004 00AF     		add	r7, sp, #0
 1060              	.LCFI32:
 1061              		.cfi_def_cfa_register 7
 1062 0006 7860     		str	r0, [r7, #4]
ARM GAS  /tmp/ccfW2k76.s 			page 47


1353:../../../FreeRTOS_9_0/Source/tasks.c **** 	TCB_t *pxTCB;
1354:../../../FreeRTOS_9_0/Source/tasks.c **** 	UBaseType_t uxReturn;
1355:../../../FreeRTOS_9_0/Source/tasks.c **** 
1356:../../../FreeRTOS_9_0/Source/tasks.c **** 		taskENTER_CRITICAL();
 1063              		.loc 1 1356 0
 1064 0008 FFF7FEFF 		bl	vPortEnterCritical
1357:../../../FreeRTOS_9_0/Source/tasks.c **** 		{
1358:../../../FreeRTOS_9_0/Source/tasks.c **** 			/* If null is passed in here then it is the priority of the that
1359:../../../FreeRTOS_9_0/Source/tasks.c **** 			called uxTaskPriorityGet() that is being queried. */
1360:../../../FreeRTOS_9_0/Source/tasks.c **** 			pxTCB = prvGetTCBFromHandle( xTask );
 1065              		.loc 1 1360 0
 1066 000c 7B68     		ldr	r3, [r7, #4]
 1067 000e 002B     		cmp	r3, #0
 1068 0010 02D1     		bne	.L60
 1069              		.loc 1 1360 0 is_stmt 0 discriminator 1
 1070 0012 074B     		ldr	r3, .L63
 1071 0014 1B68     		ldr	r3, [r3]
 1072 0016 00E0     		b	.L61
 1073              	.L60:
 1074              		.loc 1 1360 0 discriminator 2
 1075 0018 7B68     		ldr	r3, [r7, #4]
 1076              	.L61:
 1077              		.loc 1 1360 0 discriminator 4
 1078 001a FB60     		str	r3, [r7, #12]
1361:../../../FreeRTOS_9_0/Source/tasks.c **** 			uxReturn = pxTCB->uxPriority;
 1079              		.loc 1 1361 0 is_stmt 1 discriminator 4
 1080 001c FB68     		ldr	r3, [r7, #12]
 1081 001e DB6A     		ldr	r3, [r3, #44]
 1082 0020 BB60     		str	r3, [r7, #8]
1362:../../../FreeRTOS_9_0/Source/tasks.c **** 		}
1363:../../../FreeRTOS_9_0/Source/tasks.c **** 		taskEXIT_CRITICAL();
 1083              		.loc 1 1363 0 discriminator 4
 1084 0022 FFF7FEFF 		bl	vPortExitCritical
1364:../../../FreeRTOS_9_0/Source/tasks.c **** 
1365:../../../FreeRTOS_9_0/Source/tasks.c **** 		return uxReturn;
 1085              		.loc 1 1365 0 discriminator 4
 1086 0026 BB68     		ldr	r3, [r7, #8]
1366:../../../FreeRTOS_9_0/Source/tasks.c **** 	}
 1087              		.loc 1 1366 0 discriminator 4
 1088 0028 1846     		mov	r0, r3
 1089 002a 1037     		adds	r7, r7, #16
 1090              	.LCFI33:
 1091              		.cfi_def_cfa_offset 8
 1092 002c BD46     		mov	sp, r7
 1093              	.LCFI34:
 1094              		.cfi_def_cfa_register 13
 1095              		@ sp needed
 1096 002e 80BD     		pop	{r7, pc}
 1097              	.L64:
 1098              		.align	2
 1099              	.L63:
 1100 0030 00000000 		.word	pxCurrentTCB
 1101              		.cfi_endproc
 1102              	.LFE11:
 1104              		.section	.text.uxTaskPriorityGetFromISR,"ax",%progbits
 1105              		.align	2
 1106              		.global	uxTaskPriorityGetFromISR
ARM GAS  /tmp/ccfW2k76.s 			page 48


 1107              		.thumb
 1108              		.thumb_func
 1110              	uxTaskPriorityGetFromISR:
 1111              	.LFB12:
1367:../../../FreeRTOS_9_0/Source/tasks.c **** 
1368:../../../FreeRTOS_9_0/Source/tasks.c **** #endif /* INCLUDE_uxTaskPriorityGet */
1369:../../../FreeRTOS_9_0/Source/tasks.c **** /*-----------------------------------------------------------*/
1370:../../../FreeRTOS_9_0/Source/tasks.c **** 
1371:../../../FreeRTOS_9_0/Source/tasks.c **** #if ( INCLUDE_uxTaskPriorityGet == 1 )
1372:../../../FreeRTOS_9_0/Source/tasks.c **** 
1373:../../../FreeRTOS_9_0/Source/tasks.c **** 	UBaseType_t uxTaskPriorityGetFromISR( TaskHandle_t xTask )
1374:../../../FreeRTOS_9_0/Source/tasks.c **** 	{
 1112              		.loc 1 1374 0
 1113              		.cfi_startproc
 1114              		@ args = 0, pretend = 0, frame = 32
 1115              		@ frame_needed = 1, uses_anonymous_args = 0
 1116 0000 80B5     		push	{r7, lr}
 1117              	.LCFI35:
 1118              		.cfi_def_cfa_offset 8
 1119              		.cfi_offset 7, -8
 1120              		.cfi_offset 14, -4
 1121 0002 88B0     		sub	sp, sp, #32
 1122              	.LCFI36:
 1123              		.cfi_def_cfa_offset 40
 1124 0004 00AF     		add	r7, sp, #0
 1125              	.LCFI37:
 1126              		.cfi_def_cfa_register 7
 1127 0006 7860     		str	r0, [r7, #4]
1375:../../../FreeRTOS_9_0/Source/tasks.c **** 	TCB_t *pxTCB;
1376:../../../FreeRTOS_9_0/Source/tasks.c **** 	UBaseType_t uxReturn, uxSavedInterruptState;
1377:../../../FreeRTOS_9_0/Source/tasks.c **** 
1378:../../../FreeRTOS_9_0/Source/tasks.c **** 		/* RTOS ports that support interrupt nesting have the concept of a
1379:../../../FreeRTOS_9_0/Source/tasks.c **** 		maximum	system call (or maximum API call) interrupt priority.
1380:../../../FreeRTOS_9_0/Source/tasks.c **** 		Interrupts that are	above the maximum system call priority are keep
1381:../../../FreeRTOS_9_0/Source/tasks.c **** 		permanently enabled, even when the RTOS kernel is in a critical section,
1382:../../../FreeRTOS_9_0/Source/tasks.c **** 		but cannot make any calls to FreeRTOS API functions.  If configASSERT()
1383:../../../FreeRTOS_9_0/Source/tasks.c **** 		is defined in FreeRTOSConfig.h then
1384:../../../FreeRTOS_9_0/Source/tasks.c **** 		portASSERT_IF_INTERRUPT_PRIORITY_INVALID() will result in an assertion
1385:../../../FreeRTOS_9_0/Source/tasks.c **** 		failure if a FreeRTOS API function is called from an interrupt that has
1386:../../../FreeRTOS_9_0/Source/tasks.c **** 		been assigned a priority above the configured maximum system call
1387:../../../FreeRTOS_9_0/Source/tasks.c **** 		priority.  Only FreeRTOS functions that end in FromISR can be called
1388:../../../FreeRTOS_9_0/Source/tasks.c **** 		from interrupts	that have been assigned a priority at or (logically)
1389:../../../FreeRTOS_9_0/Source/tasks.c **** 		below the maximum system call interrupt priority.  FreeRTOS maintains a
1390:../../../FreeRTOS_9_0/Source/tasks.c **** 		separate interrupt safe API to ensure interrupt entry is as fast and as
1391:../../../FreeRTOS_9_0/Source/tasks.c **** 		simple as possible.  More information (albeit Cortex-M specific) is
1392:../../../FreeRTOS_9_0/Source/tasks.c **** 		provided on the following link:
1393:../../../FreeRTOS_9_0/Source/tasks.c **** 		http://www.freertos.org/RTOS-Cortex-M3-M4.html */
1394:../../../FreeRTOS_9_0/Source/tasks.c **** 		portASSERT_IF_INTERRUPT_PRIORITY_INVALID();
 1128              		.loc 1 1394 0
 1129 0008 FFF7FEFF 		bl	vPortValidateInterruptPriority
 1130              	.LBB101:
 1131              	.LBB102:
 238:../../../FreeRTOS_9_0/Source/portable/GCC/ARM_CM4F/portmacro.h **** 	(
 239:../../../FreeRTOS_9_0/Source/portable/GCC/ARM_CM4F/portmacro.h **** 		"	mov %0, %1												\n"	\
 240:../../../FreeRTOS_9_0/Source/portable/GCC/ARM_CM4F/portmacro.h **** 		"	msr basepri, %0											\n" \
 241:../../../FreeRTOS_9_0/Source/portable/GCC/ARM_CM4F/portmacro.h **** 		"	isb														\n" \
 242:../../../FreeRTOS_9_0/Source/portable/GCC/ARM_CM4F/portmacro.h **** 		"	dsb														\n" \
ARM GAS  /tmp/ccfW2k76.s 			page 49


 243:../../../FreeRTOS_9_0/Source/portable/GCC/ARM_CM4F/portmacro.h **** 		:"=r" (ulNewBASEPRI) : "i" ( configMAX_SYSCALL_INTERRUPT_PRIORITY )
 244:../../../FreeRTOS_9_0/Source/portable/GCC/ARM_CM4F/portmacro.h **** 	);
 245:../../../FreeRTOS_9_0/Source/portable/GCC/ARM_CM4F/portmacro.h **** }
 246:../../../FreeRTOS_9_0/Source/portable/GCC/ARM_CM4F/portmacro.h **** 
 247:../../../FreeRTOS_9_0/Source/portable/GCC/ARM_CM4F/portmacro.h **** /*-----------------------------------------------------------*/
 248:../../../FreeRTOS_9_0/Source/portable/GCC/ARM_CM4F/portmacro.h **** 
 249:../../../FreeRTOS_9_0/Source/portable/GCC/ARM_CM4F/portmacro.h **** portFORCE_INLINE static uint32_t ulPortRaiseBASEPRI( void )
 250:../../../FreeRTOS_9_0/Source/portable/GCC/ARM_CM4F/portmacro.h **** {
 251:../../../FreeRTOS_9_0/Source/portable/GCC/ARM_CM4F/portmacro.h **** uint32_t ulOriginalBASEPRI, ulNewBASEPRI;
 252:../../../FreeRTOS_9_0/Source/portable/GCC/ARM_CM4F/portmacro.h **** 
 253:../../../FreeRTOS_9_0/Source/portable/GCC/ARM_CM4F/portmacro.h **** 	__asm volatile
 1132              		.loc 2 253 0
 1133              	@ 253 "../../../FreeRTOS_9_0/Source/portable/GCC/ARM_CM4F/portmacro.h" 1
 1134 000c EFF31182 			mrs r2, basepri											
 1135 0010 4FF05003 		mov r3, #80												
 1136 0014 83F31188 		msr basepri, r3											
 1137 0018 BFF36F8F 		isb														
 1138 001c BFF34F8F 		dsb														
 1139              	
 1140              	@ 0 "" 2
 1141              		.thumb
 1142 0020 3A61     		str	r2, [r7, #16]
 1143 0022 FB60     		str	r3, [r7, #12]
 254:../../../FreeRTOS_9_0/Source/portable/GCC/ARM_CM4F/portmacro.h **** 	(
 255:../../../FreeRTOS_9_0/Source/portable/GCC/ARM_CM4F/portmacro.h **** 		"	mrs %0, basepri											\n" \
 256:../../../FreeRTOS_9_0/Source/portable/GCC/ARM_CM4F/portmacro.h **** 		"	mov %1, %2												\n"	\
 257:../../../FreeRTOS_9_0/Source/portable/GCC/ARM_CM4F/portmacro.h **** 		"	msr basepri, %1											\n" \
 258:../../../FreeRTOS_9_0/Source/portable/GCC/ARM_CM4F/portmacro.h **** 		"	isb														\n" \
 259:../../../FreeRTOS_9_0/Source/portable/GCC/ARM_CM4F/portmacro.h **** 		"	dsb														\n" \
 260:../../../FreeRTOS_9_0/Source/portable/GCC/ARM_CM4F/portmacro.h **** 		:"=r" (ulOriginalBASEPRI), "=r" (ulNewBASEPRI) : "i" ( configMAX_SYSCALL_INTERRUPT_PRIORITY )
 261:../../../FreeRTOS_9_0/Source/portable/GCC/ARM_CM4F/portmacro.h **** 	);
 262:../../../FreeRTOS_9_0/Source/portable/GCC/ARM_CM4F/portmacro.h **** 
 263:../../../FreeRTOS_9_0/Source/portable/GCC/ARM_CM4F/portmacro.h **** 	/* This return will not be reached but is necessary to prevent compiler
 264:../../../FreeRTOS_9_0/Source/portable/GCC/ARM_CM4F/portmacro.h **** 	warnings. */
 265:../../../FreeRTOS_9_0/Source/portable/GCC/ARM_CM4F/portmacro.h **** 	return ulOriginalBASEPRI;
 1144              		.loc 2 265 0
 1145 0024 3B69     		ldr	r3, [r7, #16]
 1146              	.LBE102:
 1147              	.LBE101:
1395:../../../FreeRTOS_9_0/Source/tasks.c **** 
1396:../../../FreeRTOS_9_0/Source/tasks.c **** 		uxSavedInterruptState = portSET_INTERRUPT_MASK_FROM_ISR();
 1148              		.loc 1 1396 0
 1149 0026 FB61     		str	r3, [r7, #28]
1397:../../../FreeRTOS_9_0/Source/tasks.c **** 		{
1398:../../../FreeRTOS_9_0/Source/tasks.c **** 			/* If null is passed in here then it is the priority of the calling
1399:../../../FreeRTOS_9_0/Source/tasks.c **** 			task that is being queried. */
1400:../../../FreeRTOS_9_0/Source/tasks.c **** 			pxTCB = prvGetTCBFromHandle( xTask );
 1150              		.loc 1 1400 0
 1151 0028 7B68     		ldr	r3, [r7, #4]
 1152 002a 002B     		cmp	r3, #0
 1153 002c 02D1     		bne	.L67
 1154              		.loc 1 1400 0 is_stmt 0 discriminator 1
 1155 002e 094B     		ldr	r3, .L70
 1156 0030 1B68     		ldr	r3, [r3]
 1157 0032 00E0     		b	.L68
 1158              	.L67:
 1159              		.loc 1 1400 0 discriminator 2
ARM GAS  /tmp/ccfW2k76.s 			page 50


 1160 0034 7B68     		ldr	r3, [r7, #4]
 1161              	.L68:
 1162              		.loc 1 1400 0 discriminator 4
 1163 0036 BB61     		str	r3, [r7, #24]
1401:../../../FreeRTOS_9_0/Source/tasks.c **** 			uxReturn = pxTCB->uxPriority;
 1164              		.loc 1 1401 0 is_stmt 1 discriminator 4
 1165 0038 BB69     		ldr	r3, [r7, #24]
 1166 003a DB6A     		ldr	r3, [r3, #44]
 1167 003c 7B61     		str	r3, [r7, #20]
 1168 003e FB69     		ldr	r3, [r7, #28]
 1169 0040 BB60     		str	r3, [r7, #8]
 1170              	.LBB103:
 1171              	.LBB104:
 266:../../../FreeRTOS_9_0/Source/portable/GCC/ARM_CM4F/portmacro.h **** }
 267:../../../FreeRTOS_9_0/Source/portable/GCC/ARM_CM4F/portmacro.h **** /*-----------------------------------------------------------*/
 268:../../../FreeRTOS_9_0/Source/portable/GCC/ARM_CM4F/portmacro.h **** 
 269:../../../FreeRTOS_9_0/Source/portable/GCC/ARM_CM4F/portmacro.h **** portFORCE_INLINE static void vPortSetBASEPRI( uint32_t ulNewMaskValue )
 270:../../../FreeRTOS_9_0/Source/portable/GCC/ARM_CM4F/portmacro.h **** {
 271:../../../FreeRTOS_9_0/Source/portable/GCC/ARM_CM4F/portmacro.h **** 	__asm volatile
 1172              		.loc 2 271 0 discriminator 4
 1173 0042 BB68     		ldr	r3, [r7, #8]
 1174              	@ 271 "../../../FreeRTOS_9_0/Source/portable/GCC/ARM_CM4F/portmacro.h" 1
 1175 0044 83F31188 			msr basepri, r3	
 1176              	@ 0 "" 2
 1177              		.thumb
 1178              	.LBE104:
 1179              	.LBE103:
1402:../../../FreeRTOS_9_0/Source/tasks.c **** 		}
1403:../../../FreeRTOS_9_0/Source/tasks.c **** 		portCLEAR_INTERRUPT_MASK_FROM_ISR( uxSavedInterruptState );
1404:../../../FreeRTOS_9_0/Source/tasks.c **** 
1405:../../../FreeRTOS_9_0/Source/tasks.c **** 		return uxReturn;
 1180              		.loc 1 1405 0 discriminator 4
 1181 0048 7B69     		ldr	r3, [r7, #20]
1406:../../../FreeRTOS_9_0/Source/tasks.c **** 	}
 1182              		.loc 1 1406 0 discriminator 4
 1183 004a 1846     		mov	r0, r3
 1184 004c 2037     		adds	r7, r7, #32
 1185              	.LCFI38:
 1186              		.cfi_def_cfa_offset 8
 1187 004e BD46     		mov	sp, r7
 1188              	.LCFI39:
 1189              		.cfi_def_cfa_register 13
 1190              		@ sp needed
 1191 0050 80BD     		pop	{r7, pc}
 1192              	.L71:
 1193 0052 00BF     		.align	2
 1194              	.L70:
 1195 0054 00000000 		.word	pxCurrentTCB
 1196              		.cfi_endproc
 1197              	.LFE12:
 1199              		.section	.text.vTaskPrioritySet,"ax",%progbits
 1200              		.align	2
 1201              		.global	vTaskPrioritySet
 1202              		.thumb
 1203              		.thumb_func
 1205              	vTaskPrioritySet:
 1206              	.LFB13:
ARM GAS  /tmp/ccfW2k76.s 			page 51


1407:../../../FreeRTOS_9_0/Source/tasks.c **** 
1408:../../../FreeRTOS_9_0/Source/tasks.c **** #endif /* INCLUDE_uxTaskPriorityGet */
1409:../../../FreeRTOS_9_0/Source/tasks.c **** /*-----------------------------------------------------------*/
1410:../../../FreeRTOS_9_0/Source/tasks.c **** 
1411:../../../FreeRTOS_9_0/Source/tasks.c **** #if ( INCLUDE_vTaskPrioritySet == 1 )
1412:../../../FreeRTOS_9_0/Source/tasks.c **** 
1413:../../../FreeRTOS_9_0/Source/tasks.c **** 	void vTaskPrioritySet( TaskHandle_t xTask, UBaseType_t uxNewPriority )
1414:../../../FreeRTOS_9_0/Source/tasks.c **** 	{
 1207              		.loc 1 1414 0
 1208              		.cfi_startproc
 1209              		@ args = 0, pretend = 0, frame = 32
 1210              		@ frame_needed = 1, uses_anonymous_args = 0
 1211 0000 80B5     		push	{r7, lr}
 1212              	.LCFI40:
 1213              		.cfi_def_cfa_offset 8
 1214              		.cfi_offset 7, -8
 1215              		.cfi_offset 14, -4
 1216 0002 88B0     		sub	sp, sp, #32
 1217              	.LCFI41:
 1218              		.cfi_def_cfa_offset 40
 1219 0004 00AF     		add	r7, sp, #0
 1220              	.LCFI42:
 1221              		.cfi_def_cfa_register 7
 1222 0006 7860     		str	r0, [r7, #4]
 1223 0008 3960     		str	r1, [r7]
1415:../../../FreeRTOS_9_0/Source/tasks.c **** 	TCB_t *pxTCB;
1416:../../../FreeRTOS_9_0/Source/tasks.c **** 	UBaseType_t uxCurrentBasePriority, uxPriorityUsedOnEntry;
1417:../../../FreeRTOS_9_0/Source/tasks.c **** 	BaseType_t xYieldRequired = pdFALSE;
 1224              		.loc 1 1417 0
 1225 000a 0023     		movs	r3, #0
 1226 000c FB61     		str	r3, [r7, #28]
1418:../../../FreeRTOS_9_0/Source/tasks.c **** 
1419:../../../FreeRTOS_9_0/Source/tasks.c **** 		configASSERT( ( uxNewPriority < configMAX_PRIORITIES ) );
 1227              		.loc 1 1419 0
 1228 000e 3B68     		ldr	r3, [r7]
 1229 0010 062B     		cmp	r3, #6
 1230 0012 09D9     		bls	.L73
 1231              	.LBB105:
 1232              	.LBB106:
 237:../../../FreeRTOS_9_0/Source/portable/GCC/ARM_CM4F/portmacro.h **** 	(
 1233              		.loc 2 237 0 discriminator 1
 1234              	@ 237 "../../../FreeRTOS_9_0/Source/portable/GCC/ARM_CM4F/portmacro.h" 1
 1235 0014 4FF05003 			mov r3, #80												
 1236 0018 83F31188 		msr basepri, r3											
 1237 001c BFF36F8F 		isb														
 1238 0020 BFF34F8F 		dsb														
 1239              	
 1240              	@ 0 "" 2
 1241              		.thumb
 1242 0024 FB60     		str	r3, [r7, #12]
 1243              	.L74:
 1244              	.LBE106:
 1245              	.LBE105:
 1246              		.loc 1 1419 0 discriminator 1
 1247 0026 FEE7     		b	.L74
 1248              	.L73:
1420:../../../FreeRTOS_9_0/Source/tasks.c **** 
ARM GAS  /tmp/ccfW2k76.s 			page 52


1421:../../../FreeRTOS_9_0/Source/tasks.c **** 		/* Ensure the new priority is valid. */
1422:../../../FreeRTOS_9_0/Source/tasks.c **** 		if( uxNewPriority >= ( UBaseType_t ) configMAX_PRIORITIES )
 1249              		.loc 1 1422 0
 1250 0028 3B68     		ldr	r3, [r7]
 1251 002a 062B     		cmp	r3, #6
 1252 002c 01D9     		bls	.L75
1423:../../../FreeRTOS_9_0/Source/tasks.c **** 		{
1424:../../../FreeRTOS_9_0/Source/tasks.c **** 			uxNewPriority = ( UBaseType_t ) configMAX_PRIORITIES - ( UBaseType_t ) 1U;
 1253              		.loc 1 1424 0
 1254 002e 0623     		movs	r3, #6
 1255 0030 3B60     		str	r3, [r7]
 1256              	.L75:
1425:../../../FreeRTOS_9_0/Source/tasks.c **** 		}
1426:../../../FreeRTOS_9_0/Source/tasks.c **** 		else
1427:../../../FreeRTOS_9_0/Source/tasks.c **** 		{
1428:../../../FreeRTOS_9_0/Source/tasks.c **** 			mtCOVERAGE_TEST_MARKER();
1429:../../../FreeRTOS_9_0/Source/tasks.c **** 		}
1430:../../../FreeRTOS_9_0/Source/tasks.c **** 
1431:../../../FreeRTOS_9_0/Source/tasks.c **** 		taskENTER_CRITICAL();
 1257              		.loc 1 1431 0
 1258 0032 FFF7FEFF 		bl	vPortEnterCritical
1432:../../../FreeRTOS_9_0/Source/tasks.c **** 		{
1433:../../../FreeRTOS_9_0/Source/tasks.c **** 			/* If null is passed in here then it is the priority of the calling
1434:../../../FreeRTOS_9_0/Source/tasks.c **** 			task that is being changed. */
1435:../../../FreeRTOS_9_0/Source/tasks.c **** 			pxTCB = prvGetTCBFromHandle( xTask );
 1259              		.loc 1 1435 0
 1260 0036 7B68     		ldr	r3, [r7, #4]
 1261 0038 002B     		cmp	r3, #0
 1262 003a 02D1     		bne	.L76
 1263              		.loc 1 1435 0 is_stmt 0 discriminator 1
 1264 003c 434B     		ldr	r3, .L87
 1265 003e 1B68     		ldr	r3, [r3]
 1266 0040 00E0     		b	.L77
 1267              	.L76:
 1268              		.loc 1 1435 0 discriminator 2
 1269 0042 7B68     		ldr	r3, [r7, #4]
 1270              	.L77:
 1271              		.loc 1 1435 0 discriminator 4
 1272 0044 BB61     		str	r3, [r7, #24]
1436:../../../FreeRTOS_9_0/Source/tasks.c **** 
1437:../../../FreeRTOS_9_0/Source/tasks.c **** 			traceTASK_PRIORITY_SET( pxTCB, uxNewPriority );
1438:../../../FreeRTOS_9_0/Source/tasks.c **** 
1439:../../../FreeRTOS_9_0/Source/tasks.c **** 			#if ( configUSE_MUTEXES == 1 )
1440:../../../FreeRTOS_9_0/Source/tasks.c **** 			{
1441:../../../FreeRTOS_9_0/Source/tasks.c **** 				uxCurrentBasePriority = pxTCB->uxBasePriority;
 1273              		.loc 1 1441 0 is_stmt 1 discriminator 4
 1274 0046 BB69     		ldr	r3, [r7, #24]
 1275 0048 DB6C     		ldr	r3, [r3, #76]
 1276 004a 7B61     		str	r3, [r7, #20]
1442:../../../FreeRTOS_9_0/Source/tasks.c **** 			}
1443:../../../FreeRTOS_9_0/Source/tasks.c **** 			#else
1444:../../../FreeRTOS_9_0/Source/tasks.c **** 			{
1445:../../../FreeRTOS_9_0/Source/tasks.c **** 				uxCurrentBasePriority = pxTCB->uxPriority;
1446:../../../FreeRTOS_9_0/Source/tasks.c **** 			}
1447:../../../FreeRTOS_9_0/Source/tasks.c **** 			#endif
1448:../../../FreeRTOS_9_0/Source/tasks.c **** 
1449:../../../FreeRTOS_9_0/Source/tasks.c **** 			if( uxCurrentBasePriority != uxNewPriority )
ARM GAS  /tmp/ccfW2k76.s 			page 53


 1277              		.loc 1 1449 0 discriminator 4
 1278 004c 7A69     		ldr	r2, [r7, #20]
 1279 004e 3B68     		ldr	r3, [r7]
 1280 0050 9A42     		cmp	r2, r3
 1281 0052 76D0     		beq	.L78
1450:../../../FreeRTOS_9_0/Source/tasks.c **** 			{
1451:../../../FreeRTOS_9_0/Source/tasks.c **** 				/* The priority change may have readied a task of higher
1452:../../../FreeRTOS_9_0/Source/tasks.c **** 				priority than the calling task. */
1453:../../../FreeRTOS_9_0/Source/tasks.c **** 				if( uxNewPriority > uxCurrentBasePriority )
 1282              		.loc 1 1453 0
 1283 0054 3A68     		ldr	r2, [r7]
 1284 0056 7B69     		ldr	r3, [r7, #20]
 1285 0058 9A42     		cmp	r2, r3
 1286 005a 0DD9     		bls	.L79
1454:../../../FreeRTOS_9_0/Source/tasks.c **** 				{
1455:../../../FreeRTOS_9_0/Source/tasks.c **** 					if( pxTCB != pxCurrentTCB )
 1287              		.loc 1 1455 0
 1288 005c 3B4B     		ldr	r3, .L87
 1289 005e 1B68     		ldr	r3, [r3]
 1290 0060 BA69     		ldr	r2, [r7, #24]
 1291 0062 9A42     		cmp	r2, r3
 1292 0064 0FD0     		beq	.L80
1456:../../../FreeRTOS_9_0/Source/tasks.c **** 					{
1457:../../../FreeRTOS_9_0/Source/tasks.c **** 						/* The priority of a task other than the currently
1458:../../../FreeRTOS_9_0/Source/tasks.c **** 						running task is being raised.  Is the priority being
1459:../../../FreeRTOS_9_0/Source/tasks.c **** 						raised above that of the running task? */
1460:../../../FreeRTOS_9_0/Source/tasks.c **** 						if( uxNewPriority >= pxCurrentTCB->uxPriority )
 1293              		.loc 1 1460 0
 1294 0066 394B     		ldr	r3, .L87
 1295 0068 1B68     		ldr	r3, [r3]
 1296 006a DA6A     		ldr	r2, [r3, #44]
 1297 006c 3B68     		ldr	r3, [r7]
 1298 006e 9A42     		cmp	r2, r3
 1299 0070 09D8     		bhi	.L80
1461:../../../FreeRTOS_9_0/Source/tasks.c **** 						{
1462:../../../FreeRTOS_9_0/Source/tasks.c **** 							xYieldRequired = pdTRUE;
 1300              		.loc 1 1462 0
 1301 0072 0123     		movs	r3, #1
 1302 0074 FB61     		str	r3, [r7, #28]
 1303 0076 06E0     		b	.L80
 1304              	.L79:
1463:../../../FreeRTOS_9_0/Source/tasks.c **** 						}
1464:../../../FreeRTOS_9_0/Source/tasks.c **** 						else
1465:../../../FreeRTOS_9_0/Source/tasks.c **** 						{
1466:../../../FreeRTOS_9_0/Source/tasks.c **** 							mtCOVERAGE_TEST_MARKER();
1467:../../../FreeRTOS_9_0/Source/tasks.c **** 						}
1468:../../../FreeRTOS_9_0/Source/tasks.c **** 					}
1469:../../../FreeRTOS_9_0/Source/tasks.c **** 					else
1470:../../../FreeRTOS_9_0/Source/tasks.c **** 					{
1471:../../../FreeRTOS_9_0/Source/tasks.c **** 						/* The priority of the running task is being raised,
1472:../../../FreeRTOS_9_0/Source/tasks.c **** 						but the running task must already be the highest
1473:../../../FreeRTOS_9_0/Source/tasks.c **** 						priority task able to run so no yield is required. */
1474:../../../FreeRTOS_9_0/Source/tasks.c **** 					}
1475:../../../FreeRTOS_9_0/Source/tasks.c **** 				}
1476:../../../FreeRTOS_9_0/Source/tasks.c **** 				else if( pxTCB == pxCurrentTCB )
 1305              		.loc 1 1476 0
 1306 0078 344B     		ldr	r3, .L87
ARM GAS  /tmp/ccfW2k76.s 			page 54


 1307 007a 1B68     		ldr	r3, [r3]
 1308 007c BA69     		ldr	r2, [r7, #24]
 1309 007e 9A42     		cmp	r2, r3
 1310 0080 01D1     		bne	.L80
1477:../../../FreeRTOS_9_0/Source/tasks.c **** 				{
1478:../../../FreeRTOS_9_0/Source/tasks.c **** 					/* Setting the priority of the running task down means
1479:../../../FreeRTOS_9_0/Source/tasks.c **** 					there may now be another task of higher priority that
1480:../../../FreeRTOS_9_0/Source/tasks.c **** 					is ready to execute. */
1481:../../../FreeRTOS_9_0/Source/tasks.c **** 					xYieldRequired = pdTRUE;
 1311              		.loc 1 1481 0
 1312 0082 0123     		movs	r3, #1
 1313 0084 FB61     		str	r3, [r7, #28]
 1314              	.L80:
1482:../../../FreeRTOS_9_0/Source/tasks.c **** 				}
1483:../../../FreeRTOS_9_0/Source/tasks.c **** 				else
1484:../../../FreeRTOS_9_0/Source/tasks.c **** 				{
1485:../../../FreeRTOS_9_0/Source/tasks.c **** 					/* Setting the priority of any other task down does not
1486:../../../FreeRTOS_9_0/Source/tasks.c **** 					require a yield as the running task must be above the
1487:../../../FreeRTOS_9_0/Source/tasks.c **** 					new priority of the task being modified. */
1488:../../../FreeRTOS_9_0/Source/tasks.c **** 				}
1489:../../../FreeRTOS_9_0/Source/tasks.c **** 
1490:../../../FreeRTOS_9_0/Source/tasks.c **** 				/* Remember the ready list the task might be referenced from
1491:../../../FreeRTOS_9_0/Source/tasks.c **** 				before its uxPriority member is changed so the
1492:../../../FreeRTOS_9_0/Source/tasks.c **** 				taskRESET_READY_PRIORITY() macro can function correctly. */
1493:../../../FreeRTOS_9_0/Source/tasks.c **** 				uxPriorityUsedOnEntry = pxTCB->uxPriority;
 1315              		.loc 1 1493 0
 1316 0086 BB69     		ldr	r3, [r7, #24]
 1317 0088 DB6A     		ldr	r3, [r3, #44]
 1318 008a 3B61     		str	r3, [r7, #16]
1494:../../../FreeRTOS_9_0/Source/tasks.c **** 
1495:../../../FreeRTOS_9_0/Source/tasks.c **** 				#if ( configUSE_MUTEXES == 1 )
1496:../../../FreeRTOS_9_0/Source/tasks.c **** 				{
1497:../../../FreeRTOS_9_0/Source/tasks.c **** 					/* Only change the priority being used if the task is not
1498:../../../FreeRTOS_9_0/Source/tasks.c **** 					currently using an inherited priority. */
1499:../../../FreeRTOS_9_0/Source/tasks.c **** 					if( pxTCB->uxBasePriority == pxTCB->uxPriority )
 1319              		.loc 1 1499 0
 1320 008c BB69     		ldr	r3, [r7, #24]
 1321 008e DA6C     		ldr	r2, [r3, #76]
 1322 0090 BB69     		ldr	r3, [r7, #24]
 1323 0092 DB6A     		ldr	r3, [r3, #44]
 1324 0094 9A42     		cmp	r2, r3
 1325 0096 02D1     		bne	.L81
1500:../../../FreeRTOS_9_0/Source/tasks.c **** 					{
1501:../../../FreeRTOS_9_0/Source/tasks.c **** 						pxTCB->uxPriority = uxNewPriority;
 1326              		.loc 1 1501 0
 1327 0098 BB69     		ldr	r3, [r7, #24]
 1328 009a 3A68     		ldr	r2, [r7]
 1329 009c DA62     		str	r2, [r3, #44]
 1330              	.L81:
1502:../../../FreeRTOS_9_0/Source/tasks.c **** 					}
1503:../../../FreeRTOS_9_0/Source/tasks.c **** 					else
1504:../../../FreeRTOS_9_0/Source/tasks.c **** 					{
1505:../../../FreeRTOS_9_0/Source/tasks.c **** 						mtCOVERAGE_TEST_MARKER();
1506:../../../FreeRTOS_9_0/Source/tasks.c **** 					}
1507:../../../FreeRTOS_9_0/Source/tasks.c **** 
1508:../../../FreeRTOS_9_0/Source/tasks.c **** 					/* The base priority gets set whatever. */
1509:../../../FreeRTOS_9_0/Source/tasks.c **** 					pxTCB->uxBasePriority = uxNewPriority;
ARM GAS  /tmp/ccfW2k76.s 			page 55


 1331              		.loc 1 1509 0
 1332 009e BB69     		ldr	r3, [r7, #24]
 1333 00a0 3A68     		ldr	r2, [r7]
 1334 00a2 DA64     		str	r2, [r3, #76]
1510:../../../FreeRTOS_9_0/Source/tasks.c **** 				}
1511:../../../FreeRTOS_9_0/Source/tasks.c **** 				#else
1512:../../../FreeRTOS_9_0/Source/tasks.c **** 				{
1513:../../../FreeRTOS_9_0/Source/tasks.c **** 					pxTCB->uxPriority = uxNewPriority;
1514:../../../FreeRTOS_9_0/Source/tasks.c **** 				}
1515:../../../FreeRTOS_9_0/Source/tasks.c **** 				#endif
1516:../../../FreeRTOS_9_0/Source/tasks.c **** 
1517:../../../FreeRTOS_9_0/Source/tasks.c **** 				/* Only reset the event list item value if the value is not
1518:../../../FreeRTOS_9_0/Source/tasks.c **** 				being used for anything else. */
1519:../../../FreeRTOS_9_0/Source/tasks.c **** 				if( ( listGET_LIST_ITEM_VALUE( &( pxTCB->xEventListItem ) ) & taskEVENT_LIST_ITEM_VALUE_IN_USE 
 1335              		.loc 1 1519 0
 1336 00a4 BB69     		ldr	r3, [r7, #24]
 1337 00a6 9B69     		ldr	r3, [r3, #24]
 1338 00a8 002B     		cmp	r3, #0
 1339 00aa 04DB     		blt	.L82
1520:../../../FreeRTOS_9_0/Source/tasks.c **** 				{
1521:../../../FreeRTOS_9_0/Source/tasks.c **** 					listSET_LIST_ITEM_VALUE( &( pxTCB->xEventListItem ), ( ( TickType_t ) configMAX_PRIORITIES - (
 1340              		.loc 1 1521 0
 1341 00ac 3B68     		ldr	r3, [r7]
 1342 00ae C3F10702 		rsb	r2, r3, #7
 1343 00b2 BB69     		ldr	r3, [r7, #24]
 1344 00b4 9A61     		str	r2, [r3, #24]
 1345              	.L82:
1522:../../../FreeRTOS_9_0/Source/tasks.c **** 				}
1523:../../../FreeRTOS_9_0/Source/tasks.c **** 				else
1524:../../../FreeRTOS_9_0/Source/tasks.c **** 				{
1525:../../../FreeRTOS_9_0/Source/tasks.c **** 					mtCOVERAGE_TEST_MARKER();
1526:../../../FreeRTOS_9_0/Source/tasks.c **** 				}
1527:../../../FreeRTOS_9_0/Source/tasks.c **** 
1528:../../../FreeRTOS_9_0/Source/tasks.c **** 				/* If the task is in the blocked or suspended list we need do
1529:../../../FreeRTOS_9_0/Source/tasks.c **** 				nothing more than change it's priority variable. However, if
1530:../../../FreeRTOS_9_0/Source/tasks.c **** 				the task is in a ready list it needs to be removed and placed
1531:../../../FreeRTOS_9_0/Source/tasks.c **** 				in the list appropriate to its new priority. */
1532:../../../FreeRTOS_9_0/Source/tasks.c **** 				if( listIS_CONTAINED_WITHIN( &( pxReadyTasksLists[ uxPriorityUsedOnEntry ] ), &( pxTCB->xStateL
 1346              		.loc 1 1532 0
 1347 00b6 BB69     		ldr	r3, [r7, #24]
 1348 00b8 5969     		ldr	r1, [r3, #20]
 1349 00ba 3A69     		ldr	r2, [r7, #16]
 1350 00bc 1346     		mov	r3, r2
 1351 00be 9B00     		lsls	r3, r3, #2
 1352 00c0 1344     		add	r3, r3, r2
 1353 00c2 9B00     		lsls	r3, r3, #2
 1354 00c4 224A     		ldr	r2, .L87+4
 1355 00c6 1344     		add	r3, r3, r2
 1356 00c8 9942     		cmp	r1, r3
 1357 00ca 01D1     		bne	.L83
 1358              		.loc 1 1532 0 is_stmt 0 discriminator 1
 1359 00cc 0123     		movs	r3, #1
 1360 00ce 00E0     		b	.L84
 1361              	.L83:
 1362              		.loc 1 1532 0 discriminator 2
 1363 00d0 0023     		movs	r3, #0
 1364              	.L84:
ARM GAS  /tmp/ccfW2k76.s 			page 56


 1365              		.loc 1 1532 0 discriminator 4
 1366 00d2 002B     		cmp	r3, #0
 1367 00d4 2AD0     		beq	.L85
1533:../../../FreeRTOS_9_0/Source/tasks.c **** 				{
1534:../../../FreeRTOS_9_0/Source/tasks.c **** 					/* The task is currently in its ready list - remove before adding
1535:../../../FreeRTOS_9_0/Source/tasks.c **** 					it to it's new ready list.  As we are in a critical section we
1536:../../../FreeRTOS_9_0/Source/tasks.c **** 					can do this even if the scheduler is suspended. */
1537:../../../FreeRTOS_9_0/Source/tasks.c **** 					if( uxListRemove( &( pxTCB->xStateListItem ) ) == ( UBaseType_t ) 0 )
 1368              		.loc 1 1537 0 is_stmt 1
 1369 00d6 BB69     		ldr	r3, [r7, #24]
 1370 00d8 0433     		adds	r3, r3, #4
 1371 00da 1846     		mov	r0, r3
 1372 00dc FFF7FEFF 		bl	uxListRemove
 1373 00e0 0346     		mov	r3, r0
 1374 00e2 002B     		cmp	r3, #0
 1375 00e4 09D1     		bne	.L86
1538:../../../FreeRTOS_9_0/Source/tasks.c **** 					{
1539:../../../FreeRTOS_9_0/Source/tasks.c **** 						/* It is known that the task is in its ready list so
1540:../../../FreeRTOS_9_0/Source/tasks.c **** 						there is no need to check again and the port level
1541:../../../FreeRTOS_9_0/Source/tasks.c **** 						reset macro can be called directly. */
1542:../../../FreeRTOS_9_0/Source/tasks.c **** 						portRESET_READY_PRIORITY( uxPriorityUsedOnEntry, uxTopReadyPriority );
 1376              		.loc 1 1542 0
 1377 00e6 3B69     		ldr	r3, [r7, #16]
 1378 00e8 0122     		movs	r2, #1
 1379 00ea 02FA03F3 		lsl	r3, r2, r3
 1380 00ee DA43     		mvns	r2, r3
 1381 00f0 184B     		ldr	r3, .L87+8
 1382 00f2 1B68     		ldr	r3, [r3]
 1383 00f4 1340     		ands	r3, r3, r2
 1384 00f6 174A     		ldr	r2, .L87+8
 1385 00f8 1360     		str	r3, [r2]
 1386              	.L86:
1543:../../../FreeRTOS_9_0/Source/tasks.c **** 					}
1544:../../../FreeRTOS_9_0/Source/tasks.c **** 					else
1545:../../../FreeRTOS_9_0/Source/tasks.c **** 					{
1546:../../../FreeRTOS_9_0/Source/tasks.c **** 						mtCOVERAGE_TEST_MARKER();
1547:../../../FreeRTOS_9_0/Source/tasks.c **** 					}
1548:../../../FreeRTOS_9_0/Source/tasks.c **** 					prvReaddTaskToReadyList( pxTCB );
 1387              		.loc 1 1548 0
 1388 00fa BB69     		ldr	r3, [r7, #24]
 1389 00fc DB6A     		ldr	r3, [r3, #44]
 1390 00fe 1A46     		mov	r2, r3
 1391 0100 0123     		movs	r3, #1
 1392 0102 03FA02F2 		lsl	r2, r3, r2
 1393 0106 134B     		ldr	r3, .L87+8
 1394 0108 1B68     		ldr	r3, [r3]
 1395 010a 1343     		orrs	r3, r3, r2
 1396 010c 114A     		ldr	r2, .L87+8
 1397 010e 1360     		str	r3, [r2]
 1398 0110 BB69     		ldr	r3, [r7, #24]
 1399 0112 DA6A     		ldr	r2, [r3, #44]
 1400 0114 1346     		mov	r3, r2
 1401 0116 9B00     		lsls	r3, r3, #2
 1402 0118 1344     		add	r3, r3, r2
 1403 011a 9B00     		lsls	r3, r3, #2
 1404 011c 0C4A     		ldr	r2, .L87+4
 1405 011e 1A44     		add	r2, r2, r3
ARM GAS  /tmp/ccfW2k76.s 			page 57


 1406 0120 BB69     		ldr	r3, [r7, #24]
 1407 0122 0433     		adds	r3, r3, #4
 1408 0124 1046     		mov	r0, r2
 1409 0126 1946     		mov	r1, r3
 1410 0128 FFF7FEFF 		bl	vListInsertEnd
 1411              	.L85:
1549:../../../FreeRTOS_9_0/Source/tasks.c **** 				}
1550:../../../FreeRTOS_9_0/Source/tasks.c **** 				else
1551:../../../FreeRTOS_9_0/Source/tasks.c **** 				{
1552:../../../FreeRTOS_9_0/Source/tasks.c **** 					mtCOVERAGE_TEST_MARKER();
1553:../../../FreeRTOS_9_0/Source/tasks.c **** 				}
1554:../../../FreeRTOS_9_0/Source/tasks.c **** 
1555:../../../FreeRTOS_9_0/Source/tasks.c **** 				if( xYieldRequired != pdFALSE )
 1412              		.loc 1 1555 0
 1413 012c FB69     		ldr	r3, [r7, #28]
 1414 012e 002B     		cmp	r3, #0
 1415 0130 07D0     		beq	.L78
1556:../../../FreeRTOS_9_0/Source/tasks.c **** 				{
1557:../../../FreeRTOS_9_0/Source/tasks.c **** 					taskYIELD_IF_USING_PREEMPTION();
 1416              		.loc 1 1557 0
 1417 0132 094B     		ldr	r3, .L87+12
 1418 0134 4FF08052 		mov	r2, #268435456
 1419 0138 1A60     		str	r2, [r3]
 1420              	@ 1557 "../../../FreeRTOS_9_0/Source/tasks.c" 1
 1421 013a BFF34F8F 		dsb
 1422              	@ 0 "" 2
 1423              	@ 1557 "../../../FreeRTOS_9_0/Source/tasks.c" 1
 1424 013e BFF36F8F 		isb
 1425              	@ 0 "" 2
 1426              		.thumb
 1427              	.L78:
1558:../../../FreeRTOS_9_0/Source/tasks.c **** 				}
1559:../../../FreeRTOS_9_0/Source/tasks.c **** 				else
1560:../../../FreeRTOS_9_0/Source/tasks.c **** 				{
1561:../../../FreeRTOS_9_0/Source/tasks.c **** 					mtCOVERAGE_TEST_MARKER();
1562:../../../FreeRTOS_9_0/Source/tasks.c **** 				}
1563:../../../FreeRTOS_9_0/Source/tasks.c **** 
1564:../../../FreeRTOS_9_0/Source/tasks.c **** 				/* Remove compiler warning about unused variables when the port
1565:../../../FreeRTOS_9_0/Source/tasks.c **** 				optimised task selection is not being used. */
1566:../../../FreeRTOS_9_0/Source/tasks.c **** 				( void ) uxPriorityUsedOnEntry;
1567:../../../FreeRTOS_9_0/Source/tasks.c **** 			}
1568:../../../FreeRTOS_9_0/Source/tasks.c **** 		}
1569:../../../FreeRTOS_9_0/Source/tasks.c **** 		taskEXIT_CRITICAL();
 1428              		.loc 1 1569 0
 1429 0142 FFF7FEFF 		bl	vPortExitCritical
1570:../../../FreeRTOS_9_0/Source/tasks.c **** 	}
 1430              		.loc 1 1570 0
 1431 0146 2037     		adds	r7, r7, #32
 1432              	.LCFI43:
 1433              		.cfi_def_cfa_offset 8
 1434 0148 BD46     		mov	sp, r7
 1435              	.LCFI44:
 1436              		.cfi_def_cfa_register 13
 1437              		@ sp needed
 1438 014a 80BD     		pop	{r7, pc}
 1439              	.L88:
 1440              		.align	2
ARM GAS  /tmp/ccfW2k76.s 			page 58


 1441              	.L87:
 1442 014c 00000000 		.word	pxCurrentTCB
 1443 0150 00000000 		.word	pxReadyTasksLists
 1444 0154 00000000 		.word	uxTopReadyPriority
 1445 0158 04ED00E0 		.word	-536810236
 1446              		.cfi_endproc
 1447              	.LFE13:
 1449              		.section	.text.vTaskSuspend,"ax",%progbits
 1450              		.align	2
 1451              		.global	vTaskSuspend
 1452              		.thumb
 1453              		.thumb_func
 1455              	vTaskSuspend:
 1456              	.LFB14:
1571:../../../FreeRTOS_9_0/Source/tasks.c **** 
1572:../../../FreeRTOS_9_0/Source/tasks.c **** #endif /* INCLUDE_vTaskPrioritySet */
1573:../../../FreeRTOS_9_0/Source/tasks.c **** /*-----------------------------------------------------------*/
1574:../../../FreeRTOS_9_0/Source/tasks.c **** 
1575:../../../FreeRTOS_9_0/Source/tasks.c **** #if ( INCLUDE_vTaskSuspend == 1 )
1576:../../../FreeRTOS_9_0/Source/tasks.c **** 
1577:../../../FreeRTOS_9_0/Source/tasks.c **** 	void vTaskSuspend( TaskHandle_t xTaskToSuspend )
1578:../../../FreeRTOS_9_0/Source/tasks.c **** 	{
 1457              		.loc 1 1578 0
 1458              		.cfi_startproc
 1459              		@ args = 0, pretend = 0, frame = 16
 1460              		@ frame_needed = 1, uses_anonymous_args = 0
 1461 0000 80B5     		push	{r7, lr}
 1462              	.LCFI45:
 1463              		.cfi_def_cfa_offset 8
 1464              		.cfi_offset 7, -8
 1465              		.cfi_offset 14, -4
 1466 0002 84B0     		sub	sp, sp, #16
 1467              	.LCFI46:
 1468              		.cfi_def_cfa_offset 24
 1469 0004 00AF     		add	r7, sp, #0
 1470              	.LCFI47:
 1471              		.cfi_def_cfa_register 7
 1472 0006 7860     		str	r0, [r7, #4]
1579:../../../FreeRTOS_9_0/Source/tasks.c **** 	TCB_t *pxTCB;
1580:../../../FreeRTOS_9_0/Source/tasks.c **** 
1581:../../../FreeRTOS_9_0/Source/tasks.c **** 		taskENTER_CRITICAL();
 1473              		.loc 1 1581 0
 1474 0008 FFF7FEFF 		bl	vPortEnterCritical
1582:../../../FreeRTOS_9_0/Source/tasks.c **** 		{
1583:../../../FreeRTOS_9_0/Source/tasks.c **** 			/* If null is passed in here then it is the running task that is
1584:../../../FreeRTOS_9_0/Source/tasks.c **** 			being suspended. */
1585:../../../FreeRTOS_9_0/Source/tasks.c **** 			pxTCB = prvGetTCBFromHandle( xTaskToSuspend );
 1475              		.loc 1 1585 0
 1476 000c 7B68     		ldr	r3, [r7, #4]
 1477 000e 002B     		cmp	r3, #0
 1478 0010 02D1     		bne	.L90
 1479              		.loc 1 1585 0 is_stmt 0 discriminator 1
 1480 0012 364B     		ldr	r3, .L102
 1481 0014 1B68     		ldr	r3, [r3]
 1482 0016 00E0     		b	.L91
 1483              	.L90:
 1484              		.loc 1 1585 0 discriminator 2
ARM GAS  /tmp/ccfW2k76.s 			page 59


 1485 0018 7B68     		ldr	r3, [r7, #4]
 1486              	.L91:
 1487              		.loc 1 1585 0 discriminator 4
 1488 001a FB60     		str	r3, [r7, #12]
1586:../../../FreeRTOS_9_0/Source/tasks.c **** 
1587:../../../FreeRTOS_9_0/Source/tasks.c **** 			traceTASK_SUSPEND( pxTCB );
1588:../../../FreeRTOS_9_0/Source/tasks.c **** 
1589:../../../FreeRTOS_9_0/Source/tasks.c **** 			/* Remove task from the ready/delayed list and place in the
1590:../../../FreeRTOS_9_0/Source/tasks.c **** 			suspended list. */
1591:../../../FreeRTOS_9_0/Source/tasks.c **** 			if( uxListRemove( &( pxTCB->xStateListItem ) ) == ( UBaseType_t ) 0 )
 1489              		.loc 1 1591 0 is_stmt 1 discriminator 4
 1490 001c FB68     		ldr	r3, [r7, #12]
 1491 001e 0433     		adds	r3, r3, #4
 1492 0020 1846     		mov	r0, r3
 1493 0022 FFF7FEFF 		bl	uxListRemove
 1494 0026 0346     		mov	r3, r0
 1495 0028 002B     		cmp	r3, #0
 1496 002a 15D1     		bne	.L92
1592:../../../FreeRTOS_9_0/Source/tasks.c **** 			{
1593:../../../FreeRTOS_9_0/Source/tasks.c **** 				taskRESET_READY_PRIORITY( pxTCB->uxPriority );
 1497              		.loc 1 1593 0
 1498 002c FB68     		ldr	r3, [r7, #12]
 1499 002e DA6A     		ldr	r2, [r3, #44]
 1500 0030 2F49     		ldr	r1, .L102+4
 1501 0032 1346     		mov	r3, r2
 1502 0034 9B00     		lsls	r3, r3, #2
 1503 0036 1344     		add	r3, r3, r2
 1504 0038 9B00     		lsls	r3, r3, #2
 1505 003a 0B44     		add	r3, r3, r1
 1506 003c 1B68     		ldr	r3, [r3]
 1507 003e 002B     		cmp	r3, #0
 1508 0040 0AD1     		bne	.L92
 1509              		.loc 1 1593 0 is_stmt 0 discriminator 1
 1510 0042 FB68     		ldr	r3, [r7, #12]
 1511 0044 DB6A     		ldr	r3, [r3, #44]
 1512 0046 1A46     		mov	r2, r3
 1513 0048 0123     		movs	r3, #1
 1514 004a 9340     		lsls	r3, r3, r2
 1515 004c DA43     		mvns	r2, r3
 1516 004e 294B     		ldr	r3, .L102+8
 1517 0050 1B68     		ldr	r3, [r3]
 1518 0052 1340     		ands	r3, r3, r2
 1519 0054 274A     		ldr	r2, .L102+8
 1520 0056 1360     		str	r3, [r2]
 1521              	.L92:
1594:../../../FreeRTOS_9_0/Source/tasks.c **** 			}
1595:../../../FreeRTOS_9_0/Source/tasks.c **** 			else
1596:../../../FreeRTOS_9_0/Source/tasks.c **** 			{
1597:../../../FreeRTOS_9_0/Source/tasks.c **** 				mtCOVERAGE_TEST_MARKER();
1598:../../../FreeRTOS_9_0/Source/tasks.c **** 			}
1599:../../../FreeRTOS_9_0/Source/tasks.c **** 
1600:../../../FreeRTOS_9_0/Source/tasks.c **** 			/* Is the task waiting on an event also? */
1601:../../../FreeRTOS_9_0/Source/tasks.c **** 			if( listLIST_ITEM_CONTAINER( &( pxTCB->xEventListItem ) ) != NULL )
 1522              		.loc 1 1601 0 is_stmt 1
 1523 0058 FB68     		ldr	r3, [r7, #12]
 1524 005a 9B6A     		ldr	r3, [r3, #40]
 1525 005c 002B     		cmp	r3, #0
ARM GAS  /tmp/ccfW2k76.s 			page 60


 1526 005e 04D0     		beq	.L94
1602:../../../FreeRTOS_9_0/Source/tasks.c **** 			{
1603:../../../FreeRTOS_9_0/Source/tasks.c **** 				( void ) uxListRemove( &( pxTCB->xEventListItem ) );
 1527              		.loc 1 1603 0
 1528 0060 FB68     		ldr	r3, [r7, #12]
 1529 0062 1833     		adds	r3, r3, #24
 1530 0064 1846     		mov	r0, r3
 1531 0066 FFF7FEFF 		bl	uxListRemove
 1532              	.L94:
1604:../../../FreeRTOS_9_0/Source/tasks.c **** 			}
1605:../../../FreeRTOS_9_0/Source/tasks.c **** 			else
1606:../../../FreeRTOS_9_0/Source/tasks.c **** 			{
1607:../../../FreeRTOS_9_0/Source/tasks.c **** 				mtCOVERAGE_TEST_MARKER();
1608:../../../FreeRTOS_9_0/Source/tasks.c **** 			}
1609:../../../FreeRTOS_9_0/Source/tasks.c **** 
1610:../../../FreeRTOS_9_0/Source/tasks.c **** 			traceMOVED_TASK_TO_SUSPENDED_LIST(pxTCB);
1611:../../../FreeRTOS_9_0/Source/tasks.c **** 			vListInsertEnd( &xSuspendedTaskList, &( pxTCB->xStateListItem ) );
 1533              		.loc 1 1611 0
 1534 006a FB68     		ldr	r3, [r7, #12]
 1535 006c 0433     		adds	r3, r3, #4
 1536 006e 2248     		ldr	r0, .L102+12
 1537 0070 1946     		mov	r1, r3
 1538 0072 FFF7FEFF 		bl	vListInsertEnd
1612:../../../FreeRTOS_9_0/Source/tasks.c **** 		}
1613:../../../FreeRTOS_9_0/Source/tasks.c **** 		taskEXIT_CRITICAL();
 1539              		.loc 1 1613 0
 1540 0076 FFF7FEFF 		bl	vPortExitCritical
1614:../../../FreeRTOS_9_0/Source/tasks.c **** 
1615:../../../FreeRTOS_9_0/Source/tasks.c **** 		if( xSchedulerRunning != pdFALSE )
 1541              		.loc 1 1615 0
 1542 007a 204B     		ldr	r3, .L102+16
 1543 007c 1B68     		ldr	r3, [r3]
 1544 007e 002B     		cmp	r3, #0
 1545 0080 05D0     		beq	.L95
1616:../../../FreeRTOS_9_0/Source/tasks.c **** 		{
1617:../../../FreeRTOS_9_0/Source/tasks.c **** 			/* Reset the next expected unblock time in case it referred to the
1618:../../../FreeRTOS_9_0/Source/tasks.c **** 			task that is now in the Suspended state. */
1619:../../../FreeRTOS_9_0/Source/tasks.c **** 			taskENTER_CRITICAL();
 1546              		.loc 1 1619 0
 1547 0082 FFF7FEFF 		bl	vPortEnterCritical
1620:../../../FreeRTOS_9_0/Source/tasks.c **** 			{
1621:../../../FreeRTOS_9_0/Source/tasks.c **** 				prvResetNextTaskUnblockTime();
 1548              		.loc 1 1621 0
 1549 0086 FFF7FEFF 		bl	prvResetNextTaskUnblockTime
1622:../../../FreeRTOS_9_0/Source/tasks.c **** 			}
1623:../../../FreeRTOS_9_0/Source/tasks.c **** 			taskEXIT_CRITICAL();
 1550              		.loc 1 1623 0
 1551 008a FFF7FEFF 		bl	vPortExitCritical
 1552              	.L95:
1624:../../../FreeRTOS_9_0/Source/tasks.c **** 		}
1625:../../../FreeRTOS_9_0/Source/tasks.c **** 		else
1626:../../../FreeRTOS_9_0/Source/tasks.c **** 		{
1627:../../../FreeRTOS_9_0/Source/tasks.c **** 			mtCOVERAGE_TEST_MARKER();
1628:../../../FreeRTOS_9_0/Source/tasks.c **** 		}
1629:../../../FreeRTOS_9_0/Source/tasks.c **** 
1630:../../../FreeRTOS_9_0/Source/tasks.c **** 		if( pxTCB == pxCurrentTCB )
 1553              		.loc 1 1630 0
ARM GAS  /tmp/ccfW2k76.s 			page 61


 1554 008e 174B     		ldr	r3, .L102
 1555 0090 1B68     		ldr	r3, [r3]
 1556 0092 FA68     		ldr	r2, [r7, #12]
 1557 0094 9A42     		cmp	r2, r3
 1558 0096 26D1     		bne	.L89
1631:../../../FreeRTOS_9_0/Source/tasks.c **** 		{
1632:../../../FreeRTOS_9_0/Source/tasks.c **** 			if( xSchedulerRunning != pdFALSE )
 1559              		.loc 1 1632 0
 1560 0098 184B     		ldr	r3, .L102+16
 1561 009a 1B68     		ldr	r3, [r3]
 1562 009c 002B     		cmp	r3, #0
 1563 009e 16D0     		beq	.L97
1633:../../../FreeRTOS_9_0/Source/tasks.c **** 			{
1634:../../../FreeRTOS_9_0/Source/tasks.c **** 				/* The current task has just been suspended. */
1635:../../../FreeRTOS_9_0/Source/tasks.c **** 				configASSERT( uxSchedulerSuspended == 0 );
 1564              		.loc 1 1635 0
 1565 00a0 174B     		ldr	r3, .L102+20
 1566 00a2 1B68     		ldr	r3, [r3]
 1567 00a4 002B     		cmp	r3, #0
 1568 00a6 09D0     		beq	.L98
 1569              	.LBB107:
 1570              	.LBB108:
 237:../../../FreeRTOS_9_0/Source/portable/GCC/ARM_CM4F/portmacro.h **** 	(
 1571              		.loc 2 237 0 discriminator 1
 1572              	@ 237 "../../../FreeRTOS_9_0/Source/portable/GCC/ARM_CM4F/portmacro.h" 1
 1573 00a8 4FF05003 			mov r3, #80												
 1574 00ac 83F31188 		msr basepri, r3											
 1575 00b0 BFF36F8F 		isb														
 1576 00b4 BFF34F8F 		dsb														
 1577              	
 1578              	@ 0 "" 2
 1579              		.thumb
 1580 00b8 BB60     		str	r3, [r7, #8]
 1581              	.L99:
 1582              	.LBE108:
 1583              	.LBE107:
 1584              		.loc 1 1635 0 discriminator 1
 1585 00ba FEE7     		b	.L99
 1586              	.L98:
1636:../../../FreeRTOS_9_0/Source/tasks.c **** 				portYIELD_WITHIN_API();
 1587              		.loc 1 1636 0
 1588 00bc 114B     		ldr	r3, .L102+24
 1589 00be 4FF08052 		mov	r2, #268435456
 1590 00c2 1A60     		str	r2, [r3]
 1591              	@ 1636 "../../../FreeRTOS_9_0/Source/tasks.c" 1
 1592 00c4 BFF34F8F 		dsb
 1593              	@ 0 "" 2
 1594              	@ 1636 "../../../FreeRTOS_9_0/Source/tasks.c" 1
 1595 00c8 BFF36F8F 		isb
 1596              	@ 0 "" 2
 1597              		.thumb
 1598 00cc 0BE0     		b	.L89
 1599              	.L97:
1637:../../../FreeRTOS_9_0/Source/tasks.c **** 			}
1638:../../../FreeRTOS_9_0/Source/tasks.c **** 			else
1639:../../../FreeRTOS_9_0/Source/tasks.c **** 			{
1640:../../../FreeRTOS_9_0/Source/tasks.c **** 				/* The scheduler is not running, but the task that was pointed
ARM GAS  /tmp/ccfW2k76.s 			page 62


1641:../../../FreeRTOS_9_0/Source/tasks.c **** 				to by pxCurrentTCB has just been suspended and pxCurrentTCB
1642:../../../FreeRTOS_9_0/Source/tasks.c **** 				must be adjusted to point to a different task. */
1643:../../../FreeRTOS_9_0/Source/tasks.c **** 				if( listCURRENT_LIST_LENGTH( &xSuspendedTaskList ) == uxCurrentNumberOfTasks )
 1600              		.loc 1 1643 0
 1601 00ce 0A4B     		ldr	r3, .L102+12
 1602 00d0 1A68     		ldr	r2, [r3]
 1603 00d2 0D4B     		ldr	r3, .L102+28
 1604 00d4 1B68     		ldr	r3, [r3]
 1605 00d6 9A42     		cmp	r2, r3
 1606 00d8 03D1     		bne	.L101
1644:../../../FreeRTOS_9_0/Source/tasks.c **** 				{
1645:../../../FreeRTOS_9_0/Source/tasks.c **** 					/* No other tasks are ready, so set pxCurrentTCB back to
1646:../../../FreeRTOS_9_0/Source/tasks.c **** 					NULL so when the next task is created pxCurrentTCB will
1647:../../../FreeRTOS_9_0/Source/tasks.c **** 					be set to point to it no matter what its relative priority
1648:../../../FreeRTOS_9_0/Source/tasks.c **** 					is. */
1649:../../../FreeRTOS_9_0/Source/tasks.c **** 					pxCurrentTCB = NULL;
 1607              		.loc 1 1649 0
 1608 00da 044B     		ldr	r3, .L102
 1609 00dc 0022     		movs	r2, #0
 1610 00de 1A60     		str	r2, [r3]
 1611 00e0 01E0     		b	.L89
 1612              	.L101:
1650:../../../FreeRTOS_9_0/Source/tasks.c **** 				}
1651:../../../FreeRTOS_9_0/Source/tasks.c **** 				else
1652:../../../FreeRTOS_9_0/Source/tasks.c **** 				{
1653:../../../FreeRTOS_9_0/Source/tasks.c **** 					vTaskSwitchContext();
 1613              		.loc 1 1653 0
 1614 00e2 FFF7FEFF 		bl	vTaskSwitchContext
 1615              	.L89:
1654:../../../FreeRTOS_9_0/Source/tasks.c **** 				}
1655:../../../FreeRTOS_9_0/Source/tasks.c **** 			}
1656:../../../FreeRTOS_9_0/Source/tasks.c **** 		}
1657:../../../FreeRTOS_9_0/Source/tasks.c **** 		else
1658:../../../FreeRTOS_9_0/Source/tasks.c **** 		{
1659:../../../FreeRTOS_9_0/Source/tasks.c **** 			mtCOVERAGE_TEST_MARKER();
1660:../../../FreeRTOS_9_0/Source/tasks.c **** 		}
1661:../../../FreeRTOS_9_0/Source/tasks.c **** 	}
 1616              		.loc 1 1661 0
 1617 00e6 1037     		adds	r7, r7, #16
 1618              	.LCFI48:
 1619              		.cfi_def_cfa_offset 8
 1620 00e8 BD46     		mov	sp, r7
 1621              	.LCFI49:
 1622              		.cfi_def_cfa_register 13
 1623              		@ sp needed
 1624 00ea 80BD     		pop	{r7, pc}
 1625              	.L103:
 1626              		.align	2
 1627              	.L102:
 1628 00ec 00000000 		.word	pxCurrentTCB
 1629 00f0 00000000 		.word	pxReadyTasksLists
 1630 00f4 00000000 		.word	uxTopReadyPriority
 1631 00f8 00000000 		.word	xSuspendedTaskList
 1632 00fc 00000000 		.word	xSchedulerRunning
 1633 0100 00000000 		.word	uxSchedulerSuspended
 1634 0104 04ED00E0 		.word	-536810236
 1635 0108 00000000 		.word	uxCurrentNumberOfTasks
ARM GAS  /tmp/ccfW2k76.s 			page 63


 1636              		.cfi_endproc
 1637              	.LFE14:
 1639              		.section	.text.prvTaskIsTaskSuspended,"ax",%progbits
 1640              		.align	2
 1641              		.thumb
 1642              		.thumb_func
 1644              	prvTaskIsTaskSuspended:
 1645              	.LFB15:
1662:../../../FreeRTOS_9_0/Source/tasks.c **** 
1663:../../../FreeRTOS_9_0/Source/tasks.c **** #endif /* INCLUDE_vTaskSuspend */
1664:../../../FreeRTOS_9_0/Source/tasks.c **** /*-----------------------------------------------------------*/
1665:../../../FreeRTOS_9_0/Source/tasks.c **** 
1666:../../../FreeRTOS_9_0/Source/tasks.c **** #if ( INCLUDE_vTaskSuspend == 1 )
1667:../../../FreeRTOS_9_0/Source/tasks.c **** 
1668:../../../FreeRTOS_9_0/Source/tasks.c **** 	static BaseType_t prvTaskIsTaskSuspended( const TaskHandle_t xTask )
1669:../../../FreeRTOS_9_0/Source/tasks.c **** 	{
 1646              		.loc 1 1669 0
 1647              		.cfi_startproc
 1648              		@ args = 0, pretend = 0, frame = 24
 1649              		@ frame_needed = 1, uses_anonymous_args = 0
 1650              		@ link register save eliminated.
 1651 0000 80B4     		push	{r7}
 1652              	.LCFI50:
 1653              		.cfi_def_cfa_offset 4
 1654              		.cfi_offset 7, -4
 1655 0002 87B0     		sub	sp, sp, #28
 1656              	.LCFI51:
 1657              		.cfi_def_cfa_offset 32
 1658 0004 00AF     		add	r7, sp, #0
 1659              	.LCFI52:
 1660              		.cfi_def_cfa_register 7
 1661 0006 7860     		str	r0, [r7, #4]
1670:../../../FreeRTOS_9_0/Source/tasks.c **** 	BaseType_t xReturn = pdFALSE;
 1662              		.loc 1 1670 0
 1663 0008 0023     		movs	r3, #0
 1664 000a 7B61     		str	r3, [r7, #20]
1671:../../../FreeRTOS_9_0/Source/tasks.c **** 	const TCB_t * const pxTCB = ( TCB_t * ) xTask;
 1665              		.loc 1 1671 0
 1666 000c 7B68     		ldr	r3, [r7, #4]
 1667 000e 3B61     		str	r3, [r7, #16]
1672:../../../FreeRTOS_9_0/Source/tasks.c **** 
1673:../../../FreeRTOS_9_0/Source/tasks.c **** 		/* Accesses xPendingReadyList so must be called from a critical
1674:../../../FreeRTOS_9_0/Source/tasks.c **** 		section. */
1675:../../../FreeRTOS_9_0/Source/tasks.c **** 
1676:../../../FreeRTOS_9_0/Source/tasks.c **** 		/* It does not make sense to check if the calling task is suspended. */
1677:../../../FreeRTOS_9_0/Source/tasks.c **** 		configASSERT( xTask );
 1668              		.loc 1 1677 0
 1669 0010 7B68     		ldr	r3, [r7, #4]
 1670 0012 002B     		cmp	r3, #0
 1671 0014 09D1     		bne	.L105
 1672              	.LBB109:
 1673              	.LBB110:
 237:../../../FreeRTOS_9_0/Source/portable/GCC/ARM_CM4F/portmacro.h **** 	(
 1674              		.loc 2 237 0 discriminator 1
 1675              	@ 237 "../../../FreeRTOS_9_0/Source/portable/GCC/ARM_CM4F/portmacro.h" 1
 1676 0016 4FF05003 			mov r3, #80												
 1677 001a 83F31188 		msr basepri, r3											
ARM GAS  /tmp/ccfW2k76.s 			page 64


 1678 001e BFF36F8F 		isb														
 1679 0022 BFF34F8F 		dsb														
 1680              	
 1681              	@ 0 "" 2
 1682              		.thumb
 1683 0026 FB60     		str	r3, [r7, #12]
 1684              	.L106:
 1685              	.LBE110:
 1686              	.LBE109:
 1687              		.loc 1 1677 0 discriminator 1
 1688 0028 FEE7     		b	.L106
 1689              	.L105:
1678:../../../FreeRTOS_9_0/Source/tasks.c **** 
1679:../../../FreeRTOS_9_0/Source/tasks.c **** 		/* Is the task being resumed actually in the suspended list? */
1680:../../../FreeRTOS_9_0/Source/tasks.c **** 		if( listIS_CONTAINED_WITHIN( &xSuspendedTaskList, &( pxTCB->xStateListItem ) ) != pdFALSE )
 1690              		.loc 1 1680 0
 1691 002a 3B69     		ldr	r3, [r7, #16]
 1692 002c 5B69     		ldr	r3, [r3, #20]
 1693 002e 0F4A     		ldr	r2, .L113
 1694 0030 9342     		cmp	r3, r2
 1695 0032 01D1     		bne	.L107
 1696              		.loc 1 1680 0 is_stmt 0 discriminator 1
 1697 0034 0123     		movs	r3, #1
 1698 0036 00E0     		b	.L108
 1699              	.L107:
 1700              		.loc 1 1680 0 discriminator 2
 1701 0038 0023     		movs	r3, #0
 1702              	.L108:
 1703              		.loc 1 1680 0 discriminator 4
 1704 003a 002B     		cmp	r3, #0
 1705 003c 0FD0     		beq	.L109
1681:../../../FreeRTOS_9_0/Source/tasks.c **** 		{
1682:../../../FreeRTOS_9_0/Source/tasks.c **** 			/* Has the task already been resumed from within an ISR? */
1683:../../../FreeRTOS_9_0/Source/tasks.c **** 			if( listIS_CONTAINED_WITHIN( &xPendingReadyList, &( pxTCB->xEventListItem ) ) == pdFALSE )
 1706              		.loc 1 1683 0 is_stmt 1
 1707 003e 3B69     		ldr	r3, [r7, #16]
 1708 0040 9B6A     		ldr	r3, [r3, #40]
 1709 0042 0B4A     		ldr	r2, .L113+4
 1710 0044 9342     		cmp	r3, r2
 1711 0046 0AD0     		beq	.L109
1684:../../../FreeRTOS_9_0/Source/tasks.c **** 			{
1685:../../../FreeRTOS_9_0/Source/tasks.c **** 				/* Is it in the suspended list because it is in the	Suspended
1686:../../../FreeRTOS_9_0/Source/tasks.c **** 				state, or because is is blocked with no timeout? */
1687:../../../FreeRTOS_9_0/Source/tasks.c **** 				if( listIS_CONTAINED_WITHIN( NULL, &( pxTCB->xEventListItem ) ) != pdFALSE )
 1712              		.loc 1 1687 0
 1713 0048 3B69     		ldr	r3, [r7, #16]
 1714 004a 9B6A     		ldr	r3, [r3, #40]
 1715 004c 002B     		cmp	r3, #0
 1716 004e 01D1     		bne	.L110
 1717              		.loc 1 1687 0 is_stmt 0 discriminator 1
 1718 0050 0123     		movs	r3, #1
 1719 0052 00E0     		b	.L111
 1720              	.L110:
 1721              		.loc 1 1687 0 discriminator 2
 1722 0054 0023     		movs	r3, #0
 1723              	.L111:
 1724              		.loc 1 1687 0 discriminator 4
ARM GAS  /tmp/ccfW2k76.s 			page 65


 1725 0056 002B     		cmp	r3, #0
 1726 0058 01D0     		beq	.L109
1688:../../../FreeRTOS_9_0/Source/tasks.c **** 				{
1689:../../../FreeRTOS_9_0/Source/tasks.c **** 					xReturn = pdTRUE;
 1727              		.loc 1 1689 0 is_stmt 1
 1728 005a 0123     		movs	r3, #1
 1729 005c 7B61     		str	r3, [r7, #20]
 1730              	.L109:
1690:../../../FreeRTOS_9_0/Source/tasks.c **** 				}
1691:../../../FreeRTOS_9_0/Source/tasks.c **** 				else
1692:../../../FreeRTOS_9_0/Source/tasks.c **** 				{
1693:../../../FreeRTOS_9_0/Source/tasks.c **** 					mtCOVERAGE_TEST_MARKER();
1694:../../../FreeRTOS_9_0/Source/tasks.c **** 				}
1695:../../../FreeRTOS_9_0/Source/tasks.c **** 			}
1696:../../../FreeRTOS_9_0/Source/tasks.c **** 			else
1697:../../../FreeRTOS_9_0/Source/tasks.c **** 			{
1698:../../../FreeRTOS_9_0/Source/tasks.c **** 				mtCOVERAGE_TEST_MARKER();
1699:../../../FreeRTOS_9_0/Source/tasks.c **** 			}
1700:../../../FreeRTOS_9_0/Source/tasks.c **** 		}
1701:../../../FreeRTOS_9_0/Source/tasks.c **** 		else
1702:../../../FreeRTOS_9_0/Source/tasks.c **** 		{
1703:../../../FreeRTOS_9_0/Source/tasks.c **** 			mtCOVERAGE_TEST_MARKER();
1704:../../../FreeRTOS_9_0/Source/tasks.c **** 		}
1705:../../../FreeRTOS_9_0/Source/tasks.c **** 
1706:../../../FreeRTOS_9_0/Source/tasks.c **** 		return xReturn;
 1731              		.loc 1 1706 0
 1732 005e 7B69     		ldr	r3, [r7, #20]
1707:../../../FreeRTOS_9_0/Source/tasks.c **** 	} /*lint !e818 xTask cannot be a pointer to const because it is a typedef. */
 1733              		.loc 1 1707 0
 1734 0060 1846     		mov	r0, r3
 1735 0062 1C37     		adds	r7, r7, #28
 1736              	.LCFI53:
 1737              		.cfi_def_cfa_offset 4
 1738 0064 BD46     		mov	sp, r7
 1739              	.LCFI54:
 1740              		.cfi_def_cfa_register 13
 1741              		@ sp needed
 1742 0066 5DF8047B 		ldr	r7, [sp], #4
 1743              	.LCFI55:
 1744              		.cfi_restore 7
 1745              		.cfi_def_cfa_offset 0
 1746 006a 7047     		bx	lr
 1747              	.L114:
 1748              		.align	2
 1749              	.L113:
 1750 006c 00000000 		.word	xSuspendedTaskList
 1751 0070 00000000 		.word	xPendingReadyList
 1752              		.cfi_endproc
 1753              	.LFE15:
 1755              		.section	.text.vTaskResume,"ax",%progbits
 1756              		.align	2
 1757              		.global	vTaskResume
 1758              		.thumb
 1759              		.thumb_func
 1761              	vTaskResume:
 1762              	.LFB16:
1708:../../../FreeRTOS_9_0/Source/tasks.c **** 
ARM GAS  /tmp/ccfW2k76.s 			page 66


1709:../../../FreeRTOS_9_0/Source/tasks.c **** #endif /* INCLUDE_vTaskSuspend */
1710:../../../FreeRTOS_9_0/Source/tasks.c **** /*-----------------------------------------------------------*/
1711:../../../FreeRTOS_9_0/Source/tasks.c **** 
1712:../../../FreeRTOS_9_0/Source/tasks.c **** #if ( INCLUDE_vTaskSuspend == 1 )
1713:../../../FreeRTOS_9_0/Source/tasks.c **** 
1714:../../../FreeRTOS_9_0/Source/tasks.c **** 	void vTaskResume( TaskHandle_t xTaskToResume )
1715:../../../FreeRTOS_9_0/Source/tasks.c **** 	{
 1763              		.loc 1 1715 0
 1764              		.cfi_startproc
 1765              		@ args = 0, pretend = 0, frame = 16
 1766              		@ frame_needed = 1, uses_anonymous_args = 0
 1767 0000 80B5     		push	{r7, lr}
 1768              	.LCFI56:
 1769              		.cfi_def_cfa_offset 8
 1770              		.cfi_offset 7, -8
 1771              		.cfi_offset 14, -4
 1772 0002 84B0     		sub	sp, sp, #16
 1773              	.LCFI57:
 1774              		.cfi_def_cfa_offset 24
 1775 0004 00AF     		add	r7, sp, #0
 1776              	.LCFI58:
 1777              		.cfi_def_cfa_register 7
 1778 0006 7860     		str	r0, [r7, #4]
1716:../../../FreeRTOS_9_0/Source/tasks.c **** 	TCB_t * const pxTCB = ( TCB_t * ) xTaskToResume;
 1779              		.loc 1 1716 0
 1780 0008 7B68     		ldr	r3, [r7, #4]
 1781 000a FB60     		str	r3, [r7, #12]
1717:../../../FreeRTOS_9_0/Source/tasks.c **** 
1718:../../../FreeRTOS_9_0/Source/tasks.c **** 		/* It does not make sense to resume the calling task. */
1719:../../../FreeRTOS_9_0/Source/tasks.c **** 		configASSERT( xTaskToResume );
 1782              		.loc 1 1719 0
 1783 000c 7B68     		ldr	r3, [r7, #4]
 1784 000e 002B     		cmp	r3, #0
 1785 0010 09D1     		bne	.L116
 1786              	.LBB111:
 1787              	.LBB112:
 237:../../../FreeRTOS_9_0/Source/portable/GCC/ARM_CM4F/portmacro.h **** 	(
 1788              		.loc 2 237 0 discriminator 1
 1789              	@ 237 "../../../FreeRTOS_9_0/Source/portable/GCC/ARM_CM4F/portmacro.h" 1
 1790 0012 4FF05003 			mov r3, #80												
 1791 0016 83F31188 		msr basepri, r3											
 1792 001a BFF36F8F 		isb														
 1793 001e BFF34F8F 		dsb														
 1794              	
 1795              	@ 0 "" 2
 1796              		.thumb
 1797 0022 BB60     		str	r3, [r7, #8]
 1798              	.L117:
 1799              	.LBE112:
 1800              	.LBE111:
 1801              		.loc 1 1719 0 discriminator 1
 1802 0024 FEE7     		b	.L117
 1803              	.L116:
1720:../../../FreeRTOS_9_0/Source/tasks.c **** 
1721:../../../FreeRTOS_9_0/Source/tasks.c **** 		/* The parameter cannot be NULL as it is impossible to resume the
1722:../../../FreeRTOS_9_0/Source/tasks.c **** 		currently executing task. */
1723:../../../FreeRTOS_9_0/Source/tasks.c **** 		if( ( pxTCB != NULL ) && ( pxTCB != pxCurrentTCB ) )
ARM GAS  /tmp/ccfW2k76.s 			page 67


 1804              		.loc 1 1723 0
 1805 0026 FB68     		ldr	r3, [r7, #12]
 1806 0028 002B     		cmp	r3, #0
 1807 002a 3BD0     		beq	.L115
 1808              		.loc 1 1723 0 is_stmt 0 discriminator 1
 1809 002c 1F4B     		ldr	r3, .L120
 1810 002e 1B68     		ldr	r3, [r3]
 1811 0030 FA68     		ldr	r2, [r7, #12]
 1812 0032 9A42     		cmp	r2, r3
 1813 0034 36D0     		beq	.L115
1724:../../../FreeRTOS_9_0/Source/tasks.c **** 		{
1725:../../../FreeRTOS_9_0/Source/tasks.c **** 			taskENTER_CRITICAL();
 1814              		.loc 1 1725 0 is_stmt 1
 1815 0036 FFF7FEFF 		bl	vPortEnterCritical
1726:../../../FreeRTOS_9_0/Source/tasks.c **** 			{
1727:../../../FreeRTOS_9_0/Source/tasks.c **** 				if( prvTaskIsTaskSuspended( pxTCB ) != pdFALSE )
 1816              		.loc 1 1727 0
 1817 003a F868     		ldr	r0, [r7, #12]
 1818 003c FFF7FEFF 		bl	prvTaskIsTaskSuspended
 1819 0040 0346     		mov	r3, r0
 1820 0042 002B     		cmp	r3, #0
 1821 0044 2CD0     		beq	.L119
1728:../../../FreeRTOS_9_0/Source/tasks.c **** 				{
1729:../../../FreeRTOS_9_0/Source/tasks.c **** 					traceTASK_RESUME( pxTCB );
1730:../../../FreeRTOS_9_0/Source/tasks.c **** 
1731:../../../FreeRTOS_9_0/Source/tasks.c **** 					/* As we are in a critical section we can access the ready
1732:../../../FreeRTOS_9_0/Source/tasks.c **** 					lists even if the scheduler is suspended. */
1733:../../../FreeRTOS_9_0/Source/tasks.c **** 					( void ) uxListRemove(  &( pxTCB->xStateListItem ) );
 1822              		.loc 1 1733 0
 1823 0046 FB68     		ldr	r3, [r7, #12]
 1824 0048 0433     		adds	r3, r3, #4
 1825 004a 1846     		mov	r0, r3
 1826 004c FFF7FEFF 		bl	uxListRemove
1734:../../../FreeRTOS_9_0/Source/tasks.c **** 					prvAddTaskToReadyList( pxTCB );
 1827              		.loc 1 1734 0
 1828 0050 FB68     		ldr	r3, [r7, #12]
 1829 0052 DB6A     		ldr	r3, [r3, #44]
 1830 0054 1A46     		mov	r2, r3
 1831 0056 0123     		movs	r3, #1
 1832 0058 03FA02F2 		lsl	r2, r3, r2
 1833 005c 144B     		ldr	r3, .L120+4
 1834 005e 1B68     		ldr	r3, [r3]
 1835 0060 1343     		orrs	r3, r3, r2
 1836 0062 134A     		ldr	r2, .L120+4
 1837 0064 1360     		str	r3, [r2]
 1838 0066 FB68     		ldr	r3, [r7, #12]
 1839 0068 DA6A     		ldr	r2, [r3, #44]
 1840 006a 1346     		mov	r3, r2
 1841 006c 9B00     		lsls	r3, r3, #2
 1842 006e 1344     		add	r3, r3, r2
 1843 0070 9B00     		lsls	r3, r3, #2
 1844 0072 104A     		ldr	r2, .L120+8
 1845 0074 1A44     		add	r2, r2, r3
 1846 0076 FB68     		ldr	r3, [r7, #12]
 1847 0078 0433     		adds	r3, r3, #4
 1848 007a 1046     		mov	r0, r2
 1849 007c 1946     		mov	r1, r3
ARM GAS  /tmp/ccfW2k76.s 			page 68


 1850 007e FFF7FEFF 		bl	vListInsertEnd
1735:../../../FreeRTOS_9_0/Source/tasks.c **** 
1736:../../../FreeRTOS_9_0/Source/tasks.c **** 					/* We may have just resumed a higher priority task. */
1737:../../../FreeRTOS_9_0/Source/tasks.c **** 					if( pxTCB->uxPriority >= pxCurrentTCB->uxPriority )
 1851              		.loc 1 1737 0
 1852 0082 FB68     		ldr	r3, [r7, #12]
 1853 0084 DA6A     		ldr	r2, [r3, #44]
 1854 0086 094B     		ldr	r3, .L120
 1855 0088 1B68     		ldr	r3, [r3]
 1856 008a DB6A     		ldr	r3, [r3, #44]
 1857 008c 9A42     		cmp	r2, r3
 1858 008e 07D3     		bcc	.L119
1738:../../../FreeRTOS_9_0/Source/tasks.c **** 					{
1739:../../../FreeRTOS_9_0/Source/tasks.c **** 						/* This yield may not cause the task just resumed to run,
1740:../../../FreeRTOS_9_0/Source/tasks.c **** 						but will leave the lists in the correct state for the
1741:../../../FreeRTOS_9_0/Source/tasks.c **** 						next yield. */
1742:../../../FreeRTOS_9_0/Source/tasks.c **** 						taskYIELD_IF_USING_PREEMPTION();
 1859              		.loc 1 1742 0
 1860 0090 094B     		ldr	r3, .L120+12
 1861 0092 4FF08052 		mov	r2, #268435456
 1862 0096 1A60     		str	r2, [r3]
 1863              	@ 1742 "../../../FreeRTOS_9_0/Source/tasks.c" 1
 1864 0098 BFF34F8F 		dsb
 1865              	@ 0 "" 2
 1866              	@ 1742 "../../../FreeRTOS_9_0/Source/tasks.c" 1
 1867 009c BFF36F8F 		isb
 1868              	@ 0 "" 2
 1869              		.thumb
 1870              	.L119:
1743:../../../FreeRTOS_9_0/Source/tasks.c **** 					}
1744:../../../FreeRTOS_9_0/Source/tasks.c **** 					else
1745:../../../FreeRTOS_9_0/Source/tasks.c **** 					{
1746:../../../FreeRTOS_9_0/Source/tasks.c **** 						mtCOVERAGE_TEST_MARKER();
1747:../../../FreeRTOS_9_0/Source/tasks.c **** 					}
1748:../../../FreeRTOS_9_0/Source/tasks.c **** 				}
1749:../../../FreeRTOS_9_0/Source/tasks.c **** 				else
1750:../../../FreeRTOS_9_0/Source/tasks.c **** 				{
1751:../../../FreeRTOS_9_0/Source/tasks.c **** 					mtCOVERAGE_TEST_MARKER();
1752:../../../FreeRTOS_9_0/Source/tasks.c **** 				}
1753:../../../FreeRTOS_9_0/Source/tasks.c **** 			}
1754:../../../FreeRTOS_9_0/Source/tasks.c **** 			taskEXIT_CRITICAL();
 1871              		.loc 1 1754 0
 1872 00a0 FFF7FEFF 		bl	vPortExitCritical
 1873              	.L115:
1755:../../../FreeRTOS_9_0/Source/tasks.c **** 		}
1756:../../../FreeRTOS_9_0/Source/tasks.c **** 		else
1757:../../../FreeRTOS_9_0/Source/tasks.c **** 		{
1758:../../../FreeRTOS_9_0/Source/tasks.c **** 			mtCOVERAGE_TEST_MARKER();
1759:../../../FreeRTOS_9_0/Source/tasks.c **** 		}
1760:../../../FreeRTOS_9_0/Source/tasks.c **** 	}
 1874              		.loc 1 1760 0
 1875 00a4 1037     		adds	r7, r7, #16
 1876              	.LCFI59:
 1877              		.cfi_def_cfa_offset 8
 1878 00a6 BD46     		mov	sp, r7
 1879              	.LCFI60:
 1880              		.cfi_def_cfa_register 13
ARM GAS  /tmp/ccfW2k76.s 			page 69


 1881              		@ sp needed
 1882 00a8 80BD     		pop	{r7, pc}
 1883              	.L121:
 1884 00aa 00BF     		.align	2
 1885              	.L120:
 1886 00ac 00000000 		.word	pxCurrentTCB
 1887 00b0 00000000 		.word	uxTopReadyPriority
 1888 00b4 00000000 		.word	pxReadyTasksLists
 1889 00b8 04ED00E0 		.word	-536810236
 1890              		.cfi_endproc
 1891              	.LFE16:
 1893              		.section	.text.xTaskResumeFromISR,"ax",%progbits
 1894              		.align	2
 1895              		.global	xTaskResumeFromISR
 1896              		.thumb
 1897              		.thumb_func
 1899              	xTaskResumeFromISR:
 1900              	.LFB17:
1761:../../../FreeRTOS_9_0/Source/tasks.c **** 
1762:../../../FreeRTOS_9_0/Source/tasks.c **** #endif /* INCLUDE_vTaskSuspend */
1763:../../../FreeRTOS_9_0/Source/tasks.c **** 
1764:../../../FreeRTOS_9_0/Source/tasks.c **** /*-----------------------------------------------------------*/
1765:../../../FreeRTOS_9_0/Source/tasks.c **** 
1766:../../../FreeRTOS_9_0/Source/tasks.c **** #if ( ( INCLUDE_xTaskResumeFromISR == 1 ) && ( INCLUDE_vTaskSuspend == 1 ) )
1767:../../../FreeRTOS_9_0/Source/tasks.c **** 
1768:../../../FreeRTOS_9_0/Source/tasks.c **** 	BaseType_t xTaskResumeFromISR( TaskHandle_t xTaskToResume )
1769:../../../FreeRTOS_9_0/Source/tasks.c **** 	{
 1901              		.loc 1 1769 0
 1902              		.cfi_startproc
 1903              		@ args = 0, pretend = 0, frame = 40
 1904              		@ frame_needed = 1, uses_anonymous_args = 0
 1905 0000 80B5     		push	{r7, lr}
 1906              	.LCFI61:
 1907              		.cfi_def_cfa_offset 8
 1908              		.cfi_offset 7, -8
 1909              		.cfi_offset 14, -4
 1910 0002 8AB0     		sub	sp, sp, #40
 1911              	.LCFI62:
 1912              		.cfi_def_cfa_offset 48
 1913 0004 00AF     		add	r7, sp, #0
 1914              	.LCFI63:
 1915              		.cfi_def_cfa_register 7
 1916 0006 7860     		str	r0, [r7, #4]
1770:../../../FreeRTOS_9_0/Source/tasks.c **** 	BaseType_t xYieldRequired = pdFALSE;
 1917              		.loc 1 1770 0
 1918 0008 0023     		movs	r3, #0
 1919 000a 7B62     		str	r3, [r7, #36]
1771:../../../FreeRTOS_9_0/Source/tasks.c **** 	TCB_t * const pxTCB = ( TCB_t * ) xTaskToResume;
 1920              		.loc 1 1771 0
 1921 000c 7B68     		ldr	r3, [r7, #4]
 1922 000e 3B62     		str	r3, [r7, #32]
1772:../../../FreeRTOS_9_0/Source/tasks.c **** 	UBaseType_t uxSavedInterruptStatus;
1773:../../../FreeRTOS_9_0/Source/tasks.c **** 
1774:../../../FreeRTOS_9_0/Source/tasks.c **** 		configASSERT( xTaskToResume );
 1923              		.loc 1 1774 0
 1924 0010 7B68     		ldr	r3, [r7, #4]
 1925 0012 002B     		cmp	r3, #0
ARM GAS  /tmp/ccfW2k76.s 			page 70


 1926 0014 09D1     		bne	.L123
 1927              	.LBB113:
 1928              	.LBB114:
 237:../../../FreeRTOS_9_0/Source/portable/GCC/ARM_CM4F/portmacro.h **** 	(
 1929              		.loc 2 237 0 discriminator 1
 1930              	@ 237 "../../../FreeRTOS_9_0/Source/portable/GCC/ARM_CM4F/portmacro.h" 1
 1931 0016 4FF05003 			mov r3, #80												
 1932 001a 83F31188 		msr basepri, r3											
 1933 001e BFF36F8F 		isb														
 1934 0022 BFF34F8F 		dsb														
 1935              	
 1936              	@ 0 "" 2
 1937              		.thumb
 1938 0026 BB61     		str	r3, [r7, #24]
 1939              	.L124:
 1940              	.LBE114:
 1941              	.LBE113:
 1942              		.loc 1 1774 0 discriminator 1
 1943 0028 FEE7     		b	.L124
 1944              	.L123:
1775:../../../FreeRTOS_9_0/Source/tasks.c **** 
1776:../../../FreeRTOS_9_0/Source/tasks.c **** 		/* RTOS ports that support interrupt nesting have the concept of a
1777:../../../FreeRTOS_9_0/Source/tasks.c **** 		maximum	system call (or maximum API call) interrupt priority.
1778:../../../FreeRTOS_9_0/Source/tasks.c **** 		Interrupts that are	above the maximum system call priority are keep
1779:../../../FreeRTOS_9_0/Source/tasks.c **** 		permanently enabled, even when the RTOS kernel is in a critical section,
1780:../../../FreeRTOS_9_0/Source/tasks.c **** 		but cannot make any calls to FreeRTOS API functions.  If configASSERT()
1781:../../../FreeRTOS_9_0/Source/tasks.c **** 		is defined in FreeRTOSConfig.h then
1782:../../../FreeRTOS_9_0/Source/tasks.c **** 		portASSERT_IF_INTERRUPT_PRIORITY_INVALID() will result in an assertion
1783:../../../FreeRTOS_9_0/Source/tasks.c **** 		failure if a FreeRTOS API function is called from an interrupt that has
1784:../../../FreeRTOS_9_0/Source/tasks.c **** 		been assigned a priority above the configured maximum system call
1785:../../../FreeRTOS_9_0/Source/tasks.c **** 		priority.  Only FreeRTOS functions that end in FromISR can be called
1786:../../../FreeRTOS_9_0/Source/tasks.c **** 		from interrupts	that have been assigned a priority at or (logically)
1787:../../../FreeRTOS_9_0/Source/tasks.c **** 		below the maximum system call interrupt priority.  FreeRTOS maintains a
1788:../../../FreeRTOS_9_0/Source/tasks.c **** 		separate interrupt safe API to ensure interrupt entry is as fast and as
1789:../../../FreeRTOS_9_0/Source/tasks.c **** 		simple as possible.  More information (albeit Cortex-M specific) is
1790:../../../FreeRTOS_9_0/Source/tasks.c **** 		provided on the following link:
1791:../../../FreeRTOS_9_0/Source/tasks.c **** 		http://www.freertos.org/RTOS-Cortex-M3-M4.html */
1792:../../../FreeRTOS_9_0/Source/tasks.c **** 		portASSERT_IF_INTERRUPT_PRIORITY_INVALID();
 1945              		.loc 1 1792 0
 1946 002a FFF7FEFF 		bl	vPortValidateInterruptPriority
 1947              	.LBB115:
 1948              	.LBB116:
 253:../../../FreeRTOS_9_0/Source/portable/GCC/ARM_CM4F/portmacro.h **** 	(
 1949              		.loc 2 253 0
 1950              	@ 253 "../../../FreeRTOS_9_0/Source/portable/GCC/ARM_CM4F/portmacro.h" 1
 1951 002e EFF31182 			mrs r2, basepri											
 1952 0032 4FF05003 		mov r3, #80												
 1953 0036 83F31188 		msr basepri, r3											
 1954 003a BFF36F8F 		isb														
 1955 003e BFF34F8F 		dsb														
 1956              	
 1957              	@ 0 "" 2
 1958              		.thumb
 1959 0042 7A61     		str	r2, [r7, #20]
 1960 0044 3B61     		str	r3, [r7, #16]
 265:../../../FreeRTOS_9_0/Source/portable/GCC/ARM_CM4F/portmacro.h **** }
 1961              		.loc 2 265 0
ARM GAS  /tmp/ccfW2k76.s 			page 71


 1962 0046 7B69     		ldr	r3, [r7, #20]
 1963              	.LBE116:
 1964              	.LBE115:
1793:../../../FreeRTOS_9_0/Source/tasks.c **** 
1794:../../../FreeRTOS_9_0/Source/tasks.c **** 		uxSavedInterruptStatus = portSET_INTERRUPT_MASK_FROM_ISR();
 1965              		.loc 1 1794 0
 1966 0048 FB61     		str	r3, [r7, #28]
1795:../../../FreeRTOS_9_0/Source/tasks.c **** 		{
1796:../../../FreeRTOS_9_0/Source/tasks.c **** 			if( prvTaskIsTaskSuspended( pxTCB ) != pdFALSE )
 1967              		.loc 1 1796 0
 1968 004a 386A     		ldr	r0, [r7, #32]
 1969 004c FFF7FEFF 		bl	prvTaskIsTaskSuspended
 1970 0050 0346     		mov	r3, r0
 1971 0052 002B     		cmp	r3, #0
 1972 0054 31D0     		beq	.L126
1797:../../../FreeRTOS_9_0/Source/tasks.c **** 			{
1798:../../../FreeRTOS_9_0/Source/tasks.c **** 				traceTASK_RESUME_FROM_ISR( pxTCB );
1799:../../../FreeRTOS_9_0/Source/tasks.c **** 
1800:../../../FreeRTOS_9_0/Source/tasks.c **** 				/* Check the ready lists can be accessed. */
